ccollections
OrderedDict
p0
((lp1
(lp2
S'timestamp'
p3
aF0.0047070980072021484
aa(lp4
S'distance'
p5
aF373.3581008911133
aa(lp6
S'state'
p7
aI0
aatp8
Rp9
.ccollections
OrderedDict
p0
((lp1
(lp2
S'timestamp'
p3
aF0.0049250125885009766
aa(lp4
S'distance'
p5
aF373.3581008911133
aa(lp6
S'state'
p7
aI0
aatp8
Rp9
.ccollections
OrderedDict
p0
((lp1
(lp2
S'timestamp'
p3
aF0.026047945022583008
aa(lp4
S'distance'
p5
aF373.3581008911133
aa(lp6
S'state'
p7
aI0
aatp8
Rp9
.ccollections
OrderedDict
p0
((lp1
(lp2
S'timestamp'
p3
aF0.026176929473876953
aa(lp4
S'distance'
p5
aF373.3581008911133
aa(lp6
S'state'
p7
aI0
aatp8
Rp9
.ccollections
OrderedDict
p0
((lp1
(lp2
S'timestamp'
p3
aF0.027189970016479492
aa(lp4
S'distance'
p5
aF373.3581008911133
aa(lp6
S'state'
p7
aI0
aatp8
Rp9
.ccollections
OrderedDict
p0
((lp1
(lp2
S'timestamp'
p3
aF0.029259920120239258
aa(lp4
S'distance'
p5
aF373.3581008911133
aa(lp6
S'state'
p7
aI0
aatp8
Rp9
.ccollections
OrderedDict
p0
((lp1
(lp2
S'timestamp'
p3
aF0.04568195343017578
aa(lp4
S'distance'
p5
aF373.3581008911133
aa(lp6
S'state'
p7
aI0
aatp8
Rp9
.ccollections
OrderedDict
p0
((lp1
(lp2
S'timestamp'
p3
aF0.04574394226074219
aa(lp4
S'distance'
p5
aF373.3581008911133
aa(lp6
S'state'
p7
aI0
aatp8
Rp9
.ccollections
OrderedDict
p0
((lp1
(lp2
S'timestamp'
p3
aF0.04773211479187012
aa(lp4
S'distance'
p5
aF373.3581008911133
aa(lp6
S'state'
p7
aI0
aatp8
Rp9
.ccollections
OrderedDict
p0
((lp1
(lp2
S'timestamp'
p3
aF0.04890799522399902
aa(lp4
S'distance'
p5
aF373.3581008911133
aa(lp6
S'state'
p7
aI0
aatp8
Rp9
.ccollections
OrderedDict
p0
((lp1
(lp2
S'timestamp'
p3
aF0.05486297607421875
aa(lp4
S'distance'
p5
aF373.3581008911133
aa(lp6
S'state'
p7
aI0
aatp8
Rp9
.ccollections
OrderedDict
p0
((lp1
(lp2
S'timestamp'
p3
aF0.05516409873962402
aa(lp4
S'distance'
p5
aF373.3581008911133
aa(lp6
S'state'
p7
aI0
aatp8
Rp9
.ccollections
OrderedDict
p0
((lp1
(lp2
S'timestamp'
p3
aF0.06507110595703125
aa(lp4
S'distance'
p5
aF373.3581008911133
aa(lp6
S'state'
p7
aI0
aatp8
Rp9
.ccollections
OrderedDict
p0
((lp1
(lp2
S'timestamp'
p3
aF0.06516313552856445
aa(lp4
S'distance'
p5
aF373.3581008911133
aa(lp6
S'state'
p7
aI0
aatp8
Rp9
.ccollections
OrderedDict
p0
((lp1
(lp2
S'timestamp'
p3
aF0.0756070613861084
aa(lp4
S'distance'
p5
aF373.3581008911133
aa(lp6
S'state'
p7
aI0
aatp8
Rp9
.ccollections
OrderedDict
p0
((lp1
(lp2
S'timestamp'
p3
aF0.0759270191192627
aa(lp4
S'distance'
p5
aF373.3581008911133
aa(lp6
S'state'
p7
aI0
aatp8
Rp9
.ccollections
OrderedDict
p0
((lp1
(lp2
S'timestamp'
p3
aF0.08434891700744629
aa(lp4
S'distance'
p5
aF373.3581008911133
aa(lp6
S'state'
p7
aI0
aatp8
Rp9
.ccollections
OrderedDict
p0
((lp1
(lp2
S'timestamp'
p3
aF0.0848701000213623
aa(lp4
S'distance'
p5
aF373.3581008911133
aa(lp6
S'state'
p7
aI0
aatp8
Rp9
.ccollections
OrderedDict
p0
((lp1
(lp2
S'timestamp'
p3
aF0.09477901458740234
aa(lp4
S'distance'
p5
aF373.3581008911133
aa(lp6
S'state'
p7
aI0
aatp8
Rp9
.ccollections
OrderedDict
p0
((lp1
(lp2
S'timestamp'
p3
aF0.09489893913269043
aa(lp4
S'distance'
p5
aF373.3581008911133
aa(lp6
S'state'
p7
aI0
aatp8
Rp9
.ccollections
OrderedDict
p0
((lp1
(lp2
S'timestamp'
p3
aF0.10537004470825195
aa(lp4
S'distance'
p5
aF373.3581008911133
aa(lp6
S'state'
p7
aI0
aatp8
Rp9
.ccollections
OrderedDict
p0
((lp1
(lp2
S'timestamp'
p3
aF0.10713696479797363
aa(lp4
S'distance'
p5
aF373.3581008911133
aa(lp6
S'state'
p7
aI0
aatp8
Rp9
.ccollections
OrderedDict
p0
((lp1
(lp2
S'timestamp'
p3
aF0.12568306922912598
aa(lp4
S'distance'
p5
aF373.3581008911133
aa(lp6
S'state'
p7
aI0
aatp8
Rp9
.ccollections
OrderedDict
p0
((lp1
(lp2
S'timestamp'
p3
aF0.12733101844787598
aa(lp4
S'distance'
p5
aF373.3581008911133
aa(lp6
S'state'
p7
aI0
aatp8
Rp9
.ccollections
OrderedDict
p0
((lp1
(lp2
S'timestamp'
p3
aF0.12834405899047852
aa(lp4
S'distance'
p5
aF373.3581008911133
aa(lp6
S'state'
p7
aI0
aatp8
Rp9
.ccollections
OrderedDict
p0
((lp1
(lp2
S'timestamp'
p3
aF0.12843012809753418
aa(lp4
S'distance'
p5
aF373.3581008911133
aa(lp6
S'state'
p7
aI0
aatp8
Rp9
.ccollections
OrderedDict
p0
((lp1
(lp2
S'timestamp'
p3
aF0.13512396812438965
aa(lp4
S'distance'
p5
aF373.3581008911133
aa(lp6
S'state'
p7
aI0
aatp8
Rp9
.ccollections
OrderedDict
p0
((lp1
(lp2
S'timestamp'
p3
aF0.13538002967834473
aa(lp4
S'distance'
p5
aF373.3581008911133
aa(lp6
S'state'
p7
aI0
aatp8
Rp9
.ccollections
OrderedDict
p0
((lp1
(lp2
S'timestamp'
p3
aF0.1446380615234375
aa(lp4
S'distance'
p5
aF373.3581008911133
aa(lp6
S'state'
p7
aI0
aatp8
Rp9
.ccollections
OrderedDict
p0
((lp1
(lp2
S'timestamp'
p3
aF0.1450331211090088
aa(lp4
S'distance'
p5
aF373.3581008911133
aa(lp6
S'state'
p7
aI0
aatp8
Rp9
.ccollections
OrderedDict
p0
((lp1
(lp2
S'timestamp'
p3
aF0.1548759937286377
aa(lp4
S'distance'
p5
aF373.3581008911133
aa(lp6
S'state'
p7
aI0
aatp8
Rp9
.ccollections
OrderedDict
p0
((lp1
(lp2
S'timestamp'
p3
aF0.15499496459960938
aa(lp4
S'distance'
p5
aF373.3581008911133
aa(lp6
S'state'
p7
aI0
aatp8
Rp9
.ccollections
OrderedDict
p0
((lp1
(lp2
S'timestamp'
p3
aF0.1747579574584961
aa(lp4
S'distance'
p5
aF373.3581008911133
aa(lp6
S'state'
p7
aI0
aatp8
Rp9
.ccollections
OrderedDict
p0
((lp1
(lp2
S'timestamp'
p3
aF0.17489099502563477
aa(lp4
S'distance'
p5
aF373.3581008911133
aa(lp6
S'state'
p7
aI0
aatp8
Rp9
.ccollections
OrderedDict
p0
((lp1
(lp2
S'timestamp'
p3
aF0.17550206184387207
aa(lp4
S'distance'
p5
aF373.3581008911133
aa(lp6
S'state'
p7
aI0
aatp8
Rp9
.ccollections
OrderedDict
p0
((lp1
(lp2
S'timestamp'
p3
aF0.1759960651397705
aa(lp4
S'distance'
p5
aF373.3581008911133
aa(lp6
S'state'
p7
aI0
aatp8
Rp9
.ccollections
OrderedDict
p0
((lp1
(lp2
S'timestamp'
p3
aF0.19440507888793945
aa(lp4
S'distance'
p5
aF373.3581008911133
aa(lp6
S'state'
p7
aI0
aatp8
Rp9
.ccollections
OrderedDict
p0
((lp1
(lp2
S'timestamp'
p3
aF0.19481396675109863
aa(lp4
S'distance'
p5
aF373.3581008911133
aa(lp6
S'state'
p7
aI0
aatp8
Rp9
.ccollections
OrderedDict
p0
((lp1
(lp2
S'timestamp'
p3
aF0.19532513618469238
aa(lp4
S'distance'
p5
aF373.3581008911133
aa(lp6
S'state'
p7
aI0
aatp8
Rp9
.ccollections
OrderedDict
p0
((lp1
(lp2
S'timestamp'
p3
aF0.19615793228149414
aa(lp4
S'distance'
p5
aF373.3581008911133
aa(lp6
S'state'
p7
aI0
aatp8
Rp9
.ccollections
OrderedDict
p0
((lp1
(lp2
S'timestamp'
p3
aF0.20482301712036133
aa(lp4
S'distance'
p5
aF373.3581008911133
aa(lp6
S'state'
p7
aI0
aatp8
Rp9
.ccollections
OrderedDict
p0
((lp1
(lp2
S'timestamp'
p3
aF0.204941987991333
aa(lp4
S'distance'
p5
aF373.3581008911133
aa(lp6
S'state'
p7
aI0
aatp8
Rp9
.ccollections
OrderedDict
p0
((lp1
(lp2
S'timestamp'
p3
aF0.22513890266418457
aa(lp4
S'distance'
p5
aF373.3581008911133
aa(lp6
S'state'
p7
aI0
aatp8
Rp9
.ccollections
OrderedDict
p0
((lp1
(lp2
S'timestamp'
p3
aF0.22525596618652344
aa(lp4
S'distance'
p5
aF373.3581008911133
aa(lp6
S'state'
p7
aI0
aatp8
Rp9
.ccollections
OrderedDict
p0
((lp1
(lp2
S'timestamp'
p3
aF0.22576594352722168
aa(lp4
S'distance'
p5
aF373.3581008911133
aa(lp6
S'state'
p7
aI0
aatp8
Rp9
.ccollections
OrderedDict
p0
((lp1
(lp2
S'timestamp'
p3
aF0.22747302055358887
aa(lp4
S'distance'
p5
aF373.3581008911133
aa(lp6
S'state'
p7
aI0
aatp8
Rp9
.ccollections
OrderedDict
p0
((lp1
(lp2
S'timestamp'
p3
aF0.24498391151428223
aa(lp4
S'distance'
p5
aF373.3581008911133
aa(lp6
S'state'
p7
aI0
aatp8
Rp9
.ccollections
OrderedDict
p0
((lp1
(lp2
S'timestamp'
p3
aF0.24510407447814941
aa(lp4
S'distance'
p5
aF373.3581008911133
aa(lp6
S'state'
p7
aI0
aatp8
Rp9
.ccollections
OrderedDict
p0
((lp1
(lp2
S'timestamp'
p3
aF0.24535894393920898
aa(lp4
S'distance'
p5
aF373.3581008911133
aa(lp6
S'state'
p7
aI0
aatp8
Rp9
.ccollections
OrderedDict
p0
((lp1
(lp2
S'timestamp'
p3
aF0.2458970546722412
aa(lp4
S'distance'
p5
aF373.3581008911133
aa(lp6
S'state'
p7
aI0
aatp8
Rp9
.ccollections
OrderedDict
p0
((lp1
(lp2
S'timestamp'
p3
aF0.2548220157623291
aa(lp4
S'distance'
p5
aF373.3581008911133
aa(lp6
S'state'
p7
aI0
aatp8
Rp9
.ccollections
OrderedDict
p0
((lp1
(lp2
S'timestamp'
p3
aF0.25540590286254883
aa(lp4
S'distance'
p5
aF373.3581008911133
aa(lp6
S'state'
p7
aI0
aatp8
Rp9
.ccollections
OrderedDict
p0
((lp1
(lp2
S'timestamp'
p3
aF0.264617919921875
aa(lp4
S'distance'
p5
aF373.3581008911133
aa(lp6
S'state'
p7
aI0
aatp8
Rp9
.ccollections
OrderedDict
p0
((lp1
(lp2
S'timestamp'
p3
aF0.26499199867248535
aa(lp4
S'distance'
p5
aF373.3581008911133
aa(lp6
S'state'
p7
aI0
aatp8
Rp9
.ccollections
OrderedDict
p0
((lp1
(lp2
S'timestamp'
p3
aF0.27440309524536133
aa(lp4
S'distance'
p5
aF373.3581008911133
aa(lp6
S'state'
p7
aI0
aatp8
Rp9
.ccollections
OrderedDict
p0
((lp1
(lp2
S'timestamp'
p3
aF0.275177001953125
aa(lp4
S'distance'
p5
aF373.3581008911133
aa(lp6
S'state'
p7
aI0
aatp8
Rp9
.ccollections
OrderedDict
p0
((lp1
(lp2
S'timestamp'
p3
aF0.29496097564697266
aa(lp4
S'distance'
p5
aF373.3581008911133
aa(lp6
S'state'
p7
aI0
aatp8
Rp9
.ccollections
OrderedDict
p0
((lp1
(lp2
S'timestamp'
p3
aF0.2950859069824219
aa(lp4
S'distance'
p5
aF373.3581008911133
aa(lp6
S'state'
p7
aI0
aatp8
Rp9
.ccollections
OrderedDict
p0
((lp1
(lp2
S'timestamp'
p3
aF0.29546403884887695
aa(lp4
S'distance'
p5
aF373.3581008911133
aa(lp6
S'state'
p7
aI0
aatp8
Rp9
.ccollections
OrderedDict
p0
((lp1
(lp2
S'timestamp'
p3
aF0.2966940402984619
aa(lp4
S'distance'
p5
aF373.3581008911133
aa(lp6
S'state'
p7
aI0
aatp8
Rp9
.ccollections
OrderedDict
p0
((lp1
(lp2
S'timestamp'
p3
aF0.30486106872558594
aa(lp4
S'distance'
p5
aF373.3581008911133
aa(lp6
S'state'
p7
aI0
aatp8
Rp9
.ccollections
OrderedDict
p0
((lp1
(lp2
S'timestamp'
p3
aF0.3052380084991455
aa(lp4
S'distance'
p5
aF373.3581008911133
aa(lp6
S'state'
p7
aI0
aatp8
Rp9
.ccollections
OrderedDict
p0
((lp1
(lp2
S'timestamp'
p3
aF0.31481099128723145
aa(lp4
S'distance'
p5
aF373.3581008911133
aa(lp6
S'state'
p7
aI0
aatp8
Rp9
.ccollections
OrderedDict
p0
((lp1
(lp2
S'timestamp'
p3
aF0.3148939609527588
aa(lp4
S'distance'
p5
aF373.3581008911133
aa(lp6
S'state'
p7
aI0
aatp8
Rp9
.ccollections
OrderedDict
p0
((lp1
(lp2
S'timestamp'
p3
aF0.32502007484436035
aa(lp4
S'distance'
p5
aF373.3581008911133
aa(lp6
S'state'
p7
aI0
aatp8
Rp9
.ccollections
OrderedDict
p0
((lp1
(lp2
S'timestamp'
p3
aF0.32509493827819824
aa(lp4
S'distance'
p5
aF373.3581008911133
aa(lp6
S'state'
p7
aI0
aatp8
Rp9
.ccollections
OrderedDict
p0
((lp1
(lp2
S'timestamp'
p3
aF0.3449850082397461
aa(lp4
S'distance'
p5
aF373.3581008911133
aa(lp6
S'state'
p7
aI0
aatp8
Rp9
.ccollections
OrderedDict
p0
((lp1
(lp2
S'timestamp'
p3
aF0.3458859920501709
aa(lp4
S'distance'
p5
aF373.3581008911133
aa(lp6
S'state'
p7
aI0
aatp8
Rp9
.ccollections
OrderedDict
p0
((lp1
(lp2
S'timestamp'
p3
aF0.3477790355682373
aa(lp4
S'distance'
p5
aF373.3581008911133
aa(lp6
S'state'
p7
aI0
aatp8
Rp9
.ccollections
OrderedDict
p0
((lp1
(lp2
S'timestamp'
p3
aF0.3478999137878418
aa(lp4
S'distance'
p5
aF373.3581008911133
aa(lp6
S'state'
p7
aI0
aatp8
Rp9
.ccollections
OrderedDict
p0
((lp1
(lp2
S'timestamp'
p3
aF0.3544619083404541
aa(lp4
S'distance'
p5
aF373.3581008911133
aa(lp6
S'state'
p7
aI0
aatp8
Rp9
.ccollections
OrderedDict
p0
((lp1
(lp2
S'timestamp'
p3
aF0.355288028717041
aa(lp4
S'distance'
p5
aF373.3581008911133
aa(lp6
S'state'
p7
aI0
aatp8
Rp9
.ccollections
OrderedDict
p0
((lp1
(lp2
S'timestamp'
p3
aF0.3655219078063965
aa(lp4
S'distance'
p5
aF373.3581008911133
aa(lp6
S'state'
p7
aI0
aatp8
Rp9
.ccollections
OrderedDict
p0
((lp1
(lp2
S'timestamp'
p3
aF0.3659501075744629
aa(lp4
S'distance'
p5
aF373.3581008911133
aa(lp6
S'state'
p7
aI0
aatp8
Rp9
.ccollections
OrderedDict
p0
((lp1
(lp2
S'timestamp'
p3
aF0.3746960163116455
aa(lp4
S'distance'
p5
aF373.3581008911133
aa(lp6
S'state'
p7
aI0
aatp8
Rp9
.ccollections
OrderedDict
p0
((lp1
(lp2
S'timestamp'
p3
aF0.3749561309814453
aa(lp4
S'distance'
p5
aF373.3581008911133
aa(lp6
S'state'
p7
aI0
aatp8
Rp9
.ccollections
OrderedDict
p0
((lp1
(lp2
S'timestamp'
p3
aF0.3843350410461426
aa(lp4
S'distance'
p5
aF373.3581008911133
aa(lp6
S'state'
p7
aI0
aatp8
Rp9
.ccollections
OrderedDict
p0
((lp1
(lp2
S'timestamp'
p3
aF0.384937047958374
aa(lp4
S'distance'
p5
aF373.3581008911133
aa(lp6
S'state'
p7
aI0
aatp8
Rp9
.ccollections
OrderedDict
p0
((lp1
(lp2
S'timestamp'
p3
aF0.3945801258087158
aa(lp4
S'distance'
p5
aF373.3581008911133
aa(lp6
S'state'
p7
aI0
aatp8
Rp9
.ccollections
OrderedDict
p0
((lp1
(lp2
S'timestamp'
p3
aF0.39505696296691895
aa(lp4
S'distance'
p5
aF373.3581008911133
aa(lp6
S'state'
p7
aI0
aatp8
Rp9
.ccollections
OrderedDict
p0
((lp1
(lp2
S'timestamp'
p3
aF0.40435004234313965
aa(lp4
S'distance'
p5
aF373.3581008911133
aa(lp6
S'state'
p7
aI0
aatp8
Rp9
.ccollections
OrderedDict
p0
((lp1
(lp2
S'timestamp'
p3
aF0.4050910472869873
aa(lp4
S'distance'
p5
aF373.3581008911133
aa(lp6
S'state'
p7
aI0
aatp8
Rp9
.ccollections
OrderedDict
p0
((lp1
(lp2
S'timestamp'
p3
aF0.4143500328063965
aa(lp4
S'distance'
p5
aF373.3581008911133
aa(lp6
S'state'
p7
aI0
aatp8
Rp9
.ccollections
OrderedDict
p0
((lp1
(lp2
S'timestamp'
p3
aF0.415132999420166
aa(lp4
S'distance'
p5
aF373.3581008911133
aa(lp6
S'state'
p7
aI0
aatp8
Rp9
.ccollections
OrderedDict
p0
((lp1
(lp2
S'timestamp'
p3
aF0.4249429702758789
aa(lp4
S'distance'
p5
aF373.3581008911133
aa(lp6
S'state'
p7
aI0
aatp8
Rp9
.ccollections
OrderedDict
p0
((lp1
(lp2
S'timestamp'
p3
aF0.4250180721282959
aa(lp4
S'distance'
p5
aF373.3581008911133
aa(lp6
S'state'
p7
aI0
aatp8
Rp9
.ccollections
OrderedDict
p0
((lp1
(lp2
S'timestamp'
p3
aF0.434783935546875
aa(lp4
S'distance'
p5
aF373.3581008911133
aa(lp6
S'state'
p7
aI0
aatp8
Rp9
.ccollections
OrderedDict
p0
((lp1
(lp2
S'timestamp'
p3
aF0.43545103073120117
aa(lp4
S'distance'
p5
aF373.3581008911133
aa(lp6
S'state'
p7
aI0
aatp8
Rp9
.ccollections
OrderedDict
p0
((lp1
(lp2
S'timestamp'
p3
aF0.4446909427642822
aa(lp4
S'distance'
p5
aF373.3581008911133
aa(lp6
S'state'
p7
aI0
aatp8
Rp9
.ccollections
OrderedDict
p0
((lp1
(lp2
S'timestamp'
p3
aF0.4452080726623535
aa(lp4
S'distance'
p5
aF373.3581008911133
aa(lp6
S'state'
p7
aI0
aatp8
Rp9
.ccollections
OrderedDict
p0
((lp1
(lp2
S'timestamp'
p3
aF0.45447492599487305
aa(lp4
S'distance'
p5
aF373.3581008911133
aa(lp6
S'state'
p7
aI0
aatp8
Rp9
.ccollections
OrderedDict
p0
((lp1
(lp2
S'timestamp'
p3
aF0.4548830986022949
aa(lp4
S'distance'
p5
aF373.3581008911133
aa(lp6
S'state'
p7
aI0
aatp8
Rp9
.ccollections
OrderedDict
p0
((lp1
(lp2
S'timestamp'
p3
aF0.4649479389190674
aa(lp4
S'distance'
p5
aF373.3581008911133
aa(lp6
S'state'
p7
aI0
aatp8
Rp9
.ccollections
OrderedDict
p0
((lp1
(lp2
S'timestamp'
p3
aF0.46501803398132324
aa(lp4
S'distance'
p5
aF373.3581008911133
aa(lp6
S'state'
p7
aI0
aatp8
Rp9
.ccollections
OrderedDict
p0
((lp1
(lp2
S'timestamp'
p3
aF0.47478604316711426
aa(lp4
S'distance'
p5
aF373.3581008911133
aa(lp6
S'state'
p7
aI0
aatp8
Rp9
.ccollections
OrderedDict
p0
((lp1
(lp2
S'timestamp'
p3
aF0.4751861095428467
aa(lp4
S'distance'
p5
aF373.3581008911133
aa(lp6
S'state'
p7
aI0
aatp8
Rp9
.ccollections
OrderedDict
p0
((lp1
(lp2
S'timestamp'
p3
aF0.4945790767669678
aa(lp4
S'distance'
p5
aF373.3581008911133
aa(lp6
S'state'
p7
aI0
aatp8
Rp9
.ccollections
OrderedDict
p0
((lp1
(lp2
S'timestamp'
p3
aF0.4949300289154053
aa(lp4
S'distance'
p5
aF373.3581008911133
aa(lp6
S'state'
p7
aI0
aatp8
Rp9
.ccollections
OrderedDict
p0
((lp1
(lp2
S'timestamp'
p3
aF0.49553394317626953
aa(lp4
S'distance'
p5
aF373.3581008911133
aa(lp6
S'state'
p7
aI0
aatp8
Rp9
.ccollections
OrderedDict
p0
((lp1
(lp2
S'timestamp'
p3
aF0.4959869384765625
aa(lp4
S'distance'
p5
aF373.3581008911133
aa(lp6
S'state'
p7
aI0
aatp8
Rp9
.ccollections
OrderedDict
p0
((lp1
(lp2
S'timestamp'
p3
aF0.5043439865112305
aa(lp4
S'distance'
p5
aF373.3581008911133
aa(lp6
S'state'
p7
aI0
aatp8
Rp9
.ccollections
OrderedDict
p0
((lp1
(lp2
S'timestamp'
p3
aF0.5051300525665283
aa(lp4
S'distance'
p5
aF373.3581008911133
aa(lp6
S'state'
p7
aI0
aatp8
Rp9
.ccollections
OrderedDict
p0
((lp1
(lp2
S'timestamp'
p3
aF0.5145490169525146
aa(lp4
S'distance'
p5
aF373.3581008911133
aa(lp6
S'state'
p7
aI0
aatp8
Rp9
.ccollections
OrderedDict
p0
((lp1
(lp2
S'timestamp'
p3
aF0.5150680541992188
aa(lp4
S'distance'
p5
aF373.3581008911133
aa(lp6
S'state'
p7
aI0
aatp8
Rp9
.ccollections
OrderedDict
p0
((lp1
(lp2
S'timestamp'
p3
aF0.5245521068572998
aa(lp4
S'distance'
p5
aF373.3581008911133
aa(lp6
S'state'
p7
aI0
aatp8
Rp9
.ccollections
OrderedDict
p0
((lp1
(lp2
S'timestamp'
p3
aF0.5248730182647705
aa(lp4
S'distance'
p5
aF373.3581008911133
aa(lp6
S'state'
p7
aI0
aatp8
Rp9
.ccollections
OrderedDict
p0
((lp1
(lp2
S'timestamp'
p3
aF0.5344209671020508
aa(lp4
S'distance'
p5
aF373.3581008911133
aa(lp6
S'state'
p7
aI0
aatp8
Rp9
.ccollections
OrderedDict
p0
((lp1
(lp2
S'timestamp'
p3
aF0.5449230670928955
aa(lp4
S'distance'
p5
aF373.3581008911133
aa(lp6
S'state'
p7
aI0
aatp8
Rp9
.ccollections
OrderedDict
p0
((lp1
(lp2
S'timestamp'
p3
aF0.5457370281219482
aa(lp4
S'distance'
p5
aF373.3581008911133
aa(lp6
S'state'
p7
aI0
aatp8
Rp9
.ccollections
OrderedDict
p0
((lp1
(lp2
S'timestamp'
p3
aF0.5472970008850098
aa(lp4
S'distance'
p5
aF373.3581008911133
aa(lp6
S'state'
p7
aI0
aatp8
Rp9
.ccollections
OrderedDict
p0
((lp1
(lp2
S'timestamp'
p3
aF0.5553719997406006
aa(lp4
S'distance'
p5
aF373.3581008911133
aa(lp6
S'state'
p7
aI0
aatp8
Rp9
.ccollections
OrderedDict
p0
((lp1
(lp2
S'timestamp'
p3
aF0.5557460784912109
aa(lp4
S'distance'
p5
aF373.3581008911133
aa(lp6
S'state'
p7
aI0
aatp8
Rp9
.ccollections
OrderedDict
p0
((lp1
(lp2
S'timestamp'
p3
aF0.5645749568939209
aa(lp4
S'distance'
p5
aF373.3581008911133
aa(lp6
S'state'
p7
aI0
aatp8
Rp9
.ccollections
OrderedDict
p0
((lp1
(lp2
S'timestamp'
p3
aF0.5649669170379639
aa(lp4
S'distance'
p5
aF373.3581008911133
aa(lp6
S'state'
p7
aI0
aatp8
Rp9
.ccollections
OrderedDict
p0
((lp1
(lp2
S'timestamp'
p3
aF0.5746080875396729
aa(lp4
S'distance'
p5
aF373.3581008911133
aa(lp6
S'state'
p7
aI0
aatp8
Rp9
.ccollections
OrderedDict
p0
((lp1
(lp2
S'timestamp'
p3
aF0.5752561092376709
aa(lp4
S'distance'
p5
aF373.3581008911133
aa(lp6
S'state'
p7
aI0
aatp8
Rp9
.ccollections
OrderedDict
p0
((lp1
(lp2
S'timestamp'
p3
aF0.584597110748291
aa(lp4
S'distance'
p5
aF373.3581008911133
aa(lp6
S'state'
p7
aI0
aatp8
Rp9
.ccollections
OrderedDict
p0
((lp1
(lp2
S'timestamp'
p3
aF0.5850911140441895
aa(lp4
S'distance'
p5
aF373.3581008911133
aa(lp6
S'state'
p7
aI0
aatp8
Rp9
.ccollections
OrderedDict
p0
((lp1
(lp2
S'timestamp'
p3
aF0.5952789783477783
aa(lp4
S'distance'
p5
aF373.3581008911133
aa(lp6
S'state'
p7
aI0
aatp8
Rp9
.ccollections
OrderedDict
p0
((lp1
(lp2
S'timestamp'
p3
aF0.595350980758667
aa(lp4
S'distance'
p5
aF373.3581008911133
aa(lp6
S'state'
p7
aI0
aatp8
Rp9
.ccollections
OrderedDict
p0
((lp1
(lp2
S'timestamp'
p3
aF0.6073739528656006
aa(lp4
S'distance'
p5
aF373.3581008911133
aa(lp6
S'state'
p7
aI0
aatp8
Rp9
.ccollections
OrderedDict
p0
((lp1
(lp2
S'timestamp'
p3
aF0.6081650257110596
aa(lp4
S'distance'
p5
aF373.3581008911133
aa(lp6
S'state'
p7
aI0
aatp8
Rp9
.ccollections
OrderedDict
p0
((lp1
(lp2
S'timestamp'
p3
aF0.6154279708862305
aa(lp4
S'distance'
p5
aF373.3581008911133
aa(lp6
S'state'
p7
aI0
aatp8
Rp9
.ccollections
OrderedDict
p0
((lp1
(lp2
S'timestamp'
p3
aF0.6168749332427979
aa(lp4
S'distance'
p5
aF373.3581008911133
aa(lp6
S'state'
p7
aI0
aatp8
Rp9
.ccollections
OrderedDict
p0
((lp1
(lp2
S'timestamp'
p3
aF0.6254611015319824
aa(lp4
S'distance'
p5
aF373.3581008911133
aa(lp6
S'state'
p7
aI0
aatp8
Rp9
.ccollections
OrderedDict
p0
((lp1
(lp2
S'timestamp'
p3
aF0.6257081031799316
aa(lp4
S'distance'
p5
aF373.3581008911133
aa(lp6
S'state'
p7
aI0
aatp8
Rp9
.ccollections
OrderedDict
p0
((lp1
(lp2
S'timestamp'
p3
aF0.6348581314086914
aa(lp4
S'distance'
p5
aF373.3581008911133
aa(lp6
S'state'
p7
aI0
aatp8
Rp9
.ccollections
OrderedDict
p0
((lp1
(lp2
S'timestamp'
p3
aF0.6353180408477783
aa(lp4
S'distance'
p5
aF373.3581008911133
aa(lp6
S'state'
p7
aI0
aatp8
Rp9
.ccollections
OrderedDict
p0
((lp1
(lp2
S'timestamp'
p3
aF0.6447811126708984
aa(lp4
S'distance'
p5
aF373.3581008911133
aa(lp6
S'state'
p7
aI0
aatp8
Rp9
.ccollections
OrderedDict
p0
((lp1
(lp2
S'timestamp'
p3
aF0.6448960304260254
aa(lp4
S'distance'
p5
aF373.3581008911133
aa(lp6
S'state'
p7
aI0
aatp8
Rp9
.ccollections
OrderedDict
p0
((lp1
(lp2
S'timestamp'
p3
aF0.6544101238250732
aa(lp4
S'distance'
p5
aF373.3581008911133
aa(lp6
S'state'
p7
aI0
aatp8
Rp9
.ccollections
OrderedDict
p0
((lp1
(lp2
S'timestamp'
p3
aF0.6551880836486816
aa(lp4
S'distance'
p5
aF373.3581008911133
aa(lp6
S'state'
p7
aI0
aatp8
Rp9
.ccollections
OrderedDict
p0
((lp1
(lp2
S'timestamp'
p3
aF0.6644330024719238
aa(lp4
S'distance'
p5
aF373.3581008911133
aa(lp6
S'state'
p7
aI0
aatp8
Rp9
.ccollections
OrderedDict
p0
((lp1
(lp2
S'timestamp'
p3
aF0.6650290489196777
aa(lp4
S'distance'
p5
aF373.3581008911133
aa(lp6
S'state'
p7
aI0
aatp8
Rp9
.ccollections
OrderedDict
p0
((lp1
(lp2
S'timestamp'
p3
aF0.6753089427947998
aa(lp4
S'distance'
p5
aF373.3581008911133
aa(lp6
S'state'
p7
aI0
aatp8
Rp9
.ccollections
OrderedDict
p0
((lp1
(lp2
S'timestamp'
p3
aF0.6754920482635498
aa(lp4
S'distance'
p5
aF373.3581008911133
aa(lp6
S'state'
p7
aI0
aatp8
Rp9
.ccollections
OrderedDict
p0
((lp1
(lp2
S'timestamp'
p3
aF0.6844689846038818
aa(lp4
S'distance'
p5
aF373.3581008911133
aa(lp6
S'state'
p7
aI0
aatp8
Rp9
.ccollections
OrderedDict
p0
((lp1
(lp2
S'timestamp'
p3
aF0.6849610805511475
aa(lp4
S'distance'
p5
aF373.3581008911133
aa(lp6
S'state'
p7
aI0
aatp8
Rp9
.ccollections
OrderedDict
p0
((lp1
(lp2
S'timestamp'
p3
aF0.6952390670776367
aa(lp4
S'distance'
p5
aF373.3581008911133
aa(lp6
S'state'
p7
aI0
aatp8
Rp9
.ccollections
OrderedDict
p0
((lp1
(lp2
S'timestamp'
p3
aF0.6955580711364746
aa(lp4
S'distance'
p5
aF373.3581008911133
aa(lp6
S'state'
p7
aI0
aatp8
Rp9
.ccollections
OrderedDict
p0
((lp1
(lp2
S'timestamp'
p3
aF0.7043390274047852
aa(lp4
S'distance'
p5
aF373.3581008911133
aa(lp6
S'state'
p7
aI0
aatp8
Rp9
.ccollections
OrderedDict
p0
((lp1
(lp2
S'timestamp'
p3
aF0.7051260471343994
aa(lp4
S'distance'
p5
aF373.3581008911133
aa(lp6
S'state'
p7
aI0
aatp8
Rp9
.ccollections
OrderedDict
p0
((lp1
(lp2
S'timestamp'
p3
aF0.7143750190734863
aa(lp4
S'distance'
p5
aF373.3581008911133
aa(lp6
S'state'
p7
aI0
aatp8
Rp9
.ccollections
OrderedDict
p0
((lp1
(lp2
S'timestamp'
p3
aF0.7149760723114014
aa(lp4
S'distance'
p5
aF373.3581008911133
aa(lp6
S'state'
p7
aI0
aatp8
Rp9
.ccollections
OrderedDict
p0
((lp1
(lp2
S'timestamp'
p3
aF0.7244870662689209
aa(lp4
S'distance'
p5
aF373.3581008911133
aa(lp6
S'state'
p7
aI0
aatp8
Rp9
.ccollections
OrderedDict
p0
((lp1
(lp2
S'timestamp'
p3
aF0.7248830795288086
aa(lp4
S'distance'
p5
aF373.3581008911133
aa(lp6
S'state'
p7
aI0
aatp8
Rp9
.ccollections
OrderedDict
p0
((lp1
(lp2
S'timestamp'
p3
aF0.7348639965057373
aa(lp4
S'distance'
p5
aF373.3581008911133
aa(lp6
S'state'
p7
aI0
aatp8
Rp9
.ccollections
OrderedDict
p0
((lp1
(lp2
S'timestamp'
p3
aF0.7349810600280762
aa(lp4
S'distance'
p5
aF373.3581008911133
aa(lp6
S'state'
p7
aI0
aatp8
Rp9
.ccollections
OrderedDict
p0
((lp1
(lp2
S'timestamp'
p3
aF0.7444090843200684
aa(lp4
S'distance'
p5
aF373.3581008911133
aa(lp6
S'state'
p7
aI0
aatp8
Rp9
.ccollections
OrderedDict
p0
((lp1
(lp2
S'timestamp'
p3
aF0.7450540065765381
aa(lp4
S'distance'
p5
aF373.3581008911133
aa(lp6
S'state'
p7
aI0
aatp8
Rp9
.ccollections
OrderedDict
p0
((lp1
(lp2
S'timestamp'
p3
aF0.7548859119415283
aa(lp4
S'distance'
p5
aF373.3581008911133
aa(lp6
S'state'
p7
aI0
aatp8
Rp9
.ccollections
OrderedDict
p0
((lp1
(lp2
S'timestamp'
p3
aF0.75496506690979
aa(lp4
S'distance'
p5
aF373.3581008911133
aa(lp6
S'state'
p7
aI0
aatp8
Rp9
.ccollections
OrderedDict
p0
((lp1
(lp2
S'timestamp'
p3
aF0.7644491195678711
aa(lp4
S'distance'
p5
aF373.3581008911133
aa(lp6
S'state'
p7
aI0
aatp8
Rp9
.ccollections
OrderedDict
p0
((lp1
(lp2
S'timestamp'
p3
aF0.7649509906768799
aa(lp4
S'distance'
p5
aF373.3581008911133
aa(lp6
S'state'
p7
aI0
aatp8
Rp9
.ccollections
OrderedDict
p0
((lp1
(lp2
S'timestamp'
p3
aF0.7745051383972168
aa(lp4
S'distance'
p5
aF373.3581008911133
aa(lp6
S'state'
p7
aI0
aatp8
Rp9
.ccollections
OrderedDict
p0
((lp1
(lp2
S'timestamp'
p3
aF0.7752189636230469
aa(lp4
S'distance'
p5
aF373.3581008911133
aa(lp6
S'state'
p7
aI0
aatp8
Rp9
.ccollections
OrderedDict
p0
((lp1
(lp2
S'timestamp'
p3
aF0.784337043762207
aa(lp4
S'distance'
p5
aF373.3581008911133
aa(lp6
S'state'
p7
aI0
aatp8
Rp9
.ccollections
OrderedDict
p0
((lp1
(lp2
S'timestamp'
p3
aF0.7849409580230713
aa(lp4
S'distance'
p5
aF373.3581008911133
aa(lp6
S'state'
p7
aI0
aatp8
Rp9
.ccollections
OrderedDict
p0
((lp1
(lp2
S'timestamp'
p3
aF0.7945799827575684
aa(lp4
S'distance'
p5
aF373.3581008911133
aa(lp6
S'state'
p7
aI0
aatp8
Rp9
.ccollections
OrderedDict
p0
((lp1
(lp2
S'timestamp'
p3
aF0.7948920726776123
aa(lp4
S'distance'
p5
aF373.3581008911133
aa(lp6
S'state'
p7
aI0
aatp8
Rp9
.ccollections
OrderedDict
p0
((lp1
(lp2
S'timestamp'
p3
aF0.8046391010284424
aa(lp4
S'distance'
p5
aF373.3581008911133
aa(lp6
S'state'
p7
aI0
aatp8
Rp9
.ccollections
OrderedDict
p0
((lp1
(lp2
S'timestamp'
p3
aF0.8048830032348633
aa(lp4
S'distance'
p5
aF373.3581008911133
aa(lp6
S'state'
p7
aI0
aatp8
Rp9
.ccollections
OrderedDict
p0
((lp1
(lp2
S'timestamp'
p3
aF0.815047025680542
aa(lp4
S'distance'
p5
aF373.3581008911133
aa(lp6
S'state'
p7
aI0
aatp8
Rp9
.ccollections
OrderedDict
p0
((lp1
(lp2
S'timestamp'
p3
aF0.8153250217437744
aa(lp4
S'distance'
p5
aF373.3581008911133
aa(lp6
S'state'
p7
aI0
aatp8
Rp9
.ccollections
OrderedDict
p0
((lp1
(lp2
S'timestamp'
p3
aF0.8244409561157227
aa(lp4
S'distance'
p5
aF373.3581008911133
aa(lp6
S'state'
p7
aI0
aatp8
Rp9
.ccollections
OrderedDict
p0
((lp1
(lp2
S'timestamp'
p3
aF0.8250510692596436
aa(lp4
S'distance'
p5
aF373.3581008911133
aa(lp6
S'state'
p7
aI0
aatp8
Rp9
.ccollections
OrderedDict
p0
((lp1
(lp2
S'timestamp'
p3
aF0.8343319892883301
aa(lp4
S'distance'
p5
aF373.3581008911133
aa(lp6
S'state'
p7
aI0
aatp8
Rp9
.ccollections
OrderedDict
p0
((lp1
(lp2
S'timestamp'
p3
aF0.8352699279785156
aa(lp4
S'distance'
p5
aF373.3581008911133
aa(lp6
S'state'
p7
aI0
aatp8
Rp9
.ccollections
OrderedDict
p0
((lp1
(lp2
S'timestamp'
p3
aF0.8448879718780518
aa(lp4
S'distance'
p5
aF373.3581008911133
aa(lp6
S'state'
p7
aI0
aatp8
Rp9
.ccollections
OrderedDict
p0
((lp1
(lp2
S'timestamp'
p3
aF0.8450040817260742
aa(lp4
S'distance'
p5
aF373.3581008911133
aa(lp6
S'state'
p7
aI0
aatp8
Rp9
.ccollections
OrderedDict
p0
((lp1
(lp2
S'timestamp'
p3
aF0.854525089263916
aa(lp4
S'distance'
p5
aF373.3581008911133
aa(lp6
S'state'
p7
aI0
aatp8
Rp9
.ccollections
OrderedDict
p0
((lp1
(lp2
S'timestamp'
p3
aF0.854910135269165
aa(lp4
S'distance'
p5
aF373.3581008911133
aa(lp6
S'state'
p7
aI0
aatp8
Rp9
.ccollections
OrderedDict
p0
((lp1
(lp2
S'timestamp'
p3
aF0.8644211292266846
aa(lp4
S'distance'
p5
aF373.3581008911133
aa(lp6
S'state'
p7
aI0
aatp8
Rp9
.ccollections
OrderedDict
p0
((lp1
(lp2
S'timestamp'
p3
aF0.864962100982666
aa(lp4
S'distance'
p5
aF373.3581008911133
aa(lp6
S'state'
p7
aI0
aatp8
Rp9
.ccollections
OrderedDict
p0
((lp1
(lp2
S'timestamp'
p3
aF0.8746509552001953
aa(lp4
S'distance'
p5
aF373.3581008911133
aa(lp6
S'state'
p7
aI0
aatp8
Rp9
.ccollections
OrderedDict
p0
((lp1
(lp2
S'timestamp'
p3
aF0.8844490051269531
aa(lp4
S'distance'
p5
aF373.3581008911133
aa(lp6
S'state'
p7
aI0
aatp8
Rp9
.ccollections
OrderedDict
p0
((lp1
(lp2
S'timestamp'
p3
aF0.8849730491638184
aa(lp4
S'distance'
p5
aF373.3581008911133
aa(lp6
S'state'
p7
aI0
aatp8
Rp9
.ccollections
OrderedDict
p0
((lp1
(lp2
S'timestamp'
p3
aF0.8854339122772217
aa(lp4
S'distance'
p5
aF373.3581008911133
aa(lp6
S'state'
p7
aI0
aatp8
Rp9
.ccollections
OrderedDict
p0
((lp1
(lp2
S'timestamp'
p3
aF0.8946380615234375
aa(lp4
S'distance'
p5
aF373.3581008911133
aa(lp6
S'state'
p7
aI0
aatp8
Rp9
.ccollections
OrderedDict
p0
((lp1
(lp2
S'timestamp'
p3
aF0.894927978515625
aa(lp4
S'distance'
p5
aF373.3581008911133
aa(lp6
S'state'
p7
aI0
aatp8
Rp9
.ccollections
OrderedDict
p0
((lp1
(lp2
S'timestamp'
p3
aF0.90488600730896
aa(lp4
S'distance'
p5
aF373.3581008911133
aa(lp6
S'state'
p7
aI0
aatp8
Rp9
.ccollections
OrderedDict
p0
((lp1
(lp2
S'timestamp'
p3
aF0.9049580097198486
aa(lp4
S'distance'
p5
aF373.3581008911133
aa(lp6
S'state'
p7
aI0
aatp8
Rp9
.ccollections
OrderedDict
p0
((lp1
(lp2
S'timestamp'
p3
aF0.9143879413604736
aa(lp4
S'distance'
p5
aF373.3581008911133
aa(lp6
S'state'
p7
aI0
aatp8
Rp9
.ccollections
OrderedDict
p0
((lp1
(lp2
S'timestamp'
p3
aF0.915086030960083
aa(lp4
S'distance'
p5
aF373.3581008911133
aa(lp6
S'state'
p7
aI0
aatp8
Rp9
.ccollections
OrderedDict
p0
((lp1
(lp2
S'timestamp'
p3
aF0.924868106842041
aa(lp4
S'distance'
p5
aF373.3581008911133
aa(lp6
S'state'
p7
aI0
aatp8
Rp9
.ccollections
OrderedDict
p0
((lp1
(lp2
S'timestamp'
p3
aF0.9250719547271729
aa(lp4
S'distance'
p5
aF373.3581008911133
aa(lp6
S'state'
p7
aI0
aatp8
Rp9
.ccollections
OrderedDict
p0
((lp1
(lp2
S'timestamp'
p3
aF0.9342880249023438
aa(lp4
S'distance'
p5
aF373.3581008911133
aa(lp6
S'state'
p7
aI0
aatp8
Rp9
.ccollections
OrderedDict
p0
((lp1
(lp2
S'timestamp'
p3
aF0.9350149631500244
aa(lp4
S'distance'
p5
aF373.3581008911133
aa(lp6
S'state'
p7
aI0
aatp8
Rp9
.ccollections
OrderedDict
p0
((lp1
(lp2
S'timestamp'
p3
aF0.9448850154876709
aa(lp4
S'distance'
p5
aF373.3581008911133
aa(lp6
S'state'
p7
aI0
aatp8
Rp9
.ccollections
OrderedDict
p0
((lp1
(lp2
S'timestamp'
p3
aF0.944957971572876
aa(lp4
S'distance'
p5
aF373.3581008911133
aa(lp6
S'state'
p7
aI0
aatp8
Rp9
.ccollections
OrderedDict
p0
((lp1
(lp2
S'timestamp'
p3
aF0.9550290107727051
aa(lp4
S'distance'
p5
aF373.3581008911133
aa(lp6
S'state'
p7
aI0
aatp8
Rp9
.ccollections
OrderedDict
p0
((lp1
(lp2
S'timestamp'
p3
aF0.9557991027832031
aa(lp4
S'distance'
p5
aF373.3581008911133
aa(lp6
S'state'
p7
aI0
aatp8
Rp9
.ccollections
OrderedDict
p0
((lp1
(lp2
S'timestamp'
p3
aF0.9650490283966064
aa(lp4
S'distance'
p5
aF373.3581008911133
aa(lp6
S'state'
p7
aI0
aatp8
Rp9
.ccollections
OrderedDict
p0
((lp1
(lp2
S'timestamp'
p3
aF0.9651229381561279
aa(lp4
S'distance'
p5
aF373.3581008911133
aa(lp6
S'state'
p7
aI0
aatp8
Rp9
.ccollections
OrderedDict
p0
((lp1
(lp2
S'timestamp'
p3
aF0.9746050834655762
aa(lp4
S'distance'
p5
aF373.3581008911133
aa(lp6
S'state'
p7
aI0
aatp8
Rp9
.ccollections
OrderedDict
p0
((lp1
(lp2
S'timestamp'
p3
aF0.975053071975708
aa(lp4
S'distance'
p5
aF373.3581008911133
aa(lp6
S'state'
p7
aI0
aatp8
Rp9
.ccollections
OrderedDict
p0
((lp1
(lp2
S'timestamp'
p3
aF0.9845681190490723
aa(lp4
S'distance'
p5
aF373.3581008911133
aa(lp6
S'state'
p7
aI0
aatp8
Rp9
.ccollections
OrderedDict
p0
((lp1
(lp2
S'timestamp'
p3
aF0.9850749969482422
aa(lp4
S'distance'
p5
aF373.3581008911133
aa(lp6
S'state'
p7
aI0
aatp8
Rp9
.ccollections
OrderedDict
p0
((lp1
(lp2
S'timestamp'
p3
aF0.9945559501647949
aa(lp4
S'distance'
p5
aF373.3581008911133
aa(lp6
S'state'
p7
aI0
aatp8
Rp9
.ccollections
OrderedDict
p0
((lp1
(lp2
S'timestamp'
p3
aF0.9954171180725098
aa(lp4
S'distance'
p5
aF373.3581008911133
aa(lp6
S'state'
p7
aI0
aatp8
Rp9
.ccollections
OrderedDict
p0
((lp1
(lp2
S'timestamp'
p3
aF1.0043630599975586
aa(lp4
S'distance'
p5
aF373.3581008911133
aa(lp6
S'state'
p7
aI0
aatp8
Rp9
.ccollections
OrderedDict
p0
((lp1
(lp2
S'timestamp'
p3
aF1.005141019821167
aa(lp4
S'distance'
p5
aF373.3581008911133
aa(lp6
S'state'
p7
aI0
aatp8
Rp9
.ccollections
OrderedDict
p0
((lp1
(lp2
S'timestamp'
p3
aF1.0144119262695312
aa(lp4
S'distance'
p5
aF373.3581008911133
aa(lp6
S'state'
p7
aI0
aatp8
Rp9
.ccollections
OrderedDict
p0
((lp1
(lp2
S'timestamp'
p3
aF1.0150010585784912
aa(lp4
S'distance'
p5
aF373.3581008911133
aa(lp6
S'state'
p7
aI0
aatp8
Rp9
.ccollections
OrderedDict
p0
((lp1
(lp2
S'timestamp'
p3
aF1.0245940685272217
aa(lp4
S'distance'
p5
aF373.3581008911133
aa(lp6
S'state'
p7
aI0
aatp8
Rp9
.ccollections
OrderedDict
p0
((lp1
(lp2
S'timestamp'
p3
aF1.024902105331421
aa(lp4
S'distance'
p5
aF373.3581008911133
aa(lp6
S'state'
p7
aI0
aatp8
Rp9
.ccollections
OrderedDict
p0
((lp1
(lp2
S'timestamp'
p3
aF1.0344641208648682
aa(lp4
S'distance'
p5
aF373.3581008911133
aa(lp6
S'state'
p7
aI0
aatp8
Rp9
.ccollections
OrderedDict
p0
((lp1
(lp2
S'timestamp'
p3
aF1.0350439548492432
aa(lp4
S'distance'
p5
aF373.3581008911133
aa(lp6
S'state'
p7
aI0
aatp8
Rp9
.ccollections
OrderedDict
p0
((lp1
(lp2
S'timestamp'
p3
aF1.0452959537506104
aa(lp4
S'distance'
p5
aF373.3581008911133
aa(lp6
S'state'
p7
aI0
aatp8
Rp9
.ccollections
OrderedDict
p0
((lp1
(lp2
S'timestamp'
p3
aF1.04557204246521
aa(lp4
S'distance'
p5
aF373.3581008911133
aa(lp6
S'state'
p7
aI0
aatp8
Rp9
.ccollections
OrderedDict
p0
((lp1
(lp2
S'timestamp'
p3
aF1.054582118988037
aa(lp4
S'distance'
p5
aF373.3581008911133
aa(lp6
S'state'
p7
aI0
aatp8
Rp9
.ccollections
OrderedDict
p0
((lp1
(lp2
S'timestamp'
p3
aF1.055030107498169
aa(lp4
S'distance'
p5
aF373.3581008911133
aa(lp6
S'state'
p7
aI0
aatp8
Rp9
.ccollections
OrderedDict
p0
((lp1
(lp2
S'timestamp'
p3
aF1.0644690990447998
aa(lp4
S'distance'
p5
aF373.3581008911133
aa(lp6
S'state'
p7
aI0
aatp8
Rp9
.ccollections
OrderedDict
p0
((lp1
(lp2
S'timestamp'
p3
aF1.0652339458465576
aa(lp4
S'distance'
p5
aF373.3581008911133
aa(lp6
S'state'
p7
aI0
aatp8
Rp9
.ccollections
OrderedDict
p0
((lp1
(lp2
S'timestamp'
p3
aF1.0744009017944336
aa(lp4
S'distance'
p5
aF373.3581008911133
aa(lp6
S'state'
p7
aI0
aatp8
Rp9
.ccollections
OrderedDict
p0
((lp1
(lp2
S'timestamp'
p3
aF1.0750861167907715
aa(lp4
S'distance'
p5
aF373.3581008911133
aa(lp6
S'state'
p7
aI0
aatp8
Rp9
.ccollections
OrderedDict
p0
((lp1
(lp2
S'timestamp'
p3
aF1.0947179794311523
aa(lp4
S'distance'
p5
aF373.3581008911133
aa(lp6
S'state'
p7
aI0
aatp8
Rp9
.ccollections
OrderedDict
p0
((lp1
(lp2
S'timestamp'
p3
aF1.094815969467163
aa(lp4
S'distance'
p5
aF373.3581008911133
aa(lp6
S'state'
p7
aI0
aatp8
Rp9
.ccollections
OrderedDict
p0
((lp1
(lp2
S'timestamp'
p3
aF1.0957460403442383
aa(lp4
S'distance'
p5
aF373.3581008911133
aa(lp6
S'state'
p7
aI0
aatp8
Rp9
.ccollections
OrderedDict
p0
((lp1
(lp2
S'timestamp'
p3
aF1.0959069728851318
aa(lp4
S'distance'
p5
aF373.3581008911133
aa(lp6
S'state'
p7
aI0
aatp8
Rp9
.ccollections
OrderedDict
p0
((lp1
(lp2
S'timestamp'
p3
aF1.104330062866211
aa(lp4
S'distance'
p5
aF373.3581008911133
aa(lp6
S'state'
p7
aI0
aatp8
Rp9
.ccollections
OrderedDict
p0
((lp1
(lp2
S'timestamp'
p3
aF1.1051750183105469
aa(lp4
S'distance'
p5
aF373.3581008911133
aa(lp6
S'state'
p7
aI0
aatp8
Rp9
.ccollections
OrderedDict
p0
((lp1
(lp2
S'timestamp'
p3
aF1.1144390106201172
aa(lp4
S'distance'
p5
aF373.3581008911133
aa(lp6
S'state'
p7
aI0
aatp8
Rp9
.ccollections
OrderedDict
p0
((lp1
(lp2
S'timestamp'
p3
aF1.1149749755859375
aa(lp4
S'distance'
p5
aF373.3581008911133
aa(lp6
S'state'
p7
aI0
aatp8
Rp9
.ccollections
OrderedDict
p0
((lp1
(lp2
S'timestamp'
p3
aF1.1244020462036133
aa(lp4
S'distance'
p5
aF373.3581008911133
aa(lp6
S'state'
p7
aI0
aatp8
Rp9
.ccollections
OrderedDict
p0
((lp1
(lp2
S'timestamp'
p3
aF1.1251959800720215
aa(lp4
S'distance'
p5
aF373.3581008911133
aa(lp6
S'state'
p7
aI0
aatp8
Rp9
.ccollections
OrderedDict
p0
((lp1
(lp2
S'timestamp'
p3
aF1.1343331336975098
aa(lp4
S'distance'
p5
aF373.3581008911133
aa(lp6
S'state'
p7
aI0
aatp8
Rp9
.ccollections
OrderedDict
p0
((lp1
(lp2
S'timestamp'
p3
aF1.1349871158599854
aa(lp4
S'distance'
p5
aF373.3581008911133
aa(lp6
S'state'
p7
aI0
aatp8
Rp9
.ccollections
OrderedDict
p0
((lp1
(lp2
S'timestamp'
p3
aF1.1444461345672607
aa(lp4
S'distance'
p5
aF373.3581008911133
aa(lp6
S'state'
p7
aI0
aatp8
Rp9
.ccollections
OrderedDict
p0
((lp1
(lp2
S'timestamp'
p3
aF1.1449449062347412
aa(lp4
S'distance'
p5
aF373.3581008911133
aa(lp6
S'state'
p7
aI0
aatp8
Rp9
.ccollections
OrderedDict
p0
((lp1
(lp2
S'timestamp'
p3
aF1.1544339656829834
aa(lp4
S'distance'
p5
aF373.3581008911133
aa(lp6
S'state'
p7
aI0
aatp8
Rp9
.ccollections
OrderedDict
p0
((lp1
(lp2
S'timestamp'
p3
aF1.1551430225372314
aa(lp4
S'distance'
p5
aF373.3581008911133
aa(lp6
S'state'
p7
aI0
aatp8
Rp9
.ccollections
OrderedDict
p0
((lp1
(lp2
S'timestamp'
p3
aF1.1645700931549072
aa(lp4
S'distance'
p5
aF373.3581008911133
aa(lp6
S'state'
p7
aI0
aatp8
Rp9
.ccollections
OrderedDict
p0
((lp1
(lp2
S'timestamp'
p3
aF1.1650300025939941
aa(lp4
S'distance'
p5
aF373.3581008911133
aa(lp6
S'state'
p7
aI0
aatp8
Rp9
.ccollections
OrderedDict
p0
((lp1
(lp2
S'timestamp'
p3
aF1.1742889881134033
aa(lp4
S'distance'
p5
aF373.3581008911133
aa(lp6
S'state'
p7
aI0
aatp8
Rp9
.ccollections
OrderedDict
p0
((lp1
(lp2
S'timestamp'
p3
aF1.174901008605957
aa(lp4
S'distance'
p5
aF373.3581008911133
aa(lp6
S'state'
p7
aI0
aatp8
Rp9
.ccollections
OrderedDict
p0
((lp1
(lp2
S'timestamp'
p3
aF1.184791088104248
aa(lp4
S'distance'
p5
aF373.3581008911133
aa(lp6
S'state'
p7
aI0
aatp8
Rp9
.ccollections
OrderedDict
p0
((lp1
(lp2
S'timestamp'
p3
aF1.1849029064178467
aa(lp4
S'distance'
p5
aF373.3581008911133
aa(lp6
S'state'
p7
aI0
aatp8
Rp9
.ccollections
OrderedDict
p0
((lp1
(lp2
S'timestamp'
p3
aF1.1945021152496338
aa(lp4
S'distance'
p5
aF373.3581008911133
aa(lp6
S'state'
p7
aI0
aatp8
Rp9
.ccollections
OrderedDict
p0
((lp1
(lp2
S'timestamp'
p3
aF1.1952400207519531
aa(lp4
S'distance'
p5
aF373.3581008911133
aa(lp6
S'state'
p7
aI0
aatp8
Rp9
.ccollections
OrderedDict
p0
((lp1
(lp2
S'timestamp'
p3
aF1.2045490741729736
aa(lp4
S'distance'
p5
aF373.3581008911133
aa(lp6
S'state'
p7
aI0
aatp8
Rp9
.ccollections
OrderedDict
p0
((lp1
(lp2
S'timestamp'
p3
aF1.2049269676208496
aa(lp4
S'distance'
p5
aF373.3581008911133
aa(lp6
S'state'
p7
aI0
aatp8
Rp9
.ccollections
OrderedDict
p0
((lp1
(lp2
S'timestamp'
p3
aF1.2151870727539062
aa(lp4
S'distance'
p5
aF373.3581008911133
aa(lp6
S'state'
p7
aI0
aatp8
Rp9
.ccollections
OrderedDict
p0
((lp1
(lp2
S'timestamp'
p3
aF1.2154860496520996
aa(lp4
S'distance'
p5
aF373.3581008911133
aa(lp6
S'state'
p7
aI0
aatp8
Rp9
.ccollections
OrderedDict
p0
((lp1
(lp2
S'timestamp'
p3
aF1.2250850200653076
aa(lp4
S'distance'
p5
aF373.3581008911133
aa(lp6
S'state'
p7
aI0
aatp8
Rp9
.ccollections
OrderedDict
p0
((lp1
(lp2
S'timestamp'
p3
aF1.2257671356201172
aa(lp4
S'distance'
p5
aF373.3581008911133
aa(lp6
S'state'
p7
aI0
aatp8
Rp9
.ccollections
OrderedDict
p0
((lp1
(lp2
S'timestamp'
p3
aF1.2345890998840332
aa(lp4
S'distance'
p5
aF373.3581008911133
aa(lp6
S'state'
p7
aI0
aatp8
Rp9
.ccollections
OrderedDict
p0
((lp1
(lp2
S'timestamp'
p3
aF1.235490083694458
aa(lp4
S'distance'
p5
aF373.3581008911133
aa(lp6
S'state'
p7
aI0
aatp8
Rp9
.ccollections
OrderedDict
p0
((lp1
(lp2
S'timestamp'
p3
aF1.2446000576019287
aa(lp4
S'distance'
p5
aF373.3581008911133
aa(lp6
S'state'
p7
aI0
aatp8
Rp9
.ccollections
OrderedDict
p0
((lp1
(lp2
S'timestamp'
p3
aF1.2449779510498047
aa(lp4
S'distance'
p5
aF373.3581008911133
aa(lp6
S'state'
p7
aI0
aatp8
Rp9
.ccollections
OrderedDict
p0
((lp1
(lp2
S'timestamp'
p3
aF1.2546119689941406
aa(lp4
S'distance'
p5
aF373.3581008911133
aa(lp6
S'state'
p7
aI0
aatp8
Rp9
.ccollections
OrderedDict
p0
((lp1
(lp2
S'timestamp'
p3
aF1.255068063735962
aa(lp4
S'distance'
p5
aF373.3581008911133
aa(lp6
S'state'
p7
aI0
aatp8
Rp9
.ccollections
OrderedDict
p0
((lp1
(lp2
S'timestamp'
p3
aF1.264401912689209
aa(lp4
S'distance'
p5
aF373.3581008911133
aa(lp6
S'state'
p7
aI0
aatp8
Rp9
.ccollections
OrderedDict
p0
((lp1
(lp2
S'timestamp'
p3
aF1.2651519775390625
aa(lp4
S'distance'
p5
aF373.3581008911133
aa(lp6
S'state'
p7
aI0
aatp8
Rp9
.ccollections
OrderedDict
p0
((lp1
(lp2
S'timestamp'
p3
aF1.2744231224060059
aa(lp4
S'distance'
p5
aF373.3581008911133
aa(lp6
S'state'
p7
aI0
aatp8
Rp9
.ccollections
OrderedDict
p0
((lp1
(lp2
S'timestamp'
p3
aF1.275094985961914
aa(lp4
S'distance'
p5
aF373.3581008911133
aa(lp6
S'state'
p7
aI0
aatp8
Rp9
.ccollections
OrderedDict
p0
((lp1
(lp2
S'timestamp'
p3
aF1.2843859195709229
aa(lp4
S'distance'
p5
aF373.3581008911133
aa(lp6
S'state'
p7
aI0
aatp8
Rp9
.ccollections
OrderedDict
p0
((lp1
(lp2
S'timestamp'
p3
aF1.2851529121398926
aa(lp4
S'distance'
p5
aF373.3581008911133
aa(lp6
S'state'
p7
aI0
aatp8
Rp9
.ccollections
OrderedDict
p0
((lp1
(lp2
S'timestamp'
p3
aF1.2948400974273682
aa(lp4
S'distance'
p5
aF373.3581008911133
aa(lp6
S'state'
p7
aI0
aatp8
Rp9
.ccollections
OrderedDict
p0
((lp1
(lp2
S'timestamp'
p3
aF1.2949230670928955
aa(lp4
S'distance'
p5
aF373.3581008911133
aa(lp6
S'state'
p7
aI0
aatp8
Rp9
.ccollections
OrderedDict
p0
((lp1
(lp2
S'timestamp'
p3
aF1.3053359985351562
aa(lp4
S'distance'
p5
aF373.3581008911133
aa(lp6
S'state'
p7
aI0
aatp8
Rp9
.ccollections
OrderedDict
p0
((lp1
(lp2
S'timestamp'
p3
aF1.3054111003875732
aa(lp4
S'distance'
p5
aF373.3581008911133
aa(lp6
S'state'
p7
aI0
aatp8
Rp9
.ccollections
OrderedDict
p0
((lp1
(lp2
S'timestamp'
p3
aF1.3146469593048096
aa(lp4
S'distance'
p5
aF373.3581008911133
aa(lp6
S'state'
p7
aI0
aatp8
Rp9
.ccollections
OrderedDict
p0
((lp1
(lp2
S'timestamp'
p3
aF1.3149209022521973
aa(lp4
S'distance'
p5
aF373.3581008911133
aa(lp6
S'state'
p7
aI0
aatp8
Rp9
.ccollections
OrderedDict
p0
((lp1
(lp2
S'timestamp'
p3
aF1.3245880603790283
aa(lp4
S'distance'
p5
aF373.3581008911133
aa(lp6
S'state'
p7
aI0
aatp8
Rp9
.ccollections
OrderedDict
p0
((lp1
(lp2
S'timestamp'
p3
aF1.3249709606170654
aa(lp4
S'distance'
p5
aF373.3581008911133
aa(lp6
S'state'
p7
aI0
aatp8
Rp9
.ccollections
OrderedDict
p0
((lp1
(lp2
S'timestamp'
p3
aF1.3353590965270996
aa(lp4
S'distance'
p5
aF373.3581008911133
aa(lp6
S'state'
p7
aI0
aatp8
Rp9
.ccollections
OrderedDict
p0
((lp1
(lp2
S'timestamp'
p3
aF1.3357489109039307
aa(lp4
S'distance'
p5
aF373.3581008911133
aa(lp6
S'state'
p7
aI0
aatp8
Rp9
.ccollections
OrderedDict
p0
((lp1
(lp2
S'timestamp'
p3
aF1.3446040153503418
aa(lp4
S'distance'
p5
aF373.3581008911133
aa(lp6
S'state'
p7
aI0
aatp8
Rp9
.ccollections
OrderedDict
p0
((lp1
(lp2
S'timestamp'
p3
aF1.345108985900879
aa(lp4
S'distance'
p5
aF373.3581008911133
aa(lp6
S'state'
p7
aI0
aatp8
Rp9
.ccollections
OrderedDict
p0
((lp1
(lp2
S'timestamp'
p3
aF1.3546841144561768
aa(lp4
S'distance'
p5
aF373.3581008911133
aa(lp6
S'state'
p7
aI0
aatp8
Rp9
.ccollections
OrderedDict
p0
((lp1
(lp2
S'timestamp'
p3
aF1.355194091796875
aa(lp4
S'distance'
p5
aF373.3581008911133
aa(lp6
S'state'
p7
aI0
aatp8
Rp9
.ccollections
OrderedDict
p0
((lp1
(lp2
S'timestamp'
p3
aF1.3642909526824951
aa(lp4
S'distance'
p5
aF373.3581008911133
aa(lp6
S'state'
p7
aI0
aatp8
Rp9
.ccollections
OrderedDict
p0
((lp1
(lp2
S'timestamp'
p3
aF1.365190029144287
aa(lp4
S'distance'
p5
aF373.3581008911133
aa(lp6
S'state'
p7
aI0
aatp8
Rp9
.ccollections
OrderedDict
p0
((lp1
(lp2
S'timestamp'
p3
aF1.3746130466461182
aa(lp4
S'distance'
p5
aF373.3581008911133
aa(lp6
S'state'
p7
aI0
aatp8
Rp9
.ccollections
OrderedDict
p0
((lp1
(lp2
S'timestamp'
p3
aF1.3750789165496826
aa(lp4
S'distance'
p5
aF373.3581008911133
aa(lp6
S'state'
p7
aI0
aatp8
Rp9
.ccollections
OrderedDict
p0
((lp1
(lp2
S'timestamp'
p3
aF1.384840965270996
aa(lp4
S'distance'
p5
aF373.3581008911133
aa(lp6
S'state'
p7
aI0
aatp8
Rp9
.ccollections
OrderedDict
p0
((lp1
(lp2
S'timestamp'
p3
aF1.385025978088379
aa(lp4
S'distance'
p5
aF373.3581008911133
aa(lp6
S'state'
p7
aI0
aatp8
Rp9
.ccollections
OrderedDict
p0
((lp1
(lp2
S'timestamp'
p3
aF1.404865026473999
aa(lp4
S'distance'
p5
aF373.3581008911133
aa(lp6
S'state'
p7
aI0
aatp8
Rp9
.ccollections
OrderedDict
p0
((lp1
(lp2
S'timestamp'
p3
aF1.4057281017303467
aa(lp4
S'distance'
p5
aF373.3581008911133
aa(lp6
S'state'
p7
aI0
aatp8
Rp9
.ccollections
OrderedDict
p0
((lp1
(lp2
S'timestamp'
p3
aF1.408073902130127
aa(lp4
S'distance'
p5
aF373.3581008911133
aa(lp6
S'state'
p7
aI0
aatp8
Rp9
.ccollections
OrderedDict
p0
((lp1
(lp2
S'timestamp'
p3
aF1.4083049297332764
aa(lp4
S'distance'
p5
aF373.3581008911133
aa(lp6
S'state'
p7
aI0
aatp8
Rp9
.ccollections
OrderedDict
p0
((lp1
(lp2
S'timestamp'
p3
aF1.4149689674377441
aa(lp4
S'distance'
p5
aF373.3581008911133
aa(lp6
S'state'
p7
aI0
aatp8
Rp9
.ccollections
OrderedDict
p0
((lp1
(lp2
S'timestamp'
p3
aF1.415045976638794
aa(lp4
S'distance'
p5
aF373.3581008911133
aa(lp6
S'state'
p7
aI0
aatp8
Rp9
.ccollections
OrderedDict
p0
((lp1
(lp2
S'timestamp'
p3
aF1.4245340824127197
aa(lp4
S'distance'
p5
aF373.3581008911133
aa(lp6
S'state'
p7
aI0
aatp8
Rp9
.ccollections
OrderedDict
p0
((lp1
(lp2
S'timestamp'
p3
aF1.4250800609588623
aa(lp4
S'distance'
p5
aF373.3581008911133
aa(lp6
S'state'
p7
aI0
aatp8
Rp9
.ccollections
OrderedDict
p0
((lp1
(lp2
S'timestamp'
p3
aF1.435426950454712
aa(lp4
S'distance'
p5
aF373.3581008911133
aa(lp6
S'state'
p7
aI0
aatp8
Rp9
.ccollections
OrderedDict
p0
((lp1
(lp2
S'timestamp'
p3
aF1.4358329772949219
aa(lp4
S'distance'
p5
aF373.3581008911133
aa(lp6
S'state'
p7
aI0
aatp8
Rp9
.ccollections
OrderedDict
p0
((lp1
(lp2
S'timestamp'
p3
aF1.444399118423462
aa(lp4
S'distance'
p5
aF373.3581008911133
aa(lp6
S'state'
p7
aI0
aatp8
Rp9
.ccollections
OrderedDict
p0
((lp1
(lp2
S'timestamp'
p3
aF1.4452970027923584
aa(lp4
S'distance'
p5
aF373.3581008911133
aa(lp6
S'state'
p7
aI0
aatp8
Rp9
.ccollections
OrderedDict
p0
((lp1
(lp2
S'timestamp'
p3
aF1.4544470310211182
aa(lp4
S'distance'
p5
aF373.3581008911133
aa(lp6
S'state'
p7
aI0
aatp8
Rp9
.ccollections
OrderedDict
p0
((lp1
(lp2
S'timestamp'
p3
aF1.4550979137420654
aa(lp4
S'distance'
p5
aF373.3581008911133
aa(lp6
S'state'
p7
aI0
aatp8
Rp9
.ccollections
OrderedDict
p0
((lp1
(lp2
S'timestamp'
p3
aF1.4648160934448242
aa(lp4
S'distance'
p5
aF373.3581008911133
aa(lp6
S'state'
p7
aI0
aatp8
Rp9
.ccollections
OrderedDict
p0
((lp1
(lp2
S'timestamp'
p3
aF1.4651169776916504
aa(lp4
S'distance'
p5
aF373.3581008911133
aa(lp6
S'state'
p7
aI0
aatp8
Rp9
.ccollections
OrderedDict
p0
((lp1
(lp2
S'timestamp'
p3
aF1.4747469425201416
aa(lp4
S'distance'
p5
aF373.3581008911133
aa(lp6
S'state'
p7
aI0
aatp8
Rp9
.ccollections
OrderedDict
p0
((lp1
(lp2
S'timestamp'
p3
aF1.474959135055542
aa(lp4
S'distance'
p5
aF373.3581008911133
aa(lp6
S'state'
p7
aI0
aatp8
Rp9
.ccollections
OrderedDict
p0
((lp1
(lp2
S'timestamp'
p3
aF1.4847030639648438
aa(lp4
S'distance'
p5
aF373.3581008911133
aa(lp6
S'state'
p7
aI0
aatp8
Rp9
.ccollections
OrderedDict
p0
((lp1
(lp2
S'timestamp'
p3
aF1.4849860668182373
aa(lp4
S'distance'
p5
aF373.3581008911133
aa(lp6
S'state'
p7
aI0
aatp8
Rp9
.ccollections
OrderedDict
p0
((lp1
(lp2
S'timestamp'
p3
aF1.4948019981384277
aa(lp4
S'distance'
p5
aF373.3581008911133
aa(lp6
S'state'
p7
aI0
aatp8
Rp9
.ccollections
OrderedDict
p0
((lp1
(lp2
S'timestamp'
p3
aF1.4949140548706055
aa(lp4
S'distance'
p5
aF373.3581008911133
aa(lp6
S'state'
p7
aI0
aatp8
Rp9
.ccollections
OrderedDict
p0
((lp1
(lp2
S'timestamp'
p3
aF1.5051209926605225
aa(lp4
S'distance'
p5
aF373.3581008911133
aa(lp6
S'state'
p7
aI0
aatp8
Rp9
.ccollections
OrderedDict
p0
((lp1
(lp2
S'timestamp'
p3
aF1.5051970481872559
aa(lp4
S'distance'
p5
aF373.3581008911133
aa(lp6
S'state'
p7
aI0
aatp8
Rp9
.ccollections
OrderedDict
p0
((lp1
(lp2
S'timestamp'
p3
aF1.5143659114837646
aa(lp4
S'distance'
p5
aF373.3581008911133
aa(lp6
S'state'
p7
aI0
aatp8
Rp9
.ccollections
OrderedDict
p0
((lp1
(lp2
S'timestamp'
p3
aF1.5153119564056396
aa(lp4
S'distance'
p5
aF373.3581008911133
aa(lp6
S'state'
p7
aI0
aatp8
Rp9
.ccollections
OrderedDict
p0
((lp1
(lp2
S'timestamp'
p3
aF1.524449110031128
aa(lp4
S'distance'
p5
aF373.3581008911133
aa(lp6
S'state'
p7
aI0
aatp8
Rp9
.ccollections
OrderedDict
p0
((lp1
(lp2
S'timestamp'
p3
aF1.5252149105072021
aa(lp4
S'distance'
p5
aF373.3581008911133
aa(lp6
S'state'
p7
aI0
aatp8
Rp9
.ccollections
OrderedDict
p0
((lp1
(lp2
S'timestamp'
p3
aF1.5347421169281006
aa(lp4
S'distance'
p5
aF373.3581008911133
aa(lp6
S'state'
p7
aI0
aatp8
Rp9
.ccollections
OrderedDict
p0
((lp1
(lp2
S'timestamp'
p3
aF1.5349910259246826
aa(lp4
S'distance'
p5
aF373.3581008911133
aa(lp6
S'state'
p7
aI0
aatp8
Rp9
.ccollections
OrderedDict
p0
((lp1
(lp2
S'timestamp'
p3
aF1.5446901321411133
aa(lp4
S'distance'
p5
aF373.3581008911133
aa(lp6
S'state'
p7
aI0
aatp8
Rp9
.ccollections
OrderedDict
p0
((lp1
(lp2
S'timestamp'
p3
aF1.545025110244751
aa(lp4
S'distance'
p5
aF373.3581008911133
aa(lp6
S'state'
p7
aI0
aatp8
Rp9
.ccollections
OrderedDict
p0
((lp1
(lp2
S'timestamp'
p3
aF1.5544350147247314
aa(lp4
S'distance'
p5
aF373.3581008911133
aa(lp6
S'state'
p7
aI0
aatp8
Rp9
.ccollections
OrderedDict
p0
((lp1
(lp2
S'timestamp'
p3
aF1.555161952972412
aa(lp4
S'distance'
p5
aF373.3581008911133
aa(lp6
S'state'
p7
aI0
aatp8
Rp9
.ccollections
OrderedDict
p0
((lp1
(lp2
S'timestamp'
p3
aF1.5651929378509521
aa(lp4
S'distance'
p5
aF373.3581008911133
aa(lp6
S'state'
p7
aI0
aatp8
Rp9
.ccollections
OrderedDict
p0
((lp1
(lp2
S'timestamp'
p3
aF1.5652740001678467
aa(lp4
S'distance'
p5
aF373.3581008911133
aa(lp6
S'state'
p7
aI0
aatp8
Rp9
.ccollections
OrderedDict
p0
((lp1
(lp2
S'timestamp'
p3
aF1.5744760036468506
aa(lp4
S'distance'
p5
aF373.3581008911133
aa(lp6
S'state'
p7
aI0
aatp8
Rp9
.ccollections
OrderedDict
p0
((lp1
(lp2
S'timestamp'
p3
aF1.5749280452728271
aa(lp4
S'distance'
p5
aF373.3581008911133
aa(lp6
S'state'
p7
aI0
aatp8
Rp9
.ccollections
OrderedDict
p0
((lp1
(lp2
S'timestamp'
p3
aF1.5844371318817139
aa(lp4
S'distance'
p5
aF373.3581008911133
aa(lp6
S'state'
p7
aI0
aatp8
Rp9
.ccollections
OrderedDict
p0
((lp1
(lp2
S'timestamp'
p3
aF1.5849931240081787
aa(lp4
S'distance'
p5
aF373.3581008911133
aa(lp6
S'state'
p7
aI0
aatp8
Rp9
.ccollections
OrderedDict
p0
((lp1
(lp2
S'timestamp'
p3
aF1.5947251319885254
aa(lp4
S'distance'
p5
aF373.3581008911133
aa(lp6
S'state'
p7
aI0
aatp8
Rp9
.ccollections
OrderedDict
p0
((lp1
(lp2
S'timestamp'
p3
aF1.5950729846954346
aa(lp4
S'distance'
p5
aF373.3581008911133
aa(lp6
S'state'
p7
aI0
aatp8
Rp9
.ccollections
OrderedDict
p0
((lp1
(lp2
S'timestamp'
p3
aF1.6043810844421387
aa(lp4
S'distance'
p5
aF373.3581008911133
aa(lp6
S'state'
p7
aI0
aatp8
Rp9
.ccollections
OrderedDict
p0
((lp1
(lp2
S'timestamp'
p3
aF1.6051759719848633
aa(lp4
S'distance'
p5
aF373.3581008911133
aa(lp6
S'state'
p7
aI0
aatp8
Rp9
.ccollections
OrderedDict
p0
((lp1
(lp2
S'timestamp'
p3
aF1.6145789623260498
aa(lp4
S'distance'
p5
aF373.3581008911133
aa(lp6
S'state'
p7
aI0
aatp8
Rp9
.ccollections
OrderedDict
p0
((lp1
(lp2
S'timestamp'
p3
aF1.6150469779968262
aa(lp4
S'distance'
p5
aF373.3581008911133
aa(lp6
S'state'
p7
aI0
aatp8
Rp9
.ccollections
OrderedDict
p0
((lp1
(lp2
S'timestamp'
p3
aF1.6248290538787842
aa(lp4
S'distance'
p5
aF373.3581008911133
aa(lp6
S'state'
p7
aI0
aatp8
Rp9
.ccollections
OrderedDict
p0
((lp1
(lp2
S'timestamp'
p3
aF1.6253409385681152
aa(lp4
S'distance'
p5
aF373.3581008911133
aa(lp6
S'state'
p7
aI0
aatp8
Rp9
.ccollections
OrderedDict
p0
((lp1
(lp2
S'timestamp'
p3
aF1.6345720291137695
aa(lp4
S'distance'
p5
aF373.3581008911133
aa(lp6
S'state'
p7
aI0
aatp8
Rp9
.ccollections
OrderedDict
p0
((lp1
(lp2
S'timestamp'
p3
aF1.635106086730957
aa(lp4
S'distance'
p5
aF373.3581008911133
aa(lp6
S'state'
p7
aI0
aatp8
Rp9
.ccollections
OrderedDict
p0
((lp1
(lp2
S'timestamp'
p3
aF1.6446471214294434
aa(lp4
S'distance'
p5
aF373.3581008911133
aa(lp6
S'state'
p7
aI0
aatp8
Rp9
.ccollections
OrderedDict
p0
((lp1
(lp2
S'timestamp'
p3
aF1.6454601287841797
aa(lp4
S'distance'
p5
aF373.3581008911133
aa(lp6
S'state'
p7
aI0
aatp8
Rp9
.ccollections
OrderedDict
p0
((lp1
(lp2
S'timestamp'
p3
aF1.654853105545044
aa(lp4
S'distance'
p5
aF373.3581008911133
aa(lp6
S'state'
p7
aI0
aatp8
Rp9
.ccollections
OrderedDict
p0
((lp1
(lp2
S'timestamp'
p3
aF1.6549489498138428
aa(lp4
S'distance'
p5
aF373.3581008911133
aa(lp6
S'state'
p7
aI0
aatp8
Rp9
.ccollections
OrderedDict
p0
((lp1
(lp2
S'timestamp'
p3
aF1.6744959354400635
aa(lp4
S'distance'
p5
aF373.3581008911133
aa(lp6
S'state'
p7
aI0
aatp8
Rp9
.ccollections
OrderedDict
p0
((lp1
(lp2
S'timestamp'
p3
aF1.6749460697174072
aa(lp4
S'distance'
p5
aF373.3581008911133
aa(lp6
S'state'
p7
aI0
aatp8
Rp9
.ccollections
OrderedDict
p0
((lp1
(lp2
S'timestamp'
p3
aF1.675827980041504
aa(lp4
S'distance'
p5
aF373.3581008911133
aa(lp6
S'state'
p7
aI0
aatp8
Rp9
.ccollections
OrderedDict
p0
((lp1
(lp2
S'timestamp'
p3
aF1.675929069519043
aa(lp4
S'distance'
p5
aF373.3581008911133
aa(lp6
S'state'
p7
aI0
aatp8
Rp9
.ccollections
OrderedDict
p0
((lp1
(lp2
S'timestamp'
p3
aF1.684601068496704
aa(lp4
S'distance'
p5
aF373.3581008911133
aa(lp6
S'state'
p7
aI0
aatp8
Rp9
.ccollections
OrderedDict
p0
((lp1
(lp2
S'timestamp'
p3
aF1.6850709915161133
aa(lp4
S'distance'
p5
aF373.3581008911133
aa(lp6
S'state'
p7
aI0
aatp8
Rp9
.ccollections
OrderedDict
p0
((lp1
(lp2
S'timestamp'
p3
aF1.6946589946746826
aa(lp4
S'distance'
p5
aF373.3581008911133
aa(lp6
S'state'
p7
aI0
aatp8
Rp9
.ccollections
OrderedDict
p0
((lp1
(lp2
S'timestamp'
p3
aF1.6949989795684814
aa(lp4
S'distance'
p5
aF373.3581008911133
aa(lp6
S'state'
p7
aI0
aatp8
Rp9
.ccollections
OrderedDict
p0
((lp1
(lp2
S'timestamp'
p3
aF1.7047030925750732
aa(lp4
S'distance'
p5
aF373.3581008911133
aa(lp6
S'state'
p7
aI0
aatp8
Rp9
.ccollections
OrderedDict
p0
((lp1
(lp2
S'timestamp'
p3
aF1.705941915512085
aa(lp4
S'distance'
p5
aF373.3581008911133
aa(lp6
S'state'
p7
aI0
aatp8
Rp9
.ccollections
OrderedDict
p0
((lp1
(lp2
S'timestamp'
p3
aF1.7148709297180176
aa(lp4
S'distance'
p5
aF373.3581008911133
aa(lp6
S'state'
p7
aI0
aatp8
Rp9
.ccollections
OrderedDict
p0
((lp1
(lp2
S'timestamp'
p3
aF1.714961051940918
aa(lp4
S'distance'
p5
aF373.3581008911133
aa(lp6
S'state'
p7
aI0
aatp8
Rp9
.ccollections
OrderedDict
p0
((lp1
(lp2
S'timestamp'
p3
aF1.7248079776763916
aa(lp4
S'distance'
p5
aF373.3581008911133
aa(lp6
S'state'
p7
aI0
aatp8
Rp9
.ccollections
OrderedDict
p0
((lp1
(lp2
S'timestamp'
p3
aF1.7250409126281738
aa(lp4
S'distance'
p5
aF373.3581008911133
aa(lp6
S'state'
p7
aI0
aatp8
Rp9
.ccollections
OrderedDict
p0
((lp1
(lp2
S'timestamp'
p3
aF1.7344510555267334
aa(lp4
S'distance'
p5
aF373.3581008911133
aa(lp6
S'state'
p7
aI0
aatp8
Rp9
.ccollections
OrderedDict
p0
((lp1
(lp2
S'timestamp'
p3
aF1.7349729537963867
aa(lp4
S'distance'
p5
aF373.3581008911133
aa(lp6
S'state'
p7
aI0
aatp8
Rp9
.ccollections
OrderedDict
p0
((lp1
(lp2
S'timestamp'
p3
aF1.7451910972595215
aa(lp4
S'distance'
p5
aF373.3581008911133
aa(lp6
S'state'
p7
aI0
aatp8
Rp9
.ccollections
OrderedDict
p0
((lp1
(lp2
S'timestamp'
p3
aF1.7452709674835205
aa(lp4
S'distance'
p5
aF373.3581008911133
aa(lp6
S'state'
p7
aI0
aatp8
Rp9
.ccollections
OrderedDict
p0
((lp1
(lp2
S'timestamp'
p3
aF1.7548019886016846
aa(lp4
S'distance'
p5
aF373.3581008911133
aa(lp6
S'state'
p7
aI0
aatp8
Rp9
.ccollections
OrderedDict
p0
((lp1
(lp2
S'timestamp'
p3
aF1.754883050918579
aa(lp4
S'distance'
p5
aF373.3581008911133
aa(lp6
S'state'
p7
aI0
aatp8
Rp9
.ccollections
OrderedDict
p0
((lp1
(lp2
S'timestamp'
p3
aF1.7747259140014648
aa(lp4
S'distance'
p5
aF373.3581008911133
aa(lp6
S'state'
p7
aI0
aatp8
Rp9
.ccollections
OrderedDict
p0
((lp1
(lp2
S'timestamp'
p3
aF1.7748079299926758
aa(lp4
S'distance'
p5
aF373.3581008911133
aa(lp6
S'state'
p7
aI0
aatp8
Rp9
.ccollections
OrderedDict
p0
((lp1
(lp2
S'timestamp'
p3
aF1.7758240699768066
aa(lp4
S'distance'
p5
aF373.3581008911133
aa(lp6
S'state'
p7
aI0
aatp8
Rp9
.ccollections
OrderedDict
p0
((lp1
(lp2
S'timestamp'
p3
aF1.775933027267456
aa(lp4
S'distance'
p5
aF373.3581008911133
aa(lp6
S'state'
p7
aI0
aatp8
Rp9
.ccollections
OrderedDict
p0
((lp1
(lp2
S'timestamp'
p3
aF1.7844789028167725
aa(lp4
S'distance'
p5
aF373.3581008911133
aa(lp6
S'state'
p7
aI0
aatp8
Rp9
.ccollections
OrderedDict
p0
((lp1
(lp2
S'timestamp'
p3
aF1.7854039669036865
aa(lp4
S'distance'
p5
aF373.3581008911133
aa(lp6
S'state'
p7
aI0
aatp8
Rp9
.ccollections
OrderedDict
p0
((lp1
(lp2
S'timestamp'
p3
aF1.7947299480438232
aa(lp4
S'distance'
p5
aF373.3581008911133
aa(lp6
S'state'
p7
aI0
aatp8
Rp9
.ccollections
OrderedDict
p0
((lp1
(lp2
S'timestamp'
p3
aF1.7951240539550781
aa(lp4
S'distance'
p5
aF373.3581008911133
aa(lp6
S'state'
p7
aI0
aatp8
Rp9
.ccollections
OrderedDict
p0
((lp1
(lp2
S'timestamp'
p3
aF1.805156946182251
aa(lp4
S'distance'
p5
aF373.3581008911133
aa(lp6
S'state'
p7
aI0
aatp8
Rp9
.ccollections
OrderedDict
p0
((lp1
(lp2
S'timestamp'
p3
aF1.8052339553833008
aa(lp4
S'distance'
p5
aF373.3581008911133
aa(lp6
S'state'
p7
aI0
aatp8
Rp9
.ccollections
OrderedDict
p0
((lp1
(lp2
S'timestamp'
p3
aF1.8150560855865479
aa(lp4
S'distance'
p5
aF373.3581008911133
aa(lp6
S'state'
p7
aI0
aatp8
Rp9
.ccollections
OrderedDict
p0
((lp1
(lp2
S'timestamp'
p3
aF1.8153190612792969
aa(lp4
S'distance'
p5
aF373.3581008911133
aa(lp6
S'state'
p7
aI0
aatp8
Rp9
.ccollections
OrderedDict
p0
((lp1
(lp2
S'timestamp'
p3
aF1.8244481086730957
aa(lp4
S'distance'
p5
aF373.3581008911133
aa(lp6
S'state'
p7
aI0
aatp8
Rp9
.ccollections
OrderedDict
p0
((lp1
(lp2
S'timestamp'
p3
aF1.8250350952148438
aa(lp4
S'distance'
p5
aF373.3581008911133
aa(lp6
S'state'
p7
aI0
aatp8
Rp9
.ccollections
OrderedDict
p0
((lp1
(lp2
S'timestamp'
p3
aF1.8343870639801025
aa(lp4
S'distance'
p5
aF373.3581008911133
aa(lp6
S'state'
p7
aI0
aatp8
Rp9
.ccollections
OrderedDict
p0
((lp1
(lp2
S'timestamp'
p3
aF1.8351941108703613
aa(lp4
S'distance'
p5
aF373.3581008911133
aa(lp6
S'state'
p7
aI0
aatp8
Rp9
.ccollections
OrderedDict
p0
((lp1
(lp2
S'timestamp'
p3
aF1.8445649147033691
aa(lp4
S'distance'
p5
aF373.3581008911133
aa(lp6
S'state'
p7
aI0
aatp8
Rp9
.ccollections
OrderedDict
p0
((lp1
(lp2
S'timestamp'
p3
aF1.8450989723205566
aa(lp4
S'distance'
p5
aF373.3581008911133
aa(lp6
S'state'
p7
aI0
aatp8
Rp9
.ccollections
OrderedDict
p0
((lp1
(lp2
S'timestamp'
p3
aF1.854767084121704
aa(lp4
S'distance'
p5
aF373.3581008911133
aa(lp6
S'state'
p7
aI0
aatp8
Rp9
.ccollections
OrderedDict
p0
((lp1
(lp2
S'timestamp'
p3
aF1.8552961349487305
aa(lp4
S'distance'
p5
aF373.3581008911133
aa(lp6
S'state'
p7
aI0
aatp8
Rp9
.ccollections
OrderedDict
p0
((lp1
(lp2
S'timestamp'
p3
aF1.8655719757080078
aa(lp4
S'distance'
p5
aF373.3581008911133
aa(lp6
S'state'
p7
aI0
aatp8
Rp9
.ccollections
OrderedDict
p0
((lp1
(lp2
S'timestamp'
p3
aF1.8660941123962402
aa(lp4
S'distance'
p5
aF373.3581008911133
aa(lp6
S'state'
p7
aI0
aatp8
Rp9
.ccollections
OrderedDict
p0
((lp1
(lp2
S'timestamp'
p3
aF1.874413013458252
aa(lp4
S'distance'
p5
aF373.3581008911133
aa(lp6
S'state'
p7
aI0
aatp8
Rp9
.ccollections
OrderedDict
p0
((lp1
(lp2
S'timestamp'
p3
aF1.8751721382141113
aa(lp4
S'distance'
p5
aF373.3581008911133
aa(lp6
S'state'
p7
aI0
aatp8
Rp9
.ccollections
OrderedDict
p0
((lp1
(lp2
S'timestamp'
p3
aF1.8855009078979492
aa(lp4
S'distance'
p5
aF373.3581008911133
aa(lp6
S'state'
p7
aI0
aatp8
Rp9
.ccollections
OrderedDict
p0
((lp1
(lp2
S'timestamp'
p3
aF1.8859710693359375
aa(lp4
S'distance'
p5
aF373.3581008911133
aa(lp6
S'state'
p7
aI0
aatp8
Rp9
.ccollections
OrderedDict
p0
((lp1
(lp2
S'timestamp'
p3
aF1.894624948501587
aa(lp4
S'distance'
p5
aF373.3581008911133
aa(lp6
S'state'
p7
aI0
aatp8
Rp9
.ccollections
OrderedDict
p0
((lp1
(lp2
S'timestamp'
p3
aF1.8949739933013916
aa(lp4
S'distance'
p5
aF373.3581008911133
aa(lp6
S'state'
p7
aI0
aatp8
Rp9
.ccollections
OrderedDict
p0
((lp1
(lp2
S'timestamp'
p3
aF1.904675006866455
aa(lp4
S'distance'
p5
aF373.3581008911133
aa(lp6
S'state'
p7
aI0
aatp8
Rp9
.ccollections
OrderedDict
p0
((lp1
(lp2
S'timestamp'
p3
aF1.9049930572509766
aa(lp4
S'distance'
p5
aF373.3581008911133
aa(lp6
S'state'
p7
aI0
aatp8
Rp9
.ccollections
OrderedDict
p0
((lp1
(lp2
S'timestamp'
p3
aF1.9159700870513916
aa(lp4
S'distance'
p5
aF373.3581008911133
aa(lp6
S'state'
p7
aI0
aatp8
Rp9
.ccollections
OrderedDict
p0
((lp1
(lp2
S'timestamp'
p3
aF1.9165980815887451
aa(lp4
S'distance'
p5
aF373.3581008911133
aa(lp6
S'state'
p7
aI0
aatp8
Rp9
.ccollections
OrderedDict
p0
((lp1
(lp2
S'timestamp'
p3
aF1.92478609085083
aa(lp4
S'distance'
p5
aF373.3581008911133
aa(lp6
S'state'
p7
aI0
aatp8
Rp9
.ccollections
OrderedDict
p0
((lp1
(lp2
S'timestamp'
p3
aF1.9249520301818848
aa(lp4
S'distance'
p5
aF373.3581008911133
aa(lp6
S'state'
p7
aI0
aatp8
Rp9
.ccollections
OrderedDict
p0
((lp1
(lp2
S'timestamp'
p3
aF1.934628963470459
aa(lp4
S'distance'
p5
aF373.3581008911133
aa(lp6
S'state'
p7
aI0
aatp8
Rp9
.ccollections
OrderedDict
p0
((lp1
(lp2
S'timestamp'
p3
aF1.934906005859375
aa(lp4
S'distance'
p5
aF373.3581008911133
aa(lp6
S'state'
p7
aI0
aatp8
Rp9
.ccollections
OrderedDict
p0
((lp1
(lp2
S'timestamp'
p3
aF1.9446349143981934
aa(lp4
S'distance'
p5
aF373.3581008911133
aa(lp6
S'state'
p7
aI0
aatp8
Rp9
.ccollections
OrderedDict
p0
((lp1
(lp2
S'timestamp'
p3
aF1.9449150562286377
aa(lp4
S'distance'
p5
aF373.3581008911133
aa(lp6
S'state'
p7
aI0
aatp8
Rp9
.ccollections
OrderedDict
p0
((lp1
(lp2
S'timestamp'
p3
aF1.9544920921325684
aa(lp4
S'distance'
p5
aF373.3581008911133
aa(lp6
S'state'
p7
aI0
aatp8
Rp9
.ccollections
OrderedDict
p0
((lp1
(lp2
S'timestamp'
p3
aF1.9550161361694336
aa(lp4
S'distance'
p5
aF373.3581008911133
aa(lp6
S'state'
p7
aI0
aatp8
Rp9
.ccollections
OrderedDict
p0
((lp1
(lp2
S'timestamp'
p3
aF1.964440107345581
aa(lp4
S'distance'
p5
aF373.3581008911133
aa(lp6
S'state'
p7
aI0
aatp8
Rp9
.ccollections
OrderedDict
p0
((lp1
(lp2
S'timestamp'
p3
aF1.9649219512939453
aa(lp4
S'distance'
p5
aF373.3581008911133
aa(lp6
S'state'
p7
aI0
aatp8
Rp9
.ccollections
OrderedDict
p0
((lp1
(lp2
S'timestamp'
p3
aF1.9748101234436035
aa(lp4
S'distance'
p5
aF373.3581008911133
aa(lp6
S'state'
p7
aI0
aatp8
Rp9
.ccollections
OrderedDict
p0
((lp1
(lp2
S'timestamp'
p3
aF1.9749391078948975
aa(lp4
S'distance'
p5
aF373.3581008911133
aa(lp6
S'state'
p7
aI0
aatp8
Rp9
.ccollections
OrderedDict
p0
((lp1
(lp2
S'timestamp'
p3
aF1.9947690963745117
aa(lp4
S'distance'
p5
aF373.3581008911133
aa(lp6
S'state'
p7
aI0
aatp8
Rp9
.ccollections
OrderedDict
p0
((lp1
(lp2
S'timestamp'
p3
aF1.9949629306793213
aa(lp4
S'distance'
p5
aF373.3581008911133
aa(lp6
S'state'
p7
aI0
aatp8
Rp9
.ccollections
OrderedDict
p0
((lp1
(lp2
S'timestamp'
p3
aF1.995439052581787
aa(lp4
S'distance'
p5
aF373.3581008911133
aa(lp6
S'state'
p7
aI0
aatp8
Rp9
.ccollections
OrderedDict
p0
((lp1
(lp2
S'timestamp'
p3
aF1.9960920810699463
aa(lp4
S'distance'
p5
aF373.3581008911133
aa(lp6
S'state'
p7
aI0
aatp8
Rp9
.ccollections
OrderedDict
p0
((lp1
(lp2
S'timestamp'
p3
aF2.004357099533081
aa(lp4
S'distance'
p5
aF373.3581008911133
aa(lp6
S'state'
p7
aI0
aatp8
Rp9
.ccollections
OrderedDict
p0
((lp1
(lp2
S'timestamp'
p3
aF2.005044937133789
aa(lp4
S'distance'
p5
aF373.3581008911133
aa(lp6
S'state'
p7
aI0
aatp8
Rp9
.ccollections
OrderedDict
p0
((lp1
(lp2
S'timestamp'
p3
aF2.0146420001983643
aa(lp4
S'distance'
p5
aF373.3581008911133
aa(lp6
S'state'
p7
aI0
aatp8
Rp9
.ccollections
OrderedDict
p0
((lp1
(lp2
S'timestamp'
p3
aF2.0152390003204346
aa(lp4
S'distance'
p5
aF373.3581008911133
aa(lp6
S'state'
p7
aI0
aatp8
Rp9
.ccollections
OrderedDict
p0
((lp1
(lp2
S'timestamp'
p3
aF2.0248160362243652
aa(lp4
S'distance'
p5
aF373.3581008911133
aa(lp6
S'state'
p7
aI0
aatp8
Rp9
.ccollections
OrderedDict
p0
((lp1
(lp2
S'timestamp'
p3
aF2.0249600410461426
aa(lp4
S'distance'
p5
aF373.3581008911133
aa(lp6
S'state'
p7
aI0
aatp8
Rp9
.ccollections
OrderedDict
p0
((lp1
(lp2
S'timestamp'
p3
aF2.034950017929077
aa(lp4
S'distance'
p5
aF373.3581008911133
aa(lp6
S'state'
p7
aI0
aatp8
Rp9
.ccollections
OrderedDict
p0
((lp1
(lp2
S'timestamp'
p3
aF2.0358200073242188
aa(lp4
S'distance'
p5
aF373.3581008911133
aa(lp6
S'state'
p7
aI0
aatp8
Rp9
.ccollections
OrderedDict
p0
((lp1
(lp2
S'timestamp'
p3
aF2.0451431274414062
aa(lp4
S'distance'
p5
aF373.3581008911133
aa(lp6
S'state'
p7
aI0
aatp8
Rp9
.ccollections
OrderedDict
p0
((lp1
(lp2
S'timestamp'
p3
aF2.045309066772461
aa(lp4
S'distance'
p5
aF373.3581008911133
aa(lp6
S'state'
p7
aI0
aatp8
Rp9
.ccollections
OrderedDict
p0
((lp1
(lp2
S'timestamp'
p3
aF2.054548978805542
aa(lp4
S'distance'
p5
aF373.3581008911133
aa(lp6
S'state'
p7
aI0
aatp8
Rp9
.ccollections
OrderedDict
p0
((lp1
(lp2
S'timestamp'
p3
aF2.0550761222839355
aa(lp4
S'distance'
p5
aF373.3581008911133
aa(lp6
S'state'
p7
aI0
aatp8
Rp9
.ccollections
OrderedDict
p0
((lp1
(lp2
S'timestamp'
p3
aF2.064487934112549
aa(lp4
S'distance'
p5
aF373.3581008911133
aa(lp6
S'state'
p7
aI0
aatp8
Rp9
.ccollections
OrderedDict
p0
((lp1
(lp2
S'timestamp'
p3
aF2.06510591506958
aa(lp4
S'distance'
p5
aF373.3581008911133
aa(lp6
S'state'
p7
aI0
aatp8
Rp9
.ccollections
OrderedDict
p0
((lp1
(lp2
S'timestamp'
p3
aF2.0744469165802
aa(lp4
S'distance'
p5
aF373.3581008911133
aa(lp6
S'state'
p7
aI400
aatp8
Rp9
.ccollections
OrderedDict
p0
((lp1
(lp2
S'timestamp'
p3
aF2.0749759674072266
aa(lp4
S'distance'
p5
aF373.3581008911133
aa(lp6
S'state'
p7
aI400
aatp8
Rp9
.ccollections
OrderedDict
p0
((lp1
(lp2
S'timestamp'
p3
aF2.0847229957580566
aa(lp4
S'distance'
p5
aF373.3581008911133
aa(lp6
S'state'
p7
aI400
aatp8
Rp9
.ccollections
OrderedDict
p0
((lp1
(lp2
S'timestamp'
p3
aF2.084868907928467
aa(lp4
S'distance'
p5
aF373.3581008911133
aa(lp6
S'state'
p7
aI400
aatp8
Rp9
.ccollections
OrderedDict
p0
((lp1
(lp2
S'timestamp'
p3
aF2.094792127609253
aa(lp4
S'distance'
p5
aF373.3581008911133
aa(lp6
S'state'
p7
aI400
aatp8
Rp9
.ccollections
OrderedDict
p0
((lp1
(lp2
S'timestamp'
p3
aF2.0949549674987793
aa(lp4
S'distance'
p5
aF373.3581008911133
aa(lp6
S'state'
p7
aI400
aatp8
Rp9
.ccollections
OrderedDict
p0
((lp1
(lp2
S'timestamp'
p3
aF2.105889081954956
aa(lp4
S'distance'
p5
aF373.3581008911133
aa(lp6
S'state'
p7
aI400
aatp8
Rp9
.ccollections
OrderedDict
p0
((lp1
(lp2
S'timestamp'
p3
aF2.107614040374756
aa(lp4
S'distance'
p5
aF373.3581008911133
aa(lp6
S'state'
p7
aI400
aatp8
Rp9
.ccollections
OrderedDict
p0
((lp1
(lp2
S'timestamp'
p3
aF2.1152210235595703
aa(lp4
S'distance'
p5
aF373.3581008911133
aa(lp6
S'state'
p7
aI400
aatp8
Rp9
.ccollections
OrderedDict
p0
((lp1
(lp2
S'timestamp'
p3
aF2.1163930892944336
aa(lp4
S'distance'
p5
aF373.3581008911133
aa(lp6
S'state'
p7
aI400
aatp8
Rp9
.ccollections
OrderedDict
p0
((lp1
(lp2
S'timestamp'
p3
aF2.1253199577331543
aa(lp4
S'distance'
p5
aF373.3581008911133
aa(lp6
S'state'
p7
aI400
aatp8
Rp9
.ccollections
OrderedDict
p0
((lp1
(lp2
S'timestamp'
p3
aF2.125433921813965
aa(lp4
S'distance'
p5
aF373.3581008911133
aa(lp6
S'state'
p7
aI400
aatp8
Rp9
.ccollections
OrderedDict
p0
((lp1
(lp2
S'timestamp'
p3
aF2.134753942489624
aa(lp4
S'distance'
p5
aF373.3581008911133
aa(lp6
S'state'
p7
aI400
aatp8
Rp9
.ccollections
OrderedDict
p0
((lp1
(lp2
S'timestamp'
p3
aF2.135190963745117
aa(lp4
S'distance'
p5
aF373.3581008911133
aa(lp6
S'state'
p7
aI400
aatp8
Rp9
.ccollections
OrderedDict
p0
((lp1
(lp2
S'timestamp'
p3
aF2.144695997238159
aa(lp4
S'distance'
p5
aF373.3581008911133
aa(lp6
S'state'
p7
aI400
aatp8
Rp9
.ccollections
OrderedDict
p0
((lp1
(lp2
S'timestamp'
p3
aF2.1449949741363525
aa(lp4
S'distance'
p5
aF373.3581008911133
aa(lp6
S'state'
p7
aI400
aatp8
Rp9
.ccollections
OrderedDict
p0
((lp1
(lp2
S'timestamp'
p3
aF2.1551620960235596
aa(lp4
S'distance'
p5
aF373.3581008911133
aa(lp6
S'state'
p7
aI400
aatp8
Rp9
.ccollections
OrderedDict
p0
((lp1
(lp2
S'timestamp'
p3
aF2.1552579402923584
aa(lp4
S'distance'
p5
aF373.3581008911133
aa(lp6
S'state'
p7
aI400
aatp8
Rp9
.ccollections
OrderedDict
p0
((lp1
(lp2
S'timestamp'
p3
aF2.164896011352539
aa(lp4
S'distance'
p5
aF373.3581008911133
aa(lp6
S'state'
p7
aI400
aatp8
Rp9
.ccollections
OrderedDict
p0
((lp1
(lp2
S'timestamp'
p3
aF2.1650729179382324
aa(lp4
S'distance'
p5
aF373.3581008911133
aa(lp6
S'state'
p7
aI400
aatp8
Rp9
.ccollections
OrderedDict
p0
((lp1
(lp2
S'timestamp'
p3
aF2.1746280193328857
aa(lp4
S'distance'
p5
aF373.3581008911133
aa(lp6
S'state'
p7
aI400
aatp8
Rp9
.ccollections
OrderedDict
p0
((lp1
(lp2
S'timestamp'
p3
aF2.1750409603118896
aa(lp4
S'distance'
p5
aF373.3581008911133
aa(lp6
S'state'
p7
aI400
aatp8
Rp9
.ccollections
OrderedDict
p0
((lp1
(lp2
S'timestamp'
p3
aF2.185019016265869
aa(lp4
S'distance'
p5
aF373.3581008911133
aa(lp6
S'state'
p7
aI400
aatp8
Rp9
.ccollections
OrderedDict
p0
((lp1
(lp2
S'timestamp'
p3
aF2.1855580806732178
aa(lp4
S'distance'
p5
aF373.3581008911133
aa(lp6
S'state'
p7
aI400
aatp8
Rp9
.ccollections
OrderedDict
p0
((lp1
(lp2
S'timestamp'
p3
aF2.204785108566284
aa(lp4
S'distance'
p5
aF373.3581008911133
aa(lp6
S'state'
p7
aI400
aatp8
Rp9
.ccollections
OrderedDict
p0
((lp1
(lp2
S'timestamp'
p3
aF2.204862117767334
aa(lp4
S'distance'
p5
aF373.3581008911133
aa(lp6
S'state'
p7
aI400
aatp8
Rp9
.ccollections
OrderedDict
p0
((lp1
(lp2
S'timestamp'
p3
aF2.2077250480651855
aa(lp4
S'distance'
p5
aF373.3581008911133
aa(lp6
S'state'
p7
aI400
aatp8
Rp9
.ccollections
OrderedDict
p0
((lp1
(lp2
S'timestamp'
p3
aF2.2078709602355957
aa(lp4
S'distance'
p5
aF373.3581008911133
aa(lp6
S'state'
p7
aI400
aatp8
Rp9
.ccollections
OrderedDict
p0
((lp1
(lp2
S'timestamp'
p3
aF2.214587926864624
aa(lp4
S'distance'
p5
aF373.3581008911133
aa(lp6
S'state'
p7
aI400
aatp8
Rp9
.ccollections
OrderedDict
p0
((lp1
(lp2
S'timestamp'
p3
aF2.2149829864501953
aa(lp4
S'distance'
p5
aF373.3581008911133
aa(lp6
S'state'
p7
aI400
aatp8
Rp9
.ccollections
OrderedDict
p0
((lp1
(lp2
S'timestamp'
p3
aF2.2248709201812744
aa(lp4
S'distance'
p5
aF373.3581008911133
aa(lp6
S'state'
p7
aI400
aatp8
Rp9
.ccollections
OrderedDict
p0
((lp1
(lp2
S'timestamp'
p3
aF2.225076913833618
aa(lp4
S'distance'
p5
aF373.3581008911133
aa(lp6
S'state'
p7
aI400
aatp8
Rp9
.ccollections
OrderedDict
p0
((lp1
(lp2
S'timestamp'
p3
aF2.234511137008667
aa(lp4
S'distance'
p5
aF373.3581008911133
aa(lp6
S'state'
p7
aI400
aatp8
Rp9
.ccollections
OrderedDict
p0
((lp1
(lp2
S'timestamp'
p3
aF2.2349441051483154
aa(lp4
S'distance'
p5
aF373.3581008911133
aa(lp6
S'state'
p7
aI400
aatp8
Rp9
.ccollections
OrderedDict
p0
((lp1
(lp2
S'timestamp'
p3
aF2.244637966156006
aa(lp4
S'distance'
p5
aF373.3581008911133
aa(lp6
S'state'
p7
aI400
aatp8
Rp9
.ccollections
OrderedDict
p0
((lp1
(lp2
S'timestamp'
p3
aF2.254862070083618
aa(lp4
S'distance'
p5
aF373.3581008911133
aa(lp6
S'state'
p7
aI400
aatp8
Rp9
.ccollections
OrderedDict
p0
((lp1
(lp2
S'timestamp'
p3
aF2.254948139190674
aa(lp4
S'distance'
p5
aF373.3581008911133
aa(lp6
S'state'
p7
aI400
aatp8
Rp9
.ccollections
OrderedDict
p0
((lp1
(lp2
S'timestamp'
p3
aF2.2559449672698975
aa(lp4
S'distance'
p5
aF373.3581008911133
aa(lp6
S'state'
p7
aI400
aatp8
Rp9
.ccollections
OrderedDict
p0
((lp1
(lp2
S'timestamp'
p3
aF2.2650279998779297
aa(lp4
S'distance'
p5
aF373.3581008911133
aa(lp6
S'state'
p7
aI400
aatp8
Rp9
.ccollections
OrderedDict
p0
((lp1
(lp2
S'timestamp'
p3
aF2.2651329040527344
aa(lp4
S'distance'
p5
aF373.3581008911133
aa(lp6
S'state'
p7
aI400
aatp8
Rp9
.ccollections
OrderedDict
p0
((lp1
(lp2
S'timestamp'
p3
aF2.2746500968933105
aa(lp4
S'distance'
p5
aF373.3581008911133
aa(lp6
S'state'
p7
aI400
aatp8
Rp9
.ccollections
OrderedDict
p0
((lp1
(lp2
S'timestamp'
p3
aF2.2750160694122314
aa(lp4
S'distance'
p5
aF373.3581008911133
aa(lp6
S'state'
p7
aI400
aatp8
Rp9
.ccollections
OrderedDict
p0
((lp1
(lp2
S'timestamp'
p3
aF2.2846291065216064
aa(lp4
S'distance'
p5
aF373.3581008911133
aa(lp6
S'state'
p7
aI400
aatp8
Rp9
.ccollections
OrderedDict
p0
((lp1
(lp2
S'timestamp'
p3
aF2.2850170135498047
aa(lp4
S'distance'
p5
aF373.3581008911133
aa(lp6
S'state'
p7
aI400
aatp8
Rp9
.ccollections
OrderedDict
p0
((lp1
(lp2
S'timestamp'
p3
aF2.294495105743408
aa(lp4
S'distance'
p5
aF373.3581008911133
aa(lp6
S'state'
p7
aI400
aatp8
Rp9
.ccollections
OrderedDict
p0
((lp1
(lp2
S'timestamp'
p3
aF2.294975996017456
aa(lp4
S'distance'
p5
aF373.3581008911133
aa(lp6
S'state'
p7
aI400
aatp8
Rp9
.ccollections
OrderedDict
p0
((lp1
(lp2
S'timestamp'
p3
aF2.3045730590820312
aa(lp4
S'distance'
p5
aF373.3581008911133
aa(lp6
S'state'
p7
aI400
aatp8
Rp9
.ccollections
OrderedDict
p0
((lp1
(lp2
S'timestamp'
p3
aF2.3051159381866455
aa(lp4
S'distance'
p5
aF373.3581008911133
aa(lp6
S'state'
p7
aI400
aatp8
Rp9
.ccollections
OrderedDict
p0
((lp1
(lp2
S'timestamp'
p3
aF2.3145809173583984
aa(lp4
S'distance'
p5
aF373.3581008911133
aa(lp6
S'state'
p7
aI400
aatp8
Rp9
.ccollections
OrderedDict
p0
((lp1
(lp2
S'timestamp'
p3
aF2.315171003341675
aa(lp4
S'distance'
p5
aF373.3581008911133
aa(lp6
S'state'
p7
aI400
aatp8
Rp9
.ccollections
OrderedDict
p0
((lp1
(lp2
S'timestamp'
p3
aF2.3249449729919434
aa(lp4
S'distance'
p5
aF373.3581008911133
aa(lp6
S'state'
p7
aI400
aatp8
Rp9
.ccollections
OrderedDict
p0
((lp1
(lp2
S'timestamp'
p3
aF2.3258049488067627
aa(lp4
S'distance'
p5
aF373.3581008911133
aa(lp6
S'state'
p7
aI400
aatp8
Rp9
.ccollections
OrderedDict
p0
((lp1
(lp2
S'timestamp'
p3
aF2.33488392829895
aa(lp4
S'distance'
p5
aF373.3581008911133
aa(lp6
S'state'
p7
aI400
aatp8
Rp9
.ccollections
OrderedDict
p0
((lp1
(lp2
S'timestamp'
p3
aF2.334955930709839
aa(lp4
S'distance'
p5
aF373.3581008911133
aa(lp6
S'state'
p7
aI400
aatp8
Rp9
.ccollections
OrderedDict
p0
((lp1
(lp2
S'timestamp'
p3
aF2.344486951828003
aa(lp4
S'distance'
p5
aF373.3581008911133
aa(lp6
S'state'
p7
aI400
aatp8
Rp9
.ccollections
OrderedDict
p0
((lp1
(lp2
S'timestamp'
p3
aF2.3449559211730957
aa(lp4
S'distance'
p5
aF373.3581008911133
aa(lp6
S'state'
p7
aI400
aatp8
Rp9
.ccollections
OrderedDict
p0
((lp1
(lp2
S'timestamp'
p3
aF2.356624126434326
aa(lp4
S'distance'
p5
aF373.3581008911133
aa(lp6
S'state'
p7
aI400
aatp8
Rp9
.ccollections
OrderedDict
p0
((lp1
(lp2
S'timestamp'
p3
aF2.3567559719085693
aa(lp4
S'distance'
p5
aF373.3581008911133
aa(lp6
S'state'
p7
aI400
aatp8
Rp9
.ccollections
OrderedDict
p0
((lp1
(lp2
S'timestamp'
p3
aF2.3646669387817383
aa(lp4
S'distance'
p5
aF373.3581008911133
aa(lp6
S'state'
p7
aI400
aatp8
Rp9
.ccollections
OrderedDict
p0
((lp1
(lp2
S'timestamp'
p3
aF2.36513090133667
aa(lp4
S'distance'
p5
aF373.3581008911133
aa(lp6
S'state'
p7
aI400
aatp8
Rp9
.ccollections
OrderedDict
p0
((lp1
(lp2
S'timestamp'
p3
aF2.3748369216918945
aa(lp4
S'distance'
p5
aF373.3581008911133
aa(lp6
S'state'
p7
aI400
aatp8
Rp9
.ccollections
OrderedDict
p0
((lp1
(lp2
S'timestamp'
p3
aF2.375272035598755
aa(lp4
S'distance'
p5
aF373.3581008911133
aa(lp6
S'state'
p7
aI400
aatp8
Rp9
.ccollections
OrderedDict
p0
((lp1
(lp2
S'timestamp'
p3
aF2.38555908203125
aa(lp4
S'distance'
p5
aF373.3581008911133
aa(lp6
S'state'
p7
aI400
aatp8
Rp9
.ccollections
OrderedDict
p0
((lp1
(lp2
S'timestamp'
p3
aF2.3856499195098877
aa(lp4
S'distance'
p5
aF373.3581008911133
aa(lp6
S'state'
p7
aI400
aatp8
Rp9
.ccollections
OrderedDict
p0
((lp1
(lp2
S'timestamp'
p3
aF2.3951780796051025
aa(lp4
S'distance'
p5
aF373.3581008911133
aa(lp6
S'state'
p7
aI400
aatp8
Rp9
.ccollections
OrderedDict
p0
((lp1
(lp2
S'timestamp'
p3
aF2.3953399658203125
aa(lp4
S'distance'
p5
aF373.3581008911133
aa(lp6
S'state'
p7
aI400
aatp8
Rp9
.ccollections
OrderedDict
p0
((lp1
(lp2
S'timestamp'
p3
aF2.4052610397338867
aa(lp4
S'distance'
p5
aF373.3581008911133
aa(lp6
S'state'
p7
aI400
aatp8
Rp9
.ccollections
OrderedDict
p0
((lp1
(lp2
S'timestamp'
p3
aF2.4055631160736084
aa(lp4
S'distance'
p5
aF373.3581008911133
aa(lp6
S'state'
p7
aI400
aatp8
Rp9
.ccollections
OrderedDict
p0
((lp1
(lp2
S'timestamp'
p3
aF2.416940927505493
aa(lp4
S'distance'
p5
aF373.3581008911133
aa(lp6
S'state'
p7
aI400
aatp8
Rp9
.ccollections
OrderedDict
p0
((lp1
(lp2
S'timestamp'
p3
aF2.4178221225738525
aa(lp4
S'distance'
p5
aF373.3581008911133
aa(lp6
S'state'
p7
aI400
aatp8
Rp9
.ccollections
OrderedDict
p0
((lp1
(lp2
S'timestamp'
p3
aF2.424859046936035
aa(lp4
S'distance'
p5
aF373.3581008911133
aa(lp6
S'state'
p7
aI400
aatp8
Rp9
.ccollections
OrderedDict
p0
((lp1
(lp2
S'timestamp'
p3
aF2.4251129627227783
aa(lp4
S'distance'
p5
aF373.3581008911133
aa(lp6
S'state'
p7
aI400
aatp8
Rp9
.ccollections
OrderedDict
p0
((lp1
(lp2
S'timestamp'
p3
aF2.4352569580078125
aa(lp4
S'distance'
p5
aF373.3581008911133
aa(lp6
S'state'
p7
aI400
aatp8
Rp9
.ccollections
OrderedDict
p0
((lp1
(lp2
S'timestamp'
p3
aF2.4353370666503906
aa(lp4
S'distance'
p5
aF373.3581008911133
aa(lp6
S'state'
p7
aI400
aatp8
Rp9
.ccollections
OrderedDict
p0
((lp1
(lp2
S'timestamp'
p3
aF2.444636106491089
aa(lp4
S'distance'
p5
aF373.3581008911133
aa(lp6
S'state'
p7
aI400
aatp8
Rp9
.ccollections
OrderedDict
p0
((lp1
(lp2
S'timestamp'
p3
aF2.4449939727783203
aa(lp4
S'distance'
p5
aF373.3581008911133
aa(lp6
S'state'
p7
aI400
aatp8
Rp9
.ccollections
OrderedDict
p0
((lp1
(lp2
S'timestamp'
p3
aF2.4548919200897217
aa(lp4
S'distance'
p5
aF373.3581008911133
aa(lp6
S'state'
p7
aI400
aatp8
Rp9
.ccollections
OrderedDict
p0
((lp1
(lp2
S'timestamp'
p3
aF2.4551010131835938
aa(lp4
S'distance'
p5
aF373.3581008911133
aa(lp6
S'state'
p7
aI400
aatp8
Rp9
.ccollections
OrderedDict
p0
((lp1
(lp2
S'timestamp'
p3
aF2.4645919799804688
aa(lp4
S'distance'
p5
aF373.3581008911133
aa(lp6
S'state'
p7
aI400
aatp8
Rp9
.ccollections
OrderedDict
p0
((lp1
(lp2
S'timestamp'
p3
aF2.4651260375976562
aa(lp4
S'distance'
p5
aF373.3581008911133
aa(lp6
S'state'
p7
aI400
aatp8
Rp9
.ccollections
OrderedDict
p0
((lp1
(lp2
S'timestamp'
p3
aF2.4849770069122314
aa(lp4
S'distance'
p5
aF373.3581008911133
aa(lp6
S'state'
p7
aI400
aatp8
Rp9
.ccollections
OrderedDict
p0
((lp1
(lp2
S'timestamp'
p3
aF2.485050916671753
aa(lp4
S'distance'
p5
aF373.3581008911133
aa(lp6
S'state'
p7
aI400
aatp8
Rp9
.ccollections
OrderedDict
p0
((lp1
(lp2
S'timestamp'
p3
aF2.4866390228271484
aa(lp4
S'distance'
p5
aF373.3581008911133
aa(lp6
S'state'
p7
aI400
aatp8
Rp9
.ccollections
OrderedDict
p0
((lp1
(lp2
S'timestamp'
p3
aF2.487112045288086
aa(lp4
S'distance'
p5
aF373.3581008911133
aa(lp6
S'state'
p7
aI400
aatp8
Rp9
.ccollections
OrderedDict
p0
((lp1
(lp2
S'timestamp'
p3
aF2.4949519634246826
aa(lp4
S'distance'
p5
aF373.3581008911133
aa(lp6
S'state'
p7
aI400
aatp8
Rp9
.ccollections
OrderedDict
p0
((lp1
(lp2
S'timestamp'
p3
aF2.4950289726257324
aa(lp4
S'distance'
p5
aF373.3581008911133
aa(lp6
S'state'
p7
aI400
aatp8
Rp9
.ccollections
OrderedDict
p0
((lp1
(lp2
S'timestamp'
p3
aF2.504455089569092
aa(lp4
S'distance'
p5
aF373.3581008911133
aa(lp6
S'state'
p7
aI400
aatp8
Rp9
.ccollections
OrderedDict
p0
((lp1
(lp2
S'timestamp'
p3
aF2.5050880908966064
aa(lp4
S'distance'
p5
aF373.3581008911133
aa(lp6
S'state'
p7
aI400
aatp8
Rp9
.ccollections
OrderedDict
p0
((lp1
(lp2
S'timestamp'
p3
aF2.514810085296631
aa(lp4
S'distance'
p5
aF373.3581008911133
aa(lp6
S'state'
p7
aI400
aatp8
Rp9
.ccollections
OrderedDict
p0
((lp1
(lp2
S'timestamp'
p3
aF2.5151689052581787
aa(lp4
S'distance'
p5
aF373.3581008911133
aa(lp6
S'state'
p7
aI400
aatp8
Rp9
.ccollections
OrderedDict
p0
((lp1
(lp2
S'timestamp'
p3
aF2.5250160694122314
aa(lp4
S'distance'
p5
aF373.3581008911133
aa(lp6
S'state'
p7
aI400
aatp8
Rp9
.ccollections
OrderedDict
p0
((lp1
(lp2
S'timestamp'
p3
aF2.5259101390838623
aa(lp4
S'distance'
p5
aF373.3581008911133
aa(lp6
S'state'
p7
aI400
aatp8
Rp9
.ccollections
OrderedDict
p0
((lp1
(lp2
S'timestamp'
p3
aF2.5346949100494385
aa(lp4
S'distance'
p5
aF373.3581008911133
aa(lp6
S'state'
p7
aI400
aatp8
Rp9
.ccollections
OrderedDict
p0
((lp1
(lp2
S'timestamp'
p3
aF2.5350840091705322
aa(lp4
S'distance'
p5
aF373.3581008911133
aa(lp6
S'state'
p7
aI400
aatp8
Rp9
.ccollections
OrderedDict
p0
((lp1
(lp2
S'timestamp'
p3
aF2.545380115509033
aa(lp4
S'distance'
p5
aF373.3581008911133
aa(lp6
S'state'
p7
aI400
aatp8
Rp9
.ccollections
OrderedDict
p0
((lp1
(lp2
S'timestamp'
p3
aF2.5458760261535645
aa(lp4
S'distance'
p5
aF373.3581008911133
aa(lp6
S'state'
p7
aI400
aatp8
Rp9
.ccollections
OrderedDict
p0
((lp1
(lp2
S'timestamp'
p3
aF2.555325984954834
aa(lp4
S'distance'
p5
aF373.3581008911133
aa(lp6
S'state'
p7
aI400
aatp8
Rp9
.ccollections
OrderedDict
p0
((lp1
(lp2
S'timestamp'
p3
aF2.5558581352233887
aa(lp4
S'distance'
p5
aF373.3581008911133
aa(lp6
S'state'
p7
aI400
aatp8
Rp9
.ccollections
OrderedDict
p0
((lp1
(lp2
S'timestamp'
p3
aF2.5649380683898926
aa(lp4
S'distance'
p5
aF373.3581008911133
aa(lp6
S'state'
p7
aI400
aatp8
Rp9
.ccollections
OrderedDict
p0
((lp1
(lp2
S'timestamp'
p3
aF2.5650501251220703
aa(lp4
S'distance'
p5
aF373.3581008911133
aa(lp6
S'state'
p7
aI400
aatp8
Rp9
.ccollections
OrderedDict
p0
((lp1
(lp2
S'timestamp'
p3
aF2.574625015258789
aa(lp4
S'distance'
p5
aF373.3581008911133
aa(lp6
S'state'
p7
aI400
aatp8
Rp9
.ccollections
OrderedDict
p0
((lp1
(lp2
S'timestamp'
p3
aF2.5749690532684326
aa(lp4
S'distance'
p5
aF373.3581008911133
aa(lp6
S'state'
p7
aI400
aatp8
Rp9
.ccollections
OrderedDict
p0
((lp1
(lp2
S'timestamp'
p3
aF2.5845229625701904
aa(lp4
S'distance'
p5
aF373.3581008911133
aa(lp6
S'state'
p7
aI400
aatp8
Rp9
.ccollections
OrderedDict
p0
((lp1
(lp2
S'timestamp'
p3
aF2.5851449966430664
aa(lp4
S'distance'
p5
aF373.3581008911133
aa(lp6
S'state'
p7
aI400
aatp8
Rp9
.ccollections
OrderedDict
p0
((lp1
(lp2
S'timestamp'
p3
aF2.5949630737304688
aa(lp4
S'distance'
p5
aF373.3581008911133
aa(lp6
S'state'
p7
aI400
aatp8
Rp9
.ccollections
OrderedDict
p0
((lp1
(lp2
S'timestamp'
p3
aF2.5950639247894287
aa(lp4
S'distance'
p5
aF373.3581008911133
aa(lp6
S'state'
p7
aI400
aatp8
Rp9
.ccollections
OrderedDict
p0
((lp1
(lp2
S'timestamp'
p3
aF2.6046879291534424
aa(lp4
S'distance'
p5
aF373.3581008911133
aa(lp6
S'state'
p7
aI400
aatp8
Rp9
.ccollections
OrderedDict
p0
((lp1
(lp2
S'timestamp'
p3
aF2.60498309135437
aa(lp4
S'distance'
p5
aF373.3581008911133
aa(lp6
S'state'
p7
aI400
aatp8
Rp9
.ccollections
OrderedDict
p0
((lp1
(lp2
S'timestamp'
p3
aF2.6146979331970215
aa(lp4
S'distance'
p5
aF373.3581008911133
aa(lp6
S'state'
p7
aI400
aatp8
Rp9
.ccollections
OrderedDict
p0
((lp1
(lp2
S'timestamp'
p3
aF2.615001916885376
aa(lp4
S'distance'
p5
aF373.3581008911133
aa(lp6
S'state'
p7
aI400
aatp8
Rp9
.ccollections
OrderedDict
p0
((lp1
(lp2
S'timestamp'
p3
aF2.624859094619751
aa(lp4
S'distance'
p5
aF373.3581008911133
aa(lp6
S'state'
p7
aI400
aatp8
Rp9
.ccollections
OrderedDict
p0
((lp1
(lp2
S'timestamp'
p3
aF2.6252810955047607
aa(lp4
S'distance'
p5
aF373.3581008911133
aa(lp6
S'state'
p7
aI400
aatp8
Rp9
.ccollections
OrderedDict
p0
((lp1
(lp2
S'timestamp'
p3
aF2.6355600357055664
aa(lp4
S'distance'
p5
aF373.3581008911133
aa(lp6
S'state'
p7
aI400
aatp8
Rp9
.ccollections
OrderedDict
p0
((lp1
(lp2
S'timestamp'
p3
aF2.6360321044921875
aa(lp4
S'distance'
p5
aF373.3581008911133
aa(lp6
S'state'
p7
aI400
aatp8
Rp9
.ccollections
OrderedDict
p0
((lp1
(lp2
S'timestamp'
p3
aF2.6445510387420654
aa(lp4
S'distance'
p5
aF373.3581008911133
aa(lp6
S'state'
p7
aI400
aatp8
Rp9
.ccollections
OrderedDict
p0
((lp1
(lp2
S'timestamp'
p3
aF2.6450231075286865
aa(lp4
S'distance'
p5
aF373.3581008911133
aa(lp6
S'state'
p7
aI400
aatp8
Rp9
.ccollections
OrderedDict
p0
((lp1
(lp2
S'timestamp'
p3
aF2.6546270847320557
aa(lp4
S'distance'
p5
aF373.3581008911133
aa(lp6
S'state'
p7
aI400
aatp8
Rp9
.ccollections
OrderedDict
p0
((lp1
(lp2
S'timestamp'
p3
aF2.655048131942749
aa(lp4
S'distance'
p5
aF373.3581008911133
aa(lp6
S'state'
p7
aI400
aatp8
Rp9
.ccollections
OrderedDict
p0
((lp1
(lp2
S'timestamp'
p3
aF2.665079116821289
aa(lp4
S'distance'
p5
aF373.3581008911133
aa(lp6
S'state'
p7
aI400
aatp8
Rp9
.ccollections
OrderedDict
p0
((lp1
(lp2
S'timestamp'
p3
aF2.6658289432525635
aa(lp4
S'distance'
p5
aF373.3581008911133
aa(lp6
S'state'
p7
aI400
aatp8
Rp9
.ccollections
OrderedDict
p0
((lp1
(lp2
S'timestamp'
p3
aF2.6745691299438477
aa(lp4
S'distance'
p5
aF373.3581008911133
aa(lp6
S'state'
p7
aI400
aatp8
Rp9
.ccollections
OrderedDict
p0
((lp1
(lp2
S'timestamp'
p3
aF2.6750540733337402
aa(lp4
S'distance'
p5
aF373.3581008911133
aa(lp6
S'state'
p7
aI400
aatp8
Rp9
.ccollections
OrderedDict
p0
((lp1
(lp2
S'timestamp'
p3
aF2.6849050521850586
aa(lp4
S'distance'
p5
aF373.3581008911133
aa(lp6
S'state'
p7
aI400
aatp8
Rp9
.ccollections
OrderedDict
p0
((lp1
(lp2
S'timestamp'
p3
aF2.685015916824341
aa(lp4
S'distance'
p5
aF373.3581008911133
aa(lp6
S'state'
p7
aI400
aatp8
Rp9
.ccollections
OrderedDict
p0
((lp1
(lp2
S'timestamp'
p3
aF2.6954829692840576
aa(lp4
S'distance'
p5
aF373.3581008911133
aa(lp6
S'state'
p7
aI400
aatp8
Rp9
.ccollections
OrderedDict
p0
((lp1
(lp2
S'timestamp'
p3
aF2.6957969665527344
aa(lp4
S'distance'
p5
aF373.3581008911133
aa(lp6
S'state'
p7
aI400
aatp8
Rp9
.ccollections
OrderedDict
p0
((lp1
(lp2
S'timestamp'
p3
aF2.704638957977295
aa(lp4
S'distance'
p5
aF373.3581008911133
aa(lp6
S'state'
p7
aI400
aatp8
Rp9
.ccollections
OrderedDict
p0
((lp1
(lp2
S'timestamp'
p3
aF2.7049150466918945
aa(lp4
S'distance'
p5
aF373.3581008911133
aa(lp6
S'state'
p7
aI400
aatp8
Rp9
.ccollections
OrderedDict
p0
((lp1
(lp2
S'timestamp'
p3
aF2.7144880294799805
aa(lp4
S'distance'
p5
aF373.3581008911133
aa(lp6
S'state'
p7
aI400
aatp8
Rp9
.ccollections
OrderedDict
p0
((lp1
(lp2
S'timestamp'
p3
aF2.715127944946289
aa(lp4
S'distance'
p5
aF373.3581008911133
aa(lp6
S'state'
p7
aI400
aatp8
Rp9
.ccollections
OrderedDict
p0
((lp1
(lp2
S'timestamp'
p3
aF2.734934091567993
aa(lp4
S'distance'
p5
aF373.3581008911133
aa(lp6
S'state'
p7
aI400
aatp8
Rp9
.ccollections
OrderedDict
p0
((lp1
(lp2
S'timestamp'
p3
aF2.73504900932312
aa(lp4
S'distance'
p5
aF373.3581008911133
aa(lp6
S'state'
p7
aI400
aatp8
Rp9
.ccollections
OrderedDict
p0
((lp1
(lp2
S'timestamp'
p3
aF2.736182928085327
aa(lp4
S'distance'
p5
aF373.3581008911133
aa(lp6
S'state'
p7
aI400
aatp8
Rp9
.ccollections
OrderedDict
p0
((lp1
(lp2
S'timestamp'
p3
aF2.7373950481414795
aa(lp4
S'distance'
p5
aF373.3581008911133
aa(lp6
S'state'
p7
aI400
aatp8
Rp9
.ccollections
OrderedDict
p0
((lp1
(lp2
S'timestamp'
p3
aF2.7451939582824707
aa(lp4
S'distance'
p5
aF373.3581008911133
aa(lp6
S'state'
p7
aI400
aatp8
Rp9
.ccollections
OrderedDict
p0
((lp1
(lp2
S'timestamp'
p3
aF2.745535135269165
aa(lp4
S'distance'
p5
aF373.3581008911133
aa(lp6
S'state'
p7
aI400
aatp8
Rp9
.ccollections
OrderedDict
p0
((lp1
(lp2
S'timestamp'
p3
aF2.7546820640563965
aa(lp4
S'distance'
p5
aF373.3581008911133
aa(lp6
S'state'
p7
aI0
aatp8
Rp9
.ccollections
OrderedDict
p0
((lp1
(lp2
S'timestamp'
p3
aF3.3175039291381836
aa(lp4
S'distance'
p5
aF264.57450103759766
aa(lp6
S'state'
p7
aI0
aatp8
Rp9
.ccollections
OrderedDict
p0
((lp1
(lp2
S'timestamp'
p3
aF3.3248860836029053
aa(lp4
S'distance'
p5
aF264.57450103759766
aa(lp6
S'state'
p7
aI0
aatp8
Rp9
.ccollections
OrderedDict
p0
((lp1
(lp2
S'timestamp'
p3
aF3.325632095336914
aa(lp4
S'distance'
p5
aF264.57450103759766
aa(lp6
S'state'
p7
aI0
aatp8
Rp9
.ccollections
OrderedDict
p0
((lp1
(lp2
S'timestamp'
p3
aF3.3346049785614014
aa(lp4
S'distance'
p5
aF264.57450103759766
aa(lp6
S'state'
p7
aI0
aatp8
Rp9
.ccollections
OrderedDict
p0
((lp1
(lp2
S'timestamp'
p3
aF3.3353171348571777
aa(lp4
S'distance'
p5
aF264.57450103759766
aa(lp6
S'state'
p7
aI0
aatp8
Rp9
.ccollections
OrderedDict
p0
((lp1
(lp2
S'timestamp'
p3
aF3.344481945037842
aa(lp4
S'distance'
p5
aF264.57450103759766
aa(lp6
S'state'
p7
aI0
aatp8
Rp9
.ccollections
OrderedDict
p0
((lp1
(lp2
S'timestamp'
p3
aF3.345350980758667
aa(lp4
S'distance'
p5
aF264.57450103759766
aa(lp6
S'state'
p7
aI0
aatp8
Rp9
.ccollections
OrderedDict
p0
((lp1
(lp2
S'timestamp'
p3
aF3.354965925216675
aa(lp4
S'distance'
p5
aF264.57450103759766
aa(lp6
S'state'
p7
aI0
aatp8
Rp9
.ccollections
OrderedDict
p0
((lp1
(lp2
S'timestamp'
p3
aF3.3556299209594727
aa(lp4
S'distance'
p5
aF264.57450103759766
aa(lp6
S'state'
p7
aI0
aatp8
Rp9
.ccollections
OrderedDict
p0
((lp1
(lp2
S'timestamp'
p3
aF3.364748001098633
aa(lp4
S'distance'
p5
aF264.57450103759766
aa(lp6
S'state'
p7
aI0
aatp8
Rp9
.ccollections
OrderedDict
p0
((lp1
(lp2
S'timestamp'
p3
aF3.365509033203125
aa(lp4
S'distance'
p5
aF264.57450103759766
aa(lp6
S'state'
p7
aI0
aatp8
Rp9
.ccollections
OrderedDict
p0
((lp1
(lp2
S'timestamp'
p3
aF3.37449312210083
aa(lp4
S'distance'
p5
aF264.57450103759766
aa(lp6
S'state'
p7
aI0
aatp8
Rp9
.ccollections
OrderedDict
p0
((lp1
(lp2
S'timestamp'
p3
aF3.3753111362457275
aa(lp4
S'distance'
p5
aF264.57450103759766
aa(lp6
S'state'
p7
aI0
aatp8
Rp9
.ccollections
OrderedDict
p0
((lp1
(lp2
S'timestamp'
p3
aF3.3846120834350586
aa(lp4
S'distance'
p5
aF264.57450103759766
aa(lp6
S'state'
p7
aI0
aatp8
Rp9
.ccollections
OrderedDict
p0
((lp1
(lp2
S'timestamp'
p3
aF3.38533091545105
aa(lp4
S'distance'
p5
aF264.57450103759766
aa(lp6
S'state'
p7
aI0
aatp8
Rp9
.ccollections
OrderedDict
p0
((lp1
(lp2
S'timestamp'
p3
aF3.3949170112609863
aa(lp4
S'distance'
p5
aF264.57450103759766
aa(lp6
S'state'
p7
aI0
aatp8
Rp9
.ccollections
OrderedDict
p0
((lp1
(lp2
S'timestamp'
p3
aF3.3955259323120117
aa(lp4
S'distance'
p5
aF264.57450103759766
aa(lp6
S'state'
p7
aI0
aatp8
Rp9
.ccollections
OrderedDict
p0
((lp1
(lp2
S'timestamp'
p3
aF3.405034065246582
aa(lp4
S'distance'
p5
aF264.57450103759766
aa(lp6
S'state'
p7
aI0
aatp8
Rp9
.ccollections
OrderedDict
p0
((lp1
(lp2
S'timestamp'
p3
aF3.4051520824432373
aa(lp4
S'distance'
p5
aF264.57450103759766
aa(lp6
S'state'
p7
aI0
aatp8
Rp9
.ccollections
OrderedDict
p0
((lp1
(lp2
S'timestamp'
p3
aF3.4150550365448
aa(lp4
S'distance'
p5
aF264.57450103759766
aa(lp6
S'state'
p7
aI0
aatp8
Rp9
.ccollections
OrderedDict
p0
((lp1
(lp2
S'timestamp'
p3
aF3.415170907974243
aa(lp4
S'distance'
p5
aF264.57450103759766
aa(lp6
S'state'
p7
aI0
aatp8
Rp9
.ccollections
OrderedDict
p0
((lp1
(lp2
S'timestamp'
p3
aF3.425307035446167
aa(lp4
S'distance'
p5
aF264.57450103759766
aa(lp6
S'state'
p7
aI0
aatp8
Rp9
.ccollections
OrderedDict
p0
((lp1
(lp2
S'timestamp'
p3
aF3.4260199069976807
aa(lp4
S'distance'
p5
aF264.57450103759766
aa(lp6
S'state'
p7
aI0
aatp8
Rp9
.ccollections
OrderedDict
p0
((lp1
(lp2
S'timestamp'
p3
aF3.4352660179138184
aa(lp4
S'distance'
p5
aF264.57450103759766
aa(lp6
S'state'
p7
aI0
aatp8
Rp9
.ccollections
OrderedDict
p0
((lp1
(lp2
S'timestamp'
p3
aF3.4356961250305176
aa(lp4
S'distance'
p5
aF264.57450103759766
aa(lp6
S'state'
p7
aI0
aatp8
Rp9
.ccollections
OrderedDict
p0
((lp1
(lp2
S'timestamp'
p3
aF3.4446330070495605
aa(lp4
S'distance'
p5
aF264.57450103759766
aa(lp6
S'state'
p7
aI0
aatp8
Rp9
.ccollections
OrderedDict
p0
((lp1
(lp2
S'timestamp'
p3
aF3.4453330039978027
aa(lp4
S'distance'
p5
aF264.57450103759766
aa(lp6
S'state'
p7
aI0
aatp8
Rp9
.ccollections
OrderedDict
p0
((lp1
(lp2
S'timestamp'
p3
aF3.4545021057128906
aa(lp4
S'distance'
p5
aF264.57450103759766
aa(lp6
S'state'
p7
aI0
aatp8
Rp9
.ccollections
OrderedDict
p0
((lp1
(lp2
S'timestamp'
p3
aF3.455303907394409
aa(lp4
S'distance'
p5
aF264.57450103759766
aa(lp6
S'state'
p7
aI0
aatp8
Rp9
.ccollections
OrderedDict
p0
((lp1
(lp2
S'timestamp'
p3
aF3.4646270275115967
aa(lp4
S'distance'
p5
aF264.57450103759766
aa(lp6
S'state'
p7
aI0
aatp8
Rp9
.ccollections
OrderedDict
p0
((lp1
(lp2
S'timestamp'
p3
aF3.465312957763672
aa(lp4
S'distance'
p5
aF264.57450103759766
aa(lp6
S'state'
p7
aI0
aatp8
Rp9
.ccollections
OrderedDict
p0
((lp1
(lp2
S'timestamp'
p3
aF3.4745399951934814
aa(lp4
S'distance'
p5
aF264.57450103759766
aa(lp6
S'state'
p7
aI0
aatp8
Rp9
.ccollections
OrderedDict
p0
((lp1
(lp2
S'timestamp'
p3
aF3.4753470420837402
aa(lp4
S'distance'
p5
aF264.57450103759766
aa(lp6
S'state'
p7
aI0
aatp8
Rp9
.ccollections
OrderedDict
p0
((lp1
(lp2
S'timestamp'
p3
aF3.48478102684021
aa(lp4
S'distance'
p5
aF264.57450103759766
aa(lp6
S'state'
p7
aI0
aatp8
Rp9
.ccollections
OrderedDict
p0
((lp1
(lp2
S'timestamp'
p3
aF3.4851489067077637
aa(lp4
S'distance'
p5
aF264.57450103759766
aa(lp6
S'state'
p7
aI0
aatp8
Rp9
.ccollections
OrderedDict
p0
((lp1
(lp2
S'timestamp'
p3
aF3.4948010444641113
aa(lp4
S'distance'
p5
aF264.57450103759766
aa(lp6
S'state'
p7
aI0
aatp8
Rp9
.ccollections
OrderedDict
p0
((lp1
(lp2
S'timestamp'
p3
aF3.495176076889038
aa(lp4
S'distance'
p5
aF264.57450103759766
aa(lp6
S'state'
p7
aI0
aatp8
Rp9
.ccollections
OrderedDict
p0
((lp1
(lp2
S'timestamp'
p3
aF3.5047800540924072
aa(lp4
S'distance'
p5
aF264.57450103759766
aa(lp6
S'state'
p7
aI0
aatp8
Rp9
.ccollections
OrderedDict
p0
((lp1
(lp2
S'timestamp'
p3
aF3.505242109298706
aa(lp4
S'distance'
p5
aF264.57450103759766
aa(lp6
S'state'
p7
aI0
aatp8
Rp9
.ccollections
OrderedDict
p0
((lp1
(lp2
S'timestamp'
p3
aF3.5150439739227295
aa(lp4
S'distance'
p5
aF264.57450103759766
aa(lp6
S'state'
p7
aI0
aatp8
Rp9
.ccollections
OrderedDict
p0
((lp1
(lp2
S'timestamp'
p3
aF3.515268087387085
aa(lp4
S'distance'
p5
aF264.57450103759766
aa(lp6
S'state'
p7
aI0
aatp8
Rp9
.ccollections
OrderedDict
p0
((lp1
(lp2
S'timestamp'
p3
aF3.52462100982666
aa(lp4
S'distance'
p5
aF264.57450103759766
aa(lp6
S'state'
p7
aI0
aatp8
Rp9
.ccollections
OrderedDict
p0
((lp1
(lp2
S'timestamp'
p3
aF3.5253450870513916
aa(lp4
S'distance'
p5
aF264.57450103759766
aa(lp6
S'state'
p7
aI0
aatp8
Rp9
.ccollections
OrderedDict
p0
((lp1
(lp2
S'timestamp'
p3
aF3.53456711769104
aa(lp4
S'distance'
p5
aF264.57450103759766
aa(lp6
S'state'
p7
aI0
aatp8
Rp9
.ccollections
OrderedDict
p0
((lp1
(lp2
S'timestamp'
p3
aF3.535231113433838
aa(lp4
S'distance'
p5
aF264.57450103759766
aa(lp6
S'state'
p7
aI0
aatp8
Rp9
.ccollections
OrderedDict
p0
((lp1
(lp2
S'timestamp'
p3
aF3.544708013534546
aa(lp4
S'distance'
p5
aF264.57450103759766
aa(lp6
S'state'
p7
aI0
aatp8
Rp9
.ccollections
OrderedDict
p0
((lp1
(lp2
S'timestamp'
p3
aF3.5453310012817383
aa(lp4
S'distance'
p5
aF264.57450103759766
aa(lp6
S'state'
p7
aI0
aatp8
Rp9
.ccollections
OrderedDict
p0
((lp1
(lp2
S'timestamp'
p3
aF3.5548529624938965
aa(lp4
S'distance'
p5
aF264.57450103759766
aa(lp6
S'state'
p7
aI0
aatp8
Rp9
.ccollections
OrderedDict
p0
((lp1
(lp2
S'timestamp'
p3
aF3.555109977722168
aa(lp4
S'distance'
p5
aF264.57450103759766
aa(lp6
S'state'
p7
aI0
aatp8
Rp9
.ccollections
OrderedDict
p0
((lp1
(lp2
S'timestamp'
p3
aF3.5648229122161865
aa(lp4
S'distance'
p5
aF264.57450103759766
aa(lp6
S'state'
p7
aI0
aatp8
Rp9
.ccollections
OrderedDict
p0
((lp1
(lp2
S'timestamp'
p3
aF3.565155029296875
aa(lp4
S'distance'
p5
aF264.57450103759766
aa(lp6
S'state'
p7
aI0
aatp8
Rp9
.ccollections
OrderedDict
p0
((lp1
(lp2
S'timestamp'
p3
aF3.5747220516204834
aa(lp4
S'distance'
p5
aF264.57450103759766
aa(lp6
S'state'
p7
aI0
aatp8
Rp9
.ccollections
OrderedDict
p0
((lp1
(lp2
S'timestamp'
p3
aF3.575153112411499
aa(lp4
S'distance'
p5
aF264.57450103759766
aa(lp6
S'state'
p7
aI0
aatp8
Rp9
.ccollections
OrderedDict
p0
((lp1
(lp2
S'timestamp'
p3
aF3.5847110748291016
aa(lp4
S'distance'
p5
aF264.57450103759766
aa(lp6
S'state'
p7
aI0
aatp8
Rp9
.ccollections
OrderedDict
p0
((lp1
(lp2
S'timestamp'
p3
aF3.585645914077759
aa(lp4
S'distance'
p5
aF264.57450103759766
aa(lp6
S'state'
p7
aI0
aatp8
Rp9
.ccollections
OrderedDict
p0
((lp1
(lp2
S'timestamp'
p3
aF3.594689130783081
aa(lp4
S'distance'
p5
aF264.57450103759766
aa(lp6
S'state'
p7
aI0
aatp8
Rp9
.ccollections
OrderedDict
p0
((lp1
(lp2
S'timestamp'
p3
aF3.5952229499816895
aa(lp4
S'distance'
p5
aF264.57450103759766
aa(lp6
S'state'
p7
aI0
aatp8
Rp9
.ccollections
OrderedDict
p0
((lp1
(lp2
S'timestamp'
p3
aF3.604694128036499
aa(lp4
S'distance'
p5
aF264.57450103759766
aa(lp6
S'state'
p7
aI0
aatp8
Rp9
.ccollections
OrderedDict
p0
((lp1
(lp2
S'timestamp'
p3
aF3.6051571369171143
aa(lp4
S'distance'
p5
aF264.57450103759766
aa(lp6
S'state'
p7
aI0
aatp8
Rp9
.ccollections
OrderedDict
p0
((lp1
(lp2
S'timestamp'
p3
aF3.6149160861968994
aa(lp4
S'distance'
p5
aF264.57450103759766
aa(lp6
S'state'
p7
aI0
aatp8
Rp9
.ccollections
OrderedDict
p0
((lp1
(lp2
S'timestamp'
p3
aF3.6155130863189697
aa(lp4
S'distance'
p5
aF264.57450103759766
aa(lp6
S'state'
p7
aI0
aatp8
Rp9
.ccollections
OrderedDict
p0
((lp1
(lp2
S'timestamp'
p3
aF3.6254889965057373
aa(lp4
S'distance'
p5
aF264.57450103759766
aa(lp6
S'state'
p7
aI0
aatp8
Rp9
.ccollections
OrderedDict
p0
((lp1
(lp2
S'timestamp'
p3
aF3.6256179809570312
aa(lp4
S'distance'
p5
aF264.57450103759766
aa(lp6
S'state'
p7
aI0
aatp8
Rp9
.ccollections
OrderedDict
p0
((lp1
(lp2
S'timestamp'
p3
aF3.63533091545105
aa(lp4
S'distance'
p5
aF264.57450103759766
aa(lp6
S'state'
p7
aI0
aatp8
Rp9
.ccollections
OrderedDict
p0
((lp1
(lp2
S'timestamp'
p3
aF3.6355209350585938
aa(lp4
S'distance'
p5
aF264.57450103759766
aa(lp6
S'state'
p7
aI0
aatp8
Rp9
.ccollections
OrderedDict
p0
((lp1
(lp2
S'timestamp'
p3
aF3.6448159217834473
aa(lp4
S'distance'
p5
aF264.57450103759766
aa(lp6
S'state'
p7
aI0
aatp8
Rp9
.ccollections
OrderedDict
p0
((lp1
(lp2
S'timestamp'
p3
aF3.645249128341675
aa(lp4
S'distance'
p5
aF264.57450103759766
aa(lp6
S'state'
p7
aI0
aatp8
Rp9
.ccollections
OrderedDict
p0
((lp1
(lp2
S'timestamp'
p3
aF3.6552369594573975
aa(lp4
S'distance'
p5
aF264.57450103759766
aa(lp6
S'state'
p7
aI0
aatp8
Rp9
.ccollections
OrderedDict
p0
((lp1
(lp2
S'timestamp'
p3
aF3.655869960784912
aa(lp4
S'distance'
p5
aF264.57450103759766
aa(lp6
S'state'
p7
aI0
aatp8
Rp9
.ccollections
OrderedDict
p0
((lp1
(lp2
S'timestamp'
p3
aF3.6647861003875732
aa(lp4
S'distance'
p5
aF264.57450103759766
aa(lp6
S'state'
p7
aI0
aatp8
Rp9
.ccollections
OrderedDict
p0
((lp1
(lp2
S'timestamp'
p3
aF3.6651809215545654
aa(lp4
S'distance'
p5
aF264.57450103759766
aa(lp6
S'state'
p7
aI0
aatp8
Rp9
.ccollections
OrderedDict
p0
((lp1
(lp2
S'timestamp'
p3
aF3.6748061180114746
aa(lp4
S'distance'
p5
aF264.57450103759766
aa(lp6
S'state'
p7
aI0
aatp8
Rp9
.ccollections
OrderedDict
p0
((lp1
(lp2
S'timestamp'
p3
aF3.675184965133667
aa(lp4
S'distance'
p5
aF264.57450103759766
aa(lp6
S'state'
p7
aI0
aatp8
Rp9
.ccollections
OrderedDict
p0
((lp1
(lp2
S'timestamp'
p3
aF3.6848180294036865
aa(lp4
S'distance'
p5
aF264.57450103759766
aa(lp6
S'state'
p7
aI0
aatp8
Rp9
.ccollections
OrderedDict
p0
((lp1
(lp2
S'timestamp'
p3
aF3.6852519512176514
aa(lp4
S'distance'
p5
aF264.57450103759766
aa(lp6
S'state'
p7
aI0
aatp8
Rp9
.ccollections
OrderedDict
p0
((lp1
(lp2
S'timestamp'
p3
aF3.6946969032287598
aa(lp4
S'distance'
p5
aF264.57450103759766
aa(lp6
S'state'
p7
aI0
aatp8
Rp9
.ccollections
OrderedDict
p0
((lp1
(lp2
S'timestamp'
p3
aF3.6951470375061035
aa(lp4
S'distance'
p5
aF264.57450103759766
aa(lp6
S'state'
p7
aI0
aatp8
Rp9
.ccollections
OrderedDict
p0
((lp1
(lp2
S'timestamp'
p3
aF3.704648971557617
aa(lp4
S'distance'
p5
aF264.57450103759766
aa(lp6
S'state'
p7
aI0
aatp8
Rp9
.ccollections
OrderedDict
p0
((lp1
(lp2
S'timestamp'
p3
aF3.705146074295044
aa(lp4
S'distance'
p5
aF264.57450103759766
aa(lp6
S'state'
p7
aI0
aatp8
Rp9
.ccollections
OrderedDict
p0
((lp1
(lp2
S'timestamp'
p3
aF3.715143918991089
aa(lp4
S'distance'
p5
aF264.57450103759766
aa(lp6
S'state'
p7
aI0
aatp8
Rp9
.ccollections
OrderedDict
p0
((lp1
(lp2
S'timestamp'
p3
aF3.7152609825134277
aa(lp4
S'distance'
p5
aF264.57450103759766
aa(lp6
S'state'
p7
aI0
aatp8
Rp9
.ccollections
OrderedDict
p0
((lp1
(lp2
S'timestamp'
p3
aF3.7252659797668457
aa(lp4
S'distance'
p5
aF264.57450103759766
aa(lp6
S'state'
p7
aI0
aatp8
Rp9
.ccollections
OrderedDict
p0
((lp1
(lp2
S'timestamp'
p3
aF3.725395917892456
aa(lp4
S'distance'
p5
aF264.57450103759766
aa(lp6
S'state'
p7
aI0
aatp8
Rp9
.ccollections
OrderedDict
p0
((lp1
(lp2
S'timestamp'
p3
aF3.734537124633789
aa(lp4
S'distance'
p5
aF264.57450103759766
aa(lp6
S'state'
p7
aI0
aatp8
Rp9
.ccollections
OrderedDict
p0
((lp1
(lp2
S'timestamp'
p3
aF3.7447140216827393
aa(lp4
S'distance'
p5
aF264.57450103759766
aa(lp6
S'state'
p7
aI0
aatp8
Rp9
.ccollections
OrderedDict
p0
((lp1
(lp2
S'timestamp'
p3
aF3.7451579570770264
aa(lp4
S'distance'
p5
aF264.57450103759766
aa(lp6
S'state'
p7
aI0
aatp8
Rp9
.ccollections
OrderedDict
p0
((lp1
(lp2
S'timestamp'
p3
aF3.7456679344177246
aa(lp4
S'distance'
p5
aF264.57450103759766
aa(lp6
S'state'
p7
aI0
aatp8
Rp9
.ccollections
OrderedDict
p0
((lp1
(lp2
S'timestamp'
p3
aF3.757033109664917
aa(lp4
S'distance'
p5
aF264.57450103759766
aa(lp6
S'state'
p7
aI0
aatp8
Rp9
.ccollections
OrderedDict
p0
((lp1
(lp2
S'timestamp'
p3
aF3.7588040828704834
aa(lp4
S'distance'
p5
aF264.57450103759766
aa(lp6
S'state'
p7
aI0
aatp8
Rp9
.ccollections
OrderedDict
p0
((lp1
(lp2
S'timestamp'
p3
aF3.764802932739258
aa(lp4
S'distance'
p5
aF264.57450103759766
aa(lp6
S'state'
p7
aI0
aatp8
Rp9
.ccollections
OrderedDict
p0
((lp1
(lp2
S'timestamp'
p3
aF3.766925096511841
aa(lp4
S'distance'
p5
aF264.57450103759766
aa(lp6
S'state'
p7
aI0
aatp8
Rp9
.ccollections
OrderedDict
p0
((lp1
(lp2
S'timestamp'
p3
aF3.774984121322632
aa(lp4
S'distance'
p5
aF264.57450103759766
aa(lp6
S'state'
p7
aI0
aatp8
Rp9
.ccollections
OrderedDict
p0
((lp1
(lp2
S'timestamp'
p3
aF3.775218963623047
aa(lp4
S'distance'
p5
aF264.57450103759766
aa(lp6
S'state'
p7
aI0
aatp8
Rp9
.ccollections
OrderedDict
p0
((lp1
(lp2
S'timestamp'
p3
aF3.784588098526001
aa(lp4
S'distance'
p5
aF264.57450103759766
aa(lp6
S'state'
p7
aI0
aatp8
Rp9
.ccollections
OrderedDict
p0
((lp1
(lp2
S'timestamp'
p3
aF3.78528094291687
aa(lp4
S'distance'
p5
aF264.57450103759766
aa(lp6
S'state'
p7
aI0
aatp8
Rp9
.ccollections
OrderedDict
p0
((lp1
(lp2
S'timestamp'
p3
aF3.794930934906006
aa(lp4
S'distance'
p5
aF264.57450103759766
aa(lp6
S'state'
p7
aI0
aatp8
Rp9
.ccollections
OrderedDict
p0
((lp1
(lp2
S'timestamp'
p3
aF3.79510498046875
aa(lp4
S'distance'
p5
aF264.57450103759766
aa(lp6
S'state'
p7
aI0
aatp8
Rp9
.ccollections
OrderedDict
p0
((lp1
(lp2
S'timestamp'
p3
aF3.8048970699310303
aa(lp4
S'distance'
p5
aF264.57450103759766
aa(lp6
S'state'
p7
aI0
aatp8
Rp9
.ccollections
OrderedDict
p0
((lp1
(lp2
S'timestamp'
p3
aF3.806097984313965
aa(lp4
S'distance'
p5
aF264.57450103759766
aa(lp6
S'state'
p7
aI0
aatp8
Rp9
.ccollections
OrderedDict
p0
((lp1
(lp2
S'timestamp'
p3
aF3.8255231380462646
aa(lp4
S'distance'
p5
aF264.57450103759766
aa(lp6
S'state'
p7
aI400
aatp8
Rp9
.ccollections
OrderedDict
p0
((lp1
(lp2
S'timestamp'
p3
aF3.8256659507751465
aa(lp4
S'distance'
p5
aF264.57450103759766
aa(lp6
S'state'
p7
aI400
aatp8
Rp9
.ccollections
OrderedDict
p0
((lp1
(lp2
S'timestamp'
p3
aF3.826237916946411
aa(lp4
S'distance'
p5
aF264.57450103759766
aa(lp6
S'state'
p7
aI400
aatp8
Rp9
.ccollections
OrderedDict
p0
((lp1
(lp2
S'timestamp'
p3
aF3.826694965362549
aa(lp4
S'distance'
p5
aF264.57450103759766
aa(lp6
S'state'
p7
aI400
aatp8
Rp9
.ccollections
OrderedDict
p0
((lp1
(lp2
S'timestamp'
p3
aF3.8347790241241455
aa(lp4
S'distance'
p5
aF264.57450103759766
aa(lp6
S'state'
p7
aI400
aatp8
Rp9
.ccollections
OrderedDict
p0
((lp1
(lp2
S'timestamp'
p3
aF3.835200071334839
aa(lp4
S'distance'
p5
aF264.57450103759766
aa(lp6
S'state'
p7
aI400
aatp8
Rp9
.ccollections
OrderedDict
p0
((lp1
(lp2
S'timestamp'
p3
aF3.8482589721679688
aa(lp4
S'distance'
p5
aF264.57450103759766
aa(lp6
S'state'
p7
aI400
aatp8
Rp9
.ccollections
OrderedDict
p0
((lp1
(lp2
S'timestamp'
p3
aF3.8489580154418945
aa(lp4
S'distance'
p5
aF264.57450103759766
aa(lp6
S'state'
p7
aI400
aatp8
Rp9
.ccollections
OrderedDict
p0
((lp1
(lp2
S'timestamp'
p3
aF3.8548600673675537
aa(lp4
S'distance'
p5
aF264.57450103759766
aa(lp6
S'state'
p7
aI400
aatp8
Rp9
.ccollections
OrderedDict
p0
((lp1
(lp2
S'timestamp'
p3
aF3.8556931018829346
aa(lp4
S'distance'
p5
aF264.57450103759766
aa(lp6
S'state'
p7
aI400
aatp8
Rp9
.ccollections
OrderedDict
p0
((lp1
(lp2
S'timestamp'
p3
aF3.8660199642181396
aa(lp4
S'distance'
p5
aF264.57450103759766
aa(lp6
S'state'
p7
aI400
aatp8
Rp9
.ccollections
OrderedDict
p0
((lp1
(lp2
S'timestamp'
p3
aF3.8672919273376465
aa(lp4
S'distance'
p5
aF264.57450103759766
aa(lp6
S'state'
p7
aI400
aatp8
Rp9
.ccollections
OrderedDict
p0
((lp1
(lp2
S'timestamp'
p3
aF3.874850034713745
aa(lp4
S'distance'
p5
aF264.57450103759766
aa(lp6
S'state'
p7
aI400
aatp8
Rp9
.ccollections
OrderedDict
p0
((lp1
(lp2
S'timestamp'
p3
aF3.875169038772583
aa(lp4
S'distance'
p5
aF264.57450103759766
aa(lp6
S'state'
p7
aI400
aatp8
Rp9
.ccollections
OrderedDict
p0
((lp1
(lp2
S'timestamp'
p3
aF3.885875940322876
aa(lp4
S'distance'
p5
aF264.57450103759766
aa(lp6
S'state'
p7
aI400
aatp8
Rp9
.ccollections
OrderedDict
p0
((lp1
(lp2
S'timestamp'
p3
aF3.8865060806274414
aa(lp4
S'distance'
p5
aF264.57450103759766
aa(lp6
S'state'
p7
aI400
aatp8
Rp9
.ccollections
OrderedDict
p0
((lp1
(lp2
S'timestamp'
p3
aF3.894659996032715
aa(lp4
S'distance'
p5
aF264.57450103759766
aa(lp6
S'state'
p7
aI400
aatp8
Rp9
.ccollections
OrderedDict
p0
((lp1
(lp2
S'timestamp'
p3
aF3.895169973373413
aa(lp4
S'distance'
p5
aF264.57450103759766
aa(lp6
S'state'
p7
aI400
aatp8
Rp9
.ccollections
OrderedDict
p0
((lp1
(lp2
S'timestamp'
p3
aF3.904813051223755
aa(lp4
S'distance'
p5
aF264.57450103759766
aa(lp6
S'state'
p7
aI400
aatp8
Rp9
.ccollections
OrderedDict
p0
((lp1
(lp2
S'timestamp'
p3
aF3.905261993408203
aa(lp4
S'distance'
p5
aF264.57450103759766
aa(lp6
S'state'
p7
aI400
aatp8
Rp9
.ccollections
OrderedDict
p0
((lp1
(lp2
S'timestamp'
p3
aF3.9145641326904297
aa(lp4
S'distance'
p5
aF264.57450103759766
aa(lp6
S'state'
p7
aI400
aatp8
Rp9
.ccollections
OrderedDict
p0
((lp1
(lp2
S'timestamp'
p3
aF3.9153149127960205
aa(lp4
S'distance'
p5
aF264.57450103759766
aa(lp6
S'state'
p7
aI400
aatp8
Rp9
.ccollections
OrderedDict
p0
((lp1
(lp2
S'timestamp'
p3
aF3.925316095352173
aa(lp4
S'distance'
p5
aF264.57450103759766
aa(lp6
S'state'
p7
aI400
aatp8
Rp9
.ccollections
OrderedDict
p0
((lp1
(lp2
S'timestamp'
p3
aF3.9253931045532227
aa(lp4
S'distance'
p5
aF264.57450103759766
aa(lp6
S'state'
p7
aI400
aatp8
Rp9
.ccollections
OrderedDict
p0
((lp1
(lp2
S'timestamp'
p3
aF3.9347620010375977
aa(lp4
S'distance'
p5
aF264.57450103759766
aa(lp6
S'state'
p7
aI400
aatp8
Rp9
.ccollections
OrderedDict
p0
((lp1
(lp2
S'timestamp'
p3
aF3.9352869987487793
aa(lp4
S'distance'
p5
aF264.57450103759766
aa(lp6
S'state'
p7
aI400
aatp8
Rp9
.ccollections
OrderedDict
p0
((lp1
(lp2
S'timestamp'
p3
aF3.9447879791259766
aa(lp4
S'distance'
p5
aF264.57450103759766
aa(lp6
S'state'
p7
aI400
aatp8
Rp9
.ccollections
OrderedDict
p0
((lp1
(lp2
S'timestamp'
p3
aF3.945128917694092
aa(lp4
S'distance'
p5
aF264.57450103759766
aa(lp6
S'state'
p7
aI400
aatp8
Rp9
.ccollections
OrderedDict
p0
((lp1
(lp2
S'timestamp'
p3
aF3.9548981189727783
aa(lp4
S'distance'
p5
aF264.57450103759766
aa(lp6
S'state'
p7
aI400
aatp8
Rp9
.ccollections
OrderedDict
p0
((lp1
(lp2
S'timestamp'
p3
aF3.9551970958709717
aa(lp4
S'distance'
p5
aF264.57450103759766
aa(lp6
S'state'
p7
aI400
aatp8
Rp9
.ccollections
OrderedDict
p0
((lp1
(lp2
S'timestamp'
p3
aF3.964682102203369
aa(lp4
S'distance'
p5
aF264.57450103759766
aa(lp6
S'state'
p7
aI400
aatp8
Rp9
.ccollections
OrderedDict
p0
((lp1
(lp2
S'timestamp'
p3
aF3.9652230739593506
aa(lp4
S'distance'
p5
aF264.57450103759766
aa(lp6
S'state'
p7
aI400
aatp8
Rp9
.ccollections
OrderedDict
p0
((lp1
(lp2
S'timestamp'
p3
aF3.9748589992523193
aa(lp4
S'distance'
p5
aF264.57450103759766
aa(lp6
S'state'
p7
aI400
aatp8
Rp9
.ccollections
OrderedDict
p0
((lp1
(lp2
S'timestamp'
p3
aF3.975209951400757
aa(lp4
S'distance'
p5
aF264.57450103759766
aa(lp6
S'state'
p7
aI400
aatp8
Rp9
.ccollections
OrderedDict
p0
((lp1
(lp2
S'timestamp'
p3
aF3.984622001647949
aa(lp4
S'distance'
p5
aF264.57450103759766
aa(lp6
S'state'
p7
aI400
aatp8
Rp9
.ccollections
OrderedDict
p0
((lp1
(lp2
S'timestamp'
p3
aF3.985374927520752
aa(lp4
S'distance'
p5
aF264.57450103759766
aa(lp6
S'state'
p7
aI400
aatp8
Rp9
.ccollections
OrderedDict
p0
((lp1
(lp2
S'timestamp'
p3
aF3.9949021339416504
aa(lp4
S'distance'
p5
aF264.57450103759766
aa(lp6
S'state'
p7
aI400
aatp8
Rp9
.ccollections
OrderedDict
p0
((lp1
(lp2
S'timestamp'
p3
aF3.9954419136047363
aa(lp4
S'distance'
p5
aF264.57450103759766
aa(lp6
S'state'
p7
aI400
aatp8
Rp9
.ccollections
OrderedDict
p0
((lp1
(lp2
S'timestamp'
p3
aF4.00469708442688
aa(lp4
S'distance'
p5
aF264.57450103759766
aa(lp6
S'state'
p7
aI400
aatp8
Rp9
.ccollections
OrderedDict
p0
((lp1
(lp2
S'timestamp'
p3
aF4.005188941955566
aa(lp4
S'distance'
p5
aF264.57450103759766
aa(lp6
S'state'
p7
aI400
aatp8
Rp9
.ccollections
OrderedDict
p0
((lp1
(lp2
S'timestamp'
p3
aF4.015046119689941
aa(lp4
S'distance'
p5
aF264.57450103759766
aa(lp6
S'state'
p7
aI400
aatp8
Rp9
.ccollections
OrderedDict
p0
((lp1
(lp2
S'timestamp'
p3
aF4.015140056610107
aa(lp4
S'distance'
p5
aF264.57450103759766
aa(lp6
S'state'
p7
aI400
aatp8
Rp9
.ccollections
OrderedDict
p0
((lp1
(lp2
S'timestamp'
p3
aF4.0250561237335205
aa(lp4
S'distance'
p5
aF264.57450103759766
aa(lp6
S'state'
p7
aI400
aatp8
Rp9
.ccollections
OrderedDict
p0
((lp1
(lp2
S'timestamp'
p3
aF4.0252509117126465
aa(lp4
S'distance'
p5
aF264.57450103759766
aa(lp6
S'state'
p7
aI400
aatp8
Rp9
.ccollections
OrderedDict
p0
((lp1
(lp2
S'timestamp'
p3
aF4.035701036453247
aa(lp4
S'distance'
p5
aF264.57450103759766
aa(lp6
S'state'
p7
aI400
aatp8
Rp9
.ccollections
OrderedDict
p0
((lp1
(lp2
S'timestamp'
p3
aF4.03577995300293
aa(lp4
S'distance'
p5
aF264.57450103759766
aa(lp6
S'state'
p7
aI400
aatp8
Rp9
.ccollections
OrderedDict
p0
((lp1
(lp2
S'timestamp'
p3
aF4.044795989990234
aa(lp4
S'distance'
p5
aF264.57450103759766
aa(lp6
S'state'
p7
aI400
aatp8
Rp9
.ccollections
OrderedDict
p0
((lp1
(lp2
S'timestamp'
p3
aF4.0456459522247314
aa(lp4
S'distance'
p5
aF264.57450103759766
aa(lp6
S'state'
p7
aI400
aatp8
Rp9
.ccollections
OrderedDict
p0
((lp1
(lp2
S'timestamp'
p3
aF4.054656982421875
aa(lp4
S'distance'
p5
aF264.57450103759766
aa(lp6
S'state'
p7
aI400
aatp8
Rp9
.ccollections
OrderedDict
p0
((lp1
(lp2
S'timestamp'
p3
aF4.055361986160278
aa(lp4
S'distance'
p5
aF264.57450103759766
aa(lp6
S'state'
p7
aI400
aatp8
Rp9
.ccollections
OrderedDict
p0
((lp1
(lp2
S'timestamp'
p3
aF4.064713001251221
aa(lp4
S'distance'
p5
aF264.57450103759766
aa(lp6
S'state'
p7
aI400
aatp8
Rp9
.ccollections
OrderedDict
p0
((lp1
(lp2
S'timestamp'
p3
aF4.065347909927368
aa(lp4
S'distance'
p5
aF264.57450103759766
aa(lp6
S'state'
p7
aI400
aatp8
Rp9
.ccollections
OrderedDict
p0
((lp1
(lp2
S'timestamp'
p3
aF4.074872970581055
aa(lp4
S'distance'
p5
aF264.57450103759766
aa(lp6
S'state'
p7
aI400
aatp8
Rp9
.ccollections
OrderedDict
p0
((lp1
(lp2
S'timestamp'
p3
aF4.07531213760376
aa(lp4
S'distance'
p5
aF264.57450103759766
aa(lp6
S'state'
p7
aI400
aatp8
Rp9
.ccollections
OrderedDict
p0
((lp1
(lp2
S'timestamp'
p3
aF4.085731029510498
aa(lp4
S'distance'
p5
aF264.57450103759766
aa(lp6
S'state'
p7
aI400
aatp8
Rp9
.ccollections
OrderedDict
p0
((lp1
(lp2
S'timestamp'
p3
aF4.086311101913452
aa(lp4
S'distance'
p5
aF264.57450103759766
aa(lp6
S'state'
p7
aI400
aatp8
Rp9
.ccollections
OrderedDict
p0
((lp1
(lp2
S'timestamp'
p3
aF4.094656944274902
aa(lp4
S'distance'
p5
aF264.57450103759766
aa(lp6
S'state'
p7
aI400
aatp8
Rp9
.ccollections
OrderedDict
p0
((lp1
(lp2
S'timestamp'
p3
aF4.095402956008911
aa(lp4
S'distance'
p5
aF264.57450103759766
aa(lp6
S'state'
p7
aI400
aatp8
Rp9
.ccollections
OrderedDict
p0
((lp1
(lp2
S'timestamp'
p3
aF4.104711055755615
aa(lp4
S'distance'
p5
aF264.57450103759766
aa(lp6
S'state'
p7
aI400
aatp8
Rp9
.ccollections
OrderedDict
p0
((lp1
(lp2
S'timestamp'
p3
aF4.105271100997925
aa(lp4
S'distance'
p5
aF264.57450103759766
aa(lp6
S'state'
p7
aI400
aatp8
Rp9
.ccollections
OrderedDict
p0
((lp1
(lp2
S'timestamp'
p3
aF4.114612102508545
aa(lp4
S'distance'
p5
aF264.57450103759766
aa(lp6
S'state'
p7
aI400
aatp8
Rp9
.ccollections
OrderedDict
p0
((lp1
(lp2
S'timestamp'
p3
aF4.115623950958252
aa(lp4
S'distance'
p5
aF264.57450103759766
aa(lp6
S'state'
p7
aI400
aatp8
Rp9
.ccollections
OrderedDict
p0
((lp1
(lp2
S'timestamp'
p3
aF4.124654054641724
aa(lp4
S'distance'
p5
aF264.57450103759766
aa(lp6
S'state'
p7
aI400
aatp8
Rp9
.ccollections
OrderedDict
p0
((lp1
(lp2
S'timestamp'
p3
aF4.125265121459961
aa(lp4
S'distance'
p5
aF264.57450103759766
aa(lp6
S'state'
p7
aI400
aatp8
Rp9
.ccollections
OrderedDict
p0
((lp1
(lp2
S'timestamp'
p3
aF4.13490104675293
aa(lp4
S'distance'
p5
aF264.57450103759766
aa(lp6
S'state'
p7
aI400
aatp8
Rp9
.ccollections
OrderedDict
p0
((lp1
(lp2
S'timestamp'
p3
aF4.135210037231445
aa(lp4
S'distance'
p5
aF264.57450103759766
aa(lp6
S'state'
p7
aI400
aatp8
Rp9
.ccollections
OrderedDict
p0
((lp1
(lp2
S'timestamp'
p3
aF4.144861936569214
aa(lp4
S'distance'
p5
aF264.57450103759766
aa(lp6
S'state'
p7
aI400
aatp8
Rp9
.ccollections
OrderedDict
p0
((lp1
(lp2
S'timestamp'
p3
aF4.145247936248779
aa(lp4
S'distance'
p5
aF264.57450103759766
aa(lp6
S'state'
p7
aI400
aatp8
Rp9
.ccollections
OrderedDict
p0
((lp1
(lp2
S'timestamp'
p3
aF4.1548449993133545
aa(lp4
S'distance'
p5
aF264.57450103759766
aa(lp6
S'state'
p7
aI400
aatp8
Rp9
.ccollections
OrderedDict
p0
((lp1
(lp2
S'timestamp'
p3
aF4.155292987823486
aa(lp4
S'distance'
p5
aF264.57450103759766
aa(lp6
S'state'
p7
aI400
aatp8
Rp9
.ccollections
OrderedDict
p0
((lp1
(lp2
S'timestamp'
p3
aF4.165513038635254
aa(lp4
S'distance'
p5
aF264.57450103759766
aa(lp6
S'state'
p7
aI400
aatp8
Rp9
.ccollections
OrderedDict
p0
((lp1
(lp2
S'timestamp'
p3
aF4.1656880378723145
aa(lp4
S'distance'
p5
aF264.57450103759766
aa(lp6
S'state'
p7
aI400
aatp8
Rp9
.ccollections
OrderedDict
p0
((lp1
(lp2
S'timestamp'
p3
aF4.174680948257446
aa(lp4
S'distance'
p5
aF264.57450103759766
aa(lp6
S'state'
p7
aI400
aatp8
Rp9
.ccollections
OrderedDict
p0
((lp1
(lp2
S'timestamp'
p3
aF4.175185918807983
aa(lp4
S'distance'
p5
aF264.57450103759766
aa(lp6
S'state'
p7
aI400
aatp8
Rp9
.ccollections
OrderedDict
p0
((lp1
(lp2
S'timestamp'
p3
aF4.184641122817993
aa(lp4
S'distance'
p5
aF264.57450103759766
aa(lp6
S'state'
p7
aI400
aatp8
Rp9
.ccollections
OrderedDict
p0
((lp1
(lp2
S'timestamp'
p3
aF4.185365915298462
aa(lp4
S'distance'
p5
aF264.57450103759766
aa(lp6
S'state'
p7
aI400
aatp8
Rp9
.ccollections
OrderedDict
p0
((lp1
(lp2
S'timestamp'
p3
aF4.195110082626343
aa(lp4
S'distance'
p5
aF264.57450103759766
aa(lp6
S'state'
p7
aI400
aatp8
Rp9
.ccollections
OrderedDict
p0
((lp1
(lp2
S'timestamp'
p3
aF4.195420980453491
aa(lp4
S'distance'
p5
aF264.57450103759766
aa(lp6
S'state'
p7
aI400
aatp8
Rp9
.ccollections
OrderedDict
p0
((lp1
(lp2
S'timestamp'
p3
aF4.204869985580444
aa(lp4
S'distance'
p5
aF264.57450103759766
aa(lp6
S'state'
p7
aI400
aatp8
Rp9
.ccollections
OrderedDict
p0
((lp1
(lp2
S'timestamp'
p3
aF4.205205917358398
aa(lp4
S'distance'
p5
aF264.57450103759766
aa(lp6
S'state'
p7
aI400
aatp8
Rp9
.ccollections
OrderedDict
p0
((lp1
(lp2
S'timestamp'
p3
aF4.21557092666626
aa(lp4
S'distance'
p5
aF264.57450103759766
aa(lp6
S'state'
p7
aI400
aatp8
Rp9
.ccollections
OrderedDict
p0
((lp1
(lp2
S'timestamp'
p3
aF4.215728998184204
aa(lp4
S'distance'
p5
aF264.57450103759766
aa(lp6
S'state'
p7
aI400
aatp8
Rp9
.ccollections
OrderedDict
p0
((lp1
(lp2
S'timestamp'
p3
aF4.225827932357788
aa(lp4
S'distance'
p5
aF264.57450103759766
aa(lp6
S'state'
p7
aI400
aatp8
Rp9
.ccollections
OrderedDict
p0
((lp1
(lp2
S'timestamp'
p3
aF4.225924015045166
aa(lp4
S'distance'
p5
aF264.57450103759766
aa(lp6
S'state'
p7
aI400
aatp8
Rp9
.ccollections
OrderedDict
p0
((lp1
(lp2
S'timestamp'
p3
aF4.235116004943848
aa(lp4
S'distance'
p5
aF264.57450103759766
aa(lp6
S'state'
p7
aI400
aatp8
Rp9
.ccollections
OrderedDict
p0
((lp1
(lp2
S'timestamp'
p3
aF4.236783981323242
aa(lp4
S'distance'
p5
aF264.57450103759766
aa(lp6
S'state'
p7
aI400
aatp8
Rp9
.ccollections
OrderedDict
p0
((lp1
(lp2
S'timestamp'
p3
aF4.244894981384277
aa(lp4
S'distance'
p5
aF264.57450103759766
aa(lp6
S'state'
p7
aI400
aatp8
Rp9
.ccollections
OrderedDict
p0
((lp1
(lp2
S'timestamp'
p3
aF4.2451441287994385
aa(lp4
S'distance'
p5
aF264.57450103759766
aa(lp6
S'state'
p7
aI400
aatp8
Rp9
.ccollections
OrderedDict
p0
((lp1
(lp2
S'timestamp'
p3
aF4.254710912704468
aa(lp4
S'distance'
p5
aF264.57450103759766
aa(lp6
S'state'
p7
aI400
aatp8
Rp9
.ccollections
OrderedDict
p0
((lp1
(lp2
S'timestamp'
p3
aF4.255239009857178
aa(lp4
S'distance'
p5
aF264.57450103759766
aa(lp6
S'state'
p7
aI400
aatp8
Rp9
.ccollections
OrderedDict
p0
((lp1
(lp2
S'timestamp'
p3
aF4.264693021774292
aa(lp4
S'distance'
p5
aF264.57450103759766
aa(lp6
S'state'
p7
aI400
aatp8
Rp9
.ccollections
OrderedDict
p0
((lp1
(lp2
S'timestamp'
p3
aF4.275085926055908
aa(lp4
S'distance'
p5
aF264.57450103759766
aa(lp6
S'state'
p7
aI400
aatp8
Rp9
.ccollections
OrderedDict
p0
((lp1
(lp2
S'timestamp'
p3
aF4.2751710414886475
aa(lp4
S'distance'
p5
aF264.57450103759766
aa(lp6
S'state'
p7
aI400
aatp8
Rp9
.ccollections
OrderedDict
p0
((lp1
(lp2
S'timestamp'
p3
aF4.278707027435303
aa(lp4
S'distance'
p5
aF264.57450103759766
aa(lp6
S'state'
p7
aI400
aatp8
Rp9
.ccollections
OrderedDict
p0
((lp1
(lp2
S'timestamp'
p3
aF4.285455942153931
aa(lp4
S'distance'
p5
aF264.57450103759766
aa(lp6
S'state'
p7
aI400
aatp8
Rp9
.ccollections
OrderedDict
p0
((lp1
(lp2
S'timestamp'
p3
aF4.285839080810547
aa(lp4
S'distance'
p5
aF264.57450103759766
aa(lp6
S'state'
p7
aI400
aatp8
Rp9
.ccollections
OrderedDict
p0
((lp1
(lp2
S'timestamp'
p3
aF4.294838905334473
aa(lp4
S'distance'
p5
aF264.57450103759766
aa(lp6
S'state'
p7
aI400
aatp8
Rp9
.ccollections
OrderedDict
p0
((lp1
(lp2
S'timestamp'
p3
aF4.295260906219482
aa(lp4
S'distance'
p5
aF264.57450103759766
aa(lp6
S'state'
p7
aI400
aatp8
Rp9
.ccollections
OrderedDict
p0
((lp1
(lp2
S'timestamp'
p3
aF4.305133104324341
aa(lp4
S'distance'
p5
aF264.57450103759766
aa(lp6
S'state'
p7
aI400
aatp8
Rp9
.ccollections
OrderedDict
p0
((lp1
(lp2
S'timestamp'
p3
aF4.305208921432495
aa(lp4
S'distance'
p5
aF264.57450103759766
aa(lp6
S'state'
p7
aI400
aatp8
Rp9
.ccollections
OrderedDict
p0
((lp1
(lp2
S'timestamp'
p3
aF4.314724922180176
aa(lp4
S'distance'
p5
aF264.57450103759766
aa(lp6
S'state'
p7
aI400
aatp8
Rp9
.ccollections
OrderedDict
p0
((lp1
(lp2
S'timestamp'
p3
aF4.315203905105591
aa(lp4
S'distance'
p5
aF264.57450103759766
aa(lp6
S'state'
p7
aI400
aatp8
Rp9
.ccollections
OrderedDict
p0
((lp1
(lp2
S'timestamp'
p3
aF4.325304985046387
aa(lp4
S'distance'
p5
aF264.57450103759766
aa(lp6
S'state'
p7
aI400
aatp8
Rp9
.ccollections
OrderedDict
p0
((lp1
(lp2
S'timestamp'
p3
aF4.325509071350098
aa(lp4
S'distance'
p5
aF264.57450103759766
aa(lp6
S'state'
p7
aI400
aatp8
Rp9
.ccollections
OrderedDict
p0
((lp1
(lp2
S'timestamp'
p3
aF4.334841966629028
aa(lp4
S'distance'
p5
aF264.57450103759766
aa(lp6
S'state'
p7
aI400
aatp8
Rp9
.ccollections
OrderedDict
p0
((lp1
(lp2
S'timestamp'
p3
aF4.335271120071411
aa(lp4
S'distance'
p5
aF264.57450103759766
aa(lp6
S'state'
p7
aI400
aatp8
Rp9
.ccollections
OrderedDict
p0
((lp1
(lp2
S'timestamp'
p3
aF4.344563007354736
aa(lp4
S'distance'
p5
aF264.57450103759766
aa(lp6
S'state'
p7
aI400
aatp8
Rp9
.ccollections
OrderedDict
p0
((lp1
(lp2
S'timestamp'
p3
aF4.345180034637451
aa(lp4
S'distance'
p5
aF264.57450103759766
aa(lp6
S'state'
p7
aI400
aatp8
Rp9
.ccollections
OrderedDict
p0
((lp1
(lp2
S'timestamp'
p3
aF4.3546741008758545
aa(lp4
S'distance'
p5
aF264.57450103759766
aa(lp6
S'state'
p7
aI400
aatp8
Rp9
.ccollections
OrderedDict
p0
((lp1
(lp2
S'timestamp'
p3
aF4.355319976806641
aa(lp4
S'distance'
p5
aF264.57450103759766
aa(lp6
S'state'
p7
aI400
aatp8
Rp9
.ccollections
OrderedDict
p0
((lp1
(lp2
S'timestamp'
p3
aF4.365160942077637
aa(lp4
S'distance'
p5
aF264.57450103759766
aa(lp6
S'state'
p7
aI400
aatp8
Rp9
.ccollections
OrderedDict
p0
((lp1
(lp2
S'timestamp'
p3
aF4.36523699760437
aa(lp4
S'distance'
p5
aF264.57450103759766
aa(lp6
S'state'
p7
aI400
aatp8
Rp9
.ccollections
OrderedDict
p0
((lp1
(lp2
S'timestamp'
p3
aF4.375287055969238
aa(lp4
S'distance'
p5
aF264.57450103759766
aa(lp6
S'state'
p7
aI400
aatp8
Rp9
.ccollections
OrderedDict
p0
((lp1
(lp2
S'timestamp'
p3
aF4.375366926193237
aa(lp4
S'distance'
p5
aF264.57450103759766
aa(lp6
S'state'
p7
aI400
aatp8
Rp9
.ccollections
OrderedDict
p0
((lp1
(lp2
S'timestamp'
p3
aF4.384690046310425
aa(lp4
S'distance'
p5
aF264.57450103759766
aa(lp6
S'state'
p7
aI400
aatp8
Rp9
.ccollections
OrderedDict
p0
((lp1
(lp2
S'timestamp'
p3
aF4.385262966156006
aa(lp4
S'distance'
p5
aF264.57450103759766
aa(lp6
S'state'
p7
aI400
aatp8
Rp9
.ccollections
OrderedDict
p0
((lp1
(lp2
S'timestamp'
p3
aF4.394666910171509
aa(lp4
S'distance'
p5
aF264.57450103759766
aa(lp6
S'state'
p7
aI400
aatp8
Rp9
.ccollections
OrderedDict
p0
((lp1
(lp2
S'timestamp'
p3
aF4.395462989807129
aa(lp4
S'distance'
p5
aF264.57450103759766
aa(lp6
S'state'
p7
aI400
aatp8
Rp9
.ccollections
OrderedDict
p0
((lp1
(lp2
S'timestamp'
p3
aF4.404681921005249
aa(lp4
S'distance'
p5
aF264.57450103759766
aa(lp6
S'state'
p7
aI400
aatp8
Rp9
.ccollections
OrderedDict
p0
((lp1
(lp2
S'timestamp'
p3
aF4.405194044113159
aa(lp4
S'distance'
p5
aF264.57450103759766
aa(lp6
S'state'
p7
aI400
aatp8
Rp9
.ccollections
OrderedDict
p0
((lp1
(lp2
S'timestamp'
p3
aF4.414988040924072
aa(lp4
S'distance'
p5
aF264.57450103759766
aa(lp6
S'state'
p7
aI400
aatp8
Rp9
.ccollections
OrderedDict
p0
((lp1
(lp2
S'timestamp'
p3
aF4.415621995925903
aa(lp4
S'distance'
p5
aF264.57450103759766
aa(lp6
S'state'
p7
aI400
aatp8
Rp9
.ccollections
OrderedDict
p0
((lp1
(lp2
S'timestamp'
p3
aF4.424864053726196
aa(lp4
S'distance'
p5
aF264.57450103759766
aa(lp6
S'state'
p7
aI400
aatp8
Rp9
.ccollections
OrderedDict
p0
((lp1
(lp2
S'timestamp'
p3
aF4.425677061080933
aa(lp4
S'distance'
p5
aF264.57450103759766
aa(lp6
S'state'
p7
aI400
aatp8
Rp9
.ccollections
OrderedDict
p0
((lp1
(lp2
S'timestamp'
p3
aF4.434629917144775
aa(lp4
S'distance'
p5
aF264.57450103759766
aa(lp6
S'state'
p7
aI400
aatp8
Rp9
.ccollections
OrderedDict
p0
((lp1
(lp2
S'timestamp'
p3
aF4.435532093048096
aa(lp4
S'distance'
p5
aF264.57450103759766
aa(lp6
S'state'
p7
aI400
aatp8
Rp9
.ccollections
OrderedDict
p0
((lp1
(lp2
S'timestamp'
p3
aF4.4447081089019775
aa(lp4
S'distance'
p5
aF264.57450103759766
aa(lp6
S'state'
p7
aI400
aatp8
Rp9
.ccollections
OrderedDict
p0
((lp1
(lp2
S'timestamp'
p3
aF4.4454240798950195
aa(lp4
S'distance'
p5
aF264.57450103759766
aa(lp6
S'state'
p7
aI400
aatp8
Rp9
.ccollections
OrderedDict
p0
((lp1
(lp2
S'timestamp'
p3
aF4.455027103424072
aa(lp4
S'distance'
p5
aF264.57450103759766
aa(lp6
S'state'
p7
aI400
aatp8
Rp9
.ccollections
OrderedDict
p0
((lp1
(lp2
S'timestamp'
p3
aF4.455150127410889
aa(lp4
S'distance'
p5
aF264.57450103759766
aa(lp6
S'state'
p7
aI400
aatp8
Rp9
.ccollections
OrderedDict
p0
((lp1
(lp2
S'timestamp'
p3
aF4.474617004394531
aa(lp4
S'distance'
p5
aF264.57450103759766
aa(lp6
S'state'
p7
aI400
aatp8
Rp9
.ccollections
OrderedDict
p0
((lp1
(lp2
S'timestamp'
p3
aF4.475100994110107
aa(lp4
S'distance'
p5
aF264.57450103759766
aa(lp6
S'state'
p7
aI400
aatp8
Rp9
.ccollections
OrderedDict
p0
((lp1
(lp2
S'timestamp'
p3
aF4.477440118789673
aa(lp4
S'distance'
p5
aF264.57450103759766
aa(lp6
S'state'
p7
aI400
aatp8
Rp9
.ccollections
OrderedDict
p0
((lp1
(lp2
S'timestamp'
p3
aF4.47789192199707
aa(lp4
S'distance'
p5
aF264.57450103759766
aa(lp6
S'state'
p7
aI400
aatp8
Rp9
.ccollections
OrderedDict
p0
((lp1
(lp2
S'timestamp'
p3
aF4.484602928161621
aa(lp4
S'distance'
p5
aF264.57450103759766
aa(lp6
S'state'
p7
aI400
aatp8
Rp9
.ccollections
OrderedDict
p0
((lp1
(lp2
S'timestamp'
p3
aF4.485443115234375
aa(lp4
S'distance'
p5
aF264.57450103759766
aa(lp6
S'state'
p7
aI400
aatp8
Rp9
.ccollections
OrderedDict
p0
((lp1
(lp2
S'timestamp'
p3
aF4.494874954223633
aa(lp4
S'distance'
p5
aF264.57450103759766
aa(lp6
S'state'
p7
aI400
aatp8
Rp9
.ccollections
OrderedDict
p0
((lp1
(lp2
S'timestamp'
p3
aF4.4952521324157715
aa(lp4
S'distance'
p5
aF264.57450103759766
aa(lp6
S'state'
p7
aI400
aatp8
Rp9
.ccollections
OrderedDict
p0
((lp1
(lp2
S'timestamp'
p3
aF4.504785060882568
aa(lp4
S'distance'
p5
aF264.57450103759766
aa(lp6
S'state'
p7
aI400
aatp8
Rp9
.ccollections
OrderedDict
p0
((lp1
(lp2
S'timestamp'
p3
aF4.5052080154418945
aa(lp4
S'distance'
p5
aF264.57450103759766
aa(lp6
S'state'
p7
aI400
aatp8
Rp9
.ccollections
OrderedDict
p0
((lp1
(lp2
S'timestamp'
p3
aF4.5148680210113525
aa(lp4
S'distance'
p5
aF264.57450103759766
aa(lp6
S'state'
p7
aI400
aatp8
Rp9
.ccollections
OrderedDict
p0
((lp1
(lp2
S'timestamp'
p3
aF4.515278100967407
aa(lp4
S'distance'
p5
aF264.57450103759766
aa(lp6
S'state'
p7
aI400
aatp8
Rp9
.ccollections
OrderedDict
p0
((lp1
(lp2
S'timestamp'
p3
aF4.524744987487793
aa(lp4
S'distance'
p5
aF264.57450103759766
aa(lp6
S'state'
p7
aI400
aatp8
Rp9
.ccollections
OrderedDict
p0
((lp1
(lp2
S'timestamp'
p3
aF4.525305986404419
aa(lp4
S'distance'
p5
aF264.57450103759766
aa(lp6
S'state'
p7
aI400
aatp8
Rp9
.ccollections
OrderedDict
p0
((lp1
(lp2
S'timestamp'
p3
aF4.535143136978149
aa(lp4
S'distance'
p5
aF264.57450103759766
aa(lp6
S'state'
p7
aI400
aatp8
Rp9
.ccollections
OrderedDict
p0
((lp1
(lp2
S'timestamp'
p3
aF4.535249948501587
aa(lp4
S'distance'
p5
aF264.57450103759766
aa(lp6
S'state'
p7
aI400
aatp8
Rp9
.ccollections
OrderedDict
p0
((lp1
(lp2
S'timestamp'
p3
aF4.5450451374053955
aa(lp4
S'distance'
p5
aF264.57450103759766
aa(lp6
S'state'
p7
aI0
aatp8
Rp9
.ccollections
OrderedDict
p0
((lp1
(lp2
S'timestamp'
p3
aF5.135283946990967
aa(lp4
S'distance'
p5
aF166.72654342651367
aa(lp6
S'state'
p7
aI0
aatp8
Rp9
.ccollections
OrderedDict
p0
((lp1
(lp2
S'timestamp'
p3
aF5.145040988922119
aa(lp4
S'distance'
p5
aF166.72654342651367
aa(lp6
S'state'
p7
aI0
aatp8
Rp9
.ccollections
OrderedDict
p0
((lp1
(lp2
S'timestamp'
p3
aF5.155349016189575
aa(lp4
S'distance'
p5
aF166.72654342651367
aa(lp6
S'state'
p7
aI0
aatp8
Rp9
.ccollections
OrderedDict
p0
((lp1
(lp2
S'timestamp'
p3
aF5.1560399532318115
aa(lp4
S'distance'
p5
aF166.72654342651367
aa(lp6
S'state'
p7
aI0
aatp8
Rp9
.ccollections
OrderedDict
p0
((lp1
(lp2
S'timestamp'
p3
aF5.15680193901062
aa(lp4
S'distance'
p5
aF166.72654342651367
aa(lp6
S'state'
p7
aI0
aatp8
Rp9
.ccollections
OrderedDict
p0
((lp1
(lp2
S'timestamp'
p3
aF5.166556119918823
aa(lp4
S'distance'
p5
aF166.72654342651367
aa(lp6
S'state'
p7
aI0
aatp8
Rp9
.ccollections
OrderedDict
p0
((lp1
(lp2
S'timestamp'
p3
aF5.16675591468811
aa(lp4
S'distance'
p5
aF166.72654342651367
aa(lp6
S'state'
p7
aI0
aatp8
Rp9
.ccollections
OrderedDict
p0
((lp1
(lp2
S'timestamp'
p3
aF5.174614906311035
aa(lp4
S'distance'
p5
aF166.72654342651367
aa(lp6
S'state'
p7
aI0
aatp8
Rp9
.ccollections
OrderedDict
p0
((lp1
(lp2
S'timestamp'
p3
aF5.175328969955444
aa(lp4
S'distance'
p5
aF166.72654342651367
aa(lp6
S'state'
p7
aI0
aatp8
Rp9
.ccollections
OrderedDict
p0
((lp1
(lp2
S'timestamp'
p3
aF5.187283039093018
aa(lp4
S'distance'
p5
aF166.72654342651367
aa(lp6
S'state'
p7
aI0
aatp8
Rp9
.ccollections
OrderedDict
p0
((lp1
(lp2
S'timestamp'
p3
aF5.1873579025268555
aa(lp4
S'distance'
p5
aF166.72654342651367
aa(lp6
S'state'
p7
aI0
aatp8
Rp9
.ccollections
OrderedDict
p0
((lp1
(lp2
S'timestamp'
p3
aF5.205024003982544
aa(lp4
S'distance'
p5
aF166.72654342651367
aa(lp6
S'state'
p7
aI0
aatp8
Rp9
.ccollections
OrderedDict
p0
((lp1
(lp2
S'timestamp'
p3
aF5.2051050662994385
aa(lp4
S'distance'
p5
aF166.72654342651367
aa(lp6
S'state'
p7
aI0
aatp8
Rp9
.ccollections
OrderedDict
p0
((lp1
(lp2
S'timestamp'
p3
aF5.206350088119507
aa(lp4
S'distance'
p5
aF166.72654342651367
aa(lp6
S'state'
p7
aI0
aatp8
Rp9
.ccollections
OrderedDict
p0
((lp1
(lp2
S'timestamp'
p3
aF5.207273960113525
aa(lp4
S'distance'
p5
aF166.72654342651367
aa(lp6
S'state'
p7
aI0
aatp8
Rp9
.ccollections
OrderedDict
p0
((lp1
(lp2
S'timestamp'
p3
aF5.279315948486328
aa(lp4
S'distance'
p5
aF166.72654342651367
aa(lp6
S'state'
p7
aI0
aatp8
Rp9
.ccollections
OrderedDict
p0
((lp1
(lp2
S'timestamp'
p3
aF5.279475927352905
aa(lp4
S'distance'
p5
aF166.72654342651367
aa(lp6
S'state'
p7
aI0
aatp8
Rp9
.ccollections
OrderedDict
p0
((lp1
(lp2
S'timestamp'
p3
aF5.279621124267578
aa(lp4
S'distance'
p5
aF166.72654342651367
aa(lp6
S'state'
p7
aI0
aatp8
Rp9
.ccollections
OrderedDict
p0
((lp1
(lp2
S'timestamp'
p3
aF5.281661033630371
aa(lp4
S'distance'
p5
aF166.72654342651367
aa(lp6
S'state'
p7
aI0
aatp8
Rp9
.ccollections
OrderedDict
p0
((lp1
(lp2
S'timestamp'
p3
aF5.283945083618164
aa(lp4
S'distance'
p5
aF166.72654342651367
aa(lp6
S'state'
p7
aI0
aatp8
Rp9
.ccollections
OrderedDict
p0
((lp1
(lp2
S'timestamp'
p3
aF5.284584045410156
aa(lp4
S'distance'
p5
aF166.72654342651367
aa(lp6
S'state'
p7
aI0
aatp8
Rp9
.ccollections
OrderedDict
p0
((lp1
(lp2
S'timestamp'
p3
aF5.284743070602417
aa(lp4
S'distance'
p5
aF166.72654342651367
aa(lp6
S'state'
p7
aI0
aatp8
Rp9
.ccollections
OrderedDict
p0
((lp1
(lp2
S'timestamp'
p3
aF5.285059928894043
aa(lp4
S'distance'
p5
aF166.72654342651367
aa(lp6
S'state'
p7
aI0
aatp8
Rp9
.ccollections
OrderedDict
p0
((lp1
(lp2
S'timestamp'
p3
aF5.2852089405059814
aa(lp4
S'distance'
p5
aF166.72654342651367
aa(lp6
S'state'
p7
aI0
aatp8
Rp9
.ccollections
OrderedDict
p0
((lp1
(lp2
S'timestamp'
p3
aF5.285310983657837
aa(lp4
S'distance'
p5
aF166.72654342651367
aa(lp6
S'state'
p7
aI0
aatp8
Rp9
.ccollections
OrderedDict
p0
((lp1
(lp2
S'timestamp'
p3
aF5.285433053970337
aa(lp4
S'distance'
p5
aF166.72654342651367
aa(lp6
S'state'
p7
aI0
aatp8
Rp9
.ccollections
OrderedDict
p0
((lp1
(lp2
S'timestamp'
p3
aF5.28589391708374
aa(lp4
S'distance'
p5
aF166.72654342651367
aa(lp6
S'state'
p7
aI0
aatp8
Rp9
.ccollections
OrderedDict
p0
((lp1
(lp2
S'timestamp'
p3
aF5.286082029342651
aa(lp4
S'distance'
p5
aF166.72654342651367
aa(lp6
S'state'
p7
aI0
aatp8
Rp9
.ccollections
OrderedDict
p0
((lp1
(lp2
S'timestamp'
p3
aF5.289386034011841
aa(lp4
S'distance'
p5
aF166.72654342651367
aa(lp6
S'state'
p7
aI0
aatp8
Rp9
.ccollections
OrderedDict
p0
((lp1
(lp2
S'timestamp'
p3
aF5.289936065673828
aa(lp4
S'distance'
p5
aF166.72654342651367
aa(lp6
S'state'
p7
aI0
aatp8
Rp9
.ccollections
OrderedDict
p0
((lp1
(lp2
S'timestamp'
p3
aF5.290818929672241
aa(lp4
S'distance'
p5
aF166.72654342651367
aa(lp6
S'state'
p7
aI0
aatp8
Rp9
.ccollections
OrderedDict
p0
((lp1
(lp2
S'timestamp'
p3
aF5.305656909942627
aa(lp4
S'distance'
p5
aF166.72654342651367
aa(lp6
S'state'
p7
aI0
aatp8
Rp9
.ccollections
OrderedDict
p0
((lp1
(lp2
S'timestamp'
p3
aF5.3058531284332275
aa(lp4
S'distance'
p5
aF166.72654342651367
aa(lp6
S'state'
p7
aI0
aatp8
Rp9
.ccollections
OrderedDict
p0
((lp1
(lp2
S'timestamp'
p3
aF5.306049108505249
aa(lp4
S'distance'
p5
aF166.72654342651367
aa(lp6
S'state'
p7
aI0
aatp8
Rp9
.ccollections
OrderedDict
p0
((lp1
(lp2
S'timestamp'
p3
aF5.306317090988159
aa(lp4
S'distance'
p5
aF166.72654342651367
aa(lp6
S'state'
p7
aI0
aatp8
Rp9
.ccollections
OrderedDict
p0
((lp1
(lp2
S'timestamp'
p3
aF5.334759950637817
aa(lp4
S'distance'
p5
aF166.72654342651367
aa(lp6
S'state'
p7
aI0
aatp8
Rp9
.ccollections
OrderedDict
p0
((lp1
(lp2
S'timestamp'
p3
aF5.335379123687744
aa(lp4
S'distance'
p5
aF166.72654342651367
aa(lp6
S'state'
p7
aI0
aatp8
Rp9
.ccollections
OrderedDict
p0
((lp1
(lp2
S'timestamp'
p3
aF5.345278024673462
aa(lp4
S'distance'
p5
aF166.72654342651367
aa(lp6
S'state'
p7
aI0
aatp8
Rp9
.ccollections
OrderedDict
p0
((lp1
(lp2
S'timestamp'
p3
aF5.34555196762085
aa(lp4
S'distance'
p5
aF166.72654342651367
aa(lp6
S'state'
p7
aI0
aatp8
Rp9
.ccollections
OrderedDict
p0
((lp1
(lp2
S'timestamp'
p3
aF5.345860958099365
aa(lp4
S'distance'
p5
aF166.72654342651367
aa(lp6
S'state'
p7
aI0
aatp8
Rp9
.ccollections
OrderedDict
p0
((lp1
(lp2
S'timestamp'
p3
aF5.346245050430298
aa(lp4
S'distance'
p5
aF166.72654342651367
aa(lp6
S'state'
p7
aI0
aatp8
Rp9
.ccollections
OrderedDict
p0
((lp1
(lp2
S'timestamp'
p3
aF5.354722023010254
aa(lp4
S'distance'
p5
aF166.72654342651367
aa(lp6
S'state'
p7
aI0
aatp8
Rp9
.ccollections
OrderedDict
p0
((lp1
(lp2
S'timestamp'
p3
aF5.355047941207886
aa(lp4
S'distance'
p5
aF166.72654342651367
aa(lp6
S'state'
p7
aI0
aatp8
Rp9
.ccollections
OrderedDict
p0
((lp1
(lp2
S'timestamp'
p3
aF5.355727910995483
aa(lp4
S'distance'
p5
aF166.72654342651367
aa(lp6
S'state'
p7
aI0
aatp8
Rp9
.ccollections
OrderedDict
p0
((lp1
(lp2
S'timestamp'
p3
aF5.35615611076355
aa(lp4
S'distance'
p5
aF166.72654342651367
aa(lp6
S'state'
p7
aI0
aatp8
Rp9
.ccollections
OrderedDict
p0
((lp1
(lp2
S'timestamp'
p3
aF5.365044116973877
aa(lp4
S'distance'
p5
aF166.72654342651367
aa(lp6
S'state'
p7
aI0
aatp8
Rp9
.ccollections
OrderedDict
p0
((lp1
(lp2
S'timestamp'
p3
aF5.365725040435791
aa(lp4
S'distance'
p5
aF166.72654342651367
aa(lp6
S'state'
p7
aI0
aatp8
Rp9
.ccollections
OrderedDict
p0
((lp1
(lp2
S'timestamp'
p3
aF5.374902009963989
aa(lp4
S'distance'
p5
aF166.72654342651367
aa(lp6
S'state'
p7
aI0
aatp8
Rp9
.ccollections
OrderedDict
p0
((lp1
(lp2
S'timestamp'
p3
aF5.3759379386901855
aa(lp4
S'distance'
p5
aF166.72654342651367
aa(lp6
S'state'
p7
aI0
aatp8
Rp9
.ccollections
OrderedDict
p0
((lp1
(lp2
S'timestamp'
p3
aF5.3850109577178955
aa(lp4
S'distance'
p5
aF166.72654342651367
aa(lp6
S'state'
p7
aI0
aatp8
Rp9
.ccollections
OrderedDict
p0
((lp1
(lp2
S'timestamp'
p3
aF5.385108947753906
aa(lp4
S'distance'
p5
aF166.72654342651367
aa(lp6
S'state'
p7
aI0
aatp8
Rp9
.ccollections
OrderedDict
p0
((lp1
(lp2
S'timestamp'
p3
aF5.39485502243042
aa(lp4
S'distance'
p5
aF166.72654342651367
aa(lp6
S'state'
p7
aI0
aatp8
Rp9
.ccollections
OrderedDict
p0
((lp1
(lp2
S'timestamp'
p3
aF5.395174026489258
aa(lp4
S'distance'
p5
aF166.72654342651367
aa(lp6
S'state'
p7
aI0
aatp8
Rp9
.ccollections
OrderedDict
p0
((lp1
(lp2
S'timestamp'
p3
aF5.404921054840088
aa(lp4
S'distance'
p5
aF166.72654342651367
aa(lp6
S'state'
p7
aI0
aatp8
Rp9
.ccollections
OrderedDict
p0
((lp1
(lp2
S'timestamp'
p3
aF5.405211925506592
aa(lp4
S'distance'
p5
aF166.72654342651367
aa(lp6
S'state'
p7
aI0
aatp8
Rp9
.ccollections
OrderedDict
p0
((lp1
(lp2
S'timestamp'
p3
aF5.414808988571167
aa(lp4
S'distance'
p5
aF166.72654342651367
aa(lp6
S'state'
p7
aI0
aatp8
Rp9
.ccollections
OrderedDict
p0
((lp1
(lp2
S'timestamp'
p3
aF5.415178060531616
aa(lp4
S'distance'
p5
aF166.72654342651367
aa(lp6
S'state'
p7
aI0
aatp8
Rp9
.ccollections
OrderedDict
p0
((lp1
(lp2
S'timestamp'
p3
aF5.425601005554199
aa(lp4
S'distance'
p5
aF166.72654342651367
aa(lp6
S'state'
p7
aI0
aatp8
Rp9
.ccollections
OrderedDict
p0
((lp1
(lp2
S'timestamp'
p3
aF5.425748109817505
aa(lp4
S'distance'
p5
aF166.72654342651367
aa(lp6
S'state'
p7
aI0
aatp8
Rp9
.ccollections
OrderedDict
p0
((lp1
(lp2
S'timestamp'
p3
aF5.435657978057861
aa(lp4
S'distance'
p5
aF166.72654342651367
aa(lp6
S'state'
p7
aI0
aatp8
Rp9
.ccollections
OrderedDict
p0
((lp1
(lp2
S'timestamp'
p3
aF5.436830043792725
aa(lp4
S'distance'
p5
aF166.72654342651367
aa(lp6
S'state'
p7
aI0
aatp8
Rp9
.ccollections
OrderedDict
p0
((lp1
(lp2
S'timestamp'
p3
aF5.445559978485107
aa(lp4
S'distance'
p5
aF166.72654342651367
aa(lp6
S'state'
p7
aI0
aatp8
Rp9
.ccollections
OrderedDict
p0
((lp1
(lp2
S'timestamp'
p3
aF5.445641994476318
aa(lp4
S'distance'
p5
aF166.72654342651367
aa(lp6
S'state'
p7
aI0
aatp8
Rp9
.ccollections
OrderedDict
p0
((lp1
(lp2
S'timestamp'
p3
aF5.45463490486145
aa(lp4
S'distance'
p5
aF166.72654342651367
aa(lp6
S'state'
p7
aI0
aatp8
Rp9
.ccollections
OrderedDict
p0
((lp1
(lp2
S'timestamp'
p3
aF5.455425024032593
aa(lp4
S'distance'
p5
aF166.72654342651367
aa(lp6
S'state'
p7
aI0
aatp8
Rp9
.ccollections
OrderedDict
p0
((lp1
(lp2
S'timestamp'
p3
aF5.464889049530029
aa(lp4
S'distance'
p5
aF166.72654342651367
aa(lp6
S'state'
p7
aI0
aatp8
Rp9
.ccollections
OrderedDict
p0
((lp1
(lp2
S'timestamp'
p3
aF5.465210914611816
aa(lp4
S'distance'
p5
aF166.72654342651367
aa(lp6
S'state'
p7
aI0
aatp8
Rp9
.ccollections
OrderedDict
p0
((lp1
(lp2
S'timestamp'
p3
aF5.475022077560425
aa(lp4
S'distance'
p5
aF166.72654342651367
aa(lp6
S'state'
p7
aI0
aatp8
Rp9
.ccollections
OrderedDict
p0
((lp1
(lp2
S'timestamp'
p3
aF5.475152969360352
aa(lp4
S'distance'
p5
aF166.72654342651367
aa(lp6
S'state'
p7
aI0
aatp8
Rp9
.ccollections
OrderedDict
p0
((lp1
(lp2
S'timestamp'
p3
aF5.485054016113281
aa(lp4
S'distance'
p5
aF166.72654342651367
aa(lp6
S'state'
p7
aI0
aatp8
Rp9
.ccollections
OrderedDict
p0
((lp1
(lp2
S'timestamp'
p3
aF5.485564947128296
aa(lp4
S'distance'
p5
aF166.72654342651367
aa(lp6
S'state'
p7
aI0
aatp8
Rp9
.ccollections
OrderedDict
p0
((lp1
(lp2
S'timestamp'
p3
aF5.495119094848633
aa(lp4
S'distance'
p5
aF166.72654342651367
aa(lp6
S'state'
p7
aI0
aatp8
Rp9
.ccollections
OrderedDict
p0
((lp1
(lp2
S'timestamp'
p3
aF5.495206117630005
aa(lp4
S'distance'
p5
aF166.72654342651367
aa(lp6
S'state'
p7
aI0
aatp8
Rp9
.ccollections
OrderedDict
p0
((lp1
(lp2
S'timestamp'
p3
aF5.504688024520874
aa(lp4
S'distance'
p5
aF166.72654342651367
aa(lp6
S'state'
p7
aI0
aatp8
Rp9
.ccollections
OrderedDict
p0
((lp1
(lp2
S'timestamp'
p3
aF5.50593900680542
aa(lp4
S'distance'
p5
aF166.72654342651367
aa(lp6
S'state'
p7
aI0
aatp8
Rp9
.ccollections
OrderedDict
p0
((lp1
(lp2
S'timestamp'
p3
aF5.514678955078125
aa(lp4
S'distance'
p5
aF166.72654342651367
aa(lp6
S'state'
p7
aI0
aatp8
Rp9
.ccollections
OrderedDict
p0
((lp1
(lp2
S'timestamp'
p3
aF5.515389919281006
aa(lp4
S'distance'
p5
aF166.72654342651367
aa(lp6
S'state'
p7
aI0
aatp8
Rp9
.ccollections
OrderedDict
p0
((lp1
(lp2
S'timestamp'
p3
aF5.524600982666016
aa(lp4
S'distance'
p5
aF166.72654342651367
aa(lp6
S'state'
p7
aI0
aatp8
Rp9
.ccollections
OrderedDict
p0
((lp1
(lp2
S'timestamp'
p3
aF5.525286912918091
aa(lp4
S'distance'
p5
aF166.72654342651367
aa(lp6
S'state'
p7
aI0
aatp8
Rp9
.ccollections
OrderedDict
p0
((lp1
(lp2
S'timestamp'
p3
aF5.5348100662231445
aa(lp4
S'distance'
p5
aF166.72654342651367
aa(lp6
S'state'
p7
aI0
aatp8
Rp9
.ccollections
OrderedDict
p0
((lp1
(lp2
S'timestamp'
p3
aF5.535161018371582
aa(lp4
S'distance'
p5
aF166.72654342651367
aa(lp6
S'state'
p7
aI0
aatp8
Rp9
.ccollections
OrderedDict
p0
((lp1
(lp2
S'timestamp'
p3
aF5.544703960418701
aa(lp4
S'distance'
p5
aF166.72654342651367
aa(lp6
S'state'
p7
aI0
aatp8
Rp9
.ccollections
OrderedDict
p0
((lp1
(lp2
S'timestamp'
p3
aF5.545284032821655
aa(lp4
S'distance'
p5
aF166.72654342651367
aa(lp6
S'state'
p7
aI0
aatp8
Rp9
.ccollections
OrderedDict
p0
((lp1
(lp2
S'timestamp'
p3
aF5.554814100265503
aa(lp4
S'distance'
p5
aF166.72654342651367
aa(lp6
S'state'
p7
aI0
aatp8
Rp9
.ccollections
OrderedDict
p0
((lp1
(lp2
S'timestamp'
p3
aF5.555330991744995
aa(lp4
S'distance'
p5
aF166.72654342651367
aa(lp6
S'state'
p7
aI0
aatp8
Rp9
.ccollections
OrderedDict
p0
((lp1
(lp2
S'timestamp'
p3
aF5.564964056015015
aa(lp4
S'distance'
p5
aF166.72654342651367
aa(lp6
S'state'
p7
aI0
aatp8
Rp9
.ccollections
OrderedDict
p0
((lp1
(lp2
S'timestamp'
p3
aF5.565752983093262
aa(lp4
S'distance'
p5
aF166.72654342651367
aa(lp6
S'state'
p7
aI0
aatp8
Rp9
.ccollections
OrderedDict
p0
((lp1
(lp2
S'timestamp'
p3
aF5.574991941452026
aa(lp4
S'distance'
p5
aF166.72654342651367
aa(lp6
S'state'
p7
aI0
aatp8
Rp9
.ccollections
OrderedDict
p0
((lp1
(lp2
S'timestamp'
p3
aF5.5751190185546875
aa(lp4
S'distance'
p5
aF166.72654342651367
aa(lp6
S'state'
p7
aI0
aatp8
Rp9
.ccollections
OrderedDict
p0
((lp1
(lp2
S'timestamp'
p3
aF5.584656000137329
aa(lp4
S'distance'
p5
aF166.72654342651367
aa(lp6
S'state'
p7
aI0
aatp8
Rp9
.ccollections
OrderedDict
p0
((lp1
(lp2
S'timestamp'
p3
aF5.585146903991699
aa(lp4
S'distance'
p5
aF166.72654342651367
aa(lp6
S'state'
p7
aI0
aatp8
Rp9
.ccollections
OrderedDict
p0
((lp1
(lp2
S'timestamp'
p3
aF5.595314979553223
aa(lp4
S'distance'
p5
aF166.72654342651367
aa(lp6
S'state'
p7
aI0
aatp8
Rp9
.ccollections
OrderedDict
p0
((lp1
(lp2
S'timestamp'
p3
aF5.595538139343262
aa(lp4
S'distance'
p5
aF166.72654342651367
aa(lp6
S'state'
p7
aI0
aatp8
Rp9
.ccollections
OrderedDict
p0
((lp1
(lp2
S'timestamp'
p3
aF5.604767084121704
aa(lp4
S'distance'
p5
aF166.72654342651367
aa(lp6
S'state'
p7
aI0
aatp8
Rp9
.ccollections
OrderedDict
p0
((lp1
(lp2
S'timestamp'
p3
aF5.605350017547607
aa(lp4
S'distance'
p5
aF166.72654342651367
aa(lp6
S'state'
p7
aI400
aatp8
Rp9
.ccollections
OrderedDict
p0
((lp1
(lp2
S'timestamp'
p3
aF5.61468505859375
aa(lp4
S'distance'
p5
aF166.72654342651367
aa(lp6
S'state'
p7
aI400
aatp8
Rp9
.ccollections
OrderedDict
p0
((lp1
(lp2
S'timestamp'
p3
aF5.615361928939819
aa(lp4
S'distance'
p5
aF166.72654342651367
aa(lp6
S'state'
p7
aI400
aatp8
Rp9
.ccollections
OrderedDict
p0
((lp1
(lp2
S'timestamp'
p3
aF5.635376930236816
aa(lp4
S'distance'
p5
aF166.72654342651367
aa(lp6
S'state'
p7
aI400
aatp8
Rp9
.ccollections
OrderedDict
p0
((lp1
(lp2
S'timestamp'
p3
aF5.636589050292969
aa(lp4
S'distance'
p5
aF166.72654342651367
aa(lp6
S'state'
p7
aI400
aatp8
Rp9
.ccollections
OrderedDict
p0
((lp1
(lp2
S'timestamp'
p3
aF5.637614965438843
aa(lp4
S'distance'
p5
aF166.72654342651367
aa(lp6
S'state'
p7
aI400
aatp8
Rp9
.ccollections
OrderedDict
p0
((lp1
(lp2
S'timestamp'
p3
aF5.640202045440674
aa(lp4
S'distance'
p5
aF166.72654342651367
aa(lp6
S'state'
p7
aI400
aatp8
Rp9
.ccollections
OrderedDict
p0
((lp1
(lp2
S'timestamp'
p3
aF5.644781112670898
aa(lp4
S'distance'
p5
aF166.72654342651367
aa(lp6
S'state'
p7
aI400
aatp8
Rp9
.ccollections
OrderedDict
p0
((lp1
(lp2
S'timestamp'
p3
aF5.645841121673584
aa(lp4
S'distance'
p5
aF166.72654342651367
aa(lp6
S'state'
p7
aI400
aatp8
Rp9
.ccollections
OrderedDict
p0
((lp1
(lp2
S'timestamp'
p3
aF5.655059099197388
aa(lp4
S'distance'
p5
aF166.72654342651367
aa(lp6
S'state'
p7
aI400
aatp8
Rp9
.ccollections
OrderedDict
p0
((lp1
(lp2
S'timestamp'
p3
aF5.655741930007935
aa(lp4
S'distance'
p5
aF166.72654342651367
aa(lp6
S'state'
p7
aI400
aatp8
Rp9
.ccollections
OrderedDict
p0
((lp1
(lp2
S'timestamp'
p3
aF5.6682820320129395
aa(lp4
S'distance'
p5
aF166.72654342651367
aa(lp6
S'state'
p7
aI400
aatp8
Rp9
.ccollections
OrderedDict
p0
((lp1
(lp2
S'timestamp'
p3
aF5.668972015380859
aa(lp4
S'distance'
p5
aF166.72654342651367
aa(lp6
S'state'
p7
aI400
aatp8
Rp9
.ccollections
OrderedDict
p0
((lp1
(lp2
S'timestamp'
p3
aF5.675904989242554
aa(lp4
S'distance'
p5
aF166.72654342651367
aa(lp6
S'state'
p7
aI400
aatp8
Rp9
.ccollections
OrderedDict
p0
((lp1
(lp2
S'timestamp'
p3
aF5.677571058273315
aa(lp4
S'distance'
p5
aF166.72654342651367
aa(lp6
S'state'
p7
aI400
aatp8
Rp9
.ccollections
OrderedDict
p0
((lp1
(lp2
S'timestamp'
p3
aF5.700609922409058
aa(lp4
S'distance'
p5
aF166.72654342651367
aa(lp6
S'state'
p7
aI400
aatp8
Rp9
.ccollections
OrderedDict
p0
((lp1
(lp2
S'timestamp'
p3
aF5.7007269859313965
aa(lp4
S'distance'
p5
aF166.72654342651367
aa(lp6
S'state'
p7
aI400
aatp8
Rp9
.ccollections
OrderedDict
p0
((lp1
(lp2
S'timestamp'
p3
aF5.700798034667969
aa(lp4
S'distance'
p5
aF166.72654342651367
aa(lp6
S'state'
p7
aI400
aatp8
Rp9
.ccollections
OrderedDict
p0
((lp1
(lp2
S'timestamp'
p3
aF5.7008631229400635
aa(lp4
S'distance'
p5
aF166.72654342651367
aa(lp6
S'state'
p7
aI400
aatp8
Rp9
.ccollections
OrderedDict
p0
((lp1
(lp2
S'timestamp'
p3
aF5.710096120834351
aa(lp4
S'distance'
p5
aF166.72654342651367
aa(lp6
S'state'
p7
aI400
aatp8
Rp9
.ccollections
OrderedDict
p0
((lp1
(lp2
S'timestamp'
p3
aF5.712445974349976
aa(lp4
S'distance'
p5
aF166.72654342651367
aa(lp6
S'state'
p7
aI400
aatp8
Rp9
.ccollections
OrderedDict
p0
((lp1
(lp2
S'timestamp'
p3
aF5.716538906097412
aa(lp4
S'distance'
p5
aF166.72654342651367
aa(lp6
S'state'
p7
aI400
aatp8
Rp9
.ccollections
OrderedDict
p0
((lp1
(lp2
S'timestamp'
p3
aF5.719183921813965
aa(lp4
S'distance'
p5
aF166.72654342651367
aa(lp6
S'state'
p7
aI400
aatp8
Rp9
.ccollections
OrderedDict
p0
((lp1
(lp2
S'timestamp'
p3
aF5.743492126464844
aa(lp4
S'distance'
p5
aF166.72654342651367
aa(lp6
S'state'
p7
aI400
aatp8
Rp9
.ccollections
OrderedDict
p0
((lp1
(lp2
S'timestamp'
p3
aF5.747980117797852
aa(lp4
S'distance'
p5
aF166.72654342651367
aa(lp6
S'state'
p7
aI400
aatp8
Rp9
.ccollections
OrderedDict
p0
((lp1
(lp2
S'timestamp'
p3
aF5.766695022583008
aa(lp4
S'distance'
p5
aF166.72654342651367
aa(lp6
S'state'
p7
aI400
aatp8
Rp9
.ccollections
OrderedDict
p0
((lp1
(lp2
S'timestamp'
p3
aF5.7693610191345215
aa(lp4
S'distance'
p5
aF166.72654342651367
aa(lp6
S'state'
p7
aI400
aatp8
Rp9
.ccollections
OrderedDict
p0
((lp1
(lp2
S'timestamp'
p3
aF5.774641036987305
aa(lp4
S'distance'
p5
aF166.72654342651367
aa(lp6
S'state'
p7
aI400
aatp8
Rp9
.ccollections
OrderedDict
p0
((lp1
(lp2
S'timestamp'
p3
aF5.7819459438323975
aa(lp4
S'distance'
p5
aF166.72654342651367
aa(lp6
S'state'
p7
aI400
aatp8
Rp9
.ccollections
OrderedDict
p0
((lp1
(lp2
S'timestamp'
p3
aF5.782032012939453
aa(lp4
S'distance'
p5
aF166.72654342651367
aa(lp6
S'state'
p7
aI400
aatp8
Rp9
.ccollections
OrderedDict
p0
((lp1
(lp2
S'timestamp'
p3
aF5.782102108001709
aa(lp4
S'distance'
p5
aF166.72654342651367
aa(lp6
S'state'
p7
aI400
aatp8
Rp9
.ccollections
OrderedDict
p0
((lp1
(lp2
S'timestamp'
p3
aF5.785222053527832
aa(lp4
S'distance'
p5
aF166.72654342651367
aa(lp6
S'state'
p7
aI400
aatp8
Rp9
.ccollections
OrderedDict
p0
((lp1
(lp2
S'timestamp'
p3
aF5.785308122634888
aa(lp4
S'distance'
p5
aF166.72654342651367
aa(lp6
S'state'
p7
aI400
aatp8
Rp9
.ccollections
OrderedDict
p0
((lp1
(lp2
S'timestamp'
p3
aF5.792558908462524
aa(lp4
S'distance'
p5
aF166.72654342651367
aa(lp6
S'state'
p7
aI400
aatp8
Rp9
.ccollections
OrderedDict
p0
((lp1
(lp2
S'timestamp'
p3
aF5.7927069664001465
aa(lp4
S'distance'
p5
aF166.72654342651367
aa(lp6
S'state'
p7
aI400
aatp8
Rp9
.ccollections
OrderedDict
p0
((lp1
(lp2
S'timestamp'
p3
aF5.7951390743255615
aa(lp4
S'distance'
p5
aF166.72654342651367
aa(lp6
S'state'
p7
aI400
aatp8
Rp9
.ccollections
OrderedDict
p0
((lp1
(lp2
S'timestamp'
p3
aF5.797148942947388
aa(lp4
S'distance'
p5
aF166.72654342651367
aa(lp6
S'state'
p7
aI400
aatp8
Rp9
.ccollections
OrderedDict
p0
((lp1
(lp2
S'timestamp'
p3
aF5.798911094665527
aa(lp4
S'distance'
p5
aF166.72654342651367
aa(lp6
S'state'
p7
aI400
aatp8
Rp9
.ccollections
OrderedDict
p0
((lp1
(lp2
S'timestamp'
p3
aF5.798990964889526
aa(lp4
S'distance'
p5
aF166.72654342651367
aa(lp6
S'state'
p7
aI400
aatp8
Rp9
.ccollections
OrderedDict
p0
((lp1
(lp2
S'timestamp'
p3
aF5.805249929428101
aa(lp4
S'distance'
p5
aF166.72654342651367
aa(lp6
S'state'
p7
aI400
aatp8
Rp9
.ccollections
OrderedDict
p0
((lp1
(lp2
S'timestamp'
p3
aF5.805329084396362
aa(lp4
S'distance'
p5
aF166.72654342651367
aa(lp6
S'state'
p7
aI400
aatp8
Rp9
.ccollections
OrderedDict
p0
((lp1
(lp2
S'timestamp'
p3
aF5.814880132675171
aa(lp4
S'distance'
p5
aF166.72654342651367
aa(lp6
S'state'
p7
aI400
aatp8
Rp9
.ccollections
OrderedDict
p0
((lp1
(lp2
S'timestamp'
p3
aF5.815583944320679
aa(lp4
S'distance'
p5
aF166.72654342651367
aa(lp6
S'state'
p7
aI400
aatp8
Rp9
.ccollections
OrderedDict
p0
((lp1
(lp2
S'timestamp'
p3
aF5.825232028961182
aa(lp4
S'distance'
p5
aF166.72654342651367
aa(lp6
S'state'
p7
aI400
aatp8
Rp9
.ccollections
OrderedDict
p0
((lp1
(lp2
S'timestamp'
p3
aF5.825354099273682
aa(lp4
S'distance'
p5
aF166.72654342651367
aa(lp6
S'state'
p7
aI400
aatp8
Rp9
.ccollections
OrderedDict
p0
((lp1
(lp2
S'timestamp'
p3
aF5.835602045059204
aa(lp4
S'distance'
p5
aF166.72654342651367
aa(lp6
S'state'
p7
aI400
aatp8
Rp9
.ccollections
OrderedDict
p0
((lp1
(lp2
S'timestamp'
p3
aF5.835721969604492
aa(lp4
S'distance'
p5
aF166.72654342651367
aa(lp6
S'state'
p7
aI400
aatp8
Rp9
.ccollections
OrderedDict
p0
((lp1
(lp2
S'timestamp'
p3
aF5.845468044281006
aa(lp4
S'distance'
p5
aF166.72654342651367
aa(lp6
S'state'
p7
aI400
aatp8
Rp9
.ccollections
OrderedDict
p0
((lp1
(lp2
S'timestamp'
p3
aF5.846056938171387
aa(lp4
S'distance'
p5
aF166.72654342651367
aa(lp6
S'state'
p7
aI400
aatp8
Rp9
.ccollections
OrderedDict
p0
((lp1
(lp2
S'timestamp'
p3
aF5.856260061264038
aa(lp4
S'distance'
p5
aF166.72654342651367
aa(lp6
S'state'
p7
aI400
aatp8
Rp9
.ccollections
OrderedDict
p0
((lp1
(lp2
S'timestamp'
p3
aF5.8566200733184814
aa(lp4
S'distance'
p5
aF166.72654342651367
aa(lp6
S'state'
p7
aI400
aatp8
Rp9
.ccollections
OrderedDict
p0
((lp1
(lp2
S'timestamp'
p3
aF5.865592956542969
aa(lp4
S'distance'
p5
aF166.72654342651367
aa(lp6
S'state'
p7
aI400
aatp8
Rp9
.ccollections
OrderedDict
p0
((lp1
(lp2
S'timestamp'
p3
aF5.8658061027526855
aa(lp4
S'distance'
p5
aF166.72654342651367
aa(lp6
S'state'
p7
aI400
aatp8
Rp9
.ccollections
OrderedDict
p0
((lp1
(lp2
S'timestamp'
p3
aF5.874680042266846
aa(lp4
S'distance'
p5
aF166.72654342651367
aa(lp6
S'state'
p7
aI400
aatp8
Rp9
.ccollections
OrderedDict
p0
((lp1
(lp2
S'timestamp'
p3
aF5.875314950942993
aa(lp4
S'distance'
p5
aF166.72654342651367
aa(lp6
S'state'
p7
aI400
aatp8
Rp9
.ccollections
OrderedDict
p0
((lp1
(lp2
S'timestamp'
p3
aF5.884745121002197
aa(lp4
S'distance'
p5
aF166.72654342651367
aa(lp6
S'state'
p7
aI400
aatp8
Rp9
.ccollections
OrderedDict
p0
((lp1
(lp2
S'timestamp'
p3
aF5.887743949890137
aa(lp4
S'distance'
p5
aF166.72654342651367
aa(lp6
S'state'
p7
aI400
aatp8
Rp9
.ccollections
OrderedDict
p0
((lp1
(lp2
S'timestamp'
p3
aF5.894685983657837
aa(lp4
S'distance'
p5
aF166.72654342651367
aa(lp6
S'state'
p7
aI400
aatp8
Rp9
.ccollections
OrderedDict
p0
((lp1
(lp2
S'timestamp'
p3
aF5.895205020904541
aa(lp4
S'distance'
p5
aF166.72654342651367
aa(lp6
S'state'
p7
aI400
aatp8
Rp9
.ccollections
OrderedDict
p0
((lp1
(lp2
S'timestamp'
p3
aF5.904829025268555
aa(lp4
S'distance'
p5
aF166.72654342651367
aa(lp6
S'state'
p7
aI400
aatp8
Rp9
.ccollections
OrderedDict
p0
((lp1
(lp2
S'timestamp'
p3
aF5.9052441120147705
aa(lp4
S'distance'
p5
aF166.72654342651367
aa(lp6
S'state'
p7
aI400
aatp8
Rp9
.ccollections
OrderedDict
p0
((lp1
(lp2
S'timestamp'
p3
aF5.91469407081604
aa(lp4
S'distance'
p5
aF166.72654342651367
aa(lp6
S'state'
p7
aI400
aatp8
Rp9
.ccollections
OrderedDict
p0
((lp1
(lp2
S'timestamp'
p3
aF5.915592908859253
aa(lp4
S'distance'
p5
aF166.72654342651367
aa(lp6
S'state'
p7
aI400
aatp8
Rp9
.ccollections
OrderedDict
p0
((lp1
(lp2
S'timestamp'
p3
aF5.925144910812378
aa(lp4
S'distance'
p5
aF166.72654342651367
aa(lp6
S'state'
p7
aI400
aatp8
Rp9
.ccollections
OrderedDict
p0
((lp1
(lp2
S'timestamp'
p3
aF5.925240993499756
aa(lp4
S'distance'
p5
aF166.72654342651367
aa(lp6
S'state'
p7
aI400
aatp8
Rp9
.ccollections
OrderedDict
p0
((lp1
(lp2
S'timestamp'
p3
aF5.9347310066223145
aa(lp4
S'distance'
p5
aF166.72654342651367
aa(lp6
S'state'
p7
aI400
aatp8
Rp9
.ccollections
OrderedDict
p0
((lp1
(lp2
S'timestamp'
p3
aF5.935276031494141
aa(lp4
S'distance'
p5
aF166.72654342651367
aa(lp6
S'state'
p7
aI400
aatp8
Rp9
.ccollections
OrderedDict
p0
((lp1
(lp2
S'timestamp'
p3
aF5.944642066955566
aa(lp4
S'distance'
p5
aF166.72654342651367
aa(lp6
S'state'
p7
aI400
aatp8
Rp9
.ccollections
OrderedDict
p0
((lp1
(lp2
S'timestamp'
p3
aF5.9452409744262695
aa(lp4
S'distance'
p5
aF166.72654342651367
aa(lp6
S'state'
p7
aI400
aatp8
Rp9
.ccollections
OrderedDict
p0
((lp1
(lp2
S'timestamp'
p3
aF5.955243110656738
aa(lp4
S'distance'
p5
aF166.72654342651367
aa(lp6
S'state'
p7
aI400
aatp8
Rp9
.ccollections
OrderedDict
p0
((lp1
(lp2
S'timestamp'
p3
aF5.9553210735321045
aa(lp4
S'distance'
p5
aF166.72654342651367
aa(lp6
S'state'
p7
aI400
aatp8
Rp9
.ccollections
OrderedDict
p0
((lp1
(lp2
S'timestamp'
p3
aF5.964709043502808
aa(lp4
S'distance'
p5
aF166.72654342651367
aa(lp6
S'state'
p7
aI400
aatp8
Rp9
.ccollections
OrderedDict
p0
((lp1
(lp2
S'timestamp'
p3
aF5.96520209312439
aa(lp4
S'distance'
p5
aF166.72654342651367
aa(lp6
S'state'
p7
aI400
aatp8
Rp9
.ccollections
OrderedDict
p0
((lp1
(lp2
S'timestamp'
p3
aF5.974743127822876
aa(lp4
S'distance'
p5
aF166.72654342651367
aa(lp6
S'state'
p7
aI400
aatp8
Rp9
.ccollections
OrderedDict
p0
((lp1
(lp2
S'timestamp'
p3
aF5.975649118423462
aa(lp4
S'distance'
p5
aF166.72654342651367
aa(lp6
S'state'
p7
aI400
aatp8
Rp9
.ccollections
OrderedDict
p0
((lp1
(lp2
S'timestamp'
p3
aF5.985558032989502
aa(lp4
S'distance'
p5
aF166.72654342651367
aa(lp6
S'state'
p7
aI400
aatp8
Rp9
.ccollections
OrderedDict
p0
((lp1
(lp2
S'timestamp'
p3
aF5.985640048980713
aa(lp4
S'distance'
p5
aF166.72654342651367
aa(lp6
S'state'
p7
aI400
aatp8
Rp9
.ccollections
OrderedDict
p0
((lp1
(lp2
S'timestamp'
p3
aF5.995126008987427
aa(lp4
S'distance'
p5
aF166.72654342651367
aa(lp6
S'state'
p7
aI400
aatp8
Rp9
.ccollections
OrderedDict
p0
((lp1
(lp2
S'timestamp'
p3
aF5.9952099323272705
aa(lp4
S'distance'
p5
aF166.72654342651367
aa(lp6
S'state'
p7
aI400
aatp8
Rp9
.ccollections
OrderedDict
p0
((lp1
(lp2
S'timestamp'
p3
aF6.004776954650879
aa(lp4
S'distance'
p5
aF166.72654342651367
aa(lp6
S'state'
p7
aI400
aatp8
Rp9
.ccollections
OrderedDict
p0
((lp1
(lp2
S'timestamp'
p3
aF6.005125045776367
aa(lp4
S'distance'
p5
aF166.72654342651367
aa(lp6
S'state'
p7
aI400
aatp8
Rp9
.ccollections
OrderedDict
p0
((lp1
(lp2
S'timestamp'
p3
aF6.014742136001587
aa(lp4
S'distance'
p5
aF166.72654342651367
aa(lp6
S'state'
p7
aI400
aatp8
Rp9
.ccollections
OrderedDict
p0
((lp1
(lp2
S'timestamp'
p3
aF6.015200138092041
aa(lp4
S'distance'
p5
aF166.72654342651367
aa(lp6
S'state'
p7
aI400
aatp8
Rp9
.ccollections
OrderedDict
p0
((lp1
(lp2
S'timestamp'
p3
aF6.02604603767395
aa(lp4
S'distance'
p5
aF166.72654342651367
aa(lp6
S'state'
p7
aI400
aatp8
Rp9
.ccollections
OrderedDict
p0
((lp1
(lp2
S'timestamp'
p3
aF6.028626918792725
aa(lp4
S'distance'
p5
aF166.72654342651367
aa(lp6
S'state'
p7
aI400
aatp8
Rp9
.ccollections
OrderedDict
p0
((lp1
(lp2
S'timestamp'
p3
aF6.035027027130127
aa(lp4
S'distance'
p5
aF166.72654342651367
aa(lp6
S'state'
p7
aI400
aatp8
Rp9
.ccollections
OrderedDict
p0
((lp1
(lp2
S'timestamp'
p3
aF6.0355589389801025
aa(lp4
S'distance'
p5
aF166.72654342651367
aa(lp6
S'state'
p7
aI400
aatp8
Rp9
.ccollections
OrderedDict
p0
((lp1
(lp2
S'timestamp'
p3
aF6.044840097427368
aa(lp4
S'distance'
p5
aF166.72654342651367
aa(lp6
S'state'
p7
aI400
aatp8
Rp9
.ccollections
OrderedDict
p0
((lp1
(lp2
S'timestamp'
p3
aF6.045165061950684
aa(lp4
S'distance'
p5
aF166.72654342651367
aa(lp6
S'state'
p7
aI400
aatp8
Rp9
.ccollections
OrderedDict
p0
((lp1
(lp2
S'timestamp'
p3
aF6.054955959320068
aa(lp4
S'distance'
p5
aF166.72654342651367
aa(lp6
S'state'
p7
aI400
aatp8
Rp9
.ccollections
OrderedDict
p0
((lp1
(lp2
S'timestamp'
p3
aF6.055180072784424
aa(lp4
S'distance'
p5
aF166.72654342651367
aa(lp6
S'state'
p7
aI400
aatp8
Rp9
.ccollections
OrderedDict
p0
((lp1
(lp2
S'timestamp'
p3
aF6.064590930938721
aa(lp4
S'distance'
p5
aF166.72654342651367
aa(lp6
S'state'
p7
aI400
aatp8
Rp9
.ccollections
OrderedDict
p0
((lp1
(lp2
S'timestamp'
p3
aF6.065213918685913
aa(lp4
S'distance'
p5
aF166.72654342651367
aa(lp6
S'state'
p7
aI400
aatp8
Rp9
.ccollections
OrderedDict
p0
((lp1
(lp2
S'timestamp'
p3
aF6.074875116348267
aa(lp4
S'distance'
p5
aF166.72654342651367
aa(lp6
S'state'
p7
aI400
aatp8
Rp9
.ccollections
OrderedDict
p0
((lp1
(lp2
S'timestamp'
p3
aF6.075369119644165
aa(lp4
S'distance'
p5
aF166.72654342651367
aa(lp6
S'state'
p7
aI400
aatp8
Rp9
.ccollections
OrderedDict
p0
((lp1
(lp2
S'timestamp'
p3
aF6.084747076034546
aa(lp4
S'distance'
p5
aF166.72654342651367
aa(lp6
S'state'
p7
aI400
aatp8
Rp9
.ccollections
OrderedDict
p0
((lp1
(lp2
S'timestamp'
p3
aF6.085416078567505
aa(lp4
S'distance'
p5
aF166.72654342651367
aa(lp6
S'state'
p7
aI400
aatp8
Rp9
.ccollections
OrderedDict
p0
((lp1
(lp2
S'timestamp'
p3
aF6.094725131988525
aa(lp4
S'distance'
p5
aF166.72654342651367
aa(lp6
S'state'
p7
aI400
aatp8
Rp9
.ccollections
OrderedDict
p0
((lp1
(lp2
S'timestamp'
p3
aF6.095201015472412
aa(lp4
S'distance'
p5
aF166.72654342651367
aa(lp6
S'state'
p7
aI400
aatp8
Rp9
.ccollections
OrderedDict
p0
((lp1
(lp2
S'timestamp'
p3
aF6.105890989303589
aa(lp4
S'distance'
p5
aF166.72654342651367
aa(lp6
S'state'
p7
aI400
aatp8
Rp9
.ccollections
OrderedDict
p0
((lp1
(lp2
S'timestamp'
p3
aF6.10655403137207
aa(lp4
S'distance'
p5
aF166.72654342651367
aa(lp6
S'state'
p7
aI400
aatp8
Rp9
.ccollections
OrderedDict
p0
((lp1
(lp2
S'timestamp'
p3
aF6.115071058273315
aa(lp4
S'distance'
p5
aF166.72654342651367
aa(lp6
S'state'
p7
aI400
aatp8
Rp9
.ccollections
OrderedDict
p0
((lp1
(lp2
S'timestamp'
p3
aF6.115200996398926
aa(lp4
S'distance'
p5
aF166.72654342651367
aa(lp6
S'state'
p7
aI400
aatp8
Rp9
.ccollections
OrderedDict
p0
((lp1
(lp2
S'timestamp'
p3
aF6.125153064727783
aa(lp4
S'distance'
p5
aF166.72654342651367
aa(lp6
S'state'
p7
aI400
aatp8
Rp9
.ccollections
OrderedDict
p0
((lp1
(lp2
S'timestamp'
p3
aF6.125226974487305
aa(lp4
S'distance'
p5
aF166.72654342651367
aa(lp6
S'state'
p7
aI400
aatp8
Rp9
.ccollections
OrderedDict
p0
((lp1
(lp2
S'timestamp'
p3
aF6.134700059890747
aa(lp4
S'distance'
p5
aF166.72654342651367
aa(lp6
S'state'
p7
aI400
aatp8
Rp9
.ccollections
OrderedDict
p0
((lp1
(lp2
S'timestamp'
p3
aF6.135246992111206
aa(lp4
S'distance'
p5
aF166.72654342651367
aa(lp6
S'state'
p7
aI400
aatp8
Rp9
.ccollections
OrderedDict
p0
((lp1
(lp2
S'timestamp'
p3
aF6.1448259353637695
aa(lp4
S'distance'
p5
aF166.72654342651367
aa(lp6
S'state'
p7
aI400
aatp8
Rp9
.ccollections
OrderedDict
p0
((lp1
(lp2
S'timestamp'
p3
aF6.145608901977539
aa(lp4
S'distance'
p5
aF166.72654342651367
aa(lp6
S'state'
p7
aI400
aatp8
Rp9
.ccollections
OrderedDict
p0
((lp1
(lp2
S'timestamp'
p3
aF6.154673099517822
aa(lp4
S'distance'
p5
aF166.72654342651367
aa(lp6
S'state'
p7
aI400
aatp8
Rp9
.ccollections
OrderedDict
p0
((lp1
(lp2
S'timestamp'
p3
aF6.155333995819092
aa(lp4
S'distance'
p5
aF166.72654342651367
aa(lp6
S'state'
p7
aI400
aatp8
Rp9
.ccollections
OrderedDict
p0
((lp1
(lp2
S'timestamp'
p3
aF6.165460109710693
aa(lp4
S'distance'
p5
aF166.72654342651367
aa(lp6
S'state'
p7
aI400
aatp8
Rp9
.ccollections
OrderedDict
p0
((lp1
(lp2
S'timestamp'
p3
aF6.16553807258606
aa(lp4
S'distance'
p5
aF166.72654342651367
aa(lp6
S'state'
p7
aI400
aatp8
Rp9
.ccollections
OrderedDict
p0
((lp1
(lp2
S'timestamp'
p3
aF6.17474102973938
aa(lp4
S'distance'
p5
aF166.72654342651367
aa(lp6
S'state'
p7
aI400
aatp8
Rp9
.ccollections
OrderedDict
p0
((lp1
(lp2
S'timestamp'
p3
aF6.175439119338989
aa(lp4
S'distance'
p5
aF166.72654342651367
aa(lp6
S'state'
p7
aI400
aatp8
Rp9
.ccollections
OrderedDict
p0
((lp1
(lp2
S'timestamp'
p3
aF6.1847450733184814
aa(lp4
S'distance'
p5
aF166.72654342651367
aa(lp6
S'state'
p7
aI400
aatp8
Rp9
.ccollections
OrderedDict
p0
((lp1
(lp2
S'timestamp'
p3
aF6.185338020324707
aa(lp4
S'distance'
p5
aF166.72654342651367
aa(lp6
S'state'
p7
aI400
aatp8
Rp9
.ccollections
OrderedDict
p0
((lp1
(lp2
S'timestamp'
p3
aF6.1946821212768555
aa(lp4
S'distance'
p5
aF166.72654342651367
aa(lp6
S'state'
p7
aI400
aatp8
Rp9
.ccollections
OrderedDict
p0
((lp1
(lp2
S'timestamp'
p3
aF6.195235967636108
aa(lp4
S'distance'
p5
aF166.72654342651367
aa(lp6
S'state'
p7
aI400
aatp8
Rp9
.ccollections
OrderedDict
p0
((lp1
(lp2
S'timestamp'
p3
aF6.204895973205566
aa(lp4
S'distance'
p5
aF166.72654342651367
aa(lp6
S'state'
p7
aI400
aatp8
Rp9
.ccollections
OrderedDict
p0
((lp1
(lp2
S'timestamp'
p3
aF6.205388069152832
aa(lp4
S'distance'
p5
aF166.72654342651367
aa(lp6
S'state'
p7
aI400
aatp8
Rp9
.ccollections
OrderedDict
p0
((lp1
(lp2
S'timestamp'
p3
aF6.2147440910339355
aa(lp4
S'distance'
p5
aF166.72654342651367
aa(lp6
S'state'
p7
aI400
aatp8
Rp9
.ccollections
OrderedDict
p0
((lp1
(lp2
S'timestamp'
p3
aF6.215335130691528
aa(lp4
S'distance'
p5
aF166.72654342651367
aa(lp6
S'state'
p7
aI400
aatp8
Rp9
.ccollections
OrderedDict
p0
((lp1
(lp2
S'timestamp'
p3
aF6.225461959838867
aa(lp4
S'distance'
p5
aF166.72654342651367
aa(lp6
S'state'
p7
aI400
aatp8
Rp9
.ccollections
OrderedDict
p0
((lp1
(lp2
S'timestamp'
p3
aF6.2258360385894775
aa(lp4
S'distance'
p5
aF166.72654342651367
aa(lp6
S'state'
p7
aI400
aatp8
Rp9
.ccollections
OrderedDict
p0
((lp1
(lp2
S'timestamp'
p3
aF6.234669923782349
aa(lp4
S'distance'
p5
aF166.72654342651367
aa(lp6
S'state'
p7
aI400
aatp8
Rp9
.ccollections
OrderedDict
p0
((lp1
(lp2
S'timestamp'
p3
aF6.2351579666137695
aa(lp4
S'distance'
p5
aF166.72654342651367
aa(lp6
S'state'
p7
aI400
aatp8
Rp9
.ccollections
OrderedDict
p0
((lp1
(lp2
S'timestamp'
p3
aF6.244722127914429
aa(lp4
S'distance'
p5
aF166.72654342651367
aa(lp6
S'state'
p7
aI400
aatp8
Rp9
.ccollections
OrderedDict
p0
((lp1
(lp2
S'timestamp'
p3
aF6.2454469203948975
aa(lp4
S'distance'
p5
aF166.72654342651367
aa(lp6
S'state'
p7
aI400
aatp8
Rp9
.ccollections
OrderedDict
p0
((lp1
(lp2
S'timestamp'
p3
aF6.254710912704468
aa(lp4
S'distance'
p5
aF166.72654342651367
aa(lp6
S'state'
p7
aI400
aatp8
Rp9
.ccollections
OrderedDict
p0
((lp1
(lp2
S'timestamp'
p3
aF6.255266904830933
aa(lp4
S'distance'
p5
aF166.72654342651367
aa(lp6
S'state'
p7
aI400
aatp8
Rp9
.ccollections
OrderedDict
p0
((lp1
(lp2
S'timestamp'
p3
aF6.264754056930542
aa(lp4
S'distance'
p5
aF166.72654342651367
aa(lp6
S'state'
p7
aI400
aatp8
Rp9
.ccollections
OrderedDict
p0
((lp1
(lp2
S'timestamp'
p3
aF6.265501976013184
aa(lp4
S'distance'
p5
aF166.72654342651367
aa(lp6
S'state'
p7
aI400
aatp8
Rp9
.ccollections
OrderedDict
p0
((lp1
(lp2
S'timestamp'
p3
aF6.274773120880127
aa(lp4
S'distance'
p5
aF166.72654342651367
aa(lp6
S'state'
p7
aI400
aatp8
Rp9
.ccollections
OrderedDict
p0
((lp1
(lp2
S'timestamp'
p3
aF6.275411128997803
aa(lp4
S'distance'
p5
aF166.72654342651367
aa(lp6
S'state'
p7
aI400
aatp8
Rp9
.ccollections
OrderedDict
p0
((lp1
(lp2
S'timestamp'
p3
aF6.284843921661377
aa(lp4
S'distance'
p5
aF166.72654342651367
aa(lp6
S'state'
p7
aI400
aatp8
Rp9
.ccollections
OrderedDict
p0
((lp1
(lp2
S'timestamp'
p3
aF6.28518009185791
aa(lp4
S'distance'
p5
aF166.72654342651367
aa(lp6
S'state'
p7
aI400
aatp8
Rp9
.ccollections
OrderedDict
p0
((lp1
(lp2
S'timestamp'
p3
aF6.295203924179077
aa(lp4
S'distance'
p5
aF166.72654342651367
aa(lp6
S'state'
p7
aI400
aatp8
Rp9
.ccollections
OrderedDict
p0
((lp1
(lp2
S'timestamp'
p3
aF6.295280933380127
aa(lp4
S'distance'
p5
aF166.72654342651367
aa(lp6
S'state'
p7
aI400
aatp8
Rp9
.ccollections
OrderedDict
p0
((lp1
(lp2
S'timestamp'
p3
aF6.3055579662323
aa(lp4
S'distance'
p5
aF166.72654342651367
aa(lp6
S'state'
p7
aI400
aatp8
Rp9
.ccollections
OrderedDict
p0
((lp1
(lp2
S'timestamp'
p3
aF6.3059680461883545
aa(lp4
S'distance'
p5
aF166.72654342651367
aa(lp6
S'state'
p7
aI400
aatp8
Rp9
.ccollections
OrderedDict
p0
((lp1
(lp2
S'timestamp'
p3
aF6.314881086349487
aa(lp4
S'distance'
p5
aF166.72654342651367
aa(lp6
S'state'
p7
aI400
aatp8
Rp9
.ccollections
OrderedDict
p0
((lp1
(lp2
S'timestamp'
p3
aF6.315323114395142
aa(lp4
S'distance'
p5
aF166.72654342651367
aa(lp6
S'state'
p7
aI400
aatp8
Rp9
.ccollections
OrderedDict
p0
((lp1
(lp2
S'timestamp'
p3
aF6.3253350257873535
aa(lp4
S'distance'
p5
aF166.72654342651367
aa(lp6
S'state'
p7
aI400
aatp8
Rp9
.ccollections
OrderedDict
p0
((lp1
(lp2
S'timestamp'
p3
aF6.33467698097229
aa(lp4
S'distance'
p5
aF166.72654342651367
aa(lp6
S'state'
p7
aI400
aatp8
Rp9
.ccollections
OrderedDict
p0
((lp1
(lp2
S'timestamp'
p3
aF6.335201978683472
aa(lp4
S'distance'
p5
aF166.72654342651367
aa(lp6
S'state'
p7
aI400
aatp8
Rp9
.ccollections
OrderedDict
p0
((lp1
(lp2
S'timestamp'
p3
aF6.335890054702759
aa(lp4
S'distance'
p5
aF166.72654342651367
aa(lp6
S'state'
p7
aI400
aatp8
Rp9
.ccollections
OrderedDict
p0
((lp1
(lp2
S'timestamp'
p3
aF6.344599962234497
aa(lp4
S'distance'
p5
aF166.72654342651367
aa(lp6
S'state'
p7
aI400
aatp8
Rp9
.ccollections
OrderedDict
p0
((lp1
(lp2
S'timestamp'
p3
aF6.345288038253784
aa(lp4
S'distance'
p5
aF166.72654342651367
aa(lp6
S'state'
p7
aI400
aatp8
Rp9
.ccollections
OrderedDict
p0
((lp1
(lp2
S'timestamp'
p3
aF6.354901075363159
aa(lp4
S'distance'
p5
aF166.72654342651367
aa(lp6
S'state'
p7
aI400
aatp8
Rp9
.ccollections
OrderedDict
p0
((lp1
(lp2
S'timestamp'
p3
aF6.355420112609863
aa(lp4
S'distance'
p5
aF166.72654342651367
aa(lp6
S'state'
p7
aI400
aatp8
Rp9
.ccollections
OrderedDict
p0
((lp1
(lp2
S'timestamp'
p3
aF6.365528106689453
aa(lp4
S'distance'
p5
aF166.72654342651367
aa(lp6
S'state'
p7
aI0
aatp8
Rp9
.ccollections
OrderedDict
p0
((lp1
(lp2
S'timestamp'
p3
aF6.925972938537598
aa(lp4
S'distance'
p5
aF73.3
aa(lp6
S'state'
p7
aI0
aatp8
Rp9
.ccollections
OrderedDict
p0
((lp1
(lp2
S'timestamp'
p3
aF6.9354729652404785
aa(lp4
S'distance'
p5
aF73.3
aa(lp6
S'state'
p7
aI0
aatp8
Rp9
.ccollections
OrderedDict
p0
((lp1
(lp2
S'timestamp'
p3
aF6.936233997344971
aa(lp4
S'distance'
p5
aF73.3
aa(lp6
S'state'
p7
aI0
aatp8
Rp9
.ccollections
OrderedDict
p0
((lp1
(lp2
S'timestamp'
p3
aF6.94483208656311
aa(lp4
S'distance'
p5
aF73.3
aa(lp6
S'state'
p7
aI0
aatp8
Rp9
.ccollections
OrderedDict
p0
((lp1
(lp2
S'timestamp'
p3
aF6.946162939071655
aa(lp4
S'distance'
p5
aF73.3
aa(lp6
S'state'
p7
aI0
aatp8
Rp9
.ccollections
OrderedDict
p0
((lp1
(lp2
S'timestamp'
p3
aF6.954792022705078
aa(lp4
S'distance'
p5
aF73.3
aa(lp6
S'state'
p7
aI0
aatp8
Rp9
.ccollections
OrderedDict
p0
((lp1
(lp2
S'timestamp'
p3
aF6.955359935760498
aa(lp4
S'distance'
p5
aF73.3
aa(lp6
S'state'
p7
aI0
aatp8
Rp9
.ccollections
OrderedDict
p0
((lp1
(lp2
S'timestamp'
p3
aF6.964874982833862
aa(lp4
S'distance'
p5
aF73.3
aa(lp6
S'state'
p7
aI0
aatp8
Rp9
.ccollections
OrderedDict
p0
((lp1
(lp2
S'timestamp'
p3
aF6.9652979373931885
aa(lp4
S'distance'
p5
aF73.3
aa(lp6
S'state'
p7
aI0
aatp8
Rp9
.ccollections
OrderedDict
p0
((lp1
(lp2
S'timestamp'
p3
aF6.975502967834473
aa(lp4
S'distance'
p5
aF73.3
aa(lp6
S'state'
p7
aI0
aatp8
Rp9
.ccollections
OrderedDict
p0
((lp1
(lp2
S'timestamp'
p3
aF6.975615978240967
aa(lp4
S'distance'
p5
aF73.3
aa(lp6
S'state'
p7
aI0
aatp8
Rp9
.ccollections
OrderedDict
p0
((lp1
(lp2
S'timestamp'
p3
aF6.98486590385437
aa(lp4
S'distance'
p5
aF73.3
aa(lp6
S'state'
p7
aI0
aatp8
Rp9
.ccollections
OrderedDict
p0
((lp1
(lp2
S'timestamp'
p3
aF6.985533952713013
aa(lp4
S'distance'
p5
aF73.3
aa(lp6
S'state'
p7
aI0
aatp8
Rp9
.ccollections
OrderedDict
p0
((lp1
(lp2
S'timestamp'
p3
aF6.995508909225464
aa(lp4
S'distance'
p5
aF73.3
aa(lp6
S'state'
p7
aI0
aatp8
Rp9
.ccollections
OrderedDict
p0
((lp1
(lp2
S'timestamp'
p3
aF6.997534990310669
aa(lp4
S'distance'
p5
aF73.3
aa(lp6
S'state'
p7
aI0
aatp8
Rp9
.ccollections
OrderedDict
p0
((lp1
(lp2
S'timestamp'
p3
aF7.004719018936157
aa(lp4
S'distance'
p5
aF73.3
aa(lp6
S'state'
p7
aI0
aatp8
Rp9
.ccollections
OrderedDict
p0
((lp1
(lp2
S'timestamp'
p3
aF7.015124082565308
aa(lp4
S'distance'
p5
aF73.3
aa(lp6
S'state'
p7
aI0
aatp8
Rp9
.ccollections
OrderedDict
p0
((lp1
(lp2
S'timestamp'
p3
aF7.015201091766357
aa(lp4
S'distance'
p5
aF73.3
aa(lp6
S'state'
p7
aI0
aatp8
Rp9
.ccollections
OrderedDict
p0
((lp1
(lp2
S'timestamp'
p3
aF7.015834093093872
aa(lp4
S'distance'
p5
aF73.3
aa(lp6
S'state'
p7
aI0
aatp8
Rp9
.ccollections
OrderedDict
p0
((lp1
(lp2
S'timestamp'
p3
aF7.02489709854126
aa(lp4
S'distance'
p5
aF73.3
aa(lp6
S'state'
p7
aI0
aatp8
Rp9
.ccollections
OrderedDict
p0
((lp1
(lp2
S'timestamp'
p3
aF7.025490045547485
aa(lp4
S'distance'
p5
aF73.3
aa(lp6
S'state'
p7
aI0
aatp8
Rp9
.ccollections
OrderedDict
p0
((lp1
(lp2
S'timestamp'
p3
aF7.035358905792236
aa(lp4
S'distance'
p5
aF73.3
aa(lp6
S'state'
p7
aI0
aatp8
Rp9
.ccollections
OrderedDict
p0
((lp1
(lp2
S'timestamp'
p3
aF7.035504102706909
aa(lp4
S'distance'
p5
aF73.3
aa(lp6
S'state'
p7
aI0
aatp8
Rp9
.ccollections
OrderedDict
p0
((lp1
(lp2
S'timestamp'
p3
aF7.044910907745361
aa(lp4
S'distance'
p5
aF73.3
aa(lp6
S'state'
p7
aI0
aatp8
Rp9
.ccollections
OrderedDict
p0
((lp1
(lp2
S'timestamp'
p3
aF7.045567989349365
aa(lp4
S'distance'
p5
aF73.3
aa(lp6
S'state'
p7
aI0
aatp8
Rp9
.ccollections
OrderedDict
p0
((lp1
(lp2
S'timestamp'
p3
aF7.054889917373657
aa(lp4
S'distance'
p5
aF73.3
aa(lp6
S'state'
p7
aI0
aatp8
Rp9
.ccollections
OrderedDict
p0
((lp1
(lp2
S'timestamp'
p3
aF7.055417060852051
aa(lp4
S'distance'
p5
aF73.3
aa(lp6
S'state'
p7
aI0
aatp8
Rp9
.ccollections
OrderedDict
p0
((lp1
(lp2
S'timestamp'
p3
aF7.064852952957153
aa(lp4
S'distance'
p5
aF73.3
aa(lp6
S'state'
p7
aI0
aatp8
Rp9
.ccollections
OrderedDict
p0
((lp1
(lp2
S'timestamp'
p3
aF7.065536022186279
aa(lp4
S'distance'
p5
aF73.3
aa(lp6
S'state'
p7
aI0
aatp8
Rp9
.ccollections
OrderedDict
p0
((lp1
(lp2
S'timestamp'
p3
aF7.075021982192993
aa(lp4
S'distance'
p5
aF73.3
aa(lp6
S'state'
p7
aI0
aatp8
Rp9
.ccollections
OrderedDict
p0
((lp1
(lp2
S'timestamp'
p3
aF7.075536012649536
aa(lp4
S'distance'
p5
aF73.3
aa(lp6
S'state'
p7
aI0
aatp8
Rp9
.ccollections
OrderedDict
p0
((lp1
(lp2
S'timestamp'
p3
aF7.0849010944366455
aa(lp4
S'distance'
p5
aF73.3
aa(lp6
S'state'
p7
aI0
aatp8
Rp9
.ccollections
OrderedDict
p0
((lp1
(lp2
S'timestamp'
p3
aF7.085524082183838
aa(lp4
S'distance'
p5
aF73.3
aa(lp6
S'state'
p7
aI0
aatp8
Rp9
.ccollections
OrderedDict
p0
((lp1
(lp2
S'timestamp'
p3
aF7.094846963882446
aa(lp4
S'distance'
p5
aF73.3
aa(lp6
S'state'
p7
aI0
aatp8
Rp9
.ccollections
OrderedDict
p0
((lp1
(lp2
S'timestamp'
p3
aF7.095498085021973
aa(lp4
S'distance'
p5
aF73.3
aa(lp6
S'state'
p7
aI0
aatp8
Rp9
.ccollections
OrderedDict
p0
((lp1
(lp2
S'timestamp'
p3
aF7.1048829555511475
aa(lp4
S'distance'
p5
aF73.3
aa(lp6
S'state'
p7
aI0
aatp8
Rp9
.ccollections
OrderedDict
p0
((lp1
(lp2
S'timestamp'
p3
aF7.115112066268921
aa(lp4
S'distance'
p5
aF73.3
aa(lp6
S'state'
p7
aI0
aatp8
Rp9
.ccollections
OrderedDict
p0
((lp1
(lp2
S'timestamp'
p3
aF7.115198135375977
aa(lp4
S'distance'
p5
aF73.3
aa(lp6
S'state'
p7
aI0
aatp8
Rp9
.ccollections
OrderedDict
p0
((lp1
(lp2
S'timestamp'
p3
aF7.115952014923096
aa(lp4
S'distance'
p5
aF73.3
aa(lp6
S'state'
p7
aI0
aatp8
Rp9
.ccollections
OrderedDict
p0
((lp1
(lp2
S'timestamp'
p3
aF7.124853134155273
aa(lp4
S'distance'
p5
aF73.3
aa(lp6
S'state'
p7
aI0
aatp8
Rp9
.ccollections
OrderedDict
p0
((lp1
(lp2
S'timestamp'
p3
aF7.125509023666382
aa(lp4
S'distance'
p5
aF73.3
aa(lp6
S'state'
p7
aI0
aatp8
Rp9
.ccollections
OrderedDict
p0
((lp1
(lp2
S'timestamp'
p3
aF7.134777069091797
aa(lp4
S'distance'
p5
aF73.3
aa(lp6
S'state'
p7
aI0
aatp8
Rp9
.ccollections
OrderedDict
p0
((lp1
(lp2
S'timestamp'
p3
aF7.135535955429077
aa(lp4
S'distance'
p5
aF73.3
aa(lp6
S'state'
p7
aI0
aatp8
Rp9
.ccollections
OrderedDict
p0
((lp1
(lp2
S'timestamp'
p3
aF7.144841909408569
aa(lp4
S'distance'
p5
aF73.3
aa(lp6
S'state'
p7
aI0
aatp8
Rp9
.ccollections
OrderedDict
p0
((lp1
(lp2
S'timestamp'
p3
aF7.1455559730529785
aa(lp4
S'distance'
p5
aF73.3
aa(lp6
S'state'
p7
aI0
aatp8
Rp9
.ccollections
OrderedDict
p0
((lp1
(lp2
S'timestamp'
p3
aF7.165782928466797
aa(lp4
S'distance'
p5
aF73.3
aa(lp6
S'state'
p7
aI0
aatp8
Rp9
.ccollections
OrderedDict
p0
((lp1
(lp2
S'timestamp'
p3
aF7.166014909744263
aa(lp4
S'distance'
p5
aF73.3
aa(lp6
S'state'
p7
aI0
aatp8
Rp9
.ccollections
OrderedDict
p0
((lp1
(lp2
S'timestamp'
p3
aF7.16710901260376
aa(lp4
S'distance'
p5
aF73.3
aa(lp6
S'state'
p7
aI0
aatp8
Rp9
.ccollections
OrderedDict
p0
((lp1
(lp2
S'timestamp'
p3
aF7.1674840450286865
aa(lp4
S'distance'
p5
aF73.3
aa(lp6
S'state'
p7
aI0
aatp8
Rp9
.ccollections
OrderedDict
p0
((lp1
(lp2
S'timestamp'
p3
aF7.174938917160034
aa(lp4
S'distance'
p5
aF73.3
aa(lp6
S'state'
p7
aI0
aatp8
Rp9
.ccollections
OrderedDict
p0
((lp1
(lp2
S'timestamp'
p3
aF7.175307035446167
aa(lp4
S'distance'
p5
aF73.3
aa(lp6
S'state'
p7
aI0
aatp8
Rp9
.ccollections
OrderedDict
p0
((lp1
(lp2
S'timestamp'
p3
aF7.184865951538086
aa(lp4
S'distance'
p5
aF73.3
aa(lp6
S'state'
p7
aI0
aatp8
Rp9
.ccollections
OrderedDict
p0
((lp1
(lp2
S'timestamp'
p3
aF7.185497999191284
aa(lp4
S'distance'
p5
aF73.3
aa(lp6
S'state'
p7
aI0
aatp8
Rp9
.ccollections
OrderedDict
p0
((lp1
(lp2
S'timestamp'
p3
aF7.195142984390259
aa(lp4
S'distance'
p5
aF73.3
aa(lp6
S'state'
p7
aI0
aatp8
Rp9
.ccollections
OrderedDict
p0
((lp1
(lp2
S'timestamp'
p3
aF7.195576906204224
aa(lp4
S'distance'
p5
aF73.3
aa(lp6
S'state'
p7
aI0
aatp8
Rp9
.ccollections
OrderedDict
p0
((lp1
(lp2
S'timestamp'
p3
aF7.204904079437256
aa(lp4
S'distance'
p5
aF73.3
aa(lp6
S'state'
p7
aI0
aatp8
Rp9
.ccollections
OrderedDict
p0
((lp1
(lp2
S'timestamp'
p3
aF7.205394983291626
aa(lp4
S'distance'
p5
aF73.3
aa(lp6
S'state'
p7
aI0
aatp8
Rp9
.ccollections
OrderedDict
p0
((lp1
(lp2
S'timestamp'
p3
aF7.215121030807495
aa(lp4
S'distance'
p5
aF73.3
aa(lp6
S'state'
p7
aI0
aatp8
Rp9
.ccollections
OrderedDict
p0
((lp1
(lp2
S'timestamp'
p3
aF7.215354919433594
aa(lp4
S'distance'
p5
aF73.3
aa(lp6
S'state'
p7
aI0
aatp8
Rp9
.ccollections
OrderedDict
p0
((lp1
(lp2
S'timestamp'
p3
aF7.227185964584351
aa(lp4
S'distance'
p5
aF73.3
aa(lp6
S'state'
p7
aI0
aatp8
Rp9
.ccollections
OrderedDict
p0
((lp1
(lp2
S'timestamp'
p3
aF7.229537010192871
aa(lp4
S'distance'
p5
aF73.3
aa(lp6
S'state'
p7
aI0
aatp8
Rp9
.ccollections
OrderedDict
p0
((lp1
(lp2
S'timestamp'
p3
aF7.236227035522461
aa(lp4
S'distance'
p5
aF73.3
aa(lp6
S'state'
p7
aI0
aatp8
Rp9
.ccollections
OrderedDict
p0
((lp1
(lp2
S'timestamp'
p3
aF7.240567922592163
aa(lp4
S'distance'
p5
aF73.3
aa(lp6
S'state'
p7
aI0
aatp8
Rp9
.ccollections
OrderedDict
p0
((lp1
(lp2
S'timestamp'
p3
aF7.245513916015625
aa(lp4
S'distance'
p5
aF73.3
aa(lp6
S'state'
p7
aI0
aatp8
Rp9
.ccollections
OrderedDict
p0
((lp1
(lp2
S'timestamp'
p3
aF7.245767116546631
aa(lp4
S'distance'
p5
aF73.3
aa(lp6
S'state'
p7
aI0
aatp8
Rp9
.ccollections
OrderedDict
p0
((lp1
(lp2
S'timestamp'
p3
aF7.2549169063568115
aa(lp4
S'distance'
p5
aF73.3
aa(lp6
S'state'
p7
aI0
aatp8
Rp9
.ccollections
OrderedDict
p0
((lp1
(lp2
S'timestamp'
p3
aF7.2553770542144775
aa(lp4
S'distance'
p5
aF73.3
aa(lp6
S'state'
p7
aI0
aatp8
Rp9
.ccollections
OrderedDict
p0
((lp1
(lp2
S'timestamp'
p3
aF7.264854907989502
aa(lp4
S'distance'
p5
aF73.3
aa(lp6
S'state'
p7
aI0
aatp8
Rp9
.ccollections
OrderedDict
p0
((lp1
(lp2
S'timestamp'
p3
aF7.265433073043823
aa(lp4
S'distance'
p5
aF73.3
aa(lp6
S'state'
p7
aI0
aatp8
Rp9
.ccollections
OrderedDict
p0
((lp1
(lp2
S'timestamp'
p3
aF7.274735927581787
aa(lp4
S'distance'
p5
aF73.3
aa(lp6
S'state'
p7
aI0
aatp8
Rp9
.ccollections
OrderedDict
p0
((lp1
(lp2
S'timestamp'
p3
aF7.275429964065552
aa(lp4
S'distance'
p5
aF73.3
aa(lp6
S'state'
p7
aI0
aatp8
Rp9
.ccollections
OrderedDict
p0
((lp1
(lp2
S'timestamp'
p3
aF7.294904947280884
aa(lp4
S'distance'
p5
aF73.3
aa(lp6
S'state'
p7
aI0
aatp8
Rp9
.ccollections
OrderedDict
p0
((lp1
(lp2
S'timestamp'
p3
aF7.306136131286621
aa(lp4
S'distance'
p5
aF73.3
aa(lp6
S'state'
p7
aI0
aatp8
Rp9
.ccollections
OrderedDict
p0
((lp1
(lp2
S'timestamp'
p3
aF7.306210994720459
aa(lp4
S'distance'
p5
aF73.3
aa(lp6
S'state'
p7
aI0
aatp8
Rp9
.ccollections
OrderedDict
p0
((lp1
(lp2
S'timestamp'
p3
aF7.306286096572876
aa(lp4
S'distance'
p5
aF73.3
aa(lp6
S'state'
p7
aI0
aatp8
Rp9
.ccollections
OrderedDict
p0
((lp1
(lp2
S'timestamp'
p3
aF7.3076560497283936
aa(lp4
S'distance'
p5
aF73.3
aa(lp6
S'state'
p7
aI0
aatp8
Rp9
.ccollections
OrderedDict
p0
((lp1
(lp2
S'timestamp'
p3
aF7.315261125564575
aa(lp4
S'distance'
p5
aF73.3
aa(lp6
S'state'
p7
aI0
aatp8
Rp9
.ccollections
OrderedDict
p0
((lp1
(lp2
S'timestamp'
p3
aF7.315346002578735
aa(lp4
S'distance'
p5
aF73.3
aa(lp6
S'state'
p7
aI0
aatp8
Rp9
.ccollections
OrderedDict
p0
((lp1
(lp2
S'timestamp'
p3
aF7.315891981124878
aa(lp4
S'distance'
p5
aF73.3
aa(lp6
S'state'
p7
aI0
aatp8
Rp9
.ccollections
OrderedDict
p0
((lp1
(lp2
S'timestamp'
p3
aF7.324908971786499
aa(lp4
S'distance'
p5
aF73.3
aa(lp6
S'state'
p7
aI0
aatp8
Rp9
.ccollections
OrderedDict
p0
((lp1
(lp2
S'timestamp'
p3
aF7.325325012207031
aa(lp4
S'distance'
p5
aF73.3
aa(lp6
S'state'
p7
aI0
aatp8
Rp9
.ccollections
OrderedDict
p0
((lp1
(lp2
S'timestamp'
p3
aF7.345127105712891
aa(lp4
S'distance'
p5
aF73.3
aa(lp6
S'state'
p7
aI0
aatp8
Rp9
.ccollections
OrderedDict
p0
((lp1
(lp2
S'timestamp'
p3
aF7.345214128494263
aa(lp4
S'distance'
p5
aF73.3
aa(lp6
S'state'
p7
aI0
aatp8
Rp9
.ccollections
OrderedDict
p0
((lp1
(lp2
S'timestamp'
p3
aF7.345773935317993
aa(lp4
S'distance'
p5
aF73.3
aa(lp6
S'state'
p7
aI0
aatp8
Rp9
.ccollections
OrderedDict
p0
((lp1
(lp2
S'timestamp'
p3
aF7.346537113189697
aa(lp4
S'distance'
p5
aF73.3
aa(lp6
S'state'
p7
aI0
aatp8
Rp9
.ccollections
OrderedDict
p0
((lp1
(lp2
S'timestamp'
p3
aF7.355227947235107
aa(lp4
S'distance'
p5
aF73.3
aa(lp6
S'state'
p7
aI0
aatp8
Rp9
.ccollections
OrderedDict
p0
((lp1
(lp2
S'timestamp'
p3
aF7.355317115783691
aa(lp4
S'distance'
p5
aF73.3
aa(lp6
S'state'
p7
aI0
aatp8
Rp9
.ccollections
OrderedDict
p0
((lp1
(lp2
S'timestamp'
p3
aF7.375101089477539
aa(lp4
S'distance'
p5
aF73.3
aa(lp6
S'state'
p7
aI0
aatp8
Rp9
.ccollections
OrderedDict
p0
((lp1
(lp2
S'timestamp'
p3
aF7.3752241134643555
aa(lp4
S'distance'
p5
aF73.3
aa(lp6
S'state'
p7
aI0
aatp8
Rp9
.ccollections
OrderedDict
p0
((lp1
(lp2
S'timestamp'
p3
aF7.37633490562439
aa(lp4
S'distance'
p5
aF73.3
aa(lp6
S'state'
p7
aI0
aatp8
Rp9
.ccollections
OrderedDict
p0
((lp1
(lp2
S'timestamp'
p3
aF7.376410961151123
aa(lp4
S'distance'
p5
aF73.3
aa(lp6
S'state'
p7
aI0
aatp8
Rp9
.ccollections
OrderedDict
p0
((lp1
(lp2
S'timestamp'
p3
aF7.385054111480713
aa(lp4
S'distance'
p5
aF73.3
aa(lp6
S'state'
p7
aI0
aatp8
Rp9
.ccollections
OrderedDict
p0
((lp1
(lp2
S'timestamp'
p3
aF7.386738061904907
aa(lp4
S'distance'
p5
aF73.3
aa(lp6
S'state'
p7
aI0
aatp8
Rp9
.ccollections
OrderedDict
p0
((lp1
(lp2
S'timestamp'
p3
aF7.395421981811523
aa(lp4
S'distance'
p5
aF73.3
aa(lp6
S'state'
p7
aI0
aatp8
Rp9
.ccollections
OrderedDict
p0
((lp1
(lp2
S'timestamp'
p3
aF7.395636081695557
aa(lp4
S'distance'
p5
aF73.3
aa(lp6
S'state'
p7
aI0
aatp8
Rp9
.ccollections
OrderedDict
p0
((lp1
(lp2
S'timestamp'
p3
aF7.405144929885864
aa(lp4
S'distance'
p5
aF73.3
aa(lp6
S'state'
p7
aI0
aatp8
Rp9
.ccollections
OrderedDict
p0
((lp1
(lp2
S'timestamp'
p3
aF7.405548095703125
aa(lp4
S'distance'
p5
aF73.3
aa(lp6
S'state'
p7
aI0
aatp8
Rp9
.ccollections
OrderedDict
p0
((lp1
(lp2
S'timestamp'
p3
aF7.4149010181427
aa(lp4
S'distance'
p5
aF73.3
aa(lp6
S'state'
p7
aI0
aatp8
Rp9
.ccollections
OrderedDict
p0
((lp1
(lp2
S'timestamp'
p3
aF7.425188064575195
aa(lp4
S'distance'
p5
aF73.3
aa(lp6
S'state'
p7
aI0
aatp8
Rp9
.ccollections
OrderedDict
p0
((lp1
(lp2
S'timestamp'
p3
aF7.425323963165283
aa(lp4
S'distance'
p5
aF73.3
aa(lp6
S'state'
p7
aI0
aatp8
Rp9
.ccollections
OrderedDict
p0
((lp1
(lp2
S'timestamp'
p3
aF7.425957918167114
aa(lp4
S'distance'
p5
aF73.3
aa(lp6
S'state'
p7
aI0
aatp8
Rp9
.ccollections
OrderedDict
p0
((lp1
(lp2
S'timestamp'
p3
aF7.435967922210693
aa(lp4
S'distance'
p5
aF73.3
aa(lp6
S'state'
p7
aI0
aatp8
Rp9
.ccollections
OrderedDict
p0
((lp1
(lp2
S'timestamp'
p3
aF7.436176061630249
aa(lp4
S'distance'
p5
aF73.3
aa(lp6
S'state'
p7
aI0
aatp8
Rp9
.ccollections
OrderedDict
p0
((lp1
(lp2
S'timestamp'
p3
aF7.44483208656311
aa(lp4
S'distance'
p5
aF73.3
aa(lp6
S'state'
p7
aI0
aatp8
Rp9
.ccollections
OrderedDict
p0
((lp1
(lp2
S'timestamp'
p3
aF7.445630073547363
aa(lp4
S'distance'
p5
aF73.3
aa(lp6
S'state'
p7
aI0
aatp8
Rp9
.ccollections
OrderedDict
p0
((lp1
(lp2
S'timestamp'
p3
aF7.455328941345215
aa(lp4
S'distance'
p5
aF73.3
aa(lp6
S'state'
p7
aI0
aatp8
Rp9
.ccollections
OrderedDict
p0
((lp1
(lp2
S'timestamp'
p3
aF7.455466985702515
aa(lp4
S'distance'
p5
aF73.3
aa(lp6
S'state'
p7
aI0
aatp8
Rp9
.ccollections
OrderedDict
p0
((lp1
(lp2
S'timestamp'
p3
aF7.465050935745239
aa(lp4
S'distance'
p5
aF73.3
aa(lp6
S'state'
p7
aI0
aatp8
Rp9
.ccollections
OrderedDict
p0
((lp1
(lp2
S'timestamp'
p3
aF7.46537709236145
aa(lp4
S'distance'
p5
aF73.3
aa(lp6
S'state'
p7
aI0
aatp8
Rp9
.ccollections
OrderedDict
p0
((lp1
(lp2
S'timestamp'
p3
aF7.474900007247925
aa(lp4
S'distance'
p5
aF73.3
aa(lp6
S'state'
p7
aI0
aatp8
Rp9
.ccollections
OrderedDict
p0
((lp1
(lp2
S'timestamp'
p3
aF7.475536108016968
aa(lp4
S'distance'
p5
aF73.3
aa(lp6
S'state'
p7
aI0
aatp8
Rp9
.ccollections
OrderedDict
p0
((lp1
(lp2
S'timestamp'
p3
aF7.485012054443359
aa(lp4
S'distance'
p5
aF73.3
aa(lp6
S'state'
p7
aI0
aatp8
Rp9
.ccollections
OrderedDict
p0
((lp1
(lp2
S'timestamp'
p3
aF7.4860570430755615
aa(lp4
S'distance'
p5
aF73.3
aa(lp6
S'state'
p7
aI0
aatp8
Rp9
.ccollections
OrderedDict
p0
((lp1
(lp2
S'timestamp'
p3
aF7.494921922683716
aa(lp4
S'distance'
p5
aF73.3
aa(lp6
S'state'
p7
aI0
aatp8
Rp9
.ccollections
OrderedDict
p0
((lp1
(lp2
S'timestamp'
p3
aF7.49550199508667
aa(lp4
S'distance'
p5
aF73.3
aa(lp6
S'state'
p7
aI0
aatp8
Rp9
.ccollections
OrderedDict
p0
((lp1
(lp2
S'timestamp'
p3
aF7.505516052246094
aa(lp4
S'distance'
p5
aF73.3
aa(lp6
S'state'
p7
aI0
aatp8
Rp9
.ccollections
OrderedDict
p0
((lp1
(lp2
S'timestamp'
p3
aF7.505659103393555
aa(lp4
S'distance'
p5
aF73.3
aa(lp6
S'state'
p7
aI0
aatp8
Rp9
.ccollections
OrderedDict
p0
((lp1
(lp2
S'timestamp'
p3
aF7.514914035797119
aa(lp4
S'distance'
p5
aF73.3
aa(lp6
S'state'
p7
aI0
aatp8
Rp9
.ccollections
OrderedDict
p0
((lp1
(lp2
S'timestamp'
p3
aF7.515512943267822
aa(lp4
S'distance'
p5
aF73.3
aa(lp6
S'state'
p7
aI0
aatp8
Rp9
.ccollections
OrderedDict
p0
((lp1
(lp2
S'timestamp'
p3
aF7.524857997894287
aa(lp4
S'distance'
p5
aF73.3
aa(lp6
S'state'
p7
aI0
aatp8
Rp9
.ccollections
OrderedDict
p0
((lp1
(lp2
S'timestamp'
p3
aF7.5254130363464355
aa(lp4
S'distance'
p5
aF73.3
aa(lp6
S'state'
p7
aI0
aatp8
Rp9
.ccollections
OrderedDict
p0
((lp1
(lp2
S'timestamp'
p3
aF7.535006999969482
aa(lp4
S'distance'
p5
aF73.3
aa(lp6
S'state'
p7
aI0
aatp8
Rp9
.ccollections
OrderedDict
p0
((lp1
(lp2
S'timestamp'
p3
aF7.535550117492676
aa(lp4
S'distance'
p5
aF73.3
aa(lp6
S'state'
p7
aI0
aatp8
Rp9
.ccollections
OrderedDict
p0
((lp1
(lp2
S'timestamp'
p3
aF7.544949054718018
aa(lp4
S'distance'
p5
aF73.3
aa(lp6
S'state'
p7
aI0
aatp8
Rp9
.ccollections
OrderedDict
p0
((lp1
(lp2
S'timestamp'
p3
aF7.545331001281738
aa(lp4
S'distance'
p5
aF73.3
aa(lp6
S'state'
p7
aI0
aatp8
Rp9
.ccollections
OrderedDict
p0
((lp1
(lp2
S'timestamp'
p3
aF7.555315971374512
aa(lp4
S'distance'
p5
aF73.3
aa(lp6
S'state'
p7
aI0
aatp8
Rp9
.ccollections
OrderedDict
p0
((lp1
(lp2
S'timestamp'
p3
aF7.555433034896851
aa(lp4
S'distance'
p5
aF73.3
aa(lp6
S'state'
p7
aI0
aatp8
Rp9
.ccollections
OrderedDict
p0
((lp1
(lp2
S'timestamp'
p3
aF7.564742088317871
aa(lp4
S'distance'
p5
aF73.3
aa(lp6
S'state'
p7
aI0
aatp8
Rp9
.ccollections
OrderedDict
p0
((lp1
(lp2
S'timestamp'
p3
aF7.565485000610352
aa(lp4
S'distance'
p5
aF73.3
aa(lp6
S'state'
p7
aI0
aatp8
Rp9
.ccollections
OrderedDict
p0
((lp1
(lp2
S'timestamp'
p3
aF7.57525110244751
aa(lp4
S'distance'
p5
aF73.3
aa(lp6
S'state'
p7
aI0
aatp8
Rp9
.ccollections
OrderedDict
p0
((lp1
(lp2
S'timestamp'
p3
aF7.575963973999023
aa(lp4
S'distance'
p5
aF73.3
aa(lp6
S'state'
p7
aI0
aatp8
Rp9
.ccollections
OrderedDict
p0
((lp1
(lp2
S'timestamp'
p3
aF7.584911108016968
aa(lp4
S'distance'
p5
aF73.3
aa(lp6
S'state'
p7
aI0
aatp8
Rp9
.ccollections
OrderedDict
p0
((lp1
(lp2
S'timestamp'
p3
aF7.585425138473511
aa(lp4
S'distance'
p5
aF73.3
aa(lp6
S'state'
p7
aI0
aatp8
Rp9
.ccollections
OrderedDict
p0
((lp1
(lp2
S'timestamp'
p3
aF7.595289945602417
aa(lp4
S'distance'
p5
aF73.3
aa(lp6
S'state'
p7
aI0
aatp8
Rp9
.ccollections
OrderedDict
p0
((lp1
(lp2
S'timestamp'
p3
aF7.5954060554504395
aa(lp4
S'distance'
p5
aF73.3
aa(lp6
S'state'
p7
aI0
aatp8
Rp9
.ccollections
OrderedDict
p0
((lp1
(lp2
S'timestamp'
p3
aF7.605057954788208
aa(lp4
S'distance'
p5
aF73.3
aa(lp6
S'state'
p7
aI0
aatp8
Rp9
.ccollections
OrderedDict
p0
((lp1
(lp2
S'timestamp'
p3
aF7.605325937271118
aa(lp4
S'distance'
p5
aF73.3
aa(lp6
S'state'
p7
aI0
aatp8
Rp9
.ccollections
OrderedDict
p0
((lp1
(lp2
S'timestamp'
p3
aF7.615516901016235
aa(lp4
S'distance'
p5
aF73.3
aa(lp6
S'state'
p7
aI0
aatp8
Rp9
.ccollections
OrderedDict
p0
((lp1
(lp2
S'timestamp'
p3
aF7.61561393737793
aa(lp4
S'distance'
p5
aF73.3
aa(lp6
S'state'
p7
aI0
aatp8
Rp9
.ccollections
OrderedDict
p0
((lp1
(lp2
S'timestamp'
p3
aF7.624786138534546
aa(lp4
S'distance'
p5
aF73.3
aa(lp6
S'state'
p7
aI0
aatp8
Rp9
.ccollections
OrderedDict
p0
((lp1
(lp2
S'timestamp'
p3
aF7.625400066375732
aa(lp4
S'distance'
p5
aF73.3
aa(lp6
S'state'
p7
aI0
aatp8
Rp9
.ccollections
OrderedDict
p0
((lp1
(lp2
S'timestamp'
p3
aF7.6351001262664795
aa(lp4
S'distance'
p5
aF73.3
aa(lp6
S'state'
p7
aI0
aatp8
Rp9
.ccollections
OrderedDict
p0
((lp1
(lp2
S'timestamp'
p3
aF7.635613918304443
aa(lp4
S'distance'
p5
aF73.3
aa(lp6
S'state'
p7
aI0
aatp8
Rp9
.ccollections
OrderedDict
p0
((lp1
(lp2
S'timestamp'
p3
aF7.645312070846558
aa(lp4
S'distance'
p5
aF73.3
aa(lp6
S'state'
p7
aI0
aatp8
Rp9
.ccollections
OrderedDict
p0
((lp1
(lp2
S'timestamp'
p3
aF7.645393133163452
aa(lp4
S'distance'
p5
aF73.3
aa(lp6
S'state'
p7
aI0
aatp8
Rp9
.ccollections
OrderedDict
p0
((lp1
(lp2
S'timestamp'
p3
aF7.654925107955933
aa(lp4
S'distance'
p5
aF73.3
aa(lp6
S'state'
p7
aI0
aatp8
Rp9
.ccollections
OrderedDict
p0
((lp1
(lp2
S'timestamp'
p3
aF7.655524969100952
aa(lp4
S'distance'
p5
aF73.3
aa(lp6
S'state'
p7
aI0
aatp8
Rp9
.ccollections
OrderedDict
p0
((lp1
(lp2
S'timestamp'
p3
aF7.664941072463989
aa(lp4
S'distance'
p5
aF73.3
aa(lp6
S'state'
p7
aI0
aatp8
Rp9
.ccollections
OrderedDict
p0
((lp1
(lp2
S'timestamp'
p3
aF7.665426015853882
aa(lp4
S'distance'
p5
aF73.3
aa(lp6
S'state'
p7
aI0
aatp8
Rp9
.ccollections
OrderedDict
p0
((lp1
(lp2
S'timestamp'
p3
aF7.674890995025635
aa(lp4
S'distance'
p5
aF73.3
aa(lp6
S'state'
p7
aI0
aatp8
Rp9
.ccollections
OrderedDict
p0
((lp1
(lp2
S'timestamp'
p3
aF7.675626039505005
aa(lp4
S'distance'
p5
aF73.3
aa(lp6
S'state'
p7
aI0
aatp8
Rp9
.ccollections
OrderedDict
p0
((lp1
(lp2
S'timestamp'
p3
aF7.685096979141235
aa(lp4
S'distance'
p5
aF73.3
aa(lp6
S'state'
p7
aI0
aatp8
Rp9
.ccollections
OrderedDict
p0
((lp1
(lp2
S'timestamp'
p3
aF7.6855010986328125
aa(lp4
S'distance'
p5
aF73.3
aa(lp6
S'state'
p7
aI0
aatp8
Rp9
.ccollections
OrderedDict
p0
((lp1
(lp2
S'timestamp'
p3
aF7.695154905319214
aa(lp4
S'distance'
p5
aF73.3
aa(lp6
S'state'
p7
aI0
aatp8
Rp9
.ccollections
OrderedDict
p0
((lp1
(lp2
S'timestamp'
p3
aF7.6954429149627686
aa(lp4
S'distance'
p5
aF73.3
aa(lp6
S'state'
p7
aI0
aatp8
Rp9
.ccollections
OrderedDict
p0
((lp1
(lp2
S'timestamp'
p3
aF7.705410003662109
aa(lp4
S'distance'
p5
aF73.3
aa(lp6
S'state'
p7
aI0
aatp8
Rp9
.ccollections
OrderedDict
p0
((lp1
(lp2
S'timestamp'
p3
aF7.705547094345093
aa(lp4
S'distance'
p5
aF73.3
aa(lp6
S'state'
p7
aI0
aatp8
Rp9
.ccollections
OrderedDict
p0
((lp1
(lp2
S'timestamp'
p3
aF7.715037107467651
aa(lp4
S'distance'
p5
aF73.3
aa(lp6
S'state'
p7
aI0
aatp8
Rp9
.ccollections
OrderedDict
p0
((lp1
(lp2
S'timestamp'
p3
aF7.715524911880493
aa(lp4
S'distance'
p5
aF73.3
aa(lp6
S'state'
p7
aI0
aatp8
Rp9
.ccollections
OrderedDict
p0
((lp1
(lp2
S'timestamp'
p3
aF7.726056098937988
aa(lp4
S'distance'
p5
aF73.3
aa(lp6
S'state'
p7
aI0
aatp8
Rp9
.ccollections
OrderedDict
p0
((lp1
(lp2
S'timestamp'
p3
aF7.726531028747559
aa(lp4
S'distance'
p5
aF73.3
aa(lp6
S'state'
p7
aI0
aatp8
Rp9
.ccollections
OrderedDict
p0
((lp1
(lp2
S'timestamp'
p3
aF7.735793113708496
aa(lp4
S'distance'
p5
aF73.3
aa(lp6
S'state'
p7
aI0
aatp8
Rp9
.ccollections
OrderedDict
p0
((lp1
(lp2
S'timestamp'
p3
aF7.735872983932495
aa(lp4
S'distance'
p5
aF73.3
aa(lp6
S'state'
p7
aI0
aatp8
Rp9
.ccollections
OrderedDict
p0
((lp1
(lp2
S'timestamp'
p3
aF7.745028972625732
aa(lp4
S'distance'
p5
aF73.3
aa(lp6
S'state'
p7
aI0
aatp8
Rp9
.ccollections
OrderedDict
p0
((lp1
(lp2
S'timestamp'
p3
aF7.745587110519409
aa(lp4
S'distance'
p5
aF73.3
aa(lp6
S'state'
p7
aI0
aatp8
Rp9
.ccollections
OrderedDict
p0
((lp1
(lp2
S'timestamp'
p3
aF7.755331039428711
aa(lp4
S'distance'
p5
aF73.3
aa(lp6
S'state'
p7
aI0
aatp8
Rp9
.ccollections
OrderedDict
p0
((lp1
(lp2
S'timestamp'
p3
aF7.755408048629761
aa(lp4
S'distance'
p5
aF73.3
aa(lp6
S'state'
p7
aI0
aatp8
Rp9
.ccollections
OrderedDict
p0
((lp1
(lp2
S'timestamp'
p3
aF7.764897108078003
aa(lp4
S'distance'
p5
aF73.3
aa(lp6
S'state'
p7
aI0
aatp8
Rp9
.ccollections
OrderedDict
p0
((lp1
(lp2
S'timestamp'
p3
aF7.767215013504028
aa(lp4
S'distance'
p5
aF73.3
aa(lp6
S'state'
p7
aI0
aatp8
Rp9
.ccollections
OrderedDict
p0
((lp1
(lp2
S'timestamp'
p3
aF7.7749669551849365
aa(lp4
S'distance'
p5
aF73.3
aa(lp6
S'state'
p7
aI0
aatp8
Rp9
.ccollections
OrderedDict
p0
((lp1
(lp2
S'timestamp'
p3
aF7.775479078292847
aa(lp4
S'distance'
p5
aF73.3
aa(lp6
S'state'
p7
aI0
aatp8
Rp9
.ccollections
OrderedDict
p0
((lp1
(lp2
S'timestamp'
p3
aF7.785022974014282
aa(lp4
S'distance'
p5
aF73.3
aa(lp6
S'state'
p7
aI0
aatp8
Rp9
.ccollections
OrderedDict
p0
((lp1
(lp2
S'timestamp'
p3
aF7.785470008850098
aa(lp4
S'distance'
p5
aF73.3
aa(lp6
S'state'
p7
aI0
aatp8
Rp9
.ccollections
OrderedDict
p0
((lp1
(lp2
S'timestamp'
p3
aF7.795115947723389
aa(lp4
S'distance'
p5
aF73.3
aa(lp6
S'state'
p7
aI0
aatp8
Rp9
.ccollections
OrderedDict
p0
((lp1
(lp2
S'timestamp'
p3
aF7.795471906661987
aa(lp4
S'distance'
p5
aF73.3
aa(lp6
S'state'
p7
aI0
aatp8
Rp9
.ccollections
OrderedDict
p0
((lp1
(lp2
S'timestamp'
p3
aF7.804785966873169
aa(lp4
S'distance'
p5
aF73.3
aa(lp6
S'state'
p7
aI0
aatp8
Rp9
.ccollections
OrderedDict
p0
((lp1
(lp2
S'timestamp'
p3
aF7.806199073791504
aa(lp4
S'distance'
p5
aF73.3
aa(lp6
S'state'
p7
aI0
aatp8
Rp9
.ccollections
OrderedDict
p0
((lp1
(lp2
S'timestamp'
p3
aF7.815524101257324
aa(lp4
S'distance'
p5
aF73.3
aa(lp6
S'state'
p7
aI0
aatp8
Rp9
.ccollections
OrderedDict
p0
((lp1
(lp2
S'timestamp'
p3
aF7.81560206413269
aa(lp4
S'distance'
p5
aF73.3
aa(lp6
S'state'
p7
aI0
aatp8
Rp9
.ccollections
OrderedDict
p0
((lp1
(lp2
S'timestamp'
p3
aF7.828627109527588
aa(lp4
S'distance'
p5
aF73.3
aa(lp6
S'state'
p7
aI0
aatp8
Rp9
.ccollections
OrderedDict
p0
((lp1
(lp2
S'timestamp'
p3
aF7.828725099563599
aa(lp4
S'distance'
p5
aF73.3
aa(lp6
S'state'
p7
aI0
aatp8
Rp9
.ccollections
OrderedDict
p0
((lp1
(lp2
S'timestamp'
p3
aF7.835391044616699
aa(lp4
S'distance'
p5
aF73.3
aa(lp6
S'state'
p7
aI0
aatp8
Rp9
.ccollections
OrderedDict
p0
((lp1
(lp2
S'timestamp'
p3
aF7.835483074188232
aa(lp4
S'distance'
p5
aF73.3
aa(lp6
S'state'
p7
aI0
aatp8
Rp9
.ccollections
OrderedDict
p0
((lp1
(lp2
S'timestamp'
p3
aF7.845699071884155
aa(lp4
S'distance'
p5
aF73.3
aa(lp6
S'state'
p7
aI0
aatp8
Rp9
.ccollections
OrderedDict
p0
((lp1
(lp2
S'timestamp'
p3
aF7.84577202796936
aa(lp4
S'distance'
p5
aF73.3
aa(lp6
S'state'
p7
aI0
aatp8
Rp9
.ccollections
OrderedDict
p0
((lp1
(lp2
S'timestamp'
p3
aF7.855323076248169
aa(lp4
S'distance'
p5
aF73.3
aa(lp6
S'state'
p7
aI0
aatp8
Rp9
.ccollections
OrderedDict
p0
((lp1
(lp2
S'timestamp'
p3
aF7.8556671142578125
aa(lp4
S'distance'
p5
aF73.3
aa(lp6
S'state'
p7
aI0
aatp8
Rp9
.ccollections
OrderedDict
p0
((lp1
(lp2
S'timestamp'
p3
aF7.864849090576172
aa(lp4
S'distance'
p5
aF73.3
aa(lp6
S'state'
p7
aI0
aatp8
Rp9
.ccollections
OrderedDict
p0
((lp1
(lp2
S'timestamp'
p3
aF7.865538120269775
aa(lp4
S'distance'
p5
aF73.3
aa(lp6
S'state'
p7
aI0
aatp8
Rp9
.ccollections
OrderedDict
p0
((lp1
(lp2
S'timestamp'
p3
aF7.874925136566162
aa(lp4
S'distance'
p5
aF73.3
aa(lp6
S'state'
p7
aI0
aatp8
Rp9
.ccollections
OrderedDict
p0
((lp1
(lp2
S'timestamp'
p3
aF7.875504016876221
aa(lp4
S'distance'
p5
aF73.3
aa(lp6
S'state'
p7
aI0
aatp8
Rp9
.ccollections
OrderedDict
p0
((lp1
(lp2
S'timestamp'
p3
aF7.885077953338623
aa(lp4
S'distance'
p5
aF73.3
aa(lp6
S'state'
p7
aI0
aatp8
Rp9
.ccollections
OrderedDict
p0
((lp1
(lp2
S'timestamp'
p3
aF7.885673999786377
aa(lp4
S'distance'
p5
aF73.3
aa(lp6
S'state'
p7
aI0
aatp8
Rp9
.ccollections
OrderedDict
p0
((lp1
(lp2
S'timestamp'
p3
aF7.895013093948364
aa(lp4
S'distance'
p5
aF73.3
aa(lp6
S'state'
p7
aI0
aatp8
Rp9
.ccollections
OrderedDict
p0
((lp1
(lp2
S'timestamp'
p3
aF7.895359039306641
aa(lp4
S'distance'
p5
aF73.3
aa(lp6
S'state'
p7
aI0
aatp8
Rp9
.ccollections
OrderedDict
p0
((lp1
(lp2
S'timestamp'
p3
aF7.905118942260742
aa(lp4
S'distance'
p5
aF73.3
aa(lp6
S'state'
p7
aI0
aatp8
Rp9
.ccollections
OrderedDict
p0
((lp1
(lp2
S'timestamp'
p3
aF7.905375003814697
aa(lp4
S'distance'
p5
aF73.3
aa(lp6
S'state'
p7
aI0
aatp8
Rp9
.ccollections
OrderedDict
p0
((lp1
(lp2
S'timestamp'
p3
aF7.915067911148071
aa(lp4
S'distance'
p5
aF73.3
aa(lp6
S'state'
p7
aI0
aatp8
Rp9
.ccollections
OrderedDict
p0
((lp1
(lp2
S'timestamp'
p3
aF7.91539192199707
aa(lp4
S'distance'
p5
aF73.3
aa(lp6
S'state'
p7
aI0
aatp8
Rp9
.ccollections
OrderedDict
p0
((lp1
(lp2
S'timestamp'
p3
aF7.924823999404907
aa(lp4
S'distance'
p5
aF73.3
aa(lp6
S'state'
p7
aI0
aatp8
Rp9
.ccollections
OrderedDict
p0
((lp1
(lp2
S'timestamp'
p3
aF7.925584077835083
aa(lp4
S'distance'
p5
aF73.3
aa(lp6
S'state'
p7
aI0
aatp8
Rp9
.ccollections
OrderedDict
p0
((lp1
(lp2
S'timestamp'
p3
aF7.935141086578369
aa(lp4
S'distance'
p5
aF73.3
aa(lp6
S'state'
p7
aI0
aatp8
Rp9
.ccollections
OrderedDict
p0
((lp1
(lp2
S'timestamp'
p3
aF7.936312913894653
aa(lp4
S'distance'
p5
aF73.3
aa(lp6
S'state'
p7
aI0
aatp8
Rp9
.ccollections
OrderedDict
p0
((lp1
(lp2
S'timestamp'
p3
aF7.946883916854858
aa(lp4
S'distance'
p5
aF73.3
aa(lp6
S'state'
p7
aI0
aatp8
Rp9
.ccollections
OrderedDict
p0
((lp1
(lp2
S'timestamp'
p3
aF7.947093963623047
aa(lp4
S'distance'
p5
aF73.3
aa(lp6
S'state'
p7
aI0
aatp8
Rp9
.ccollections
OrderedDict
p0
((lp1
(lp2
S'timestamp'
p3
aF7.955065965652466
aa(lp4
S'distance'
p5
aF73.3
aa(lp6
S'state'
p7
aI0
aatp8
Rp9
.ccollections
OrderedDict
p0
((lp1
(lp2
S'timestamp'
p3
aF7.95539402961731
aa(lp4
S'distance'
p5
aF73.3
aa(lp6
S'state'
p7
aI0
aatp8
Rp9
.ccollections
OrderedDict
p0
((lp1
(lp2
S'timestamp'
p3
aF7.965033054351807
aa(lp4
S'distance'
p5
aF73.3
aa(lp6
S'state'
p7
aI0
aatp8
Rp9
.ccollections
OrderedDict
p0
((lp1
(lp2
S'timestamp'
p3
aF7.9657979011535645
aa(lp4
S'distance'
p5
aF73.3
aa(lp6
S'state'
p7
aI0
aatp8
Rp9
.ccollections
OrderedDict
p0
((lp1
(lp2
S'timestamp'
p3
aF7.9750189781188965
aa(lp4
S'distance'
p5
aF73.3
aa(lp6
S'state'
p7
aI400
aatp8
Rp9
.ccollections
OrderedDict
p0
((lp1
(lp2
S'timestamp'
p3
aF7.975414037704468
aa(lp4
S'distance'
p5
aF73.3
aa(lp6
S'state'
p7
aI400
aatp8
Rp9
.ccollections
OrderedDict
p0
((lp1
(lp2
S'timestamp'
p3
aF7.984803915023804
aa(lp4
S'distance'
p5
aF73.3
aa(lp6
S'state'
p7
aI400
aatp8
Rp9
.ccollections
OrderedDict
p0
((lp1
(lp2
S'timestamp'
p3
aF7.9865570068359375
aa(lp4
S'distance'
p5
aF73.3
aa(lp6
S'state'
p7
aI400
aatp8
Rp9
.ccollections
OrderedDict
p0
((lp1
(lp2
S'timestamp'
p3
aF7.995775938034058
aa(lp4
S'distance'
p5
aF73.3
aa(lp6
S'state'
p7
aI400
aatp8
Rp9
.ccollections
OrderedDict
p0
((lp1
(lp2
S'timestamp'
p3
aF7.995923042297363
aa(lp4
S'distance'
p5
aF73.3
aa(lp6
S'state'
p7
aI400
aatp8
Rp9
.