ccollections
OrderedDict
p0
((lp1
(lp2
S'state'
p3
aI0
aa(lp4
S'distance'
p5
aF379.6894989013672
aa(lp6
S'timestamp'
p7
aF0.00016117095947265625
aatp8
Rp9
.ccollections
OrderedDict
p0
((lp1
(lp2
S'state'
p3
aI0
aa(lp4
S'distance'
p5
aF379.6894989013672
aa(lp6
S'timestamp'
p7
aF0.0003960132598876953
aatp8
Rp9
.ccollections
OrderedDict
p0
((lp1
(lp2
S'state'
p3
aI0
aa(lp4
S'distance'
p5
aF379.6894989013672
aa(lp6
S'timestamp'
p7
aF0.001775979995727539
aatp8
Rp9
.ccollections
OrderedDict
p0
((lp1
(lp2
S'state'
p3
aI0
aa(lp4
S'distance'
p5
aF379.6894989013672
aa(lp6
S'timestamp'
p7
aF0.002547025680541992
aatp8
Rp9
.ccollections
OrderedDict
p0
((lp1
(lp2
S'state'
p3
aI0
aa(lp4
S'distance'
p5
aF379.6894989013672
aa(lp6
S'timestamp'
p7
aF0.009446144104003906
aatp8
Rp9
.ccollections
OrderedDict
p0
((lp1
(lp2
S'state'
p3
aI0
aa(lp4
S'distance'
p5
aF379.6894989013672
aa(lp6
S'timestamp'
p7
aF0.00988316535949707
aatp8
Rp9
.ccollections
OrderedDict
p0
((lp1
(lp2
S'state'
p3
aI0
aa(lp4
S'distance'
p5
aF379.6894989013672
aa(lp6
S'timestamp'
p7
aF0.019756078720092773
aatp8
Rp9
.ccollections
OrderedDict
p0
((lp1
(lp2
S'state'
p3
aI0
aa(lp4
S'distance'
p5
aF379.6894989013672
aa(lp6
S'timestamp'
p7
aF0.019918203353881836
aatp8
Rp9
.ccollections
OrderedDict
p0
((lp1
(lp2
S'state'
p3
aI0
aa(lp4
S'distance'
p5
aF379.6894989013672
aa(lp6
S'timestamp'
p7
aF0.031031131744384766
aatp8
Rp9
.ccollections
OrderedDict
p0
((lp1
(lp2
S'state'
p3
aI0
aa(lp4
S'distance'
p5
aF379.6894989013672
aa(lp6
S'timestamp'
p7
aF0.032073020935058594
aatp8
Rp9
.ccollections
OrderedDict
p0
((lp1
(lp2
S'state'
p3
aI0
aa(lp4
S'distance'
p5
aF379.6894989013672
aa(lp6
S'timestamp'
p7
aF0.040995121002197266
aatp8
Rp9
.ccollections
OrderedDict
p0
((lp1
(lp2
S'state'
p3
aI0
aa(lp4
S'distance'
p5
aF379.6894989013672
aa(lp6
S'timestamp'
p7
aF0.0412139892578125
aatp8
Rp9
.ccollections
OrderedDict
p0
((lp1
(lp2
S'state'
p3
aI0
aa(lp4
S'distance'
p5
aF379.6894989013672
aa(lp6
S'timestamp'
p7
aF0.04939103126525879
aatp8
Rp9
.ccollections
OrderedDict
p0
((lp1
(lp2
S'state'
p3
aI0
aa(lp4
S'distance'
p5
aF379.6894989013672
aa(lp6
S'timestamp'
p7
aF0.04988718032836914
aatp8
Rp9
.ccollections
OrderedDict
p0
((lp1
(lp2
S'state'
p3
aI0
aa(lp4
S'distance'
p5
aF379.6894989013672
aa(lp6
S'timestamp'
p7
aF0.05979609489440918
aatp8
Rp9
.ccollections
OrderedDict
p0
((lp1
(lp2
S'state'
p3
aI0
aa(lp4
S'distance'
p5
aF379.6894989013672
aa(lp6
S'timestamp'
p7
aF0.05991506576538086
aatp8
Rp9
.ccollections
OrderedDict
p0
((lp1
(lp2
S'state'
p3
aI0
aa(lp4
S'distance'
p5
aF379.6894989013672
aa(lp6
S'timestamp'
p7
aF0.08111119270324707
aatp8
Rp9
.ccollections
OrderedDict
p0
((lp1
(lp2
S'state'
p3
aI0
aa(lp4
S'distance'
p5
aF379.6894989013672
aa(lp6
S'timestamp'
p7
aF0.08159208297729492
aatp8
Rp9
.ccollections
OrderedDict
p0
((lp1
(lp2
S'state'
p3
aI0
aa(lp4
S'distance'
p5
aF379.6894989013672
aa(lp6
S'timestamp'
p7
aF0.08204317092895508
aatp8
Rp9
.ccollections
OrderedDict
p0
((lp1
(lp2
S'state'
p3
aI0
aa(lp4
S'distance'
p5
aF379.6894989013672
aa(lp6
S'timestamp'
p7
aF0.08213400840759277
aatp8
Rp9
.ccollections
OrderedDict
p0
((lp1
(lp2
S'state'
p3
aI0
aa(lp4
S'distance'
p5
aF379.6894989013672
aa(lp6
S'timestamp'
p7
aF0.08920502662658691
aatp8
Rp9
.ccollections
OrderedDict
p0
((lp1
(lp2
S'state'
p3
aI0
aa(lp4
S'distance'
p5
aF379.6894989013672
aa(lp6
S'timestamp'
p7
aF0.08980607986450195
aatp8
Rp9
.ccollections
OrderedDict
p0
((lp1
(lp2
S'state'
p3
aI0
aa(lp4
S'distance'
p5
aF379.6894989013672
aa(lp6
S'timestamp'
p7
aF0.10097503662109375
aatp8
Rp9
.ccollections
OrderedDict
p0
((lp1
(lp2
S'state'
p3
aI0
aa(lp4
S'distance'
p5
aF379.6894989013672
aa(lp6
S'timestamp'
p7
aF0.10106015205383301
aatp8
Rp9
.ccollections
OrderedDict
p0
((lp1
(lp2
S'state'
p3
aI0
aa(lp4
S'distance'
p5
aF379.6894989013672
aa(lp6
S'timestamp'
p7
aF0.10974717140197754
aatp8
Rp9
.ccollections
OrderedDict
p0
((lp1
(lp2
S'state'
p3
aI0
aa(lp4
S'distance'
p5
aF379.6894989013672
aa(lp6
S'timestamp'
p7
aF0.10987210273742676
aatp8
Rp9
.ccollections
OrderedDict
p0
((lp1
(lp2
S'state'
p3
aI0
aa(lp4
S'distance'
p5
aF379.6894989013672
aa(lp6
S'timestamp'
p7
aF0.12008905410766602
aatp8
Rp9
.ccollections
OrderedDict
p0
((lp1
(lp2
S'state'
p3
aI0
aa(lp4
S'distance'
p5
aF379.6894989013672
aa(lp6
S'timestamp'
p7
aF0.12017703056335449
aatp8
Rp9
.ccollections
OrderedDict
p0
((lp1
(lp2
S'state'
p3
aI0
aa(lp4
S'distance'
p5
aF379.6894989013672
aa(lp6
S'timestamp'
p7
aF0.1297011375427246
aatp8
Rp9
.ccollections
OrderedDict
p0
((lp1
(lp2
S'state'
p3
aI0
aa(lp4
S'distance'
p5
aF379.6894989013672
aa(lp6
S'timestamp'
p7
aF0.12984609603881836
aatp8
Rp9
.ccollections
OrderedDict
p0
((lp1
(lp2
S'state'
p3
aI0
aa(lp4
S'distance'
p5
aF379.6894989013672
aa(lp6
S'timestamp'
p7
aF0.13922715187072754
aatp8
Rp9
.ccollections
OrderedDict
p0
((lp1
(lp2
S'state'
p3
aI0
aa(lp4
S'distance'
p5
aF379.6894989013672
aa(lp6
S'timestamp'
p7
aF0.13983917236328125
aatp8
Rp9
.ccollections
OrderedDict
p0
((lp1
(lp2
S'state'
p3
aI0
aa(lp4
S'distance'
p5
aF379.6894989013672
aa(lp6
S'timestamp'
p7
aF0.1599102020263672
aatp8
Rp9
.ccollections
OrderedDict
p0
((lp1
(lp2
S'state'
p3
aI0
aa(lp4
S'distance'
p5
aF379.6894989013672
aa(lp6
S'timestamp'
p7
aF0.16038203239440918
aatp8
Rp9
.ccollections
OrderedDict
p0
((lp1
(lp2
S'state'
p3
aI0
aa(lp4
S'distance'
p5
aF379.6894989013672
aa(lp6
S'timestamp'
p7
aF0.16160106658935547
aatp8
Rp9
.ccollections
OrderedDict
p0
((lp1
(lp2
S'state'
p3
aI0
aa(lp4
S'distance'
p5
aF379.6894989013672
aa(lp6
S'timestamp'
p7
aF0.16210007667541504
aatp8
Rp9
.ccollections
OrderedDict
p0
((lp1
(lp2
S'state'
p3
aI0
aa(lp4
S'distance'
p5
aF379.6894989013672
aa(lp6
S'timestamp'
p7
aF0.16913700103759766
aatp8
Rp9
.ccollections
OrderedDict
p0
((lp1
(lp2
S'state'
p3
aI0
aa(lp4
S'distance'
p5
aF379.6894989013672
aa(lp6
S'timestamp'
p7
aF0.1697101593017578
aatp8
Rp9
.ccollections
OrderedDict
p0
((lp1
(lp2
S'state'
p3
aI0
aa(lp4
S'distance'
p5
aF379.6894989013672
aa(lp6
S'timestamp'
p7
aF0.179246187210083
aatp8
Rp9
.ccollections
OrderedDict
p0
((lp1
(lp2
S'state'
p3
aI0
aa(lp4
S'distance'
p5
aF379.6894989013672
aa(lp6
S'timestamp'
p7
aF0.17968320846557617
aatp8
Rp9
.ccollections
OrderedDict
p0
((lp1
(lp2
S'state'
p3
aI0
aa(lp4
S'distance'
p5
aF379.6894989013672
aa(lp6
S'timestamp'
p7
aF0.1896979808807373
aatp8
Rp9
.ccollections
OrderedDict
p0
((lp1
(lp2
S'state'
p3
aI0
aa(lp4
S'distance'
p5
aF379.6894989013672
aa(lp6
S'timestamp'
p7
aF0.18983006477355957
aatp8
Rp9
.ccollections
OrderedDict
p0
((lp1
(lp2
S'state'
p3
aI0
aa(lp4
S'distance'
p5
aF379.6894989013672
aa(lp6
S'timestamp'
p7
aF0.20022320747375488
aatp8
Rp9
.ccollections
OrderedDict
p0
((lp1
(lp2
S'state'
p3
aI0
aa(lp4
S'distance'
p5
aF379.6894989013672
aa(lp6
S'timestamp'
p7
aF0.20061612129211426
aatp8
Rp9
.ccollections
OrderedDict
p0
((lp1
(lp2
S'state'
p3
aI0
aa(lp4
S'distance'
p5
aF379.6894989013672
aa(lp6
S'timestamp'
p7
aF0.2091970443725586
aatp8
Rp9
.ccollections
OrderedDict
p0
((lp1
(lp2
S'state'
p3
aI0
aa(lp4
S'distance'
p5
aF379.6894989013672
aa(lp6
S'timestamp'
p7
aF0.20981502532958984
aatp8
Rp9
.ccollections
OrderedDict
p0
((lp1
(lp2
S'state'
p3
aI0
aa(lp4
S'distance'
p5
aF379.6894989013672
aa(lp6
S'timestamp'
p7
aF0.22192907333374023
aatp8
Rp9
.ccollections
OrderedDict
p0
((lp1
(lp2
S'state'
p3
aI0
aa(lp4
S'distance'
p5
aF379.6894989013672
aa(lp6
S'timestamp'
p7
aF0.22232699394226074
aatp8
Rp9
.ccollections
OrderedDict
p0
((lp1
(lp2
S'state'
p3
aI0
aa(lp4
S'distance'
p5
aF379.6894989013672
aa(lp6
S'timestamp'
p7
aF0.22913408279418945
aatp8
Rp9
.ccollections
OrderedDict
p0
((lp1
(lp2
S'state'
p3
aI0
aa(lp4
S'distance'
p5
aF379.6894989013672
aa(lp6
S'timestamp'
p7
aF0.22970318794250488
aatp8
Rp9
.ccollections
OrderedDict
p0
((lp1
(lp2
S'state'
p3
aI0
aa(lp4
S'distance'
p5
aF379.6894989013672
aa(lp6
S'timestamp'
p7
aF0.23966312408447266
aatp8
Rp9
.ccollections
OrderedDict
p0
((lp1
(lp2
S'state'
p3
aI0
aa(lp4
S'distance'
p5
aF379.6894989013672
aa(lp6
S'timestamp'
p7
aF0.23987698554992676
aatp8
Rp9
.ccollections
OrderedDict
p0
((lp1
(lp2
S'state'
p3
aI0
aa(lp4
S'distance'
p5
aF379.6894989013672
aa(lp6
S'timestamp'
p7
aF0.24901199340820312
aatp8
Rp9
.ccollections
OrderedDict
p0
((lp1
(lp2
S'state'
p3
aI0
aa(lp4
S'distance'
p5
aF379.6894989013672
aa(lp6
S'timestamp'
p7
aF0.24973607063293457
aatp8
Rp9
.ccollections
OrderedDict
p0
((lp1
(lp2
S'state'
p3
aI0
aa(lp4
S'distance'
p5
aF379.6894989013672
aa(lp6
S'timestamp'
p7
aF0.2591969966888428
aatp8
Rp9
.ccollections
OrderedDict
p0
((lp1
(lp2
S'state'
p3
aI0
aa(lp4
S'distance'
p5
aF379.6894989013672
aa(lp6
S'timestamp'
p7
aF0.25965309143066406
aatp8
Rp9
.ccollections
OrderedDict
p0
((lp1
(lp2
S'state'
p3
aI0
aa(lp4
S'distance'
p5
aF379.6894989013672
aa(lp6
S'timestamp'
p7
aF0.26943516731262207
aatp8
Rp9
.ccollections
OrderedDict
p0
((lp1
(lp2
S'state'
p3
aI0
aa(lp4
S'distance'
p5
aF379.6894989013672
aa(lp6
S'timestamp'
p7
aF0.27043700218200684
aatp8
Rp9
.ccollections
OrderedDict
p0
((lp1
(lp2
S'state'
p3
aI0
aa(lp4
S'distance'
p5
aF379.6894989013672
aa(lp6
S'timestamp'
p7
aF0.28949999809265137
aatp8
Rp9
.ccollections
OrderedDict
p0
((lp1
(lp2
S'state'
p3
aI0
aa(lp4
S'distance'
p5
aF379.6894989013672
aa(lp6
S'timestamp'
p7
aF0.28978610038757324
aatp8
Rp9
.ccollections
OrderedDict
p0
((lp1
(lp2
S'state'
p3
aI0
aa(lp4
S'distance'
p5
aF379.6894989013672
aa(lp6
S'timestamp'
p7
aF0.290067195892334
aatp8
Rp9
.ccollections
OrderedDict
p0
((lp1
(lp2
S'state'
p3
aI0
aa(lp4
S'distance'
p5
aF379.6894989013672
aa(lp6
S'timestamp'
p7
aF0.29958200454711914
aatp8
Rp9
.ccollections
OrderedDict
p0
((lp1
(lp2
S'state'
p3
aI0
aa(lp4
S'distance'
p5
aF379.6894989013672
aa(lp6
S'timestamp'
p7
aF0.2999391555786133
aatp8
Rp9
.ccollections
OrderedDict
p0
((lp1
(lp2
S'state'
p3
aI0
aa(lp4
S'distance'
p5
aF379.6894989013672
aa(lp6
S'timestamp'
p7
aF0.3008420467376709
aatp8
Rp9
.ccollections
OrderedDict
p0
((lp1
(lp2
S'state'
p3
aI0
aa(lp4
S'distance'
p5
aF379.6894989013672
aa(lp6
S'timestamp'
p7
aF0.30953407287597656
aatp8
Rp9
.ccollections
OrderedDict
p0
((lp1
(lp2
S'state'
p3
aI0
aa(lp4
S'distance'
p5
aF379.6894989013672
aa(lp6
S'timestamp'
p7
aF0.3096179962158203
aatp8
Rp9
.ccollections
OrderedDict
p0
((lp1
(lp2
S'state'
p3
aI0
aa(lp4
S'distance'
p5
aF379.6894989013672
aa(lp6
S'timestamp'
p7
aF0.3194890022277832
aatp8
Rp9
.ccollections
OrderedDict
p0
((lp1
(lp2
S'state'
p3
aI0
aa(lp4
S'distance'
p5
aF379.6894989013672
aa(lp6
S'timestamp'
p7
aF0.31957006454467773
aatp8
Rp9
.ccollections
OrderedDict
p0
((lp1
(lp2
S'state'
p3
aI0
aa(lp4
S'distance'
p5
aF379.6894989013672
aa(lp6
S'timestamp'
p7
aF0.32918310165405273
aatp8
Rp9
.ccollections
OrderedDict
p0
((lp1
(lp2
S'state'
p3
aI0
aa(lp4
S'distance'
p5
aF379.6894989013672
aa(lp6
S'timestamp'
p7
aF0.3295021057128906
aatp8
Rp9
.ccollections
OrderedDict
p0
((lp1
(lp2
S'state'
p3
aI0
aa(lp4
S'distance'
p5
aF379.6894989013672
aa(lp6
S'timestamp'
p7
aF0.33901500701904297
aatp8
Rp9
.ccollections
OrderedDict
p0
((lp1
(lp2
S'state'
p3
aI0
aa(lp4
S'distance'
p5
aF379.6894989013672
aa(lp6
S'timestamp'
p7
aF0.3397030830383301
aatp8
Rp9
.ccollections
OrderedDict
p0
((lp1
(lp2
S'state'
p3
aI0
aa(lp4
S'distance'
p5
aF379.6894989013672
aa(lp6
S'timestamp'
p7
aF0.34978508949279785
aatp8
Rp9
.ccollections
OrderedDict
p0
((lp1
(lp2
S'state'
p3
aI0
aa(lp4
S'distance'
p5
aF379.6894989013672
aa(lp6
S'timestamp'
p7
aF0.35002613067626953
aatp8
Rp9
.ccollections
OrderedDict
p0
((lp1
(lp2
S'state'
p3
aI0
aa(lp4
S'distance'
p5
aF379.6894989013672
aa(lp6
S'timestamp'
p7
aF0.3592221736907959
aatp8
Rp9
.ccollections
OrderedDict
p0
((lp1
(lp2
S'state'
p3
aI0
aa(lp4
S'distance'
p5
aF379.6894989013672
aa(lp6
S'timestamp'
p7
aF0.3595011234283447
aatp8
Rp9
.ccollections
OrderedDict
p0
((lp1
(lp2
S'state'
p3
aI0
aa(lp4
S'distance'
p5
aF379.6894989013672
aa(lp6
S'timestamp'
p7
aF0.36903810501098633
aatp8
Rp9
.ccollections
OrderedDict
p0
((lp1
(lp2
S'state'
p3
aI0
aa(lp4
S'distance'
p5
aF379.6894989013672
aa(lp6
S'timestamp'
p7
aF0.36959004402160645
aatp8
Rp9
.ccollections
OrderedDict
p0
((lp1
(lp2
S'state'
p3
aI0
aa(lp4
S'distance'
p5
aF379.6894989013672
aa(lp6
S'timestamp'
p7
aF0.3794410228729248
aatp8
Rp9
.ccollections
OrderedDict
p0
((lp1
(lp2
S'state'
p3
aI0
aa(lp4
S'distance'
p5
aF379.6894989013672
aa(lp6
S'timestamp'
p7
aF0.379561185836792
aatp8
Rp9
.ccollections
OrderedDict
p0
((lp1
(lp2
S'state'
p3
aI0
aa(lp4
S'distance'
p5
aF379.6894989013672
aa(lp6
S'timestamp'
p7
aF0.38964200019836426
aatp8
Rp9
.ccollections
OrderedDict
p0
((lp1
(lp2
S'state'
p3
aI0
aa(lp4
S'distance'
p5
aF379.6894989013672
aa(lp6
S'timestamp'
p7
aF0.3897240161895752
aatp8
Rp9
.ccollections
OrderedDict
p0
((lp1
(lp2
S'state'
p3
aI0
aa(lp4
S'distance'
p5
aF379.6894989013672
aa(lp6
S'timestamp'
p7
aF0.399569034576416
aatp8
Rp9
.ccollections
OrderedDict
p0
((lp1
(lp2
S'state'
p3
aI0
aa(lp4
S'distance'
p5
aF379.6894989013672
aa(lp6
S'timestamp'
p7
aF0.3996901512145996
aatp8
Rp9
.ccollections
OrderedDict
p0
((lp1
(lp2
S'state'
p3
aI0
aa(lp4
S'distance'
p5
aF379.6894989013672
aa(lp6
S'timestamp'
p7
aF0.40900516510009766
aatp8
Rp9
.ccollections
OrderedDict
p0
((lp1
(lp2
S'state'
p3
aI0
aa(lp4
S'distance'
p5
aF379.6894989013672
aa(lp6
S'timestamp'
p7
aF0.40955615043640137
aatp8
Rp9
.ccollections
OrderedDict
p0
((lp1
(lp2
S'state'
p3
aI0
aa(lp4
S'distance'
p5
aF379.6894989013672
aa(lp6
S'timestamp'
p7
aF0.43910908699035645
aatp8
Rp9
.ccollections
OrderedDict
p0
((lp1
(lp2
S'state'
p3
aI0
aa(lp4
S'distance'
p5
aF379.6894989013672
aa(lp6
S'timestamp'
p7
aF0.4393641948699951
aatp8
Rp9
.ccollections
OrderedDict
p0
((lp1
(lp2
S'state'
p3
aI0
aa(lp4
S'distance'
p5
aF379.6894989013672
aa(lp6
S'timestamp'
p7
aF0.4406881332397461
aatp8
Rp9
.ccollections
OrderedDict
p0
((lp1
(lp2
S'state'
p3
aI0
aa(lp4
S'distance'
p5
aF379.6894989013672
aa(lp6
S'timestamp'
p7
aF0.44188618659973145
aatp8
Rp9
.ccollections
OrderedDict
p0
((lp1
(lp2
S'state'
p3
aI0
aa(lp4
S'distance'
p5
aF379.6894989013672
aa(lp6
S'timestamp'
p7
aF0.4494171142578125
aatp8
Rp9
.ccollections
OrderedDict
p0
((lp1
(lp2
S'state'
p3
aI0
aa(lp4
S'distance'
p5
aF379.6894989013672
aa(lp6
S'timestamp'
p7
aF0.4496800899505615
aatp8
Rp9
.ccollections
OrderedDict
p0
((lp1
(lp2
S'state'
p3
aI0
aa(lp4
S'distance'
p5
aF379.6894989013672
aa(lp6
S'timestamp'
p7
aF0.4505190849304199
aatp8
Rp9
.ccollections
OrderedDict
p0
((lp1
(lp2
S'state'
p3
aI0
aa(lp4
S'distance'
p5
aF379.6894989013672
aa(lp6
S'timestamp'
p7
aF0.45122718811035156
aatp8
Rp9
.ccollections
OrderedDict
p0
((lp1
(lp2
S'state'
p3
aI0
aa(lp4
S'distance'
p5
aF379.6894989013672
aa(lp6
S'timestamp'
p7
aF0.4594740867614746
aatp8
Rp9
.ccollections
OrderedDict
p0
((lp1
(lp2
S'state'
p3
aI0
aa(lp4
S'distance'
p5
aF379.6894989013672
aa(lp6
S'timestamp'
p7
aF0.45960402488708496
aatp8
Rp9
.ccollections
OrderedDict
p0
((lp1
(lp2
S'state'
p3
aI0
aa(lp4
S'distance'
p5
aF379.6894989013672
aa(lp6
S'timestamp'
p7
aF0.47023701667785645
aatp8
Rp9
.ccollections
OrderedDict
p0
((lp1
(lp2
S'state'
p3
aI0
aa(lp4
S'distance'
p5
aF379.6894989013672
aa(lp6
S'timestamp'
p7
aF0.4704301357269287
aatp8
Rp9
.ccollections
OrderedDict
p0
((lp1
(lp2
S'state'
p3
aI0
aa(lp4
S'distance'
p5
aF379.6894989013672
aa(lp6
S'timestamp'
p7
aF0.47907209396362305
aatp8
Rp9
.ccollections
OrderedDict
p0
((lp1
(lp2
S'state'
p3
aI0
aa(lp4
S'distance'
p5
aF379.6894989013672
aa(lp6
S'timestamp'
p7
aF0.47951412200927734
aatp8
Rp9
.ccollections
OrderedDict
p0
((lp1
(lp2
S'state'
p3
aI0
aa(lp4
S'distance'
p5
aF379.6894989013672
aa(lp6
S'timestamp'
p7
aF0.4892151355743408
aatp8
Rp9
.ccollections
OrderedDict
p0
((lp1
(lp2
S'state'
p3
aI0
aa(lp4
S'distance'
p5
aF379.6894989013672
aa(lp6
S'timestamp'
p7
aF0.48934316635131836
aatp8
Rp9
.ccollections
OrderedDict
p0
((lp1
(lp2
S'state'
p3
aI0
aa(lp4
S'distance'
p5
aF379.6894989013672
aa(lp6
S'timestamp'
p7
aF0.4997081756591797
aatp8
Rp9
.ccollections
OrderedDict
p0
((lp1
(lp2
S'state'
p3
aI0
aa(lp4
S'distance'
p5
aF379.6894989013672
aa(lp6
S'timestamp'
p7
aF0.4997889995574951
aatp8
Rp9
.ccollections
OrderedDict
p0
((lp1
(lp2
S'state'
p3
aI0
aa(lp4
S'distance'
p5
aF379.6894989013672
aa(lp6
S'timestamp'
p7
aF0.5100650787353516
aatp8
Rp9
.ccollections
OrderedDict
p0
((lp1
(lp2
S'state'
p3
aI0
aa(lp4
S'distance'
p5
aF379.6894989013672
aa(lp6
S'timestamp'
p7
aF0.520078182220459
aatp8
Rp9
.ccollections
OrderedDict
p0
((lp1
(lp2
S'state'
p3
aI0
aa(lp4
S'distance'
p5
aF379.6894989013672
aa(lp6
S'timestamp'
p7
aF0.5204291343688965
aatp8
Rp9
.ccollections
OrderedDict
p0
((lp1
(lp2
S'state'
p3
aI0
aa(lp4
S'distance'
p5
aF379.6894989013672
aa(lp6
S'timestamp'
p7
aF0.5300450325012207
aatp8
Rp9
.ccollections
OrderedDict
p0
((lp1
(lp2
S'state'
p3
aI0
aa(lp4
S'distance'
p5
aF379.6894989013672
aa(lp6
S'timestamp'
p7
aF0.5301260948181152
aatp8
Rp9
.ccollections
OrderedDict
p0
((lp1
(lp2
S'state'
p3
aI0
aa(lp4
S'distance'
p5
aF379.6894989013672
aa(lp6
S'timestamp'
p7
aF0.5301961898803711
aatp8
Rp9
.ccollections
OrderedDict
p0
((lp1
(lp2
S'state'
p3
aI0
aa(lp4
S'distance'
p5
aF379.6894989013672
aa(lp6
S'timestamp'
p7
aF0.5389502048492432
aatp8
Rp9
.ccollections
OrderedDict
p0
((lp1
(lp2
S'state'
p3
aI0
aa(lp4
S'distance'
p5
aF379.6894989013672
aa(lp6
S'timestamp'
p7
aF0.5397510528564453
aatp8
Rp9
.ccollections
OrderedDict
p0
((lp1
(lp2
S'state'
p3
aI0
aa(lp4
S'distance'
p5
aF379.6894989013672
aa(lp6
S'timestamp'
p7
aF0.5496749877929688
aatp8
Rp9
.ccollections
OrderedDict
p0
((lp1
(lp2
S'state'
p3
aI0
aa(lp4
S'distance'
p5
aF379.6894989013672
aa(lp6
S'timestamp'
p7
aF0.5497779846191406
aatp8
Rp9
.ccollections
OrderedDict
p0
((lp1
(lp2
S'state'
p3
aI0
aa(lp4
S'distance'
p5
aF379.6894989013672
aa(lp6
S'timestamp'
p7
aF0.5592420101165771
aatp8
Rp9
.ccollections
OrderedDict
p0
((lp1
(lp2
S'state'
p3
aI0
aa(lp4
S'distance'
p5
aF379.6894989013672
aa(lp6
S'timestamp'
p7
aF0.5594711303710938
aatp8
Rp9
.ccollections
OrderedDict
p0
((lp1
(lp2
S'state'
p3
aI0
aa(lp4
S'distance'
p5
aF379.6894989013672
aa(lp6
S'timestamp'
p7
aF0.5688600540161133
aatp8
Rp9
.ccollections
OrderedDict
p0
((lp1
(lp2
S'state'
p3
aI0
aa(lp4
S'distance'
p5
aF379.6894989013672
aa(lp6
S'timestamp'
p7
aF0.5700011253356934
aatp8
Rp9
.ccollections
OrderedDict
p0
((lp1
(lp2
S'state'
p3
aI0
aa(lp4
S'distance'
p5
aF379.6894989013672
aa(lp6
S'timestamp'
p7
aF0.5789110660552979
aatp8
Rp9
.ccollections
OrderedDict
p0
((lp1
(lp2
S'state'
p3
aI0
aa(lp4
S'distance'
p5
aF379.6894989013672
aa(lp6
S'timestamp'
p7
aF0.5793201923370361
aatp8
Rp9
.ccollections
OrderedDict
p0
((lp1
(lp2
S'state'
p3
aI0
aa(lp4
S'distance'
p5
aF379.6894989013672
aa(lp6
S'timestamp'
p7
aF0.5887742042541504
aatp8
Rp9
.ccollections
OrderedDict
p0
((lp1
(lp2
S'state'
p3
aI0
aa(lp4
S'distance'
p5
aF379.6894989013672
aa(lp6
S'timestamp'
p7
aF0.5894091129302979
aatp8
Rp9
.ccollections
OrderedDict
p0
((lp1
(lp2
S'state'
p3
aI0
aa(lp4
S'distance'
p5
aF379.6894989013672
aa(lp6
S'timestamp'
p7
aF0.5993521213531494
aatp8
Rp9
.ccollections
OrderedDict
p0
((lp1
(lp2
S'state'
p3
aI0
aa(lp4
S'distance'
p5
aF379.6894989013672
aa(lp6
S'timestamp'
p7
aF0.6002562046051025
aatp8
Rp9
.ccollections
OrderedDict
p0
((lp1
(lp2
S'state'
p3
aI0
aa(lp4
S'distance'
p5
aF379.6894989013672
aa(lp6
S'timestamp'
p7
aF0.6194281578063965
aatp8
Rp9
.ccollections
OrderedDict
p0
((lp1
(lp2
S'state'
p3
aI0
aa(lp4
S'distance'
p5
aF379.6894989013672
aa(lp6
S'timestamp'
p7
aF0.6202101707458496
aatp8
Rp9
.ccollections
OrderedDict
p0
((lp1
(lp2
S'state'
p3
aI0
aa(lp4
S'distance'
p5
aF379.6894989013672
aa(lp6
S'timestamp'
p7
aF0.6221010684967041
aatp8
Rp9
.ccollections
OrderedDict
p0
((lp1
(lp2
S'state'
p3
aI0
aa(lp4
S'distance'
p5
aF379.6894989013672
aa(lp6
S'timestamp'
p7
aF0.622819185256958
aatp8
Rp9
.ccollections
OrderedDict
p0
((lp1
(lp2
S'state'
p3
aI0
aa(lp4
S'distance'
p5
aF379.6894989013672
aa(lp6
S'timestamp'
p7
aF0.6300821304321289
aatp8
Rp9
.ccollections
OrderedDict
p0
((lp1
(lp2
S'state'
p3
aI0
aa(lp4
S'distance'
p5
aF379.6894989013672
aa(lp6
S'timestamp'
p7
aF0.6302599906921387
aatp8
Rp9
.ccollections
OrderedDict
p0
((lp1
(lp2
S'state'
p3
aI0
aa(lp4
S'distance'
p5
aF379.6894989013672
aa(lp6
S'timestamp'
p7
aF0.649813175201416
aatp8
Rp9
.ccollections
OrderedDict
p0
((lp1
(lp2
S'state'
p3
aI0
aa(lp4
S'distance'
p5
aF379.6894989013672
aa(lp6
S'timestamp'
p7
aF0.6499760150909424
aatp8
Rp9
.ccollections
OrderedDict
p0
((lp1
(lp2
S'state'
p3
aI0
aa(lp4
S'distance'
p5
aF379.6894989013672
aa(lp6
S'timestamp'
p7
aF0.6532042026519775
aatp8
Rp9
.ccollections
OrderedDict
p0
((lp1
(lp2
S'state'
p3
aI0
aa(lp4
S'distance'
p5
aF379.6894989013672
aa(lp6
S'timestamp'
p7
aF0.6534590721130371
aatp8
Rp9
.ccollections
OrderedDict
p0
((lp1
(lp2
S'state'
p3
aI0
aa(lp4
S'distance'
p5
aF379.6894989013672
aa(lp6
S'timestamp'
p7
aF0.6688790321350098
aatp8
Rp9
.ccollections
OrderedDict
p0
((lp1
(lp2
S'state'
p3
aI0
aa(lp4
S'distance'
p5
aF379.6894989013672
aa(lp6
S'timestamp'
p7
aF0.669187068939209
aatp8
Rp9
.ccollections
OrderedDict
p0
((lp1
(lp2
S'state'
p3
aI0
aa(lp4
S'distance'
p5
aF379.6894989013672
aa(lp6
S'timestamp'
p7
aF0.6701130867004395
aatp8
Rp9
.ccollections
OrderedDict
p0
((lp1
(lp2
S'state'
p3
aI0
aa(lp4
S'distance'
p5
aF379.6894989013672
aa(lp6
S'timestamp'
p7
aF0.6709520816802979
aatp8
Rp9
.ccollections
OrderedDict
p0
((lp1
(lp2
S'state'
p3
aI0
aa(lp4
S'distance'
p5
aF379.6894989013672
aa(lp6
S'timestamp'
p7
aF0.679530143737793
aatp8
Rp9
.ccollections
OrderedDict
p0
((lp1
(lp2
S'state'
p3
aI0
aa(lp4
S'distance'
p5
aF379.6894989013672
aa(lp6
S'timestamp'
p7
aF0.6796731948852539
aatp8
Rp9
.ccollections
OrderedDict
p0
((lp1
(lp2
S'state'
p3
aI0
aa(lp4
S'distance'
p5
aF379.6894989013672
aa(lp6
S'timestamp'
p7
aF0.6891810894012451
aatp8
Rp9
.ccollections
OrderedDict
p0
((lp1
(lp2
S'state'
p3
aI0
aa(lp4
S'distance'
p5
aF379.6894989013672
aa(lp6
S'timestamp'
p7
aF0.6892690658569336
aatp8
Rp9
.ccollections
OrderedDict
p0
((lp1
(lp2
S'state'
p3
aI0
aa(lp4
S'distance'
p5
aF379.6894989013672
aa(lp6
S'timestamp'
p7
aF0.6995391845703125
aatp8
Rp9
.ccollections
OrderedDict
p0
((lp1
(lp2
S'state'
p3
aI0
aa(lp4
S'distance'
p5
aF379.6894989013672
aa(lp6
S'timestamp'
p7
aF0.7000710964202881
aatp8
Rp9
.ccollections
OrderedDict
p0
((lp1
(lp2
S'state'
p3
aI0
aa(lp4
S'distance'
p5
aF379.6894989013672
aa(lp6
S'timestamp'
p7
aF0.7088241577148438
aatp8
Rp9
.ccollections
OrderedDict
p0
((lp1
(lp2
S'state'
p3
aI0
aa(lp4
S'distance'
p5
aF379.6894989013672
aa(lp6
S'timestamp'
p7
aF0.719062089920044
aatp8
Rp9
.ccollections
OrderedDict
p0
((lp1
(lp2
S'state'
p3
aI0
aa(lp4
S'distance'
p5
aF379.6894989013672
aa(lp6
S'timestamp'
p7
aF0.7191390991210938
aatp8
Rp9
.ccollections
OrderedDict
p0
((lp1
(lp2
S'state'
p3
aI0
aa(lp4
S'distance'
p5
aF379.6894989013672
aa(lp6
S'timestamp'
p7
aF0.7201321125030518
aatp8
Rp9
.ccollections
OrderedDict
p0
((lp1
(lp2
S'state'
p3
aI0
aa(lp4
S'distance'
p5
aF379.6894989013672
aa(lp6
S'timestamp'
p7
aF0.7295260429382324
aatp8
Rp9
.ccollections
OrderedDict
p0
((lp1
(lp2
S'state'
p3
aI0
aa(lp4
S'distance'
p5
aF379.6894989013672
aa(lp6
S'timestamp'
p7
aF0.7296299934387207
aatp8
Rp9
.ccollections
OrderedDict
p0
((lp1
(lp2
S'state'
p3
aI0
aa(lp4
S'distance'
p5
aF379.6894989013672
aa(lp6
S'timestamp'
p7
aF0.7386929988861084
aatp8
Rp9
.ccollections
OrderedDict
p0
((lp1
(lp2
S'state'
p3
aI0
aa(lp4
S'distance'
p5
aF379.6894989013672
aa(lp6
S'timestamp'
p7
aF0.7394001483917236
aatp8
Rp9
.ccollections
OrderedDict
p0
((lp1
(lp2
S'state'
p3
aI0
aa(lp4
S'distance'
p5
aF379.6894989013672
aa(lp6
S'timestamp'
p7
aF0.7590692043304443
aatp8
Rp9
.ccollections
OrderedDict
p0
((lp1
(lp2
S'state'
p3
aI0
aa(lp4
S'distance'
p5
aF379.6894989013672
aa(lp6
S'timestamp'
p7
aF0.75919508934021
aatp8
Rp9
.ccollections
OrderedDict
p0
((lp1
(lp2
S'state'
p3
aI0
aa(lp4
S'distance'
p5
aF379.6894989013672
aa(lp6
S'timestamp'
p7
aF0.7691211700439453
aatp8
Rp9
.ccollections
OrderedDict
p0
((lp1
(lp2
S'state'
p3
aI0
aa(lp4
S'distance'
p5
aF379.6894989013672
aa(lp6
S'timestamp'
p7
aF0.7698931694030762
aatp8
Rp9
.ccollections
OrderedDict
p0
((lp1
(lp2
S'state'
p3
aI0
aa(lp4
S'distance'
p5
aF379.6894989013672
aa(lp6
S'timestamp'
p7
aF0.7718780040740967
aatp8
Rp9
.ccollections
OrderedDict
p0
((lp1
(lp2
S'state'
p3
aI0
aa(lp4
S'distance'
p5
aF379.6894989013672
aa(lp6
S'timestamp'
p7
aF0.7725670337677002
aatp8
Rp9
.ccollections
OrderedDict
p0
((lp1
(lp2
S'state'
p3
aI0
aa(lp4
S'distance'
p5
aF379.6894989013672
aa(lp6
S'timestamp'
p7
aF0.7794651985168457
aatp8
Rp9
.ccollections
OrderedDict
p0
((lp1
(lp2
S'state'
p3
aI0
aa(lp4
S'distance'
p5
aF379.6894989013672
aa(lp6
S'timestamp'
p7
aF0.7795641422271729
aatp8
Rp9
.ccollections
OrderedDict
p0
((lp1
(lp2
S'state'
p3
aI0
aa(lp4
S'distance'
p5
aF379.6894989013672
aa(lp6
S'timestamp'
p7
aF0.7900600433349609
aatp8
Rp9
.ccollections
OrderedDict
p0
((lp1
(lp2
S'state'
p3
aI0
aa(lp4
S'distance'
p5
aF379.6894989013672
aa(lp6
S'timestamp'
p7
aF0.790283203125
aatp8
Rp9
.ccollections
OrderedDict
p0
((lp1
(lp2
S'state'
p3
aI0
aa(lp4
S'distance'
p5
aF379.6894989013672
aa(lp6
S'timestamp'
p7
aF0.8086190223693848
aatp8
Rp9
.ccollections
OrderedDict
p0
((lp1
(lp2
S'state'
p3
aI0
aa(lp4
S'distance'
p5
aF379.6894989013672
aa(lp6
S'timestamp'
p7
aF0.8090569972991943
aatp8
Rp9
.ccollections
OrderedDict
p0
((lp1
(lp2
S'state'
p3
aI0
aa(lp4
S'distance'
p5
aF379.6894989013672
aa(lp6
S'timestamp'
p7
aF0.8099701404571533
aatp8
Rp9
.ccollections
OrderedDict
p0
((lp1
(lp2
S'state'
p3
aI0
aa(lp4
S'distance'
p5
aF379.6894989013672
aa(lp6
S'timestamp'
p7
aF0.8108310699462891
aatp8
Rp9
.ccollections
OrderedDict
p0
((lp1
(lp2
S'state'
p3
aI0
aa(lp4
S'distance'
p5
aF379.6894989013672
aa(lp6
S'timestamp'
p7
aF0.8285510540008545
aatp8
Rp9
.ccollections
OrderedDict
p0
((lp1
(lp2
S'state'
p3
aI0
aa(lp4
S'distance'
p5
aF379.6894989013672
aa(lp6
S'timestamp'
p7
aF0.8289291858673096
aatp8
Rp9
.ccollections
OrderedDict
p0
((lp1
(lp2
S'state'
p3
aI0
aa(lp4
S'distance'
p5
aF379.6894989013672
aa(lp6
S'timestamp'
p7
aF0.8292670249938965
aatp8
Rp9
.ccollections
OrderedDict
p0
((lp1
(lp2
S'state'
p3
aI0
aa(lp4
S'distance'
p5
aF379.6894989013672
aa(lp6
S'timestamp'
p7
aF0.8303041458129883
aatp8
Rp9
.ccollections
OrderedDict
p0
((lp1
(lp2
S'state'
p3
aI0
aa(lp4
S'distance'
p5
aF379.6894989013672
aa(lp6
S'timestamp'
p7
aF0.8486230373382568
aatp8
Rp9
.ccollections
OrderedDict
p0
((lp1
(lp2
S'state'
p3
aI0
aa(lp4
S'distance'
p5
aF379.6894989013672
aa(lp6
S'timestamp'
p7
aF0.8489701747894287
aatp8
Rp9
.ccollections
OrderedDict
p0
((lp1
(lp2
S'state'
p3
aI0
aa(lp4
S'distance'
p5
aF379.6894989013672
aa(lp6
S'timestamp'
p7
aF0.8499970436096191
aatp8
Rp9
.ccollections
OrderedDict
p0
((lp1
(lp2
S'state'
p3
aI0
aa(lp4
S'distance'
p5
aF379.6894989013672
aa(lp6
S'timestamp'
p7
aF0.8589251041412354
aatp8
Rp9
.ccollections
OrderedDict
p0
((lp1
(lp2
S'state'
p3
aI0
aa(lp4
S'distance'
p5
aF379.6894989013672
aa(lp6
S'timestamp'
p7
aF0.8592121601104736
aatp8
Rp9
.ccollections
OrderedDict
p0
((lp1
(lp2
S'state'
p3
aI0
aa(lp4
S'distance'
p5
aF379.6894989013672
aa(lp6
S'timestamp'
p7
aF0.859748125076294
aatp8
Rp9
.ccollections
OrderedDict
p0
((lp1
(lp2
S'state'
p3
aI0
aa(lp4
S'distance'
p5
aF379.6894989013672
aa(lp6
S'timestamp'
p7
aF0.8687331676483154
aatp8
Rp9
.ccollections
OrderedDict
p0
((lp1
(lp2
S'state'
p3
aI0
aa(lp4
S'distance'
p5
aF379.6894989013672
aa(lp6
S'timestamp'
p7
aF0.8701250553131104
aatp8
Rp9
.ccollections
OrderedDict
p0
((lp1
(lp2
S'state'
p3
aI0
aa(lp4
S'distance'
p5
aF379.6894989013672
aa(lp6
S'timestamp'
p7
aF0.8785140514373779
aatp8
Rp9
.ccollections
OrderedDict
p0
((lp1
(lp2
S'state'
p3
aI0
aa(lp4
S'distance'
p5
aF379.6894989013672
aa(lp6
S'timestamp'
p7
aF0.8789761066436768
aatp8
Rp9
.ccollections
OrderedDict
p0
((lp1
(lp2
S'state'
p3
aI0
aa(lp4
S'distance'
p5
aF379.6894989013672
aa(lp6
S'timestamp'
p7
aF0.8995590209960938
aatp8
Rp9
.ccollections
OrderedDict
p0
((lp1
(lp2
S'state'
p3
aI0
aa(lp4
S'distance'
p5
aF379.6894989013672
aa(lp6
S'timestamp'
p7
aF0.9002671241760254
aatp8
Rp9
.ccollections
OrderedDict
p0
((lp1
(lp2
S'state'
p3
aI0
aa(lp4
S'distance'
p5
aF379.6894989013672
aa(lp6
S'timestamp'
p7
aF0.9004330635070801
aatp8
Rp9
.ccollections
OrderedDict
p0
((lp1
(lp2
S'state'
p3
aI0
aa(lp4
S'distance'
p5
aF379.6894989013672
aa(lp6
S'timestamp'
p7
aF0.9018042087554932
aatp8
Rp9
.ccollections
OrderedDict
p0
((lp1
(lp2
S'state'
p3
aI0
aa(lp4
S'distance'
p5
aF379.6894989013672
aa(lp6
S'timestamp'
p7
aF0.9092881679534912
aatp8
Rp9
.ccollections
OrderedDict
p0
((lp1
(lp2
S'state'
p3
aI0
aa(lp4
S'distance'
p5
aF379.6894989013672
aa(lp6
S'timestamp'
p7
aF0.9093949794769287
aatp8
Rp9
.ccollections
OrderedDict
p0
((lp1
(lp2
S'state'
p3
aI0
aa(lp4
S'distance'
p5
aF379.6894989013672
aa(lp6
S'timestamp'
p7
aF0.9197771549224854
aatp8
Rp9
.ccollections
OrderedDict
p0
((lp1
(lp2
S'state'
p3
aI0
aa(lp4
S'distance'
p5
aF379.6894989013672
aa(lp6
S'timestamp'
p7
aF0.9201540946960449
aatp8
Rp9
.ccollections
OrderedDict
p0
((lp1
(lp2
S'state'
p3
aI0
aa(lp4
S'distance'
p5
aF379.6894989013672
aa(lp6
S'timestamp'
p7
aF0.9392101764678955
aatp8
Rp9
.ccollections
OrderedDict
p0
((lp1
(lp2
S'state'
p3
aI0
aa(lp4
S'distance'
p5
aF379.6894989013672
aa(lp6
S'timestamp'
p7
aF0.9392821788787842
aatp8
Rp9
.ccollections
OrderedDict
p0
((lp1
(lp2
S'state'
p3
aI0
aa(lp4
S'distance'
p5
aF379.6894989013672
aa(lp6
S'timestamp'
p7
aF0.9401810169219971
aatp8
Rp9
.ccollections
OrderedDict
p0
((lp1
(lp2
S'state'
p3
aI0
aa(lp4
S'distance'
p5
aF379.6894989013672
aa(lp6
S'timestamp'
p7
aF0.9417040348052979
aatp8
Rp9
.ccollections
OrderedDict
p0
((lp1
(lp2
S'state'
p3
aI0
aa(lp4
S'distance'
p5
aF379.6894989013672
aa(lp6
S'timestamp'
p7
aF0.9488551616668701
aatp8
Rp9
.ccollections
OrderedDict
p0
((lp1
(lp2
S'state'
p3
aI0
aa(lp4
S'distance'
p5
aF379.6894989013672
aa(lp6
S'timestamp'
p7
aF0.9489340782165527
aatp8
Rp9
.ccollections
OrderedDict
p0
((lp1
(lp2
S'state'
p3
aI0
aa(lp4
S'distance'
p5
aF379.6894989013672
aa(lp6
S'timestamp'
p7
aF0.9587969779968262
aatp8
Rp9
.ccollections
OrderedDict
p0
((lp1
(lp2
S'state'
p3
aI0
aa(lp4
S'distance'
p5
aF379.6894989013672
aa(lp6
S'timestamp'
p7
aF0.9589390754699707
aatp8
Rp9
.ccollections
OrderedDict
p0
((lp1
(lp2
S'state'
p3
aI0
aa(lp4
S'distance'
p5
aF379.6894989013672
aa(lp6
S'timestamp'
p7
aF0.9684062004089355
aatp8
Rp9
.ccollections
OrderedDict
p0
((lp1
(lp2
S'state'
p3
aI0
aa(lp4
S'distance'
p5
aF379.6894989013672
aa(lp6
S'timestamp'
p7
aF0.9690752029418945
aatp8
Rp9
.ccollections
OrderedDict
p0
((lp1
(lp2
S'state'
p3
aI0
aa(lp4
S'distance'
p5
aF379.6894989013672
aa(lp6
S'timestamp'
p7
aF0.9989771842956543
aatp8
Rp9
.ccollections
OrderedDict
p0
((lp1
(lp2
S'state'
p3
aI0
aa(lp4
S'distance'
p5
aF379.6894989013672
aa(lp6
S'timestamp'
p7
aF0.9995481967926025
aatp8
Rp9
.ccollections
OrderedDict
p0
((lp1
(lp2
S'state'
p3
aI0
aa(lp4
S'distance'
p5
aF379.6894989013672
aa(lp6
S'timestamp'
p7
aF0.9999411106109619
aatp8
Rp9
.ccollections
OrderedDict
p0
((lp1
(lp2
S'state'
p3
aI0
aa(lp4
S'distance'
p5
aF379.6894989013672
aa(lp6
S'timestamp'
p7
aF1.0016040802001953
aatp8
Rp9
.ccollections
OrderedDict
p0
((lp1
(lp2
S'state'
p3
aI0
aa(lp4
S'distance'
p5
aF379.6894989013672
aa(lp6
S'timestamp'
p7
aF1.0087320804595947
aatp8
Rp9
.ccollections
OrderedDict
p0
((lp1
(lp2
S'state'
p3
aI0
aa(lp4
S'distance'
p5
aF379.6894989013672
aa(lp6
S'timestamp'
p7
aF1.008810043334961
aatp8
Rp9
.ccollections
OrderedDict
p0
((lp1
(lp2
S'state'
p3
aI0
aa(lp4
S'distance'
p5
aF379.6894989013672
aa(lp6
S'timestamp'
p7
aF1.0098140239715576
aatp8
Rp9
.ccollections
OrderedDict
p0
((lp1
(lp2
S'state'
p3
aI0
aa(lp4
S'distance'
p5
aF379.6894989013672
aa(lp6
S'timestamp'
p7
aF1.0108270645141602
aatp8
Rp9
.ccollections
OrderedDict
p0
((lp1
(lp2
S'state'
p3
aI0
aa(lp4
S'distance'
p5
aF379.6894989013672
aa(lp6
S'timestamp'
p7
aF1.0188281536102295
aatp8
Rp9
.ccollections
OrderedDict
p0
((lp1
(lp2
S'state'
p3
aI0
aa(lp4
S'distance'
p5
aF379.6894989013672
aa(lp6
S'timestamp'
p7
aF1.018908977508545
aatp8
Rp9
.ccollections
OrderedDict
p0
((lp1
(lp2
S'state'
p3
aI0
aa(lp4
S'distance'
p5
aF379.6894989013672
aa(lp6
S'timestamp'
p7
aF1.0291101932525635
aatp8
Rp9
.ccollections
OrderedDict
p0
((lp1
(lp2
S'state'
p3
aI0
aa(lp4
S'distance'
p5
aF379.6894989013672
aa(lp6
S'timestamp'
p7
aF1.0393660068511963
aatp8
Rp9
.ccollections
OrderedDict
p0
((lp1
(lp2
S'state'
p3
aI0
aa(lp4
S'distance'
p5
aF379.6894989013672
aa(lp6
S'timestamp'
p7
aF1.039750099182129
aatp8
Rp9
.ccollections
OrderedDict
p0
((lp1
(lp2
S'state'
p3
aI0
aa(lp4
S'distance'
p5
aF379.6894989013672
aa(lp6
S'timestamp'
p7
aF1.0398240089416504
aatp8
Rp9
.ccollections
OrderedDict
p0
((lp1
(lp2
S'state'
p3
aI0
aa(lp4
S'distance'
p5
aF379.6894989013672
aa(lp6
S'timestamp'
p7
aF1.048755168914795
aatp8
Rp9
.ccollections
OrderedDict
p0
((lp1
(lp2
S'state'
p3
aI0
aa(lp4
S'distance'
p5
aF379.6894989013672
aa(lp6
S'timestamp'
p7
aF1.0488409996032715
aatp8
Rp9
.ccollections
OrderedDict
p0
((lp1
(lp2
S'state'
p3
aI0
aa(lp4
S'distance'
p5
aF379.6894989013672
aa(lp6
S'timestamp'
p7
aF1.0583610534667969
aatp8
Rp9
.ccollections
OrderedDict
p0
((lp1
(lp2
S'state'
p3
aI0
aa(lp4
S'distance'
p5
aF379.6894989013672
aa(lp6
S'timestamp'
p7
aF1.0589511394500732
aatp8
Rp9
.ccollections
OrderedDict
p0
((lp1
(lp2
S'state'
p3
aI0
aa(lp4
S'distance'
p5
aF379.6894989013672
aa(lp6
S'timestamp'
p7
aF1.070214033126831
aatp8
Rp9
.ccollections
OrderedDict
p0
((lp1
(lp2
S'state'
p3
aI0
aa(lp4
S'distance'
p5
aF379.6894989013672
aa(lp6
S'timestamp'
p7
aF1.0886781215667725
aatp8
Rp9
.ccollections
OrderedDict
p0
((lp1
(lp2
S'state'
p3
aI0
aa(lp4
S'distance'
p5
aF379.6894989013672
aa(lp6
S'timestamp'
p7
aF1.0887961387634277
aatp8
Rp9
.ccollections
OrderedDict
p0
((lp1
(lp2
S'state'
p3
aI0
aa(lp4
S'distance'
p5
aF379.6894989013672
aa(lp6
S'timestamp'
p7
aF1.0897250175476074
aatp8
Rp9
.ccollections
OrderedDict
p0
((lp1
(lp2
S'state'
p3
aI0
aa(lp4
S'distance'
p5
aF379.6894989013672
aa(lp6
S'timestamp'
p7
aF1.0921502113342285
aatp8
Rp9
.ccollections
OrderedDict
p0
((lp1
(lp2
S'state'
p3
aI0
aa(lp4
S'distance'
p5
aF379.6894989013672
aa(lp6
S'timestamp'
p7
aF1.0989270210266113
aatp8
Rp9
.ccollections
OrderedDict
p0
((lp1
(lp2
S'state'
p3
aI0
aa(lp4
S'distance'
p5
aF379.6894989013672
aa(lp6
S'timestamp'
p7
aF1.099518060684204
aatp8
Rp9
.ccollections
OrderedDict
p0
((lp1
(lp2
S'state'
p3
aI0
aa(lp4
S'distance'
p5
aF379.6894989013672
aa(lp6
S'timestamp'
p7
aF1.099762201309204
aatp8
Rp9
.ccollections
OrderedDict
p0
((lp1
(lp2
S'state'
p3
aI0
aa(lp4
S'distance'
p5
aF379.6894989013672
aa(lp6
S'timestamp'
p7
aF1.108119010925293
aatp8
Rp9
.ccollections
OrderedDict
p0
((lp1
(lp2
S'state'
p3
aI0
aa(lp4
S'distance'
p5
aF379.6894989013672
aa(lp6
S'timestamp'
p7
aF1.1091821193695068
aatp8
Rp9
.ccollections
OrderedDict
p0
((lp1
(lp2
S'state'
p3
aI0
aa(lp4
S'distance'
p5
aF379.6894989013672
aa(lp6
S'timestamp'
p7
aF1.1387979984283447
aatp8
Rp9
.ccollections
OrderedDict
p0
((lp1
(lp2
S'state'
p3
aI0
aa(lp4
S'distance'
p5
aF379.6894989013672
aa(lp6
S'timestamp'
p7
aF1.1390271186828613
aatp8
Rp9
.ccollections
OrderedDict
p0
((lp1
(lp2
S'state'
p3
aI0
aa(lp4
S'distance'
p5
aF379.6894989013672
aa(lp6
S'timestamp'
p7
aF1.1401071548461914
aatp8
Rp9
.ccollections
OrderedDict
p0
((lp1
(lp2
S'state'
p3
aI0
aa(lp4
S'distance'
p5
aF379.6894989013672
aa(lp6
S'timestamp'
p7
aF1.142531156539917
aatp8
Rp9
.ccollections
OrderedDict
p0
((lp1
(lp2
S'state'
p3
aI0
aa(lp4
S'distance'
p5
aF379.6894989013672
aa(lp6
S'timestamp'
p7
aF1.1590580940246582
aatp8
Rp9
.ccollections
OrderedDict
p0
((lp1
(lp2
S'state'
p3
aI0
aa(lp4
S'distance'
p5
aF379.6894989013672
aa(lp6
S'timestamp'
p7
aF1.1595430374145508
aatp8
Rp9
.ccollections
OrderedDict
p0
((lp1
(lp2
S'state'
p3
aI0
aa(lp4
S'distance'
p5
aF379.6894989013672
aa(lp6
S'timestamp'
p7
aF1.1596710681915283
aatp8
Rp9
.ccollections
OrderedDict
p0
((lp1
(lp2
S'state'
p3
aI0
aa(lp4
S'distance'
p5
aF379.6894989013672
aa(lp6
S'timestamp'
p7
aF1.1597440242767334
aatp8
Rp9
.ccollections
OrderedDict
p0
((lp1
(lp2
S'state'
p3
aI0
aa(lp4
S'distance'
p5
aF379.6894989013672
aa(lp6
S'timestamp'
p7
aF1.1783111095428467
aatp8
Rp9
.ccollections
OrderedDict
p0
((lp1
(lp2
S'state'
p3
aI0
aa(lp4
S'distance'
p5
aF379.6894989013672
aa(lp6
S'timestamp'
p7
aF1.1789021492004395
aatp8
Rp9
.ccollections
OrderedDict
p0
((lp1
(lp2
S'state'
p3
aI0
aa(lp4
S'distance'
p5
aF379.6894989013672
aa(lp6
S'timestamp'
p7
aF1.1798911094665527
aatp8
Rp9
.ccollections
OrderedDict
p0
((lp1
(lp2
S'state'
p3
aI0
aa(lp4
S'distance'
p5
aF379.6894989013672
aa(lp6
S'timestamp'
p7
aF1.1822509765625
aatp8
Rp9
.ccollections
OrderedDict
p0
((lp1
(lp2
S'state'
p3
aI0
aa(lp4
S'distance'
p5
aF379.6894989013672
aa(lp6
S'timestamp'
p7
aF1.1888530254364014
aatp8
Rp9
.ccollections
OrderedDict
p0
((lp1
(lp2
S'state'
p3
aI0
aa(lp4
S'distance'
p5
aF379.6894989013672
aa(lp6
S'timestamp'
p7
aF1.1891469955444336
aatp8
Rp9
.ccollections
OrderedDict
p0
((lp1
(lp2
S'state'
p3
aI0
aa(lp4
S'distance'
p5
aF379.6894989013672
aa(lp6
S'timestamp'
p7
aF1.190291166305542
aatp8
Rp9
.ccollections
OrderedDict
p0
((lp1
(lp2
S'state'
p3
aI0
aa(lp4
S'distance'
p5
aF379.6894989013672
aa(lp6
S'timestamp'
p7
aF1.1911900043487549
aatp8
Rp9
.ccollections
OrderedDict
p0
((lp1
(lp2
S'state'
p3
aI0
aa(lp4
S'distance'
p5
aF379.6894989013672
aa(lp6
S'timestamp'
p7
aF1.1982800960540771
aatp8
Rp9
.ccollections
OrderedDict
p0
((lp1
(lp2
S'state'
p3
aI0
aa(lp4
S'distance'
p5
aF379.6894989013672
aa(lp6
S'timestamp'
p7
aF1.1987411975860596
aatp8
Rp9
.ccollections
OrderedDict
p0
((lp1
(lp2
S'state'
p3
aI0
aa(lp4
S'distance'
p5
aF379.6894989013672
aa(lp6
S'timestamp'
p7
aF1.2094390392303467
aatp8
Rp9
.ccollections
OrderedDict
p0
((lp1
(lp2
S'state'
p3
aI0
aa(lp4
S'distance'
p5
aF379.6894989013672
aa(lp6
S'timestamp'
p7
aF1.2095980644226074
aatp8
Rp9
.ccollections
OrderedDict
p0
((lp1
(lp2
S'state'
p3
aI0
aa(lp4
S'distance'
p5
aF379.6894989013672
aa(lp6
S'timestamp'
p7
aF1.2183032035827637
aatp8
Rp9
.ccollections
OrderedDict
p0
((lp1
(lp2
S'state'
p3
aI0
aa(lp4
S'distance'
p5
aF379.6894989013672
aa(lp6
S'timestamp'
p7
aF1.2187061309814453
aatp8
Rp9
.ccollections
OrderedDict
p0
((lp1
(lp2
S'state'
p3
aI0
aa(lp4
S'distance'
p5
aF379.6894989013672
aa(lp6
S'timestamp'
p7
aF1.228283166885376
aatp8
Rp9
.ccollections
OrderedDict
p0
((lp1
(lp2
S'state'
p3
aI0
aa(lp4
S'distance'
p5
aF379.6894989013672
aa(lp6
S'timestamp'
p7
aF1.2285821437835693
aatp8
Rp9
.ccollections
OrderedDict
p0
((lp1
(lp2
S'state'
p3
aI0
aa(lp4
S'distance'
p5
aF379.6894989013672
aa(lp6
S'timestamp'
p7
aF1.238645076751709
aatp8
Rp9
.ccollections
OrderedDict
p0
((lp1
(lp2
S'state'
p3
aI0
aa(lp4
S'distance'
p5
aF379.6894989013672
aa(lp6
S'timestamp'
p7
aF1.2396390438079834
aatp8
Rp9
.ccollections
OrderedDict
p0
((lp1
(lp2
S'state'
p3
aI0
aa(lp4
S'distance'
p5
aF379.6894989013672
aa(lp6
S'timestamp'
p7
aF1.2582910060882568
aatp8
Rp9
.ccollections
OrderedDict
p0
((lp1
(lp2
S'state'
p3
aI0
aa(lp4
S'distance'
p5
aF379.6894989013672
aa(lp6
S'timestamp'
p7
aF1.2590081691741943
aatp8
Rp9
.ccollections
OrderedDict
p0
((lp1
(lp2
S'state'
p3
aI0
aa(lp4
S'distance'
p5
aF379.6894989013672
aa(lp6
S'timestamp'
p7
aF1.2594761848449707
aatp8
Rp9
.ccollections
OrderedDict
p0
((lp1
(lp2
S'state'
p3
aI0
aa(lp4
S'distance'
p5
aF379.6894989013672
aa(lp6
S'timestamp'
p7
aF1.2595531940460205
aatp8
Rp9
.ccollections
OrderedDict
p0
((lp1
(lp2
S'state'
p3
aI0
aa(lp4
S'distance'
p5
aF379.6894989013672
aa(lp6
S'timestamp'
p7
aF1.2685589790344238
aatp8
Rp9
.ccollections
OrderedDict
p0
((lp1
(lp2
S'state'
p3
aI0
aa(lp4
S'distance'
p5
aF379.6894989013672
aa(lp6
S'timestamp'
p7
aF1.2687151432037354
aatp8
Rp9
.ccollections
OrderedDict
p0
((lp1
(lp2
S'state'
p3
aI0
aa(lp4
S'distance'
p5
aF379.6894989013672
aa(lp6
S'timestamp'
p7
aF1.2785542011260986
aatp8
Rp9
.ccollections
OrderedDict
p0
((lp1
(lp2
S'state'
p3
aI0
aa(lp4
S'distance'
p5
aF379.6894989013672
aa(lp6
S'timestamp'
p7
aF1.2786359786987305
aatp8
Rp9
.ccollections
OrderedDict
p0
((lp1
(lp2
S'state'
p3
aI0
aa(lp4
S'distance'
p5
aF379.6894989013672
aa(lp6
S'timestamp'
p7
aF1.2884290218353271
aatp8
Rp9
.ccollections
OrderedDict
p0
((lp1
(lp2
S'state'
p3
aI0
aa(lp4
S'distance'
p5
aF379.6894989013672
aa(lp6
S'timestamp'
p7
aF1.2891781330108643
aatp8
Rp9
.ccollections
OrderedDict
p0
((lp1
(lp2
S'state'
p3
aI0
aa(lp4
S'distance'
p5
aF379.6894989013672
aa(lp6
S'timestamp'
p7
aF1.308643102645874
aatp8
Rp9
.ccollections
OrderedDict
p0
((lp1
(lp2
S'state'
p3
aI0
aa(lp4
S'distance'
p5
aF379.6894989013672
aa(lp6
S'timestamp'
p7
aF1.3094720840454102
aatp8
Rp9
.ccollections
OrderedDict
p0
((lp1
(lp2
S'state'
p3
aI0
aa(lp4
S'distance'
p5
aF379.6894989013672
aa(lp6
S'timestamp'
p7
aF1.30954909324646
aatp8
Rp9
.ccollections
OrderedDict
p0
((lp1
(lp2
S'state'
p3
aI0
aa(lp4
S'distance'
p5
aF379.6894989013672
aa(lp6
S'timestamp'
p7
aF1.3096179962158203
aatp8
Rp9
.ccollections
OrderedDict
p0
((lp1
(lp2
S'state'
p3
aI0
aa(lp4
S'distance'
p5
aF379.6894989013672
aa(lp6
S'timestamp'
p7
aF1.318390130996704
aatp8
Rp9
.ccollections
OrderedDict
p0
((lp1
(lp2
S'state'
p3
aI0
aa(lp4
S'distance'
p5
aF379.6894989013672
aa(lp6
S'timestamp'
p7
aF1.3185791969299316
aatp8
Rp9
.ccollections
OrderedDict
p0
((lp1
(lp2
S'state'
p3
aI0
aa(lp4
S'distance'
p5
aF379.6894989013672
aa(lp6
S'timestamp'
p7
aF1.3280060291290283
aatp8
Rp9
.ccollections
OrderedDict
p0
((lp1
(lp2
S'state'
p3
aI0
aa(lp4
S'distance'
p5
aF379.6894989013672
aa(lp6
S'timestamp'
p7
aF1.328747034072876
aatp8
Rp9
.ccollections
OrderedDict
p0
((lp1
(lp2
S'state'
p3
aI0
aa(lp4
S'distance'
p5
aF379.6894989013672
aa(lp6
S'timestamp'
p7
aF1.3380000591278076
aatp8
Rp9
.ccollections
OrderedDict
p0
((lp1
(lp2
S'state'
p3
aI0
aa(lp4
S'distance'
p5
aF379.6894989013672
aa(lp6
S'timestamp'
p7
aF1.3385200500488281
aatp8
Rp9
.ccollections
OrderedDict
p0
((lp1
(lp2
S'state'
p3
aI0
aa(lp4
S'distance'
p5
aF379.6894989013672
aa(lp6
S'timestamp'
p7
aF1.3580620288848877
aatp8
Rp9
.ccollections
OrderedDict
p0
((lp1
(lp2
S'state'
p3
aI0
aa(lp4
S'distance'
p5
aF379.6894989013672
aa(lp6
S'timestamp'
p7
aF1.3583810329437256
aatp8
Rp9
.ccollections
OrderedDict
p0
((lp1
(lp2
S'state'
p3
aI0
aa(lp4
S'distance'
p5
aF379.6894989013672
aa(lp6
S'timestamp'
p7
aF1.3594961166381836
aatp8
Rp9
.ccollections
OrderedDict
p0
((lp1
(lp2
S'state'
p3
aI0
aa(lp4
S'distance'
p5
aF379.6894989013672
aa(lp6
S'timestamp'
p7
aF1.3609740734100342
aatp8
Rp9
.ccollections
OrderedDict
p0
((lp1
(lp2
S'state'
p3
aI0
aa(lp4
S'distance'
p5
aF379.6894989013672
aa(lp6
S'timestamp'
p7
aF1.3684990406036377
aatp8
Rp9
.ccollections
OrderedDict
p0
((lp1
(lp2
S'state'
p3
aI0
aa(lp4
S'distance'
p5
aF379.6894989013672
aa(lp6
S'timestamp'
p7
aF1.3685741424560547
aatp8
Rp9
.ccollections
OrderedDict
p0
((lp1
(lp2
S'state'
p3
aI0
aa(lp4
S'distance'
p5
aF379.6894989013672
aa(lp6
S'timestamp'
p7
aF1.378566026687622
aatp8
Rp9
.ccollections
OrderedDict
p0
((lp1
(lp2
S'state'
p3
aI0
aa(lp4
S'distance'
p5
aF379.6894989013672
aa(lp6
S'timestamp'
p7
aF1.3786699771881104
aatp8
Rp9
.ccollections
OrderedDict
p0
((lp1
(lp2
S'state'
p3
aI0
aa(lp4
S'distance'
p5
aF379.6894989013672
aa(lp6
S'timestamp'
p7
aF1.388031005859375
aatp8
Rp9
.ccollections
OrderedDict
p0
((lp1
(lp2
S'state'
p3
aI0
aa(lp4
S'distance'
p5
aF379.6894989013672
aa(lp6
S'timestamp'
p7
aF1.3884611129760742
aatp8
Rp9
.ccollections
OrderedDict
p0
((lp1
(lp2
S'state'
p3
aI0
aa(lp4
S'distance'
p5
aF379.6894989013672
aa(lp6
S'timestamp'
p7
aF1.3990890979766846
aatp8
Rp9
.ccollections
OrderedDict
p0
((lp1
(lp2
S'state'
p3
aI0
aa(lp4
S'distance'
p5
aF379.6894989013672
aa(lp6
S'timestamp'
p7
aF1.3995120525360107
aatp8
Rp9
.ccollections
OrderedDict
p0
((lp1
(lp2
S'state'
p3
aI0
aa(lp4
S'distance'
p5
aF379.6894989013672
aa(lp6
S'timestamp'
p7
aF1.4085891246795654
aatp8
Rp9
.ccollections
OrderedDict
p0
((lp1
(lp2
S'state'
p3
aI0
aa(lp4
S'distance'
p5
aF379.6894989013672
aa(lp6
S'timestamp'
p7
aF1.40871000289917
aatp8
Rp9
.ccollections
OrderedDict
p0
((lp1
(lp2
S'state'
p3
aI0
aa(lp4
S'distance'
p5
aF379.6894989013672
aa(lp6
S'timestamp'
p7
aF1.4178390502929688
aatp8
Rp9
.ccollections
OrderedDict
p0
((lp1
(lp2
S'state'
p3
aI0
aa(lp4
S'distance'
p5
aF379.6894989013672
aa(lp6
S'timestamp'
p7
aF1.4185559749603271
aatp8
Rp9
.ccollections
OrderedDict
p0
((lp1
(lp2
S'state'
p3
aI0
aa(lp4
S'distance'
p5
aF379.6894989013672
aa(lp6
S'timestamp'
p7
aF1.4279870986938477
aatp8
Rp9
.ccollections
OrderedDict
p0
((lp1
(lp2
S'state'
p3
aI0
aa(lp4
S'distance'
p5
aF379.6894989013672
aa(lp6
S'timestamp'
p7
aF1.428361177444458
aatp8
Rp9
.ccollections
OrderedDict
p0
((lp1
(lp2
S'state'
p3
aI0
aa(lp4
S'distance'
p5
aF379.6894989013672
aa(lp6
S'timestamp'
p7
aF1.4384891986846924
aatp8
Rp9
.ccollections
OrderedDict
p0
((lp1
(lp2
S'state'
p3
aI0
aa(lp4
S'distance'
p5
aF379.6894989013672
aa(lp6
S'timestamp'
p7
aF1.4390161037445068
aatp8
Rp9
.ccollections
OrderedDict
p0
((lp1
(lp2
S'state'
p3
aI0
aa(lp4
S'distance'
p5
aF379.6894989013672
aa(lp6
S'timestamp'
p7
aF1.4479501247406006
aatp8
Rp9
.ccollections
OrderedDict
p0
((lp1
(lp2
S'state'
p3
aI0
aa(lp4
S'distance'
p5
aF379.6894989013672
aa(lp6
S'timestamp'
p7
aF1.4484810829162598
aatp8
Rp9
.ccollections
OrderedDict
p0
((lp1
(lp2
S'state'
p3
aI0
aa(lp4
S'distance'
p5
aF379.6894989013672
aa(lp6
S'timestamp'
p7
aF1.4581801891326904
aatp8
Rp9
.ccollections
OrderedDict
p0
((lp1
(lp2
S'state'
p3
aI0
aa(lp4
S'distance'
p5
aF379.6894989013672
aa(lp6
S'timestamp'
p7
aF1.4582982063293457
aatp8
Rp9
.ccollections
OrderedDict
p0
((lp1
(lp2
S'state'
p3
aI0
aa(lp4
S'distance'
p5
aF379.6894989013672
aa(lp6
S'timestamp'
p7
aF1.468414068222046
aatp8
Rp9
.ccollections
OrderedDict
p0
((lp1
(lp2
S'state'
p3
aI0
aa(lp4
S'distance'
p5
aF379.6894989013672
aa(lp6
S'timestamp'
p7
aF1.4695160388946533
aatp8
Rp9
.ccollections
OrderedDict
p0
((lp1
(lp2
S'state'
p3
aI0
aa(lp4
S'distance'
p5
aF379.6894989013672
aa(lp6
S'timestamp'
p7
aF1.4785161018371582
aatp8
Rp9
.ccollections
OrderedDict
p0
((lp1
(lp2
S'state'
p3
aI0
aa(lp4
S'distance'
p5
aF379.6894989013672
aa(lp6
S'timestamp'
p7
aF1.4882311820983887
aatp8
Rp9
.ccollections
OrderedDict
p0
((lp1
(lp2
S'state'
p3
aI0
aa(lp4
S'distance'
p5
aF379.6894989013672
aa(lp6
S'timestamp'
p7
aF1.4889750480651855
aatp8
Rp9
.ccollections
OrderedDict
p0
((lp1
(lp2
S'state'
p3
aI0
aa(lp4
S'distance'
p5
aF379.6894989013672
aa(lp6
S'timestamp'
p7
aF1.498138189315796
aatp8
Rp9
.ccollections
OrderedDict
p0
((lp1
(lp2
S'state'
p3
aI0
aa(lp4
S'distance'
p5
aF379.6894989013672
aa(lp6
S'timestamp'
p7
aF1.498486042022705
aatp8
Rp9
.ccollections
OrderedDict
p0
((lp1
(lp2
S'state'
p3
aI0
aa(lp4
S'distance'
p5
aF379.6894989013672
aa(lp6
S'timestamp'
p7
aF1.4991459846496582
aatp8
Rp9
.ccollections
OrderedDict
p0
((lp1
(lp2
S'state'
p3
aI0
aa(lp4
S'distance'
p5
aF379.6894989013672
aa(lp6
S'timestamp'
p7
aF1.5087971687316895
aatp8
Rp9
.ccollections
OrderedDict
p0
((lp1
(lp2
S'state'
p3
aI0
aa(lp4
S'distance'
p5
aF379.6894989013672
aa(lp6
S'timestamp'
p7
aF1.508871078491211
aatp8
Rp9
.ccollections
OrderedDict
p0
((lp1
(lp2
S'state'
p3
aI0
aa(lp4
S'distance'
p5
aF379.6894989013672
aa(lp6
S'timestamp'
p7
aF1.5177521705627441
aatp8
Rp9
.ccollections
OrderedDict
p0
((lp1
(lp2
S'state'
p3
aI0
aa(lp4
S'distance'
p5
aF379.6894989013672
aa(lp6
S'timestamp'
p7
aF1.5186281204223633
aatp8
Rp9
.ccollections
OrderedDict
p0
((lp1
(lp2
S'state'
p3
aI0
aa(lp4
S'distance'
p5
aF379.6894989013672
aa(lp6
S'timestamp'
p7
aF1.5283269882202148
aatp8
Rp9
.ccollections
OrderedDict
p0
((lp1
(lp2
S'state'
p3
aI0
aa(lp4
S'distance'
p5
aF379.6894989013672
aa(lp6
S'timestamp'
p7
aF1.5284390449523926
aatp8
Rp9
.ccollections
OrderedDict
p0
((lp1
(lp2
S'state'
p3
aI0
aa(lp4
S'distance'
p5
aF379.6894989013672
aa(lp6
S'timestamp'
p7
aF1.537682056427002
aatp8
Rp9
.ccollections
OrderedDict
p0
((lp1
(lp2
S'state'
p3
aI0
aa(lp4
S'distance'
p5
aF379.6894989013672
aa(lp6
S'timestamp'
p7
aF1.5384972095489502
aatp8
Rp9
.ccollections
OrderedDict
p0
((lp1
(lp2
S'state'
p3
aI0
aa(lp4
S'distance'
p5
aF379.6894989013672
aa(lp6
S'timestamp'
p7
aF1.5489912033081055
aatp8
Rp9
.ccollections
OrderedDict
p0
((lp1
(lp2
S'state'
p3
aI0
aa(lp4
S'distance'
p5
aF379.6894989013672
aa(lp6
S'timestamp'
p7
aF1.5490920543670654
aatp8
Rp9
.ccollections
OrderedDict
p0
((lp1
(lp2
S'state'
p3
aI0
aa(lp4
S'distance'
p5
aF379.6894989013672
aa(lp6
S'timestamp'
p7
aF1.5580990314483643
aatp8
Rp9
.ccollections
OrderedDict
p0
((lp1
(lp2
S'state'
p3
aI0
aa(lp4
S'distance'
p5
aF379.6894989013672
aa(lp6
S'timestamp'
p7
aF1.558251142501831
aatp8
Rp9
.ccollections
OrderedDict
p0
((lp1
(lp2
S'state'
p3
aI0
aa(lp4
S'distance'
p5
aF379.6894989013672
aa(lp6
S'timestamp'
p7
aF1.5676851272583008
aatp8
Rp9
.ccollections
OrderedDict
p0
((lp1
(lp2
S'state'
p3
aI0
aa(lp4
S'distance'
p5
aF379.6894989013672
aa(lp6
S'timestamp'
p7
aF1.5688161849975586
aatp8
Rp9
.ccollections
OrderedDict
p0
((lp1
(lp2
S'state'
p3
aI0
aa(lp4
S'distance'
p5
aF379.6894989013672
aa(lp6
S'timestamp'
p7
aF1.5782551765441895
aatp8
Rp9
.ccollections
OrderedDict
p0
((lp1
(lp2
S'state'
p3
aI0
aa(lp4
S'distance'
p5
aF379.6894989013672
aa(lp6
S'timestamp'
p7
aF1.5783300399780273
aatp8
Rp9
.ccollections
OrderedDict
p0
((lp1
(lp2
S'state'
p3
aI0
aa(lp4
S'distance'
p5
aF379.6894989013672
aa(lp6
S'timestamp'
p7
aF1.588421106338501
aatp8
Rp9
.ccollections
OrderedDict
p0
((lp1
(lp2
S'state'
p3
aI0
aa(lp4
S'distance'
p5
aF379.6894989013672
aa(lp6
S'timestamp'
p7
aF1.588942050933838
aatp8
Rp9
.ccollections
OrderedDict
p0
((lp1
(lp2
S'state'
p3
aI0
aa(lp4
S'distance'
p5
aF379.6894989013672
aa(lp6
S'timestamp'
p7
aF1.5983281135559082
aatp8
Rp9
.ccollections
OrderedDict
p0
((lp1
(lp2
S'state'
p3
aI0
aa(lp4
S'distance'
p5
aF379.6894989013672
aa(lp6
S'timestamp'
p7
aF1.598546028137207
aatp8
Rp9
.ccollections
OrderedDict
p0
((lp1
(lp2
S'state'
p3
aI0
aa(lp4
S'distance'
p5
aF379.6894989013672
aa(lp6
S'timestamp'
p7
aF1.6080541610717773
aatp8
Rp9
.ccollections
OrderedDict
p0
((lp1
(lp2
S'state'
p3
aI0
aa(lp4
S'distance'
p5
aF379.6894989013672
aa(lp6
S'timestamp'
p7
aF1.6085801124572754
aatp8
Rp9
.ccollections
OrderedDict
p0
((lp1
(lp2
S'state'
p3
aI0
aa(lp4
S'distance'
p5
aF379.6894989013672
aa(lp6
S'timestamp'
p7
aF1.618283987045288
aatp8
Rp9
.ccollections
OrderedDict
p0
((lp1
(lp2
S'state'
p3
aI0
aa(lp4
S'distance'
p5
aF379.6894989013672
aa(lp6
S'timestamp'
p7
aF1.618666172027588
aatp8
Rp9
.ccollections
OrderedDict
p0
((lp1
(lp2
S'state'
p3
aI0
aa(lp4
S'distance'
p5
aF379.6894989013672
aa(lp6
S'timestamp'
p7
aF1.6278650760650635
aatp8
Rp9
.ccollections
OrderedDict
p0
((lp1
(lp2
S'state'
p3
aI0
aa(lp4
S'distance'
p5
aF379.6894989013672
aa(lp6
S'timestamp'
p7
aF1.6382970809936523
aatp8
Rp9
.ccollections
OrderedDict
p0
((lp1
(lp2
S'state'
p3
aI0
aa(lp4
S'distance'
p5
aF379.6894989013672
aa(lp6
S'timestamp'
p7
aF1.6388790607452393
aatp8
Rp9
.ccollections
OrderedDict
p0
((lp1
(lp2
S'state'
p3
aI0
aa(lp4
S'distance'
p5
aF379.6894989013672
aa(lp6
S'timestamp'
p7
aF1.6478750705718994
aatp8
Rp9
.ccollections
OrderedDict
p0
((lp1
(lp2
S'state'
p3
aI0
aa(lp4
S'distance'
p5
aF379.6894989013672
aa(lp6
S'timestamp'
p7
aF1.6485919952392578
aatp8
Rp9
.ccollections
OrderedDict
p0
((lp1
(lp2
S'state'
p3
aI0
aa(lp4
S'distance'
p5
aF379.6894989013672
aa(lp6
S'timestamp'
p7
aF1.6490740776062012
aatp8
Rp9
.ccollections
OrderedDict
p0
((lp1
(lp2
S'state'
p3
aI0
aa(lp4
S'distance'
p5
aF379.6894989013672
aa(lp6
S'timestamp'
p7
aF1.6576220989227295
aatp8
Rp9
.ccollections
OrderedDict
p0
((lp1
(lp2
S'state'
p3
aI0
aa(lp4
S'distance'
p5
aF379.6894989013672
aa(lp6
S'timestamp'
p7
aF1.6583809852600098
aatp8
Rp9
.ccollections
OrderedDict
p0
((lp1
(lp2
S'state'
p3
aI0
aa(lp4
S'distance'
p5
aF379.6894989013672
aa(lp6
S'timestamp'
p7
aF1.668044090270996
aatp8
Rp9
.ccollections
OrderedDict
p0
((lp1
(lp2
S'state'
p3
aI0
aa(lp4
S'distance'
p5
aF379.6894989013672
aa(lp6
S'timestamp'
p7
aF1.6684091091156006
aatp8
Rp9
.ccollections
OrderedDict
p0
((lp1
(lp2
S'state'
p3
aI0
aa(lp4
S'distance'
p5
aF379.6894989013672
aa(lp6
S'timestamp'
p7
aF1.67799711227417
aatp8
Rp9
.ccollections
OrderedDict
p0
((lp1
(lp2
S'state'
p3
aI0
aa(lp4
S'distance'
p5
aF379.6894989013672
aa(lp6
S'timestamp'
p7
aF1.6783850193023682
aatp8
Rp9
.ccollections
OrderedDict
p0
((lp1
(lp2
S'state'
p3
aI0
aa(lp4
S'distance'
p5
aF379.6894989013672
aa(lp6
S'timestamp'
p7
aF1.6881201267242432
aatp8
Rp9
.ccollections
OrderedDict
p0
((lp1
(lp2
S'state'
p3
aI0
aa(lp4
S'distance'
p5
aF379.6894989013672
aa(lp6
S'timestamp'
p7
aF1.688194990158081
aatp8
Rp9
.ccollections
OrderedDict
p0
((lp1
(lp2
S'state'
p3
aI0
aa(lp4
S'distance'
p5
aF379.6894989013672
aa(lp6
S'timestamp'
p7
aF1.6980960369110107
aatp8
Rp9
.ccollections
OrderedDict
p0
((lp1
(lp2
S'state'
p3
aI0
aa(lp4
S'distance'
p5
aF379.6894989013672
aa(lp6
S'timestamp'
p7
aF1.6981711387634277
aatp8
Rp9
.ccollections
OrderedDict
p0
((lp1
(lp2
S'state'
p3
aI0
aa(lp4
S'distance'
p5
aF379.6894989013672
aa(lp6
S'timestamp'
p7
aF1.7076261043548584
aatp8
Rp9
.ccollections
OrderedDict
p0
((lp1
(lp2
S'state'
p3
aI0
aa(lp4
S'distance'
p5
aF379.6894989013672
aa(lp6
S'timestamp'
p7
aF1.708165168762207
aatp8
Rp9
.ccollections
OrderedDict
p0
((lp1
(lp2
S'state'
p3
aI0
aa(lp4
S'distance'
p5
aF379.6894989013672
aa(lp6
S'timestamp'
p7
aF1.717534065246582
aatp8
Rp9
.ccollections
OrderedDict
p0
((lp1
(lp2
S'state'
p3
aI0
aa(lp4
S'distance'
p5
aF379.6894989013672
aa(lp6
S'timestamp'
p7
aF1.718555212020874
aatp8
Rp9
.ccollections
OrderedDict
p0
((lp1
(lp2
S'state'
p3
aI0
aa(lp4
S'distance'
p5
aF379.6894989013672
aa(lp6
S'timestamp'
p7
aF1.7275011539459229
aatp8
Rp9
.ccollections
OrderedDict
p0
((lp1
(lp2
S'state'
p3
aI0
aa(lp4
S'distance'
p5
aF379.6894989013672
aa(lp6
S'timestamp'
p7
aF1.7280781269073486
aatp8
Rp9
.ccollections
OrderedDict
p0
((lp1
(lp2
S'state'
p3
aI0
aa(lp4
S'distance'
p5
aF379.6894989013672
aa(lp6
S'timestamp'
p7
aF1.737584114074707
aatp8
Rp9
.ccollections
OrderedDict
p0
((lp1
(lp2
S'state'
p3
aI0
aa(lp4
S'distance'
p5
aF379.6894989013672
aa(lp6
S'timestamp'
p7
aF1.7380211353302002
aatp8
Rp9
.ccollections
OrderedDict
p0
((lp1
(lp2
S'state'
p3
aI0
aa(lp4
S'distance'
p5
aF379.6894989013672
aa(lp6
S'timestamp'
p7
aF1.7477121353149414
aatp8
Rp9
.ccollections
OrderedDict
p0
((lp1
(lp2
S'state'
p3
aI0
aa(lp4
S'distance'
p5
aF379.6894989013672
aa(lp6
S'timestamp'
p7
aF1.7480180263519287
aatp8
Rp9
.ccollections
OrderedDict
p0
((lp1
(lp2
S'state'
p3
aI0
aa(lp4
S'distance'
p5
aF379.6894989013672
aa(lp6
S'timestamp'
p7
aF1.75856614112854
aatp8
Rp9
.ccollections
OrderedDict
p0
((lp1
(lp2
S'state'
p3
aI0
aa(lp4
S'distance'
p5
aF379.6894989013672
aa(lp6
S'timestamp'
p7
aF1.7587661743164062
aatp8
Rp9
.ccollections
OrderedDict
p0
((lp1
(lp2
S'state'
p3
aI0
aa(lp4
S'distance'
p5
aF379.6894989013672
aa(lp6
S'timestamp'
p7
aF1.768261194229126
aatp8
Rp9
.ccollections
OrderedDict
p0
((lp1
(lp2
S'state'
p3
aI0
aa(lp4
S'distance'
p5
aF379.6894989013672
aa(lp6
S'timestamp'
p7
aF1.7683370113372803
aatp8
Rp9
.ccollections
OrderedDict
p0
((lp1
(lp2
S'state'
p3
aI0
aa(lp4
S'distance'
p5
aF379.6894989013672
aa(lp6
S'timestamp'
p7
aF1.7774701118469238
aatp8
Rp9
.ccollections
OrderedDict
p0
((lp1
(lp2
S'state'
p3
aI0
aa(lp4
S'distance'
p5
aF379.6894989013672
aa(lp6
S'timestamp'
p7
aF1.7781150341033936
aatp8
Rp9
.ccollections
OrderedDict
p0
((lp1
(lp2
S'state'
p3
aI0
aa(lp4
S'distance'
p5
aF379.6894989013672
aa(lp6
S'timestamp'
p7
aF1.787541151046753
aatp8
Rp9
.ccollections
OrderedDict
p0
((lp1
(lp2
S'state'
p3
aI0
aa(lp4
S'distance'
p5
aF379.6894989013672
aa(lp6
S'timestamp'
p7
aF1.7878880500793457
aatp8
Rp9
.ccollections
OrderedDict
p0
((lp1
(lp2
S'state'
p3
aI0
aa(lp4
S'distance'
p5
aF379.6894989013672
aa(lp6
S'timestamp'
p7
aF1.7975800037384033
aatp8
Rp9
.ccollections
OrderedDict
p0
((lp1
(lp2
S'state'
p3
aI0
aa(lp4
S'distance'
p5
aF379.6894989013672
aa(lp6
S'timestamp'
p7
aF1.7978730201721191
aatp8
Rp9
.ccollections
OrderedDict
p0
((lp1
(lp2
S'state'
p3
aI0
aa(lp4
S'distance'
p5
aF379.6894989013672
aa(lp6
S'timestamp'
p7
aF1.8098270893096924
aatp8
Rp9
.ccollections
OrderedDict
p0
((lp1
(lp2
S'state'
p3
aI0
aa(lp4
S'distance'
p5
aF379.6894989013672
aa(lp6
S'timestamp'
p7
aF1.8100872039794922
aatp8
Rp9
.ccollections
OrderedDict
p0
((lp1
(lp2
S'state'
p3
aI0
aa(lp4
S'distance'
p5
aF379.6894989013672
aa(lp6
S'timestamp'
p7
aF1.8179140090942383
aatp8
Rp9
.ccollections
OrderedDict
p0
((lp1
(lp2
S'state'
p3
aI0
aa(lp4
S'distance'
p5
aF379.6894989013672
aa(lp6
S'timestamp'
p7
aF1.8190221786499023
aatp8
Rp9
.ccollections
OrderedDict
p0
((lp1
(lp2
S'state'
p3
aI0
aa(lp4
S'distance'
p5
aF379.6894989013672
aa(lp6
S'timestamp'
p7
aF1.8273320198059082
aatp8
Rp9
.ccollections
OrderedDict
p0
((lp1
(lp2
S'state'
p3
aI0
aa(lp4
S'distance'
p5
aF379.6894989013672
aa(lp6
S'timestamp'
p7
aF1.8279881477355957
aatp8
Rp9
.ccollections
OrderedDict
p0
((lp1
(lp2
S'state'
p3
aI0
aa(lp4
S'distance'
p5
aF379.6894989013672
aa(lp6
S'timestamp'
p7
aF1.838219165802002
aatp8
Rp9
.ccollections
OrderedDict
p0
((lp1
(lp2
S'state'
p3
aI0
aa(lp4
S'distance'
p5
aF379.6894989013672
aa(lp6
S'timestamp'
p7
aF1.8383781909942627
aatp8
Rp9
.ccollections
OrderedDict
p0
((lp1
(lp2
S'state'
p3
aI0
aa(lp4
S'distance'
p5
aF379.6894989013672
aa(lp6
S'timestamp'
p7
aF1.8477580547332764
aatp8
Rp9
.ccollections
OrderedDict
p0
((lp1
(lp2
S'state'
p3
aI0
aa(lp4
S'distance'
p5
aF379.6894989013672
aa(lp6
S'timestamp'
p7
aF1.8482401371002197
aatp8
Rp9
.ccollections
OrderedDict
p0
((lp1
(lp2
S'state'
p3
aI0
aa(lp4
S'distance'
p5
aF379.6894989013672
aa(lp6
S'timestamp'
p7
aF1.8574621677398682
aatp8
Rp9
.ccollections
OrderedDict
p0
((lp1
(lp2
S'state'
p3
aI0
aa(lp4
S'distance'
p5
aF379.6894989013672
aa(lp6
S'timestamp'
p7
aF1.8578681945800781
aatp8
Rp9
.ccollections
OrderedDict
p0
((lp1
(lp2
S'state'
p3
aI0
aa(lp4
S'distance'
p5
aF379.6894989013672
aa(lp6
S'timestamp'
p7
aF1.8676581382751465
aatp8
Rp9
.ccollections
OrderedDict
p0
((lp1
(lp2
S'state'
p3
aI0
aa(lp4
S'distance'
p5
aF379.6894989013672
aa(lp6
S'timestamp'
p7
aF1.868326187133789
aatp8
Rp9
.ccollections
OrderedDict
p0
((lp1
(lp2
S'state'
p3
aI0
aa(lp4
S'distance'
p5
aF379.6894989013672
aa(lp6
S'timestamp'
p7
aF1.877392053604126
aatp8
Rp9
.ccollections
OrderedDict
p0
((lp1
(lp2
S'state'
p3
aI0
aa(lp4
S'distance'
p5
aF379.6894989013672
aa(lp6
S'timestamp'
p7
aF1.8783950805664062
aatp8
Rp9
.ccollections
OrderedDict
p0
((lp1
(lp2
S'state'
p3
aI0
aa(lp4
S'distance'
p5
aF379.6894989013672
aa(lp6
S'timestamp'
p7
aF1.8873519897460938
aatp8
Rp9
.ccollections
OrderedDict
p0
((lp1
(lp2
S'state'
p3
aI0
aa(lp4
S'distance'
p5
aF379.6894989013672
aa(lp6
S'timestamp'
p7
aF1.887869119644165
aatp8
Rp9
.ccollections
OrderedDict
p0
((lp1
(lp2
S'state'
p3
aI0
aa(lp4
S'distance'
p5
aF379.6894989013672
aa(lp6
S'timestamp'
p7
aF1.897862195968628
aatp8
Rp9
.ccollections
OrderedDict
p0
((lp1
(lp2
S'state'
p3
aI0
aa(lp4
S'distance'
p5
aF379.6894989013672
aa(lp6
S'timestamp'
p7
aF1.8985071182250977
aatp8
Rp9
.ccollections
OrderedDict
p0
((lp1
(lp2
S'state'
p3
aI0
aa(lp4
S'distance'
p5
aF379.6894989013672
aa(lp6
S'timestamp'
p7
aF1.907433032989502
aatp8
Rp9
.ccollections
OrderedDict
p0
((lp1
(lp2
S'state'
p3
aI0
aa(lp4
S'distance'
p5
aF379.6894989013672
aa(lp6
S'timestamp'
p7
aF1.9078881740570068
aatp8
Rp9
.ccollections
OrderedDict
p0
((lp1
(lp2
S'state'
p3
aI0
aa(lp4
S'distance'
p5
aF379.6894989013672
aa(lp6
S'timestamp'
p7
aF1.9172780513763428
aatp8
Rp9
.ccollections
OrderedDict
p0
((lp1
(lp2
S'state'
p3
aI0
aa(lp4
S'distance'
p5
aF379.6894989013672
aa(lp6
S'timestamp'
p7
aF1.9178900718688965
aatp8
Rp9
.ccollections
OrderedDict
p0
((lp1
(lp2
S'state'
p3
aI0
aa(lp4
S'distance'
p5
aF379.6894989013672
aa(lp6
S'timestamp'
p7
aF1.928206205368042
aatp8
Rp9
.ccollections
OrderedDict
p0
((lp1
(lp2
S'state'
p3
aI0
aa(lp4
S'distance'
p5
aF379.6894989013672
aa(lp6
S'timestamp'
p7
aF1.928415060043335
aatp8
Rp9
.ccollections
OrderedDict
p0
((lp1
(lp2
S'state'
p3
aI0
aa(lp4
S'distance'
p5
aF379.6894989013672
aa(lp6
S'timestamp'
p7
aF1.9373769760131836
aatp8
Rp9
.ccollections
OrderedDict
p0
((lp1
(lp2
S'state'
p3
aI0
aa(lp4
S'distance'
p5
aF379.6894989013672
aa(lp6
S'timestamp'
p7
aF1.9380052089691162
aatp8
Rp9
.ccollections
OrderedDict
p0
((lp1
(lp2
S'state'
p3
aI0
aa(lp4
S'distance'
p5
aF379.6894989013672
aa(lp6
S'timestamp'
p7
aF1.947486162185669
aatp8
Rp9
.ccollections
OrderedDict
p0
((lp1
(lp2
S'state'
p3
aI0
aa(lp4
S'distance'
p5
aF379.6894989013672
aa(lp6
S'timestamp'
p7
aF1.9584240913391113
aatp8
Rp9
.ccollections
OrderedDict
p0
((lp1
(lp2
S'state'
p3
aI0
aa(lp4
S'distance'
p5
aF379.6894989013672
aa(lp6
S'timestamp'
p7
aF1.9585840702056885
aatp8
Rp9
.ccollections
OrderedDict
p0
((lp1
(lp2
S'state'
p3
aI0
aa(lp4
S'distance'
p5
aF379.6894989013672
aa(lp6
S'timestamp'
p7
aF1.9586570262908936
aatp8
Rp9
.ccollections
OrderedDict
p0
((lp1
(lp2
S'state'
p3
aI0
aa(lp4
S'distance'
p5
aF379.6894989013672
aa(lp6
S'timestamp'
p7
aF1.9673411846160889
aatp8
Rp9
.ccollections
OrderedDict
p0
((lp1
(lp2
S'state'
p3
aI0
aa(lp4
S'distance'
p5
aF379.6894989013672
aa(lp6
S'timestamp'
p7
aF1.9677159786224365
aatp8
Rp9
.ccollections
OrderedDict
p0
((lp1
(lp2
S'state'
p3
aI0
aa(lp4
S'distance'
p5
aF379.6894989013672
aa(lp6
S'timestamp'
p7
aF1.9780590534210205
aatp8
Rp9
.ccollections
OrderedDict
p0
((lp1
(lp2
S'state'
p3
aI0
aa(lp4
S'distance'
p5
aF379.6894989013672
aa(lp6
S'timestamp'
p7
aF1.9783411026000977
aatp8
Rp9
.ccollections
OrderedDict
p0
((lp1
(lp2
S'state'
p3
aI0
aa(lp4
S'distance'
p5
aF379.6894989013672
aa(lp6
S'timestamp'
p7
aF1.9877610206604004
aatp8
Rp9
.ccollections
OrderedDict
p0
((lp1
(lp2
S'state'
p3
aI0
aa(lp4
S'distance'
p5
aF379.6894989013672
aa(lp6
S'timestamp'
p7
aF1.9880521297454834
aatp8
Rp9
.ccollections
OrderedDict
p0
((lp1
(lp2
S'state'
p3
aI0
aa(lp4
S'distance'
p5
aF379.6894989013672
aa(lp6
S'timestamp'
p7
aF1.997826099395752
aatp8
Rp9
.ccollections
OrderedDict
p0
((lp1
(lp2
S'state'
p3
aI0
aa(lp4
S'distance'
p5
aF379.6894989013672
aa(lp6
S'timestamp'
p7
aF1.998047113418579
aatp8
Rp9
.ccollections
OrderedDict
p0
((lp1
(lp2
S'state'
p3
aI0
aa(lp4
S'distance'
p5
aF379.6894989013672
aa(lp6
S'timestamp'
p7
aF2.008225202560425
aatp8
Rp9
.ccollections
OrderedDict
p0
((lp1
(lp2
S'state'
p3
aI0
aa(lp4
S'distance'
p5
aF379.6894989013672
aa(lp6
S'timestamp'
p7
aF2.0083000659942627
aatp8
Rp9
.ccollections
OrderedDict
p0
((lp1
(lp2
S'state'
p3
aI0
aa(lp4
S'distance'
p5
aF379.6894989013672
aa(lp6
S'timestamp'
p7
aF2.017315149307251
aatp8
Rp9
.ccollections
OrderedDict
p0
((lp1
(lp2
S'state'
p3
aI0
aa(lp4
S'distance'
p5
aF379.6894989013672
aa(lp6
S'timestamp'
p7
aF2.017813205718994
aatp8
Rp9
.ccollections
OrderedDict
p0
((lp1
(lp2
S'state'
p3
aI0
aa(lp4
S'distance'
p5
aF379.6894989013672
aa(lp6
S'timestamp'
p7
aF2.027536153793335
aatp8
Rp9
.ccollections
OrderedDict
p0
((lp1
(lp2
S'state'
p3
aI0
aa(lp4
S'distance'
p5
aF379.6894989013672
aa(lp6
S'timestamp'
p7
aF2.027891159057617
aatp8
Rp9
.ccollections
OrderedDict
p0
((lp1
(lp2
S'state'
p3
aI0
aa(lp4
S'distance'
p5
aF379.6894989013672
aa(lp6
S'timestamp'
p7
aF2.0374321937561035
aatp8
Rp9
.ccollections
OrderedDict
p0
((lp1
(lp2
S'state'
p3
aI0
aa(lp4
S'distance'
p5
aF379.6894989013672
aa(lp6
S'timestamp'
p7
aF2.037598133087158
aatp8
Rp9
.ccollections
OrderedDict
p0
((lp1
(lp2
S'state'
p3
aI0
aa(lp4
S'distance'
p5
aF379.6894989013672
aa(lp6
S'timestamp'
p7
aF2.047415018081665
aatp8
Rp9
.ccollections
OrderedDict
p0
((lp1
(lp2
S'state'
p3
aI0
aa(lp4
S'distance'
p5
aF379.6894989013672
aa(lp6
S'timestamp'
p7
aF2.0476720333099365
aatp8
Rp9
.ccollections
OrderedDict
p0
((lp1
(lp2
S'state'
p3
aI0
aa(lp4
S'distance'
p5
aF379.6894989013672
aa(lp6
S'timestamp'
p7
aF2.0585830211639404
aatp8
Rp9
.ccollections
OrderedDict
p0
((lp1
(lp2
S'state'
p3
aI0
aa(lp4
S'distance'
p5
aF379.6894989013672
aa(lp6
S'timestamp'
p7
aF2.058704137802124
aatp8
Rp9
.ccollections
OrderedDict
p0
((lp1
(lp2
S'state'
p3
aI0
aa(lp4
S'distance'
p5
aF379.6894989013672
aa(lp6
S'timestamp'
p7
aF2.0671451091766357
aatp8
Rp9
.ccollections
OrderedDict
p0
((lp1
(lp2
S'state'
p3
aI0
aa(lp4
S'distance'
p5
aF379.6894989013672
aa(lp6
S'timestamp'
p7
aF2.06779408454895
aatp8
Rp9
.ccollections
OrderedDict
p0
((lp1
(lp2
S'state'
p3
aI0
aa(lp4
S'distance'
p5
aF379.6894989013672
aa(lp6
S'timestamp'
p7
aF2.077423095703125
aatp8
Rp9
.ccollections
OrderedDict
p0
((lp1
(lp2
S'state'
p3
aI0
aa(lp4
S'distance'
p5
aF379.6894989013672
aa(lp6
S'timestamp'
p7
aF2.0775671005249023
aatp8
Rp9
.ccollections
OrderedDict
p0
((lp1
(lp2
S'state'
p3
aI0
aa(lp4
S'distance'
p5
aF379.6894989013672
aa(lp6
S'timestamp'
p7
aF2.087238073348999
aatp8
Rp9
.ccollections
OrderedDict
p0
((lp1
(lp2
S'state'
p3
aI0
aa(lp4
S'distance'
p5
aF379.6894989013672
aa(lp6
S'timestamp'
p7
aF2.098069190979004
aatp8
Rp9
.ccollections
OrderedDict
p0
((lp1
(lp2
S'state'
p3
aI0
aa(lp4
S'distance'
p5
aF379.6894989013672
aa(lp6
S'timestamp'
p7
aF2.098680019378662
aatp8
Rp9
.ccollections
OrderedDict
p0
((lp1
(lp2
S'state'
p3
aI0
aa(lp4
S'distance'
p5
aF379.6894989013672
aa(lp6
S'timestamp'
p7
aF2.0987651348114014
aatp8
Rp9
.ccollections
OrderedDict
p0
((lp1
(lp2
S'state'
p3
aI0
aa(lp4
S'distance'
p5
aF379.6894989013672
aa(lp6
S'timestamp'
p7
aF2.107362985610962
aatp8
Rp9
.ccollections
OrderedDict
p0
((lp1
(lp2
S'state'
p3
aI0
aa(lp4
S'distance'
p5
aF379.6894989013672
aa(lp6
S'timestamp'
p7
aF2.1074860095977783
aatp8
Rp9
.ccollections
OrderedDict
p0
((lp1
(lp2
S'state'
p3
aI0
aa(lp4
S'distance'
p5
aF379.6894989013672
aa(lp6
S'timestamp'
p7
aF2.117021083831787
aatp8
Rp9
.ccollections
OrderedDict
p0
((lp1
(lp2
S'state'
p3
aI0
aa(lp4
S'distance'
p5
aF379.6894989013672
aa(lp6
S'timestamp'
p7
aF2.1174941062927246
aatp8
Rp9
.ccollections
OrderedDict
p0
((lp1
(lp2
S'state'
p3
aI0
aa(lp4
S'distance'
p5
aF379.6894989013672
aa(lp6
S'timestamp'
p7
aF2.1272380352020264
aatp8
Rp9
.ccollections
OrderedDict
p0
((lp1
(lp2
S'state'
p3
aI0
aa(lp4
S'distance'
p5
aF379.6894989013672
aa(lp6
S'timestamp'
p7
aF2.1275410652160645
aatp8
Rp9
.ccollections
OrderedDict
p0
((lp1
(lp2
S'state'
p3
aI0
aa(lp4
S'distance'
p5
aF379.6894989013672
aa(lp6
S'timestamp'
p7
aF2.1376211643218994
aatp8
Rp9
.ccollections
OrderedDict
p0
((lp1
(lp2
S'state'
p3
aI400
aa(lp4
S'distance'
p5
aF379.6894989013672
aa(lp6
S'timestamp'
p7
aF2.1378800868988037
aatp8
Rp9
.ccollections
OrderedDict
p0
((lp1
(lp2
S'state'
p3
aI400
aa(lp4
S'distance'
p5
aF379.6894989013672
aa(lp6
S'timestamp'
p7
aF2.1473000049591064
aatp8
Rp9
.ccollections
OrderedDict
p0
((lp1
(lp2
S'state'
p3
aI400
aa(lp4
S'distance'
p5
aF379.6894989013672
aa(lp6
S'timestamp'
p7
aF2.1479971408843994
aatp8
Rp9
.ccollections
OrderedDict
p0
((lp1
(lp2
S'state'
p3
aI400
aa(lp4
S'distance'
p5
aF379.6894989013672
aa(lp6
S'timestamp'
p7
aF2.1580681800842285
aatp8
Rp9
.ccollections
OrderedDict
p0
((lp1
(lp2
S'state'
p3
aI400
aa(lp4
S'distance'
p5
aF379.6894989013672
aa(lp6
S'timestamp'
p7
aF2.1581640243530273
aatp8
Rp9
.ccollections
OrderedDict
p0
((lp1
(lp2
S'state'
p3
aI400
aa(lp4
S'distance'
p5
aF379.6894989013672
aa(lp6
S'timestamp'
p7
aF2.169530153274536
aatp8
Rp9
.ccollections
OrderedDict
p0
((lp1
(lp2
S'state'
p3
aI400
aa(lp4
S'distance'
p5
aF379.6894989013672
aa(lp6
S'timestamp'
p7
aF2.1704041957855225
aatp8
Rp9
.ccollections
OrderedDict
p0
((lp1
(lp2
S'state'
p3
aI400
aa(lp4
S'distance'
p5
aF379.6894989013672
aa(lp6
S'timestamp'
p7
aF2.178056001663208
aatp8
Rp9
.ccollections
OrderedDict
p0
((lp1
(lp2
S'state'
p3
aI400
aa(lp4
S'distance'
p5
aF379.6894989013672
aa(lp6
S'timestamp'
p7
aF2.1786282062530518
aatp8
Rp9
.ccollections
OrderedDict
p0
((lp1
(lp2
S'state'
p3
aI400
aa(lp4
S'distance'
p5
aF379.6894989013672
aa(lp6
S'timestamp'
p7
aF2.1986072063446045
aatp8
Rp9
.ccollections
OrderedDict
p0
((lp1
(lp2
S'state'
p3
aI400
aa(lp4
S'distance'
p5
aF379.6894989013672
aa(lp6
S'timestamp'
p7
aF2.198759078979492
aatp8
Rp9
.ccollections
OrderedDict
p0
((lp1
(lp2
S'state'
p3
aI400
aa(lp4
S'distance'
p5
aF379.6894989013672
aa(lp6
S'timestamp'
p7
aF2.1988329887390137
aatp8
Rp9
.ccollections
OrderedDict
p0
((lp1
(lp2
S'state'
p3
aI400
aa(lp4
S'distance'
p5
aF379.6894989013672
aa(lp6
S'timestamp'
p7
aF2.198930025100708
aatp8
Rp9
.ccollections
OrderedDict
p0
((lp1
(lp2
S'state'
p3
aI400
aa(lp4
S'distance'
p5
aF379.6894989013672
aa(lp6
S'timestamp'
p7
aF2.217072010040283
aatp8
Rp9
.ccollections
OrderedDict
p0
((lp1
(lp2
S'state'
p3
aI400
aa(lp4
S'distance'
p5
aF379.6894989013672
aa(lp6
S'timestamp'
p7
aF2.217940092086792
aatp8
Rp9
.ccollections
OrderedDict
p0
((lp1
(lp2
S'state'
p3
aI400
aa(lp4
S'distance'
p5
aF379.6894989013672
aa(lp6
S'timestamp'
p7
aF2.2185771465301514
aatp8
Rp9
.ccollections
OrderedDict
p0
((lp1
(lp2
S'state'
p3
aI400
aa(lp4
S'distance'
p5
aF379.6894989013672
aa(lp6
S'timestamp'
p7
aF2.227337121963501
aatp8
Rp9
.ccollections
OrderedDict
p0
((lp1
(lp2
S'state'
p3
aI400
aa(lp4
S'distance'
p5
aF379.6894989013672
aa(lp6
S'timestamp'
p7
aF2.2282090187072754
aatp8
Rp9
.ccollections
OrderedDict
p0
((lp1
(lp2
S'state'
p3
aI400
aa(lp4
S'distance'
p5
aF379.6894989013672
aa(lp6
S'timestamp'
p7
aF2.2311501502990723
aatp8
Rp9
.ccollections
OrderedDict
p0
((lp1
(lp2
S'state'
p3
aI400
aa(lp4
S'distance'
p5
aF379.6894989013672
aa(lp6
S'timestamp'
p7
aF2.2382280826568604
aatp8
Rp9
.ccollections
OrderedDict
p0
((lp1
(lp2
S'state'
p3
aI400
aa(lp4
S'distance'
p5
aF379.6894989013672
aa(lp6
S'timestamp'
p7
aF2.239046096801758
aatp8
Rp9
.ccollections
OrderedDict
p0
((lp1
(lp2
S'state'
p3
aI400
aa(lp4
S'distance'
p5
aF379.6894989013672
aa(lp6
S'timestamp'
p7
aF2.247434139251709
aatp8
Rp9
.ccollections
OrderedDict
p0
((lp1
(lp2
S'state'
p3
aI400
aa(lp4
S'distance'
p5
aF379.6894989013672
aa(lp6
S'timestamp'
p7
aF2.2475061416625977
aatp8
Rp9
.ccollections
OrderedDict
p0
((lp1
(lp2
S'state'
p3
aI400
aa(lp4
S'distance'
p5
aF379.6894989013672
aa(lp6
S'timestamp'
p7
aF2.257768154144287
aatp8
Rp9
.ccollections
OrderedDict
p0
((lp1
(lp2
S'state'
p3
aI400
aa(lp4
S'distance'
p5
aF379.6894989013672
aa(lp6
S'timestamp'
p7
aF2.2586991786956787
aatp8
Rp9
.ccollections
OrderedDict
p0
((lp1
(lp2
S'state'
p3
aI400
aa(lp4
S'distance'
p5
aF379.6894989013672
aa(lp6
S'timestamp'
p7
aF2.2677581310272217
aatp8
Rp9
.ccollections
OrderedDict
p0
((lp1
(lp2
S'state'
p3
aI400
aa(lp4
S'distance'
p5
aF379.6894989013672
aa(lp6
S'timestamp'
p7
aF2.2769081592559814
aatp8
Rp9
.ccollections
OrderedDict
p0
((lp1
(lp2
S'state'
p3
aI400
aa(lp4
S'distance'
p5
aF379.6894989013672
aa(lp6
S'timestamp'
p7
aF2.277116060256958
aatp8
Rp9
.ccollections
OrderedDict
p0
((lp1
(lp2
S'state'
p3
aI400
aa(lp4
S'distance'
p5
aF379.6894989013672
aa(lp6
S'timestamp'
p7
aF2.2785370349884033
aatp8
Rp9
.ccollections
OrderedDict
p0
((lp1
(lp2
S'state'
p3
aI400
aa(lp4
S'distance'
p5
aF379.6894989013672
aa(lp6
S'timestamp'
p7
aF2.2875940799713135
aatp8
Rp9
.ccollections
OrderedDict
p0
((lp1
(lp2
S'state'
p3
aI400
aa(lp4
S'distance'
p5
aF379.6894989013672
aa(lp6
S'timestamp'
p7
aF2.2880899906158447
aatp8
Rp9
.ccollections
OrderedDict
p0
((lp1
(lp2
S'state'
p3
aI400
aa(lp4
S'distance'
p5
aF379.6894989013672
aa(lp6
S'timestamp'
p7
aF2.296787977218628
aatp8
Rp9
.ccollections
OrderedDict
p0
((lp1
(lp2
S'state'
p3
aI400
aa(lp4
S'distance'
p5
aF379.6894989013672
aa(lp6
S'timestamp'
p7
aF2.2972869873046875
aatp8
Rp9
.ccollections
OrderedDict
p0
((lp1
(lp2
S'state'
p3
aI400
aa(lp4
S'distance'
p5
aF379.6894989013672
aa(lp6
S'timestamp'
p7
aF2.3070151805877686
aatp8
Rp9
.ccollections
OrderedDict
p0
((lp1
(lp2
S'state'
p3
aI400
aa(lp4
S'distance'
p5
aF379.6894989013672
aa(lp6
S'timestamp'
p7
aF2.308037042617798
aatp8
Rp9
.ccollections
OrderedDict
p0
((lp1
(lp2
S'state'
p3
aI400
aa(lp4
S'distance'
p5
aF379.6894989013672
aa(lp6
S'timestamp'
p7
aF2.3173391819000244
aatp8
Rp9
.ccollections
OrderedDict
p0
((lp1
(lp2
S'state'
p3
aI400
aa(lp4
S'distance'
p5
aF379.6894989013672
aa(lp6
S'timestamp'
p7
aF2.3177480697631836
aatp8
Rp9
.ccollections
OrderedDict
p0
((lp1
(lp2
S'state'
p3
aI400
aa(lp4
S'distance'
p5
aF379.6894989013672
aa(lp6
S'timestamp'
p7
aF2.3273890018463135
aatp8
Rp9
.ccollections
OrderedDict
p0
((lp1
(lp2
S'state'
p3
aI400
aa(lp4
S'distance'
p5
aF379.6894989013672
aa(lp6
S'timestamp'
p7
aF2.3280811309814453
aatp8
Rp9
.ccollections
OrderedDict
p0
((lp1
(lp2
S'state'
p3
aI400
aa(lp4
S'distance'
p5
aF379.6894989013672
aa(lp6
S'timestamp'
p7
aF2.336970090866089
aatp8
Rp9
.ccollections
OrderedDict
p0
((lp1
(lp2
S'state'
p3
aI400
aa(lp4
S'distance'
p5
aF379.6894989013672
aa(lp6
S'timestamp'
p7
aF2.3372840881347656
aatp8
Rp9
.ccollections
OrderedDict
p0
((lp1
(lp2
S'state'
p3
aI400
aa(lp4
S'distance'
p5
aF379.6894989013672
aa(lp6
S'timestamp'
p7
aF2.3475542068481445
aatp8
Rp9
.ccollections
OrderedDict
p0
((lp1
(lp2
S'state'
p3
aI400
aa(lp4
S'distance'
p5
aF379.6894989013672
aa(lp6
S'timestamp'
p7
aF2.3480100631713867
aatp8
Rp9
.ccollections
OrderedDict
p0
((lp1
(lp2
S'state'
p3
aI400
aa(lp4
S'distance'
p5
aF379.6894989013672
aa(lp6
S'timestamp'
p7
aF2.356997013092041
aatp8
Rp9
.ccollections
OrderedDict
p0
((lp1
(lp2
S'state'
p3
aI400
aa(lp4
S'distance'
p5
aF379.6894989013672
aa(lp6
S'timestamp'
p7
aF2.358077049255371
aatp8
Rp9
.ccollections
OrderedDict
p0
((lp1
(lp2
S'state'
p3
aI400
aa(lp4
S'distance'
p5
aF379.6894989013672
aa(lp6
S'timestamp'
p7
aF2.366572141647339
aatp8
Rp9
.ccollections
OrderedDict
p0
((lp1
(lp2
S'state'
p3
aI400
aa(lp4
S'distance'
p5
aF379.6894989013672
aa(lp6
S'timestamp'
p7
aF2.3674020767211914
aatp8
Rp9
.ccollections
OrderedDict
p0
((lp1
(lp2
S'state'
p3
aI400
aa(lp4
S'distance'
p5
aF379.6894989013672
aa(lp6
S'timestamp'
p7
aF2.3782691955566406
aatp8
Rp9
.ccollections
OrderedDict
p0
((lp1
(lp2
S'state'
p3
aI400
aa(lp4
S'distance'
p5
aF379.6894989013672
aa(lp6
S'timestamp'
p7
aF2.3783931732177734
aatp8
Rp9
.ccollections
OrderedDict
p0
((lp1
(lp2
S'state'
p3
aI400
aa(lp4
S'distance'
p5
aF379.6894989013672
aa(lp6
S'timestamp'
p7
aF2.3875889778137207
aatp8
Rp9
.ccollections
OrderedDict
p0
((lp1
(lp2
S'state'
p3
aI400
aa(lp4
S'distance'
p5
aF379.6894989013672
aa(lp6
S'timestamp'
p7
aF2.3876900672912598
aatp8
Rp9
.ccollections
OrderedDict
p0
((lp1
(lp2
S'state'
p3
aI400
aa(lp4
S'distance'
p5
aF379.6894989013672
aa(lp6
S'timestamp'
p7
aF2.3971340656280518
aatp8
Rp9
.ccollections
OrderedDict
p0
((lp1
(lp2
S'state'
p3
aI400
aa(lp4
S'distance'
p5
aF379.6894989013672
aa(lp6
S'timestamp'
p7
aF2.39721417427063
aatp8
Rp9
.ccollections
OrderedDict
p0
((lp1
(lp2
S'state'
p3
aI400
aa(lp4
S'distance'
p5
aF379.6894989013672
aa(lp6
S'timestamp'
p7
aF2.4169321060180664
aatp8
Rp9
.ccollections
OrderedDict
p0
((lp1
(lp2
S'state'
p3
aI400
aa(lp4
S'distance'
p5
aF379.6894989013672
aa(lp6
S'timestamp'
p7
aF2.417213201522827
aatp8
Rp9
.ccollections
OrderedDict
p0
((lp1
(lp2
S'state'
p3
aI400
aa(lp4
S'distance'
p5
aF379.6894989013672
aa(lp6
S'timestamp'
p7
aF2.4180049896240234
aatp8
Rp9
.ccollections
OrderedDict
p0
((lp1
(lp2
S'state'
p3
aI400
aa(lp4
S'distance'
p5
aF379.6894989013672
aa(lp6
S'timestamp'
p7
aF2.4182491302490234
aatp8
Rp9
.ccollections
OrderedDict
p0
((lp1
(lp2
S'state'
p3
aI400
aa(lp4
S'distance'
p5
aF379.6894989013672
aa(lp6
S'timestamp'
p7
aF2.426786184310913
aatp8
Rp9
.ccollections
OrderedDict
p0
((lp1
(lp2
S'state'
p3
aI400
aa(lp4
S'distance'
p5
aF379.6894989013672
aa(lp6
S'timestamp'
p7
aF2.42724609375
aatp8
Rp9
.ccollections
OrderedDict
p0
((lp1
(lp2
S'state'
p3
aI400
aa(lp4
S'distance'
p5
aF379.6894989013672
aa(lp6
S'timestamp'
p7
aF2.4372360706329346
aatp8
Rp9
.ccollections
OrderedDict
p0
((lp1
(lp2
S'state'
p3
aI400
aa(lp4
S'distance'
p5
aF379.6894989013672
aa(lp6
S'timestamp'
p7
aF2.437394142150879
aatp8
Rp9
.ccollections
OrderedDict
p0
((lp1
(lp2
S'state'
p3
aI400
aa(lp4
S'distance'
p5
aF379.6894989013672
aa(lp6
S'timestamp'
p7
aF2.4466381072998047
aatp8
Rp9
.ccollections
OrderedDict
p0
((lp1
(lp2
S'state'
p3
aI400
aa(lp4
S'distance'
p5
aF379.6894989013672
aa(lp6
S'timestamp'
p7
aF2.4473490715026855
aatp8
Rp9
.ccollections
OrderedDict
p0
((lp1
(lp2
S'state'
p3
aI400
aa(lp4
S'distance'
p5
aF379.6894989013672
aa(lp6
S'timestamp'
p7
aF2.45686411857605
aatp8
Rp9
.ccollections
OrderedDict
p0
((lp1
(lp2
S'state'
p3
aI400
aa(lp4
S'distance'
p5
aF379.6894989013672
aa(lp6
S'timestamp'
p7
aF2.4574670791625977
aatp8
Rp9
.ccollections
OrderedDict
p0
((lp1
(lp2
S'state'
p3
aI400
aa(lp4
S'distance'
p5
aF379.6894989013672
aa(lp6
S'timestamp'
p7
aF2.467391014099121
aatp8
Rp9
.ccollections
OrderedDict
p0
((lp1
(lp2
S'state'
p3
aI400
aa(lp4
S'distance'
p5
aF379.6894989013672
aa(lp6
S'timestamp'
p7
aF2.467522144317627
aatp8
Rp9
.ccollections
OrderedDict
p0
((lp1
(lp2
S'state'
p3
aI400
aa(lp4
S'distance'
p5
aF379.6894989013672
aa(lp6
S'timestamp'
p7
aF2.477828025817871
aatp8
Rp9
.ccollections
OrderedDict
p0
((lp1
(lp2
S'state'
p3
aI400
aa(lp4
S'distance'
p5
aF379.6894989013672
aa(lp6
S'timestamp'
p7
aF2.478053092956543
aatp8
Rp9
.ccollections
OrderedDict
p0
((lp1
(lp2
S'state'
p3
aI400
aa(lp4
S'distance'
p5
aF379.6894989013672
aa(lp6
S'timestamp'
p7
aF2.4866721630096436
aatp8
Rp9
.ccollections
OrderedDict
p0
((lp1
(lp2
S'state'
p3
aI400
aa(lp4
S'distance'
p5
aF379.6894989013672
aa(lp6
S'timestamp'
p7
aF2.487298011779785
aatp8
Rp9
.ccollections
OrderedDict
p0
((lp1
(lp2
S'state'
p3
aI400
aa(lp4
S'distance'
p5
aF379.6894989013672
aa(lp6
S'timestamp'
p7
aF2.4970149993896484
aatp8
Rp9
.ccollections
OrderedDict
p0
((lp1
(lp2
S'state'
p3
aI400
aa(lp4
S'distance'
p5
aF379.6894989013672
aa(lp6
S'timestamp'
p7
aF2.4972012042999268
aatp8
Rp9
.ccollections
OrderedDict
p0
((lp1
(lp2
S'state'
p3
aI400
aa(lp4
S'distance'
p5
aF379.6894989013672
aa(lp6
S'timestamp'
p7
aF2.507232189178467
aatp8
Rp9
.ccollections
OrderedDict
p0
((lp1
(lp2
S'state'
p3
aI400
aa(lp4
S'distance'
p5
aF379.6894989013672
aa(lp6
S'timestamp'
p7
aF2.5073351860046387
aatp8
Rp9
.ccollections
OrderedDict
p0
((lp1
(lp2
S'state'
p3
aI400
aa(lp4
S'distance'
p5
aF379.6894989013672
aa(lp6
S'timestamp'
p7
aF2.516735076904297
aatp8
Rp9
.ccollections
OrderedDict
p0
((lp1
(lp2
S'state'
p3
aI400
aa(lp4
S'distance'
p5
aF379.6894989013672
aa(lp6
S'timestamp'
p7
aF2.5173280239105225
aatp8
Rp9
.ccollections
OrderedDict
p0
((lp1
(lp2
S'state'
p3
aI400
aa(lp4
S'distance'
p5
aF379.6894989013672
aa(lp6
S'timestamp'
p7
aF2.5274620056152344
aatp8
Rp9
.ccollections
OrderedDict
p0
((lp1
(lp2
S'state'
p3
aI400
aa(lp4
S'distance'
p5
aF379.6894989013672
aa(lp6
S'timestamp'
p7
aF2.527543067932129
aatp8
Rp9
.ccollections
OrderedDict
p0
((lp1
(lp2
S'state'
p3
aI400
aa(lp4
S'distance'
p5
aF379.6894989013672
aa(lp6
S'timestamp'
p7
aF2.5366241931915283
aatp8
Rp9
.ccollections
OrderedDict
p0
((lp1
(lp2
S'state'
p3
aI400
aa(lp4
S'distance'
p5
aF379.6894989013672
aa(lp6
S'timestamp'
p7
aF2.5371811389923096
aatp8
Rp9
.ccollections
OrderedDict
p0
((lp1
(lp2
S'state'
p3
aI400
aa(lp4
S'distance'
p5
aF379.6894989013672
aa(lp6
S'timestamp'
p7
aF2.5467300415039062
aatp8
Rp9
.ccollections
OrderedDict
p0
((lp1
(lp2
S'state'
p3
aI400
aa(lp4
S'distance'
p5
aF379.6894989013672
aa(lp6
S'timestamp'
p7
aF2.547384023666382
aatp8
Rp9
.ccollections
OrderedDict
p0
((lp1
(lp2
S'state'
p3
aI400
aa(lp4
S'distance'
p5
aF379.6894989013672
aa(lp6
S'timestamp'
p7
aF2.5566320419311523
aatp8
Rp9
.ccollections
OrderedDict
p0
((lp1
(lp2
S'state'
p3
aI400
aa(lp4
S'distance'
p5
aF379.6894989013672
aa(lp6
S'timestamp'
p7
aF2.5571861267089844
aatp8
Rp9
.ccollections
OrderedDict
p0
((lp1
(lp2
S'state'
p3
aI400
aa(lp4
S'distance'
p5
aF379.6894989013672
aa(lp6
S'timestamp'
p7
aF2.5667359828948975
aatp8
Rp9
.ccollections
OrderedDict
p0
((lp1
(lp2
S'state'
p3
aI400
aa(lp4
S'distance'
p5
aF379.6894989013672
aa(lp6
S'timestamp'
p7
aF2.5672130584716797
aatp8
Rp9
.ccollections
OrderedDict
p0
((lp1
(lp2
S'state'
p3
aI400
aa(lp4
S'distance'
p5
aF379.6894989013672
aa(lp6
S'timestamp'
p7
aF2.576620101928711
aatp8
Rp9
.ccollections
OrderedDict
p0
((lp1
(lp2
S'state'
p3
aI400
aa(lp4
S'distance'
p5
aF379.6894989013672
aa(lp6
S'timestamp'
p7
aF2.5775229930877686
aatp8
Rp9
.ccollections
OrderedDict
p0
((lp1
(lp2
S'state'
p3
aI400
aa(lp4
S'distance'
p5
aF379.6894989013672
aa(lp6
S'timestamp'
p7
aF2.5868330001831055
aatp8
Rp9
.ccollections
OrderedDict
p0
((lp1
(lp2
S'state'
p3
aI400
aa(lp4
S'distance'
p5
aF379.6894989013672
aa(lp6
S'timestamp'
p7
aF2.5874431133270264
aatp8
Rp9
.ccollections
OrderedDict
p0
((lp1
(lp2
S'state'
p3
aI400
aa(lp4
S'distance'
p5
aF379.6894989013672
aa(lp6
S'timestamp'
p7
aF2.5974390506744385
aatp8
Rp9
.ccollections
OrderedDict
p0
((lp1
(lp2
S'state'
p3
aI400
aa(lp4
S'distance'
p5
aF379.6894989013672
aa(lp6
S'timestamp'
p7
aF2.5979650020599365
aatp8
Rp9
.ccollections
OrderedDict
p0
((lp1
(lp2
S'state'
p3
aI400
aa(lp4
S'distance'
p5
aF379.6894989013672
aa(lp6
S'timestamp'
p7
aF2.6069869995117188
aatp8
Rp9
.ccollections
OrderedDict
p0
((lp1
(lp2
S'state'
p3
aI400
aa(lp4
S'distance'
p5
aF379.6894989013672
aa(lp6
S'timestamp'
p7
aF2.6070640087127686
aatp8
Rp9
.ccollections
OrderedDict
p0
((lp1
(lp2
S'state'
p3
aI400
aa(lp4
S'distance'
p5
aF379.6894989013672
aa(lp6
S'timestamp'
p7
aF2.6166491508483887
aatp8
Rp9
.ccollections
OrderedDict
p0
((lp1
(lp2
S'state'
p3
aI400
aa(lp4
S'distance'
p5
aF379.6894989013672
aa(lp6
S'timestamp'
p7
aF2.617211103439331
aatp8
Rp9
.ccollections
OrderedDict
p0
((lp1
(lp2
S'state'
p3
aI400
aa(lp4
S'distance'
p5
aF379.6894989013672
aa(lp6
S'timestamp'
p7
aF2.6266050338745117
aatp8
Rp9
.ccollections
OrderedDict
p0
((lp1
(lp2
S'state'
p3
aI400
aa(lp4
S'distance'
p5
aF379.6894989013672
aa(lp6
S'timestamp'
p7
aF2.626918077468872
aatp8
Rp9
.ccollections
OrderedDict
p0
((lp1
(lp2
S'state'
p3
aI400
aa(lp4
S'distance'
p5
aF379.6894989013672
aa(lp6
S'timestamp'
p7
aF2.6365561485290527
aatp8
Rp9
.ccollections
OrderedDict
p0
((lp1
(lp2
S'state'
p3
aI400
aa(lp4
S'distance'
p5
aF379.6894989013672
aa(lp6
S'timestamp'
p7
aF2.636958122253418
aatp8
Rp9
.ccollections
OrderedDict
p0
((lp1
(lp2
S'state'
p3
aI400
aa(lp4
S'distance'
p5
aF379.6894989013672
aa(lp6
S'timestamp'
p7
aF2.6577460765838623
aatp8
Rp9
.ccollections
OrderedDict
p0
((lp1
(lp2
S'state'
p3
aI400
aa(lp4
S'distance'
p5
aF379.6894989013672
aa(lp6
S'timestamp'
p7
aF2.657819986343384
aatp8
Rp9
.ccollections
OrderedDict
p0
((lp1
(lp2
S'state'
p3
aI400
aa(lp4
S'distance'
p5
aF379.6894989013672
aa(lp6
S'timestamp'
p7
aF2.6593520641326904
aatp8
Rp9
.ccollections
OrderedDict
p0
((lp1
(lp2
S'state'
p3
aI400
aa(lp4
S'distance'
p5
aF379.6894989013672
aa(lp6
S'timestamp'
p7
aF2.6603121757507324
aatp8
Rp9
.ccollections
OrderedDict
p0
((lp1
(lp2
S'state'
p3
aI400
aa(lp4
S'distance'
p5
aF379.6894989013672
aa(lp6
S'timestamp'
p7
aF2.6666641235351562
aatp8
Rp9
.ccollections
OrderedDict
p0
((lp1
(lp2
S'state'
p3
aI400
aa(lp4
S'distance'
p5
aF379.6894989013672
aa(lp6
S'timestamp'
p7
aF2.6668241024017334
aatp8
Rp9
.ccollections
OrderedDict
p0
((lp1
(lp2
S'state'
p3
aI400
aa(lp4
S'distance'
p5
aF379.6894989013672
aa(lp6
S'timestamp'
p7
aF2.6768860816955566
aatp8
Rp9
.ccollections
OrderedDict
p0
((lp1
(lp2
S'state'
p3
aI400
aa(lp4
S'distance'
p5
aF379.6894989013672
aa(lp6
S'timestamp'
p7
aF2.677070140838623
aatp8
Rp9
.ccollections
OrderedDict
p0
((lp1
(lp2
S'state'
p3
aI400
aa(lp4
S'distance'
p5
aF379.6894989013672
aa(lp6
S'timestamp'
p7
aF2.6870200634002686
aatp8
Rp9
.ccollections
OrderedDict
p0
((lp1
(lp2
S'state'
p3
aI400
aa(lp4
S'distance'
p5
aF379.6894989013672
aa(lp6
S'timestamp'
p7
aF2.687105178833008
aatp8
Rp9
.ccollections
OrderedDict
p0
((lp1
(lp2
S'state'
p3
aI0
aa(lp4
S'distance'
p5
aF379.6894989013672
aa(lp6
S'timestamp'
p7
aF2.697249174118042
aatp8
Rp9
.ccollections
OrderedDict
p0
((lp1
(lp2
S'state'
p3
aI0
aa(lp4
S'distance'
p5
aF277.60797119140625
aa(lp6
S'timestamp'
p7
aF3.2582662105560303
aatp8
Rp9
.ccollections
OrderedDict
p0
((lp1
(lp2
S'state'
p3
aI0
aa(lp4
S'distance'
p5
aF277.60797119140625
aa(lp6
S'timestamp'
p7
aF3.267091989517212
aatp8
Rp9
.ccollections
OrderedDict
p0
((lp1
(lp2
S'state'
p3
aI0
aa(lp4
S'distance'
p5
aF277.60797119140625
aa(lp6
S'timestamp'
p7
aF3.267613172531128
aatp8
Rp9
.ccollections
OrderedDict
p0
((lp1
(lp2
S'state'
p3
aI0
aa(lp4
S'distance'
p5
aF277.60797119140625
aa(lp6
S'timestamp'
p7
aF3.27699613571167
aatp8
Rp9
.ccollections
OrderedDict
p0
((lp1
(lp2
S'state'
p3
aI0
aa(lp4
S'distance'
p5
aF277.60797119140625
aa(lp6
S'timestamp'
p7
aF3.2771401405334473
aatp8
Rp9
.ccollections
OrderedDict
p0
((lp1
(lp2
S'state'
p3
aI0
aa(lp4
S'distance'
p5
aF277.60797119140625
aa(lp6
S'timestamp'
p7
aF3.28684401512146
aatp8
Rp9
.ccollections
OrderedDict
p0
((lp1
(lp2
S'state'
p3
aI0
aa(lp4
S'distance'
p5
aF277.60797119140625
aa(lp6
S'timestamp'
p7
aF3.2869250774383545
aatp8
Rp9
.ccollections
OrderedDict
p0
((lp1
(lp2
S'state'
p3
aI0
aa(lp4
S'distance'
p5
aF277.60797119140625
aa(lp6
S'timestamp'
p7
aF3.3060100078582764
aatp8
Rp9
.ccollections
OrderedDict
p0
((lp1
(lp2
S'state'
p3
aI0
aa(lp4
S'distance'
p5
aF277.60797119140625
aa(lp6
S'timestamp'
p7
aF3.3062381744384766
aatp8
Rp9
.ccollections
OrderedDict
p0
((lp1
(lp2
S'state'
p3
aI0
aa(lp4
S'distance'
p5
aF277.60797119140625
aa(lp6
S'timestamp'
p7
aF3.3071072101593018
aatp8
Rp9
.ccollections
OrderedDict
p0
((lp1
(lp2
S'state'
p3
aI0
aa(lp4
S'distance'
p5
aF277.60797119140625
aa(lp6
S'timestamp'
p7
aF3.3080191612243652
aatp8
Rp9
.ccollections
OrderedDict
p0
((lp1
(lp2
S'state'
p3
aI0
aa(lp4
S'distance'
p5
aF277.60797119140625
aa(lp6
S'timestamp'
p7
aF3.3157591819763184
aatp8
Rp9
.ccollections
OrderedDict
p0
((lp1
(lp2
S'state'
p3
aI0
aa(lp4
S'distance'
p5
aF277.60797119140625
aa(lp6
S'timestamp'
p7
aF3.3164000511169434
aatp8
Rp9
.ccollections
OrderedDict
p0
((lp1
(lp2
S'state'
p3
aI0
aa(lp4
S'distance'
p5
aF277.60797119140625
aa(lp6
S'timestamp'
p7
aF3.326345205307007
aatp8
Rp9
.ccollections
OrderedDict
p0
((lp1
(lp2
S'state'
p3
aI0
aa(lp4
S'distance'
p5
aF277.60797119140625
aa(lp6
S'timestamp'
p7
aF3.3264219760894775
aatp8
Rp9
.ccollections
OrderedDict
p0
((lp1
(lp2
S'state'
p3
aI0
aa(lp4
S'distance'
p5
aF277.60797119140625
aa(lp6
S'timestamp'
p7
aF3.3357481956481934
aatp8
Rp9
.ccollections
OrderedDict
p0
((lp1
(lp2
S'state'
p3
aI0
aa(lp4
S'distance'
p5
aF277.60797119140625
aa(lp6
S'timestamp'
p7
aF3.3361380100250244
aatp8
Rp9
.ccollections
OrderedDict
p0
((lp1
(lp2
S'state'
p3
aI0
aa(lp4
S'distance'
p5
aF277.60797119140625
aa(lp6
S'timestamp'
p7
aF3.346548080444336
aatp8
Rp9
.ccollections
OrderedDict
p0
((lp1
(lp2
S'state'
p3
aI0
aa(lp4
S'distance'
p5
aF277.60797119140625
aa(lp6
S'timestamp'
p7
aF3.3470590114593506
aatp8
Rp9
.ccollections
OrderedDict
p0
((lp1
(lp2
S'state'
p3
aI0
aa(lp4
S'distance'
p5
aF277.60797119140625
aa(lp6
S'timestamp'
p7
aF3.356199026107788
aatp8
Rp9
.ccollections
OrderedDict
p0
((lp1
(lp2
S'state'
p3
aI0
aa(lp4
S'distance'
p5
aF277.60797119140625
aa(lp6
S'timestamp'
p7
aF3.3563361167907715
aatp8
Rp9
.ccollections
OrderedDict
p0
((lp1
(lp2
S'state'
p3
aI0
aa(lp4
S'distance'
p5
aF277.60797119140625
aa(lp6
S'timestamp'
p7
aF3.3660740852355957
aatp8
Rp9
.ccollections
OrderedDict
p0
((lp1
(lp2
S'state'
p3
aI0
aa(lp4
S'distance'
p5
aF277.60797119140625
aa(lp6
S'timestamp'
p7
aF3.3661651611328125
aatp8
Rp9
.ccollections
OrderedDict
p0
((lp1
(lp2
S'state'
p3
aI0
aa(lp4
S'distance'
p5
aF277.60797119140625
aa(lp6
S'timestamp'
p7
aF3.375533103942871
aatp8
Rp9
.ccollections
OrderedDict
p0
((lp1
(lp2
S'state'
p3
aI0
aa(lp4
S'distance'
p5
aF277.60797119140625
aa(lp6
S'timestamp'
p7
aF3.376214027404785
aatp8
Rp9
.ccollections
OrderedDict
p0
((lp1
(lp2
S'state'
p3
aI0
aa(lp4
S'distance'
p5
aF277.60797119140625
aa(lp6
S'timestamp'
p7
aF3.3870201110839844
aatp8
Rp9
.ccollections
OrderedDict
p0
((lp1
(lp2
S'state'
p3
aI0
aa(lp4
S'distance'
p5
aF277.60797119140625
aa(lp6
S'timestamp'
p7
aF3.387176036834717
aatp8
Rp9
.ccollections
OrderedDict
p0
((lp1
(lp2
S'state'
p3
aI0
aa(lp4
S'distance'
p5
aF277.60797119140625
aa(lp6
S'timestamp'
p7
aF3.3957180976867676
aatp8
Rp9
.ccollections
OrderedDict
p0
((lp1
(lp2
S'state'
p3
aI0
aa(lp4
S'distance'
p5
aF277.60797119140625
aa(lp6
S'timestamp'
p7
aF3.3960771560668945
aatp8
Rp9
.ccollections
OrderedDict
p0
((lp1
(lp2
S'state'
p3
aI0
aa(lp4
S'distance'
p5
aF277.60797119140625
aa(lp6
S'timestamp'
p7
aF3.406074047088623
aatp8
Rp9
.ccollections
OrderedDict
p0
((lp1
(lp2
S'state'
p3
aI0
aa(lp4
S'distance'
p5
aF277.60797119140625
aa(lp6
S'timestamp'
p7
aF3.4069201946258545
aatp8
Rp9
.ccollections
OrderedDict
p0
((lp1
(lp2
S'state'
p3
aI0
aa(lp4
S'distance'
p5
aF277.60797119140625
aa(lp6
S'timestamp'
p7
aF3.4166500568389893
aatp8
Rp9
.ccollections
OrderedDict
p0
((lp1
(lp2
S'state'
p3
aI0
aa(lp4
S'distance'
p5
aF277.60797119140625
aa(lp6
S'timestamp'
p7
aF3.416743040084839
aatp8
Rp9
.ccollections
OrderedDict
p0
((lp1
(lp2
S'state'
p3
aI0
aa(lp4
S'distance'
p5
aF277.60797119140625
aa(lp6
S'timestamp'
p7
aF3.4255151748657227
aatp8
Rp9
.ccollections
OrderedDict
p0
((lp1
(lp2
S'state'
p3
aI0
aa(lp4
S'distance'
p5
aF277.60797119140625
aa(lp6
S'timestamp'
p7
aF3.426331043243408
aatp8
Rp9
.ccollections
OrderedDict
p0
((lp1
(lp2
S'state'
p3
aI0
aa(lp4
S'distance'
p5
aF277.60797119140625
aa(lp6
S'timestamp'
p7
aF3.435744047164917
aatp8
Rp9
.ccollections
OrderedDict
p0
((lp1
(lp2
S'state'
p3
aI0
aa(lp4
S'distance'
p5
aF277.60797119140625
aa(lp6
S'timestamp'
p7
aF3.436293125152588
aatp8
Rp9
.ccollections
OrderedDict
p0
((lp1
(lp2
S'state'
p3
aI0
aa(lp4
S'distance'
p5
aF277.60797119140625
aa(lp6
S'timestamp'
p7
aF3.4461331367492676
aatp8
Rp9
.ccollections
OrderedDict
p0
((lp1
(lp2
S'state'
p3
aI0
aa(lp4
S'distance'
p5
aF277.60797119140625
aa(lp6
S'timestamp'
p7
aF3.4465479850769043
aatp8
Rp9
.ccollections
OrderedDict
p0
((lp1
(lp2
S'state'
p3
aI0
aa(lp4
S'distance'
p5
aF277.60797119140625
aa(lp6
S'timestamp'
p7
aF3.45552921295166
aatp8
Rp9
.ccollections
OrderedDict
p0
((lp1
(lp2
S'state'
p3
aI0
aa(lp4
S'distance'
p5
aF277.60797119140625
aa(lp6
S'timestamp'
p7
aF3.4566152095794678
aatp8
Rp9
.ccollections
OrderedDict
p0
((lp1
(lp2
S'state'
p3
aI0
aa(lp4
S'distance'
p5
aF277.60797119140625
aa(lp6
S'timestamp'
p7
aF3.4655280113220215
aatp8
Rp9
.ccollections
OrderedDict
p0
((lp1
(lp2
S'state'
p3
aI0
aa(lp4
S'distance'
p5
aF277.60797119140625
aa(lp6
S'timestamp'
p7
aF3.466524124145508
aatp8
Rp9
.ccollections
OrderedDict
p0
((lp1
(lp2
S'state'
p3
aI0
aa(lp4
S'distance'
p5
aF277.60797119140625
aa(lp6
S'timestamp'
p7
aF3.4962680339813232
aatp8
Rp9
.ccollections
OrderedDict
p0
((lp1
(lp2
S'state'
p3
aI0
aa(lp4
S'distance'
p5
aF277.60797119140625
aa(lp6
S'timestamp'
p7
aF3.4964640140533447
aatp8
Rp9
.ccollections
OrderedDict
p0
((lp1
(lp2
S'state'
p3
aI0
aa(lp4
S'distance'
p5
aF277.60797119140625
aa(lp6
S'timestamp'
p7
aF3.4978291988372803
aatp8
Rp9
.ccollections
OrderedDict
p0
((lp1
(lp2
S'state'
p3
aI0
aa(lp4
S'distance'
p5
aF277.60797119140625
aa(lp6
S'timestamp'
p7
aF3.4987220764160156
aatp8
Rp9
.ccollections
OrderedDict
p0
((lp1
(lp2
S'state'
p3
aI0
aa(lp4
S'distance'
p5
aF277.60797119140625
aa(lp6
S'timestamp'
p7
aF3.5056710243225098
aatp8
Rp9
.ccollections
OrderedDict
p0
((lp1
(lp2
S'state'
p3
aI0
aa(lp4
S'distance'
p5
aF277.60797119140625
aa(lp6
S'timestamp'
p7
aF3.5065290927886963
aatp8
Rp9
.ccollections
OrderedDict
p0
((lp1
(lp2
S'state'
p3
aI0
aa(lp4
S'distance'
p5
aF277.60797119140625
aa(lp6
S'timestamp'
p7
aF3.5080971717834473
aatp8
Rp9
.ccollections
OrderedDict
p0
((lp1
(lp2
S'state'
p3
aI0
aa(lp4
S'distance'
p5
aF277.60797119140625
aa(lp6
S'timestamp'
p7
aF3.5085551738739014
aatp8
Rp9
.ccollections
OrderedDict
p0
((lp1
(lp2
S'state'
p3
aI0
aa(lp4
S'distance'
p5
aF277.60797119140625
aa(lp6
S'timestamp'
p7
aF3.516036033630371
aatp8
Rp9
.ccollections
OrderedDict
p0
((lp1
(lp2
S'state'
p3
aI0
aa(lp4
S'distance'
p5
aF277.60797119140625
aa(lp6
S'timestamp'
p7
aF3.516503095626831
aatp8
Rp9
.ccollections
OrderedDict
p0
((lp1
(lp2
S'state'
p3
aI0
aa(lp4
S'distance'
p5
aF277.60797119140625
aa(lp6
S'timestamp'
p7
aF3.526224136352539
aatp8
Rp9
.ccollections
OrderedDict
p0
((lp1
(lp2
S'state'
p3
aI0
aa(lp4
S'distance'
p5
aF277.60797119140625
aa(lp6
S'timestamp'
p7
aF3.526323080062866
aatp8
Rp9
.ccollections
OrderedDict
p0
((lp1
(lp2
S'state'
p3
aI0
aa(lp4
S'distance'
p5
aF277.60797119140625
aa(lp6
S'timestamp'
p7
aF3.536885976791382
aatp8
Rp9
.ccollections
OrderedDict
p0
((lp1
(lp2
S'state'
p3
aI0
aa(lp4
S'distance'
p5
aF277.60797119140625
aa(lp6
S'timestamp'
p7
aF3.5370020866394043
aatp8
Rp9
.ccollections
OrderedDict
p0
((lp1
(lp2
S'state'
p3
aI0
aa(lp4
S'distance'
p5
aF277.60797119140625
aa(lp6
S'timestamp'
p7
aF3.545948028564453
aatp8
Rp9
.ccollections
OrderedDict
p0
((lp1
(lp2
S'state'
p3
aI0
aa(lp4
S'distance'
p5
aF277.60797119140625
aa(lp6
S'timestamp'
p7
aF3.5460290908813477
aatp8
Rp9
.ccollections
OrderedDict
p0
((lp1
(lp2
S'state'
p3
aI0
aa(lp4
S'distance'
p5
aF277.60797119140625
aa(lp6
S'timestamp'
p7
aF3.555800199508667
aatp8
Rp9
.ccollections
OrderedDict
p0
((lp1
(lp2
S'state'
p3
aI0
aa(lp4
S'distance'
p5
aF277.60797119140625
aa(lp6
S'timestamp'
p7
aF3.5560190677642822
aatp8
Rp9
.ccollections
OrderedDict
p0
((lp1
(lp2
S'state'
p3
aI0
aa(lp4
S'distance'
p5
aF277.60797119140625
aa(lp6
S'timestamp'
p7
aF3.565798044204712
aatp8
Rp9
.ccollections
OrderedDict
p0
((lp1
(lp2
S'state'
p3
aI0
aa(lp4
S'distance'
p5
aF277.60797119140625
aa(lp6
S'timestamp'
p7
aF3.566549062728882
aatp8
Rp9
.ccollections
OrderedDict
p0
((lp1
(lp2
S'state'
p3
aI0
aa(lp4
S'distance'
p5
aF277.60797119140625
aa(lp6
S'timestamp'
p7
aF3.576033115386963
aatp8
Rp9
.ccollections
OrderedDict
p0
((lp1
(lp2
S'state'
p3
aI0
aa(lp4
S'distance'
p5
aF277.60797119140625
aa(lp6
S'timestamp'
p7
aF3.585705041885376
aatp8
Rp9
.ccollections
OrderedDict
p0
((lp1
(lp2
S'state'
p3
aI0
aa(lp4
S'distance'
p5
aF277.60797119140625
aa(lp6
S'timestamp'
p7
aF3.585905075073242
aatp8
Rp9
.ccollections
OrderedDict
p0
((lp1
(lp2
S'state'
p3
aI0
aa(lp4
S'distance'
p5
aF277.60797119140625
aa(lp6
S'timestamp'
p7
aF3.5865731239318848
aatp8
Rp9
.ccollections
OrderedDict
p0
((lp1
(lp2
S'state'
p3
aI0
aa(lp4
S'distance'
p5
aF277.60797119140625
aa(lp6
S'timestamp'
p7
aF3.595872163772583
aatp8
Rp9
.ccollections
OrderedDict
p0
((lp1
(lp2
S'state'
p3
aI0
aa(lp4
S'distance'
p5
aF277.60797119140625
aa(lp6
S'timestamp'
p7
aF3.59597110748291
aatp8
Rp9
.ccollections
OrderedDict
p0
((lp1
(lp2
S'state'
p3
aI0
aa(lp4
S'distance'
p5
aF277.60797119140625
aa(lp6
S'timestamp'
p7
aF3.6054041385650635
aatp8
Rp9
.ccollections
OrderedDict
p0
((lp1
(lp2
S'state'
p3
aI0
aa(lp4
S'distance'
p5
aF277.60797119140625
aa(lp6
S'timestamp'
p7
aF3.6060330867767334
aatp8
Rp9
.ccollections
OrderedDict
p0
((lp1
(lp2
S'state'
p3
aI0
aa(lp4
S'distance'
p5
aF277.60797119140625
aa(lp6
S'timestamp'
p7
aF3.617708206176758
aatp8
Rp9
.ccollections
OrderedDict
p0
((lp1
(lp2
S'state'
p3
aI0
aa(lp4
S'distance'
p5
aF277.60797119140625
aa(lp6
S'timestamp'
p7
aF3.6188251972198486
aatp8
Rp9
.ccollections
OrderedDict
p0
((lp1
(lp2
S'state'
p3
aI0
aa(lp4
S'distance'
p5
aF277.60797119140625
aa(lp6
S'timestamp'
p7
aF3.625430107116699
aatp8
Rp9
.ccollections
OrderedDict
p0
((lp1
(lp2
S'state'
p3
aI0
aa(lp4
S'distance'
p5
aF277.60797119140625
aa(lp6
S'timestamp'
p7
aF3.6262481212615967
aatp8
Rp9
.ccollections
OrderedDict
p0
((lp1
(lp2
S'state'
p3
aI0
aa(lp4
S'distance'
p5
aF277.60797119140625
aa(lp6
S'timestamp'
p7
aF3.635658025741577
aatp8
Rp9
.ccollections
OrderedDict
p0
((lp1
(lp2
S'state'
p3
aI0
aa(lp4
S'distance'
p5
aF277.60797119140625
aa(lp6
S'timestamp'
p7
aF3.6366209983825684
aatp8
Rp9
.ccollections
OrderedDict
p0
((lp1
(lp2
S'state'
p3
aI0
aa(lp4
S'distance'
p5
aF277.60797119140625
aa(lp6
S'timestamp'
p7
aF3.6456820964813232
aatp8
Rp9
.ccollections
OrderedDict
p0
((lp1
(lp2
S'state'
p3
aI0
aa(lp4
S'distance'
p5
aF277.60797119140625
aa(lp6
S'timestamp'
p7
aF3.6457622051239014
aatp8
Rp9
.ccollections
OrderedDict
p0
((lp1
(lp2
S'state'
p3
aI0
aa(lp4
S'distance'
p5
aF277.60797119140625
aa(lp6
S'timestamp'
p7
aF3.656694173812866
aatp8
Rp9
.ccollections
OrderedDict
p0
((lp1
(lp2
S'state'
p3
aI0
aa(lp4
S'distance'
p5
aF277.60797119140625
aa(lp6
S'timestamp'
p7
aF3.6567771434783936
aatp8
Rp9
.ccollections
OrderedDict
p0
((lp1
(lp2
S'state'
p3
aI0
aa(lp4
S'distance'
p5
aF277.60797119140625
aa(lp6
S'timestamp'
p7
aF3.6656150817871094
aatp8
Rp9
.ccollections
OrderedDict
p0
((lp1
(lp2
S'state'
p3
aI0
aa(lp4
S'distance'
p5
aF277.60797119140625
aa(lp6
S'timestamp'
p7
aF3.6659750938415527
aatp8
Rp9
.ccollections
OrderedDict
p0
((lp1
(lp2
S'state'
p3
aI0
aa(lp4
S'distance'
p5
aF277.60797119140625
aa(lp6
S'timestamp'
p7
aF3.6760640144348145
aatp8
Rp9
.ccollections
OrderedDict
p0
((lp1
(lp2
S'state'
p3
aI0
aa(lp4
S'distance'
p5
aF277.60797119140625
aa(lp6
S'timestamp'
p7
aF3.6761460304260254
aatp8
Rp9
.ccollections
OrderedDict
p0
((lp1
(lp2
S'state'
p3
aI0
aa(lp4
S'distance'
p5
aF277.60797119140625
aa(lp6
S'timestamp'
p7
aF3.6859731674194336
aatp8
Rp9
.ccollections
OrderedDict
p0
((lp1
(lp2
S'state'
p3
aI0
aa(lp4
S'distance'
p5
aF277.60797119140625
aa(lp6
S'timestamp'
p7
aF3.6865930557250977
aatp8
Rp9
.ccollections
OrderedDict
p0
((lp1
(lp2
S'state'
p3
aI0
aa(lp4
S'distance'
p5
aF277.60797119140625
aa(lp6
S'timestamp'
p7
aF3.6953001022338867
aatp8
Rp9
.ccollections
OrderedDict
p0
((lp1
(lp2
S'state'
p3
aI0
aa(lp4
S'distance'
p5
aF277.60797119140625
aa(lp6
S'timestamp'
p7
aF3.695950984954834
aatp8
Rp9
.ccollections
OrderedDict
p0
((lp1
(lp2
S'state'
p3
aI0
aa(lp4
S'distance'
p5
aF277.60797119140625
aa(lp6
S'timestamp'
p7
aF3.7066152095794678
aatp8
Rp9
.ccollections
OrderedDict
p0
((lp1
(lp2
S'state'
p3
aI0
aa(lp4
S'distance'
p5
aF277.60797119140625
aa(lp6
S'timestamp'
p7
aF3.707149028778076
aatp8
Rp9
.ccollections
OrderedDict
p0
((lp1
(lp2
S'state'
p3
aI0
aa(lp4
S'distance'
p5
aF277.60797119140625
aa(lp6
S'timestamp'
p7
aF3.7257070541381836
aatp8
Rp9
.ccollections
OrderedDict
p0
((lp1
(lp2
S'state'
p3
aI0
aa(lp4
S'distance'
p5
aF277.60797119140625
aa(lp6
S'timestamp'
p7
aF3.727328062057495
aatp8
Rp9
.ccollections
OrderedDict
p0
((lp1
(lp2
S'state'
p3
aI0
aa(lp4
S'distance'
p5
aF277.60797119140625
aa(lp6
S'timestamp'
p7
aF3.727593183517456
aatp8
Rp9
.ccollections
OrderedDict
p0
((lp1
(lp2
S'state'
p3
aI0
aa(lp4
S'distance'
p5
aF277.60797119140625
aa(lp6
S'timestamp'
p7
aF3.7286391258239746
aatp8
Rp9
.ccollections
OrderedDict
p0
((lp1
(lp2
S'state'
p3
aI400
aa(lp4
S'distance'
p5
aF277.60797119140625
aa(lp6
S'timestamp'
p7
aF3.736051082611084
aatp8
Rp9
.ccollections
OrderedDict
p0
((lp1
(lp2
S'state'
p3
aI400
aa(lp4
S'distance'
p5
aF277.60797119140625
aa(lp6
S'timestamp'
p7
aF3.736128091812134
aatp8
Rp9
.ccollections
OrderedDict
p0
((lp1
(lp2
S'state'
p3
aI400
aa(lp4
S'distance'
p5
aF277.60797119140625
aa(lp6
S'timestamp'
p7
aF3.7452151775360107
aatp8
Rp9
.ccollections
OrderedDict
p0
((lp1
(lp2
S'state'
p3
aI400
aa(lp4
S'distance'
p5
aF277.60797119140625
aa(lp6
S'timestamp'
p7
aF3.7457871437072754
aatp8
Rp9
.ccollections
OrderedDict
p0
((lp1
(lp2
S'state'
p3
aI400
aa(lp4
S'distance'
p5
aF277.60797119140625
aa(lp6
S'timestamp'
p7
aF3.7559380531311035
aatp8
Rp9
.ccollections
OrderedDict
p0
((lp1
(lp2
S'state'
p3
aI400
aa(lp4
S'distance'
p5
aF277.60797119140625
aa(lp6
S'timestamp'
p7
aF3.7571771144866943
aatp8
Rp9
.ccollections
OrderedDict
p0
((lp1
(lp2
S'state'
p3
aI400
aa(lp4
S'distance'
p5
aF277.60797119140625
aa(lp6
S'timestamp'
p7
aF3.7662711143493652
aatp8
Rp9
.ccollections
OrderedDict
p0
((lp1
(lp2
S'state'
p3
aI400
aa(lp4
S'distance'
p5
aF277.60797119140625
aa(lp6
S'timestamp'
p7
aF3.766545057296753
aatp8
Rp9
.ccollections
OrderedDict
p0
((lp1
(lp2
S'state'
p3
aI400
aa(lp4
S'distance'
p5
aF277.60797119140625
aa(lp6
S'timestamp'
p7
aF3.775386095046997
aatp8
Rp9
.ccollections
OrderedDict
p0
((lp1
(lp2
S'state'
p3
aI400
aa(lp4
S'distance'
p5
aF277.60797119140625
aa(lp6
S'timestamp'
p7
aF3.7762081623077393
aatp8
Rp9
.ccollections
OrderedDict
p0
((lp1
(lp2
S'state'
p3
aI400
aa(lp4
S'distance'
p5
aF277.60797119140625
aa(lp6
S'timestamp'
p7
aF3.795535087585449
aatp8
Rp9
.ccollections
OrderedDict
p0
((lp1
(lp2
S'state'
p3
aI400
aa(lp4
S'distance'
p5
aF277.60797119140625
aa(lp6
S'timestamp'
p7
aF3.7956290245056152
aatp8
Rp9
.ccollections
OrderedDict
p0
((lp1
(lp2
S'state'
p3
aI400
aa(lp4
S'distance'
p5
aF277.60797119140625
aa(lp6
S'timestamp'
p7
aF3.7962400913238525
aatp8
Rp9
.ccollections
OrderedDict
p0
((lp1
(lp2
S'state'
p3
aI400
aa(lp4
S'distance'
p5
aF277.60797119140625
aa(lp6
S'timestamp'
p7
aF3.796478033065796
aatp8
Rp9
.ccollections
OrderedDict
p0
((lp1
(lp2
S'state'
p3
aI400
aa(lp4
S'distance'
p5
aF277.60797119140625
aa(lp6
S'timestamp'
p7
aF3.8062851428985596
aatp8
Rp9
.ccollections
OrderedDict
p0
((lp1
(lp2
S'state'
p3
aI400
aa(lp4
S'distance'
p5
aF277.60797119140625
aa(lp6
S'timestamp'
p7
aF3.8069980144500732
aatp8
Rp9
.ccollections
OrderedDict
p0
((lp1
(lp2
S'state'
p3
aI400
aa(lp4
S'distance'
p5
aF277.60797119140625
aa(lp6
S'timestamp'
p7
aF3.815080165863037
aatp8
Rp9
.ccollections
OrderedDict
p0
((lp1
(lp2
S'state'
p3
aI400
aa(lp4
S'distance'
p5
aF277.60797119140625
aa(lp6
S'timestamp'
p7
aF3.815742015838623
aatp8
Rp9
.ccollections
OrderedDict
p0
((lp1
(lp2
S'state'
p3
aI400
aa(lp4
S'distance'
p5
aF277.60797119140625
aa(lp6
S'timestamp'
p7
aF3.8253400325775146
aatp8
Rp9
.ccollections
OrderedDict
p0
((lp1
(lp2
S'state'
p3
aI400
aa(lp4
S'distance'
p5
aF277.60797119140625
aa(lp6
S'timestamp'
p7
aF3.825620174407959
aatp8
Rp9
.ccollections
OrderedDict
p0
((lp1
(lp2
S'state'
p3
aI400
aa(lp4
S'distance'
p5
aF277.60797119140625
aa(lp6
S'timestamp'
p7
aF3.8356170654296875
aatp8
Rp9
.ccollections
OrderedDict
p0
((lp1
(lp2
S'state'
p3
aI400
aa(lp4
S'distance'
p5
aF277.60797119140625
aa(lp6
S'timestamp'
p7
aF3.8361120223999023
aatp8
Rp9
.ccollections
OrderedDict
p0
((lp1
(lp2
S'state'
p3
aI400
aa(lp4
S'distance'
p5
aF277.60797119140625
aa(lp6
S'timestamp'
p7
aF3.8550291061401367
aatp8
Rp9
.ccollections
OrderedDict
p0
((lp1
(lp2
S'state'
p3
aI400
aa(lp4
S'distance'
p5
aF277.60797119140625
aa(lp6
S'timestamp'
p7
aF3.8557400703430176
aatp8
Rp9
.ccollections
OrderedDict
p0
((lp1
(lp2
S'state'
p3
aI400
aa(lp4
S'distance'
p5
aF277.60797119140625
aa(lp6
S'timestamp'
p7
aF3.8568191528320312
aatp8
Rp9
.ccollections
OrderedDict
p0
((lp1
(lp2
S'state'
p3
aI400
aa(lp4
S'distance'
p5
aF277.60797119140625
aa(lp6
S'timestamp'
p7
aF3.8570330142974854
aatp8
Rp9
.ccollections
OrderedDict
p0
((lp1
(lp2
S'state'
p3
aI400
aa(lp4
S'distance'
p5
aF277.60797119140625
aa(lp6
S'timestamp'
p7
aF3.865507125854492
aatp8
Rp9
.ccollections
OrderedDict
p0
((lp1
(lp2
S'state'
p3
aI400
aa(lp4
S'distance'
p5
aF277.60797119140625
aa(lp6
S'timestamp'
p7
aF3.865624189376831
aatp8
Rp9
.ccollections
OrderedDict
p0
((lp1
(lp2
S'state'
p3
aI400
aa(lp4
S'distance'
p5
aF277.60797119140625
aa(lp6
S'timestamp'
p7
aF3.875486135482788
aatp8
Rp9
.ccollections
OrderedDict
p0
((lp1
(lp2
S'state'
p3
aI400
aa(lp4
S'distance'
p5
aF277.60797119140625
aa(lp6
S'timestamp'
p7
aF3.88512921333313
aatp8
Rp9
.ccollections
OrderedDict
p0
((lp1
(lp2
S'state'
p3
aI400
aa(lp4
S'distance'
p5
aF277.60797119140625
aa(lp6
S'timestamp'
p7
aF3.8854751586914062
aatp8
Rp9
.ccollections
OrderedDict
p0
((lp1
(lp2
S'state'
p3
aI400
aa(lp4
S'distance'
p5
aF277.60797119140625
aa(lp6
S'timestamp'
p7
aF3.886597156524658
aatp8
Rp9
.ccollections
OrderedDict
p0
((lp1
(lp2
S'state'
p3
aI400
aa(lp4
S'distance'
p5
aF277.60797119140625
aa(lp6
S'timestamp'
p7
aF3.8956680297851562
aatp8
Rp9
.ccollections
OrderedDict
p0
((lp1
(lp2
S'state'
p3
aI400
aa(lp4
S'distance'
p5
aF277.60797119140625
aa(lp6
S'timestamp'
p7
aF3.8964600563049316
aatp8
Rp9
.ccollections
OrderedDict
p0
((lp1
(lp2
S'state'
p3
aI400
aa(lp4
S'distance'
p5
aF277.60797119140625
aa(lp6
S'timestamp'
p7
aF3.905601978302002
aatp8
Rp9
.ccollections
OrderedDict
p0
((lp1
(lp2
S'state'
p3
aI400
aa(lp4
S'distance'
p5
aF277.60797119140625
aa(lp6
S'timestamp'
p7
aF3.9056789875030518
aatp8
Rp9
.ccollections
OrderedDict
p0
((lp1
(lp2
S'state'
p3
aI400
aa(lp4
S'distance'
p5
aF277.60797119140625
aa(lp6
S'timestamp'
p7
aF3.915605068206787
aatp8
Rp9
.ccollections
OrderedDict
p0
((lp1
(lp2
S'state'
p3
aI400
aa(lp4
S'distance'
p5
aF277.60797119140625
aa(lp6
S'timestamp'
p7
aF3.9157001972198486
aatp8
Rp9
.ccollections
OrderedDict
p0
((lp1
(lp2
S'state'
p3
aI400
aa(lp4
S'distance'
p5
aF277.60797119140625
aa(lp6
S'timestamp'
p7
aF3.926236152648926
aatp8
Rp9
.ccollections
OrderedDict
p0
((lp1
(lp2
S'state'
p3
aI400
aa(lp4
S'distance'
p5
aF277.60797119140625
aa(lp6
S'timestamp'
p7
aF3.9263792037963867
aatp8
Rp9
.ccollections
OrderedDict
p0
((lp1
(lp2
S'state'
p3
aI400
aa(lp4
S'distance'
p5
aF277.60797119140625
aa(lp6
S'timestamp'
p7
aF3.9353950023651123
aatp8
Rp9
.ccollections
OrderedDict
p0
((lp1
(lp2
S'state'
p3
aI400
aa(lp4
S'distance'
p5
aF277.60797119140625
aa(lp6
S'timestamp'
p7
aF3.9360311031341553
aatp8
Rp9
.ccollections
OrderedDict
p0
((lp1
(lp2
S'state'
p3
aI400
aa(lp4
S'distance'
p5
aF277.60797119140625
aa(lp6
S'timestamp'
p7
aF3.945425033569336
aatp8
Rp9
.ccollections
OrderedDict
p0
((lp1
(lp2
S'state'
p3
aI400
aa(lp4
S'distance'
p5
aF277.60797119140625
aa(lp6
S'timestamp'
p7
aF3.9456281661987305
aatp8
Rp9
.ccollections
OrderedDict
p0
((lp1
(lp2
S'state'
p3
aI400
aa(lp4
S'distance'
p5
aF277.60797119140625
aa(lp6
S'timestamp'
p7
aF3.9551851749420166
aatp8
Rp9
.ccollections
OrderedDict
p0
((lp1
(lp2
S'state'
p3
aI400
aa(lp4
S'distance'
p5
aF277.60797119140625
aa(lp6
S'timestamp'
p7
aF3.955571174621582
aatp8
Rp9
.ccollections
OrderedDict
p0
((lp1
(lp2
S'state'
p3
aI400
aa(lp4
S'distance'
p5
aF277.60797119140625
aa(lp6
S'timestamp'
p7
aF3.965466022491455
aatp8
Rp9
.ccollections
OrderedDict
p0
((lp1
(lp2
S'state'
p3
aI400
aa(lp4
S'distance'
p5
aF277.60797119140625
aa(lp6
S'timestamp'
p7
aF3.966207981109619
aatp8
Rp9
.ccollections
OrderedDict
p0
((lp1
(lp2
S'state'
p3
aI400
aa(lp4
S'distance'
p5
aF277.60797119140625
aa(lp6
S'timestamp'
p7
aF3.976607084274292
aatp8
Rp9
.ccollections
OrderedDict
p0
((lp1
(lp2
S'state'
p3
aI400
aa(lp4
S'distance'
p5
aF277.60797119140625
aa(lp6
S'timestamp'
p7
aF3.976943016052246
aatp8
Rp9
.ccollections
OrderedDict
p0
((lp1
(lp2
S'state'
p3
aI400
aa(lp4
S'distance'
p5
aF277.60797119140625
aa(lp6
S'timestamp'
p7
aF3.9851841926574707
aatp8
Rp9
.ccollections
OrderedDict
p0
((lp1
(lp2
S'state'
p3
aI400
aa(lp4
S'distance'
p5
aF277.60797119140625
aa(lp6
S'timestamp'
p7
aF3.9856510162353516
aatp8
Rp9
.ccollections
OrderedDict
p0
((lp1
(lp2
S'state'
p3
aI400
aa(lp4
S'distance'
p5
aF277.60797119140625
aa(lp6
S'timestamp'
p7
aF3.9953420162200928
aatp8
Rp9
.ccollections
OrderedDict
p0
((lp1
(lp2
S'state'
p3
aI400
aa(lp4
S'distance'
p5
aF277.60797119140625
aa(lp6
S'timestamp'
p7
aF3.9957680702209473
aatp8
Rp9
.ccollections
OrderedDict
p0
((lp1
(lp2
S'state'
p3
aI400
aa(lp4
S'distance'
p5
aF277.60797119140625
aa(lp6
S'timestamp'
p7
aF4.005199193954468
aatp8
Rp9
.ccollections
OrderedDict
p0
((lp1
(lp2
S'state'
p3
aI400
aa(lp4
S'distance'
p5
aF277.60797119140625
aa(lp6
S'timestamp'
p7
aF4.005967140197754
aatp8
Rp9
.ccollections
OrderedDict
p0
((lp1
(lp2
S'state'
p3
aI400
aa(lp4
S'distance'
p5
aF277.60797119140625
aa(lp6
S'timestamp'
p7
aF4.015454053878784
aatp8
Rp9
.ccollections
OrderedDict
p0
((lp1
(lp2
S'state'
p3
aI400
aa(lp4
S'distance'
p5
aF277.60797119140625
aa(lp6
S'timestamp'
p7
aF4.015684127807617
aatp8
Rp9
.ccollections
OrderedDict
p0
((lp1
(lp2
S'state'
p3
aI400
aa(lp4
S'distance'
p5
aF277.60797119140625
aa(lp6
S'timestamp'
p7
aF4.024891138076782
aatp8
Rp9
.ccollections
OrderedDict
p0
((lp1
(lp2
S'state'
p3
aI400
aa(lp4
S'distance'
p5
aF277.60797119140625
aa(lp6
S'timestamp'
p7
aF4.025501012802124
aatp8
Rp9
.ccollections
OrderedDict
p0
((lp1
(lp2
S'state'
p3
aI400
aa(lp4
S'distance'
p5
aF277.60797119140625
aa(lp6
S'timestamp'
p7
aF4.035254001617432
aatp8
Rp9
.ccollections
OrderedDict
p0
((lp1
(lp2
S'state'
p3
aI400
aa(lp4
S'distance'
p5
aF277.60797119140625
aa(lp6
S'timestamp'
p7
aF4.035959005355835
aatp8
Rp9
.ccollections
OrderedDict
p0
((lp1
(lp2
S'state'
p3
aI400
aa(lp4
S'distance'
p5
aF277.60797119140625
aa(lp6
S'timestamp'
p7
aF4.045054197311401
aatp8
Rp9
.ccollections
OrderedDict
p0
((lp1
(lp2
S'state'
p3
aI400
aa(lp4
S'distance'
p5
aF277.60797119140625
aa(lp6
S'timestamp'
p7
aF4.04566216468811
aatp8
Rp9
.ccollections
OrderedDict
p0
((lp1
(lp2
S'state'
p3
aI400
aa(lp4
S'distance'
p5
aF277.60797119140625
aa(lp6
S'timestamp'
p7
aF4.0555901527404785
aatp8
Rp9
.ccollections
OrderedDict
p0
((lp1
(lp2
S'state'
p3
aI400
aa(lp4
S'distance'
p5
aF277.60797119140625
aa(lp6
S'timestamp'
p7
aF4.05603814125061
aatp8
Rp9
.ccollections
OrderedDict
p0
((lp1
(lp2
S'state'
p3
aI400
aa(lp4
S'distance'
p5
aF277.60797119140625
aa(lp6
S'timestamp'
p7
aF4.065706014633179
aatp8
Rp9
.ccollections
OrderedDict
p0
((lp1
(lp2
S'state'
p3
aI400
aa(lp4
S'distance'
p5
aF277.60797119140625
aa(lp6
S'timestamp'
p7
aF4.065782070159912
aatp8
Rp9
.ccollections
OrderedDict
p0
((lp1
(lp2
S'state'
p3
aI400
aa(lp4
S'distance'
p5
aF277.60797119140625
aa(lp6
S'timestamp'
p7
aF4.074871063232422
aatp8
Rp9
.ccollections
OrderedDict
p0
((lp1
(lp2
S'state'
p3
aI400
aa(lp4
S'distance'
p5
aF277.60797119140625
aa(lp6
S'timestamp'
p7
aF4.075378179550171
aatp8
Rp9
.ccollections
OrderedDict
p0
((lp1
(lp2
S'state'
p3
aI400
aa(lp4
S'distance'
p5
aF277.60797119140625
aa(lp6
S'timestamp'
p7
aF4.085383176803589
aatp8
Rp9
.ccollections
OrderedDict
p0
((lp1
(lp2
S'state'
p3
aI400
aa(lp4
S'distance'
p5
aF277.60797119140625
aa(lp6
S'timestamp'
p7
aF4.085499048233032
aatp8
Rp9
.ccollections
OrderedDict
p0
((lp1
(lp2
S'state'
p3
aI400
aa(lp4
S'distance'
p5
aF277.60797119140625
aa(lp6
S'timestamp'
p7
aF4.095341205596924
aatp8
Rp9
.ccollections
OrderedDict
p0
((lp1
(lp2
S'state'
p3
aI400
aa(lp4
S'distance'
p5
aF277.60797119140625
aa(lp6
S'timestamp'
p7
aF4.095911026000977
aatp8
Rp9
.ccollections
OrderedDict
p0
((lp1
(lp2
S'state'
p3
aI400
aa(lp4
S'distance'
p5
aF277.60797119140625
aa(lp6
S'timestamp'
p7
aF4.1052961349487305
aatp8
Rp9
.ccollections
OrderedDict
p0
((lp1
(lp2
S'state'
p3
aI400
aa(lp4
S'distance'
p5
aF277.60797119140625
aa(lp6
S'timestamp'
p7
aF4.105631113052368
aatp8
Rp9
.ccollections
OrderedDict
p0
((lp1
(lp2
S'state'
p3
aI400
aa(lp4
S'distance'
p5
aF277.60797119140625
aa(lp6
S'timestamp'
p7
aF4.115451097488403
aatp8
Rp9
.ccollections
OrderedDict
p0
((lp1
(lp2
S'state'
p3
aI400
aa(lp4
S'distance'
p5
aF277.60797119140625
aa(lp6
S'timestamp'
p7
aF4.115533113479614
aatp8
Rp9
.ccollections
OrderedDict
p0
((lp1
(lp2
S'state'
p3
aI400
aa(lp4
S'distance'
p5
aF277.60797119140625
aa(lp6
S'timestamp'
p7
aF4.124682188034058
aatp8
Rp9
.ccollections
OrderedDict
p0
((lp1
(lp2
S'state'
p3
aI400
aa(lp4
S'distance'
p5
aF277.60797119140625
aa(lp6
S'timestamp'
p7
aF4.125547170639038
aatp8
Rp9
.ccollections
OrderedDict
p0
((lp1
(lp2
S'state'
p3
aI400
aa(lp4
S'distance'
p5
aF277.60797119140625
aa(lp6
S'timestamp'
p7
aF4.1357011795043945
aatp8
Rp9
.ccollections
OrderedDict
p0
((lp1
(lp2
S'state'
p3
aI400
aa(lp4
S'distance'
p5
aF277.60797119140625
aa(lp6
S'timestamp'
p7
aF4.135799169540405
aatp8
Rp9
.ccollections
OrderedDict
p0
((lp1
(lp2
S'state'
p3
aI400
aa(lp4
S'distance'
p5
aF277.60797119140625
aa(lp6
S'timestamp'
p7
aF4.145101070404053
aatp8
Rp9
.ccollections
OrderedDict
p0
((lp1
(lp2
S'state'
p3
aI400
aa(lp4
S'distance'
p5
aF277.60797119140625
aa(lp6
S'timestamp'
p7
aF4.145503044128418
aatp8
Rp9
.ccollections
OrderedDict
p0
((lp1
(lp2
S'state'
p3
aI400
aa(lp4
S'distance'
p5
aF277.60797119140625
aa(lp6
S'timestamp'
p7
aF4.155055999755859
aatp8
Rp9
.ccollections
OrderedDict
p0
((lp1
(lp2
S'state'
p3
aI400
aa(lp4
S'distance'
p5
aF277.60797119140625
aa(lp6
S'timestamp'
p7
aF4.155372142791748
aatp8
Rp9
.ccollections
OrderedDict
p0
((lp1
(lp2
S'state'
p3
aI400
aa(lp4
S'distance'
p5
aF277.60797119140625
aa(lp6
S'timestamp'
p7
aF4.165158033370972
aatp8
Rp9
.ccollections
OrderedDict
p0
((lp1
(lp2
S'state'
p3
aI400
aa(lp4
S'distance'
p5
aF277.60797119140625
aa(lp6
S'timestamp'
p7
aF4.165279150009155
aatp8
Rp9
.ccollections
OrderedDict
p0
((lp1
(lp2
S'state'
p3
aI400
aa(lp4
S'distance'
p5
aF277.60797119140625
aa(lp6
S'timestamp'
p7
aF4.175178050994873
aatp8
Rp9
.ccollections
OrderedDict
p0
((lp1
(lp2
S'state'
p3
aI400
aa(lp4
S'distance'
p5
aF277.60797119140625
aa(lp6
S'timestamp'
p7
aF4.175295114517212
aatp8
Rp9
.ccollections
OrderedDict
p0
((lp1
(lp2
S'state'
p3
aI400
aa(lp4
S'distance'
p5
aF277.60797119140625
aa(lp6
S'timestamp'
p7
aF4.1853721141815186
aatp8
Rp9
.ccollections
OrderedDict
p0
((lp1
(lp2
S'state'
p3
aI400
aa(lp4
S'distance'
p5
aF277.60797119140625
aa(lp6
S'timestamp'
p7
aF4.1857850551605225
aatp8
Rp9
.ccollections
OrderedDict
p0
((lp1
(lp2
S'state'
p3
aI400
aa(lp4
S'distance'
p5
aF277.60797119140625
aa(lp6
S'timestamp'
p7
aF4.195024013519287
aatp8
Rp9
.ccollections
OrderedDict
p0
((lp1
(lp2
S'state'
p3
aI400
aa(lp4
S'distance'
p5
aF277.60797119140625
aa(lp6
S'timestamp'
p7
aF4.195358037948608
aatp8
Rp9
.ccollections
OrderedDict
p0
((lp1
(lp2
S'state'
p3
aI400
aa(lp4
S'distance'
p5
aF277.60797119140625
aa(lp6
S'timestamp'
p7
aF4.205394983291626
aatp8
Rp9
.ccollections
OrderedDict
p0
((lp1
(lp2
S'state'
p3
aI400
aa(lp4
S'distance'
p5
aF277.60797119140625
aa(lp6
S'timestamp'
p7
aF4.205559015274048
aatp8
Rp9
.ccollections
OrderedDict
p0
((lp1
(lp2
S'state'
p3
aI400
aa(lp4
S'distance'
p5
aF277.60797119140625
aa(lp6
S'timestamp'
p7
aF4.215599060058594
aatp8
Rp9
.ccollections
OrderedDict
p0
((lp1
(lp2
S'state'
p3
aI400
aa(lp4
S'distance'
p5
aF277.60797119140625
aa(lp6
S'timestamp'
p7
aF4.215872049331665
aatp8
Rp9
.ccollections
OrderedDict
p0
((lp1
(lp2
S'state'
p3
aI400
aa(lp4
S'distance'
p5
aF277.60797119140625
aa(lp6
S'timestamp'
p7
aF4.225253105163574
aatp8
Rp9
.ccollections
OrderedDict
p0
((lp1
(lp2
S'state'
p3
aI400
aa(lp4
S'distance'
p5
aF277.60797119140625
aa(lp6
S'timestamp'
p7
aF4.225397109985352
aatp8
Rp9
.ccollections
OrderedDict
p0
((lp1
(lp2
S'state'
p3
aI400
aa(lp4
S'distance'
p5
aF277.60797119140625
aa(lp6
S'timestamp'
p7
aF4.235113143920898
aatp8
Rp9
.ccollections
OrderedDict
p0
((lp1
(lp2
S'state'
p3
aI400
aa(lp4
S'distance'
p5
aF277.60797119140625
aa(lp6
S'timestamp'
p7
aF4.2354490756988525
aatp8
Rp9
.ccollections
OrderedDict
p0
((lp1
(lp2
S'state'
p3
aI400
aa(lp4
S'distance'
p5
aF277.60797119140625
aa(lp6
S'timestamp'
p7
aF4.245105028152466
aatp8
Rp9
.ccollections
OrderedDict
p0
((lp1
(lp2
S'state'
p3
aI400
aa(lp4
S'distance'
p5
aF277.60797119140625
aa(lp6
S'timestamp'
p7
aF4.2458250522613525
aatp8
Rp9
.ccollections
OrderedDict
p0
((lp1
(lp2
S'state'
p3
aI400
aa(lp4
S'distance'
p5
aF277.60797119140625
aa(lp6
S'timestamp'
p7
aF4.2554240226745605
aatp8
Rp9
.ccollections
OrderedDict
p0
((lp1
(lp2
S'state'
p3
aI400
aa(lp4
S'distance'
p5
aF277.60797119140625
aa(lp6
S'timestamp'
p7
aF4.255629062652588
aatp8
Rp9
.ccollections
OrderedDict
p0
((lp1
(lp2
S'state'
p3
aI400
aa(lp4
S'distance'
p5
aF277.60797119140625
aa(lp6
S'timestamp'
p7
aF4.264827013015747
aatp8
Rp9
.ccollections
OrderedDict
p0
((lp1
(lp2
S'state'
p3
aI400
aa(lp4
S'distance'
p5
aF277.60797119140625
aa(lp6
S'timestamp'
p7
aF4.265190124511719
aatp8
Rp9
.ccollections
OrderedDict
p0
((lp1
(lp2
S'state'
p3
aI400
aa(lp4
S'distance'
p5
aF277.60797119140625
aa(lp6
S'timestamp'
p7
aF4.274712085723877
aatp8
Rp9
.ccollections
OrderedDict
p0
((lp1
(lp2
S'state'
p3
aI400
aa(lp4
S'distance'
p5
aF277.60797119140625
aa(lp6
S'timestamp'
p7
aF4.275222063064575
aatp8
Rp9
.ccollections
OrderedDict
p0
((lp1
(lp2
S'state'
p3
aI400
aa(lp4
S'distance'
p5
aF277.60797119140625
aa(lp6
S'timestamp'
p7
aF4.284816026687622
aatp8
Rp9
.ccollections
OrderedDict
p0
((lp1
(lp2
S'state'
p3
aI400
aa(lp4
S'distance'
p5
aF277.60797119140625
aa(lp6
S'timestamp'
p7
aF4.285396099090576
aatp8
Rp9
.ccollections
OrderedDict
p0
((lp1
(lp2
S'state'
p3
aI0
aa(lp4
S'distance'
p5
aF277.60797119140625
aa(lp6
S'timestamp'
p7
aF4.2956461906433105
aatp8
Rp9
.ccollections
OrderedDict
p0
((lp1
(lp2
S'state'
p3
aI0
aa(lp4
S'distance'
p5
aF169.0097198486328
aa(lp6
S'timestamp'
p7
aF4.855301141738892
aatp8
Rp9
.ccollections
OrderedDict
p0
((lp1
(lp2
S'state'
p3
aI0
aa(lp4
S'distance'
p5
aF169.0097198486328
aa(lp6
S'timestamp'
p7
aF4.863890171051025
aatp8
Rp9
.ccollections
OrderedDict
p0
((lp1
(lp2
S'state'
p3
aI0
aa(lp4
S'distance'
p5
aF169.0097198486328
aa(lp6
S'timestamp'
p7
aF4.864553213119507
aatp8
Rp9
.ccollections
OrderedDict
p0
((lp1
(lp2
S'state'
p3
aI0
aa(lp4
S'distance'
p5
aF169.0097198486328
aa(lp6
S'timestamp'
p7
aF4.874205112457275
aatp8
Rp9
.ccollections
OrderedDict
p0
((lp1
(lp2
S'state'
p3
aI0
aa(lp4
S'distance'
p5
aF169.0097198486328
aa(lp6
S'timestamp'
p7
aF4.874549150466919
aatp8
Rp9
.ccollections
OrderedDict
p0
((lp1
(lp2
S'state'
p3
aI0
aa(lp4
S'distance'
p5
aF169.0097198486328
aa(lp6
S'timestamp'
p7
aF4.884345054626465
aatp8
Rp9
.ccollections
OrderedDict
p0
((lp1
(lp2
S'state'
p3
aI0
aa(lp4
S'distance'
p5
aF169.0097198486328
aa(lp6
S'timestamp'
p7
aF4.884941101074219
aatp8
Rp9
.ccollections
OrderedDict
p0
((lp1
(lp2
S'state'
p3
aI0
aa(lp4
S'distance'
p5
aF169.0097198486328
aa(lp6
S'timestamp'
p7
aF4.89419412612915
aatp8
Rp9
.ccollections
OrderedDict
p0
((lp1
(lp2
S'state'
p3
aI0
aa(lp4
S'distance'
p5
aF169.0097198486328
aa(lp6
S'timestamp'
p7
aF4.894540071487427
aatp8
Rp9
.ccollections
OrderedDict
p0
((lp1
(lp2
S'state'
p3
aI0
aa(lp4
S'distance'
p5
aF169.0097198486328
aa(lp6
S'timestamp'
p7
aF4.903837203979492
aatp8
Rp9
.ccollections
OrderedDict
p0
((lp1
(lp2
S'state'
p3
aI0
aa(lp4
S'distance'
p5
aF169.0097198486328
aa(lp6
S'timestamp'
p7
aF4.9045751094818115
aatp8
Rp9
.ccollections
OrderedDict
p0
((lp1
(lp2
S'state'
p3
aI0
aa(lp4
S'distance'
p5
aF169.0097198486328
aa(lp6
S'timestamp'
p7
aF4.914018154144287
aatp8
Rp9
.ccollections
OrderedDict
p0
((lp1
(lp2
S'state'
p3
aI0
aa(lp4
S'distance'
p5
aF169.0097198486328
aa(lp6
S'timestamp'
p7
aF4.914631128311157
aatp8
Rp9
.ccollections
OrderedDict
p0
((lp1
(lp2
S'state'
p3
aI0
aa(lp4
S'distance'
p5
aF169.0097198486328
aa(lp6
S'timestamp'
p7
aF4.92388916015625
aatp8
Rp9
.ccollections
OrderedDict
p0
((lp1
(lp2
S'state'
p3
aI0
aa(lp4
S'distance'
p5
aF169.0097198486328
aa(lp6
S'timestamp'
p7
aF4.924612998962402
aatp8
Rp9
.ccollections
OrderedDict
p0
((lp1
(lp2
S'state'
p3
aI0
aa(lp4
S'distance'
p5
aF169.0097198486328
aa(lp6
S'timestamp'
p7
aF4.934883117675781
aatp8
Rp9
.ccollections
OrderedDict
p0
((lp1
(lp2
S'state'
p3
aI0
aa(lp4
S'distance'
p5
aF169.0097198486328
aa(lp6
S'timestamp'
p7
aF4.935647010803223
aatp8
Rp9
.ccollections
OrderedDict
p0
((lp1
(lp2
S'state'
p3
aI0
aa(lp4
S'distance'
p5
aF169.0097198486328
aa(lp6
S'timestamp'
p7
aF4.944272994995117
aatp8
Rp9
.ccollections
OrderedDict
p0
((lp1
(lp2
S'state'
p3
aI0
aa(lp4
S'distance'
p5
aF169.0097198486328
aa(lp6
S'timestamp'
p7
aF4.945903062820435
aatp8
Rp9
.ccollections
OrderedDict
p0
((lp1
(lp2
S'state'
p3
aI0
aa(lp4
S'distance'
p5
aF169.0097198486328
aa(lp6
S'timestamp'
p7
aF4.954301118850708
aatp8
Rp9
.ccollections
OrderedDict
p0
((lp1
(lp2
S'state'
p3
aI0
aa(lp4
S'distance'
p5
aF169.0097198486328
aa(lp6
S'timestamp'
p7
aF4.954385042190552
aatp8
Rp9
.ccollections
OrderedDict
p0
((lp1
(lp2
S'state'
p3
aI0
aa(lp4
S'distance'
p5
aF169.0097198486328
aa(lp6
S'timestamp'
p7
aF4.964717149734497
aatp8
Rp9
.ccollections
OrderedDict
p0
((lp1
(lp2
S'state'
p3
aI0
aa(lp4
S'distance'
p5
aF169.0097198486328
aa(lp6
S'timestamp'
p7
aF4.965277194976807
aatp8
Rp9
.ccollections
OrderedDict
p0
((lp1
(lp2
S'state'
p3
aI0
aa(lp4
S'distance'
p5
aF169.0097198486328
aa(lp6
S'timestamp'
p7
aF4.974589109420776
aatp8
Rp9
.ccollections
OrderedDict
p0
((lp1
(lp2
S'state'
p3
aI0
aa(lp4
S'distance'
p5
aF169.0097198486328
aa(lp6
S'timestamp'
p7
aF4.974842071533203
aatp8
Rp9
.ccollections
OrderedDict
p0
((lp1
(lp2
S'state'
p3
aI0
aa(lp4
S'distance'
p5
aF169.0097198486328
aa(lp6
S'timestamp'
p7
aF4.984330177307129
aatp8
Rp9
.ccollections
OrderedDict
p0
((lp1
(lp2
S'state'
p3
aI0
aa(lp4
S'distance'
p5
aF169.0097198486328
aa(lp6
S'timestamp'
p7
aF4.984407186508179
aatp8
Rp9
.ccollections
OrderedDict
p0
((lp1
(lp2
S'state'
p3
aI0
aa(lp4
S'distance'
p5
aF169.0097198486328
aa(lp6
S'timestamp'
p7
aF4.994880199432373
aatp8
Rp9
.ccollections
OrderedDict
p0
((lp1
(lp2
S'state'
p3
aI0
aa(lp4
S'distance'
p5
aF169.0097198486328
aa(lp6
S'timestamp'
p7
aF4.994964122772217
aatp8
Rp9
.ccollections
OrderedDict
p0
((lp1
(lp2
S'state'
p3
aI0
aa(lp4
S'distance'
p5
aF169.0097198486328
aa(lp6
S'timestamp'
p7
aF5.0145721435546875
aatp8
Rp9
.ccollections
OrderedDict
p0
((lp1
(lp2
S'state'
p3
aI0
aa(lp4
S'distance'
p5
aF169.0097198486328
aa(lp6
S'timestamp'
p7
aF5.0149171352386475
aatp8
Rp9
.ccollections
OrderedDict
p0
((lp1
(lp2
S'state'
p3
aI0
aa(lp4
S'distance'
p5
aF169.0097198486328
aa(lp6
S'timestamp'
p7
aF5.016195058822632
aatp8
Rp9
.ccollections
OrderedDict
p0
((lp1
(lp2
S'state'
p3
aI0
aa(lp4
S'distance'
p5
aF169.0097198486328
aa(lp6
S'timestamp'
p7
aF5.017212152481079
aatp8
Rp9
.ccollections
OrderedDict
p0
((lp1
(lp2
S'state'
p3
aI0
aa(lp4
S'distance'
p5
aF169.0097198486328
aa(lp6
S'timestamp'
p7
aF5.0244691371917725
aatp8
Rp9
.ccollections
OrderedDict
p0
((lp1
(lp2
S'state'
p3
aI0
aa(lp4
S'distance'
p5
aF169.0097198486328
aa(lp6
S'timestamp'
p7
aF5.024547100067139
aatp8
Rp9
.ccollections
OrderedDict
p0
((lp1
(lp2
S'state'
p3
aI0
aa(lp4
S'distance'
p5
aF169.0097198486328
aa(lp6
S'timestamp'
p7
aF5.034182071685791
aatp8
Rp9
.ccollections
OrderedDict
p0
((lp1
(lp2
S'state'
p3
aI0
aa(lp4
S'distance'
p5
aF169.0097198486328
aa(lp6
S'timestamp'
p7
aF5.034415006637573
aatp8
Rp9
.ccollections
OrderedDict
p0
((lp1
(lp2
S'state'
p3
aI0
aa(lp4
S'distance'
p5
aF169.0097198486328
aa(lp6
S'timestamp'
p7
aF5.0441060066223145
aatp8
Rp9
.ccollections
OrderedDict
p0
((lp1
(lp2
S'state'
p3
aI0
aa(lp4
S'distance'
p5
aF169.0097198486328
aa(lp6
S'timestamp'
p7
aF5.044494152069092
aatp8
Rp9
.ccollections
OrderedDict
p0
((lp1
(lp2
S'state'
p3
aI0
aa(lp4
S'distance'
p5
aF169.0097198486328
aa(lp6
S'timestamp'
p7
aF5.054685115814209
aatp8
Rp9
.ccollections
OrderedDict
p0
((lp1
(lp2
S'state'
p3
aI0
aa(lp4
S'distance'
p5
aF169.0097198486328
aa(lp6
S'timestamp'
p7
aF5.054831027984619
aatp8
Rp9
.ccollections
OrderedDict
p0
((lp1
(lp2
S'state'
p3
aI0
aa(lp4
S'distance'
p5
aF169.0097198486328
aa(lp6
S'timestamp'
p7
aF5.0646750926971436
aatp8
Rp9
.ccollections
OrderedDict
p0
((lp1
(lp2
S'state'
p3
aI0
aa(lp4
S'distance'
p5
aF169.0097198486328
aa(lp6
S'timestamp'
p7
aF5.064756155014038
aatp8
Rp9
.ccollections
OrderedDict
p0
((lp1
(lp2
S'state'
p3
aI0
aa(lp4
S'distance'
p5
aF169.0097198486328
aa(lp6
S'timestamp'
p7
aF5.073813199996948
aatp8
Rp9
.ccollections
OrderedDict
p0
((lp1
(lp2
S'state'
p3
aI0
aa(lp4
S'distance'
p5
aF169.0097198486328
aa(lp6
S'timestamp'
p7
aF5.07457709312439
aatp8
Rp9
.ccollections
OrderedDict
p0
((lp1
(lp2
S'state'
p3
aI0
aa(lp4
S'distance'
p5
aF169.0097198486328
aa(lp6
S'timestamp'
p7
aF5.084163188934326
aatp8
Rp9
.ccollections
OrderedDict
p0
((lp1
(lp2
S'state'
p3
aI0
aa(lp4
S'distance'
p5
aF169.0097198486328
aa(lp6
S'timestamp'
p7
aF5.084585189819336
aatp8
Rp9
.ccollections
OrderedDict
p0
((lp1
(lp2
S'state'
p3
aI0
aa(lp4
S'distance'
p5
aF169.0097198486328
aa(lp6
S'timestamp'
p7
aF5.094841003417969
aatp8
Rp9
.ccollections
OrderedDict
p0
((lp1
(lp2
S'state'
p3
aI0
aa(lp4
S'distance'
p5
aF169.0097198486328
aa(lp6
S'timestamp'
p7
aF5.095110177993774
aatp8
Rp9
.ccollections
OrderedDict
p0
((lp1
(lp2
S'state'
p3
aI0
aa(lp4
S'distance'
p5
aF169.0097198486328
aa(lp6
S'timestamp'
p7
aF5.104602098464966
aatp8
Rp9
.ccollections
OrderedDict
p0
((lp1
(lp2
S'state'
p3
aI0
aa(lp4
S'distance'
p5
aF169.0097198486328
aa(lp6
S'timestamp'
p7
aF5.104758977890015
aatp8
Rp9
.ccollections
OrderedDict
p0
((lp1
(lp2
S'state'
p3
aI0
aa(lp4
S'distance'
p5
aF169.0097198486328
aa(lp6
S'timestamp'
p7
aF5.113779067993164
aatp8
Rp9
.ccollections
OrderedDict
p0
((lp1
(lp2
S'state'
p3
aI0
aa(lp4
S'distance'
p5
aF169.0097198486328
aa(lp6
S'timestamp'
p7
aF5.114284038543701
aatp8
Rp9
.ccollections
OrderedDict
p0
((lp1
(lp2
S'state'
p3
aI0
aa(lp4
S'distance'
p5
aF169.0097198486328
aa(lp6
S'timestamp'
p7
aF5.124528169631958
aatp8
Rp9
.ccollections
OrderedDict
p0
((lp1
(lp2
S'state'
p3
aI0
aa(lp4
S'distance'
p5
aF169.0097198486328
aa(lp6
S'timestamp'
p7
aF5.124607086181641
aatp8
Rp9
.ccollections
OrderedDict
p0
((lp1
(lp2
S'state'
p3
aI0
aa(lp4
S'distance'
p5
aF169.0097198486328
aa(lp6
S'timestamp'
p7
aF5.144504070281982
aatp8
Rp9
.ccollections
OrderedDict
p0
((lp1
(lp2
S'state'
p3
aI0
aa(lp4
S'distance'
p5
aF169.0097198486328
aa(lp6
S'timestamp'
p7
aF5.144580125808716
aatp8
Rp9
.ccollections
OrderedDict
p0
((lp1
(lp2
S'state'
p3
aI0
aa(lp4
S'distance'
p5
aF169.0097198486328
aa(lp6
S'timestamp'
p7
aF5.145377159118652
aatp8
Rp9
.ccollections
OrderedDict
p0
((lp1
(lp2
S'state'
p3
aI0
aa(lp4
S'distance'
p5
aF169.0097198486328
aa(lp6
S'timestamp'
p7
aF5.14664101600647
aatp8
Rp9
.ccollections
OrderedDict
p0
((lp1
(lp2
S'state'
p3
aI0
aa(lp4
S'distance'
p5
aF169.0097198486328
aa(lp6
S'timestamp'
p7
aF5.164139032363892
aatp8
Rp9
.ccollections
OrderedDict
p0
((lp1
(lp2
S'state'
p3
aI0
aa(lp4
S'distance'
p5
aF169.0097198486328
aa(lp6
S'timestamp'
p7
aF5.164553165435791
aatp8
Rp9
.ccollections
OrderedDict
p0
((lp1
(lp2
S'state'
p3
aI0
aa(lp4
S'distance'
p5
aF169.0097198486328
aa(lp6
S'timestamp'
p7
aF5.165625095367432
aatp8
Rp9
.ccollections
OrderedDict
p0
((lp1
(lp2
S'state'
p3
aI0
aa(lp4
S'distance'
p5
aF169.0097198486328
aa(lp6
S'timestamp'
p7
aF5.167148113250732
aatp8
Rp9
.ccollections
OrderedDict
p0
((lp1
(lp2
S'state'
p3
aI0
aa(lp4
S'distance'
p5
aF169.0097198486328
aa(lp6
S'timestamp'
p7
aF5.174154996871948
aatp8
Rp9
.ccollections
OrderedDict
p0
((lp1
(lp2
S'state'
p3
aI0
aa(lp4
S'distance'
p5
aF169.0097198486328
aa(lp6
S'timestamp'
p7
aF5.1743550300598145
aatp8
Rp9
.ccollections
OrderedDict
p0
((lp1
(lp2
S'state'
p3
aI0
aa(lp4
S'distance'
p5
aF169.0097198486328
aa(lp6
S'timestamp'
p7
aF5.184235095977783
aatp8
Rp9
.ccollections
OrderedDict
p0
((lp1
(lp2
S'state'
p3
aI0
aa(lp4
S'distance'
p5
aF169.0097198486328
aa(lp6
S'timestamp'
p7
aF5.184631109237671
aatp8
Rp9
.ccollections
OrderedDict
p0
((lp1
(lp2
S'state'
p3
aI0
aa(lp4
S'distance'
p5
aF169.0097198486328
aa(lp6
S'timestamp'
p7
aF5.193840026855469
aatp8
Rp9
.ccollections
OrderedDict
p0
((lp1
(lp2
S'state'
p3
aI0
aa(lp4
S'distance'
p5
aF169.0097198486328
aa(lp6
S'timestamp'
p7
aF5.194220066070557
aatp8
Rp9
.ccollections
OrderedDict
p0
((lp1
(lp2
S'state'
p3
aI0
aa(lp4
S'distance'
p5
aF169.0097198486328
aa(lp6
S'timestamp'
p7
aF5.204426050186157
aatp8
Rp9
.ccollections
OrderedDict
p0
((lp1
(lp2
S'state'
p3
aI0
aa(lp4
S'distance'
p5
aF169.0097198486328
aa(lp6
S'timestamp'
p7
aF5.204536199569702
aatp8
Rp9
.ccollections
OrderedDict
p0
((lp1
(lp2
S'state'
p3
aI0
aa(lp4
S'distance'
p5
aF169.0097198486328
aa(lp6
S'timestamp'
p7
aF5.214287996292114
aatp8
Rp9
.ccollections
OrderedDict
p0
((lp1
(lp2
S'state'
p3
aI0
aa(lp4
S'distance'
p5
aF169.0097198486328
aa(lp6
S'timestamp'
p7
aF5.214747190475464
aatp8
Rp9
.ccollections
OrderedDict
p0
((lp1
(lp2
S'state'
p3
aI0
aa(lp4
S'distance'
p5
aF169.0097198486328
aa(lp6
S'timestamp'
p7
aF5.224924087524414
aatp8
Rp9
.ccollections
OrderedDict
p0
((lp1
(lp2
S'state'
p3
aI0
aa(lp4
S'distance'
p5
aF169.0097198486328
aa(lp6
S'timestamp'
p7
aF5.225210189819336
aatp8
Rp9
.ccollections
OrderedDict
p0
((lp1
(lp2
S'state'
p3
aI0
aa(lp4
S'distance'
p5
aF169.0097198486328
aa(lp6
S'timestamp'
p7
aF5.234002113342285
aatp8
Rp9
.ccollections
OrderedDict
p0
((lp1
(lp2
S'state'
p3
aI0
aa(lp4
S'distance'
p5
aF169.0097198486328
aa(lp6
S'timestamp'
p7
aF5.234140157699585
aatp8
Rp9
.ccollections
OrderedDict
p0
((lp1
(lp2
S'state'
p3
aI0
aa(lp4
S'distance'
p5
aF169.0097198486328
aa(lp6
S'timestamp'
p7
aF5.244232177734375
aatp8
Rp9
.ccollections
OrderedDict
p0
((lp1
(lp2
S'state'
p3
aI0
aa(lp4
S'distance'
p5
aF169.0097198486328
aa(lp6
S'timestamp'
p7
aF5.244312047958374
aatp8
Rp9
.ccollections
OrderedDict
p0
((lp1
(lp2
S'state'
p3
aI0
aa(lp4
S'distance'
p5
aF169.0097198486328
aa(lp6
S'timestamp'
p7
aF5.254534006118774
aatp8
Rp9
.ccollections
OrderedDict
p0
((lp1
(lp2
S'state'
p3
aI0
aa(lp4
S'distance'
p5
aF169.0097198486328
aa(lp6
S'timestamp'
p7
aF5.254902124404907
aatp8
Rp9
.ccollections
OrderedDict
p0
((lp1
(lp2
S'state'
p3
aI0
aa(lp4
S'distance'
p5
aF169.0097198486328
aa(lp6
S'timestamp'
p7
aF5.263675212860107
aatp8
Rp9
.ccollections
OrderedDict
p0
((lp1
(lp2
S'state'
p3
aI0
aa(lp4
S'distance'
p5
aF169.0097198486328
aa(lp6
S'timestamp'
p7
aF5.264183044433594
aatp8
Rp9
.ccollections
OrderedDict
p0
((lp1
(lp2
S'state'
p3
aI0
aa(lp4
S'distance'
p5
aF169.0097198486328
aa(lp6
S'timestamp'
p7
aF5.273574113845825
aatp8
Rp9
.ccollections
OrderedDict
p0
((lp1
(lp2
S'state'
p3
aI0
aa(lp4
S'distance'
p5
aF169.0097198486328
aa(lp6
S'timestamp'
p7
aF5.2742650508880615
aatp8
Rp9
.ccollections
OrderedDict
p0
((lp1
(lp2
S'state'
p3
aI0
aa(lp4
S'distance'
p5
aF169.0097198486328
aa(lp6
S'timestamp'
p7
aF5.283708095550537
aatp8
Rp9
.ccollections
OrderedDict
p0
((lp1
(lp2
S'state'
p3
aI0
aa(lp4
S'distance'
p5
aF169.0097198486328
aa(lp6
S'timestamp'
p7
aF5.284454107284546
aatp8
Rp9
.ccollections
OrderedDict
p0
((lp1
(lp2
S'state'
p3
aI0
aa(lp4
S'distance'
p5
aF169.0097198486328
aa(lp6
S'timestamp'
p7
aF5.294039011001587
aatp8
Rp9
.ccollections
OrderedDict
p0
((lp1
(lp2
S'state'
p3
aI0
aa(lp4
S'distance'
p5
aF169.0097198486328
aa(lp6
S'timestamp'
p7
aF5.294425010681152
aatp8
Rp9
.ccollections
OrderedDict
p0
((lp1
(lp2
S'state'
p3
aI0
aa(lp4
S'distance'
p5
aF169.0097198486328
aa(lp6
S'timestamp'
p7
aF5.3042051792144775
aatp8
Rp9
.ccollections
OrderedDict
p0
((lp1
(lp2
S'state'
p3
aI0
aa(lp4
S'distance'
p5
aF169.0097198486328
aa(lp6
S'timestamp'
p7
aF5.304280042648315
aatp8
Rp9
.ccollections
OrderedDict
p0
((lp1
(lp2
S'state'
p3
aI0
aa(lp4
S'distance'
p5
aF169.0097198486328
aa(lp6
S'timestamp'
p7
aF5.314172029495239
aatp8
Rp9
.ccollections
OrderedDict
p0
((lp1
(lp2
S'state'
p3
aI0
aa(lp4
S'distance'
p5
aF169.0097198486328
aa(lp6
S'timestamp'
p7
aF5.314247131347656
aatp8
Rp9
.ccollections
OrderedDict
p0
((lp1
(lp2
S'state'
p3
aI400
aa(lp4
S'distance'
p5
aF169.0097198486328
aa(lp6
S'timestamp'
p7
aF5.323922157287598
aatp8
Rp9
.ccollections
OrderedDict
p0
((lp1
(lp2
S'state'
p3
aI400
aa(lp4
S'distance'
p5
aF169.0097198486328
aa(lp6
S'timestamp'
p7
aF5.324148178100586
aatp8
Rp9
.ccollections
OrderedDict
p0
((lp1
(lp2
S'state'
p3
aI400
aa(lp4
S'distance'
p5
aF169.0097198486328
aa(lp6
S'timestamp'
p7
aF5.335635185241699
aatp8
Rp9
.ccollections
OrderedDict
p0
((lp1
(lp2
S'state'
p3
aI400
aa(lp4
S'distance'
p5
aF169.0097198486328
aa(lp6
S'timestamp'
p7
aF5.336296081542969
aatp8
Rp9
.ccollections
OrderedDict
p0
((lp1
(lp2
S'state'
p3
aI400
aa(lp4
S'distance'
p5
aF169.0097198486328
aa(lp6
S'timestamp'
p7
aF5.344083070755005
aatp8
Rp9
.ccollections
OrderedDict
p0
((lp1
(lp2
S'state'
p3
aI400
aa(lp4
S'distance'
p5
aF169.0097198486328
aa(lp6
S'timestamp'
p7
aF5.344412088394165
aatp8
Rp9
.ccollections
OrderedDict
p0
((lp1
(lp2
S'state'
p3
aI400
aa(lp4
S'distance'
p5
aF169.0097198486328
aa(lp6
S'timestamp'
p7
aF5.353784084320068
aatp8
Rp9
.ccollections
OrderedDict
p0
((lp1
(lp2
S'state'
p3
aI400
aa(lp4
S'distance'
p5
aF169.0097198486328
aa(lp6
S'timestamp'
p7
aF5.3543860912323
aatp8
Rp9
.ccollections
OrderedDict
p0
((lp1
(lp2
S'state'
p3
aI400
aa(lp4
S'distance'
p5
aF169.0097198486328
aa(lp6
S'timestamp'
p7
aF5.368020057678223
aatp8
Rp9
.ccollections
OrderedDict
p0
((lp1
(lp2
S'state'
p3
aI400
aa(lp4
S'distance'
p5
aF169.0097198486328
aa(lp6
S'timestamp'
p7
aF5.368185043334961
aatp8
Rp9
.ccollections
OrderedDict
p0
((lp1
(lp2
S'state'
p3
aI400
aa(lp4
S'distance'
p5
aF169.0097198486328
aa(lp6
S'timestamp'
p7
aF5.374313116073608
aatp8
Rp9
.ccollections
OrderedDict
p0
((lp1
(lp2
S'state'
p3
aI400
aa(lp4
S'distance'
p5
aF169.0097198486328
aa(lp6
S'timestamp'
p7
aF5.375225067138672
aatp8
Rp9
.ccollections
OrderedDict
p0
((lp1
(lp2
S'state'
p3
aI400
aa(lp4
S'distance'
p5
aF169.0097198486328
aa(lp6
S'timestamp'
p7
aF5.38399600982666
aatp8
Rp9
.ccollections
OrderedDict
p0
((lp1
(lp2
S'state'
p3
aI400
aa(lp4
S'distance'
p5
aF169.0097198486328
aa(lp6
S'timestamp'
p7
aF5.3840720653533936
aatp8
Rp9
.ccollections
OrderedDict
p0
((lp1
(lp2
S'state'
p3
aI400
aa(lp4
S'distance'
p5
aF169.0097198486328
aa(lp6
S'timestamp'
p7
aF5.393359184265137
aatp8
Rp9
.ccollections
OrderedDict
p0
((lp1
(lp2
S'state'
p3
aI400
aa(lp4
S'distance'
p5
aF169.0097198486328
aa(lp6
S'timestamp'
p7
aF5.394014120101929
aatp8
Rp9
.ccollections
OrderedDict
p0
((lp1
(lp2
S'state'
p3
aI400
aa(lp4
S'distance'
p5
aF169.0097198486328
aa(lp6
S'timestamp'
p7
aF5.404041051864624
aatp8
Rp9
.ccollections
OrderedDict
p0
((lp1
(lp2
S'state'
p3
aI400
aa(lp4
S'distance'
p5
aF169.0097198486328
aa(lp6
S'timestamp'
p7
aF5.404252052307129
aatp8
Rp9
.ccollections
OrderedDict
p0
((lp1
(lp2
S'state'
p3
aI400
aa(lp4
S'distance'
p5
aF169.0097198486328
aa(lp6
S'timestamp'
p7
aF5.424195051193237
aatp8
Rp9
.ccollections
OrderedDict
p0
((lp1
(lp2
S'state'
p3
aI400
aa(lp4
S'distance'
p5
aF169.0097198486328
aa(lp6
S'timestamp'
p7
aF5.424358129501343
aatp8
Rp9
.ccollections
OrderedDict
p0
((lp1
(lp2
S'state'
p3
aI400
aa(lp4
S'distance'
p5
aF169.0097198486328
aa(lp6
S'timestamp'
p7
aF5.4270970821380615
aatp8
Rp9
.ccollections
OrderedDict
p0
((lp1
(lp2
S'state'
p3
aI400
aa(lp4
S'distance'
p5
aF169.0097198486328
aa(lp6
S'timestamp'
p7
aF5.427208185195923
aatp8
Rp9
.ccollections
OrderedDict
p0
((lp1
(lp2
S'state'
p3
aI400
aa(lp4
S'distance'
p5
aF169.0097198486328
aa(lp6
S'timestamp'
p7
aF5.434133052825928
aatp8
Rp9
.ccollections
OrderedDict
p0
((lp1
(lp2
S'state'
p3
aI400
aa(lp4
S'distance'
p5
aF169.0097198486328
aa(lp6
S'timestamp'
p7
aF5.4358811378479
aatp8
Rp9
.ccollections
OrderedDict
p0
((lp1
(lp2
S'state'
p3
aI400
aa(lp4
S'distance'
p5
aF169.0097198486328
aa(lp6
S'timestamp'
p7
aF5.443333148956299
aatp8
Rp9
.ccollections
OrderedDict
p0
((lp1
(lp2
S'state'
p3
aI400
aa(lp4
S'distance'
p5
aF169.0097198486328
aa(lp6
S'timestamp'
p7
aF5.454191207885742
aatp8
Rp9
.ccollections
OrderedDict
p0
((lp1
(lp2
S'state'
p3
aI400
aa(lp4
S'distance'
p5
aF169.0097198486328
aa(lp6
S'timestamp'
p7
aF5.4552321434021
aatp8
Rp9
.ccollections
OrderedDict
p0
((lp1
(lp2
S'state'
p3
aI400
aa(lp4
S'distance'
p5
aF169.0097198486328
aa(lp6
S'timestamp'
p7
aF5.456541061401367
aatp8
Rp9
.ccollections
OrderedDict
p0
((lp1
(lp2
S'state'
p3
aI400
aa(lp4
S'distance'
p5
aF169.0097198486328
aa(lp6
S'timestamp'
p7
aF5.463910102844238
aatp8
Rp9
.ccollections
OrderedDict
p0
((lp1
(lp2
S'state'
p3
aI400
aa(lp4
S'distance'
p5
aF169.0097198486328
aa(lp6
S'timestamp'
p7
aF5.46446418762207
aatp8
Rp9
.ccollections
OrderedDict
p0
((lp1
(lp2
S'state'
p3
aI400
aa(lp4
S'distance'
p5
aF169.0097198486328
aa(lp6
S'timestamp'
p7
aF5.473474979400635
aatp8
Rp9
.ccollections
OrderedDict
p0
((lp1
(lp2
S'state'
p3
aI400
aa(lp4
S'distance'
p5
aF169.0097198486328
aa(lp6
S'timestamp'
p7
aF5.473996162414551
aatp8
Rp9
.ccollections
OrderedDict
p0
((lp1
(lp2
S'state'
p3
aI400
aa(lp4
S'distance'
p5
aF169.0097198486328
aa(lp6
S'timestamp'
p7
aF5.483820199966431
aatp8
Rp9
.ccollections
OrderedDict
p0
((lp1
(lp2
S'state'
p3
aI400
aa(lp4
S'distance'
p5
aF169.0097198486328
aa(lp6
S'timestamp'
p7
aF5.483940124511719
aatp8
Rp9
.ccollections
OrderedDict
p0
((lp1
(lp2
S'state'
p3
aI400
aa(lp4
S'distance'
p5
aF169.0097198486328
aa(lp6
S'timestamp'
p7
aF5.493314981460571
aatp8
Rp9
.ccollections
OrderedDict
p0
((lp1
(lp2
S'state'
p3
aI400
aa(lp4
S'distance'
p5
aF169.0097198486328
aa(lp6
S'timestamp'
p7
aF5.493831157684326
aatp8
Rp9
.ccollections
OrderedDict
p0
((lp1
(lp2
S'state'
p3
aI400
aa(lp4
S'distance'
p5
aF169.0097198486328
aa(lp6
S'timestamp'
p7
aF5.503354072570801
aatp8
Rp9
.ccollections
OrderedDict
p0
((lp1
(lp2
S'state'
p3
aI400
aa(lp4
S'distance'
p5
aF169.0097198486328
aa(lp6
S'timestamp'
p7
aF5.504240036010742
aatp8
Rp9
.ccollections
OrderedDict
p0
((lp1
(lp2
S'state'
p3
aI400
aa(lp4
S'distance'
p5
aF169.0097198486328
aa(lp6
S'timestamp'
p7
aF5.513262033462524
aatp8
Rp9
.ccollections
OrderedDict
p0
((lp1
(lp2
S'state'
p3
aI400
aa(lp4
S'distance'
p5
aF169.0097198486328
aa(lp6
S'timestamp'
p7
aF5.514023065567017
aatp8
Rp9
.ccollections
OrderedDict
p0
((lp1
(lp2
S'state'
p3
aI400
aa(lp4
S'distance'
p5
aF169.0097198486328
aa(lp6
S'timestamp'
p7
aF5.52386212348938
aatp8
Rp9
.ccollections
OrderedDict
p0
((lp1
(lp2
S'state'
p3
aI400
aa(lp4
S'distance'
p5
aF169.0097198486328
aa(lp6
S'timestamp'
p7
aF5.523979187011719
aatp8
Rp9
.ccollections
OrderedDict
p0
((lp1
(lp2
S'state'
p3
aI400
aa(lp4
S'distance'
p5
aF169.0097198486328
aa(lp6
S'timestamp'
p7
aF5.533396005630493
aatp8
Rp9
.ccollections
OrderedDict
p0
((lp1
(lp2
S'state'
p3
aI400
aa(lp4
S'distance'
p5
aF169.0097198486328
aa(lp6
S'timestamp'
p7
aF5.534069061279297
aatp8
Rp9
.ccollections
OrderedDict
p0
((lp1
(lp2
S'state'
p3
aI400
aa(lp4
S'distance'
p5
aF169.0097198486328
aa(lp6
S'timestamp'
p7
aF5.543684005737305
aatp8
Rp9
.ccollections
OrderedDict
p0
((lp1
(lp2
S'state'
p3
aI400
aa(lp4
S'distance'
p5
aF169.0097198486328
aa(lp6
S'timestamp'
p7
aF5.544478178024292
aatp8
Rp9
.ccollections
OrderedDict
p0
((lp1
(lp2
S'state'
p3
aI400
aa(lp4
S'distance'
p5
aF169.0097198486328
aa(lp6
S'timestamp'
p7
aF5.553546190261841
aatp8
Rp9
.ccollections
OrderedDict
p0
((lp1
(lp2
S'state'
p3
aI400
aa(lp4
S'distance'
p5
aF169.0097198486328
aa(lp6
S'timestamp'
p7
aF5.555194139480591
aatp8
Rp9
.ccollections
OrderedDict
p0
((lp1
(lp2
S'state'
p3
aI400
aa(lp4
S'distance'
p5
aF169.0097198486328
aa(lp6
S'timestamp'
p7
aF5.563858985900879
aatp8
Rp9
.ccollections
OrderedDict
p0
((lp1
(lp2
S'state'
p3
aI400
aa(lp4
S'distance'
p5
aF169.0097198486328
aa(lp6
S'timestamp'
p7
aF5.563939094543457
aatp8
Rp9
.ccollections
OrderedDict
p0
((lp1
(lp2
S'state'
p3
aI400
aa(lp4
S'distance'
p5
aF169.0097198486328
aa(lp6
S'timestamp'
p7
aF5.573919057846069
aatp8
Rp9
.ccollections
OrderedDict
p0
((lp1
(lp2
S'state'
p3
aI400
aa(lp4
S'distance'
p5
aF169.0097198486328
aa(lp6
S'timestamp'
p7
aF5.574660062789917
aatp8
Rp9
.ccollections
OrderedDict
p0
((lp1
(lp2
S'state'
p3
aI400
aa(lp4
S'distance'
p5
aF169.0097198486328
aa(lp6
S'timestamp'
p7
aF5.584295988082886
aatp8
Rp9
.ccollections
OrderedDict
p0
((lp1
(lp2
S'state'
p3
aI400
aa(lp4
S'distance'
p5
aF169.0097198486328
aa(lp6
S'timestamp'
p7
aF5.584376096725464
aatp8
Rp9
.ccollections
OrderedDict
p0
((lp1
(lp2
S'state'
p3
aI400
aa(lp4
S'distance'
p5
aF169.0097198486328
aa(lp6
S'timestamp'
p7
aF5.59379506111145
aatp8
Rp9
.ccollections
OrderedDict
p0
((lp1
(lp2
S'state'
p3
aI400
aa(lp4
S'distance'
p5
aF169.0097198486328
aa(lp6
S'timestamp'
p7
aF5.5939271450042725
aatp8
Rp9
.ccollections
OrderedDict
p0
((lp1
(lp2
S'state'
p3
aI400
aa(lp4
S'distance'
p5
aF169.0097198486328
aa(lp6
S'timestamp'
p7
aF5.603612184524536
aatp8
Rp9
.ccollections
OrderedDict
p0
((lp1
(lp2
S'state'
p3
aI400
aa(lp4
S'distance'
p5
aF169.0097198486328
aa(lp6
S'timestamp'
p7
aF5.603724002838135
aatp8
Rp9
.ccollections
OrderedDict
p0
((lp1
(lp2
S'state'
p3
aI400
aa(lp4
S'distance'
p5
aF169.0097198486328
aa(lp6
S'timestamp'
p7
aF5.613425016403198
aatp8
Rp9
.ccollections
OrderedDict
p0
((lp1
(lp2
S'state'
p3
aI400
aa(lp4
S'distance'
p5
aF169.0097198486328
aa(lp6
S'timestamp'
p7
aF5.613685131072998
aatp8
Rp9
.ccollections
OrderedDict
p0
((lp1
(lp2
S'state'
p3
aI400
aa(lp4
S'distance'
p5
aF169.0097198486328
aa(lp6
S'timestamp'
p7
aF5.624000072479248
aatp8
Rp9
.ccollections
OrderedDict
p0
((lp1
(lp2
S'state'
p3
aI400
aa(lp4
S'distance'
p5
aF169.0097198486328
aa(lp6
S'timestamp'
p7
aF5.624100208282471
aatp8
Rp9
.ccollections
OrderedDict
p0
((lp1
(lp2
S'state'
p3
aI400
aa(lp4
S'distance'
p5
aF169.0097198486328
aa(lp6
S'timestamp'
p7
aF5.633663177490234
aatp8
Rp9
.ccollections
OrderedDict
p0
((lp1
(lp2
S'state'
p3
aI400
aa(lp4
S'distance'
p5
aF169.0097198486328
aa(lp6
S'timestamp'
p7
aF5.633777141571045
aatp8
Rp9
.ccollections
OrderedDict
p0
((lp1
(lp2
S'state'
p3
aI400
aa(lp4
S'distance'
p5
aF169.0097198486328
aa(lp6
S'timestamp'
p7
aF5.6538310050964355
aatp8
Rp9
.ccollections
OrderedDict
p0
((lp1
(lp2
S'state'
p3
aI400
aa(lp4
S'distance'
p5
aF169.0097198486328
aa(lp6
S'timestamp'
p7
aF5.653954029083252
aatp8
Rp9
.ccollections
OrderedDict
p0
((lp1
(lp2
S'state'
p3
aI400
aa(lp4
S'distance'
p5
aF169.0097198486328
aa(lp6
S'timestamp'
p7
aF5.655497074127197
aatp8
Rp9
.ccollections
OrderedDict
p0
((lp1
(lp2
S'state'
p3
aI400
aa(lp4
S'distance'
p5
aF169.0097198486328
aa(lp6
S'timestamp'
p7
aF5.657421112060547
aatp8
Rp9
.ccollections
OrderedDict
p0
((lp1
(lp2
S'state'
p3
aI400
aa(lp4
S'distance'
p5
aF169.0097198486328
aa(lp6
S'timestamp'
p7
aF5.664144039154053
aatp8
Rp9
.ccollections
OrderedDict
p0
((lp1
(lp2
S'state'
p3
aI400
aa(lp4
S'distance'
p5
aF169.0097198486328
aa(lp6
S'timestamp'
p7
aF5.6642820835113525
aatp8
Rp9
.ccollections
OrderedDict
p0
((lp1
(lp2
S'state'
p3
aI400
aa(lp4
S'distance'
p5
aF169.0097198486328
aa(lp6
S'timestamp'
p7
aF5.6735711097717285
aatp8
Rp9
.ccollections
OrderedDict
p0
((lp1
(lp2
S'state'
p3
aI400
aa(lp4
S'distance'
p5
aF169.0097198486328
aa(lp6
S'timestamp'
p7
aF5.673746109008789
aatp8
Rp9
.ccollections
OrderedDict
p0
((lp1
(lp2
S'state'
p3
aI400
aa(lp4
S'distance'
p5
aF169.0097198486328
aa(lp6
S'timestamp'
p7
aF5.683274030685425
aatp8
Rp9
.ccollections
OrderedDict
p0
((lp1
(lp2
S'state'
p3
aI400
aa(lp4
S'distance'
p5
aF169.0097198486328
aa(lp6
S'timestamp'
p7
aF5.683598041534424
aatp8
Rp9
.ccollections
OrderedDict
p0
((lp1
(lp2
S'state'
p3
aI400
aa(lp4
S'distance'
p5
aF169.0097198486328
aa(lp6
S'timestamp'
p7
aF5.693502187728882
aatp8
Rp9
.ccollections
OrderedDict
p0
((lp1
(lp2
S'state'
p3
aI400
aa(lp4
S'distance'
p5
aF169.0097198486328
aa(lp6
S'timestamp'
p7
aF5.694181203842163
aatp8
Rp9
.ccollections
OrderedDict
p0
((lp1
(lp2
S'state'
p3
aI400
aa(lp4
S'distance'
p5
aF169.0097198486328
aa(lp6
S'timestamp'
p7
aF5.703366041183472
aatp8
Rp9
.ccollections
OrderedDict
p0
((lp1
(lp2
S'state'
p3
aI400
aa(lp4
S'distance'
p5
aF169.0097198486328
aa(lp6
S'timestamp'
p7
aF5.703801155090332
aatp8
Rp9
.ccollections
OrderedDict
p0
((lp1
(lp2
S'state'
p3
aI400
aa(lp4
S'distance'
p5
aF169.0097198486328
aa(lp6
S'timestamp'
p7
aF5.713207006454468
aatp8
Rp9
.ccollections
OrderedDict
p0
((lp1
(lp2
S'state'
p3
aI400
aa(lp4
S'distance'
p5
aF169.0097198486328
aa(lp6
S'timestamp'
p7
aF5.713669061660767
aatp8
Rp9
.ccollections
OrderedDict
p0
((lp1
(lp2
S'state'
p3
aI400
aa(lp4
S'distance'
p5
aF169.0097198486328
aa(lp6
S'timestamp'
p7
aF5.7236480712890625
aatp8
Rp9
.ccollections
OrderedDict
p0
((lp1
(lp2
S'state'
p3
aI400
aa(lp4
S'distance'
p5
aF169.0097198486328
aa(lp6
S'timestamp'
p7
aF5.724497079849243
aatp8
Rp9
.ccollections
OrderedDict
p0
((lp1
(lp2
S'state'
p3
aI400
aa(lp4
S'distance'
p5
aF169.0097198486328
aa(lp6
S'timestamp'
p7
aF5.733338117599487
aatp8
Rp9
.ccollections
OrderedDict
p0
((lp1
(lp2
S'state'
p3
aI400
aa(lp4
S'distance'
p5
aF169.0097198486328
aa(lp6
S'timestamp'
p7
aF5.734847068786621
aatp8
Rp9
.ccollections
OrderedDict
p0
((lp1
(lp2
S'state'
p3
aI400
aa(lp4
S'distance'
p5
aF169.0097198486328
aa(lp6
S'timestamp'
p7
aF5.74354100227356
aatp8
Rp9
.ccollections
OrderedDict
p0
((lp1
(lp2
S'state'
p3
aI400
aa(lp4
S'distance'
p5
aF169.0097198486328
aa(lp6
S'timestamp'
p7
aF5.744233131408691
aatp8
Rp9
.ccollections
OrderedDict
p0
((lp1
(lp2
S'state'
p3
aI400
aa(lp4
S'distance'
p5
aF169.0097198486328
aa(lp6
S'timestamp'
p7
aF5.753143072128296
aatp8
Rp9
.ccollections
OrderedDict
p0
((lp1
(lp2
S'state'
p3
aI400
aa(lp4
S'distance'
p5
aF169.0097198486328
aa(lp6
S'timestamp'
p7
aF5.753491163253784
aatp8
Rp9
.ccollections
OrderedDict
p0
((lp1
(lp2
S'state'
p3
aI400
aa(lp4
S'distance'
p5
aF169.0097198486328
aa(lp6
S'timestamp'
p7
aF5.764153003692627
aatp8
Rp9
.ccollections
OrderedDict
p0
((lp1
(lp2
S'state'
p3
aI400
aa(lp4
S'distance'
p5
aF169.0097198486328
aa(lp6
S'timestamp'
p7
aF5.764571189880371
aatp8
Rp9
.ccollections
OrderedDict
p0
((lp1
(lp2
S'state'
p3
aI400
aa(lp4
S'distance'
p5
aF169.0097198486328
aa(lp6
S'timestamp'
p7
aF5.773725986480713
aatp8
Rp9
.ccollections
OrderedDict
p0
((lp1
(lp2
S'state'
p3
aI400
aa(lp4
S'distance'
p5
aF169.0097198486328
aa(lp6
S'timestamp'
p7
aF5.773809194564819
aatp8
Rp9
.ccollections
OrderedDict
p0
((lp1
(lp2
S'state'
p3
aI400
aa(lp4
S'distance'
p5
aF169.0097198486328
aa(lp6
S'timestamp'
p7
aF5.783361196517944
aatp8
Rp9
.ccollections
OrderedDict
p0
((lp1
(lp2
S'state'
p3
aI400
aa(lp4
S'distance'
p5
aF169.0097198486328
aa(lp6
S'timestamp'
p7
aF5.783435106277466
aatp8
Rp9
.ccollections
OrderedDict
p0
((lp1
(lp2
S'state'
p3
aI400
aa(lp4
S'distance'
p5
aF169.0097198486328
aa(lp6
S'timestamp'
p7
aF5.793130159378052
aatp8
Rp9
.ccollections
OrderedDict
p0
((lp1
(lp2
S'state'
p3
aI400
aa(lp4
S'distance'
p5
aF169.0097198486328
aa(lp6
S'timestamp'
p7
aF5.793936014175415
aatp8
Rp9
.ccollections
OrderedDict
p0
((lp1
(lp2
S'state'
p3
aI400
aa(lp4
S'distance'
p5
aF169.0097198486328
aa(lp6
S'timestamp'
p7
aF5.8034751415252686
aatp8
Rp9
.ccollections
OrderedDict
p0
((lp1
(lp2
S'state'
p3
aI400
aa(lp4
S'distance'
p5
aF169.0097198486328
aa(lp6
S'timestamp'
p7
aF5.803920030593872
aatp8
Rp9
.ccollections
OrderedDict
p0
((lp1
(lp2
S'state'
p3
aI400
aa(lp4
S'distance'
p5
aF169.0097198486328
aa(lp6
S'timestamp'
p7
aF5.812896013259888
aatp8
Rp9
.ccollections
OrderedDict
p0
((lp1
(lp2
S'state'
p3
aI400
aa(lp4
S'distance'
p5
aF169.0097198486328
aa(lp6
S'timestamp'
p7
aF5.813485145568848
aatp8
Rp9
.ccollections
OrderedDict
p0
((lp1
(lp2
S'state'
p3
aI400
aa(lp4
S'distance'
p5
aF169.0097198486328
aa(lp6
S'timestamp'
p7
aF5.823408126831055
aatp8
Rp9
.ccollections
OrderedDict
p0
((lp1
(lp2
S'state'
p3
aI400
aa(lp4
S'distance'
p5
aF169.0097198486328
aa(lp6
S'timestamp'
p7
aF5.823484182357788
aatp8
Rp9
.ccollections
OrderedDict
p0
((lp1
(lp2
S'state'
p3
aI400
aa(lp4
S'distance'
p5
aF169.0097198486328
aa(lp6
S'timestamp'
p7
aF5.832933187484741
aatp8
Rp9
.ccollections
OrderedDict
p0
((lp1
(lp2
S'state'
p3
aI400
aa(lp4
S'distance'
p5
aF169.0097198486328
aa(lp6
S'timestamp'
p7
aF5.833498001098633
aatp8
Rp9
.ccollections
OrderedDict
p0
((lp1
(lp2
S'state'
p3
aI400
aa(lp4
S'distance'
p5
aF169.0097198486328
aa(lp6
S'timestamp'
p7
aF5.843206167221069
aatp8
Rp9
.ccollections
OrderedDict
p0
((lp1
(lp2
S'state'
p3
aI400
aa(lp4
S'distance'
p5
aF169.0097198486328
aa(lp6
S'timestamp'
p7
aF5.844072103500366
aatp8
Rp9
.ccollections
OrderedDict
p0
((lp1
(lp2
S'state'
p3
aI400
aa(lp4
S'distance'
p5
aF169.0097198486328
aa(lp6
S'timestamp'
p7
aF5.853346109390259
aatp8
Rp9
.ccollections
OrderedDict
p0
((lp1
(lp2
S'state'
p3
aI400
aa(lp4
S'distance'
p5
aF169.0097198486328
aa(lp6
S'timestamp'
p7
aF5.853424072265625
aatp8
Rp9
.ccollections
OrderedDict
p0
((lp1
(lp2
S'state'
p3
aI400
aa(lp4
S'distance'
p5
aF169.0097198486328
aa(lp6
S'timestamp'
p7
aF5.863615989685059
aatp8
Rp9
.ccollections
OrderedDict
p0
((lp1
(lp2
S'state'
p3
aI400
aa(lp4
S'distance'
p5
aF169.0097198486328
aa(lp6
S'timestamp'
p7
aF5.8637120723724365
aatp8
Rp9
.ccollections
OrderedDict
p0
((lp1
(lp2
S'state'
p3
aI400
aa(lp4
S'distance'
p5
aF169.0097198486328
aa(lp6
S'timestamp'
p7
aF5.8739540576934814
aatp8
Rp9
.ccollections
OrderedDict
p0
((lp1
(lp2
S'state'
p3
aI400
aa(lp4
S'distance'
p5
aF169.0097198486328
aa(lp6
S'timestamp'
p7
aF5.8741981983184814
aatp8
Rp9
.ccollections
OrderedDict
p0
((lp1
(lp2
S'state'
p3
aI400
aa(lp4
S'distance'
p5
aF169.0097198486328
aa(lp6
S'timestamp'
p7
aF5.8831000328063965
aatp8
Rp9
.ccollections
OrderedDict
p0
((lp1
(lp2
S'state'
p3
aI400
aa(lp4
S'distance'
p5
aF169.0097198486328
aa(lp6
S'timestamp'
p7
aF5.884261131286621
aatp8
Rp9
.ccollections
OrderedDict
p0
((lp1
(lp2
S'state'
p3
aI400
aa(lp4
S'distance'
p5
aF169.0097198486328
aa(lp6
S'timestamp'
p7
aF5.893365144729614
aatp8
Rp9
.ccollections
OrderedDict
p0
((lp1
(lp2
S'state'
p3
aI400
aa(lp4
S'distance'
p5
aF169.0097198486328
aa(lp6
S'timestamp'
p7
aF5.893446207046509
aatp8
Rp9
.ccollections
OrderedDict
p0
((lp1
(lp2
S'state'
p3
aI400
aa(lp4
S'distance'
p5
aF169.0097198486328
aa(lp6
S'timestamp'
p7
aF5.903154134750366
aatp8
Rp9
.ccollections
OrderedDict
p0
((lp1
(lp2
S'state'
p3
aI0
aa(lp4
S'distance'
p5
aF169.0097198486328
aa(lp6
S'timestamp'
p7
aF5.903526067733765
aatp8
Rp9
.ccollections
OrderedDict
p0
((lp1
(lp2
S'state'
p3
aI0
aa(lp4
S'distance'
p5
aF69.32932662963867
aa(lp6
S'timestamp'
p7
aF6.463258981704712
aatp8
Rp9
.ccollections
OrderedDict
p0
((lp1
(lp2
S'state'
p3
aI0
aa(lp4
S'distance'
p5
aF69.32932662963867
aa(lp6
S'timestamp'
p7
aF6.473123073577881
aatp8
Rp9
.ccollections
OrderedDict
p0
((lp1
(lp2
S'state'
p3
aI0
aa(lp4
S'distance'
p5
aF69.32932662963867
aa(lp6
S'timestamp'
p7
aF6.473618984222412
aatp8
Rp9
.ccollections
OrderedDict
p0
((lp1
(lp2
S'state'
p3
aI0
aa(lp4
S'distance'
p5
aF69.32932662963867
aa(lp6
S'timestamp'
p7
aF6.482897996902466
aatp8
Rp9
.ccollections
OrderedDict
p0
((lp1
(lp2
S'state'
p3
aI0
aa(lp4
S'distance'
p5
aF69.32932662963867
aa(lp6
S'timestamp'
p7
aF6.483602046966553
aatp8
Rp9
.ccollections
OrderedDict
p0
((lp1
(lp2
S'state'
p3
aI0
aa(lp4
S'distance'
p5
aF69.32932662963867
aa(lp6
S'timestamp'
p7
aF6.492537975311279
aatp8
Rp9
.ccollections
OrderedDict
p0
((lp1
(lp2
S'state'
p3
aI0
aa(lp4
S'distance'
p5
aF69.32932662963867
aa(lp6
S'timestamp'
p7
aF6.492825984954834
aatp8
Rp9
.ccollections
OrderedDict
p0
((lp1
(lp2
S'state'
p3
aI0
aa(lp4
S'distance'
p5
aF69.32932662963867
aa(lp6
S'timestamp'
p7
aF6.503086090087891
aatp8
Rp9
.ccollections
OrderedDict
p0
((lp1
(lp2
S'state'
p3
aI0
aa(lp4
S'distance'
p5
aF69.32932662963867
aa(lp6
S'timestamp'
p7
aF6.5031890869140625
aatp8
Rp9
.ccollections
OrderedDict
p0
((lp1
(lp2
S'state'
p3
aI0
aa(lp4
S'distance'
p5
aF69.32932662963867
aa(lp6
S'timestamp'
p7
aF6.512530088424683
aatp8
Rp9
.ccollections
OrderedDict
p0
((lp1
(lp2
S'state'
p3
aI0
aa(lp4
S'distance'
p5
aF69.32932662963867
aa(lp6
S'timestamp'
p7
aF6.5130109786987305
aatp8
Rp9
.ccollections
OrderedDict
p0
((lp1
(lp2
S'state'
p3
aI0
aa(lp4
S'distance'
p5
aF69.32932662963867
aa(lp6
S'timestamp'
p7
aF6.5228660106658936
aatp8
Rp9
.ccollections
OrderedDict
p0
((lp1
(lp2
S'state'
p3
aI0
aa(lp4
S'distance'
p5
aF69.32932662963867
aa(lp6
S'timestamp'
p7
aF6.52332615852356
aatp8
Rp9
.ccollections
OrderedDict
p0
((lp1
(lp2
S'state'
p3
aI0
aa(lp4
S'distance'
p5
aF69.32932662963867
aa(lp6
S'timestamp'
p7
aF6.533091068267822
aatp8
Rp9
.ccollections
OrderedDict
p0
((lp1
(lp2
S'state'
p3
aI0
aa(lp4
S'distance'
p5
aF69.32932662963867
aa(lp6
S'timestamp'
p7
aF6.533606052398682
aatp8
Rp9
.ccollections
OrderedDict
p0
((lp1
(lp2
S'state'
p3
aI0
aa(lp4
S'distance'
p5
aF69.32932662963867
aa(lp6
S'timestamp'
p7
aF6.542831182479858
aatp8
Rp9
.ccollections
OrderedDict
p0
((lp1
(lp2
S'state'
p3
aI0
aa(lp4
S'distance'
p5
aF69.32932662963867
aa(lp6
S'timestamp'
p7
aF6.543457984924316
aatp8
Rp9
.ccollections
OrderedDict
p0
((lp1
(lp2
S'state'
p3
aI0
aa(lp4
S'distance'
p5
aF69.32932662963867
aa(lp6
S'timestamp'
p7
aF6.552927017211914
aatp8
Rp9
.ccollections
OrderedDict
p0
((lp1
(lp2
S'state'
p3
aI0
aa(lp4
S'distance'
p5
aF69.32932662963867
aa(lp6
S'timestamp'
p7
aF6.553624153137207
aatp8
Rp9
.ccollections
OrderedDict
p0
((lp1
(lp2
S'state'
p3
aI0
aa(lp4
S'distance'
p5
aF69.32932662963867
aa(lp6
S'timestamp'
p7
aF6.562723159790039
aatp8
Rp9
.ccollections
OrderedDict
p0
((lp1
(lp2
S'state'
p3
aI0
aa(lp4
S'distance'
p5
aF69.32932662963867
aa(lp6
S'timestamp'
p7
aF6.563266038894653
aatp8
Rp9
.ccollections
OrderedDict
p0
((lp1
(lp2
S'state'
p3
aI0
aa(lp4
S'distance'
p5
aF69.32932662963867
aa(lp6
S'timestamp'
p7
aF6.572728157043457
aatp8
Rp9
.ccollections
OrderedDict
p0
((lp1
(lp2
S'state'
p3
aI0
aa(lp4
S'distance'
p5
aF69.32932662963867
aa(lp6
S'timestamp'
p7
aF6.572806119918823
aatp8
Rp9
.ccollections
OrderedDict
p0
((lp1
(lp2
S'state'
p3
aI0
aa(lp4
S'distance'
p5
aF69.32932662963867
aa(lp6
S'timestamp'
p7
aF6.582305192947388
aatp8
Rp9
.ccollections
OrderedDict
p0
((lp1
(lp2
S'state'
p3
aI0
aa(lp4
S'distance'
p5
aF69.32932662963867
aa(lp6
S'timestamp'
p7
aF6.582650184631348
aatp8
Rp9
.ccollections
OrderedDict
p0
((lp1
(lp2
S'state'
p3
aI0
aa(lp4
S'distance'
p5
aF69.32932662963867
aa(lp6
S'timestamp'
p7
aF6.592976093292236
aatp8
Rp9
.ccollections
OrderedDict
p0
((lp1
(lp2
S'state'
p3
aI0
aa(lp4
S'distance'
p5
aF69.32932662963867
aa(lp6
S'timestamp'
p7
aF6.593314170837402
aatp8
Rp9
.ccollections
OrderedDict
p0
((lp1
(lp2
S'state'
p3
aI0
aa(lp4
S'distance'
p5
aF69.32932662963867
aa(lp6
S'timestamp'
p7
aF6.60308313369751
aatp8
Rp9
.ccollections
OrderedDict
p0
((lp1
(lp2
S'state'
p3
aI0
aa(lp4
S'distance'
p5
aF69.32932662963867
aa(lp6
S'timestamp'
p7
aF6.603600978851318
aatp8
Rp9
.ccollections
OrderedDict
p0
((lp1
(lp2
S'state'
p3
aI0
aa(lp4
S'distance'
p5
aF69.32932662963867
aa(lp6
S'timestamp'
p7
aF6.612974166870117
aatp8
Rp9
.ccollections
OrderedDict
p0
((lp1
(lp2
S'state'
p3
aI0
aa(lp4
S'distance'
p5
aF69.32932662963867
aa(lp6
S'timestamp'
p7
aF6.6131391525268555
aatp8
Rp9
.ccollections
OrderedDict
p0
((lp1
(lp2
S'state'
p3
aI0
aa(lp4
S'distance'
p5
aF69.32932662963867
aa(lp6
S'timestamp'
p7
aF6.6228461265563965
aatp8
Rp9
.ccollections
OrderedDict
p0
((lp1
(lp2
S'state'
p3
aI0
aa(lp4
S'distance'
p5
aF69.32932662963867
aa(lp6
S'timestamp'
p7
aF6.623247146606445
aatp8
Rp9
.ccollections
OrderedDict
p0
((lp1
(lp2
S'state'
p3
aI0
aa(lp4
S'distance'
p5
aF69.32932662963867
aa(lp6
S'timestamp'
p7
aF6.632411003112793
aatp8
Rp9
.ccollections
OrderedDict
p0
((lp1
(lp2
S'state'
p3
aI0
aa(lp4
S'distance'
p5
aF69.32932662963867
aa(lp6
S'timestamp'
p7
aF6.632528066635132
aatp8
Rp9
.ccollections
OrderedDict
p0
((lp1
(lp2
S'state'
p3
aI0
aa(lp4
S'distance'
p5
aF69.32932662963867
aa(lp6
S'timestamp'
p7
aF6.643292188644409
aatp8
Rp9
.ccollections
OrderedDict
p0
((lp1
(lp2
S'state'
p3
aI0
aa(lp4
S'distance'
p5
aF69.32932662963867
aa(lp6
S'timestamp'
p7
aF6.643864154815674
aatp8
Rp9
.ccollections
OrderedDict
p0
((lp1
(lp2
S'state'
p3
aI0
aa(lp4
S'distance'
p5
aF69.32932662963867
aa(lp6
S'timestamp'
p7
aF6.652298212051392
aatp8
Rp9
.ccollections
OrderedDict
p0
((lp1
(lp2
S'state'
p3
aI0
aa(lp4
S'distance'
p5
aF69.32932662963867
aa(lp6
S'timestamp'
p7
aF6.6530210971832275
aatp8
Rp9
.ccollections
OrderedDict
p0
((lp1
(lp2
S'state'
p3
aI0
aa(lp4
S'distance'
p5
aF69.32932662963867
aa(lp6
S'timestamp'
p7
aF6.662151098251343
aatp8
Rp9
.ccollections
OrderedDict
p0
((lp1
(lp2
S'state'
p3
aI0
aa(lp4
S'distance'
p5
aF69.32932662963867
aa(lp6
S'timestamp'
p7
aF6.662629127502441
aatp8
Rp9
.ccollections
OrderedDict
p0
((lp1
(lp2
S'state'
p3
aI0
aa(lp4
S'distance'
p5
aF69.32932662963867
aa(lp6
S'timestamp'
p7
aF6.682687997817993
aatp8
Rp9
.ccollections
OrderedDict
p0
((lp1
(lp2
S'state'
p3
aI0
aa(lp4
S'distance'
p5
aF69.32932662963867
aa(lp6
S'timestamp'
p7
aF6.683503150939941
aatp8
Rp9
.ccollections
OrderedDict
p0
((lp1
(lp2
S'state'
p3
aI0
aa(lp4
S'distance'
p5
aF69.32932662963867
aa(lp6
S'timestamp'
p7
aF6.684167146682739
aatp8
Rp9
.ccollections
OrderedDict
p0
((lp1
(lp2
S'state'
p3
aI0
aa(lp4
S'distance'
p5
aF69.32932662963867
aa(lp6
S'timestamp'
p7
aF6.685283184051514
aatp8
Rp9
.ccollections
OrderedDict
p0
((lp1
(lp2
S'state'
p3
aI0
aa(lp4
S'distance'
p5
aF69.32932662963867
aa(lp6
S'timestamp'
p7
aF6.6924731731414795
aatp8
Rp9
.ccollections
OrderedDict
p0
((lp1
(lp2
S'state'
p3
aI0
aa(lp4
S'distance'
p5
aF69.32932662963867
aa(lp6
S'timestamp'
p7
aF6.693073987960815
aatp8
Rp9
.ccollections
OrderedDict
p0
((lp1
(lp2
S'state'
p3
aI0
aa(lp4
S'distance'
p5
aF69.32932662963867
aa(lp6
S'timestamp'
p7
aF6.703341007232666
aatp8
Rp9
.ccollections
OrderedDict
p0
((lp1
(lp2
S'state'
p3
aI0
aa(lp4
S'distance'
p5
aF69.32932662963867
aa(lp6
S'timestamp'
p7
aF6.703421115875244
aatp8
Rp9
.ccollections
OrderedDict
p0
((lp1
(lp2
S'state'
p3
aI0
aa(lp4
S'distance'
p5
aF69.32932662963867
aa(lp6
S'timestamp'
p7
aF6.7123191356658936
aatp8
Rp9
.ccollections
OrderedDict
p0
((lp1
(lp2
S'state'
p3
aI0
aa(lp4
S'distance'
p5
aF69.32932662963867
aa(lp6
S'timestamp'
p7
aF6.712980031967163
aatp8
Rp9
.ccollections
OrderedDict
p0
((lp1
(lp2
S'state'
p3
aI0
aa(lp4
S'distance'
p5
aF69.32932662963867
aa(lp6
S'timestamp'
p7
aF6.7234461307525635
aatp8
Rp9
.ccollections
OrderedDict
p0
((lp1
(lp2
S'state'
p3
aI0
aa(lp4
S'distance'
p5
aF69.32932662963867
aa(lp6
S'timestamp'
p7
aF6.72353720664978
aatp8
Rp9
.ccollections
OrderedDict
p0
((lp1
(lp2
S'state'
p3
aI0
aa(lp4
S'distance'
p5
aF69.32932662963867
aa(lp6
S'timestamp'
p7
aF6.732673168182373
aatp8
Rp9
.ccollections
OrderedDict
p0
((lp1
(lp2
S'state'
p3
aI0
aa(lp4
S'distance'
p5
aF69.32932662963867
aa(lp6
S'timestamp'
p7
aF6.732751131057739
aatp8
Rp9
.ccollections
OrderedDict
p0
((lp1
(lp2
S'state'
p3
aI0
aa(lp4
S'distance'
p5
aF69.32932662963867
aa(lp6
S'timestamp'
p7
aF6.742163181304932
aatp8
Rp9
.ccollections
OrderedDict
p0
((lp1
(lp2
S'state'
p3
aI0
aa(lp4
S'distance'
p5
aF69.32932662963867
aa(lp6
S'timestamp'
p7
aF6.742981195449829
aatp8
Rp9
.ccollections
OrderedDict
p0
((lp1
(lp2
S'state'
p3
aI0
aa(lp4
S'distance'
p5
aF69.32932662963867
aa(lp6
S'timestamp'
p7
aF6.7521891593933105
aatp8
Rp9
.ccollections
OrderedDict
p0
((lp1
(lp2
S'state'
p3
aI0
aa(lp4
S'distance'
p5
aF69.32932662963867
aa(lp6
S'timestamp'
p7
aF6.753252029418945
aatp8
Rp9
.ccollections
OrderedDict
p0
((lp1
(lp2
S'state'
p3
aI0
aa(lp4
S'distance'
p5
aF69.32932662963867
aa(lp6
S'timestamp'
p7
aF6.763540983200073
aatp8
Rp9
.ccollections
OrderedDict
p0
((lp1
(lp2
S'state'
p3
aI0
aa(lp4
S'distance'
p5
aF69.32932662963867
aa(lp6
S'timestamp'
p7
aF6.763617992401123
aatp8
Rp9
.ccollections
OrderedDict
p0
((lp1
(lp2
S'state'
p3
aI0
aa(lp4
S'distance'
p5
aF69.32932662963867
aa(lp6
S'timestamp'
p7
aF6.772148132324219
aatp8
Rp9
.ccollections
OrderedDict
p0
((lp1
(lp2
S'state'
p3
aI0
aa(lp4
S'distance'
p5
aF69.32932662963867
aa(lp6
S'timestamp'
p7
aF6.772804021835327
aatp8
Rp9
.ccollections
OrderedDict
p0
((lp1
(lp2
S'state'
p3
aI0
aa(lp4
S'distance'
p5
aF69.32932662963867
aa(lp6
S'timestamp'
p7
aF6.782729148864746
aatp8
Rp9
.ccollections
OrderedDict
p0
((lp1
(lp2
S'state'
p3
aI0
aa(lp4
S'distance'
p5
aF69.32932662963867
aa(lp6
S'timestamp'
p7
aF6.782809019088745
aatp8
Rp9
.ccollections
OrderedDict
p0
((lp1
(lp2
S'state'
p3
aI0
aa(lp4
S'distance'
p5
aF69.32932662963867
aa(lp6
S'timestamp'
p7
aF6.792769193649292
aatp8
Rp9
.ccollections
OrderedDict
p0
((lp1
(lp2
S'state'
p3
aI400
aa(lp4
S'distance'
p5
aF69.32932662963867
aa(lp6
S'timestamp'
p7
aF6.7934410572052
aatp8
Rp9
.ccollections
OrderedDict
p0
((lp1
(lp2
S'state'
p3
aI400
aa(lp4
S'distance'
p5
aF69.32932662963867
aa(lp6
S'timestamp'
p7
aF6.802420139312744
aatp8
Rp9
.ccollections
OrderedDict
p0
((lp1
(lp2
S'state'
p3
aI0
aa(lp4
S'distance'
p5
aF69.32932662963867
aa(lp6
S'timestamp'
p7
aF6.802740097045898
aatp8
Rp9
.ccollections
OrderedDict
p0
((lp1
(lp2
S'state'
p3
aI0
aa(lp4
S'distance'
p5
aF65.96354103088379
aa(lp6
S'timestamp'
p7
aF7.373883008956909
aatp8
Rp9
.ccollections
OrderedDict
p0
((lp1
(lp2
S'state'
p3
aI0
aa(lp4
S'distance'
p5
aF65.96354103088379
aa(lp6
S'timestamp'
p7
aF7.383285999298096
aatp8
Rp9
.ccollections
OrderedDict
p0
((lp1
(lp2
S'state'
p3
aI0
aa(lp4
S'distance'
p5
aF65.96354103088379
aa(lp6
S'timestamp'
p7
aF7.383381128311157
aatp8
Rp9
.ccollections
OrderedDict
p0
((lp1
(lp2
S'state'
p3
aI0
aa(lp4
S'distance'
p5
aF65.96354103088379
aa(lp6
S'timestamp'
p7
aF7.3924720287323
aatp8
Rp9
.ccollections
OrderedDict
p0
((lp1
(lp2
S'state'
p3
aI0
aa(lp4
S'distance'
p5
aF65.96354103088379
aa(lp6
S'timestamp'
p7
aF7.392625093460083
aatp8
Rp9
.ccollections
OrderedDict
p0
((lp1
(lp2
S'state'
p3
aI0
aa(lp4
S'distance'
p5
aF65.96354103088379
aa(lp6
S'timestamp'
p7
aF7.401885986328125
aatp8
Rp9
.ccollections
OrderedDict
p0
((lp1
(lp2
S'state'
p3
aI0
aa(lp4
S'distance'
p5
aF65.96354103088379
aa(lp6
S'timestamp'
p7
aF7.401971101760864
aatp8
Rp9
.ccollections
OrderedDict
p0
((lp1
(lp2
S'state'
p3
aI0
aa(lp4
S'distance'
p5
aF65.96354103088379
aa(lp6
S'timestamp'
p7
aF7.411884069442749
aatp8
Rp9
.ccollections
OrderedDict
p0
((lp1
(lp2
S'state'
p3
aI0
aa(lp4
S'distance'
p5
aF65.96354103088379
aa(lp6
S'timestamp'
p7
aF7.411962985992432
aatp8
Rp9
.ccollections
OrderedDict
p0
((lp1
(lp2
S'state'
p3
aI0
aa(lp4
S'distance'
p5
aF65.96354103088379
aa(lp6
S'timestamp'
p7
aF7.421421051025391
aatp8
Rp9
.ccollections
OrderedDict
p0
((lp1
(lp2
S'state'
p3
aI0
aa(lp4
S'distance'
p5
aF65.96354103088379
aa(lp6
S'timestamp'
p7
aF7.422114133834839
aatp8
Rp9
.ccollections
OrderedDict
p0
((lp1
(lp2
S'state'
p3
aI0
aa(lp4
S'distance'
p5
aF65.96354103088379
aa(lp6
S'timestamp'
p7
aF7.432713031768799
aatp8
Rp9
.ccollections
OrderedDict
p0
((lp1
(lp2
S'state'
p3
aI0
aa(lp4
S'distance'
p5
aF65.96354103088379
aa(lp6
S'timestamp'
p7
aF7.432924032211304
aatp8
Rp9
.ccollections
OrderedDict
p0
((lp1
(lp2
S'state'
p3
aI0
aa(lp4
S'distance'
p5
aF65.96354103088379
aa(lp6
S'timestamp'
p7
aF7.51603102684021
aatp8
Rp9
.ccollections
OrderedDict
p0
((lp1
(lp2
S'state'
p3
aI0
aa(lp4
S'distance'
p5
aF65.96354103088379
aa(lp6
S'timestamp'
p7
aF7.51770806312561
aatp8
Rp9
.ccollections
OrderedDict
p0
((lp1
(lp2
S'state'
p3
aI0
aa(lp4
S'distance'
p5
aF65.96354103088379
aa(lp6
S'timestamp'
p7
aF7.520925045013428
aatp8
Rp9
.ccollections
OrderedDict
p0
((lp1
(lp2
S'state'
p3
aI0
aa(lp4
S'distance'
p5
aF65.96354103088379
aa(lp6
S'timestamp'
p7
aF7.522977113723755
aatp8
Rp9
.ccollections
OrderedDict
p0
((lp1
(lp2
S'state'
p3
aI0
aa(lp4
S'distance'
p5
aF65.96354103088379
aa(lp6
S'timestamp'
p7
aF7.523177146911621
aatp8
Rp9
.ccollections
OrderedDict
p0
((lp1
(lp2
S'state'
p3
aI0
aa(lp4
S'distance'
p5
aF65.96354103088379
aa(lp6
S'timestamp'
p7
aF7.52518105506897
aatp8
Rp9
.ccollections
OrderedDict
p0
((lp1
(lp2
S'state'
p3
aI0
aa(lp4
S'distance'
p5
aF65.96354103088379
aa(lp6
S'timestamp'
p7
aF7.526324033737183
aatp8
Rp9
.ccollections
OrderedDict
p0
((lp1
(lp2
S'state'
p3
aI0
aa(lp4
S'distance'
p5
aF65.96354103088379
aa(lp6
S'timestamp'
p7
aF7.526535987854004
aatp8
Rp9
.ccollections
OrderedDict
p0
((lp1
(lp2
S'state'
p3
aI0
aa(lp4
S'distance'
p5
aF65.96354103088379
aa(lp6
S'timestamp'
p7
aF7.526686191558838
aatp8
Rp9
.ccollections
OrderedDict
p0
((lp1
(lp2
S'state'
p3
aI0
aa(lp4
S'distance'
p5
aF65.96354103088379
aa(lp6
S'timestamp'
p7
aF7.528590202331543
aatp8
Rp9
.ccollections
OrderedDict
p0
((lp1
(lp2
S'state'
p3
aI0
aa(lp4
S'distance'
p5
aF65.96354103088379
aa(lp6
S'timestamp'
p7
aF7.528806209564209
aatp8
Rp9
.ccollections
OrderedDict
p0
((lp1
(lp2
S'state'
p3
aI0
aa(lp4
S'distance'
p5
aF65.96354103088379
aa(lp6
S'timestamp'
p7
aF7.53029203414917
aatp8
Rp9
.ccollections
OrderedDict
p0
((lp1
(lp2
S'state'
p3
aI0
aa(lp4
S'distance'
p5
aF65.96354103088379
aa(lp6
S'timestamp'
p7
aF7.530412197113037
aatp8
Rp9
.ccollections
OrderedDict
p0
((lp1
(lp2
S'state'
p3
aI0
aa(lp4
S'distance'
p5
aF65.96354103088379
aa(lp6
S'timestamp'
p7
aF7.531896114349365
aatp8
Rp9
.ccollections
OrderedDict
p0
((lp1
(lp2
S'state'
p3
aI0
aa(lp4
S'distance'
p5
aF65.96354103088379
aa(lp6
S'timestamp'
p7
aF7.534712076187134
aatp8
Rp9
.ccollections
OrderedDict
p0
((lp1
(lp2
S'state'
p3
aI0
aa(lp4
S'distance'
p5
aF65.96354103088379
aa(lp6
S'timestamp'
p7
aF7.534910202026367
aatp8
Rp9
.ccollections
OrderedDict
p0
((lp1
(lp2
S'state'
p3
aI0
aa(lp4
S'distance'
p5
aF65.96354103088379
aa(lp6
S'timestamp'
p7
aF7.537737131118774
aatp8
Rp9
.ccollections
OrderedDict
p0
((lp1
(lp2
S'state'
p3
aI0
aa(lp4
S'distance'
p5
aF65.96354103088379
aa(lp6
S'timestamp'
p7
aF7.538732051849365
aatp8
Rp9
.ccollections
OrderedDict
p0
((lp1
(lp2
S'state'
p3
aI0
aa(lp4
S'distance'
p5
aF65.96354103088379
aa(lp6
S'timestamp'
p7
aF7.539496183395386
aatp8
Rp9
.ccollections
OrderedDict
p0
((lp1
(lp2
S'state'
p3
aI0
aa(lp4
S'distance'
p5
aF65.96354103088379
aa(lp6
S'timestamp'
p7
aF7.539666175842285
aatp8
Rp9
.ccollections
OrderedDict
p0
((lp1
(lp2
S'state'
p3
aI0
aa(lp4
S'distance'
p5
aF65.96354103088379
aa(lp6
S'timestamp'
p7
aF7.5425519943237305
aatp8
Rp9
.ccollections
OrderedDict
p0
((lp1
(lp2
S'state'
p3
aI0
aa(lp4
S'distance'
p5
aF65.96354103088379
aa(lp6
S'timestamp'
p7
aF7.543578147888184
aatp8
Rp9
.ccollections
OrderedDict
p0
((lp1
(lp2
S'state'
p3
aI0
aa(lp4
S'distance'
p5
aF65.96354103088379
aa(lp6
S'timestamp'
p7
aF7.552245140075684
aatp8
Rp9
.ccollections
OrderedDict
p0
((lp1
(lp2
S'state'
p3
aI0
aa(lp4
S'distance'
p5
aF65.96354103088379
aa(lp6
S'timestamp'
p7
aF7.552467107772827
aatp8
Rp9
.ccollections
OrderedDict
p0
((lp1
(lp2
S'state'
p3
aI0
aa(lp4
S'distance'
p5
aF65.96354103088379
aa(lp6
S'timestamp'
p7
aF7.562186002731323
aatp8
Rp9
.ccollections
OrderedDict
p0
((lp1
(lp2
S'state'
p3
aI0
aa(lp4
S'distance'
p5
aF65.96354103088379
aa(lp6
S'timestamp'
p7
aF7.562619209289551
aatp8
Rp9
.ccollections
OrderedDict
p0
((lp1
(lp2
S'state'
p3
aI0
aa(lp4
S'distance'
p5
aF65.96354103088379
aa(lp6
S'timestamp'
p7
aF7.582110166549683
aatp8
Rp9
.ccollections
OrderedDict
p0
((lp1
(lp2
S'state'
p3
aI0
aa(lp4
S'distance'
p5
aF65.96354103088379
aa(lp6
S'timestamp'
p7
aF7.582434177398682
aatp8
Rp9
.ccollections
OrderedDict
p0
((lp1
(lp2
S'state'
p3
aI0
aa(lp4
S'distance'
p5
aF65.96354103088379
aa(lp6
S'timestamp'
p7
aF7.582670211791992
aatp8
Rp9
.ccollections
OrderedDict
p0
((lp1
(lp2
S'state'
p3
aI0
aa(lp4
S'distance'
p5
aF65.96354103088379
aa(lp6
S'timestamp'
p7
aF7.58305811882019
aatp8
Rp9
.ccollections
OrderedDict
p0
((lp1
(lp2
S'state'
p3
aI0
aa(lp4
S'distance'
p5
aF65.96354103088379
aa(lp6
S'timestamp'
p7
aF7.601786136627197
aatp8
Rp9
.ccollections
OrderedDict
p0
((lp1
(lp2
S'state'
p3
aI0
aa(lp4
S'distance'
p5
aF65.96354103088379
aa(lp6
S'timestamp'
p7
aF7.601961135864258
aatp8
Rp9
.ccollections
OrderedDict
p0
((lp1
(lp2
S'state'
p3
aI0
aa(lp4
S'distance'
p5
aF65.96354103088379
aa(lp6
S'timestamp'
p7
aF7.602144002914429
aatp8
Rp9
.ccollections
OrderedDict
p0
((lp1
(lp2
S'state'
p3
aI0
aa(lp4
S'distance'
p5
aF65.96354103088379
aa(lp6
S'timestamp'
p7
aF7.602809190750122
aatp8
Rp9
.ccollections
OrderedDict
p0
((lp1
(lp2
S'state'
p3
aI0
aa(lp4
S'distance'
p5
aF65.96354103088379
aa(lp6
S'timestamp'
p7
aF7.612231016159058
aatp8
Rp9
.ccollections
OrderedDict
p0
((lp1
(lp2
S'state'
p3
aI0
aa(lp4
S'distance'
p5
aF65.96354103088379
aa(lp6
S'timestamp'
p7
aF7.612977981567383
aatp8
Rp9
.ccollections
OrderedDict
p0
((lp1
(lp2
S'state'
p3
aI0
aa(lp4
S'distance'
p5
aF65.96354103088379
aa(lp6
S'timestamp'
p7
aF7.621340036392212
aatp8
Rp9
.ccollections
OrderedDict
p0
((lp1
(lp2
S'state'
p3
aI0
aa(lp4
S'distance'
p5
aF65.96354103088379
aa(lp6
S'timestamp'
p7
aF7.6216161251068115
aatp8
Rp9
.ccollections
OrderedDict
p0
((lp1
(lp2
S'state'
p3
aI0
aa(lp4
S'distance'
p5
aF65.96354103088379
aa(lp6
S'timestamp'
p7
aF7.631590127944946
aatp8
Rp9
.ccollections
OrderedDict
p0
((lp1
(lp2
S'state'
p3
aI0
aa(lp4
S'distance'
p5
aF65.96354103088379
aa(lp6
S'timestamp'
p7
aF7.641771078109741
aatp8
Rp9
.ccollections
OrderedDict
p0
((lp1
(lp2
S'state'
p3
aI0
aa(lp4
S'distance'
p5
aF65.96354103088379
aa(lp6
S'timestamp'
p7
aF7.6418540477752686
aatp8
Rp9
.ccollections
OrderedDict
p0
((lp1
(lp2
S'state'
p3
aI0
aa(lp4
S'distance'
p5
aF65.96354103088379
aa(lp6
S'timestamp'
p7
aF7.643387079238892
aatp8
Rp9
.ccollections
OrderedDict
p0
((lp1
(lp2
S'state'
p3
aI0
aa(lp4
S'distance'
p5
aF65.96354103088379
aa(lp6
S'timestamp'
p7
aF7.651901006698608
aatp8
Rp9
.ccollections
OrderedDict
p0
((lp1
(lp2
S'state'
p3
aI0
aa(lp4
S'distance'
p5
aF65.96354103088379
aa(lp6
S'timestamp'
p7
aF7.651986122131348
aatp8
Rp9
.ccollections
OrderedDict
p0
((lp1
(lp2
S'state'
p3
aI0
aa(lp4
S'distance'
p5
aF65.96354103088379
aa(lp6
S'timestamp'
p7
aF7.671392202377319
aatp8
Rp9
.ccollections
OrderedDict
p0
((lp1
(lp2
S'state'
p3
aI0
aa(lp4
S'distance'
p5
aF65.96354103088379
aa(lp6
S'timestamp'
p7
aF7.671465158462524
aatp8
Rp9
.ccollections
OrderedDict
p0
((lp1
(lp2
S'state'
p3
aI0
aa(lp4
S'distance'
p5
aF65.96354103088379
aa(lp6
S'timestamp'
p7
aF7.672783136367798
aatp8
Rp9
.ccollections
OrderedDict
p0
((lp1
(lp2
S'state'
p3
aI0
aa(lp4
S'distance'
p5
aF65.96354103088379
aa(lp6
S'timestamp'
p7
aF7.673907995223999
aatp8
Rp9
.ccollections
OrderedDict
p0
((lp1
(lp2
S'state'
p3
aI0
aa(lp4
S'distance'
p5
aF65.96354103088379
aa(lp6
S'timestamp'
p7
aF7.681800127029419
aatp8
Rp9
.ccollections
OrderedDict
p0
((lp1
(lp2
S'state'
p3
aI0
aa(lp4
S'distance'
p5
aF65.96354103088379
aa(lp6
S'timestamp'
p7
aF7.682260990142822
aatp8
Rp9
.ccollections
OrderedDict
p0
((lp1
(lp2
S'state'
p3
aI0
aa(lp4
S'distance'
p5
aF65.96354103088379
aa(lp6
S'timestamp'
p7
aF7.691451072692871
aatp8
Rp9
.ccollections
OrderedDict
p0
((lp1
(lp2
S'state'
p3
aI0
aa(lp4
S'distance'
p5
aF65.96354103088379
aa(lp6
S'timestamp'
p7
aF7.691534996032715
aatp8
Rp9
.ccollections
OrderedDict
p0
((lp1
(lp2
S'state'
p3
aI0
aa(lp4
S'distance'
p5
aF65.96354103088379
aa(lp6
S'timestamp'
p7
aF7.701562166213989
aatp8
Rp9
.ccollections
OrderedDict
p0
((lp1
(lp2
S'state'
p3
aI0
aa(lp4
S'distance'
p5
aF65.96354103088379
aa(lp6
S'timestamp'
p7
aF7.701645135879517
aatp8
Rp9
.ccollections
OrderedDict
p0
((lp1
(lp2
S'state'
p3
aI0
aa(lp4
S'distance'
p5
aF65.96354103088379
aa(lp6
S'timestamp'
p7
aF7.7117860317230225
aatp8
Rp9
.ccollections
OrderedDict
p0
((lp1
(lp2
S'state'
p3
aI0
aa(lp4
S'distance'
p5
aF65.96354103088379
aa(lp6
S'timestamp'
p7
aF7.711868047714233
aatp8
Rp9
.ccollections
OrderedDict
p0
((lp1
(lp2
S'state'
p3
aI0
aa(lp4
S'distance'
p5
aF65.96354103088379
aa(lp6
S'timestamp'
p7
aF7.722244024276733
aatp8
Rp9
.ccollections
OrderedDict
p0
((lp1
(lp2
S'state'
p3
aI0
aa(lp4
S'distance'
p5
aF65.96354103088379
aa(lp6
S'timestamp'
p7
aF7.7223920822143555
aatp8
Rp9
.ccollections
OrderedDict
p0
((lp1
(lp2
S'state'
p3
aI0
aa(lp4
S'distance'
p5
aF65.96354103088379
aa(lp6
S'timestamp'
p7
aF7.731239080429077
aatp8
Rp9
.ccollections
OrderedDict
p0
((lp1
(lp2
S'state'
p3
aI0
aa(lp4
S'distance'
p5
aF65.96354103088379
aa(lp6
S'timestamp'
p7
aF7.731507062911987
aatp8
Rp9
.ccollections
OrderedDict
p0
((lp1
(lp2
S'state'
p3
aI0
aa(lp4
S'distance'
p5
aF65.96354103088379
aa(lp6
S'timestamp'
p7
aF7.742214202880859
aatp8
Rp9
.ccollections
OrderedDict
p0
((lp1
(lp2
S'state'
p3
aI0
aa(lp4
S'distance'
p5
aF65.96354103088379
aa(lp6
S'timestamp'
p7
aF7.742400169372559
aatp8
Rp9
.ccollections
OrderedDict
p0
((lp1
(lp2
S'state'
p3
aI0
aa(lp4
S'distance'
p5
aF65.96354103088379
aa(lp6
S'timestamp'
p7
aF7.751552104949951
aatp8
Rp9
.ccollections
OrderedDict
p0
((lp1
(lp2
S'state'
p3
aI0
aa(lp4
S'distance'
p5
aF65.96354103088379
aa(lp6
S'timestamp'
p7
aF7.752478122711182
aatp8
Rp9
.ccollections
OrderedDict
p0
((lp1
(lp2
S'state'
p3
aI0
aa(lp4
S'distance'
p5
aF65.96354103088379
aa(lp6
S'timestamp'
p7
aF7.761022090911865
aatp8
Rp9
.ccollections
OrderedDict
p0
((lp1
(lp2
S'state'
p3
aI0
aa(lp4
S'distance'
p5
aF65.96354103088379
aa(lp6
S'timestamp'
p7
aF7.761460065841675
aatp8
Rp9
.ccollections
OrderedDict
p0
((lp1
(lp2
S'state'
p3
aI0
aa(lp4
S'distance'
p5
aF65.96354103088379
aa(lp6
S'timestamp'
p7
aF7.77165412902832
aatp8
Rp9
.ccollections
OrderedDict
p0
((lp1
(lp2
S'state'
p3
aI0
aa(lp4
S'distance'
p5
aF65.96354103088379
aa(lp6
S'timestamp'
p7
aF7.771751165390015
aatp8
Rp9
.ccollections
OrderedDict
p0
((lp1
(lp2
S'state'
p3
aI0
aa(lp4
S'distance'
p5
aF65.96354103088379
aa(lp6
S'timestamp'
p7
aF7.7818310260772705
aatp8
Rp9
.ccollections
OrderedDict
p0
((lp1
(lp2
S'state'
p3
aI0
aa(lp4
S'distance'
p5
aF65.96354103088379
aa(lp6
S'timestamp'
p7
aF7.782025098800659
aatp8
Rp9
.ccollections
OrderedDict
p0
((lp1
(lp2
S'state'
p3
aI0
aa(lp4
S'distance'
p5
aF65.96354103088379
aa(lp6
S'timestamp'
p7
aF7.792087078094482
aatp8
Rp9
.ccollections
OrderedDict
p0
((lp1
(lp2
S'state'
p3
aI0
aa(lp4
S'distance'
p5
aF65.96354103088379
aa(lp6
S'timestamp'
p7
aF7.792164087295532
aatp8
Rp9
.ccollections
OrderedDict
p0
((lp1
(lp2
S'state'
p3
aI0
aa(lp4
S'distance'
p5
aF65.96354103088379
aa(lp6
S'timestamp'
p7
aF7.811385154724121
aatp8
Rp9
.ccollections
OrderedDict
p0
((lp1
(lp2
S'state'
p3
aI0
aa(lp4
S'distance'
p5
aF65.96354103088379
aa(lp6
S'timestamp'
p7
aF7.811462163925171
aatp8
Rp9
.ccollections
OrderedDict
p0
((lp1
(lp2
S'state'
p3
aI0
aa(lp4
S'distance'
p5
aF65.96354103088379
aa(lp6
S'timestamp'
p7
aF7.812604188919067
aatp8
Rp9
.ccollections
OrderedDict
p0
((lp1
(lp2
S'state'
p3
aI0
aa(lp4
S'distance'
p5
aF65.96354103088379
aa(lp6
S'timestamp'
p7
aF7.813899993896484
aatp8
Rp9
.ccollections
OrderedDict
p0
((lp1
(lp2
S'state'
p3
aI0
aa(lp4
S'distance'
p5
aF65.96354103088379
aa(lp6
S'timestamp'
p7
aF7.82240104675293
aatp8
Rp9
.ccollections
OrderedDict
p0
((lp1
(lp2
S'state'
p3
aI0
aa(lp4
S'distance'
p5
aF65.96354103088379
aa(lp6
S'timestamp'
p7
aF7.823585033416748
aatp8
Rp9
.ccollections
OrderedDict
p0
((lp1
(lp2
S'state'
p3
aI0
aa(lp4
S'distance'
p5
aF65.96354103088379
aa(lp6
S'timestamp'
p7
aF7.8315269947052
aatp8
Rp9
.ccollections
OrderedDict
p0
((lp1
(lp2
S'state'
p3
aI0
aa(lp4
S'distance'
p5
aF65.96354103088379
aa(lp6
S'timestamp'
p7
aF7.831732988357544
aatp8
Rp9
.ccollections
OrderedDict
p0
((lp1
(lp2
S'state'
p3
aI0
aa(lp4
S'distance'
p5
aF65.96354103088379
aa(lp6
S'timestamp'
p7
aF7.841355085372925
aatp8
Rp9
.ccollections
OrderedDict
p0
((lp1
(lp2
S'state'
p3
aI0
aa(lp4
S'distance'
p5
aF65.96354103088379
aa(lp6
S'timestamp'
p7
aF7.841867208480835
aatp8
Rp9
.ccollections
OrderedDict
p0
((lp1
(lp2
S'state'
p3
aI0
aa(lp4
S'distance'
p5
aF65.96354103088379
aa(lp6
S'timestamp'
p7
aF7.8512561321258545
aatp8
Rp9
.ccollections
OrderedDict
p0
((lp1
(lp2
S'state'
p3
aI0
aa(lp4
S'distance'
p5
aF65.96354103088379
aa(lp6
S'timestamp'
p7
aF7.85145902633667
aatp8
Rp9
.ccollections
OrderedDict
p0
((lp1
(lp2
S'state'
p3
aI0
aa(lp4
S'distance'
p5
aF65.96354103088379
aa(lp6
S'timestamp'
p7
aF7.8609230518341064
aatp8
Rp9
.ccollections
OrderedDict
p0
((lp1
(lp2
S'state'
p3
aI0
aa(lp4
S'distance'
p5
aF65.96354103088379
aa(lp6
S'timestamp'
p7
aF7.8613669872283936
aatp8
Rp9
.ccollections
OrderedDict
p0
((lp1
(lp2
S'state'
p3
aI0
aa(lp4
S'distance'
p5
aF65.96354103088379
aa(lp6
S'timestamp'
p7
aF7.871742010116577
aatp8
Rp9
.ccollections
OrderedDict
p0
((lp1
(lp2
S'state'
p3
aI0
aa(lp4
S'distance'
p5
aF65.96354103088379
aa(lp6
S'timestamp'
p7
aF7.87253212928772
aatp8
Rp9
.ccollections
OrderedDict
p0
((lp1
(lp2
S'state'
p3
aI0
aa(lp4
S'distance'
p5
aF65.96354103088379
aa(lp6
S'timestamp'
p7
aF7.881170034408569
aatp8
Rp9
.ccollections
OrderedDict
p0
((lp1
(lp2
S'state'
p3
aI0
aa(lp4
S'distance'
p5
aF65.96354103088379
aa(lp6
S'timestamp'
p7
aF7.881618022918701
aatp8
Rp9
.ccollections
OrderedDict
p0
((lp1
(lp2
S'state'
p3
aI0
aa(lp4
S'distance'
p5
aF65.96354103088379
aa(lp6
S'timestamp'
p7
aF7.891052007675171
aatp8
Rp9
.ccollections
OrderedDict
p0
((lp1
(lp2
S'state'
p3
aI0
aa(lp4
S'distance'
p5
aF65.96354103088379
aa(lp6
S'timestamp'
p7
aF7.891377210617065
aatp8
Rp9
.ccollections
OrderedDict
p0
((lp1
(lp2
S'state'
p3
aI0
aa(lp4
S'distance'
p5
aF65.96354103088379
aa(lp6
S'timestamp'
p7
aF7.901599168777466
aatp8
Rp9
.ccollections
OrderedDict
p0
((lp1
(lp2
S'state'
p3
aI0
aa(lp4
S'distance'
p5
aF65.96354103088379
aa(lp6
S'timestamp'
p7
aF7.901707172393799
aatp8
Rp9
.ccollections
OrderedDict
p0
((lp1
(lp2
S'state'
p3
aI0
aa(lp4
S'distance'
p5
aF65.96354103088379
aa(lp6
S'timestamp'
p7
aF7.910873174667358
aatp8
Rp9
.ccollections
OrderedDict
p0
((lp1
(lp2
S'state'
p3
aI0
aa(lp4
S'distance'
p5
aF65.96354103088379
aa(lp6
S'timestamp'
p7
aF7.9113922119140625
aatp8
Rp9
.ccollections
OrderedDict
p0
((lp1
(lp2
S'state'
p3
aI0
aa(lp4
S'distance'
p5
aF65.96354103088379
aa(lp6
S'timestamp'
p7
aF7.921777009963989
aatp8
Rp9
.ccollections
OrderedDict
p0
((lp1
(lp2
S'state'
p3
aI0
aa(lp4
S'distance'
p5
aF65.96354103088379
aa(lp6
S'timestamp'
p7
aF7.922245025634766
aatp8
Rp9
.ccollections
OrderedDict
p0
((lp1
(lp2
S'state'
p3
aI0
aa(lp4
S'distance'
p5
aF65.96354103088379
aa(lp6
S'timestamp'
p7
aF7.931528091430664
aatp8
Rp9
.ccollections
OrderedDict
p0
((lp1
(lp2
S'state'
p3
aI0
aa(lp4
S'distance'
p5
aF65.96354103088379
aa(lp6
S'timestamp'
p7
aF7.9316041469573975
aatp8
Rp9
.ccollections
OrderedDict
p0
((lp1
(lp2
S'state'
p3
aI0
aa(lp4
S'distance'
p5
aF65.96354103088379
aa(lp6
S'timestamp'
p7
aF7.941173076629639
aatp8
Rp9
.ccollections
OrderedDict
p0
((lp1
(lp2
S'state'
p3
aI0
aa(lp4
S'distance'
p5
aF65.96354103088379
aa(lp6
S'timestamp'
p7
aF7.941450119018555
aatp8
Rp9
.ccollections
OrderedDict
p0
((lp1
(lp2
S'state'
p3
aI0
aa(lp4
S'distance'
p5
aF65.96354103088379
aa(lp6
S'timestamp'
p7
aF7.952103137969971
aatp8
Rp9
.ccollections
OrderedDict
p0
((lp1
(lp2
S'state'
p3
aI0
aa(lp4
S'distance'
p5
aF65.96354103088379
aa(lp6
S'timestamp'
p7
aF7.952728986740112
aatp8
Rp9
.ccollections
OrderedDict
p0
((lp1
(lp2
S'state'
p3
aI0
aa(lp4
S'distance'
p5
aF65.96354103088379
aa(lp6
S'timestamp'
p7
aF7.971072196960449
aatp8
Rp9
.ccollections
OrderedDict
p0
((lp1
(lp2
S'state'
p3
aI0
aa(lp4
S'distance'
p5
aF65.96354103088379
aa(lp6
S'timestamp'
p7
aF7.9712090492248535
aatp8
Rp9
.ccollections
OrderedDict
p0
((lp1
(lp2
S'state'
p3
aI0
aa(lp4
S'distance'
p5
aF65.96354103088379
aa(lp6
S'timestamp'
p7
aF7.972583055496216
aatp8
Rp9
.ccollections
OrderedDict
p0
((lp1
(lp2
S'state'
p3
aI0
aa(lp4
S'distance'
p5
aF65.96354103088379
aa(lp6
S'timestamp'
p7
aF7.973779201507568
aatp8
Rp9
.ccollections
OrderedDict
p0
((lp1
(lp2
S'state'
p3
aI0
aa(lp4
S'distance'
p5
aF65.96354103088379
aa(lp6
S'timestamp'
p7
aF7.981683015823364
aatp8
Rp9
.ccollections
OrderedDict
p0
((lp1
(lp2
S'state'
p3
aI0
aa(lp4
S'distance'
p5
aF65.96354103088379
aa(lp6
S'timestamp'
p7
aF7.981823205947876
aatp8
Rp9
.ccollections
OrderedDict
p0
((lp1
(lp2
S'state'
p3
aI0
aa(lp4
S'distance'
p5
aF65.96354103088379
aa(lp6
S'timestamp'
p7
aF7.991211175918579
aatp8
Rp9
.ccollections
OrderedDict
p0
((lp1
(lp2
S'state'
p3
aI0
aa(lp4
S'distance'
p5
aF65.96354103088379
aa(lp6
S'timestamp'
p7
aF7.991955041885376
aatp8
Rp9
.ccollections
OrderedDict
p0
((lp1
(lp2
S'state'
p3
aI0
aa(lp4
S'distance'
p5
aF65.96354103088379
aa(lp6
S'timestamp'
p7
aF8.001569986343384
aatp8
Rp9
.