ccollections
OrderedDict
p0
((lp1
(lp2
S'state'
p3
aI0
aa(lp4
S'distance'
p5
aF385.7344207763672
aa(lp6
S'timestamp'
p7
aF0.004602909088134766
aatp8
Rp9
.ccollections
OrderedDict
p0
((lp1
(lp2
S'state'
p3
aI0
aa(lp4
S'distance'
p5
aF385.7344207763672
aa(lp6
S'timestamp'
p7
aF0.005192995071411133
aatp8
Rp9
.ccollections
OrderedDict
p0
((lp1
(lp2
S'state'
p3
aI0
aa(lp4
S'distance'
p5
aF385.7344207763672
aa(lp6
S'timestamp'
p7
aF0.014759063720703125
aatp8
Rp9
.ccollections
OrderedDict
p0
((lp1
(lp2
S'state'
p3
aI0
aa(lp4
S'distance'
p5
aF385.7344207763672
aa(lp6
S'timestamp'
p7
aF0.015135049819946289
aatp8
Rp9
.ccollections
OrderedDict
p0
((lp1
(lp2
S'state'
p3
aI0
aa(lp4
S'distance'
p5
aF385.7344207763672
aa(lp6
S'timestamp'
p7
aF0.025528907775878906
aatp8
Rp9
.ccollections
OrderedDict
p0
((lp1
(lp2
S'state'
p3
aI0
aa(lp4
S'distance'
p5
aF385.7344207763672
aa(lp6
S'timestamp'
p7
aF0.025616884231567383
aatp8
Rp9
.ccollections
OrderedDict
p0
((lp1
(lp2
S'state'
p3
aI0
aa(lp4
S'distance'
p5
aF385.7344207763672
aa(lp6
S'timestamp'
p7
aF0.035466909408569336
aatp8
Rp9
.ccollections
OrderedDict
p0
((lp1
(lp2
S'state'
p3
aI0
aa(lp4
S'distance'
p5
aF385.7344207763672
aa(lp6
S'timestamp'
p7
aF0.03566598892211914
aatp8
Rp9
.ccollections
OrderedDict
p0
((lp1
(lp2
S'state'
p3
aI0
aa(lp4
S'distance'
p5
aF385.7344207763672
aa(lp6
S'timestamp'
p7
aF0.04509902000427246
aatp8
Rp9
.ccollections
OrderedDict
p0
((lp1
(lp2
S'state'
p3
aI0
aa(lp4
S'distance'
p5
aF385.7344207763672
aa(lp6
S'timestamp'
p7
aF0.04518604278564453
aatp8
Rp9
.ccollections
OrderedDict
p0
((lp1
(lp2
S'state'
p3
aI0
aa(lp4
S'distance'
p5
aF385.7344207763672
aa(lp6
S'timestamp'
p7
aF0.05501604080200195
aatp8
Rp9
.ccollections
OrderedDict
p0
((lp1
(lp2
S'state'
p3
aI0
aa(lp4
S'distance'
p5
aF385.7344207763672
aa(lp6
S'timestamp'
p7
aF0.055090904235839844
aatp8
Rp9
.ccollections
OrderedDict
p0
((lp1
(lp2
S'state'
p3
aI0
aa(lp4
S'distance'
p5
aF385.7344207763672
aa(lp6
S'timestamp'
p7
aF0.06587696075439453
aatp8
Rp9
.ccollections
OrderedDict
p0
((lp1
(lp2
S'state'
p3
aI0
aa(lp4
S'distance'
p5
aF385.7344207763672
aa(lp6
S'timestamp'
p7
aF0.06798291206359863
aatp8
Rp9
.ccollections
OrderedDict
p0
((lp1
(lp2
S'state'
p3
aI0
aa(lp4
S'distance'
p5
aF385.7344207763672
aa(lp6
S'timestamp'
p7
aF0.07469892501831055
aatp8
Rp9
.ccollections
OrderedDict
p0
((lp1
(lp2
S'state'
p3
aI0
aa(lp4
S'distance'
p5
aF385.7344207763672
aa(lp6
S'timestamp'
p7
aF0.07514405250549316
aatp8
Rp9
.ccollections
OrderedDict
p0
((lp1
(lp2
S'state'
p3
aI0
aa(lp4
S'distance'
p5
aF385.7344207763672
aa(lp6
S'timestamp'
p7
aF0.08468389511108398
aatp8
Rp9
.ccollections
OrderedDict
p0
((lp1
(lp2
S'state'
p3
aI0
aa(lp4
S'distance'
p5
aF385.7344207763672
aa(lp6
S'timestamp'
p7
aF0.08561396598815918
aatp8
Rp9
.ccollections
OrderedDict
p0
((lp1
(lp2
S'state'
p3
aI0
aa(lp4
S'distance'
p5
aF385.7344207763672
aa(lp6
S'timestamp'
p7
aF0.0944828987121582
aatp8
Rp9
.ccollections
OrderedDict
p0
((lp1
(lp2
S'state'
p3
aI0
aa(lp4
S'distance'
p5
aF385.7344207763672
aa(lp6
S'timestamp'
p7
aF0.09526300430297852
aatp8
Rp9
.ccollections
OrderedDict
p0
((lp1
(lp2
S'state'
p3
aI0
aa(lp4
S'distance'
p5
aF385.7344207763672
aa(lp6
S'timestamp'
p7
aF0.10561084747314453
aatp8
Rp9
.ccollections
OrderedDict
p0
((lp1
(lp2
S'state'
p3
aI0
aa(lp4
S'distance'
p5
aF385.7344207763672
aa(lp6
S'timestamp'
p7
aF0.1071329116821289
aatp8
Rp9
.ccollections
OrderedDict
p0
((lp1
(lp2
S'state'
p3
aI0
aa(lp4
S'distance'
p5
aF385.7344207763672
aa(lp6
S'timestamp'
p7
aF0.11457085609436035
aatp8
Rp9
.ccollections
OrderedDict
p0
((lp1
(lp2
S'state'
p3
aI0
aa(lp4
S'distance'
p5
aF385.7344207763672
aa(lp6
S'timestamp'
p7
aF0.11544585227966309
aatp8
Rp9
.ccollections
OrderedDict
p0
((lp1
(lp2
S'state'
p3
aI0
aa(lp4
S'distance'
p5
aF385.7344207763672
aa(lp6
S'timestamp'
p7
aF0.12454485893249512
aatp8
Rp9
.ccollections
OrderedDict
p0
((lp1
(lp2
S'state'
p3
aI0
aa(lp4
S'distance'
p5
aF385.7344207763672
aa(lp6
S'timestamp'
p7
aF0.12516307830810547
aatp8
Rp9
.ccollections
OrderedDict
p0
((lp1
(lp2
S'state'
p3
aI0
aa(lp4
S'distance'
p5
aF385.7344207763672
aa(lp6
S'timestamp'
p7
aF0.13463401794433594
aatp8
Rp9
.ccollections
OrderedDict
p0
((lp1
(lp2
S'state'
p3
aI0
aa(lp4
S'distance'
p5
aF385.7344207763672
aa(lp6
S'timestamp'
p7
aF0.144927978515625
aatp8
Rp9
.ccollections
OrderedDict
p0
((lp1
(lp2
S'state'
p3
aI0
aa(lp4
S'distance'
p5
aF385.7344207763672
aa(lp6
S'timestamp'
p7
aF0.14501190185546875
aatp8
Rp9
.ccollections
OrderedDict
p0
((lp1
(lp2
S'state'
p3
aI0
aa(lp4
S'distance'
p5
aF385.7344207763672
aa(lp6
S'timestamp'
p7
aF0.1468050479888916
aatp8
Rp9
.ccollections
OrderedDict
p0
((lp1
(lp2
S'state'
p3
aI0
aa(lp4
S'distance'
p5
aF385.7344207763672
aa(lp6
S'timestamp'
p7
aF0.15461492538452148
aatp8
Rp9
.ccollections
OrderedDict
p0
((lp1
(lp2
S'state'
p3
aI0
aa(lp4
S'distance'
p5
aF385.7344207763672
aa(lp6
S'timestamp'
p7
aF0.1550910472869873
aatp8
Rp9
.ccollections
OrderedDict
p0
((lp1
(lp2
S'state'
p3
aI0
aa(lp4
S'distance'
p5
aF385.7344207763672
aa(lp6
S'timestamp'
p7
aF0.16473793983459473
aatp8
Rp9
.ccollections
OrderedDict
p0
((lp1
(lp2
S'state'
p3
aI0
aa(lp4
S'distance'
p5
aF385.7344207763672
aa(lp6
S'timestamp'
p7
aF0.1652379035949707
aatp8
Rp9
.ccollections
OrderedDict
p0
((lp1
(lp2
S'state'
p3
aI0
aa(lp4
S'distance'
p5
aF385.7344207763672
aa(lp6
S'timestamp'
p7
aF0.17452692985534668
aatp8
Rp9
.ccollections
OrderedDict
p0
((lp1
(lp2
S'state'
p3
aI0
aa(lp4
S'distance'
p5
aF385.7344207763672
aa(lp6
S'timestamp'
p7
aF0.17520594596862793
aatp8
Rp9
.ccollections
OrderedDict
p0
((lp1
(lp2
S'state'
p3
aI0
aa(lp4
S'distance'
p5
aF385.7344207763672
aa(lp6
S'timestamp'
p7
aF0.1845090389251709
aatp8
Rp9
.ccollections
OrderedDict
p0
((lp1
(lp2
S'state'
p3
aI0
aa(lp4
S'distance'
p5
aF385.7344207763672
aa(lp6
S'timestamp'
p7
aF0.18511486053466797
aatp8
Rp9
.ccollections
OrderedDict
p0
((lp1
(lp2
S'state'
p3
aI0
aa(lp4
S'distance'
p5
aF385.7344207763672
aa(lp6
S'timestamp'
p7
aF0.19491291046142578
aatp8
Rp9
.ccollections
OrderedDict
p0
((lp1
(lp2
S'state'
p3
aI0
aa(lp4
S'distance'
p5
aF385.7344207763672
aa(lp6
S'timestamp'
p7
aF0.19504284858703613
aatp8
Rp9
.ccollections
OrderedDict
p0
((lp1
(lp2
S'state'
p3
aI0
aa(lp4
S'distance'
p5
aF385.7344207763672
aa(lp6
S'timestamp'
p7
aF0.20497894287109375
aatp8
Rp9
.ccollections
OrderedDict
p0
((lp1
(lp2
S'state'
p3
aI0
aa(lp4
S'distance'
p5
aF385.7344207763672
aa(lp6
S'timestamp'
p7
aF0.20505905151367188
aatp8
Rp9
.ccollections
OrderedDict
p0
((lp1
(lp2
S'state'
p3
aI0
aa(lp4
S'distance'
p5
aF385.7344207763672
aa(lp6
S'timestamp'
p7
aF0.21464896202087402
aatp8
Rp9
.ccollections
OrderedDict
p0
((lp1
(lp2
S'state'
p3
aI0
aa(lp4
S'distance'
p5
aF385.7344207763672
aa(lp6
S'timestamp'
p7
aF0.21508097648620605
aatp8
Rp9
.ccollections
OrderedDict
p0
((lp1
(lp2
S'state'
p3
aI0
aa(lp4
S'distance'
p5
aF385.7344207763672
aa(lp6
S'timestamp'
p7
aF0.22493505477905273
aatp8
Rp9
.ccollections
OrderedDict
p0
((lp1
(lp2
S'state'
p3
aI0
aa(lp4
S'distance'
p5
aF385.7344207763672
aa(lp6
S'timestamp'
p7
aF0.22501206398010254
aatp8
Rp9
.ccollections
OrderedDict
p0
((lp1
(lp2
S'state'
p3
aI0
aa(lp4
S'distance'
p5
aF385.7344207763672
aa(lp6
S'timestamp'
p7
aF0.23456907272338867
aatp8
Rp9
.ccollections
OrderedDict
p0
((lp1
(lp2
S'state'
p3
aI0
aa(lp4
S'distance'
p5
aF385.7344207763672
aa(lp6
S'timestamp'
p7
aF0.23514389991760254
aatp8
Rp9
.ccollections
OrderedDict
p0
((lp1
(lp2
S'state'
p3
aI0
aa(lp4
S'distance'
p5
aF385.7344207763672
aa(lp6
S'timestamp'
p7
aF0.24472594261169434
aatp8
Rp9
.ccollections
OrderedDict
p0
((lp1
(lp2
S'state'
p3
aI0
aa(lp4
S'distance'
p5
aF385.7344207763672
aa(lp6
S'timestamp'
p7
aF0.24520087242126465
aatp8
Rp9
.ccollections
OrderedDict
p0
((lp1
(lp2
S'state'
p3
aI0
aa(lp4
S'distance'
p5
aF385.7344207763672
aa(lp6
S'timestamp'
p7
aF0.25501394271850586
aatp8
Rp9
.ccollections
OrderedDict
p0
((lp1
(lp2
S'state'
p3
aI0
aa(lp4
S'distance'
p5
aF385.7344207763672
aa(lp6
S'timestamp'
p7
aF0.25508785247802734
aatp8
Rp9
.ccollections
OrderedDict
p0
((lp1
(lp2
S'state'
p3
aI0
aa(lp4
S'distance'
p5
aF385.7344207763672
aa(lp6
S'timestamp'
p7
aF0.26472997665405273
aatp8
Rp9
.ccollections
OrderedDict
p0
((lp1
(lp2
S'state'
p3
aI0
aa(lp4
S'distance'
p5
aF385.7344207763672
aa(lp6
S'timestamp'
p7
aF0.2651848793029785
aatp8
Rp9
.ccollections
OrderedDict
p0
((lp1
(lp2
S'state'
p3
aI0
aa(lp4
S'distance'
p5
aF385.7344207763672
aa(lp6
S'timestamp'
p7
aF0.27475404739379883
aatp8
Rp9
.ccollections
OrderedDict
p0
((lp1
(lp2
S'state'
p3
aI0
aa(lp4
S'distance'
p5
aF385.7344207763672
aa(lp6
S'timestamp'
p7
aF0.2753300666809082
aatp8
Rp9
.ccollections
OrderedDict
p0
((lp1
(lp2
S'state'
p3
aI0
aa(lp4
S'distance'
p5
aF385.7344207763672
aa(lp6
S'timestamp'
p7
aF0.28487491607666016
aatp8
Rp9
.ccollections
OrderedDict
p0
((lp1
(lp2
S'state'
p3
aI0
aa(lp4
S'distance'
p5
aF385.7344207763672
aa(lp6
S'timestamp'
p7
aF0.2853250503540039
aatp8
Rp9
.ccollections
OrderedDict
p0
((lp1
(lp2
S'state'
p3
aI0
aa(lp4
S'distance'
p5
aF385.7344207763672
aa(lp6
S'timestamp'
p7
aF0.2950000762939453
aatp8
Rp9
.ccollections
OrderedDict
p0
((lp1
(lp2
S'state'
p3
aI0
aa(lp4
S'distance'
p5
aF385.7344207763672
aa(lp6
S'timestamp'
p7
aF0.29514503479003906
aatp8
Rp9
.ccollections
OrderedDict
p0
((lp1
(lp2
S'state'
p3
aI0
aa(lp4
S'distance'
p5
aF385.7344207763672
aa(lp6
S'timestamp'
p7
aF0.3045969009399414
aatp8
Rp9
.ccollections
OrderedDict
p0
((lp1
(lp2
S'state'
p3
aI0
aa(lp4
S'distance'
p5
aF385.7344207763672
aa(lp6
S'timestamp'
p7
aF0.305217981338501
aatp8
Rp9
.ccollections
OrderedDict
p0
((lp1
(lp2
S'state'
p3
aI0
aa(lp4
S'distance'
p5
aF385.7344207763672
aa(lp6
S'timestamp'
p7
aF0.31467199325561523
aatp8
Rp9
.ccollections
OrderedDict
p0
((lp1
(lp2
S'state'
p3
aI0
aa(lp4
S'distance'
p5
aF385.7344207763672
aa(lp6
S'timestamp'
p7
aF0.31528306007385254
aatp8
Rp9
.ccollections
OrderedDict
p0
((lp1
(lp2
S'state'
p3
aI0
aa(lp4
S'distance'
p5
aF385.7344207763672
aa(lp6
S'timestamp'
p7
aF0.3249368667602539
aatp8
Rp9
.ccollections
OrderedDict
p0
((lp1
(lp2
S'state'
p3
aI0
aa(lp4
S'distance'
p5
aF385.7344207763672
aa(lp6
S'timestamp'
p7
aF0.3251018524169922
aatp8
Rp9
.ccollections
OrderedDict
p0
((lp1
(lp2
S'state'
p3
aI0
aa(lp4
S'distance'
p5
aF385.7344207763672
aa(lp6
S'timestamp'
p7
aF0.335036039352417
aatp8
Rp9
.ccollections
OrderedDict
p0
((lp1
(lp2
S'state'
p3
aI0
aa(lp4
S'distance'
p5
aF385.7344207763672
aa(lp6
S'timestamp'
p7
aF0.335115909576416
aatp8
Rp9
.ccollections
OrderedDict
p0
((lp1
(lp2
S'state'
p3
aI0
aa(lp4
S'distance'
p5
aF385.7344207763672
aa(lp6
S'timestamp'
p7
aF0.34473085403442383
aatp8
Rp9
.ccollections
OrderedDict
p0
((lp1
(lp2
S'state'
p3
aI0
aa(lp4
S'distance'
p5
aF385.7344207763672
aa(lp6
S'timestamp'
p7
aF0.34498000144958496
aatp8
Rp9
.ccollections
OrderedDict
p0
((lp1
(lp2
S'state'
p3
aI0
aa(lp4
S'distance'
p5
aF385.7344207763672
aa(lp6
S'timestamp'
p7
aF0.3544929027557373
aatp8
Rp9
.ccollections
OrderedDict
p0
((lp1
(lp2
S'state'
p3
aI0
aa(lp4
S'distance'
p5
aF385.7344207763672
aa(lp6
S'timestamp'
p7
aF0.3551938533782959
aatp8
Rp9
.ccollections
OrderedDict
p0
((lp1
(lp2
S'state'
p3
aI0
aa(lp4
S'distance'
p5
aF385.7344207763672
aa(lp6
S'timestamp'
p7
aF0.3646700382232666
aatp8
Rp9
.ccollections
OrderedDict
p0
((lp1
(lp2
S'state'
p3
aI0
aa(lp4
S'distance'
p5
aF385.7344207763672
aa(lp6
S'timestamp'
p7
aF0.365293025970459
aatp8
Rp9
.ccollections
OrderedDict
p0
((lp1
(lp2
S'state'
p3
aI0
aa(lp4
S'distance'
p5
aF385.7344207763672
aa(lp6
S'timestamp'
p7
aF0.3746969699859619
aatp8
Rp9
.ccollections
OrderedDict
p0
((lp1
(lp2
S'state'
p3
aI0
aa(lp4
S'distance'
p5
aF385.7344207763672
aa(lp6
S'timestamp'
p7
aF0.3752419948577881
aatp8
Rp9
.ccollections
OrderedDict
p0
((lp1
(lp2
S'state'
p3
aI0
aa(lp4
S'distance'
p5
aF385.7344207763672
aa(lp6
S'timestamp'
p7
aF0.38515496253967285
aatp8
Rp9
.ccollections
OrderedDict
p0
((lp1
(lp2
S'state'
p3
aI0
aa(lp4
S'distance'
p5
aF385.7344207763672
aa(lp6
S'timestamp'
p7
aF0.38523292541503906
aatp8
Rp9
.ccollections
OrderedDict
p0
((lp1
(lp2
S'state'
p3
aI0
aa(lp4
S'distance'
p5
aF385.7344207763672
aa(lp6
S'timestamp'
p7
aF0.39464497566223145
aatp8
Rp9
.ccollections
OrderedDict
p0
((lp1
(lp2
S'state'
p3
aI0
aa(lp4
S'distance'
p5
aF385.7344207763672
aa(lp6
S'timestamp'
p7
aF0.395143985748291
aatp8
Rp9
.ccollections
OrderedDict
p0
((lp1
(lp2
S'state'
p3
aI0
aa(lp4
S'distance'
p5
aF385.7344207763672
aa(lp6
S'timestamp'
p7
aF0.4050459861755371
aatp8
Rp9
.ccollections
OrderedDict
p0
((lp1
(lp2
S'state'
p3
aI0
aa(lp4
S'distance'
p5
aF385.7344207763672
aa(lp6
S'timestamp'
p7
aF0.40512895584106445
aatp8
Rp9
.ccollections
OrderedDict
p0
((lp1
(lp2
S'state'
p3
aI0
aa(lp4
S'distance'
p5
aF385.7344207763672
aa(lp6
S'timestamp'
p7
aF0.41497302055358887
aatp8
Rp9
.ccollections
OrderedDict
p0
((lp1
(lp2
S'state'
p3
aI0
aa(lp4
S'distance'
p5
aF385.7344207763672
aa(lp6
S'timestamp'
p7
aF0.4150559902191162
aatp8
Rp9
.ccollections
OrderedDict
p0
((lp1
(lp2
S'state'
p3
aI0
aa(lp4
S'distance'
p5
aF385.7344207763672
aa(lp6
S'timestamp'
p7
aF0.4246668815612793
aatp8
Rp9
.ccollections
OrderedDict
p0
((lp1
(lp2
S'state'
p3
aI0
aa(lp4
S'distance'
p5
aF385.7344207763672
aa(lp6
S'timestamp'
p7
aF0.42509889602661133
aatp8
Rp9
.ccollections
OrderedDict
p0
((lp1
(lp2
S'state'
p3
aI0
aa(lp4
S'distance'
p5
aF385.7344207763672
aa(lp6
S'timestamp'
p7
aF0.43567585945129395
aatp8
Rp9
.ccollections
OrderedDict
p0
((lp1
(lp2
S'state'
p3
aI0
aa(lp4
S'distance'
p5
aF385.7344207763672
aa(lp6
S'timestamp'
p7
aF0.43617892265319824
aatp8
Rp9
.ccollections
OrderedDict
p0
((lp1
(lp2
S'state'
p3
aI0
aa(lp4
S'distance'
p5
aF385.7344207763672
aa(lp6
S'timestamp'
p7
aF0.44475793838500977
aatp8
Rp9
.ccollections
OrderedDict
p0
((lp1
(lp2
S'state'
p3
aI0
aa(lp4
S'distance'
p5
aF385.7344207763672
aa(lp6
S'timestamp'
p7
aF0.445296049118042
aatp8
Rp9
.ccollections
OrderedDict
p0
((lp1
(lp2
S'state'
p3
aI0
aa(lp4
S'distance'
p5
aF385.7344207763672
aa(lp6
S'timestamp'
p7
aF0.45496392250061035
aatp8
Rp9
.ccollections
OrderedDict
p0
((lp1
(lp2
S'state'
p3
aI0
aa(lp4
S'distance'
p5
aF385.7344207763672
aa(lp6
S'timestamp'
p7
aF0.4550459384918213
aatp8
Rp9
.ccollections
OrderedDict
p0
((lp1
(lp2
S'state'
p3
aI0
aa(lp4
S'distance'
p5
aF385.7344207763672
aa(lp6
S'timestamp'
p7
aF0.46465587615966797
aatp8
Rp9
.ccollections
OrderedDict
p0
((lp1
(lp2
S'state'
p3
aI0
aa(lp4
S'distance'
p5
aF385.7344207763672
aa(lp6
S'timestamp'
p7
aF0.46521997451782227
aatp8
Rp9
.ccollections
OrderedDict
p0
((lp1
(lp2
S'state'
p3
aI0
aa(lp4
S'distance'
p5
aF385.7344207763672
aa(lp6
S'timestamp'
p7
aF0.4746379852294922
aatp8
Rp9
.ccollections
OrderedDict
p0
((lp1
(lp2
S'state'
p3
aI0
aa(lp4
S'distance'
p5
aF385.7344207763672
aa(lp6
S'timestamp'
p7
aF0.4751310348510742
aatp8
Rp9
.ccollections
OrderedDict
p0
((lp1
(lp2
S'state'
p3
aI0
aa(lp4
S'distance'
p5
aF385.7344207763672
aa(lp6
S'timestamp'
p7
aF0.4847109317779541
aatp8
Rp9
.ccollections
OrderedDict
p0
((lp1
(lp2
S'state'
p3
aI0
aa(lp4
S'distance'
p5
aF385.7344207763672
aa(lp6
S'timestamp'
p7
aF0.48534107208251953
aatp8
Rp9
.ccollections
OrderedDict
p0
((lp1
(lp2
S'state'
p3
aI0
aa(lp4
S'distance'
p5
aF385.7344207763672
aa(lp6
S'timestamp'
p7
aF0.4946720600128174
aatp8
Rp9
.ccollections
OrderedDict
p0
((lp1
(lp2
S'state'
p3
aI0
aa(lp4
S'distance'
p5
aF385.7344207763672
aa(lp6
S'timestamp'
p7
aF0.49508190155029297
aatp8
Rp9
.ccollections
OrderedDict
p0
((lp1
(lp2
S'state'
p3
aI0
aa(lp4
S'distance'
p5
aF385.7344207763672
aa(lp6
S'timestamp'
p7
aF0.5048019886016846
aatp8
Rp9
.ccollections
OrderedDict
p0
((lp1
(lp2
S'state'
p3
aI0
aa(lp4
S'distance'
p5
aF385.7344207763672
aa(lp6
S'timestamp'
p7
aF0.5050818920135498
aatp8
Rp9
.ccollections
OrderedDict
p0
((lp1
(lp2
S'state'
p3
aI0
aa(lp4
S'distance'
p5
aF385.7344207763672
aa(lp6
S'timestamp'
p7
aF0.5147080421447754
aatp8
Rp9
.ccollections
OrderedDict
p0
((lp1
(lp2
S'state'
p3
aI0
aa(lp4
S'distance'
p5
aF385.7344207763672
aa(lp6
S'timestamp'
p7
aF0.5152029991149902
aatp8
Rp9
.ccollections
OrderedDict
p0
((lp1
(lp2
S'state'
p3
aI0
aa(lp4
S'distance'
p5
aF385.7344207763672
aa(lp6
S'timestamp'
p7
aF0.5246930122375488
aatp8
Rp9
.ccollections
OrderedDict
p0
((lp1
(lp2
S'state'
p3
aI0
aa(lp4
S'distance'
p5
aF385.7344207763672
aa(lp6
S'timestamp'
p7
aF0.5250599384307861
aatp8
Rp9
.ccollections
OrderedDict
p0
((lp1
(lp2
S'state'
p3
aI0
aa(lp4
S'distance'
p5
aF385.7344207763672
aa(lp6
S'timestamp'
p7
aF0.5349829196929932
aatp8
Rp9
.ccollections
OrderedDict
p0
((lp1
(lp2
S'state'
p3
aI0
aa(lp4
S'distance'
p5
aF385.7344207763672
aa(lp6
S'timestamp'
p7
aF0.5351278781890869
aatp8
Rp9
.ccollections
OrderedDict
p0
((lp1
(lp2
S'state'
p3
aI0
aa(lp4
S'distance'
p5
aF385.7344207763672
aa(lp6
S'timestamp'
p7
aF0.544625997543335
aatp8
Rp9
.ccollections
OrderedDict
p0
((lp1
(lp2
S'state'
p3
aI0
aa(lp4
S'distance'
p5
aF385.7344207763672
aa(lp6
S'timestamp'
p7
aF0.5452470779418945
aatp8
Rp9
.ccollections
OrderedDict
p0
((lp1
(lp2
S'state'
p3
aI0
aa(lp4
S'distance'
p5
aF385.7344207763672
aa(lp6
S'timestamp'
p7
aF0.5545699596405029
aatp8
Rp9
.ccollections
OrderedDict
p0
((lp1
(lp2
S'state'
p3
aI0
aa(lp4
S'distance'
p5
aF385.7344207763672
aa(lp6
S'timestamp'
p7
aF0.5551509857177734
aatp8
Rp9
.ccollections
OrderedDict
p0
((lp1
(lp2
S'state'
p3
aI0
aa(lp4
S'distance'
p5
aF385.7344207763672
aa(lp6
S'timestamp'
p7
aF0.5648958683013916
aatp8
Rp9
.ccollections
OrderedDict
p0
((lp1
(lp2
S'state'
p3
aI0
aa(lp4
S'distance'
p5
aF385.7344207763672
aa(lp6
S'timestamp'
p7
aF0.5653190612792969
aatp8
Rp9
.ccollections
OrderedDict
p0
((lp1
(lp2
S'state'
p3
aI0
aa(lp4
S'distance'
p5
aF385.7344207763672
aa(lp6
S'timestamp'
p7
aF0.5747129917144775
aatp8
Rp9
.ccollections
OrderedDict
p0
((lp1
(lp2
S'state'
p3
aI0
aa(lp4
S'distance'
p5
aF385.7344207763672
aa(lp6
S'timestamp'
p7
aF0.5753519535064697
aatp8
Rp9
.ccollections
OrderedDict
p0
((lp1
(lp2
S'state'
p3
aI0
aa(lp4
S'distance'
p5
aF385.7344207763672
aa(lp6
S'timestamp'
p7
aF0.5847458839416504
aatp8
Rp9
.ccollections
OrderedDict
p0
((lp1
(lp2
S'state'
p3
aI0
aa(lp4
S'distance'
p5
aF385.7344207763672
aa(lp6
S'timestamp'
p7
aF0.5851540565490723
aatp8
Rp9
.ccollections
OrderedDict
p0
((lp1
(lp2
S'state'
p3
aI0
aa(lp4
S'distance'
p5
aF385.7344207763672
aa(lp6
S'timestamp'
p7
aF0.5950210094451904
aatp8
Rp9
.ccollections
OrderedDict
p0
((lp1
(lp2
S'state'
p3
aI0
aa(lp4
S'distance'
p5
aF385.7344207763672
aa(lp6
S'timestamp'
p7
aF0.5951368808746338
aatp8
Rp9
.ccollections
OrderedDict
p0
((lp1
(lp2
S'state'
p3
aI0
aa(lp4
S'distance'
p5
aF385.7344207763672
aa(lp6
S'timestamp'
p7
aF0.604680061340332
aatp8
Rp9
.ccollections
OrderedDict
p0
((lp1
(lp2
S'state'
p3
aI0
aa(lp4
S'distance'
p5
aF385.7344207763672
aa(lp6
S'timestamp'
p7
aF0.6055028438568115
aatp8
Rp9
.ccollections
OrderedDict
p0
((lp1
(lp2
S'state'
p3
aI0
aa(lp4
S'distance'
p5
aF385.7344207763672
aa(lp6
S'timestamp'
p7
aF0.6159069538116455
aatp8
Rp9
.ccollections
OrderedDict
p0
((lp1
(lp2
S'state'
p3
aI0
aa(lp4
S'distance'
p5
aF385.7344207763672
aa(lp6
S'timestamp'
p7
aF0.6162848472595215
aatp8
Rp9
.ccollections
OrderedDict
p0
((lp1
(lp2
S'state'
p3
aI0
aa(lp4
S'distance'
p5
aF385.7344207763672
aa(lp6
S'timestamp'
p7
aF0.6247210502624512
aatp8
Rp9
.ccollections
OrderedDict
p0
((lp1
(lp2
S'state'
p3
aI0
aa(lp4
S'distance'
p5
aF385.7344207763672
aa(lp6
S'timestamp'
p7
aF0.6258080005645752
aatp8
Rp9
.ccollections
OrderedDict
p0
((lp1
(lp2
S'state'
p3
aI0
aa(lp4
S'distance'
p5
aF385.7344207763672
aa(lp6
S'timestamp'
p7
aF0.6346769332885742
aatp8
Rp9
.ccollections
OrderedDict
p0
((lp1
(lp2
S'state'
p3
aI0
aa(lp4
S'distance'
p5
aF385.7344207763672
aa(lp6
S'timestamp'
p7
aF0.6352748870849609
aatp8
Rp9
.ccollections
OrderedDict
p0
((lp1
(lp2
S'state'
p3
aI0
aa(lp4
S'distance'
p5
aF385.7344207763672
aa(lp6
S'timestamp'
p7
aF0.6449899673461914
aatp8
Rp9
.ccollections
OrderedDict
p0
((lp1
(lp2
S'state'
p3
aI0
aa(lp4
S'distance'
p5
aF385.7344207763672
aa(lp6
S'timestamp'
p7
aF0.645503044128418
aatp8
Rp9
.ccollections
OrderedDict
p0
((lp1
(lp2
S'state'
p3
aI0
aa(lp4
S'distance'
p5
aF385.7344207763672
aa(lp6
S'timestamp'
p7
aF0.6647138595581055
aatp8
Rp9
.ccollections
OrderedDict
p0
((lp1
(lp2
S'state'
p3
aI0
aa(lp4
S'distance'
p5
aF385.7344207763672
aa(lp6
S'timestamp'
p7
aF0.6648399829864502
aatp8
Rp9
.ccollections
OrderedDict
p0
((lp1
(lp2
S'state'
p3
aI0
aa(lp4
S'distance'
p5
aF385.7344207763672
aa(lp6
S'timestamp'
p7
aF0.666982889175415
aatp8
Rp9
.ccollections
OrderedDict
p0
((lp1
(lp2
S'state'
p3
aI0
aa(lp4
S'distance'
p5
aF385.7344207763672
aa(lp6
S'timestamp'
p7
aF0.6675419807434082
aatp8
Rp9
.ccollections
OrderedDict
p0
((lp1
(lp2
S'state'
p3
aI0
aa(lp4
S'distance'
p5
aF385.7344207763672
aa(lp6
S'timestamp'
p7
aF0.6748819351196289
aatp8
Rp9
.ccollections
OrderedDict
p0
((lp1
(lp2
S'state'
p3
aI0
aa(lp4
S'distance'
p5
aF385.7344207763672
aa(lp6
S'timestamp'
p7
aF0.6750788688659668
aatp8
Rp9
.ccollections
OrderedDict
p0
((lp1
(lp2
S'state'
p3
aI0
aa(lp4
S'distance'
p5
aF385.7344207763672
aa(lp6
S'timestamp'
p7
aF0.6845989227294922
aatp8
Rp9
.ccollections
OrderedDict
p0
((lp1
(lp2
S'state'
p3
aI0
aa(lp4
S'distance'
p5
aF385.7344207763672
aa(lp6
S'timestamp'
p7
aF0.6851389408111572
aatp8
Rp9
.ccollections
OrderedDict
p0
((lp1
(lp2
S'state'
p3
aI0
aa(lp4
S'distance'
p5
aF385.7344207763672
aa(lp6
S'timestamp'
p7
aF0.6947140693664551
aatp8
Rp9
.ccollections
OrderedDict
p0
((lp1
(lp2
S'state'
p3
aI0
aa(lp4
S'distance'
p5
aF385.7344207763672
aa(lp6
S'timestamp'
p7
aF0.6951470375061035
aatp8
Rp9
.ccollections
OrderedDict
p0
((lp1
(lp2
S'state'
p3
aI0
aa(lp4
S'distance'
p5
aF385.7344207763672
aa(lp6
S'timestamp'
p7
aF0.7046918869018555
aatp8
Rp9
.ccollections
OrderedDict
p0
((lp1
(lp2
S'state'
p3
aI0
aa(lp4
S'distance'
p5
aF385.7344207763672
aa(lp6
S'timestamp'
p7
aF0.7052569389343262
aatp8
Rp9
.ccollections
OrderedDict
p0
((lp1
(lp2
S'state'
p3
aI0
aa(lp4
S'distance'
p5
aF385.7344207763672
aa(lp6
S'timestamp'
p7
aF0.7144880294799805
aatp8
Rp9
.ccollections
OrderedDict
p0
((lp1
(lp2
S'state'
p3
aI0
aa(lp4
S'distance'
p5
aF385.7344207763672
aa(lp6
S'timestamp'
p7
aF0.7151880264282227
aatp8
Rp9
.ccollections
OrderedDict
p0
((lp1
(lp2
S'state'
p3
aI0
aa(lp4
S'distance'
p5
aF385.7344207763672
aa(lp6
S'timestamp'
p7
aF0.7246708869934082
aatp8
Rp9
.ccollections
OrderedDict
p0
((lp1
(lp2
S'state'
p3
aI0
aa(lp4
S'distance'
p5
aF385.7344207763672
aa(lp6
S'timestamp'
p7
aF0.7250969409942627
aatp8
Rp9
.ccollections
OrderedDict
p0
((lp1
(lp2
S'state'
p3
aI0
aa(lp4
S'distance'
p5
aF385.7344207763672
aa(lp6
S'timestamp'
p7
aF0.7347750663757324
aatp8
Rp9
.ccollections
OrderedDict
p0
((lp1
(lp2
S'state'
p3
aI0
aa(lp4
S'distance'
p5
aF385.7344207763672
aa(lp6
S'timestamp'
p7
aF0.7350828647613525
aatp8
Rp9
.ccollections
OrderedDict
p0
((lp1
(lp2
S'state'
p3
aI0
aa(lp4
S'distance'
p5
aF385.7344207763672
aa(lp6
S'timestamp'
p7
aF0.7447319030761719
aatp8
Rp9
.ccollections
OrderedDict
p0
((lp1
(lp2
S'state'
p3
aI0
aa(lp4
S'distance'
p5
aF385.7344207763672
aa(lp6
S'timestamp'
p7
aF0.7451300621032715
aatp8
Rp9
.ccollections
OrderedDict
p0
((lp1
(lp2
S'state'
p3
aI0
aa(lp4
S'distance'
p5
aF385.7344207763672
aa(lp6
S'timestamp'
p7
aF0.7546429634094238
aatp8
Rp9
.ccollections
OrderedDict
p0
((lp1
(lp2
S'state'
p3
aI0
aa(lp4
S'distance'
p5
aF385.7344207763672
aa(lp6
S'timestamp'
p7
aF0.7550549507141113
aatp8
Rp9
.ccollections
OrderedDict
p0
((lp1
(lp2
S'state'
p3
aI0
aa(lp4
S'distance'
p5
aF385.7344207763672
aa(lp6
S'timestamp'
p7
aF0.7646749019622803
aatp8
Rp9
.ccollections
OrderedDict
p0
((lp1
(lp2
S'state'
p3
aI0
aa(lp4
S'distance'
p5
aF385.7344207763672
aa(lp6
S'timestamp'
p7
aF0.76515793800354
aatp8
Rp9
.ccollections
OrderedDict
p0
((lp1
(lp2
S'state'
p3
aI0
aa(lp4
S'distance'
p5
aF385.7344207763672
aa(lp6
S'timestamp'
p7
aF0.7746720314025879
aatp8
Rp9
.ccollections
OrderedDict
p0
((lp1
(lp2
S'state'
p3
aI0
aa(lp4
S'distance'
p5
aF385.7344207763672
aa(lp6
S'timestamp'
p7
aF0.7752509117126465
aatp8
Rp9
.ccollections
OrderedDict
p0
((lp1
(lp2
S'state'
p3
aI0
aa(lp4
S'distance'
p5
aF385.7344207763672
aa(lp6
S'timestamp'
p7
aF0.7847628593444824
aatp8
Rp9
.ccollections
OrderedDict
p0
((lp1
(lp2
S'state'
p3
aI0
aa(lp4
S'distance'
p5
aF385.7344207763672
aa(lp6
S'timestamp'
p7
aF0.785240888595581
aatp8
Rp9
.ccollections
OrderedDict
p0
((lp1
(lp2
S'state'
p3
aI0
aa(lp4
S'distance'
p5
aF385.7344207763672
aa(lp6
S'timestamp'
p7
aF0.7947170734405518
aatp8
Rp9
.ccollections
OrderedDict
p0
((lp1
(lp2
S'state'
p3
aI0
aa(lp4
S'distance'
p5
aF385.7344207763672
aa(lp6
S'timestamp'
p7
aF0.7953288555145264
aatp8
Rp9
.ccollections
OrderedDict
p0
((lp1
(lp2
S'state'
p3
aI0
aa(lp4
S'distance'
p5
aF385.7344207763672
aa(lp6
S'timestamp'
p7
aF0.8045370578765869
aatp8
Rp9
.ccollections
OrderedDict
p0
((lp1
(lp2
S'state'
p3
aI0
aa(lp4
S'distance'
p5
aF385.7344207763672
aa(lp6
S'timestamp'
p7
aF0.8054699897766113
aatp8
Rp9
.ccollections
OrderedDict
p0
((lp1
(lp2
S'state'
p3
aI0
aa(lp4
S'distance'
p5
aF385.7344207763672
aa(lp6
S'timestamp'
p7
aF0.814547061920166
aatp8
Rp9
.ccollections
OrderedDict
p0
((lp1
(lp2
S'state'
p3
aI0
aa(lp4
S'distance'
p5
aF385.7344207763672
aa(lp6
S'timestamp'
p7
aF0.8151760101318359
aatp8
Rp9
.ccollections
OrderedDict
p0
((lp1
(lp2
S'state'
p3
aI0
aa(lp4
S'distance'
p5
aF385.7344207763672
aa(lp6
S'timestamp'
p7
aF0.8245670795440674
aatp8
Rp9
.ccollections
OrderedDict
p0
((lp1
(lp2
S'state'
p3
aI0
aa(lp4
S'distance'
p5
aF385.7344207763672
aa(lp6
S'timestamp'
p7
aF0.8252670764923096
aatp8
Rp9
.ccollections
OrderedDict
p0
((lp1
(lp2
S'state'
p3
aI0
aa(lp4
S'distance'
p5
aF385.7344207763672
aa(lp6
S'timestamp'
p7
aF0.8345458507537842
aatp8
Rp9
.ccollections
OrderedDict
p0
((lp1
(lp2
S'state'
p3
aI0
aa(lp4
S'distance'
p5
aF385.7344207763672
aa(lp6
S'timestamp'
p7
aF0.8352859020233154
aatp8
Rp9
.ccollections
OrderedDict
p0
((lp1
(lp2
S'state'
p3
aI0
aa(lp4
S'distance'
p5
aF385.7344207763672
aa(lp6
S'timestamp'
p7
aF0.8446619510650635
aatp8
Rp9
.ccollections
OrderedDict
p0
((lp1
(lp2
S'state'
p3
aI0
aa(lp4
S'distance'
p5
aF385.7344207763672
aa(lp6
S'timestamp'
p7
aF0.8452529907226562
aatp8
Rp9
.ccollections
OrderedDict
p0
((lp1
(lp2
S'state'
p3
aI0
aa(lp4
S'distance'
p5
aF385.7344207763672
aa(lp6
S'timestamp'
p7
aF0.8547909259796143
aatp8
Rp9
.ccollections
OrderedDict
p0
((lp1
(lp2
S'state'
p3
aI0
aa(lp4
S'distance'
p5
aF385.7344207763672
aa(lp6
S'timestamp'
p7
aF0.8550798892974854
aatp8
Rp9
.ccollections
OrderedDict
p0
((lp1
(lp2
S'state'
p3
aI0
aa(lp4
S'distance'
p5
aF385.7344207763672
aa(lp6
S'timestamp'
p7
aF0.8648738861083984
aatp8
Rp9
.ccollections
OrderedDict
p0
((lp1
(lp2
S'state'
p3
aI0
aa(lp4
S'distance'
p5
aF385.7344207763672
aa(lp6
S'timestamp'
p7
aF0.8651070594787598
aatp8
Rp9
.ccollections
OrderedDict
p0
((lp1
(lp2
S'state'
p3
aI0
aa(lp4
S'distance'
p5
aF385.7344207763672
aa(lp6
S'timestamp'
p7
aF0.8746590614318848
aatp8
Rp9
.ccollections
OrderedDict
p0
((lp1
(lp2
S'state'
p3
aI0
aa(lp4
S'distance'
p5
aF385.7344207763672
aa(lp6
S'timestamp'
p7
aF0.8754410743713379
aatp8
Rp9
.ccollections
OrderedDict
p0
((lp1
(lp2
S'state'
p3
aI0
aa(lp4
S'distance'
p5
aF385.7344207763672
aa(lp6
S'timestamp'
p7
aF0.8846619129180908
aatp8
Rp9
.ccollections
OrderedDict
p0
((lp1
(lp2
S'state'
p3
aI0
aa(lp4
S'distance'
p5
aF385.7344207763672
aa(lp6
S'timestamp'
p7
aF0.885127067565918
aatp8
Rp9
.ccollections
OrderedDict
p0
((lp1
(lp2
S'state'
p3
aI0
aa(lp4
S'distance'
p5
aF385.7344207763672
aa(lp6
S'timestamp'
p7
aF0.8948309421539307
aatp8
Rp9
.ccollections
OrderedDict
p0
((lp1
(lp2
S'state'
p3
aI0
aa(lp4
S'distance'
p5
aF385.7344207763672
aa(lp6
S'timestamp'
p7
aF0.8949680328369141
aatp8
Rp9
.ccollections
OrderedDict
p0
((lp1
(lp2
S'state'
p3
aI0
aa(lp4
S'distance'
p5
aF385.7344207763672
aa(lp6
S'timestamp'
p7
aF0.9046590328216553
aatp8
Rp9
.ccollections
OrderedDict
p0
((lp1
(lp2
S'state'
p3
aI0
aa(lp4
S'distance'
p5
aF385.7344207763672
aa(lp6
S'timestamp'
p7
aF0.9050228595733643
aatp8
Rp9
.ccollections
OrderedDict
p0
((lp1
(lp2
S'state'
p3
aI0
aa(lp4
S'distance'
p5
aF385.7344207763672
aa(lp6
S'timestamp'
p7
aF0.9147019386291504
aatp8
Rp9
.ccollections
OrderedDict
p0
((lp1
(lp2
S'state'
p3
aI0
aa(lp4
S'distance'
p5
aF385.7344207763672
aa(lp6
S'timestamp'
p7
aF0.9151630401611328
aatp8
Rp9
.ccollections
OrderedDict
p0
((lp1
(lp2
S'state'
p3
aI0
aa(lp4
S'distance'
p5
aF385.7344207763672
aa(lp6
S'timestamp'
p7
aF0.9247560501098633
aatp8
Rp9
.ccollections
OrderedDict
p0
((lp1
(lp2
S'state'
p3
aI0
aa(lp4
S'distance'
p5
aF385.7344207763672
aa(lp6
S'timestamp'
p7
aF0.9251599311828613
aatp8
Rp9
.ccollections
OrderedDict
p0
((lp1
(lp2
S'state'
p3
aI0
aa(lp4
S'distance'
p5
aF385.7344207763672
aa(lp6
S'timestamp'
p7
aF0.9447338581085205
aatp8
Rp9
.ccollections
OrderedDict
p0
((lp1
(lp2
S'state'
p3
aI0
aa(lp4
S'distance'
p5
aF385.7344207763672
aa(lp6
S'timestamp'
p7
aF0.9452328681945801
aatp8
Rp9
.ccollections
OrderedDict
p0
((lp1
(lp2
S'state'
p3
aI0
aa(lp4
S'distance'
p5
aF385.7344207763672
aa(lp6
S'timestamp'
p7
aF0.9471650123596191
aatp8
Rp9
.ccollections
OrderedDict
p0
((lp1
(lp2
S'state'
p3
aI0
aa(lp4
S'distance'
p5
aF385.7344207763672
aa(lp6
S'timestamp'
p7
aF0.9478740692138672
aatp8
Rp9
.ccollections
OrderedDict
p0
((lp1
(lp2
S'state'
p3
aI0
aa(lp4
S'distance'
p5
aF385.7344207763672
aa(lp6
S'timestamp'
p7
aF0.9544088840484619
aatp8
Rp9
.ccollections
OrderedDict
p0
((lp1
(lp2
S'state'
p3
aI0
aa(lp4
S'distance'
p5
aF385.7344207763672
aa(lp6
S'timestamp'
p7
aF0.9551999568939209
aatp8
Rp9
.ccollections
OrderedDict
p0
((lp1
(lp2
S'state'
p3
aI0
aa(lp4
S'distance'
p5
aF385.7344207763672
aa(lp6
S'timestamp'
p7
aF0.9645719528198242
aatp8
Rp9
.ccollections
OrderedDict
p0
((lp1
(lp2
S'state'
p3
aI0
aa(lp4
S'distance'
p5
aF385.7344207763672
aa(lp6
S'timestamp'
p7
aF0.965034008026123
aatp8
Rp9
.ccollections
OrderedDict
p0
((lp1
(lp2
S'state'
p3
aI0
aa(lp4
S'distance'
p5
aF385.7344207763672
aa(lp6
S'timestamp'
p7
aF0.9746088981628418
aatp8
Rp9
.ccollections
OrderedDict
p0
((lp1
(lp2
S'state'
p3
aI0
aa(lp4
S'distance'
p5
aF385.7344207763672
aa(lp6
S'timestamp'
p7
aF0.9750950336456299
aatp8
Rp9
.ccollections
OrderedDict
p0
((lp1
(lp2
S'state'
p3
aI0
aa(lp4
S'distance'
p5
aF385.7344207763672
aa(lp6
S'timestamp'
p7
aF0.9843699932098389
aatp8
Rp9
.ccollections
OrderedDict
p0
((lp1
(lp2
S'state'
p3
aI0
aa(lp4
S'distance'
p5
aF385.7344207763672
aa(lp6
S'timestamp'
p7
aF0.9851889610290527
aatp8
Rp9
.ccollections
OrderedDict
p0
((lp1
(lp2
S'state'
p3
aI0
aa(lp4
S'distance'
p5
aF385.7344207763672
aa(lp6
S'timestamp'
p7
aF0.9945650100708008
aatp8
Rp9
.ccollections
OrderedDict
p0
((lp1
(lp2
S'state'
p3
aI0
aa(lp4
S'distance'
p5
aF385.7344207763672
aa(lp6
S'timestamp'
p7
aF0.9950230121612549
aatp8
Rp9
.ccollections
OrderedDict
p0
((lp1
(lp2
S'state'
p3
aI0
aa(lp4
S'distance'
p5
aF385.7344207763672
aa(lp6
S'timestamp'
p7
aF1.0048940181732178
aatp8
Rp9
.ccollections
OrderedDict
p0
((lp1
(lp2
S'state'
p3
aI0
aa(lp4
S'distance'
p5
aF385.7344207763672
aa(lp6
S'timestamp'
p7
aF1.0050389766693115
aatp8
Rp9
.ccollections
OrderedDict
p0
((lp1
(lp2
S'state'
p3
aI0
aa(lp4
S'distance'
p5
aF385.7344207763672
aa(lp6
S'timestamp'
p7
aF1.0146470069885254
aatp8
Rp9
.ccollections
OrderedDict
p0
((lp1
(lp2
S'state'
p3
aI0
aa(lp4
S'distance'
p5
aF385.7344207763672
aa(lp6
S'timestamp'
p7
aF1.0150048732757568
aatp8
Rp9
.ccollections
OrderedDict
p0
((lp1
(lp2
S'state'
p3
aI0
aa(lp4
S'distance'
p5
aF385.7344207763672
aa(lp6
S'timestamp'
p7
aF1.034708023071289
aatp8
Rp9
.ccollections
OrderedDict
p0
((lp1
(lp2
S'state'
p3
aI0
aa(lp4
S'distance'
p5
aF385.7344207763672
aa(lp6
S'timestamp'
p7
aF1.0351650714874268
aatp8
Rp9
.ccollections
OrderedDict
p0
((lp1
(lp2
S'state'
p3
aI0
aa(lp4
S'distance'
p5
aF385.7344207763672
aa(lp6
S'timestamp'
p7
aF1.037904977798462
aatp8
Rp9
.ccollections
OrderedDict
p0
((lp1
(lp2
S'state'
p3
aI0
aa(lp4
S'distance'
p5
aF385.7344207763672
aa(lp6
S'timestamp'
p7
aF1.0384230613708496
aatp8
Rp9
.ccollections
OrderedDict
p0
((lp1
(lp2
S'state'
p3
aI0
aa(lp4
S'distance'
p5
aF385.7344207763672
aa(lp6
S'timestamp'
p7
aF1.0451960563659668
aatp8
Rp9
.ccollections
OrderedDict
p0
((lp1
(lp2
S'state'
p3
aI0
aa(lp4
S'distance'
p5
aF385.7344207763672
aa(lp6
S'timestamp'
p7
aF1.0453588962554932
aatp8
Rp9
.ccollections
OrderedDict
p0
((lp1
(lp2
S'state'
p3
aI0
aa(lp4
S'distance'
p5
aF385.7344207763672
aa(lp6
S'timestamp'
p7
aF1.0545859336853027
aatp8
Rp9
.ccollections
OrderedDict
p0
((lp1
(lp2
S'state'
p3
aI0
aa(lp4
S'distance'
p5
aF385.7344207763672
aa(lp6
S'timestamp'
p7
aF1.055021047592163
aatp8
Rp9
.ccollections
OrderedDict
p0
((lp1
(lp2
S'state'
p3
aI0
aa(lp4
S'distance'
p5
aF385.7344207763672
aa(lp6
S'timestamp'
p7
aF1.064842939376831
aatp8
Rp9
.ccollections
OrderedDict
p0
((lp1
(lp2
S'state'
p3
aI0
aa(lp4
S'distance'
p5
aF385.7344207763672
aa(lp6
S'timestamp'
p7
aF1.0651910305023193
aatp8
Rp9
.ccollections
OrderedDict
p0
((lp1
(lp2
S'state'
p3
aI0
aa(lp4
S'distance'
p5
aF385.7344207763672
aa(lp6
S'timestamp'
p7
aF1.0748319625854492
aatp8
Rp9
.ccollections
OrderedDict
p0
((lp1
(lp2
S'state'
p3
aI0
aa(lp4
S'distance'
p5
aF385.7344207763672
aa(lp6
S'timestamp'
p7
aF1.0752968788146973
aatp8
Rp9
.ccollections
OrderedDict
p0
((lp1
(lp2
S'state'
p3
aI0
aa(lp4
S'distance'
p5
aF385.7344207763672
aa(lp6
S'timestamp'
p7
aF1.084831953048706
aatp8
Rp9
.ccollections
OrderedDict
p0
((lp1
(lp2
S'state'
p3
aI0
aa(lp4
S'distance'
p5
aF385.7344207763672
aa(lp6
S'timestamp'
p7
aF1.085000991821289
aatp8
Rp9
.ccollections
OrderedDict
p0
((lp1
(lp2
S'state'
p3
aI0
aa(lp4
S'distance'
p5
aF385.7344207763672
aa(lp6
S'timestamp'
p7
aF1.0947909355163574
aatp8
Rp9
.ccollections
OrderedDict
p0
((lp1
(lp2
S'state'
p3
aI0
aa(lp4
S'distance'
p5
aF385.7344207763672
aa(lp6
S'timestamp'
p7
aF1.0952489376068115
aatp8
Rp9
.ccollections
OrderedDict
p0
((lp1
(lp2
S'state'
p3
aI0
aa(lp4
S'distance'
p5
aF385.7344207763672
aa(lp6
S'timestamp'
p7
aF1.1047499179840088
aatp8
Rp9
.ccollections
OrderedDict
p0
((lp1
(lp2
S'state'
p3
aI0
aa(lp4
S'distance'
p5
aF385.7344207763672
aa(lp6
S'timestamp'
p7
aF1.1050679683685303
aatp8
Rp9
.ccollections
OrderedDict
p0
((lp1
(lp2
S'state'
p3
aI0
aa(lp4
S'distance'
p5
aF385.7344207763672
aa(lp6
S'timestamp'
p7
aF1.1145079135894775
aatp8
Rp9
.ccollections
OrderedDict
p0
((lp1
(lp2
S'state'
p3
aI0
aa(lp4
S'distance'
p5
aF385.7344207763672
aa(lp6
S'timestamp'
p7
aF1.1162259578704834
aatp8
Rp9
.ccollections
OrderedDict
p0
((lp1
(lp2
S'state'
p3
aI0
aa(lp4
S'distance'
p5
aF385.7344207763672
aa(lp6
S'timestamp'
p7
aF1.1248729228973389
aatp8
Rp9
.ccollections
OrderedDict
p0
((lp1
(lp2
S'state'
p3
aI0
aa(lp4
S'distance'
p5
aF385.7344207763672
aa(lp6
S'timestamp'
p7
aF1.1250050067901611
aatp8
Rp9
.ccollections
OrderedDict
p0
((lp1
(lp2
S'state'
p3
aI0
aa(lp4
S'distance'
p5
aF385.7344207763672
aa(lp6
S'timestamp'
p7
aF1.134464979171753
aatp8
Rp9
.ccollections
OrderedDict
p0
((lp1
(lp2
S'state'
p3
aI0
aa(lp4
S'distance'
p5
aF385.7344207763672
aa(lp6
S'timestamp'
p7
aF1.1351330280303955
aatp8
Rp9
.ccollections
OrderedDict
p0
((lp1
(lp2
S'state'
p3
aI0
aa(lp4
S'distance'
p5
aF385.7344207763672
aa(lp6
S'timestamp'
p7
aF1.1445119380950928
aatp8
Rp9
.ccollections
OrderedDict
p0
((lp1
(lp2
S'state'
p3
aI0
aa(lp4
S'distance'
p5
aF385.7344207763672
aa(lp6
S'timestamp'
p7
aF1.1451280117034912
aatp8
Rp9
.ccollections
OrderedDict
p0
((lp1
(lp2
S'state'
p3
aI0
aa(lp4
S'distance'
p5
aF385.7344207763672
aa(lp6
S'timestamp'
p7
aF1.1546869277954102
aatp8
Rp9
.ccollections
OrderedDict
p0
((lp1
(lp2
S'state'
p3
aI0
aa(lp4
S'distance'
p5
aF385.7344207763672
aa(lp6
S'timestamp'
p7
aF1.1645638942718506
aatp8
Rp9
.ccollections
OrderedDict
p0
((lp1
(lp2
S'state'
p3
aI0
aa(lp4
S'distance'
p5
aF385.7344207763672
aa(lp6
S'timestamp'
p7
aF1.165092945098877
aatp8
Rp9
.ccollections
OrderedDict
p0
((lp1
(lp2
S'state'
p3
aI0
aa(lp4
S'distance'
p5
aF385.7344207763672
aa(lp6
S'timestamp'
p7
aF1.165626049041748
aatp8
Rp9
.ccollections
OrderedDict
p0
((lp1
(lp2
S'state'
p3
aI0
aa(lp4
S'distance'
p5
aF385.7344207763672
aa(lp6
S'timestamp'
p7
aF1.174785852432251
aatp8
Rp9
.ccollections
OrderedDict
p0
((lp1
(lp2
S'state'
p3
aI0
aa(lp4
S'distance'
p5
aF385.7344207763672
aa(lp6
S'timestamp'
p7
aF1.1756010055541992
aatp8
Rp9
.ccollections
OrderedDict
p0
((lp1
(lp2
S'state'
p3
aI0
aa(lp4
S'distance'
p5
aF385.7344207763672
aa(lp6
S'timestamp'
p7
aF1.1848368644714355
aatp8
Rp9
.ccollections
OrderedDict
p0
((lp1
(lp2
S'state'
p3
aI0
aa(lp4
S'distance'
p5
aF385.7344207763672
aa(lp6
S'timestamp'
p7
aF1.1852788925170898
aatp8
Rp9
.ccollections
OrderedDict
p0
((lp1
(lp2
S'state'
p3
aI0
aa(lp4
S'distance'
p5
aF385.7344207763672
aa(lp6
S'timestamp'
p7
aF1.1945068836212158
aatp8
Rp9
.ccollections
OrderedDict
p0
((lp1
(lp2
S'state'
p3
aI0
aa(lp4
S'distance'
p5
aF385.7344207763672
aa(lp6
S'timestamp'
p7
aF1.1953599452972412
aatp8
Rp9
.ccollections
OrderedDict
p0
((lp1
(lp2
S'state'
p3
aI0
aa(lp4
S'distance'
p5
aF385.7344207763672
aa(lp6
S'timestamp'
p7
aF1.2049620151519775
aatp8
Rp9
.ccollections
OrderedDict
p0
((lp1
(lp2
S'state'
p3
aI0
aa(lp4
S'distance'
p5
aF385.7344207763672
aa(lp6
S'timestamp'
p7
aF1.2052578926086426
aatp8
Rp9
.ccollections
OrderedDict
p0
((lp1
(lp2
S'state'
p3
aI0
aa(lp4
S'distance'
p5
aF385.7344207763672
aa(lp6
S'timestamp'
p7
aF1.2146830558776855
aatp8
Rp9
.ccollections
OrderedDict
p0
((lp1
(lp2
S'state'
p3
aI0
aa(lp4
S'distance'
p5
aF385.7344207763672
aa(lp6
S'timestamp'
p7
aF1.215306043624878
aatp8
Rp9
.ccollections
OrderedDict
p0
((lp1
(lp2
S'state'
p3
aI0
aa(lp4
S'distance'
p5
aF385.7344207763672
aa(lp6
S'timestamp'
p7
aF1.2247068881988525
aatp8
Rp9
.ccollections
OrderedDict
p0
((lp1
(lp2
S'state'
p3
aI0
aa(lp4
S'distance'
p5
aF385.7344207763672
aa(lp6
S'timestamp'
p7
aF1.2251060009002686
aatp8
Rp9
.ccollections
OrderedDict
p0
((lp1
(lp2
S'state'
p3
aI0
aa(lp4
S'distance'
p5
aF385.7344207763672
aa(lp6
S'timestamp'
p7
aF1.2346858978271484
aatp8
Rp9
.ccollections
OrderedDict
p0
((lp1
(lp2
S'state'
p3
aI0
aa(lp4
S'distance'
p5
aF385.7344207763672
aa(lp6
S'timestamp'
p7
aF1.2351548671722412
aatp8
Rp9
.ccollections
OrderedDict
p0
((lp1
(lp2
S'state'
p3
aI0
aa(lp4
S'distance'
p5
aF385.7344207763672
aa(lp6
S'timestamp'
p7
aF1.2444958686828613
aatp8
Rp9
.ccollections
OrderedDict
p0
((lp1
(lp2
S'state'
p3
aI0
aa(lp4
S'distance'
p5
aF385.7344207763672
aa(lp6
S'timestamp'
p7
aF1.2453980445861816
aatp8
Rp9
.ccollections
OrderedDict
p0
((lp1
(lp2
S'state'
p3
aI0
aa(lp4
S'distance'
p5
aF385.7344207763672
aa(lp6
S'timestamp'
p7
aF1.2550129890441895
aatp8
Rp9
.ccollections
OrderedDict
p0
((lp1
(lp2
S'state'
p3
aI0
aa(lp4
S'distance'
p5
aF385.7344207763672
aa(lp6
S'timestamp'
p7
aF1.2551000118255615
aatp8
Rp9
.ccollections
OrderedDict
p0
((lp1
(lp2
S'state'
p3
aI0
aa(lp4
S'distance'
p5
aF385.7344207763672
aa(lp6
S'timestamp'
p7
aF1.2651069164276123
aatp8
Rp9
.ccollections
OrderedDict
p0
((lp1
(lp2
S'state'
p3
aI0
aa(lp4
S'distance'
p5
aF385.7344207763672
aa(lp6
S'timestamp'
p7
aF1.265186071395874
aatp8
Rp9
.ccollections
OrderedDict
p0
((lp1
(lp2
S'state'
p3
aI0
aa(lp4
S'distance'
p5
aF385.7344207763672
aa(lp6
S'timestamp'
p7
aF1.2747509479522705
aatp8
Rp9
.ccollections
OrderedDict
p0
((lp1
(lp2
S'state'
p3
aI0
aa(lp4
S'distance'
p5
aF385.7344207763672
aa(lp6
S'timestamp'
p7
aF1.275282859802246
aatp8
Rp9
.ccollections
OrderedDict
p0
((lp1
(lp2
S'state'
p3
aI0
aa(lp4
S'distance'
p5
aF385.7344207763672
aa(lp6
S'timestamp'
p7
aF1.284693956375122
aatp8
Rp9
.ccollections
OrderedDict
p0
((lp1
(lp2
S'state'
p3
aI0
aa(lp4
S'distance'
p5
aF385.7344207763672
aa(lp6
S'timestamp'
p7
aF1.285412073135376
aatp8
Rp9
.ccollections
OrderedDict
p0
((lp1
(lp2
S'state'
p3
aI0
aa(lp4
S'distance'
p5
aF385.7344207763672
aa(lp6
S'timestamp'
p7
aF1.3147130012512207
aatp8
Rp9
.ccollections
OrderedDict
p0
((lp1
(lp2
S'state'
p3
aI0
aa(lp4
S'distance'
p5
aF385.7344207763672
aa(lp6
S'timestamp'
p7
aF1.3150880336761475
aatp8
Rp9
.ccollections
OrderedDict
p0
((lp1
(lp2
S'state'
p3
aI0
aa(lp4
S'distance'
p5
aF385.7344207763672
aa(lp6
S'timestamp'
p7
aF1.3164830207824707
aatp8
Rp9
.ccollections
OrderedDict
p0
((lp1
(lp2
S'state'
p3
aI0
aa(lp4
S'distance'
p5
aF385.7344207763672
aa(lp6
S'timestamp'
p7
aF1.316565990447998
aatp8
Rp9
.ccollections
OrderedDict
p0
((lp1
(lp2
S'state'
p3
aI0
aa(lp4
S'distance'
p5
aF385.7344207763672
aa(lp6
S'timestamp'
p7
aF1.325011968612671
aatp8
Rp9
.ccollections
OrderedDict
p0
((lp1
(lp2
S'state'
p3
aI0
aa(lp4
S'distance'
p5
aF385.7344207763672
aa(lp6
S'timestamp'
p7
aF1.3250999450683594
aatp8
Rp9
.ccollections
OrderedDict
p0
((lp1
(lp2
S'state'
p3
aI0
aa(lp4
S'distance'
p5
aF385.7344207763672
aa(lp6
S'timestamp'
p7
aF1.3256568908691406
aatp8
Rp9
.ccollections
OrderedDict
p0
((lp1
(lp2
S'state'
p3
aI0
aa(lp4
S'distance'
p5
aF385.7344207763672
aa(lp6
S'timestamp'
p7
aF1.3260838985443115
aatp8
Rp9
.ccollections
OrderedDict
p0
((lp1
(lp2
S'state'
p3
aI0
aa(lp4
S'distance'
p5
aF385.7344207763672
aa(lp6
S'timestamp'
p7
aF1.3346810340881348
aatp8
Rp9
.ccollections
OrderedDict
p0
((lp1
(lp2
S'state'
p3
aI0
aa(lp4
S'distance'
p5
aF385.7344207763672
aa(lp6
S'timestamp'
p7
aF1.3352079391479492
aatp8
Rp9
.ccollections
OrderedDict
p0
((lp1
(lp2
S'state'
p3
aI0
aa(lp4
S'distance'
p5
aF385.7344207763672
aa(lp6
S'timestamp'
p7
aF1.3447868824005127
aatp8
Rp9
.ccollections
OrderedDict
p0
((lp1
(lp2
S'state'
p3
aI0
aa(lp4
S'distance'
p5
aF385.7344207763672
aa(lp6
S'timestamp'
p7
aF1.345202922821045
aatp8
Rp9
.ccollections
OrderedDict
p0
((lp1
(lp2
S'state'
p3
aI0
aa(lp4
S'distance'
p5
aF385.7344207763672
aa(lp6
S'timestamp'
p7
aF1.3548519611358643
aatp8
Rp9
.ccollections
OrderedDict
p0
((lp1
(lp2
S'state'
p3
aI0
aa(lp4
S'distance'
p5
aF385.7344207763672
aa(lp6
S'timestamp'
p7
aF1.355259895324707
aatp8
Rp9
.ccollections
OrderedDict
p0
((lp1
(lp2
S'state'
p3
aI0
aa(lp4
S'distance'
p5
aF385.7344207763672
aa(lp6
S'timestamp'
p7
aF1.375035047531128
aatp8
Rp9
.ccollections
OrderedDict
p0
((lp1
(lp2
S'state'
p3
aI0
aa(lp4
S'distance'
p5
aF385.7344207763672
aa(lp6
S'timestamp'
p7
aF1.3751230239868164
aatp8
Rp9
.ccollections
OrderedDict
p0
((lp1
(lp2
S'state'
p3
aI0
aa(lp4
S'distance'
p5
aF385.7344207763672
aa(lp6
S'timestamp'
p7
aF1.3777668476104736
aatp8
Rp9
.ccollections
OrderedDict
p0
((lp1
(lp2
S'state'
p3
aI0
aa(lp4
S'distance'
p5
aF385.7344207763672
aa(lp6
S'timestamp'
p7
aF1.3779058456420898
aatp8
Rp9
.ccollections
OrderedDict
p0
((lp1
(lp2
S'state'
p3
aI0
aa(lp4
S'distance'
p5
aF385.7344207763672
aa(lp6
S'timestamp'
p7
aF1.384680986404419
aatp8
Rp9
.ccollections
OrderedDict
p0
((lp1
(lp2
S'state'
p3
aI0
aa(lp4
S'distance'
p5
aF385.7344207763672
aa(lp6
S'timestamp'
p7
aF1.385148048400879
aatp8
Rp9
.ccollections
OrderedDict
p0
((lp1
(lp2
S'state'
p3
aI0
aa(lp4
S'distance'
p5
aF385.7344207763672
aa(lp6
S'timestamp'
p7
aF1.3945138454437256
aatp8
Rp9
.ccollections
OrderedDict
p0
((lp1
(lp2
S'state'
p3
aI0
aa(lp4
S'distance'
p5
aF385.7344207763672
aa(lp6
S'timestamp'
p7
aF1.3954238891601562
aatp8
Rp9
.ccollections
OrderedDict
p0
((lp1
(lp2
S'state'
p3
aI0
aa(lp4
S'distance'
p5
aF385.7344207763672
aa(lp6
S'timestamp'
p7
aF1.4046850204467773
aatp8
Rp9
.ccollections
OrderedDict
p0
((lp1
(lp2
S'state'
p3
aI0
aa(lp4
S'distance'
p5
aF385.7344207763672
aa(lp6
S'timestamp'
p7
aF1.4053220748901367
aatp8
Rp9
.ccollections
OrderedDict
p0
((lp1
(lp2
S'state'
p3
aI0
aa(lp4
S'distance'
p5
aF385.7344207763672
aa(lp6
S'timestamp'
p7
aF1.4145359992980957
aatp8
Rp9
.ccollections
OrderedDict
p0
((lp1
(lp2
S'state'
p3
aI0
aa(lp4
S'distance'
p5
aF385.7344207763672
aa(lp6
S'timestamp'
p7
aF1.4151320457458496
aatp8
Rp9
.ccollections
OrderedDict
p0
((lp1
(lp2
S'state'
p3
aI0
aa(lp4
S'distance'
p5
aF385.7344207763672
aa(lp6
S'timestamp'
p7
aF1.4245798587799072
aatp8
Rp9
.ccollections
OrderedDict
p0
((lp1
(lp2
S'state'
p3
aI400
aa(lp4
S'distance'
p5
aF385.7344207763672
aa(lp6
S'timestamp'
p7
aF1.4254920482635498
aatp8
Rp9
.ccollections
OrderedDict
p0
((lp1
(lp2
S'state'
p3
aI400
aa(lp4
S'distance'
p5
aF385.7344207763672
aa(lp6
S'timestamp'
p7
aF1.4347169399261475
aatp8
Rp9
.ccollections
OrderedDict
p0
((lp1
(lp2
S'state'
p3
aI400
aa(lp4
S'distance'
p5
aF385.7344207763672
aa(lp6
S'timestamp'
p7
aF1.4351630210876465
aatp8
Rp9
.ccollections
OrderedDict
p0
((lp1
(lp2
S'state'
p3
aI400
aa(lp4
S'distance'
p5
aF385.7344207763672
aa(lp6
S'timestamp'
p7
aF1.4648239612579346
aatp8
Rp9
.ccollections
OrderedDict
p0
((lp1
(lp2
S'state'
p3
aI400
aa(lp4
S'distance'
p5
aF385.7344207763672
aa(lp6
S'timestamp'
p7
aF1.4656598567962646
aatp8
Rp9
.ccollections
OrderedDict
p0
((lp1
(lp2
S'state'
p3
aI400
aa(lp4
S'distance'
p5
aF385.7344207763672
aa(lp6
S'timestamp'
p7
aF1.4674980640411377
aatp8
Rp9
.ccollections
OrderedDict
p0
((lp1
(lp2
S'state'
p3
aI400
aa(lp4
S'distance'
p5
aF385.7344207763672
aa(lp6
S'timestamp'
p7
aF1.474626064300537
aatp8
Rp9
.ccollections
OrderedDict
p0
((lp1
(lp2
S'state'
p3
aI400
aa(lp4
S'distance'
p5
aF385.7344207763672
aa(lp6
S'timestamp'
p7
aF1.4751598834991455
aatp8
Rp9
.ccollections
OrderedDict
p0
((lp1
(lp2
S'state'
p3
aI400
aa(lp4
S'distance'
p5
aF385.7344207763672
aa(lp6
S'timestamp'
p7
aF1.4754459857940674
aatp8
Rp9
.ccollections
OrderedDict
p0
((lp1
(lp2
S'state'
p3
aI400
aa(lp4
S'distance'
p5
aF385.7344207763672
aa(lp6
S'timestamp'
p7
aF1.4761369228363037
aatp8
Rp9
.ccollections
OrderedDict
p0
((lp1
(lp2
S'state'
p3
aI400
aa(lp4
S'distance'
p5
aF385.7344207763672
aa(lp6
S'timestamp'
p7
aF1.484570026397705
aatp8
Rp9
.ccollections
OrderedDict
p0
((lp1
(lp2
S'state'
p3
aI400
aa(lp4
S'distance'
p5
aF385.7344207763672
aa(lp6
S'timestamp'
p7
aF1.4849979877471924
aatp8
Rp9
.ccollections
OrderedDict
p0
((lp1
(lp2
S'state'
p3
aI400
aa(lp4
S'distance'
p5
aF385.7344207763672
aa(lp6
S'timestamp'
p7
aF1.4864189624786377
aatp8
Rp9
.ccollections
OrderedDict
p0
((lp1
(lp2
S'state'
p3
aI400
aa(lp4
S'distance'
p5
aF385.7344207763672
aa(lp6
S'timestamp'
p7
aF1.4953360557556152
aatp8
Rp9
.ccollections
OrderedDict
p0
((lp1
(lp2
S'state'
p3
aI400
aa(lp4
S'distance'
p5
aF385.7344207763672
aa(lp6
S'timestamp'
p7
aF1.4954960346221924
aatp8
Rp9
.ccollections
OrderedDict
p0
((lp1
(lp2
S'state'
p3
aI400
aa(lp4
S'distance'
p5
aF385.7344207763672
aa(lp6
S'timestamp'
p7
aF1.505094051361084
aatp8
Rp9
.ccollections
OrderedDict
p0
((lp1
(lp2
S'state'
p3
aI400
aa(lp4
S'distance'
p5
aF385.7344207763672
aa(lp6
S'timestamp'
p7
aF1.5051839351654053
aatp8
Rp9
.ccollections
OrderedDict
p0
((lp1
(lp2
S'state'
p3
aI400
aa(lp4
S'distance'
p5
aF385.7344207763672
aa(lp6
S'timestamp'
p7
aF1.5147008895874023
aatp8
Rp9
.ccollections
OrderedDict
p0
((lp1
(lp2
S'state'
p3
aI400
aa(lp4
S'distance'
p5
aF385.7344207763672
aa(lp6
S'timestamp'
p7
aF1.5151419639587402
aatp8
Rp9
.ccollections
OrderedDict
p0
((lp1
(lp2
S'state'
p3
aI400
aa(lp4
S'distance'
p5
aF385.7344207763672
aa(lp6
S'timestamp'
p7
aF1.524857997894287
aatp8
Rp9
.ccollections
OrderedDict
p0
((lp1
(lp2
S'state'
p3
aI400
aa(lp4
S'distance'
p5
aF385.7344207763672
aa(lp6
S'timestamp'
p7
aF1.5348858833312988
aatp8
Rp9
.ccollections
OrderedDict
p0
((lp1
(lp2
S'state'
p3
aI400
aa(lp4
S'distance'
p5
aF385.7344207763672
aa(lp6
S'timestamp'
p7
aF1.5353519916534424
aatp8
Rp9
.ccollections
OrderedDict
p0
((lp1
(lp2
S'state'
p3
aI400
aa(lp4
S'distance'
p5
aF385.7344207763672
aa(lp6
S'timestamp'
p7
aF1.5367369651794434
aatp8
Rp9
.ccollections
OrderedDict
p0
((lp1
(lp2
S'state'
p3
aI400
aa(lp4
S'distance'
p5
aF385.7344207763672
aa(lp6
S'timestamp'
p7
aF1.5446538925170898
aatp8
Rp9
.ccollections
OrderedDict
p0
((lp1
(lp2
S'state'
p3
aI400
aa(lp4
S'distance'
p5
aF385.7344207763672
aa(lp6
S'timestamp'
p7
aF1.5452139377593994
aatp8
Rp9
.ccollections
OrderedDict
p0
((lp1
(lp2
S'state'
p3
aI400
aa(lp4
S'distance'
p5
aF385.7344207763672
aa(lp6
S'timestamp'
p7
aF1.554995059967041
aatp8
Rp9
.ccollections
OrderedDict
p0
((lp1
(lp2
S'state'
p3
aI400
aa(lp4
S'distance'
p5
aF385.7344207763672
aa(lp6
S'timestamp'
p7
aF1.555129051208496
aatp8
Rp9
.ccollections
OrderedDict
p0
((lp1
(lp2
S'state'
p3
aI400
aa(lp4
S'distance'
p5
aF385.7344207763672
aa(lp6
S'timestamp'
p7
aF1.564863920211792
aatp8
Rp9
.ccollections
OrderedDict
p0
((lp1
(lp2
S'state'
p3
aI400
aa(lp4
S'distance'
p5
aF385.7344207763672
aa(lp6
S'timestamp'
p7
aF1.5651919841766357
aatp8
Rp9
.ccollections
OrderedDict
p0
((lp1
(lp2
S'state'
p3
aI400
aa(lp4
S'distance'
p5
aF385.7344207763672
aa(lp6
S'timestamp'
p7
aF1.5764708518981934
aatp8
Rp9
.ccollections
OrderedDict
p0
((lp1
(lp2
S'state'
p3
aI400
aa(lp4
S'distance'
p5
aF385.7344207763672
aa(lp6
S'timestamp'
p7
aF1.5774919986724854
aatp8
Rp9
.ccollections
OrderedDict
p0
((lp1
(lp2
S'state'
p3
aI400
aa(lp4
S'distance'
p5
aF385.7344207763672
aa(lp6
S'timestamp'
p7
aF1.5846550464630127
aatp8
Rp9
.ccollections
OrderedDict
p0
((lp1
(lp2
S'state'
p3
aI400
aa(lp4
S'distance'
p5
aF385.7344207763672
aa(lp6
S'timestamp'
p7
aF1.5852489471435547
aatp8
Rp9
.ccollections
OrderedDict
p0
((lp1
(lp2
S'state'
p3
aI400
aa(lp4
S'distance'
p5
aF385.7344207763672
aa(lp6
S'timestamp'
p7
aF1.5946710109710693
aatp8
Rp9
.ccollections
OrderedDict
p0
((lp1
(lp2
S'state'
p3
aI400
aa(lp4
S'distance'
p5
aF385.7344207763672
aa(lp6
S'timestamp'
p7
aF1.5951659679412842
aatp8
Rp9
.ccollections
OrderedDict
p0
((lp1
(lp2
S'state'
p3
aI400
aa(lp4
S'distance'
p5
aF385.7344207763672
aa(lp6
S'timestamp'
p7
aF1.604853868484497
aatp8
Rp9
.ccollections
OrderedDict
p0
((lp1
(lp2
S'state'
p3
aI400
aa(lp4
S'distance'
p5
aF385.7344207763672
aa(lp6
S'timestamp'
p7
aF1.605259895324707
aatp8
Rp9
.ccollections
OrderedDict
p0
((lp1
(lp2
S'state'
p3
aI400
aa(lp4
S'distance'
p5
aF385.7344207763672
aa(lp6
S'timestamp'
p7
aF1.6145920753479004
aatp8
Rp9
.ccollections
OrderedDict
p0
((lp1
(lp2
S'state'
p3
aI400
aa(lp4
S'distance'
p5
aF385.7344207763672
aa(lp6
S'timestamp'
p7
aF1.615339994430542
aatp8
Rp9
.ccollections
OrderedDict
p0
((lp1
(lp2
S'state'
p3
aI400
aa(lp4
S'distance'
p5
aF385.7344207763672
aa(lp6
S'timestamp'
p7
aF1.624682903289795
aatp8
Rp9
.ccollections
OrderedDict
p0
((lp1
(lp2
S'state'
p3
aI400
aa(lp4
S'distance'
p5
aF385.7344207763672
aa(lp6
S'timestamp'
p7
aF1.6252830028533936
aatp8
Rp9
.ccollections
OrderedDict
p0
((lp1
(lp2
S'state'
p3
aI400
aa(lp4
S'distance'
p5
aF385.7344207763672
aa(lp6
S'timestamp'
p7
aF1.634803056716919
aatp8
Rp9
.ccollections
OrderedDict
p0
((lp1
(lp2
S'state'
p3
aI400
aa(lp4
S'distance'
p5
aF385.7344207763672
aa(lp6
S'timestamp'
p7
aF1.6352200508117676
aatp8
Rp9
.ccollections
OrderedDict
p0
((lp1
(lp2
S'state'
p3
aI400
aa(lp4
S'distance'
p5
aF385.7344207763672
aa(lp6
S'timestamp'
p7
aF1.6447808742523193
aatp8
Rp9
.ccollections
OrderedDict
p0
((lp1
(lp2
S'state'
p3
aI400
aa(lp4
S'distance'
p5
aF385.7344207763672
aa(lp6
S'timestamp'
p7
aF1.6452069282531738
aatp8
Rp9
.ccollections
OrderedDict
p0
((lp1
(lp2
S'state'
p3
aI400
aa(lp4
S'distance'
p5
aF385.7344207763672
aa(lp6
S'timestamp'
p7
aF1.654968023300171
aatp8
Rp9
.ccollections
OrderedDict
p0
((lp1
(lp2
S'state'
p3
aI400
aa(lp4
S'distance'
p5
aF385.7344207763672
aa(lp6
S'timestamp'
p7
aF1.6551249027252197
aatp8
Rp9
.ccollections
OrderedDict
p0
((lp1
(lp2
S'state'
p3
aI400
aa(lp4
S'distance'
p5
aF385.7344207763672
aa(lp6
S'timestamp'
p7
aF1.664586067199707
aatp8
Rp9
.ccollections
OrderedDict
p0
((lp1
(lp2
S'state'
p3
aI400
aa(lp4
S'distance'
p5
aF385.7344207763672
aa(lp6
S'timestamp'
p7
aF1.665294885635376
aatp8
Rp9
.ccollections
OrderedDict
p0
((lp1
(lp2
S'state'
p3
aI400
aa(lp4
S'distance'
p5
aF385.7344207763672
aa(lp6
S'timestamp'
p7
aF1.6748218536376953
aatp8
Rp9
.ccollections
OrderedDict
p0
((lp1
(lp2
S'state'
p3
aI400
aa(lp4
S'distance'
p5
aF385.7344207763672
aa(lp6
S'timestamp'
p7
aF1.6752610206604004
aatp8
Rp9
.ccollections
OrderedDict
p0
((lp1
(lp2
S'state'
p3
aI400
aa(lp4
S'distance'
p5
aF385.7344207763672
aa(lp6
S'timestamp'
p7
aF1.684661865234375
aatp8
Rp9
.ccollections
OrderedDict
p0
((lp1
(lp2
S'state'
p3
aI400
aa(lp4
S'distance'
p5
aF385.7344207763672
aa(lp6
S'timestamp'
p7
aF1.6853060722351074
aatp8
Rp9
.ccollections
OrderedDict
p0
((lp1
(lp2
S'state'
p3
aI400
aa(lp4
S'distance'
p5
aF385.7344207763672
aa(lp6
S'timestamp'
p7
aF1.6945178508758545
aatp8
Rp9
.ccollections
OrderedDict
p0
((lp1
(lp2
S'state'
p3
aI400
aa(lp4
S'distance'
p5
aF385.7344207763672
aa(lp6
S'timestamp'
p7
aF1.6953160762786865
aatp8
Rp9
.ccollections
OrderedDict
p0
((lp1
(lp2
S'state'
p3
aI400
aa(lp4
S'distance'
p5
aF385.7344207763672
aa(lp6
S'timestamp'
p7
aF1.7049329280853271
aatp8
Rp9
.ccollections
OrderedDict
p0
((lp1
(lp2
S'state'
p3
aI400
aa(lp4
S'distance'
p5
aF385.7344207763672
aa(lp6
S'timestamp'
p7
aF1.7052030563354492
aatp8
Rp9
.ccollections
OrderedDict
p0
((lp1
(lp2
S'state'
p3
aI400
aa(lp4
S'distance'
p5
aF385.7344207763672
aa(lp6
S'timestamp'
p7
aF1.7149548530578613
aatp8
Rp9
.ccollections
OrderedDict
p0
((lp1
(lp2
S'state'
p3
aI400
aa(lp4
S'distance'
p5
aF385.7344207763672
aa(lp6
S'timestamp'
p7
aF1.7151789665222168
aatp8
Rp9
.ccollections
OrderedDict
p0
((lp1
(lp2
S'state'
p3
aI400
aa(lp4
S'distance'
p5
aF385.7344207763672
aa(lp6
S'timestamp'
p7
aF1.7248499393463135
aatp8
Rp9
.ccollections
OrderedDict
p0
((lp1
(lp2
S'state'
p3
aI400
aa(lp4
S'distance'
p5
aF385.7344207763672
aa(lp6
S'timestamp'
p7
aF1.725316047668457
aatp8
Rp9
.ccollections
OrderedDict
p0
((lp1
(lp2
S'state'
p3
aI400
aa(lp4
S'distance'
p5
aF385.7344207763672
aa(lp6
S'timestamp'
p7
aF1.7347209453582764
aatp8
Rp9
.ccollections
OrderedDict
p0
((lp1
(lp2
S'state'
p3
aI400
aa(lp4
S'distance'
p5
aF385.7344207763672
aa(lp6
S'timestamp'
p7
aF1.7353649139404297
aatp8
Rp9
.ccollections
OrderedDict
p0
((lp1
(lp2
S'state'
p3
aI400
aa(lp4
S'distance'
p5
aF385.7344207763672
aa(lp6
S'timestamp'
p7
aF1.7449240684509277
aatp8
Rp9
.ccollections
OrderedDict
p0
((lp1
(lp2
S'state'
p3
aI400
aa(lp4
S'distance'
p5
aF385.7344207763672
aa(lp6
S'timestamp'
p7
aF1.7460410594940186
aatp8
Rp9
.ccollections
OrderedDict
p0
((lp1
(lp2
S'state'
p3
aI400
aa(lp4
S'distance'
p5
aF385.7344207763672
aa(lp6
S'timestamp'
p7
aF1.7548048496246338
aatp8
Rp9
.ccollections
OrderedDict
p0
((lp1
(lp2
S'state'
p3
aI400
aa(lp4
S'distance'
p5
aF385.7344207763672
aa(lp6
S'timestamp'
p7
aF1.7553088665008545
aatp8
Rp9
.ccollections
OrderedDict
p0
((lp1
(lp2
S'state'
p3
aI400
aa(lp4
S'distance'
p5
aF385.7344207763672
aa(lp6
S'timestamp'
p7
aF1.7648289203643799
aatp8
Rp9
.ccollections
OrderedDict
p0
((lp1
(lp2
S'state'
p3
aI400
aa(lp4
S'distance'
p5
aF385.7344207763672
aa(lp6
S'timestamp'
p7
aF1.7653110027313232
aatp8
Rp9
.ccollections
OrderedDict
p0
((lp1
(lp2
S'state'
p3
aI400
aa(lp4
S'distance'
p5
aF385.7344207763672
aa(lp6
S'timestamp'
p7
aF1.774738073348999
aatp8
Rp9
.ccollections
OrderedDict
p0
((lp1
(lp2
S'state'
p3
aI400
aa(lp4
S'distance'
p5
aF385.7344207763672
aa(lp6
S'timestamp'
p7
aF1.7751729488372803
aatp8
Rp9
.ccollections
OrderedDict
p0
((lp1
(lp2
S'state'
p3
aI400
aa(lp4
S'distance'
p5
aF385.7344207763672
aa(lp6
S'timestamp'
p7
aF1.7853319644927979
aatp8
Rp9
.ccollections
OrderedDict
p0
((lp1
(lp2
S'state'
p3
aI400
aa(lp4
S'distance'
p5
aF385.7344207763672
aa(lp6
S'timestamp'
p7
aF1.7865209579467773
aatp8
Rp9
.ccollections
OrderedDict
p0
((lp1
(lp2
S'state'
p3
aI400
aa(lp4
S'distance'
p5
aF385.7344207763672
aa(lp6
S'timestamp'
p7
aF1.794806957244873
aatp8
Rp9
.ccollections
OrderedDict
p0
((lp1
(lp2
S'state'
p3
aI400
aa(lp4
S'distance'
p5
aF385.7344207763672
aa(lp6
S'timestamp'
p7
aF1.7951328754425049
aatp8
Rp9
.ccollections
OrderedDict
p0
((lp1
(lp2
S'state'
p3
aI400
aa(lp4
S'distance'
p5
aF385.7344207763672
aa(lp6
S'timestamp'
p7
aF1.8049860000610352
aatp8
Rp9
.ccollections
OrderedDict
p0
((lp1
(lp2
S'state'
p3
aI400
aa(lp4
S'distance'
p5
aF385.7344207763672
aa(lp6
S'timestamp'
p7
aF1.8051960468292236
aatp8
Rp9
.ccollections
OrderedDict
p0
((lp1
(lp2
S'state'
p3
aI400
aa(lp4
S'distance'
p5
aF385.7344207763672
aa(lp6
S'timestamp'
p7
aF1.8155238628387451
aatp8
Rp9
.ccollections
OrderedDict
p0
((lp1
(lp2
S'state'
p3
aI400
aa(lp4
S'distance'
p5
aF385.7344207763672
aa(lp6
S'timestamp'
p7
aF1.8156309127807617
aatp8
Rp9
.ccollections
OrderedDict
p0
((lp1
(lp2
S'state'
p3
aI400
aa(lp4
S'distance'
p5
aF385.7344207763672
aa(lp6
S'timestamp'
p7
aF1.8248989582061768
aatp8
Rp9
.ccollections
OrderedDict
p0
((lp1
(lp2
S'state'
p3
aI400
aa(lp4
S'distance'
p5
aF385.7344207763672
aa(lp6
S'timestamp'
p7
aF1.825312852859497
aatp8
Rp9
.ccollections
OrderedDict
p0
((lp1
(lp2
S'state'
p3
aI400
aa(lp4
S'distance'
p5
aF385.7344207763672
aa(lp6
S'timestamp'
p7
aF1.834609031677246
aatp8
Rp9
.ccollections
OrderedDict
p0
((lp1
(lp2
S'state'
p3
aI400
aa(lp4
S'distance'
p5
aF385.7344207763672
aa(lp6
S'timestamp'
p7
aF1.835317850112915
aatp8
Rp9
.ccollections
OrderedDict
p0
((lp1
(lp2
S'state'
p3
aI400
aa(lp4
S'distance'
p5
aF385.7344207763672
aa(lp6
S'timestamp'
p7
aF1.8448338508605957
aatp8
Rp9
.ccollections
OrderedDict
p0
((lp1
(lp2
S'state'
p3
aI400
aa(lp4
S'distance'
p5
aF385.7344207763672
aa(lp6
S'timestamp'
p7
aF1.8453519344329834
aatp8
Rp9
.ccollections
OrderedDict
p0
((lp1
(lp2
S'state'
p3
aI400
aa(lp4
S'distance'
p5
aF385.7344207763672
aa(lp6
S'timestamp'
p7
aF1.8548738956451416
aatp8
Rp9
.ccollections
OrderedDict
p0
((lp1
(lp2
S'state'
p3
aI400
aa(lp4
S'distance'
p5
aF385.7344207763672
aa(lp6
S'timestamp'
p7
aF1.855341911315918
aatp8
Rp9
.ccollections
OrderedDict
p0
((lp1
(lp2
S'state'
p3
aI400
aa(lp4
S'distance'
p5
aF385.7344207763672
aa(lp6
S'timestamp'
p7
aF1.8646678924560547
aatp8
Rp9
.ccollections
OrderedDict
p0
((lp1
(lp2
S'state'
p3
aI400
aa(lp4
S'distance'
p5
aF385.7344207763672
aa(lp6
S'timestamp'
p7
aF1.8654320240020752
aatp8
Rp9
.ccollections
OrderedDict
p0
((lp1
(lp2
S'state'
p3
aI400
aa(lp4
S'distance'
p5
aF385.7344207763672
aa(lp6
S'timestamp'
p7
aF1.8748500347137451
aatp8
Rp9
.ccollections
OrderedDict
p0
((lp1
(lp2
S'state'
p3
aI400
aa(lp4
S'distance'
p5
aF385.7344207763672
aa(lp6
S'timestamp'
p7
aF1.875154972076416
aatp8
Rp9
.ccollections
OrderedDict
p0
((lp1
(lp2
S'state'
p3
aI400
aa(lp4
S'distance'
p5
aF385.7344207763672
aa(lp6
S'timestamp'
p7
aF1.8950519561767578
aatp8
Rp9
.ccollections
OrderedDict
p0
((lp1
(lp2
S'state'
p3
aI400
aa(lp4
S'distance'
p5
aF385.7344207763672
aa(lp6
S'timestamp'
p7
aF1.8951358795166016
aatp8
Rp9
.ccollections
OrderedDict
p0
((lp1
(lp2
S'state'
p3
aI400
aa(lp4
S'distance'
p5
aF385.7344207763672
aa(lp6
S'timestamp'
p7
aF1.8964228630065918
aatp8
Rp9
.ccollections
OrderedDict
p0
((lp1
(lp2
S'state'
p3
aI400
aa(lp4
S'distance'
p5
aF385.7344207763672
aa(lp6
S'timestamp'
p7
aF1.904801845550537
aatp8
Rp9
.ccollections
OrderedDict
p0
((lp1
(lp2
S'state'
p3
aI400
aa(lp4
S'distance'
p5
aF385.7344207763672
aa(lp6
S'timestamp'
p7
aF1.9050829410552979
aatp8
Rp9
.ccollections
OrderedDict
p0
((lp1
(lp2
S'state'
p3
aI400
aa(lp4
S'distance'
p5
aF385.7344207763672
aa(lp6
S'timestamp'
p7
aF1.905730962753296
aatp8
Rp9
.ccollections
OrderedDict
p0
((lp1
(lp2
S'state'
p3
aI400
aa(lp4
S'distance'
p5
aF385.7344207763672
aa(lp6
S'timestamp'
p7
aF1.9144880771636963
aatp8
Rp9
.ccollections
OrderedDict
p0
((lp1
(lp2
S'state'
p3
aI400
aa(lp4
S'distance'
p5
aF385.7344207763672
aa(lp6
S'timestamp'
p7
aF1.9151999950408936
aatp8
Rp9
.ccollections
OrderedDict
p0
((lp1
(lp2
S'state'
p3
aI400
aa(lp4
S'distance'
p5
aF385.7344207763672
aa(lp6
S'timestamp'
p7
aF1.924833059310913
aatp8
Rp9
.ccollections
OrderedDict
p0
((lp1
(lp2
S'state'
p3
aI400
aa(lp4
S'distance'
p5
aF385.7344207763672
aa(lp6
S'timestamp'
p7
aF1.9253878593444824
aatp8
Rp9
.ccollections
OrderedDict
p0
((lp1
(lp2
S'state'
p3
aI400
aa(lp4
S'distance'
p5
aF385.7344207763672
aa(lp6
S'timestamp'
p7
aF1.9345479011535645
aatp8
Rp9
.ccollections
OrderedDict
p0
((lp1
(lp2
S'state'
p3
aI400
aa(lp4
S'distance'
p5
aF385.7344207763672
aa(lp6
S'timestamp'
p7
aF1.9352960586547852
aatp8
Rp9
.ccollections
OrderedDict
p0
((lp1
(lp2
S'state'
p3
aI400
aa(lp4
S'distance'
p5
aF385.7344207763672
aa(lp6
S'timestamp'
p7
aF1.9447860717773438
aatp8
Rp9
.ccollections
OrderedDict
p0
((lp1
(lp2
S'state'
p3
aI400
aa(lp4
S'distance'
p5
aF385.7344207763672
aa(lp6
S'timestamp'
p7
aF1.9587469100952148
aatp8
Rp9
.ccollections
OrderedDict
p0
((lp1
(lp2
S'state'
p3
aI400
aa(lp4
S'distance'
p5
aF385.7344207763672
aa(lp6
S'timestamp'
p7
aF1.9646718502044678
aatp8
Rp9
.ccollections
OrderedDict
p0
((lp1
(lp2
S'state'
p3
aI400
aa(lp4
S'distance'
p5
aF385.7344207763672
aa(lp6
S'timestamp'
p7
aF1.9653069972991943
aatp8
Rp9
.ccollections
OrderedDict
p0
((lp1
(lp2
S'state'
p3
aI400
aa(lp4
S'distance'
p5
aF385.7344207763672
aa(lp6
S'timestamp'
p7
aF1.9654600620269775
aatp8
Rp9
.ccollections
OrderedDict
p0
((lp1
(lp2
S'state'
p3
aI400
aa(lp4
S'distance'
p5
aF385.7344207763672
aa(lp6
S'timestamp'
p7
aF1.9668169021606445
aatp8
Rp9
.ccollections
OrderedDict
p0
((lp1
(lp2
S'state'
p3
aI400
aa(lp4
S'distance'
p5
aF385.7344207763672
aa(lp6
S'timestamp'
p7
aF1.9748420715332031
aatp8
Rp9
.ccollections
OrderedDict
p0
((lp1
(lp2
S'state'
p3
aI400
aa(lp4
S'distance'
p5
aF385.7344207763672
aa(lp6
S'timestamp'
p7
aF1.975226879119873
aatp8
Rp9
.ccollections
OrderedDict
p0
((lp1
(lp2
S'state'
p3
aI400
aa(lp4
S'distance'
p5
aF385.7344207763672
aa(lp6
S'timestamp'
p7
aF1.9848499298095703
aatp8
Rp9
.ccollections
OrderedDict
p0
((lp1
(lp2
S'state'
p3
aI400
aa(lp4
S'distance'
p5
aF385.7344207763672
aa(lp6
S'timestamp'
p7
aF1.985395908355713
aatp8
Rp9
.ccollections
OrderedDict
p0
((lp1
(lp2
S'state'
p3
aI400
aa(lp4
S'distance'
p5
aF385.7344207763672
aa(lp6
S'timestamp'
p7
aF1.9946749210357666
aatp8
Rp9
.ccollections
OrderedDict
p0
((lp1
(lp2
S'state'
p3
aI400
aa(lp4
S'distance'
p5
aF385.7344207763672
aa(lp6
S'timestamp'
p7
aF1.9952020645141602
aatp8
Rp9
.ccollections
OrderedDict
p0
((lp1
(lp2
S'state'
p3
aI400
aa(lp4
S'distance'
p5
aF385.7344207763672
aa(lp6
S'timestamp'
p7
aF2.004725933074951
aatp8
Rp9
.ccollections
OrderedDict
p0
((lp1
(lp2
S'state'
p3
aI400
aa(lp4
S'distance'
p5
aF385.7344207763672
aa(lp6
S'timestamp'
p7
aF2.0051679611206055
aatp8
Rp9
.ccollections
OrderedDict
p0
((lp1
(lp2
S'state'
p3
aI400
aa(lp4
S'distance'
p5
aF385.7344207763672
aa(lp6
S'timestamp'
p7
aF2.0148138999938965
aatp8
Rp9
.ccollections
OrderedDict
p0
((lp1
(lp2
S'state'
p3
aI400
aa(lp4
S'distance'
p5
aF385.7344207763672
aa(lp6
S'timestamp'
p7
aF2.0152859687805176
aatp8
Rp9
.ccollections
OrderedDict
p0
((lp1
(lp2
S'state'
p3
aI400
aa(lp4
S'distance'
p5
aF385.7344207763672
aa(lp6
S'timestamp'
p7
aF2.024553060531616
aatp8
Rp9
.ccollections
OrderedDict
p0
((lp1
(lp2
S'state'
p3
aI400
aa(lp4
S'distance'
p5
aF385.7344207763672
aa(lp6
S'timestamp'
p7
aF2.025325059890747
aatp8
Rp9
.ccollections
OrderedDict
p0
((lp1
(lp2
S'state'
p3
aI400
aa(lp4
S'distance'
p5
aF385.7344207763672
aa(lp6
S'timestamp'
p7
aF2.034731864929199
aatp8
Rp9
.ccollections
OrderedDict
p0
((lp1
(lp2
S'state'
p3
aI400
aa(lp4
S'distance'
p5
aF385.7344207763672
aa(lp6
S'timestamp'
p7
aF2.035140037536621
aatp8
Rp9
.ccollections
OrderedDict
p0
((lp1
(lp2
S'state'
p3
aI400
aa(lp4
S'distance'
p5
aF385.7344207763672
aa(lp6
S'timestamp'
p7
aF2.044795036315918
aatp8
Rp9
.ccollections
OrderedDict
p0
((lp1
(lp2
S'state'
p3
aI400
aa(lp4
S'distance'
p5
aF385.7344207763672
aa(lp6
S'timestamp'
p7
aF2.0451788902282715
aatp8
Rp9
.ccollections
OrderedDict
p0
((lp1
(lp2
S'state'
p3
aI400
aa(lp4
S'distance'
p5
aF385.7344207763672
aa(lp6
S'timestamp'
p7
aF2.0547749996185303
aatp8
Rp9
.ccollections
OrderedDict
p0
((lp1
(lp2
S'state'
p3
aI400
aa(lp4
S'distance'
p5
aF385.7344207763672
aa(lp6
S'timestamp'
p7
aF2.055109977722168
aatp8
Rp9
.ccollections
OrderedDict
p0
((lp1
(lp2
S'state'
p3
aI400
aa(lp4
S'distance'
p5
aF385.7344207763672
aa(lp6
S'timestamp'
p7
aF2.0645968914031982
aatp8
Rp9
.ccollections
OrderedDict
p0
((lp1
(lp2
S'state'
p3
aI400
aa(lp4
S'distance'
p5
aF385.7344207763672
aa(lp6
S'timestamp'
p7
aF2.065371036529541
aatp8
Rp9
.ccollections
OrderedDict
p0
((lp1
(lp2
S'state'
p3
aI400
aa(lp4
S'distance'
p5
aF385.7344207763672
aa(lp6
S'timestamp'
p7
aF2.07478404045105
aatp8
Rp9
.ccollections
OrderedDict
p0
((lp1
(lp2
S'state'
p3
aI400
aa(lp4
S'distance'
p5
aF385.7344207763672
aa(lp6
S'timestamp'
p7
aF2.07525897026062
aatp8
Rp9
.ccollections
OrderedDict
p0
((lp1
(lp2
S'state'
p3
aI400
aa(lp4
S'distance'
p5
aF385.7344207763672
aa(lp6
S'timestamp'
p7
aF2.0847959518432617
aatp8
Rp9
.ccollections
OrderedDict
p0
((lp1
(lp2
S'state'
p3
aI400
aa(lp4
S'distance'
p5
aF385.7344207763672
aa(lp6
S'timestamp'
p7
aF2.0852880477905273
aatp8
Rp9
.ccollections
OrderedDict
p0
((lp1
(lp2
S'state'
p3
aI400
aa(lp4
S'distance'
p5
aF385.7344207763672
aa(lp6
S'timestamp'
p7
aF2.0949668884277344
aatp8
Rp9
.ccollections
OrderedDict
p0
((lp1
(lp2
S'state'
p3
aI400
aa(lp4
S'distance'
p5
aF385.7344207763672
aa(lp6
S'timestamp'
p7
aF2.095183849334717
aatp8
Rp9
.ccollections
OrderedDict
p0
((lp1
(lp2
S'state'
p3
aI400
aa(lp4
S'distance'
p5
aF385.7344207763672
aa(lp6
S'timestamp'
p7
aF2.104858875274658
aatp8
Rp9
.ccollections
OrderedDict
p0
((lp1
(lp2
S'state'
p3
aI400
aa(lp4
S'distance'
p5
aF385.7344207763672
aa(lp6
S'timestamp'
p7
aF2.105195999145508
aatp8
Rp9
.ccollections
OrderedDict
p0
((lp1
(lp2
S'state'
p3
aI400
aa(lp4
S'distance'
p5
aF385.7344207763672
aa(lp6
S'timestamp'
p7
aF2.115257978439331
aatp8
Rp9
.ccollections
OrderedDict
p0
((lp1
(lp2
S'state'
p3
aI400
aa(lp4
S'distance'
p5
aF385.7344207763672
aa(lp6
S'timestamp'
p7
aF2.1153719425201416
aatp8
Rp9
.ccollections
OrderedDict
p0
((lp1
(lp2
S'state'
p3
aI400
aa(lp4
S'distance'
p5
aF385.7344207763672
aa(lp6
S'timestamp'
p7
aF2.1247658729553223
aatp8
Rp9
.ccollections
OrderedDict
p0
((lp1
(lp2
S'state'
p3
aI400
aa(lp4
S'distance'
p5
aF385.7344207763672
aa(lp6
S'timestamp'
p7
aF2.1253750324249268
aatp8
Rp9
.ccollections
OrderedDict
p0
((lp1
(lp2
S'state'
p3
aI400
aa(lp4
S'distance'
p5
aF385.7344207763672
aa(lp6
S'timestamp'
p7
aF2.1450250148773193
aatp8
Rp9
.ccollections
OrderedDict
p0
((lp1
(lp2
S'state'
p3
aI400
aa(lp4
S'distance'
p5
aF385.7344207763672
aa(lp6
S'timestamp'
p7
aF2.145106077194214
aatp8
Rp9
.ccollections
OrderedDict
p0
((lp1
(lp2
S'state'
p3
aI400
aa(lp4
S'distance'
p5
aF385.7344207763672
aa(lp6
S'timestamp'
p7
aF2.1466238498687744
aatp8
Rp9
.ccollections
OrderedDict
p0
((lp1
(lp2
S'state'
p3
aI0
aa(lp4
S'distance'
p5
aF385.7344207763672
aa(lp6
S'timestamp'
p7
aF2.155014991760254
aatp8
Rp9
.ccollections
OrderedDict
p0
((lp1
(lp2
S'state'
p3
aI0
aa(lp4
S'distance'
p5
aF272.15699768066406
aa(lp6
S'timestamp'
p7
aF2.715772867202759
aatp8
Rp9
.ccollections
OrderedDict
p0
((lp1
(lp2
S'state'
p3
aI0
aa(lp4
S'distance'
p5
aF272.15699768066406
aa(lp6
S'timestamp'
p7
aF2.7246739864349365
aatp8
Rp9
.ccollections
OrderedDict
p0
((lp1
(lp2
S'state'
p3
aI0
aa(lp4
S'distance'
p5
aF272.15699768066406
aa(lp6
S'timestamp'
p7
aF2.7252469062805176
aatp8
Rp9
.ccollections
OrderedDict
p0
((lp1
(lp2
S'state'
p3
aI0
aa(lp4
S'distance'
p5
aF272.15699768066406
aa(lp6
S'timestamp'
p7
aF2.734644889831543
aatp8
Rp9
.ccollections
OrderedDict
p0
((lp1
(lp2
S'state'
p3
aI0
aa(lp4
S'distance'
p5
aF272.15699768066406
aa(lp6
S'timestamp'
p7
aF2.7354090213775635
aatp8
Rp9
.ccollections
OrderedDict
p0
((lp1
(lp2
S'state'
p3
aI0
aa(lp4
S'distance'
p5
aF272.15699768066406
aa(lp6
S'timestamp'
p7
aF2.7448408603668213
aatp8
Rp9
.ccollections
OrderedDict
p0
((lp1
(lp2
S'state'
p3
aI0
aa(lp4
S'distance'
p5
aF272.15699768066406
aa(lp6
S'timestamp'
p7
aF2.7452168464660645
aatp8
Rp9
.ccollections
OrderedDict
p0
((lp1
(lp2
S'state'
p3
aI0
aa(lp4
S'distance'
p5
aF272.15699768066406
aa(lp6
S'timestamp'
p7
aF2.7548749446868896
aatp8
Rp9
.ccollections
OrderedDict
p0
((lp1
(lp2
S'state'
p3
aI0
aa(lp4
S'distance'
p5
aF272.15699768066406
aa(lp6
S'timestamp'
p7
aF2.7551589012145996
aatp8
Rp9
.ccollections
OrderedDict
p0
((lp1
(lp2
S'state'
p3
aI0
aa(lp4
S'distance'
p5
aF272.15699768066406
aa(lp6
S'timestamp'
p7
aF2.7648229598999023
aatp8
Rp9
.ccollections
OrderedDict
p0
((lp1
(lp2
S'state'
p3
aI0
aa(lp4
S'distance'
p5
aF272.15699768066406
aa(lp6
S'timestamp'
p7
aF2.7653019428253174
aatp8
Rp9
.ccollections
OrderedDict
p0
((lp1
(lp2
S'state'
p3
aI0
aa(lp4
S'distance'
p5
aF272.15699768066406
aa(lp6
S'timestamp'
p7
aF2.7749290466308594
aatp8
Rp9
.ccollections
OrderedDict
p0
((lp1
(lp2
S'state'
p3
aI0
aa(lp4
S'distance'
p5
aF272.15699768066406
aa(lp6
S'timestamp'
p7
aF2.775373935699463
aatp8
Rp9
.ccollections
OrderedDict
p0
((lp1
(lp2
S'state'
p3
aI0
aa(lp4
S'distance'
p5
aF272.15699768066406
aa(lp6
S'timestamp'
p7
aF2.785249948501587
aatp8
Rp9
.ccollections
OrderedDict
p0
((lp1
(lp2
S'state'
p3
aI0
aa(lp4
S'distance'
p5
aF272.15699768066406
aa(lp6
S'timestamp'
p7
aF2.7853288650512695
aatp8
Rp9
.ccollections
OrderedDict
p0
((lp1
(lp2
S'state'
p3
aI0
aa(lp4
S'distance'
p5
aF272.15699768066406
aa(lp6
S'timestamp'
p7
aF2.7951419353485107
aatp8
Rp9
.ccollections
OrderedDict
p0
((lp1
(lp2
S'state'
p3
aI0
aa(lp4
S'distance'
p5
aF272.15699768066406
aa(lp6
S'timestamp'
p7
aF2.7952139377593994
aatp8
Rp9
.ccollections
OrderedDict
p0
((lp1
(lp2
S'state'
p3
aI0
aa(lp4
S'distance'
p5
aF272.15699768066406
aa(lp6
S'timestamp'
p7
aF2.8046789169311523
aatp8
Rp9
.ccollections
OrderedDict
p0
((lp1
(lp2
S'state'
p3
aI0
aa(lp4
S'distance'
p5
aF272.15699768066406
aa(lp6
S'timestamp'
p7
aF2.8146989345550537
aatp8
Rp9
.ccollections
OrderedDict
p0
((lp1
(lp2
S'state'
p3
aI0
aa(lp4
S'distance'
p5
aF272.15699768066406
aa(lp6
S'timestamp'
p7
aF2.8151700496673584
aatp8
Rp9
.ccollections
OrderedDict
p0
((lp1
(lp2
S'state'
p3
aI0
aa(lp4
S'distance'
p5
aF272.15699768066406
aa(lp6
S'timestamp'
p7
aF2.8169150352478027
aatp8
Rp9
.ccollections
OrderedDict
p0
((lp1
(lp2
S'state'
p3
aI0
aa(lp4
S'distance'
p5
aF272.15699768066406
aa(lp6
S'timestamp'
p7
aF2.8247950077056885
aatp8
Rp9
.ccollections
OrderedDict
p0
((lp1
(lp2
S'state'
p3
aI0
aa(lp4
S'distance'
p5
aF272.15699768066406
aa(lp6
S'timestamp'
p7
aF2.825206995010376
aatp8
Rp9
.ccollections
OrderedDict
p0
((lp1
(lp2
S'state'
p3
aI0
aa(lp4
S'distance'
p5
aF272.15699768066406
aa(lp6
S'timestamp'
p7
aF2.8347878456115723
aatp8
Rp9
.ccollections
OrderedDict
p0
((lp1
(lp2
S'state'
p3
aI0
aa(lp4
S'distance'
p5
aF272.15699768066406
aa(lp6
S'timestamp'
p7
aF2.835275888442993
aatp8
Rp9
.ccollections
OrderedDict
p0
((lp1
(lp2
S'state'
p3
aI0
aa(lp4
S'distance'
p5
aF272.15699768066406
aa(lp6
S'timestamp'
p7
aF2.8451449871063232
aatp8
Rp9
.ccollections
OrderedDict
p0
((lp1
(lp2
S'state'
p3
aI0
aa(lp4
S'distance'
p5
aF272.15699768066406
aa(lp6
S'timestamp'
p7
aF2.845268964767456
aatp8
Rp9
.ccollections
OrderedDict
p0
((lp1
(lp2
S'state'
p3
aI0
aa(lp4
S'distance'
p5
aF272.15699768066406
aa(lp6
S'timestamp'
p7
aF2.8546149730682373
aatp8
Rp9
.ccollections
OrderedDict
p0
((lp1
(lp2
S'state'
p3
aI0
aa(lp4
S'distance'
p5
aF272.15699768066406
aa(lp6
S'timestamp'
p7
aF2.8553519248962402
aatp8
Rp9
.ccollections
OrderedDict
p0
((lp1
(lp2
S'state'
p3
aI0
aa(lp4
S'distance'
p5
aF272.15699768066406
aa(lp6
S'timestamp'
p7
aF2.8645379543304443
aatp8
Rp9
.ccollections
OrderedDict
p0
((lp1
(lp2
S'state'
p3
aI0
aa(lp4
S'distance'
p5
aF272.15699768066406
aa(lp6
S'timestamp'
p7
aF2.8652448654174805
aatp8
Rp9
.ccollections
OrderedDict
p0
((lp1
(lp2
S'state'
p3
aI0
aa(lp4
S'distance'
p5
aF272.15699768066406
aa(lp6
S'timestamp'
p7
aF2.874908924102783
aatp8
Rp9
.ccollections
OrderedDict
p0
((lp1
(lp2
S'state'
p3
aI0
aa(lp4
S'distance'
p5
aF272.15699768066406
aa(lp6
S'timestamp'
p7
aF2.8755578994750977
aatp8
Rp9
.ccollections
OrderedDict
p0
((lp1
(lp2
S'state'
p3
aI0
aa(lp4
S'distance'
p5
aF272.15699768066406
aa(lp6
S'timestamp'
p7
aF2.8850769996643066
aatp8
Rp9
.ccollections
OrderedDict
p0
((lp1
(lp2
S'state'
p3
aI0
aa(lp4
S'distance'
p5
aF272.15699768066406
aa(lp6
S'timestamp'
p7
aF2.8851990699768066
aatp8
Rp9
.ccollections
OrderedDict
p0
((lp1
(lp2
S'state'
p3
aI0
aa(lp4
S'distance'
p5
aF272.15699768066406
aa(lp6
S'timestamp'
p7
aF2.8947839736938477
aatp8
Rp9
.ccollections
OrderedDict
p0
((lp1
(lp2
S'state'
p3
aI0
aa(lp4
S'distance'
p5
aF272.15699768066406
aa(lp6
S'timestamp'
p7
aF2.8953230381011963
aatp8
Rp9
.ccollections
OrderedDict
p0
((lp1
(lp2
S'state'
p3
aI0
aa(lp4
S'distance'
p5
aF272.15699768066406
aa(lp6
S'timestamp'
p7
aF2.9046099185943604
aatp8
Rp9
.ccollections
OrderedDict
p0
((lp1
(lp2
S'state'
p3
aI0
aa(lp4
S'distance'
p5
aF272.15699768066406
aa(lp6
S'timestamp'
p7
aF2.905258893966675
aatp8
Rp9
.ccollections
OrderedDict
p0
((lp1
(lp2
S'state'
p3
aI0
aa(lp4
S'distance'
p5
aF272.15699768066406
aa(lp6
S'timestamp'
p7
aF2.914802074432373
aatp8
Rp9
.ccollections
OrderedDict
p0
((lp1
(lp2
S'state'
p3
aI0
aa(lp4
S'distance'
p5
aF272.15699768066406
aa(lp6
S'timestamp'
p7
aF2.915225028991699
aatp8
Rp9
.ccollections
OrderedDict
p0
((lp1
(lp2
S'state'
p3
aI0
aa(lp4
S'distance'
p5
aF272.15699768066406
aa(lp6
S'timestamp'
p7
aF2.9251630306243896
aatp8
Rp9
.ccollections
OrderedDict
p0
((lp1
(lp2
S'state'
p3
aI0
aa(lp4
S'distance'
p5
aF272.15699768066406
aa(lp6
S'timestamp'
p7
aF2.9252848625183105
aatp8
Rp9
.ccollections
OrderedDict
p0
((lp1
(lp2
S'state'
p3
aI0
aa(lp4
S'distance'
p5
aF272.15699768066406
aa(lp6
S'timestamp'
p7
aF2.9346518516540527
aatp8
Rp9
.ccollections
OrderedDict
p0
((lp1
(lp2
S'state'
p3
aI0
aa(lp4
S'distance'
p5
aF272.15699768066406
aa(lp6
S'timestamp'
p7
aF2.9354310035705566
aatp8
Rp9
.ccollections
OrderedDict
p0
((lp1
(lp2
S'state'
p3
aI0
aa(lp4
S'distance'
p5
aF272.15699768066406
aa(lp6
S'timestamp'
p7
aF2.944589853286743
aatp8
Rp9
.ccollections
OrderedDict
p0
((lp1
(lp2
S'state'
p3
aI0
aa(lp4
S'distance'
p5
aF272.15699768066406
aa(lp6
S'timestamp'
p7
aF2.945338010787964
aatp8
Rp9
.ccollections
OrderedDict
p0
((lp1
(lp2
S'state'
p3
aI0
aa(lp4
S'distance'
p5
aF272.15699768066406
aa(lp6
S'timestamp'
p7
aF2.9548680782318115
aatp8
Rp9
.ccollections
OrderedDict
p0
((lp1
(lp2
S'state'
p3
aI0
aa(lp4
S'distance'
p5
aF272.15699768066406
aa(lp6
S'timestamp'
p7
aF2.9552018642425537
aatp8
Rp9
.ccollections
OrderedDict
p0
((lp1
(lp2
S'state'
p3
aI0
aa(lp4
S'distance'
p5
aF272.15699768066406
aa(lp6
S'timestamp'
p7
aF2.9775569438934326
aatp8
Rp9
.ccollections
OrderedDict
p0
((lp1
(lp2
S'state'
p3
aI0
aa(lp4
S'distance'
p5
aF272.15699768066406
aa(lp6
S'timestamp'
p7
aF2.9786059856414795
aatp8
Rp9
.ccollections
OrderedDict
p0
((lp1
(lp2
S'state'
p3
aI0
aa(lp4
S'distance'
p5
aF272.15699768066406
aa(lp6
S'timestamp'
p7
aF2.978790044784546
aatp8
Rp9
.ccollections
OrderedDict
p0
((lp1
(lp2
S'state'
p3
aI0
aa(lp4
S'distance'
p5
aF272.15699768066406
aa(lp6
S'timestamp'
p7
aF2.9796829223632812
aatp8
Rp9
.ccollections
OrderedDict
p0
((lp1
(lp2
S'state'
p3
aI0
aa(lp4
S'distance'
p5
aF272.15699768066406
aa(lp6
S'timestamp'
p7
aF2.9846670627593994
aatp8
Rp9
.ccollections
OrderedDict
p0
((lp1
(lp2
S'state'
p3
aI0
aa(lp4
S'distance'
p5
aF272.15699768066406
aa(lp6
S'timestamp'
p7
aF2.9852259159088135
aatp8
Rp9
.ccollections
OrderedDict
p0
((lp1
(lp2
S'state'
p3
aI0
aa(lp4
S'distance'
p5
aF272.15699768066406
aa(lp6
S'timestamp'
p7
aF3.0049638748168945
aatp8
Rp9
.ccollections
OrderedDict
p0
((lp1
(lp2
S'state'
p3
aI0
aa(lp4
S'distance'
p5
aF272.15699768066406
aa(lp6
S'timestamp'
p7
aF3.005079984664917
aatp8
Rp9
.ccollections
OrderedDict
p0
((lp1
(lp2
S'state'
p3
aI0
aa(lp4
S'distance'
p5
aF272.15699768066406
aa(lp6
S'timestamp'
p7
aF3.0061068534851074
aatp8
Rp9
.ccollections
OrderedDict
p0
((lp1
(lp2
S'state'
p3
aI0
aa(lp4
S'distance'
p5
aF272.15699768066406
aa(lp6
S'timestamp'
p7
aF3.0157580375671387
aatp8
Rp9
.ccollections
OrderedDict
p0
((lp1
(lp2
S'state'
p3
aI0
aa(lp4
S'distance'
p5
aF272.15699768066406
aa(lp6
S'timestamp'
p7
aF3.0159170627593994
aatp8
Rp9
.ccollections
OrderedDict
p0
((lp1
(lp2
S'state'
p3
aI0
aa(lp4
S'distance'
p5
aF272.15699768066406
aa(lp6
S'timestamp'
p7
aF3.016463041305542
aatp8
Rp9
.ccollections
OrderedDict
p0
((lp1
(lp2
S'state'
p3
aI0
aa(lp4
S'distance'
p5
aF272.15699768066406
aa(lp6
S'timestamp'
p7
aF3.0245609283447266
aatp8
Rp9
.ccollections
OrderedDict
p0
((lp1
(lp2
S'state'
p3
aI0
aa(lp4
S'distance'
p5
aF272.15699768066406
aa(lp6
S'timestamp'
p7
aF3.0251710414886475
aatp8
Rp9
.ccollections
OrderedDict
p0
((lp1
(lp2
S'state'
p3
aI0
aa(lp4
S'distance'
p5
aF272.15699768066406
aa(lp6
S'timestamp'
p7
aF3.0348010063171387
aatp8
Rp9
.ccollections
OrderedDict
p0
((lp1
(lp2
S'state'
p3
aI0
aa(lp4
S'distance'
p5
aF272.15699768066406
aa(lp6
S'timestamp'
p7
aF3.0353689193725586
aatp8
Rp9
.ccollections
OrderedDict
p0
((lp1
(lp2
S'state'
p3
aI0
aa(lp4
S'distance'
p5
aF272.15699768066406
aa(lp6
S'timestamp'
p7
aF3.0450499057769775
aatp8
Rp9
.ccollections
OrderedDict
p0
((lp1
(lp2
S'state'
p3
aI0
aa(lp4
S'distance'
p5
aF272.15699768066406
aa(lp6
S'timestamp'
p7
aF3.0451700687408447
aatp8
Rp9
.ccollections
OrderedDict
p0
((lp1
(lp2
S'state'
p3
aI0
aa(lp4
S'distance'
p5
aF272.15699768066406
aa(lp6
S'timestamp'
p7
aF3.0548460483551025
aatp8
Rp9
.ccollections
OrderedDict
p0
((lp1
(lp2
S'state'
p3
aI0
aa(lp4
S'distance'
p5
aF272.15699768066406
aa(lp6
S'timestamp'
p7
aF3.0551419258117676
aatp8
Rp9
.ccollections
OrderedDict
p0
((lp1
(lp2
S'state'
p3
aI0
aa(lp4
S'distance'
p5
aF272.15699768066406
aa(lp6
S'timestamp'
p7
aF3.0648820400238037
aatp8
Rp9
.ccollections
OrderedDict
p0
((lp1
(lp2
S'state'
p3
aI0
aa(lp4
S'distance'
p5
aF272.15699768066406
aa(lp6
S'timestamp'
p7
aF3.0652880668640137
aatp8
Rp9
.ccollections
OrderedDict
p0
((lp1
(lp2
S'state'
p3
aI0
aa(lp4
S'distance'
p5
aF272.15699768066406
aa(lp6
S'timestamp'
p7
aF3.074915885925293
aatp8
Rp9
.ccollections
OrderedDict
p0
((lp1
(lp2
S'state'
p3
aI0
aa(lp4
S'distance'
p5
aF272.15699768066406
aa(lp6
S'timestamp'
p7
aF3.0754899978637695
aatp8
Rp9
.ccollections
OrderedDict
p0
((lp1
(lp2
S'state'
p3
aI0
aa(lp4
S'distance'
p5
aF272.15699768066406
aa(lp6
S'timestamp'
p7
aF3.0849039554595947
aatp8
Rp9
.ccollections
OrderedDict
p0
((lp1
(lp2
S'state'
p3
aI400
aa(lp4
S'distance'
p5
aF272.15699768066406
aa(lp6
S'timestamp'
p7
aF3.0854148864746094
aatp8
Rp9
.ccollections
OrderedDict
p0
((lp1
(lp2
S'state'
p3
aI400
aa(lp4
S'distance'
p5
aF272.15699768066406
aa(lp6
S'timestamp'
p7
aF3.095438003540039
aatp8
Rp9
.ccollections
OrderedDict
p0
((lp1
(lp2
S'state'
p3
aI400
aa(lp4
S'distance'
p5
aF272.15699768066406
aa(lp6
S'timestamp'
p7
aF3.095607042312622
aatp8
Rp9
.ccollections
OrderedDict
p0
((lp1
(lp2
S'state'
p3
aI400
aa(lp4
S'distance'
p5
aF272.15699768066406
aa(lp6
S'timestamp'
p7
aF3.105013847351074
aatp8
Rp9
.ccollections
OrderedDict
p0
((lp1
(lp2
S'state'
p3
aI400
aa(lp4
S'distance'
p5
aF272.15699768066406
aa(lp6
S'timestamp'
p7
aF3.1051480770111084
aatp8
Rp9
.ccollections
OrderedDict
p0
((lp1
(lp2
S'state'
p3
aI400
aa(lp4
S'distance'
p5
aF272.15699768066406
aa(lp6
S'timestamp'
p7
aF3.125905990600586
aatp8
Rp9
.ccollections
OrderedDict
p0
((lp1
(lp2
S'state'
p3
aI400
aa(lp4
S'distance'
p5
aF272.15699768066406
aa(lp6
S'timestamp'
p7
aF3.1261558532714844
aatp8
Rp9
.ccollections
OrderedDict
p0
((lp1
(lp2
S'state'
p3
aI400
aa(lp4
S'distance'
p5
aF272.15699768066406
aa(lp6
S'timestamp'
p7
aF3.127289056777954
aatp8
Rp9
.ccollections
OrderedDict
p0
((lp1
(lp2
S'state'
p3
aI400
aa(lp4
S'distance'
p5
aF272.15699768066406
aa(lp6
S'timestamp'
p7
aF3.1450438499450684
aatp8
Rp9
.ccollections
OrderedDict
p0
((lp1
(lp2
S'state'
p3
aI400
aa(lp4
S'distance'
p5
aF272.15699768066406
aa(lp6
S'timestamp'
p7
aF3.1451690196990967
aatp8
Rp9
.ccollections
OrderedDict
p0
((lp1
(lp2
S'state'
p3
aI400
aa(lp4
S'distance'
p5
aF272.15699768066406
aa(lp6
S'timestamp'
p7
aF3.1462199687957764
aatp8
Rp9
.ccollections
OrderedDict
p0
((lp1
(lp2
S'state'
p3
aI400
aa(lp4
S'distance'
p5
aF272.15699768066406
aa(lp6
S'timestamp'
p7
aF3.1468658447265625
aatp8
Rp9
.ccollections
OrderedDict
p0
((lp1
(lp2
S'state'
p3
aI400
aa(lp4
S'distance'
p5
aF272.15699768066406
aa(lp6
S'timestamp'
p7
aF3.155242919921875
aatp8
Rp9
.ccollections
OrderedDict
p0
((lp1
(lp2
S'state'
p3
aI400
aa(lp4
S'distance'
p5
aF272.15699768066406
aa(lp6
S'timestamp'
p7
aF3.1554479598999023
aatp8
Rp9
.ccollections
OrderedDict
p0
((lp1
(lp2
S'state'
p3
aI400
aa(lp4
S'distance'
p5
aF272.15699768066406
aa(lp6
S'timestamp'
p7
aF3.1558799743652344
aatp8
Rp9
.ccollections
OrderedDict
p0
((lp1
(lp2
S'state'
p3
aI400
aa(lp4
S'distance'
p5
aF272.15699768066406
aa(lp6
S'timestamp'
p7
aF3.1647160053253174
aatp8
Rp9
.ccollections
OrderedDict
p0
((lp1
(lp2
S'state'
p3
aI400
aa(lp4
S'distance'
p5
aF272.15699768066406
aa(lp6
S'timestamp'
p7
aF3.1652848720550537
aatp8
Rp9
.ccollections
OrderedDict
p0
((lp1
(lp2
S'state'
p3
aI400
aa(lp4
S'distance'
p5
aF272.15699768066406
aa(lp6
S'timestamp'
p7
aF3.174593925476074
aatp8
Rp9
.ccollections
OrderedDict
p0
((lp1
(lp2
S'state'
p3
aI400
aa(lp4
S'distance'
p5
aF272.15699768066406
aa(lp6
S'timestamp'
p7
aF3.175457000732422
aatp8
Rp9
.ccollections
OrderedDict
p0
((lp1
(lp2
S'state'
p3
aI400
aa(lp4
S'distance'
p5
aF272.15699768066406
aa(lp6
S'timestamp'
p7
aF3.1849000453948975
aatp8
Rp9
.ccollections
OrderedDict
p0
((lp1
(lp2
S'state'
p3
aI400
aa(lp4
S'distance'
p5
aF272.15699768066406
aa(lp6
S'timestamp'
p7
aF3.1853809356689453
aatp8
Rp9
.ccollections
OrderedDict
p0
((lp1
(lp2
S'state'
p3
aI400
aa(lp4
S'distance'
p5
aF272.15699768066406
aa(lp6
S'timestamp'
p7
aF3.194849967956543
aatp8
Rp9
.ccollections
OrderedDict
p0
((lp1
(lp2
S'state'
p3
aI400
aa(lp4
S'distance'
p5
aF272.15699768066406
aa(lp6
S'timestamp'
p7
aF3.1951608657836914
aatp8
Rp9
.ccollections
OrderedDict
p0
((lp1
(lp2
S'state'
p3
aI400
aa(lp4
S'distance'
p5
aF272.15699768066406
aa(lp6
S'timestamp'
p7
aF3.2048418521881104
aatp8
Rp9
.ccollections
OrderedDict
p0
((lp1
(lp2
S'state'
p3
aI400
aa(lp4
S'distance'
p5
aF272.15699768066406
aa(lp6
S'timestamp'
p7
aF3.2052619457244873
aatp8
Rp9
.ccollections
OrderedDict
p0
((lp1
(lp2
S'state'
p3
aI400
aa(lp4
S'distance'
p5
aF272.15699768066406
aa(lp6
S'timestamp'
p7
aF3.214582920074463
aatp8
Rp9
.ccollections
OrderedDict
p0
((lp1
(lp2
S'state'
p3
aI400
aa(lp4
S'distance'
p5
aF272.15699768066406
aa(lp6
S'timestamp'
p7
aF3.2154178619384766
aatp8
Rp9
.ccollections
OrderedDict
p0
((lp1
(lp2
S'state'
p3
aI400
aa(lp4
S'distance'
p5
aF272.15699768066406
aa(lp6
S'timestamp'
p7
aF3.2251570224761963
aatp8
Rp9
.ccollections
OrderedDict
p0
((lp1
(lp2
S'state'
p3
aI400
aa(lp4
S'distance'
p5
aF272.15699768066406
aa(lp6
S'timestamp'
p7
aF3.225277900695801
aatp8
Rp9
.ccollections
OrderedDict
p0
((lp1
(lp2
S'state'
p3
aI400
aa(lp4
S'distance'
p5
aF272.15699768066406
aa(lp6
S'timestamp'
p7
aF3.234834909439087
aatp8
Rp9
.ccollections
OrderedDict
p0
((lp1
(lp2
S'state'
p3
aI400
aa(lp4
S'distance'
p5
aF272.15699768066406
aa(lp6
S'timestamp'
p7
aF3.2354209423065186
aatp8
Rp9
.ccollections
OrderedDict
p0
((lp1
(lp2
S'state'
p3
aI400
aa(lp4
S'distance'
p5
aF272.15699768066406
aa(lp6
S'timestamp'
p7
aF3.245054006576538
aatp8
Rp9
.ccollections
OrderedDict
p0
((lp1
(lp2
S'state'
p3
aI400
aa(lp4
S'distance'
p5
aF272.15699768066406
aa(lp6
S'timestamp'
p7
aF3.24518084526062
aatp8
Rp9
.ccollections
OrderedDict
p0
((lp1
(lp2
S'state'
p3
aI400
aa(lp4
S'distance'
p5
aF272.15699768066406
aa(lp6
S'timestamp'
p7
aF3.254915952682495
aatp8
Rp9
.ccollections
OrderedDict
p0
((lp1
(lp2
S'state'
p3
aI400
aa(lp4
S'distance'
p5
aF272.15699768066406
aa(lp6
S'timestamp'
p7
aF3.2553699016571045
aatp8
Rp9
.ccollections
OrderedDict
p0
((lp1
(lp2
S'state'
p3
aI400
aa(lp4
S'distance'
p5
aF272.15699768066406
aa(lp6
S'timestamp'
p7
aF3.26481294631958
aatp8
Rp9
.ccollections
OrderedDict
p0
((lp1
(lp2
S'state'
p3
aI400
aa(lp4
S'distance'
p5
aF272.15699768066406
aa(lp6
S'timestamp'
p7
aF3.2652008533477783
aatp8
Rp9
.ccollections
OrderedDict
p0
((lp1
(lp2
S'state'
p3
aI400
aa(lp4
S'distance'
p5
aF272.15699768066406
aa(lp6
S'timestamp'
p7
aF3.275131940841675
aatp8
Rp9
.ccollections
OrderedDict
p0
((lp1
(lp2
S'state'
p3
aI400
aa(lp4
S'distance'
p5
aF272.15699768066406
aa(lp6
S'timestamp'
p7
aF3.2752039432525635
aatp8
Rp9
.ccollections
OrderedDict
p0
((lp1
(lp2
S'state'
p3
aI400
aa(lp4
S'distance'
p5
aF272.15699768066406
aa(lp6
S'timestamp'
p7
aF3.2846839427948
aatp8
Rp9
.ccollections
OrderedDict
p0
((lp1
(lp2
S'state'
p3
aI400
aa(lp4
S'distance'
p5
aF272.15699768066406
aa(lp6
S'timestamp'
p7
aF3.2852799892425537
aatp8
Rp9
.ccollections
OrderedDict
p0
((lp1
(lp2
S'state'
p3
aI400
aa(lp4
S'distance'
p5
aF272.15699768066406
aa(lp6
S'timestamp'
p7
aF3.2948930263519287
aatp8
Rp9
.ccollections
OrderedDict
p0
((lp1
(lp2
S'state'
p3
aI400
aa(lp4
S'distance'
p5
aF272.15699768066406
aa(lp6
S'timestamp'
p7
aF3.29549503326416
aatp8
Rp9
.ccollections
OrderedDict
p0
((lp1
(lp2
S'state'
p3
aI400
aa(lp4
S'distance'
p5
aF272.15699768066406
aa(lp6
S'timestamp'
p7
aF3.304832935333252
aatp8
Rp9
.ccollections
OrderedDict
p0
((lp1
(lp2
S'state'
p3
aI400
aa(lp4
S'distance'
p5
aF272.15699768066406
aa(lp6
S'timestamp'
p7
aF3.3056108951568604
aatp8
Rp9
.ccollections
OrderedDict
p0
((lp1
(lp2
S'state'
p3
aI400
aa(lp4
S'distance'
p5
aF272.15699768066406
aa(lp6
S'timestamp'
p7
aF3.3148460388183594
aatp8
Rp9
.ccollections
OrderedDict
p0
((lp1
(lp2
S'state'
p3
aI400
aa(lp4
S'distance'
p5
aF272.15699768066406
aa(lp6
S'timestamp'
p7
aF3.315372943878174
aatp8
Rp9
.ccollections
OrderedDict
p0
((lp1
(lp2
S'state'
p3
aI400
aa(lp4
S'distance'
p5
aF272.15699768066406
aa(lp6
S'timestamp'
p7
aF3.3246748447418213
aatp8
Rp9
.ccollections
OrderedDict
p0
((lp1
(lp2
S'state'
p3
aI400
aa(lp4
S'distance'
p5
aF272.15699768066406
aa(lp6
S'timestamp'
p7
aF3.325209856033325
aatp8
Rp9
.ccollections
OrderedDict
p0
((lp1
(lp2
S'state'
p3
aI400
aa(lp4
S'distance'
p5
aF272.15699768066406
aa(lp6
S'timestamp'
p7
aF3.3348309993743896
aatp8
Rp9
.ccollections
OrderedDict
p0
((lp1
(lp2
S'state'
p3
aI400
aa(lp4
S'distance'
p5
aF272.15699768066406
aa(lp6
S'timestamp'
p7
aF3.335197925567627
aatp8
Rp9
.ccollections
OrderedDict
p0
((lp1
(lp2
S'state'
p3
aI400
aa(lp4
S'distance'
p5
aF272.15699768066406
aa(lp6
S'timestamp'
p7
aF3.34466290473938
aatp8
Rp9
.ccollections
OrderedDict
p0
((lp1
(lp2
S'state'
p3
aI400
aa(lp4
S'distance'
p5
aF272.15699768066406
aa(lp6
S'timestamp'
p7
aF3.3452789783477783
aatp8
Rp9
.ccollections
OrderedDict
p0
((lp1
(lp2
S'state'
p3
aI400
aa(lp4
S'distance'
p5
aF272.15699768066406
aa(lp6
S'timestamp'
p7
aF3.354750871658325
aatp8
Rp9
.ccollections
OrderedDict
p0
((lp1
(lp2
S'state'
p3
aI400
aa(lp4
S'distance'
p5
aF272.15699768066406
aa(lp6
S'timestamp'
p7
aF3.355262041091919
aatp8
Rp9
.ccollections
OrderedDict
p0
((lp1
(lp2
S'state'
p3
aI400
aa(lp4
S'distance'
p5
aF272.15699768066406
aa(lp6
S'timestamp'
p7
aF3.3651249408721924
aatp8
Rp9
.ccollections
OrderedDict
p0
((lp1
(lp2
S'state'
p3
aI400
aa(lp4
S'distance'
p5
aF272.15699768066406
aa(lp6
S'timestamp'
p7
aF3.3652398586273193
aatp8
Rp9
.ccollections
OrderedDict
p0
((lp1
(lp2
S'state'
p3
aI400
aa(lp4
S'distance'
p5
aF272.15699768066406
aa(lp6
S'timestamp'
p7
aF3.3750710487365723
aatp8
Rp9
.ccollections
OrderedDict
p0
((lp1
(lp2
S'state'
p3
aI400
aa(lp4
S'distance'
p5
aF272.15699768066406
aa(lp6
S'timestamp'
p7
aF3.3751959800720215
aatp8
Rp9
.ccollections
OrderedDict
p0
((lp1
(lp2
S'state'
p3
aI400
aa(lp4
S'distance'
p5
aF272.15699768066406
aa(lp6
S'timestamp'
p7
aF3.3848390579223633
aatp8
Rp9
.ccollections
OrderedDict
p0
((lp1
(lp2
S'state'
p3
aI400
aa(lp4
S'distance'
p5
aF272.15699768066406
aa(lp6
S'timestamp'
p7
aF3.385769844055176
aatp8
Rp9
.ccollections
OrderedDict
p0
((lp1
(lp2
S'state'
p3
aI400
aa(lp4
S'distance'
p5
aF272.15699768066406
aa(lp6
S'timestamp'
p7
aF3.3948850631713867
aatp8
Rp9
.ccollections
OrderedDict
p0
((lp1
(lp2
S'state'
p3
aI400
aa(lp4
S'distance'
p5
aF272.15699768066406
aa(lp6
S'timestamp'
p7
aF3.3956098556518555
aatp8
Rp9
.ccollections
OrderedDict
p0
((lp1
(lp2
S'state'
p3
aI400
aa(lp4
S'distance'
p5
aF272.15699768066406
aa(lp6
S'timestamp'
p7
aF3.4048330783843994
aatp8
Rp9
.ccollections
OrderedDict
p0
((lp1
(lp2
S'state'
p3
aI400
aa(lp4
S'distance'
p5
aF272.15699768066406
aa(lp6
S'timestamp'
p7
aF3.4052958488464355
aatp8
Rp9
.ccollections
OrderedDict
p0
((lp1
(lp2
S'state'
p3
aI400
aa(lp4
S'distance'
p5
aF272.15699768066406
aa(lp6
S'timestamp'
p7
aF3.4148519039154053
aatp8
Rp9
.ccollections
OrderedDict
p0
((lp1
(lp2
S'state'
p3
aI400
aa(lp4
S'distance'
p5
aF272.15699768066406
aa(lp6
S'timestamp'
p7
aF3.4153409004211426
aatp8
Rp9
.ccollections
OrderedDict
p0
((lp1
(lp2
S'state'
p3
aI400
aa(lp4
S'distance'
p5
aF272.15699768066406
aa(lp6
S'timestamp'
p7
aF3.425049066543579
aatp8
Rp9
.ccollections
OrderedDict
p0
((lp1
(lp2
S'state'
p3
aI400
aa(lp4
S'distance'
p5
aF272.15699768066406
aa(lp6
S'timestamp'
p7
aF3.4251768589019775
aatp8
Rp9
.ccollections
OrderedDict
p0
((lp1
(lp2
S'state'
p3
aI400
aa(lp4
S'distance'
p5
aF272.15699768066406
aa(lp6
S'timestamp'
p7
aF3.4350199699401855
aatp8
Rp9
.ccollections
OrderedDict
p0
((lp1
(lp2
S'state'
p3
aI400
aa(lp4
S'distance'
p5
aF272.15699768066406
aa(lp6
S'timestamp'
p7
aF3.4351370334625244
aatp8
Rp9
.ccollections
OrderedDict
p0
((lp1
(lp2
S'state'
p3
aI400
aa(lp4
S'distance'
p5
aF272.15699768066406
aa(lp6
S'timestamp'
p7
aF3.4451329708099365
aatp8
Rp9
.ccollections
OrderedDict
p0
((lp1
(lp2
S'state'
p3
aI400
aa(lp4
S'distance'
p5
aF272.15699768066406
aa(lp6
S'timestamp'
p7
aF3.44524884223938
aatp8
Rp9
.ccollections
OrderedDict
p0
((lp1
(lp2
S'state'
p3
aI400
aa(lp4
S'distance'
p5
aF272.15699768066406
aa(lp6
S'timestamp'
p7
aF3.4550468921661377
aatp8
Rp9
.ccollections
OrderedDict
p0
((lp1
(lp2
S'state'
p3
aI400
aa(lp4
S'distance'
p5
aF272.15699768066406
aa(lp6
S'timestamp'
p7
aF3.4551639556884766
aatp8
Rp9
.ccollections
OrderedDict
p0
((lp1
(lp2
S'state'
p3
aI400
aa(lp4
S'distance'
p5
aF272.15699768066406
aa(lp6
S'timestamp'
p7
aF3.4648900032043457
aatp8
Rp9
.ccollections
OrderedDict
p0
((lp1
(lp2
S'state'
p3
aI400
aa(lp4
S'distance'
p5
aF272.15699768066406
aa(lp6
S'timestamp'
p7
aF3.46540904045105
aatp8
Rp9
.ccollections
OrderedDict
p0
((lp1
(lp2
S'state'
p3
aI400
aa(lp4
S'distance'
p5
aF272.15699768066406
aa(lp6
S'timestamp'
p7
aF3.4747869968414307
aatp8
Rp9
.ccollections
OrderedDict
p0
((lp1
(lp2
S'state'
p3
aI400
aa(lp4
S'distance'
p5
aF272.15699768066406
aa(lp6
S'timestamp'
p7
aF3.475277900695801
aatp8
Rp9
.ccollections
OrderedDict
p0
((lp1
(lp2
S'state'
p3
aI400
aa(lp4
S'distance'
p5
aF272.15699768066406
aa(lp6
S'timestamp'
p7
aF3.4849019050598145
aatp8
Rp9
.ccollections
OrderedDict
p0
((lp1
(lp2
S'state'
p3
aI400
aa(lp4
S'distance'
p5
aF272.15699768066406
aa(lp6
S'timestamp'
p7
aF3.4854278564453125
aatp8
Rp9
.ccollections
OrderedDict
p0
((lp1
(lp2
S'state'
p3
aI400
aa(lp4
S'distance'
p5
aF272.15699768066406
aa(lp6
S'timestamp'
p7
aF3.494649887084961
aatp8
Rp9
.ccollections
OrderedDict
p0
((lp1
(lp2
S'state'
p3
aI400
aa(lp4
S'distance'
p5
aF272.15699768066406
aa(lp6
S'timestamp'
p7
aF3.4952619075775146
aatp8
Rp9
.ccollections
OrderedDict
p0
((lp1
(lp2
S'state'
p3
aI400
aa(lp4
S'distance'
p5
aF272.15699768066406
aa(lp6
S'timestamp'
p7
aF3.5048749446868896
aatp8
Rp9
.ccollections
OrderedDict
p0
((lp1
(lp2
S'state'
p3
aI400
aa(lp4
S'distance'
p5
aF272.15699768066406
aa(lp6
S'timestamp'
p7
aF3.505270004272461
aatp8
Rp9
.ccollections
OrderedDict
p0
((lp1
(lp2
S'state'
p3
aI400
aa(lp4
S'distance'
p5
aF272.15699768066406
aa(lp6
S'timestamp'
p7
aF3.5148420333862305
aatp8
Rp9
.ccollections
OrderedDict
p0
((lp1
(lp2
S'state'
p3
aI400
aa(lp4
S'distance'
p5
aF272.15699768066406
aa(lp6
S'timestamp'
p7
aF3.5152499675750732
aatp8
Rp9
.ccollections
OrderedDict
p0
((lp1
(lp2
S'state'
p3
aI400
aa(lp4
S'distance'
p5
aF272.15699768066406
aa(lp6
S'timestamp'
p7
aF3.5250089168548584
aatp8
Rp9
.ccollections
OrderedDict
p0
((lp1
(lp2
S'state'
p3
aI400
aa(lp4
S'distance'
p5
aF272.15699768066406
aa(lp6
S'timestamp'
p7
aF3.5251379013061523
aatp8
Rp9
.ccollections
OrderedDict
p0
((lp1
(lp2
S'state'
p3
aI400
aa(lp4
S'distance'
p5
aF272.15699768066406
aa(lp6
S'timestamp'
p7
aF3.534712076187134
aatp8
Rp9
.ccollections
OrderedDict
p0
((lp1
(lp2
S'state'
p3
aI400
aa(lp4
S'distance'
p5
aF272.15699768066406
aa(lp6
S'timestamp'
p7
aF3.535533905029297
aatp8
Rp9
.ccollections
OrderedDict
p0
((lp1
(lp2
S'state'
p3
aI400
aa(lp4
S'distance'
p5
aF272.15699768066406
aa(lp6
S'timestamp'
p7
aF3.544736862182617
aatp8
Rp9
.ccollections
OrderedDict
p0
((lp1
(lp2
S'state'
p3
aI400
aa(lp4
S'distance'
p5
aF272.15699768066406
aa(lp6
S'timestamp'
p7
aF3.545348882675171
aatp8
Rp9
.ccollections
OrderedDict
p0
((lp1
(lp2
S'state'
p3
aI400
aa(lp4
S'distance'
p5
aF272.15699768066406
aa(lp6
S'timestamp'
p7
aF3.555043935775757
aatp8
Rp9
.ccollections
OrderedDict
p0
((lp1
(lp2
S'state'
p3
aI400
aa(lp4
S'distance'
p5
aF272.15699768066406
aa(lp6
S'timestamp'
p7
aF3.555161952972412
aatp8
Rp9
.ccollections
OrderedDict
p0
((lp1
(lp2
S'state'
p3
aI400
aa(lp4
S'distance'
p5
aF272.15699768066406
aa(lp6
S'timestamp'
p7
aF3.5648250579833984
aatp8
Rp9
.ccollections
OrderedDict
p0
((lp1
(lp2
S'state'
p3
aI400
aa(lp4
S'distance'
p5
aF272.15699768066406
aa(lp6
S'timestamp'
p7
aF3.5652198791503906
aatp8
Rp9
.ccollections
OrderedDict
p0
((lp1
(lp2
S'state'
p3
aI400
aa(lp4
S'distance'
p5
aF272.15699768066406
aa(lp6
S'timestamp'
p7
aF3.5746939182281494
aatp8
Rp9
.ccollections
OrderedDict
p0
((lp1
(lp2
S'state'
p3
aI400
aa(lp4
S'distance'
p5
aF272.15699768066406
aa(lp6
S'timestamp'
p7
aF3.575305938720703
aatp8
Rp9
.ccollections
OrderedDict
p0
((lp1
(lp2
S'state'
p3
aI400
aa(lp4
S'distance'
p5
aF272.15699768066406
aa(lp6
S'timestamp'
p7
aF3.5848388671875
aatp8
Rp9
.ccollections
OrderedDict
p0
((lp1
(lp2
S'state'
p3
aI400
aa(lp4
S'distance'
p5
aF272.15699768066406
aa(lp6
S'timestamp'
p7
aF3.5855050086975098
aatp8
Rp9
.ccollections
OrderedDict
p0
((lp1
(lp2
S'state'
p3
aI400
aa(lp4
S'distance'
p5
aF272.15699768066406
aa(lp6
S'timestamp'
p7
aF3.594820022583008
aatp8
Rp9
.ccollections
OrderedDict
p0
((lp1
(lp2
S'state'
p3
aI400
aa(lp4
S'distance'
p5
aF272.15699768066406
aa(lp6
S'timestamp'
p7
aF3.5952038764953613
aatp8
Rp9
.ccollections
OrderedDict
p0
((lp1
(lp2
S'state'
p3
aI400
aa(lp4
S'distance'
p5
aF272.15699768066406
aa(lp6
S'timestamp'
p7
aF3.6048340797424316
aatp8
Rp9
.ccollections
OrderedDict
p0
((lp1
(lp2
S'state'
p3
aI400
aa(lp4
S'distance'
p5
aF272.15699768066406
aa(lp6
S'timestamp'
p7
aF3.6052708625793457
aatp8
Rp9
.ccollections
OrderedDict
p0
((lp1
(lp2
S'state'
p3
aI400
aa(lp4
S'distance'
p5
aF272.15699768066406
aa(lp6
S'timestamp'
p7
aF3.615428924560547
aatp8
Rp9
.ccollections
OrderedDict
p0
((lp1
(lp2
S'state'
p3
aI400
aa(lp4
S'distance'
p5
aF272.15699768066406
aa(lp6
S'timestamp'
p7
aF3.6155519485473633
aatp8
Rp9
.ccollections
OrderedDict
p0
((lp1
(lp2
S'state'
p3
aI400
aa(lp4
S'distance'
p5
aF272.15699768066406
aa(lp6
S'timestamp'
p7
aF3.6246190071105957
aatp8
Rp9
.ccollections
OrderedDict
p0
((lp1
(lp2
S'state'
p3
aI400
aa(lp4
S'distance'
p5
aF272.15699768066406
aa(lp6
S'timestamp'
p7
aF3.6253600120544434
aatp8
Rp9
.ccollections
OrderedDict
p0
((lp1
(lp2
S'state'
p3
aI400
aa(lp4
S'distance'
p5
aF272.15699768066406
aa(lp6
S'timestamp'
p7
aF3.6347548961639404
aatp8
Rp9
.ccollections
OrderedDict
p0
((lp1
(lp2
S'state'
p3
aI400
aa(lp4
S'distance'
p5
aF272.15699768066406
aa(lp6
S'timestamp'
p7
aF3.6355109214782715
aatp8
Rp9
.ccollections
OrderedDict
p0
((lp1
(lp2
S'state'
p3
aI400
aa(lp4
S'distance'
p5
aF272.15699768066406
aa(lp6
S'timestamp'
p7
aF3.6449010372161865
aatp8
Rp9
.ccollections
OrderedDict
p0
((lp1
(lp2
S'state'
p3
aI400
aa(lp4
S'distance'
p5
aF272.15699768066406
aa(lp6
S'timestamp'
p7
aF3.6454179286956787
aatp8
Rp9
.ccollections
OrderedDict
p0
((lp1
(lp2
S'state'
p3
aI400
aa(lp4
S'distance'
p5
aF272.15699768066406
aa(lp6
S'timestamp'
p7
aF3.654629945755005
aatp8
Rp9
.ccollections
OrderedDict
p0
((lp1
(lp2
S'state'
p3
aI400
aa(lp4
S'distance'
p5
aF272.15699768066406
aa(lp6
S'timestamp'
p7
aF3.655428886413574
aatp8
Rp9
.ccollections
OrderedDict
p0
((lp1
(lp2
S'state'
p3
aI400
aa(lp4
S'distance'
p5
aF272.15699768066406
aa(lp6
S'timestamp'
p7
aF3.665104866027832
aatp8
Rp9
.ccollections
OrderedDict
p0
((lp1
(lp2
S'state'
p3
aI400
aa(lp4
S'distance'
p5
aF272.15699768066406
aa(lp6
S'timestamp'
p7
aF3.6652328968048096
aatp8
Rp9
.ccollections
OrderedDict
p0
((lp1
(lp2
S'state'
p3
aI400
aa(lp4
S'distance'
p5
aF272.15699768066406
aa(lp6
S'timestamp'
p7
aF3.6747488975524902
aatp8
Rp9
.ccollections
OrderedDict
p0
((lp1
(lp2
S'state'
p3
aI400
aa(lp4
S'distance'
p5
aF272.15699768066406
aa(lp6
S'timestamp'
p7
aF3.675132989883423
aatp8
Rp9
.ccollections
OrderedDict
p0
((lp1
(lp2
S'state'
p3
aI400
aa(lp4
S'distance'
p5
aF272.15699768066406
aa(lp6
S'timestamp'
p7
aF3.684936046600342
aatp8
Rp9
.ccollections
OrderedDict
p0
((lp1
(lp2
S'state'
p3
aI400
aa(lp4
S'distance'
p5
aF272.15699768066406
aa(lp6
S'timestamp'
p7
aF3.6855568885803223
aatp8
Rp9
.ccollections
OrderedDict
p0
((lp1
(lp2
S'state'
p3
aI400
aa(lp4
S'distance'
p5
aF272.15699768066406
aa(lp6
S'timestamp'
p7
aF3.6948039531707764
aatp8
Rp9
.ccollections
OrderedDict
p0
((lp1
(lp2
S'state'
p3
aI400
aa(lp4
S'distance'
p5
aF272.15699768066406
aa(lp6
S'timestamp'
p7
aF3.6953749656677246
aatp8
Rp9
.ccollections
OrderedDict
p0
((lp1
(lp2
S'state'
p3
aI400
aa(lp4
S'distance'
p5
aF272.15699768066406
aa(lp6
S'timestamp'
p7
aF3.7047619819641113
aatp8
Rp9
.ccollections
OrderedDict
p0
((lp1
(lp2
S'state'
p3
aI400
aa(lp4
S'distance'
p5
aF272.15699768066406
aa(lp6
S'timestamp'
p7
aF3.705298900604248
aatp8
Rp9
.ccollections
OrderedDict
p0
((lp1
(lp2
S'state'
p3
aI400
aa(lp4
S'distance'
p5
aF272.15699768066406
aa(lp6
S'timestamp'
p7
aF3.715057849884033
aatp8
Rp9
.ccollections
OrderedDict
p0
((lp1
(lp2
S'state'
p3
aI400
aa(lp4
S'distance'
p5
aF272.15699768066406
aa(lp6
S'timestamp'
p7
aF3.7151758670806885
aatp8
Rp9
.ccollections
OrderedDict
p0
((lp1
(lp2
S'state'
p3
aI400
aa(lp4
S'distance'
p5
aF272.15699768066406
aa(lp6
S'timestamp'
p7
aF3.7251510620117188
aatp8
Rp9
.ccollections
OrderedDict
p0
((lp1
(lp2
S'state'
p3
aI400
aa(lp4
S'distance'
p5
aF272.15699768066406
aa(lp6
S'timestamp'
p7
aF3.7252728939056396
aatp8
Rp9
.ccollections
OrderedDict
p0
((lp1
(lp2
S'state'
p3
aI400
aa(lp4
S'distance'
p5
aF272.15699768066406
aa(lp6
S'timestamp'
p7
aF3.7347359657287598
aatp8
Rp9
.ccollections
OrderedDict
p0
((lp1
(lp2
S'state'
p3
aI400
aa(lp4
S'distance'
p5
aF272.15699768066406
aa(lp6
S'timestamp'
p7
aF3.7353148460388184
aatp8
Rp9
.ccollections
OrderedDict
p0
((lp1
(lp2
S'state'
p3
aI400
aa(lp4
S'distance'
p5
aF272.15699768066406
aa(lp6
S'timestamp'
p7
aF3.7447049617767334
aatp8
Rp9
.ccollections
OrderedDict
p0
((lp1
(lp2
S'state'
p3
aI400
aa(lp4
S'distance'
p5
aF272.15699768066406
aa(lp6
S'timestamp'
p7
aF3.745332956314087
aatp8
Rp9
.ccollections
OrderedDict
p0
((lp1
(lp2
S'state'
p3
aI400
aa(lp4
S'distance'
p5
aF272.15699768066406
aa(lp6
S'timestamp'
p7
aF3.7550199031829834
aatp8
Rp9
.ccollections
OrderedDict
p0
((lp1
(lp2
S'state'
p3
aI400
aa(lp4
S'distance'
p5
aF272.15699768066406
aa(lp6
S'timestamp'
p7
aF3.7551069259643555
aatp8
Rp9
.ccollections
OrderedDict
p0
((lp1
(lp2
S'state'
p3
aI400
aa(lp4
S'distance'
p5
aF272.15699768066406
aa(lp6
S'timestamp'
p7
aF3.7649519443511963
aatp8
Rp9
.ccollections
OrderedDict
p0
((lp1
(lp2
S'state'
p3
aI400
aa(lp4
S'distance'
p5
aF272.15699768066406
aa(lp6
S'timestamp'
p7
aF3.76652193069458
aatp8
Rp9
.ccollections
OrderedDict
p0
((lp1
(lp2
S'state'
p3
aI400
aa(lp4
S'distance'
p5
aF272.15699768066406
aa(lp6
S'timestamp'
p7
aF3.77469801902771
aatp8
Rp9
.ccollections
OrderedDict
p0
((lp1
(lp2
S'state'
p3
aI400
aa(lp4
S'distance'
p5
aF272.15699768066406
aa(lp6
S'timestamp'
p7
aF3.7849669456481934
aatp8
Rp9
.ccollections
OrderedDict
p0
((lp1
(lp2
S'state'
p3
aI400
aa(lp4
S'distance'
p5
aF272.15699768066406
aa(lp6
S'timestamp'
p7
aF3.7850470542907715
aatp8
Rp9
.ccollections
OrderedDict
p0
((lp1
(lp2
S'state'
p3
aI400
aa(lp4
S'distance'
p5
aF272.15699768066406
aa(lp6
S'timestamp'
p7
aF3.7860748767852783
aatp8
Rp9
.ccollections
OrderedDict
p0
((lp1
(lp2
S'state'
p3
aI400
aa(lp4
S'distance'
p5
aF272.15699768066406
aa(lp6
S'timestamp'
p7
aF3.7945799827575684
aatp8
Rp9
.ccollections
OrderedDict
p0
((lp1
(lp2
S'state'
p3
aI400
aa(lp4
S'distance'
p5
aF272.15699768066406
aa(lp6
S'timestamp'
p7
aF3.7954509258270264
aatp8
Rp9
.ccollections
OrderedDict
p0
((lp1
(lp2
S'state'
p3
aI400
aa(lp4
S'distance'
p5
aF272.15699768066406
aa(lp6
S'timestamp'
p7
aF3.8045690059661865
aatp8
Rp9
.ccollections
OrderedDict
p0
((lp1
(lp2
S'state'
p3
aI400
aa(lp4
S'distance'
p5
aF272.15699768066406
aa(lp6
S'timestamp'
p7
aF3.805567979812622
aatp8
Rp9
.ccollections
OrderedDict
p0
((lp1
(lp2
S'state'
p3
aI400
aa(lp4
S'distance'
p5
aF272.15699768066406
aa(lp6
S'timestamp'
p7
aF3.8145430088043213
aatp8
Rp9
.ccollections
OrderedDict
p0
((lp1
(lp2
S'state'
p3
aI400
aa(lp4
S'distance'
p5
aF272.15699768066406
aa(lp6
S'timestamp'
p7
aF3.815458059310913
aatp8
Rp9
.ccollections
OrderedDict
p0
((lp1
(lp2
S'state'
p3
aI400
aa(lp4
S'distance'
p5
aF272.15699768066406
aa(lp6
S'timestamp'
p7
aF3.8246078491210938
aatp8
Rp9
.ccollections
OrderedDict
p0
((lp1
(lp2
S'state'
p3
aI400
aa(lp4
S'distance'
p5
aF272.15699768066406
aa(lp6
S'timestamp'
p7
aF3.825387954711914
aatp8
Rp9
.ccollections
OrderedDict
p0
((lp1
(lp2
S'state'
p3
aI400
aa(lp4
S'distance'
p5
aF272.15699768066406
aa(lp6
S'timestamp'
p7
aF3.8348748683929443
aatp8
Rp9
.ccollections
OrderedDict
p0
((lp1
(lp2
S'state'
p3
aI400
aa(lp4
S'distance'
p5
aF272.15699768066406
aa(lp6
S'timestamp'
p7
aF3.835145950317383
aatp8
Rp9
.ccollections
OrderedDict
p0
((lp1
(lp2
S'state'
p3
aI400
aa(lp4
S'distance'
p5
aF272.15699768066406
aa(lp6
S'timestamp'
p7
aF3.8446199893951416
aatp8
Rp9
.ccollections
OrderedDict
p0
((lp1
(lp2
S'state'
p3
aI400
aa(lp4
S'distance'
p5
aF272.15699768066406
aa(lp6
S'timestamp'
p7
aF3.8454818725585938
aatp8
Rp9
.ccollections
OrderedDict
p0
((lp1
(lp2
S'state'
p3
aI0
aa(lp4
S'distance'
p5
aF272.15699768066406
aa(lp6
S'timestamp'
p7
aF3.854733943939209
aatp8
Rp9
.ccollections
OrderedDict
p0
((lp1
(lp2
S'state'
p3
aI0
aa(lp4
S'distance'
p5
aF155.79932022094727
aa(lp6
S'timestamp'
p7
aF4.425745964050293
aatp8
Rp9
.ccollections
OrderedDict
p0
((lp1
(lp2
S'state'
p3
aI0
aa(lp4
S'distance'
p5
aF155.79932022094727
aa(lp6
S'timestamp'
p7
aF4.434754848480225
aatp8
Rp9
.ccollections
OrderedDict
p0
((lp1
(lp2
S'state'
p3
aI0
aa(lp4
S'distance'
p5
aF155.79932022094727
aa(lp6
S'timestamp'
p7
aF4.435740947723389
aatp8
Rp9
.ccollections
OrderedDict
p0
((lp1
(lp2
S'state'
p3
aI0
aa(lp4
S'distance'
p5
aF155.79932022094727
aa(lp6
S'timestamp'
p7
aF4.444783926010132
aatp8
Rp9
.ccollections
OrderedDict
p0
((lp1
(lp2
S'state'
p3
aI0
aa(lp4
S'distance'
p5
aF155.79932022094727
aa(lp6
S'timestamp'
p7
aF4.445529937744141
aatp8
Rp9
.ccollections
OrderedDict
p0
((lp1
(lp2
S'state'
p3
aI0
aa(lp4
S'distance'
p5
aF155.79932022094727
aa(lp6
S'timestamp'
p7
aF4.4546380043029785
aatp8
Rp9
.ccollections
OrderedDict
p0
((lp1
(lp2
S'state'
p3
aI0
aa(lp4
S'distance'
p5
aF155.79932022094727
aa(lp6
S'timestamp'
p7
aF4.455550909042358
aatp8
Rp9
.ccollections
OrderedDict
p0
((lp1
(lp2
S'state'
p3
aI0
aa(lp4
S'distance'
p5
aF155.79932022094727
aa(lp6
S'timestamp'
p7
aF4.464585065841675
aatp8
Rp9
.ccollections
OrderedDict
p0
((lp1
(lp2
S'state'
p3
aI0
aa(lp4
S'distance'
p5
aF155.79932022094727
aa(lp6
S'timestamp'
p7
aF4.46558403968811
aatp8
Rp9
.ccollections
OrderedDict
p0
((lp1
(lp2
S'state'
p3
aI0
aa(lp4
S'distance'
p5
aF155.79932022094727
aa(lp6
S'timestamp'
p7
aF4.474822044372559
aatp8
Rp9
.ccollections
OrderedDict
p0
((lp1
(lp2
S'state'
p3
aI0
aa(lp4
S'distance'
p5
aF155.79932022094727
aa(lp6
S'timestamp'
p7
aF4.475367069244385
aatp8
Rp9
.ccollections
OrderedDict
p0
((lp1
(lp2
S'state'
p3
aI0
aa(lp4
S'distance'
p5
aF155.79932022094727
aa(lp6
S'timestamp'
p7
aF4.484700918197632
aatp8
Rp9
.ccollections
OrderedDict
p0
((lp1
(lp2
S'state'
p3
aI0
aa(lp4
S'distance'
p5
aF155.79932022094727
aa(lp6
S'timestamp'
p7
aF4.485370874404907
aatp8
Rp9
.ccollections
OrderedDict
p0
((lp1
(lp2
S'state'
p3
aI0
aa(lp4
S'distance'
p5
aF155.79932022094727
aa(lp6
S'timestamp'
p7
aF4.49468994140625
aatp8
Rp9
.ccollections
OrderedDict
p0
((lp1
(lp2
S'state'
p3
aI0
aa(lp4
S'distance'
p5
aF155.79932022094727
aa(lp6
S'timestamp'
p7
aF4.495367050170898
aatp8
Rp9
.ccollections
OrderedDict
p0
((lp1
(lp2
S'state'
p3
aI0
aa(lp4
S'distance'
p5
aF155.79932022094727
aa(lp6
S'timestamp'
p7
aF4.504683017730713
aatp8
Rp9
.ccollections
OrderedDict
p0
((lp1
(lp2
S'state'
p3
aI0
aa(lp4
S'distance'
p5
aF155.79932022094727
aa(lp6
S'timestamp'
p7
aF4.5054590702056885
aatp8
Rp9
.ccollections
OrderedDict
p0
((lp1
(lp2
S'state'
p3
aI0
aa(lp4
S'distance'
p5
aF155.79932022094727
aa(lp6
S'timestamp'
p7
aF4.524641036987305
aatp8
Rp9
.ccollections
OrderedDict
p0
((lp1
(lp2
S'state'
p3
aI0
aa(lp4
S'distance'
p5
aF155.79932022094727
aa(lp6
S'timestamp'
p7
aF4.525686979293823
aatp8
Rp9
.ccollections
OrderedDict
p0
((lp1
(lp2
S'state'
p3
aI0
aa(lp4
S'distance'
p5
aF155.79932022094727
aa(lp6
S'timestamp'
p7
aF4.525800943374634
aatp8
Rp9
.ccollections
OrderedDict
p0
((lp1
(lp2
S'state'
p3
aI0
aa(lp4
S'distance'
p5
aF155.79932022094727
aa(lp6
S'timestamp'
p7
aF4.534591913223267
aatp8
Rp9
.ccollections
OrderedDict
p0
((lp1
(lp2
S'state'
p3
aI0
aa(lp4
S'distance'
p5
aF155.79932022094727
aa(lp6
S'timestamp'
p7
aF4.535642862319946
aatp8
Rp9
.ccollections
OrderedDict
p0
((lp1
(lp2
S'state'
p3
aI0
aa(lp4
S'distance'
p5
aF155.79932022094727
aa(lp6
S'timestamp'
p7
aF4.535979986190796
aatp8
Rp9
.ccollections
OrderedDict
p0
((lp1
(lp2
S'state'
p3
aI0
aa(lp4
S'distance'
p5
aF155.79932022094727
aa(lp6
S'timestamp'
p7
aF4.544589996337891
aatp8
Rp9
.ccollections
OrderedDict
p0
((lp1
(lp2
S'state'
p3
aI0
aa(lp4
S'distance'
p5
aF155.79932022094727
aa(lp6
S'timestamp'
p7
aF4.545352935791016
aatp8
Rp9
.ccollections
OrderedDict
p0
((lp1
(lp2
S'state'
p3
aI0
aa(lp4
S'distance'
p5
aF155.79932022094727
aa(lp6
S'timestamp'
p7
aF4.555238962173462
aatp8
Rp9
.ccollections
OrderedDict
p0
((lp1
(lp2
S'state'
p3
aI0
aa(lp4
S'distance'
p5
aF155.79932022094727
aa(lp6
S'timestamp'
p7
aF4.55535888671875
aatp8
Rp9
.ccollections
OrderedDict
p0
((lp1
(lp2
S'state'
p3
aI0
aa(lp4
S'distance'
p5
aF155.79932022094727
aa(lp6
S'timestamp'
p7
aF4.564905881881714
aatp8
Rp9
.ccollections
OrderedDict
p0
((lp1
(lp2
S'state'
p3
aI0
aa(lp4
S'distance'
p5
aF155.79932022094727
aa(lp6
S'timestamp'
p7
aF4.565435886383057
aatp8
Rp9
.ccollections
OrderedDict
p0
((lp1
(lp2
S'state'
p3
aI0
aa(lp4
S'distance'
p5
aF155.79932022094727
aa(lp6
S'timestamp'
p7
aF4.57483696937561
aatp8
Rp9
.ccollections
OrderedDict
p0
((lp1
(lp2
S'state'
p3
aI0
aa(lp4
S'distance'
p5
aF155.79932022094727
aa(lp6
S'timestamp'
p7
aF4.575679063796997
aatp8
Rp9
.ccollections
OrderedDict
p0
((lp1
(lp2
S'state'
p3
aI0
aa(lp4
S'distance'
p5
aF155.79932022094727
aa(lp6
S'timestamp'
p7
aF4.5848228931427
aatp8
Rp9
.ccollections
OrderedDict
p0
((lp1
(lp2
S'state'
p3
aI0
aa(lp4
S'distance'
p5
aF155.79932022094727
aa(lp6
S'timestamp'
p7
aF4.58535099029541
aatp8
Rp9
.ccollections
OrderedDict
p0
((lp1
(lp2
S'state'
p3
aI0
aa(lp4
S'distance'
p5
aF155.79932022094727
aa(lp6
S'timestamp'
p7
aF4.595533847808838
aatp8
Rp9
.ccollections
OrderedDict
p0
((lp1
(lp2
S'state'
p3
aI0
aa(lp4
S'distance'
p5
aF155.79932022094727
aa(lp6
S'timestamp'
p7
aF4.595700025558472
aatp8
Rp9
.ccollections
OrderedDict
p0
((lp1
(lp2
S'state'
p3
aI0
aa(lp4
S'distance'
p5
aF155.79932022094727
aa(lp6
S'timestamp'
p7
aF4.604779005050659
aatp8
Rp9
.ccollections
OrderedDict
p0
((lp1
(lp2
S'state'
p3
aI0
aa(lp4
S'distance'
p5
aF155.79932022094727
aa(lp6
S'timestamp'
p7
aF4.605434894561768
aatp8
Rp9
.ccollections
OrderedDict
p0
((lp1
(lp2
S'state'
p3
aI0
aa(lp4
S'distance'
p5
aF155.79932022094727
aa(lp6
S'timestamp'
p7
aF4.614929914474487
aatp8
Rp9
.ccollections
OrderedDict
p0
((lp1
(lp2
S'state'
p3
aI0
aa(lp4
S'distance'
p5
aF155.79932022094727
aa(lp6
S'timestamp'
p7
aF4.615280866622925
aatp8
Rp9
.ccollections
OrderedDict
p0
((lp1
(lp2
S'state'
p3
aI0
aa(lp4
S'distance'
p5
aF155.79932022094727
aa(lp6
S'timestamp'
p7
aF4.62483286857605
aatp8
Rp9
.ccollections
OrderedDict
p0
((lp1
(lp2
S'state'
p3
aI0
aa(lp4
S'distance'
p5
aF155.79932022094727
aa(lp6
S'timestamp'
p7
aF4.625366926193237
aatp8
Rp9
.ccollections
OrderedDict
p0
((lp1
(lp2
S'state'
p3
aI0
aa(lp4
S'distance'
p5
aF155.79932022094727
aa(lp6
S'timestamp'
p7
aF4.634822845458984
aatp8
Rp9
.ccollections
OrderedDict
p0
((lp1
(lp2
S'state'
p3
aI0
aa(lp4
S'distance'
p5
aF155.79932022094727
aa(lp6
S'timestamp'
p7
aF4.635372877120972
aatp8
Rp9
.ccollections
OrderedDict
p0
((lp1
(lp2
S'state'
p3
aI0
aa(lp4
S'distance'
p5
aF155.79932022094727
aa(lp6
S'timestamp'
p7
aF4.644757986068726
aatp8
Rp9
.ccollections
OrderedDict
p0
((lp1
(lp2
S'state'
p3
aI0
aa(lp4
S'distance'
p5
aF155.79932022094727
aa(lp6
S'timestamp'
p7
aF4.6454949378967285
aatp8
Rp9
.ccollections
OrderedDict
p0
((lp1
(lp2
S'state'
p3
aI0
aa(lp4
S'distance'
p5
aF155.79932022094727
aa(lp6
S'timestamp'
p7
aF4.65500807762146
aatp8
Rp9
.ccollections
OrderedDict
p0
((lp1
(lp2
S'state'
p3
aI0
aa(lp4
S'distance'
p5
aF155.79932022094727
aa(lp6
S'timestamp'
p7
aF4.655751943588257
aatp8
Rp9
.ccollections
OrderedDict
p0
((lp1
(lp2
S'state'
p3
aI0
aa(lp4
S'distance'
p5
aF155.79932022094727
aa(lp6
S'timestamp'
p7
aF4.664597034454346
aatp8
Rp9
.ccollections
OrderedDict
p0
((lp1
(lp2
S'state'
p3
aI0
aa(lp4
S'distance'
p5
aF155.79932022094727
aa(lp6
S'timestamp'
p7
aF4.665302991867065
aatp8
Rp9
.ccollections
OrderedDict
p0
((lp1
(lp2
S'state'
p3
aI0
aa(lp4
S'distance'
p5
aF155.79932022094727
aa(lp6
S'timestamp'
p7
aF4.674757957458496
aatp8
Rp9
.ccollections
OrderedDict
p0
((lp1
(lp2
S'state'
p3
aI0
aa(lp4
S'distance'
p5
aF155.79932022094727
aa(lp6
S'timestamp'
p7
aF4.6755359172821045
aatp8
Rp9
.ccollections
OrderedDict
p0
((lp1
(lp2
S'state'
p3
aI0
aa(lp4
S'distance'
p5
aF155.79932022094727
aa(lp6
S'timestamp'
p7
aF4.684942960739136
aatp8
Rp9
.ccollections
OrderedDict
p0
((lp1
(lp2
S'state'
p3
aI0
aa(lp4
S'distance'
p5
aF155.79932022094727
aa(lp6
S'timestamp'
p7
aF4.6855149269104
aatp8
Rp9
.ccollections
OrderedDict
p0
((lp1
(lp2
S'state'
p3
aI0
aa(lp4
S'distance'
p5
aF155.79932022094727
aa(lp6
S'timestamp'
p7
aF4.6954100131988525
aatp8
Rp9
.ccollections
OrderedDict
p0
((lp1
(lp2
S'state'
p3
aI0
aa(lp4
S'distance'
p5
aF155.79932022094727
aa(lp6
S'timestamp'
p7
aF4.695631980895996
aatp8
Rp9
.ccollections
OrderedDict
p0
((lp1
(lp2
S'state'
p3
aI0
aa(lp4
S'distance'
p5
aF155.79932022094727
aa(lp6
S'timestamp'
p7
aF4.7046918869018555
aatp8
Rp9
.ccollections
OrderedDict
p0
((lp1
(lp2
S'state'
p3
aI0
aa(lp4
S'distance'
p5
aF155.79932022094727
aa(lp6
S'timestamp'
p7
aF4.705302000045776
aatp8
Rp9
.ccollections
OrderedDict
p0
((lp1
(lp2
S'state'
p3
aI0
aa(lp4
S'distance'
p5
aF155.79932022094727
aa(lp6
S'timestamp'
p7
aF4.715173959732056
aatp8
Rp9
.ccollections
OrderedDict
p0
((lp1
(lp2
S'state'
p3
aI0
aa(lp4
S'distance'
p5
aF155.79932022094727
aa(lp6
S'timestamp'
p7
aF4.715291976928711
aatp8
Rp9
.ccollections
OrderedDict
p0
((lp1
(lp2
S'state'
p3
aI0
aa(lp4
S'distance'
p5
aF155.79932022094727
aa(lp6
S'timestamp'
p7
aF4.724969863891602
aatp8
Rp9
.ccollections
OrderedDict
p0
((lp1
(lp2
S'state'
p3
aI0
aa(lp4
S'distance'
p5
aF155.79932022094727
aa(lp6
S'timestamp'
p7
aF4.725327968597412
aatp8
Rp9
.ccollections
OrderedDict
p0
((lp1
(lp2
S'state'
p3
aI0
aa(lp4
S'distance'
p5
aF155.79932022094727
aa(lp6
S'timestamp'
p7
aF4.735997915267944
aatp8
Rp9
.ccollections
OrderedDict
p0
((lp1
(lp2
S'state'
p3
aI0
aa(lp4
S'distance'
p5
aF155.79932022094727
aa(lp6
S'timestamp'
p7
aF4.736407995223999
aatp8
Rp9
.ccollections
OrderedDict
p0
((lp1
(lp2
S'state'
p3
aI0
aa(lp4
S'distance'
p5
aF155.79932022094727
aa(lp6
S'timestamp'
p7
aF4.7445268630981445
aatp8
Rp9
.ccollections
OrderedDict
p0
((lp1
(lp2
S'state'
p3
aI0
aa(lp4
S'distance'
p5
aF155.79932022094727
aa(lp6
S'timestamp'
p7
aF4.745281934738159
aatp8
Rp9
.ccollections
OrderedDict
p0
((lp1
(lp2
S'state'
p3
aI0
aa(lp4
S'distance'
p5
aF155.79932022094727
aa(lp6
S'timestamp'
p7
aF4.7551820278167725
aatp8
Rp9
.ccollections
OrderedDict
p0
((lp1
(lp2
S'state'
p3
aI0
aa(lp4
S'distance'
p5
aF155.79932022094727
aa(lp6
S'timestamp'
p7
aF4.755307912826538
aatp8
Rp9
.ccollections
OrderedDict
p0
((lp1
(lp2
S'state'
p3
aI0
aa(lp4
S'distance'
p5
aF155.79932022094727
aa(lp6
S'timestamp'
p7
aF4.7646870613098145
aatp8
Rp9
.ccollections
OrderedDict
p0
((lp1
(lp2
S'state'
p3
aI0
aa(lp4
S'distance'
p5
aF155.79932022094727
aa(lp6
S'timestamp'
p7
aF4.765373945236206
aatp8
Rp9
.ccollections
OrderedDict
p0
((lp1
(lp2
S'state'
p3
aI0
aa(lp4
S'distance'
p5
aF155.79932022094727
aa(lp6
S'timestamp'
p7
aF4.775315999984741
aatp8
Rp9
.ccollections
OrderedDict
p0
((lp1
(lp2
S'state'
p3
aI0
aa(lp4
S'distance'
p5
aF155.79932022094727
aa(lp6
S'timestamp'
p7
aF4.775438070297241
aatp8
Rp9
.ccollections
OrderedDict
p0
((lp1
(lp2
S'state'
p3
aI0
aa(lp4
S'distance'
p5
aF155.79932022094727
aa(lp6
S'timestamp'
p7
aF4.784893035888672
aatp8
Rp9
.ccollections
OrderedDict
p0
((lp1
(lp2
S'state'
p3
aI0
aa(lp4
S'distance'
p5
aF155.79932022094727
aa(lp6
S'timestamp'
p7
aF4.785474061965942
aatp8
Rp9
.ccollections
OrderedDict
p0
((lp1
(lp2
S'state'
p3
aI400
aa(lp4
S'distance'
p5
aF155.79932022094727
aa(lp6
S'timestamp'
p7
aF4.855663061141968
aatp8
Rp9
.ccollections
OrderedDict
p0
((lp1
(lp2
S'state'
p3
aI400
aa(lp4
S'distance'
p5
aF155.79932022094727
aa(lp6
S'timestamp'
p7
aF4.856137037277222
aatp8
Rp9
.ccollections
OrderedDict
p0
((lp1
(lp2
S'state'
p3
aI400
aa(lp4
S'distance'
p5
aF155.79932022094727
aa(lp6
S'timestamp'
p7
aF4.857040882110596
aatp8
Rp9
.ccollections
OrderedDict
p0
((lp1
(lp2
S'state'
p3
aI400
aa(lp4
S'distance'
p5
aF155.79932022094727
aa(lp6
S'timestamp'
p7
aF4.858654975891113
aatp8
Rp9
.ccollections
OrderedDict
p0
((lp1
(lp2
S'state'
p3
aI400
aa(lp4
S'distance'
p5
aF155.79932022094727
aa(lp6
S'timestamp'
p7
aF4.859785079956055
aatp8
Rp9
.ccollections
OrderedDict
p0
((lp1
(lp2
S'state'
p3
aI400
aa(lp4
S'distance'
p5
aF155.79932022094727
aa(lp6
S'timestamp'
p7
aF4.860486030578613
aatp8
Rp9
.ccollections
OrderedDict
p0
((lp1
(lp2
S'state'
p3
aI400
aa(lp4
S'distance'
p5
aF155.79932022094727
aa(lp6
S'timestamp'
p7
aF4.860918998718262
aatp8
Rp9
.ccollections
OrderedDict
p0
((lp1
(lp2
S'state'
p3
aI400
aa(lp4
S'distance'
p5
aF155.79932022094727
aa(lp6
S'timestamp'
p7
aF4.861057996749878
aatp8
Rp9
.ccollections
OrderedDict
p0
((lp1
(lp2
S'state'
p3
aI400
aa(lp4
S'distance'
p5
aF155.79932022094727
aa(lp6
S'timestamp'
p7
aF4.861130952835083
aatp8
Rp9
.ccollections
OrderedDict
p0
((lp1
(lp2
S'state'
p3
aI400
aa(lp4
S'distance'
p5
aF155.79932022094727
aa(lp6
S'timestamp'
p7
aF4.861250877380371
aatp8
Rp9
.ccollections
OrderedDict
p0
((lp1
(lp2
S'state'
p3
aI400
aa(lp4
S'distance'
p5
aF155.79932022094727
aa(lp6
S'timestamp'
p7
aF4.861361026763916
aatp8
Rp9
.ccollections
OrderedDict
p0
((lp1
(lp2
S'state'
p3
aI400
aa(lp4
S'distance'
p5
aF155.79932022094727
aa(lp6
S'timestamp'
p7
aF4.86535906791687
aatp8
Rp9
.ccollections
OrderedDict
p0
((lp1
(lp2
S'state'
p3
aI400
aa(lp4
S'distance'
p5
aF155.79932022094727
aa(lp6
S'timestamp'
p7
aF4.8654890060424805
aatp8
Rp9
.ccollections
OrderedDict
p0
((lp1
(lp2
S'state'
p3
aI400
aa(lp4
S'distance'
p5
aF155.79932022094727
aa(lp6
S'timestamp'
p7
aF4.8679468631744385
aatp8
Rp9
.ccollections
OrderedDict
p0
((lp1
(lp2
S'state'
p3
aI400
aa(lp4
S'distance'
p5
aF155.79932022094727
aa(lp6
S'timestamp'
p7
aF4.868290901184082
aatp8
Rp9
.ccollections
OrderedDict
p0
((lp1
(lp2
S'state'
p3
aI400
aa(lp4
S'distance'
p5
aF155.79932022094727
aa(lp6
S'timestamp'
p7
aF4.868430852890015
aatp8
Rp9
.ccollections
OrderedDict
p0
((lp1
(lp2
S'state'
p3
aI400
aa(lp4
S'distance'
p5
aF155.79932022094727
aa(lp6
S'timestamp'
p7
aF4.8764379024505615
aatp8
Rp9
.ccollections
OrderedDict
p0
((lp1
(lp2
S'state'
p3
aI400
aa(lp4
S'distance'
p5
aF155.79932022094727
aa(lp6
S'timestamp'
p7
aF4.879770040512085
aatp8
Rp9
.ccollections
OrderedDict
p0
((lp1
(lp2
S'state'
p3
aI400
aa(lp4
S'distance'
p5
aF155.79932022094727
aa(lp6
S'timestamp'
p7
aF4.892519950866699
aatp8
Rp9
.ccollections
OrderedDict
p0
((lp1
(lp2
S'state'
p3
aI400
aa(lp4
S'distance'
p5
aF155.79932022094727
aa(lp6
S'timestamp'
p7
aF4.892822980880737
aatp8
Rp9
.ccollections
OrderedDict
p0
((lp1
(lp2
S'state'
p3
aI400
aa(lp4
S'distance'
p5
aF155.79932022094727
aa(lp6
S'timestamp'
p7
aF4.897765874862671
aatp8
Rp9
.ccollections
OrderedDict
p0
((lp1
(lp2
S'state'
p3
aI400
aa(lp4
S'distance'
p5
aF155.79932022094727
aa(lp6
S'timestamp'
p7
aF4.897937059402466
aatp8
Rp9
.ccollections
OrderedDict
p0
((lp1
(lp2
S'state'
p3
aI400
aa(lp4
S'distance'
p5
aF155.79932022094727
aa(lp6
S'timestamp'
p7
aF4.905518054962158
aatp8
Rp9
.ccollections
OrderedDict
p0
((lp1
(lp2
S'state'
p3
aI400
aa(lp4
S'distance'
p5
aF155.79932022094727
aa(lp6
S'timestamp'
p7
aF4.906899929046631
aatp8
Rp9
.ccollections
OrderedDict
p0
((lp1
(lp2
S'state'
p3
aI400
aa(lp4
S'distance'
p5
aF155.79932022094727
aa(lp6
S'timestamp'
p7
aF4.917374849319458
aatp8
Rp9
.ccollections
OrderedDict
p0
((lp1
(lp2
S'state'
p3
aI400
aa(lp4
S'distance'
p5
aF155.79932022094727
aa(lp6
S'timestamp'
p7
aF4.917510032653809
aatp8
Rp9
.ccollections
OrderedDict
p0
((lp1
(lp2
S'state'
p3
aI400
aa(lp4
S'distance'
p5
aF155.79932022094727
aa(lp6
S'timestamp'
p7
aF4.924880027770996
aatp8
Rp9
.ccollections
OrderedDict
p0
((lp1
(lp2
S'state'
p3
aI400
aa(lp4
S'distance'
p5
aF155.79932022094727
aa(lp6
S'timestamp'
p7
aF4.926054000854492
aatp8
Rp9
.ccollections
OrderedDict
p0
((lp1
(lp2
S'state'
p3
aI400
aa(lp4
S'distance'
p5
aF155.79932022094727
aa(lp6
S'timestamp'
p7
aF4.935149908065796
aatp8
Rp9
.ccollections
OrderedDict
p0
((lp1
(lp2
S'state'
p3
aI400
aa(lp4
S'distance'
p5
aF155.79932022094727
aa(lp6
S'timestamp'
p7
aF4.935754060745239
aatp8
Rp9
.ccollections
OrderedDict
p0
((lp1
(lp2
S'state'
p3
aI400
aa(lp4
S'distance'
p5
aF155.79932022094727
aa(lp6
S'timestamp'
p7
aF4.945172071456909
aatp8
Rp9
.ccollections
OrderedDict
p0
((lp1
(lp2
S'state'
p3
aI400
aa(lp4
S'distance'
p5
aF155.79932022094727
aa(lp6
S'timestamp'
p7
aF4.946238994598389
aatp8
Rp9
.ccollections
OrderedDict
p0
((lp1
(lp2
S'state'
p3
aI400
aa(lp4
S'distance'
p5
aF155.79932022094727
aa(lp6
S'timestamp'
p7
aF4.954936981201172
aatp8
Rp9
.ccollections
OrderedDict
p0
((lp1
(lp2
S'state'
p3
aI400
aa(lp4
S'distance'
p5
aF155.79932022094727
aa(lp6
S'timestamp'
p7
aF4.955330848693848
aatp8
Rp9
.ccollections
OrderedDict
p0
((lp1
(lp2
S'state'
p3
aI400
aa(lp4
S'distance'
p5
aF155.79932022094727
aa(lp6
S'timestamp'
p7
aF4.965385913848877
aatp8
Rp9
.ccollections
OrderedDict
p0
((lp1
(lp2
S'state'
p3
aI400
aa(lp4
S'distance'
p5
aF155.79932022094727
aa(lp6
S'timestamp'
p7
aF4.965501070022583
aatp8
Rp9
.ccollections
OrderedDict
p0
((lp1
(lp2
S'state'
p3
aI400
aa(lp4
S'distance'
p5
aF155.79932022094727
aa(lp6
S'timestamp'
p7
aF4.974791049957275
aatp8
Rp9
.ccollections
OrderedDict
p0
((lp1
(lp2
S'state'
p3
aI400
aa(lp4
S'distance'
p5
aF155.79932022094727
aa(lp6
S'timestamp'
p7
aF4.975496053695679
aatp8
Rp9
.ccollections
OrderedDict
p0
((lp1
(lp2
S'state'
p3
aI400
aa(lp4
S'distance'
p5
aF155.79932022094727
aa(lp6
S'timestamp'
p7
aF4.9849488735198975
aatp8
Rp9
.ccollections
OrderedDict
p0
((lp1
(lp2
S'state'
p3
aI400
aa(lp4
S'distance'
p5
aF155.79932022094727
aa(lp6
S'timestamp'
p7
aF4.985305070877075
aatp8
Rp9
.ccollections
OrderedDict
p0
((lp1
(lp2
S'state'
p3
aI400
aa(lp4
S'distance'
p5
aF155.79932022094727
aa(lp6
S'timestamp'
p7
aF4.994956970214844
aatp8
Rp9
.ccollections
OrderedDict
p0
((lp1
(lp2
S'state'
p3
aI400
aa(lp4
S'distance'
p5
aF155.79932022094727
aa(lp6
S'timestamp'
p7
aF4.99539589881897
aatp8
Rp9
.ccollections
OrderedDict
p0
((lp1
(lp2
S'state'
p3
aI400
aa(lp4
S'distance'
p5
aF155.79932022094727
aa(lp6
S'timestamp'
p7
aF5.005192041397095
aatp8
Rp9
.ccollections
OrderedDict
p0
((lp1
(lp2
S'state'
p3
aI400
aa(lp4
S'distance'
p5
aF155.79932022094727
aa(lp6
S'timestamp'
p7
aF5.005316972732544
aatp8
Rp9
.ccollections
OrderedDict
p0
((lp1
(lp2
S'state'
p3
aI400
aa(lp4
S'distance'
p5
aF155.79932022094727
aa(lp6
S'timestamp'
p7
aF5.014770984649658
aatp8
Rp9
.ccollections
OrderedDict
p0
((lp1
(lp2
S'state'
p3
aI400
aa(lp4
S'distance'
p5
aF155.79932022094727
aa(lp6
S'timestamp'
p7
aF5.015279054641724
aatp8
Rp9
.ccollections
OrderedDict
p0
((lp1
(lp2
S'state'
p3
aI400
aa(lp4
S'distance'
p5
aF155.79932022094727
aa(lp6
S'timestamp'
p7
aF5.024991989135742
aatp8
Rp9
.ccollections
OrderedDict
p0
((lp1
(lp2
S'state'
p3
aI400
aa(lp4
S'distance'
p5
aF155.79932022094727
aa(lp6
S'timestamp'
p7
aF5.025315999984741
aatp8
Rp9
.ccollections
OrderedDict
p0
((lp1
(lp2
S'state'
p3
aI400
aa(lp4
S'distance'
p5
aF155.79932022094727
aa(lp6
S'timestamp'
p7
aF5.034975051879883
aatp8
Rp9
.ccollections
OrderedDict
p0
((lp1
(lp2
S'state'
p3
aI400
aa(lp4
S'distance'
p5
aF155.79932022094727
aa(lp6
S'timestamp'
p7
aF5.035515069961548
aatp8
Rp9
.ccollections
OrderedDict
p0
((lp1
(lp2
S'state'
p3
aI400
aa(lp4
S'distance'
p5
aF155.79932022094727
aa(lp6
S'timestamp'
p7
aF5.045289039611816
aatp8
Rp9
.ccollections
OrderedDict
p0
((lp1
(lp2
S'state'
p3
aI400
aa(lp4
S'distance'
p5
aF155.79932022094727
aa(lp6
S'timestamp'
p7
aF5.045409917831421
aatp8
Rp9
.ccollections
OrderedDict
p0
((lp1
(lp2
S'state'
p3
aI400
aa(lp4
S'distance'
p5
aF155.79932022094727
aa(lp6
S'timestamp'
p7
aF5.054795980453491
aatp8
Rp9
.ccollections
OrderedDict
p0
((lp1
(lp2
S'state'
p3
aI400
aa(lp4
S'distance'
p5
aF155.79932022094727
aa(lp6
S'timestamp'
p7
aF5.0554518699646
aatp8
Rp9
.ccollections
OrderedDict
p0
((lp1
(lp2
S'state'
p3
aI400
aa(lp4
S'distance'
p5
aF155.79932022094727
aa(lp6
S'timestamp'
p7
aF5.06474494934082
aatp8
Rp9
.ccollections
OrderedDict
p0
((lp1
(lp2
S'state'
p3
aI400
aa(lp4
S'distance'
p5
aF155.79932022094727
aa(lp6
S'timestamp'
p7
aF5.065631866455078
aatp8
Rp9
.ccollections
OrderedDict
p0
((lp1
(lp2
S'state'
p3
aI400
aa(lp4
S'distance'
p5
aF155.79932022094727
aa(lp6
S'timestamp'
p7
aF5.074954986572266
aatp8
Rp9
.ccollections
OrderedDict
p0
((lp1
(lp2
S'state'
p3
aI400
aa(lp4
S'distance'
p5
aF155.79932022094727
aa(lp6
S'timestamp'
p7
aF5.0753209590911865
aatp8
Rp9
.ccollections
OrderedDict
p0
((lp1
(lp2
S'state'
p3
aI400
aa(lp4
S'distance'
p5
aF155.79932022094727
aa(lp6
S'timestamp'
p7
aF5.08516001701355
aatp8
Rp9
.ccollections
OrderedDict
p0
((lp1
(lp2
S'state'
p3
aI400
aa(lp4
S'distance'
p5
aF155.79932022094727
aa(lp6
S'timestamp'
p7
aF5.085274934768677
aatp8
Rp9
.ccollections
OrderedDict
p0
((lp1
(lp2
S'state'
p3
aI400
aa(lp4
S'distance'
p5
aF155.79932022094727
aa(lp6
S'timestamp'
p7
aF5.095396041870117
aatp8
Rp9
.ccollections
OrderedDict
p0
((lp1
(lp2
S'state'
p3
aI400
aa(lp4
S'distance'
p5
aF155.79932022094727
aa(lp6
S'timestamp'
p7
aF5.095609903335571
aatp8
Rp9
.ccollections
OrderedDict
p0
((lp1
(lp2
S'state'
p3
aI400
aa(lp4
S'distance'
p5
aF155.79932022094727
aa(lp6
S'timestamp'
p7
aF5.104809045791626
aatp8
Rp9
.ccollections
OrderedDict
p0
((lp1
(lp2
S'state'
p3
aI400
aa(lp4
S'distance'
p5
aF155.79932022094727
aa(lp6
S'timestamp'
p7
aF5.105445861816406
aatp8
Rp9
.ccollections
OrderedDict
p0
((lp1
(lp2
S'state'
p3
aI400
aa(lp4
S'distance'
p5
aF155.79932022094727
aa(lp6
S'timestamp'
p7
aF5.115480899810791
aatp8
Rp9
.ccollections
OrderedDict
p0
((lp1
(lp2
S'state'
p3
aI400
aa(lp4
S'distance'
p5
aF155.79932022094727
aa(lp6
S'timestamp'
p7
aF5.115601062774658
aatp8
Rp9
.ccollections
OrderedDict
p0
((lp1
(lp2
S'state'
p3
aI400
aa(lp4
S'distance'
p5
aF155.79932022094727
aa(lp6
S'timestamp'
p7
aF5.12500786781311
aatp8
Rp9
.ccollections
OrderedDict
p0
((lp1
(lp2
S'state'
p3
aI400
aa(lp4
S'distance'
p5
aF155.79932022094727
aa(lp6
S'timestamp'
p7
aF5.125730037689209
aatp8
Rp9
.ccollections
OrderedDict
p0
((lp1
(lp2
S'state'
p3
aI400
aa(lp4
S'distance'
p5
aF155.79932022094727
aa(lp6
S'timestamp'
p7
aF5.134997844696045
aatp8
Rp9
.ccollections
OrderedDict
p0
((lp1
(lp2
S'state'
p3
aI400
aa(lp4
S'distance'
p5
aF155.79932022094727
aa(lp6
S'timestamp'
p7
aF5.135621070861816
aatp8
Rp9
.ccollections
OrderedDict
p0
((lp1
(lp2
S'state'
p3
aI400
aa(lp4
S'distance'
p5
aF155.79932022094727
aa(lp6
S'timestamp'
p7
aF5.1451239585876465
aatp8
Rp9
.ccollections
OrderedDict
p0
((lp1
(lp2
S'state'
p3
aI400
aa(lp4
S'distance'
p5
aF155.79932022094727
aa(lp6
S'timestamp'
p7
aF5.145812034606934
aatp8
Rp9
.ccollections
OrderedDict
p0
((lp1
(lp2
S'state'
p3
aI400
aa(lp4
S'distance'
p5
aF155.79932022094727
aa(lp6
S'timestamp'
p7
aF5.155861854553223
aatp8
Rp9
.ccollections
OrderedDict
p0
((lp1
(lp2
S'state'
p3
aI400
aa(lp4
S'distance'
p5
aF155.79932022094727
aa(lp6
S'timestamp'
p7
aF5.158432960510254
aatp8
Rp9
.ccollections
OrderedDict
p0
((lp1
(lp2
S'state'
p3
aI400
aa(lp4
S'distance'
p5
aF155.79932022094727
aa(lp6
S'timestamp'
p7
aF5.1651740074157715
aatp8
Rp9
.ccollections
OrderedDict
p0
((lp1
(lp2
S'state'
p3
aI400
aa(lp4
S'distance'
p5
aF155.79932022094727
aa(lp6
S'timestamp'
p7
aF5.165309906005859
aatp8
Rp9
.ccollections
OrderedDict
p0
((lp1
(lp2
S'state'
p3
aI400
aa(lp4
S'distance'
p5
aF155.79932022094727
aa(lp6
S'timestamp'
p7
aF5.175191879272461
aatp8
Rp9
.ccollections
OrderedDict
p0
((lp1
(lp2
S'state'
p3
aI400
aa(lp4
S'distance'
p5
aF155.79932022094727
aa(lp6
S'timestamp'
p7
aF5.175309896469116
aatp8
Rp9
.ccollections
OrderedDict
p0
((lp1
(lp2
S'state'
p3
aI400
aa(lp4
S'distance'
p5
aF155.79932022094727
aa(lp6
S'timestamp'
p7
aF5.18502402305603
aatp8
Rp9
.ccollections
OrderedDict
p0
((lp1
(lp2
S'state'
p3
aI400
aa(lp4
S'distance'
p5
aF155.79932022094727
aa(lp6
S'timestamp'
p7
aF5.185629844665527
aatp8
Rp9
.ccollections
OrderedDict
p0
((lp1
(lp2
S'state'
p3
aI400
aa(lp4
S'distance'
p5
aF155.79932022094727
aa(lp6
S'timestamp'
p7
aF5.195335865020752
aatp8
Rp9
.ccollections
OrderedDict
p0
((lp1
(lp2
S'state'
p3
aI400
aa(lp4
S'distance'
p5
aF155.79932022094727
aa(lp6
S'timestamp'
p7
aF5.195504903793335
aatp8
Rp9
.ccollections
OrderedDict
p0
((lp1
(lp2
S'state'
p3
aI400
aa(lp4
S'distance'
p5
aF155.79932022094727
aa(lp6
S'timestamp'
p7
aF5.20528507232666
aatp8
Rp9
.ccollections
OrderedDict
p0
((lp1
(lp2
S'state'
p3
aI400
aa(lp4
S'distance'
p5
aF155.79932022094727
aa(lp6
S'timestamp'
p7
aF5.205404043197632
aatp8
Rp9
.ccollections
OrderedDict
p0
((lp1
(lp2
S'state'
p3
aI400
aa(lp4
S'distance'
p5
aF155.79932022094727
aa(lp6
S'timestamp'
p7
aF5.214843988418579
aatp8
Rp9
.ccollections
OrderedDict
p0
((lp1
(lp2
S'state'
p3
aI400
aa(lp4
S'distance'
p5
aF155.79932022094727
aa(lp6
S'timestamp'
p7
aF5.215420961380005
aatp8
Rp9
.ccollections
OrderedDict
p0
((lp1
(lp2
S'state'
p3
aI400
aa(lp4
S'distance'
p5
aF155.79932022094727
aa(lp6
S'timestamp'
p7
aF5.224868059158325
aatp8
Rp9
.ccollections
OrderedDict
p0
((lp1
(lp2
S'state'
p3
aI400
aa(lp4
S'distance'
p5
aF155.79932022094727
aa(lp6
S'timestamp'
p7
aF5.225345849990845
aatp8
Rp9
.ccollections
OrderedDict
p0
((lp1
(lp2
S'state'
p3
aI400
aa(lp4
S'distance'
p5
aF155.79932022094727
aa(lp6
S'timestamp'
p7
aF5.235023021697998
aatp8
Rp9
.ccollections
OrderedDict
p0
((lp1
(lp2
S'state'
p3
aI400
aa(lp4
S'distance'
p5
aF155.79932022094727
aa(lp6
S'timestamp'
p7
aF5.235424041748047
aatp8
Rp9
.ccollections
OrderedDict
p0
((lp1
(lp2
S'state'
p3
aI400
aa(lp4
S'distance'
p5
aF155.79932022094727
aa(lp6
S'timestamp'
p7
aF5.245444059371948
aatp8
Rp9
.ccollections
OrderedDict
p0
((lp1
(lp2
S'state'
p3
aI400
aa(lp4
S'distance'
p5
aF155.79932022094727
aa(lp6
S'timestamp'
p7
aF5.245529890060425
aatp8
Rp9
.ccollections
OrderedDict
p0
((lp1
(lp2
S'state'
p3
aI400
aa(lp4
S'distance'
p5
aF155.79932022094727
aa(lp6
S'timestamp'
p7
aF5.265101909637451
aatp8
Rp9
.ccollections
OrderedDict
p0
((lp1
(lp2
S'state'
p3
aI400
aa(lp4
S'distance'
p5
aF155.79932022094727
aa(lp6
S'timestamp'
p7
aF5.265290975570679
aatp8
Rp9
.ccollections
OrderedDict
p0
((lp1
(lp2
S'state'
p3
aI400
aa(lp4
S'distance'
p5
aF155.79932022094727
aa(lp6
S'timestamp'
p7
aF5.266062021255493
aatp8
Rp9
.ccollections
OrderedDict
p0
((lp1
(lp2
S'state'
p3
aI400
aa(lp4
S'distance'
p5
aF155.79932022094727
aa(lp6
S'timestamp'
p7
aF5.274827003479004
aatp8
Rp9
.ccollections
OrderedDict
p0
((lp1
(lp2
S'state'
p3
aI400
aa(lp4
S'distance'
p5
aF155.79932022094727
aa(lp6
S'timestamp'
p7
aF5.275104999542236
aatp8
Rp9
.ccollections
OrderedDict
p0
((lp1
(lp2
S'state'
p3
aI400
aa(lp4
S'distance'
p5
aF155.79932022094727
aa(lp6
S'timestamp'
p7
aF5.275800943374634
aatp8
Rp9
.ccollections
OrderedDict
p0
((lp1
(lp2
S'state'
p3
aI400
aa(lp4
S'distance'
p5
aF155.79932022094727
aa(lp6
S'timestamp'
p7
aF5.284911870956421
aatp8
Rp9
.ccollections
OrderedDict
p0
((lp1
(lp2
S'state'
p3
aI400
aa(lp4
S'distance'
p5
aF155.79932022094727
aa(lp6
S'timestamp'
p7
aF5.295196056365967
aatp8
Rp9
.ccollections
OrderedDict
p0
((lp1
(lp2
S'state'
p3
aI400
aa(lp4
S'distance'
p5
aF155.79932022094727
aa(lp6
S'timestamp'
p7
aF5.295275926589966
aatp8
Rp9
.ccollections
OrderedDict
p0
((lp1
(lp2
S'state'
p3
aI400
aa(lp4
S'distance'
p5
aF155.79932022094727
aa(lp6
S'timestamp'
p7
aF5.298199892044067
aatp8
Rp9
.ccollections
OrderedDict
p0
((lp1
(lp2
S'state'
p3
aI400
aa(lp4
S'distance'
p5
aF155.79932022094727
aa(lp6
S'timestamp'
p7
aF5.305002927780151
aatp8
Rp9
.ccollections
OrderedDict
p0
((lp1
(lp2
S'state'
p3
aI400
aa(lp4
S'distance'
p5
aF155.79932022094727
aa(lp6
S'timestamp'
p7
aF5.305310964584351
aatp8
Rp9
.ccollections
OrderedDict
p0
((lp1
(lp2
S'state'
p3
aI400
aa(lp4
S'distance'
p5
aF155.79932022094727
aa(lp6
S'timestamp'
p7
aF5.316462993621826
aatp8
Rp9
.ccollections
OrderedDict
p0
((lp1
(lp2
S'state'
p3
aI400
aa(lp4
S'distance'
p5
aF155.79932022094727
aa(lp6
S'timestamp'
p7
aF5.3175458908081055
aatp8
Rp9
.ccollections
OrderedDict
p0
((lp1
(lp2
S'state'
p3
aI400
aa(lp4
S'distance'
p5
aF155.79932022094727
aa(lp6
S'timestamp'
p7
aF5.324931859970093
aatp8
Rp9
.ccollections
OrderedDict
p0
((lp1
(lp2
S'state'
p3
aI400
aa(lp4
S'distance'
p5
aF155.79932022094727
aa(lp6
S'timestamp'
p7
aF5.325376033782959
aatp8
Rp9
.ccollections
OrderedDict
p0
((lp1
(lp2
S'state'
p3
aI400
aa(lp4
S'distance'
p5
aF155.79932022094727
aa(lp6
S'timestamp'
p7
aF5.33464789390564
aatp8
Rp9
.ccollections
OrderedDict
p0
((lp1
(lp2
S'state'
p3
aI400
aa(lp4
S'distance'
p5
aF155.79932022094727
aa(lp6
S'timestamp'
p7
aF5.335253000259399
aatp8
Rp9
.ccollections
OrderedDict
p0
((lp1
(lp2
S'state'
p3
aI400
aa(lp4
S'distance'
p5
aF155.79932022094727
aa(lp6
S'timestamp'
p7
aF5.344866037368774
aatp8
Rp9
.ccollections
OrderedDict
p0
((lp1
(lp2
S'state'
p3
aI400
aa(lp4
S'distance'
p5
aF155.79932022094727
aa(lp6
S'timestamp'
p7
aF5.345437049865723
aatp8
Rp9
.ccollections
OrderedDict
p0
((lp1
(lp2
S'state'
p3
aI400
aa(lp4
S'distance'
p5
aF155.79932022094727
aa(lp6
S'timestamp'
p7
aF5.354909896850586
aatp8
Rp9
.ccollections
OrderedDict
p0
((lp1
(lp2
S'state'
p3
aI400
aa(lp4
S'distance'
p5
aF155.79932022094727
aa(lp6
S'timestamp'
p7
aF5.355506896972656
aatp8
Rp9
.ccollections
OrderedDict
p0
((lp1
(lp2
S'state'
p3
aI400
aa(lp4
S'distance'
p5
aF155.79932022094727
aa(lp6
S'timestamp'
p7
aF5.364778995513916
aatp8
Rp9
.ccollections
OrderedDict
p0
((lp1
(lp2
S'state'
p3
aI400
aa(lp4
S'distance'
p5
aF155.79932022094727
aa(lp6
S'timestamp'
p7
aF5.365381956100464
aatp8
Rp9
.ccollections
OrderedDict
p0
((lp1
(lp2
S'state'
p3
aI400
aa(lp4
S'distance'
p5
aF155.79932022094727
aa(lp6
S'timestamp'
p7
aF5.374919891357422
aatp8
Rp9
.ccollections
OrderedDict
p0
((lp1
(lp2
S'state'
p3
aI400
aa(lp4
S'distance'
p5
aF155.79932022094727
aa(lp6
S'timestamp'
p7
aF5.375504970550537
aatp8
Rp9
.ccollections
OrderedDict
p0
((lp1
(lp2
S'state'
p3
aI400
aa(lp4
S'distance'
p5
aF155.79932022094727
aa(lp6
S'timestamp'
p7
aF5.385040044784546
aatp8
Rp9
.ccollections
OrderedDict
p0
((lp1
(lp2
S'state'
p3
aI400
aa(lp4
S'distance'
p5
aF155.79932022094727
aa(lp6
S'timestamp'
p7
aF5.385236978530884
aatp8
Rp9
.ccollections
OrderedDict
p0
((lp1
(lp2
S'state'
p3
aI400
aa(lp4
S'distance'
p5
aF155.79932022094727
aa(lp6
S'timestamp'
p7
aF5.394979000091553
aatp8
Rp9
.ccollections
OrderedDict
p0
((lp1
(lp2
S'state'
p3
aI400
aa(lp4
S'distance'
p5
aF155.79932022094727
aa(lp6
S'timestamp'
p7
aF5.39524507522583
aatp8
Rp9
.ccollections
OrderedDict
p0
((lp1
(lp2
S'state'
p3
aI400
aa(lp4
S'distance'
p5
aF155.79932022094727
aa(lp6
S'timestamp'
p7
aF5.415889024734497
aatp8
Rp9
.ccollections
OrderedDict
p0
((lp1
(lp2
S'state'
p3
aI400
aa(lp4
S'distance'
p5
aF155.79932022094727
aa(lp6
S'timestamp'
p7
aF5.415972948074341
aatp8
Rp9
.ccollections
OrderedDict
p0
((lp1
(lp2
S'state'
p3
aI400
aa(lp4
S'distance'
p5
aF155.79932022094727
aa(lp6
S'timestamp'
p7
aF5.416130065917969
aatp8
Rp9
.ccollections
OrderedDict
p0
((lp1
(lp2
S'state'
p3
aI400
aa(lp4
S'distance'
p5
aF155.79932022094727
aa(lp6
S'timestamp'
p7
aF5.425265073776245
aatp8
Rp9
.ccollections
OrderedDict
p0
((lp1
(lp2
S'state'
p3
aI400
aa(lp4
S'distance'
p5
aF155.79932022094727
aa(lp6
S'timestamp'
p7
aF5.4257659912109375
aatp8
Rp9
.ccollections
OrderedDict
p0
((lp1
(lp2
S'state'
p3
aI400
aa(lp4
S'distance'
p5
aF155.79932022094727
aa(lp6
S'timestamp'
p7
aF5.426826000213623
aatp8
Rp9
.ccollections
OrderedDict
p0
((lp1
(lp2
S'state'
p3
aI400
aa(lp4
S'distance'
p5
aF155.79932022094727
aa(lp6
S'timestamp'
p7
aF5.435549020767212
aatp8
Rp9
.ccollections
OrderedDict
p0
((lp1
(lp2
S'state'
p3
aI400
aa(lp4
S'distance'
p5
aF155.79932022094727
aa(lp6
S'timestamp'
p7
aF5.435657978057861
aatp8
Rp9
.ccollections
OrderedDict
p0
((lp1
(lp2
S'state'
p3
aI400
aa(lp4
S'distance'
p5
aF155.79932022094727
aa(lp6
S'timestamp'
p7
aF5.444865942001343
aatp8
Rp9
.ccollections
OrderedDict
p0
((lp1
(lp2
S'state'
p3
aI400
aa(lp4
S'distance'
p5
aF155.79932022094727
aa(lp6
S'timestamp'
p7
aF5.445373058319092
aatp8
Rp9
.ccollections
OrderedDict
p0
((lp1
(lp2
S'state'
p3
aI400
aa(lp4
S'distance'
p5
aF155.79932022094727
aa(lp6
S'timestamp'
p7
aF5.454879999160767
aatp8
Rp9
.ccollections
OrderedDict
p0
((lp1
(lp2
S'state'
p3
aI400
aa(lp4
S'distance'
p5
aF155.79932022094727
aa(lp6
S'timestamp'
p7
aF5.455302953720093
aatp8
Rp9
.ccollections
OrderedDict
p0
((lp1
(lp2
S'state'
p3
aI400
aa(lp4
S'distance'
p5
aF155.79932022094727
aa(lp6
S'timestamp'
p7
aF5.465167999267578
aatp8
Rp9
.ccollections
OrderedDict
p0
((lp1
(lp2
S'state'
p3
aI400
aa(lp4
S'distance'
p5
aF155.79932022094727
aa(lp6
S'timestamp'
p7
aF5.4657628536224365
aatp8
Rp9
.ccollections
OrderedDict
p0
((lp1
(lp2
S'state'
p3
aI400
aa(lp4
S'distance'
p5
aF155.79932022094727
aa(lp6
S'timestamp'
p7
aF5.474907875061035
aatp8
Rp9
.ccollections
OrderedDict
p0
((lp1
(lp2
S'state'
p3
aI400
aa(lp4
S'distance'
p5
aF155.79932022094727
aa(lp6
S'timestamp'
p7
aF5.475342035293579
aatp8
Rp9
.ccollections
OrderedDict
p0
((lp1
(lp2
S'state'
p3
aI400
aa(lp4
S'distance'
p5
aF155.79932022094727
aa(lp6
S'timestamp'
p7
aF5.484947919845581
aatp8
Rp9
.ccollections
OrderedDict
p0
((lp1
(lp2
S'state'
p3
aI400
aa(lp4
S'distance'
p5
aF155.79932022094727
aa(lp6
S'timestamp'
p7
aF5.485501050949097
aatp8
Rp9
.ccollections
OrderedDict
p0
((lp1
(lp2
S'state'
p3
aI400
aa(lp4
S'distance'
p5
aF155.79932022094727
aa(lp6
S'timestamp'
p7
aF5.494927883148193
aatp8
Rp9
.ccollections
OrderedDict
p0
((lp1
(lp2
S'state'
p3
aI400
aa(lp4
S'distance'
p5
aF155.79932022094727
aa(lp6
S'timestamp'
p7
aF5.495284080505371
aatp8
Rp9
.ccollections
OrderedDict
p0
((lp1
(lp2
S'state'
p3
aI400
aa(lp4
S'distance'
p5
aF155.79932022094727
aa(lp6
S'timestamp'
p7
aF5.504852056503296
aatp8
Rp9
.ccollections
OrderedDict
p0
((lp1
(lp2
S'state'
p3
aI400
aa(lp4
S'distance'
p5
aF155.79932022094727
aa(lp6
S'timestamp'
p7
aF5.505423069000244
aatp8
Rp9
.ccollections
OrderedDict
p0
((lp1
(lp2
S'state'
p3
aI400
aa(lp4
S'distance'
p5
aF155.79932022094727
aa(lp6
S'timestamp'
p7
aF5.5148539543151855
aatp8
Rp9
.ccollections
OrderedDict
p0
((lp1
(lp2
S'state'
p3
aI400
aa(lp4
S'distance'
p5
aF155.79932022094727
aa(lp6
S'timestamp'
p7
aF5.515297889709473
aatp8
Rp9
.ccollections
OrderedDict
p0
((lp1
(lp2
S'state'
p3
aI400
aa(lp4
S'distance'
p5
aF155.79932022094727
aa(lp6
S'timestamp'
p7
aF5.525331974029541
aatp8
Rp9
.ccollections
OrderedDict
p0
((lp1
(lp2
S'state'
p3
aI400
aa(lp4
S'distance'
p5
aF155.79932022094727
aa(lp6
S'timestamp'
p7
aF5.525802850723267
aatp8
Rp9
.ccollections
OrderedDict
p0
((lp1
(lp2
S'state'
p3
aI400
aa(lp4
S'distance'
p5
aF155.79932022094727
aa(lp6
S'timestamp'
p7
aF5.535002946853638
aatp8
Rp9
.ccollections
OrderedDict
p0
((lp1
(lp2
S'state'
p3
aI400
aa(lp4
S'distance'
p5
aF155.79932022094727
aa(lp6
S'timestamp'
p7
aF5.53542685508728
aatp8
Rp9
.ccollections
OrderedDict
p0
((lp1
(lp2
S'state'
p3
aI400
aa(lp4
S'distance'
p5
aF155.79932022094727
aa(lp6
S'timestamp'
p7
aF5.54479193687439
aatp8
Rp9
.ccollections
OrderedDict
p0
((lp1
(lp2
S'state'
p3
aI400
aa(lp4
S'distance'
p5
aF155.79932022094727
aa(lp6
S'timestamp'
p7
aF5.545284032821655
aatp8
Rp9
.ccollections
OrderedDict
p0
((lp1
(lp2
S'state'
p3
aI400
aa(lp4
S'distance'
p5
aF155.79932022094727
aa(lp6
S'timestamp'
p7
aF5.555060863494873
aatp8
Rp9
.ccollections
OrderedDict
p0
((lp1
(lp2
S'state'
p3
aI400
aa(lp4
S'distance'
p5
aF155.79932022094727
aa(lp6
S'timestamp'
p7
aF5.555249929428101
aatp8
Rp9
.ccollections
OrderedDict
p0
((lp1
(lp2
S'state'
p3
aI400
aa(lp4
S'distance'
p5
aF155.79932022094727
aa(lp6
S'timestamp'
p7
aF5.564868927001953
aatp8
Rp9
.ccollections
OrderedDict
p0
((lp1
(lp2
S'state'
p3
aI400
aa(lp4
S'distance'
p5
aF155.79932022094727
aa(lp6
S'timestamp'
p7
aF5.56538987159729
aatp8
Rp9
.ccollections
OrderedDict
p0
((lp1
(lp2
S'state'
p3
aI400
aa(lp4
S'distance'
p5
aF155.79932022094727
aa(lp6
S'timestamp'
p7
aF5.574931859970093
aatp8
Rp9
.ccollections
OrderedDict
p0
((lp1
(lp2
S'state'
p3
aI0
aa(lp4
S'distance'
p5
aF155.79932022094727
aa(lp6
S'timestamp'
p7
aF5.5754289627075195
aatp8
Rp9
.ccollections
OrderedDict
p0
((lp1
(lp2
S'state'
p3
aI0
aa(lp4
S'distance'
p5
aF47.234764099121094
aa(lp6
S'timestamp'
p7
aF6.135580062866211
aatp8
Rp9
.ccollections
OrderedDict
p0
((lp1
(lp2
S'state'
p3
aI0
aa(lp4
S'distance'
p5
aF47.234764099121094
aa(lp6
S'timestamp'
p7
aF6.144999027252197
aatp8
Rp9
.ccollections
OrderedDict
p0
((lp1
(lp2
S'state'
p3
aI0
aa(lp4
S'distance'
p5
aF47.234764099121094
aa(lp6
S'timestamp'
p7
aF6.145580053329468
aatp8
Rp9
.ccollections
OrderedDict
p0
((lp1
(lp2
S'state'
p3
aI0
aa(lp4
S'distance'
p5
aF47.234764099121094
aa(lp6
S'timestamp'
p7
aF6.155459880828857
aatp8
Rp9
.ccollections
OrderedDict
p0
((lp1
(lp2
S'state'
p3
aI0
aa(lp4
S'distance'
p5
aF47.234764099121094
aa(lp6
S'timestamp'
p7
aF6.15562105178833
aatp8
Rp9
.ccollections
OrderedDict
p0
((lp1
(lp2
S'state'
p3
aI0
aa(lp4
S'distance'
p5
aF47.234764099121094
aa(lp6
S'timestamp'
p7
aF6.1656670570373535
aatp8
Rp9
.ccollections
OrderedDict
p0
((lp1
(lp2
S'state'
p3
aI0
aa(lp4
S'distance'
p5
aF47.234764099121094
aa(lp6
S'timestamp'
p7
aF6.165761947631836
aatp8
Rp9
.ccollections
OrderedDict
p0
((lp1
(lp2
S'state'
p3
aI0
aa(lp4
S'distance'
p5
aF47.234764099121094
aa(lp6
S'timestamp'
p7
aF6.175404071807861
aatp8
Rp9
.ccollections
OrderedDict
p0
((lp1
(lp2
S'state'
p3
aI0
aa(lp4
S'distance'
p5
aF47.234764099121094
aa(lp6
S'timestamp'
p7
aF6.1755690574646
aatp8
Rp9
.ccollections
OrderedDict
p0
((lp1
(lp2
S'state'
p3
aI0
aa(lp4
S'distance'
p5
aF47.234764099121094
aa(lp6
S'timestamp'
p7
aF6.186286926269531
aatp8
Rp9
.ccollections
OrderedDict
p0
((lp1
(lp2
S'state'
p3
aI0
aa(lp4
S'distance'
p5
aF47.234764099121094
aa(lp6
S'timestamp'
p7
aF6.186367988586426
aatp8
Rp9
.ccollections
OrderedDict
p0
((lp1
(lp2
S'state'
p3
aI0
aa(lp4
S'distance'
p5
aF47.234764099121094
aa(lp6
S'timestamp'
p7
aF6.194926977157593
aatp8
Rp9
.ccollections
OrderedDict
p0
((lp1
(lp2
S'state'
p3
aI0
aa(lp4
S'distance'
p5
aF47.234764099121094
aa(lp6
S'timestamp'
p7
aF6.195303916931152
aatp8
Rp9
.ccollections
OrderedDict
p0
((lp1
(lp2
S'state'
p3
aI0
aa(lp4
S'distance'
p5
aF47.234764099121094
aa(lp6
S'timestamp'
p7
aF6.205183982849121
aatp8
Rp9
.ccollections
OrderedDict
p0
((lp1
(lp2
S'state'
p3
aI0
aa(lp4
S'distance'
p5
aF47.234764099121094
aa(lp6
S'timestamp'
p7
aF6.205311059951782
aatp8
Rp9
.ccollections
OrderedDict
p0
((lp1
(lp2
S'state'
p3
aI0
aa(lp4
S'distance'
p5
aF47.234764099121094
aa(lp6
S'timestamp'
p7
aF6.214789867401123
aatp8
Rp9
.ccollections
OrderedDict
p0
((lp1
(lp2
S'state'
p3
aI0
aa(lp4
S'distance'
p5
aF47.234764099121094
aa(lp6
S'timestamp'
p7
aF6.215276002883911
aatp8
Rp9
.ccollections
OrderedDict
p0
((lp1
(lp2
S'state'
p3
aI0
aa(lp4
S'distance'
p5
aF47.234764099121094
aa(lp6
S'timestamp'
p7
aF6.2251808643341064
aatp8
Rp9
.ccollections
OrderedDict
p0
((lp1
(lp2
S'state'
p3
aI0
aa(lp4
S'distance'
p5
aF47.234764099121094
aa(lp6
S'timestamp'
p7
aF6.22534704208374
aatp8
Rp9
.ccollections
OrderedDict
p0
((lp1
(lp2
S'state'
p3
aI0
aa(lp4
S'distance'
p5
aF47.234764099121094
aa(lp6
S'timestamp'
p7
aF6.234706878662109
aatp8
Rp9
.ccollections
OrderedDict
p0
((lp1
(lp2
S'state'
p3
aI0
aa(lp4
S'distance'
p5
aF47.234764099121094
aa(lp6
S'timestamp'
p7
aF6.23548698425293
aatp8
Rp9
.ccollections
OrderedDict
p0
((lp1
(lp2
S'state'
p3
aI0
aa(lp4
S'distance'
p5
aF47.234764099121094
aa(lp6
S'timestamp'
p7
aF6.244951963424683
aatp8
Rp9
.ccollections
OrderedDict
p0
((lp1
(lp2
S'state'
p3
aI0
aa(lp4
S'distance'
p5
aF47.234764099121094
aa(lp6
S'timestamp'
p7
aF6.2453179359436035
aatp8
Rp9
.ccollections
OrderedDict
p0
((lp1
(lp2
S'state'
p3
aI0
aa(lp4
S'distance'
p5
aF47.234764099121094
aa(lp6
S'timestamp'
p7
aF6.255167007446289
aatp8
Rp9
.ccollections
OrderedDict
p0
((lp1
(lp2
S'state'
p3
aI0
aa(lp4
S'distance'
p5
aF47.234764099121094
aa(lp6
S'timestamp'
p7
aF6.255295038223267
aatp8
Rp9
.ccollections
OrderedDict
p0
((lp1
(lp2
S'state'
p3
aI0
aa(lp4
S'distance'
p5
aF47.234764099121094
aa(lp6
S'timestamp'
p7
aF6.264703989028931
aatp8
Rp9
.ccollections
OrderedDict
p0
((lp1
(lp2
S'state'
p3
aI0
aa(lp4
S'distance'
p5
aF47.234764099121094
aa(lp6
S'timestamp'
p7
aF6.266020059585571
aatp8
Rp9
.ccollections
OrderedDict
p0
((lp1
(lp2
S'state'
p3
aI0
aa(lp4
S'distance'
p5
aF47.234764099121094
aa(lp6
S'timestamp'
p7
aF6.275024890899658
aatp8
Rp9
.ccollections
OrderedDict
p0
((lp1
(lp2
S'state'
p3
aI0
aa(lp4
S'distance'
p5
aF47.234764099121094
aa(lp6
S'timestamp'
p7
aF6.27551007270813
aatp8
Rp9
.ccollections
OrderedDict
p0
((lp1
(lp2
S'state'
p3
aI0
aa(lp4
S'distance'
p5
aF47.234764099121094
aa(lp6
S'timestamp'
p7
aF6.285032033920288
aatp8
Rp9
.ccollections
OrderedDict
p0
((lp1
(lp2
S'state'
p3
aI0
aa(lp4
S'distance'
p5
aF47.234764099121094
aa(lp6
S'timestamp'
p7
aF6.285474061965942
aatp8
Rp9
.ccollections
OrderedDict
p0
((lp1
(lp2
S'state'
p3
aI0
aa(lp4
S'distance'
p5
aF47.234764099121094
aa(lp6
S'timestamp'
p7
aF6.294736862182617
aatp8
Rp9
.ccollections
OrderedDict
p0
((lp1
(lp2
S'state'
p3
aI0
aa(lp4
S'distance'
p5
aF47.234764099121094
aa(lp6
S'timestamp'
p7
aF6.295608043670654
aatp8
Rp9
.ccollections
OrderedDict
p0
((lp1
(lp2
S'state'
p3
aI0
aa(lp4
S'distance'
p5
aF47.234764099121094
aa(lp6
S'timestamp'
p7
aF6.31468391418457
aatp8
Rp9
.ccollections
OrderedDict
p0
((lp1
(lp2
S'state'
p3
aI0
aa(lp4
S'distance'
p5
aF47.234764099121094
aa(lp6
S'timestamp'
p7
aF6.315130949020386
aatp8
Rp9
.ccollections
OrderedDict
p0
((lp1
(lp2
S'state'
p3
aI0
aa(lp4
S'distance'
p5
aF47.234764099121094
aa(lp6
S'timestamp'
p7
aF6.3159260749816895
aatp8
Rp9
.ccollections
OrderedDict
p0
((lp1
(lp2
S'state'
p3
aI0
aa(lp4
S'distance'
p5
aF47.234764099121094
aa(lp6
S'timestamp'
p7
aF6.334949016571045
aatp8
Rp9
.ccollections
OrderedDict
p0
((lp1
(lp2
S'state'
p3
aI0
aa(lp4
S'distance'
p5
aF47.234764099121094
aa(lp6
S'timestamp'
p7
aF6.335602045059204
aatp8
Rp9
.ccollections
OrderedDict
p0
((lp1
(lp2
S'state'
p3
aI0
aa(lp4
S'distance'
p5
aF47.234764099121094
aa(lp6
S'timestamp'
p7
aF6.3359410762786865
aatp8
Rp9
.ccollections
OrderedDict
p0
((lp1
(lp2
S'state'
p3
aI0
aa(lp4
S'distance'
p5
aF47.234764099121094
aa(lp6
S'timestamp'
p7
aF6.337214946746826
aatp8
Rp9
.ccollections
OrderedDict
p0
((lp1
(lp2
S'state'
p3
aI0
aa(lp4
S'distance'
p5
aF47.234764099121094
aa(lp6
S'timestamp'
p7
aF6.3448638916015625
aatp8
Rp9
.ccollections
OrderedDict
p0
((lp1
(lp2
S'state'
p3
aI0
aa(lp4
S'distance'
p5
aF47.234764099121094
aa(lp6
S'timestamp'
p7
aF6.345402002334595
aatp8
Rp9
.ccollections
OrderedDict
p0
((lp1
(lp2
S'state'
p3
aI0
aa(lp4
S'distance'
p5
aF47.234764099121094
aa(lp6
S'timestamp'
p7
aF6.3457770347595215
aatp8
Rp9
.ccollections
OrderedDict
p0
((lp1
(lp2
S'state'
p3
aI0
aa(lp4
S'distance'
p5
aF47.234764099121094
aa(lp6
S'timestamp'
p7
aF6.3649208545684814
aatp8
Rp9
.ccollections
OrderedDict
p0
((lp1
(lp2
S'state'
p3
aI0
aa(lp4
S'distance'
p5
aF47.234764099121094
aa(lp6
S'timestamp'
p7
aF6.365239858627319
aatp8
Rp9
.ccollections
OrderedDict
p0
((lp1
(lp2
S'state'
p3
aI0
aa(lp4
S'distance'
p5
aF47.234764099121094
aa(lp6
S'timestamp'
p7
aF6.366662979125977
aatp8
Rp9
.ccollections
OrderedDict
p0
((lp1
(lp2
S'state'
p3
aI0
aa(lp4
S'distance'
p5
aF47.234764099121094
aa(lp6
S'timestamp'
p7
aF6.367444038391113
aatp8
Rp9
.ccollections
OrderedDict
p0
((lp1
(lp2
S'state'
p3
aI0
aa(lp4
S'distance'
p5
aF47.234764099121094
aa(lp6
S'timestamp'
p7
aF6.374983072280884
aatp8
Rp9
.ccollections
OrderedDict
p0
((lp1
(lp2
S'state'
p3
aI0
aa(lp4
S'distance'
p5
aF47.234764099121094
aa(lp6
S'timestamp'
p7
aF6.375207901000977
aatp8
Rp9
.ccollections
OrderedDict
p0
((lp1
(lp2
S'state'
p3
aI0
aa(lp4
S'distance'
p5
aF47.234764099121094
aa(lp6
S'timestamp'
p7
aF6.384912967681885
aatp8
Rp9
.ccollections
OrderedDict
p0
((lp1
(lp2
S'state'
p3
aI0
aa(lp4
S'distance'
p5
aF47.234764099121094
aa(lp6
S'timestamp'
p7
aF6.385345935821533
aatp8
Rp9
.ccollections
OrderedDict
p0
((lp1
(lp2
S'state'
p3
aI0
aa(lp4
S'distance'
p5
aF47.234764099121094
aa(lp6
S'timestamp'
p7
aF6.394895076751709
aatp8
Rp9
.ccollections
OrderedDict
p0
((lp1
(lp2
S'state'
p3
aI0
aa(lp4
S'distance'
p5
aF47.234764099121094
aa(lp6
S'timestamp'
p7
aF6.395577907562256
aatp8
Rp9
.ccollections
OrderedDict
p0
((lp1
(lp2
S'state'
p3
aI0
aa(lp4
S'distance'
p5
aF47.234764099121094
aa(lp6
S'timestamp'
p7
aF6.4054179191589355
aatp8
Rp9
.ccollections
OrderedDict
p0
((lp1
(lp2
S'state'
p3
aI0
aa(lp4
S'distance'
p5
aF47.234764099121094
aa(lp6
S'timestamp'
p7
aF6.4055540561676025
aatp8
Rp9
.ccollections
OrderedDict
p0
((lp1
(lp2
S'state'
p3
aI0
aa(lp4
S'distance'
p5
aF47.234764099121094
aa(lp6
S'timestamp'
p7
aF6.414965867996216
aatp8
Rp9
.ccollections
OrderedDict
p0
((lp1
(lp2
S'state'
p3
aI0
aa(lp4
S'distance'
p5
aF47.234764099121094
aa(lp6
S'timestamp'
p7
aF6.415374994277954
aatp8
Rp9
.ccollections
OrderedDict
p0
((lp1
(lp2
S'state'
p3
aI0
aa(lp4
S'distance'
p5
aF47.234764099121094
aa(lp6
S'timestamp'
p7
aF6.42480206489563
aatp8
Rp9
.ccollections
OrderedDict
p0
((lp1
(lp2
S'state'
p3
aI0
aa(lp4
S'distance'
p5
aF47.234764099121094
aa(lp6
S'timestamp'
p7
aF6.425360918045044
aatp8
Rp9
.ccollections
OrderedDict
p0
((lp1
(lp2
S'state'
p3
aI0
aa(lp4
S'distance'
p5
aF47.234764099121094
aa(lp6
S'timestamp'
p7
aF6.445019960403442
aatp8
Rp9
.ccollections
OrderedDict
p0
((lp1
(lp2
S'state'
p3
aI0
aa(lp4
S'distance'
p5
aF47.234764099121094
aa(lp6
S'timestamp'
p7
aF6.445677042007446
aatp8
Rp9
.ccollections
OrderedDict
p0
((lp1
(lp2
S'state'
p3
aI0
aa(lp4
S'distance'
p5
aF47.234764099121094
aa(lp6
S'timestamp'
p7
aF6.4470109939575195
aatp8
Rp9
.ccollections
OrderedDict
p0
((lp1
(lp2
S'state'
p3
aI0
aa(lp4
S'distance'
p5
aF47.234764099121094
aa(lp6
S'timestamp'
p7
aF6.455258846282959
aatp8
Rp9
.ccollections
OrderedDict
p0
((lp1
(lp2
S'state'
p3
aI0
aa(lp4
S'distance'
p5
aF47.234764099121094
aa(lp6
S'timestamp'
p7
aF6.455379009246826
aatp8
Rp9
.ccollections
OrderedDict
p0
((lp1
(lp2
S'state'
p3
aI0
aa(lp4
S'distance'
p5
aF47.234764099121094
aa(lp6
S'timestamp'
p7
aF6.457882881164551
aatp8
Rp9
.ccollections
OrderedDict
p0
((lp1
(lp2
S'state'
p3
aI0
aa(lp4
S'distance'
p5
aF47.234764099121094
aa(lp6
S'timestamp'
p7
aF6.464945077896118
aatp8
Rp9
.ccollections
OrderedDict
p0
((lp1
(lp2
S'state'
p3
aI0
aa(lp4
S'distance'
p5
aF47.234764099121094
aa(lp6
S'timestamp'
p7
aF6.465487957000732
aatp8
Rp9
.ccollections
OrderedDict
p0
((lp1
(lp2
S'state'
p3
aI0
aa(lp4
S'distance'
p5
aF47.234764099121094
aa(lp6
S'timestamp'
p7
aF6.475136041641235
aatp8
Rp9
.ccollections
OrderedDict
p0
((lp1
(lp2
S'state'
p3
aI0
aa(lp4
S'distance'
p5
aF47.234764099121094
aa(lp6
S'timestamp'
p7
aF6.4752418994903564
aatp8
Rp9
.ccollections
OrderedDict
p0
((lp1
(lp2
S'state'
p3
aI0
aa(lp4
S'distance'
p5
aF47.234764099121094
aa(lp6
S'timestamp'
p7
aF6.495135068893433
aatp8
Rp9
.ccollections
OrderedDict
p0
((lp1
(lp2
S'state'
p3
aI0
aa(lp4
S'distance'
p5
aF47.234764099121094
aa(lp6
S'timestamp'
p7
aF6.495607852935791
aatp8
Rp9
.ccollections
OrderedDict
p0
((lp1
(lp2
S'state'
p3
aI0
aa(lp4
S'distance'
p5
aF47.234764099121094
aa(lp6
S'timestamp'
p7
aF6.496196031570435
aatp8
Rp9
.ccollections
OrderedDict
p0
((lp1
(lp2
S'state'
p3
aI0
aa(lp4
S'distance'
p5
aF47.234764099121094
aa(lp6
S'timestamp'
p7
aF6.496315002441406
aatp8
Rp9
.ccollections
OrderedDict
p0
((lp1
(lp2
S'state'
p3
aI0
aa(lp4
S'distance'
p5
aF47.234764099121094
aa(lp6
S'timestamp'
p7
aF6.524965047836304
aatp8
Rp9
.ccollections
OrderedDict
p0
((lp1
(lp2
S'state'
p3
aI0
aa(lp4
S'distance'
p5
aF47.234764099121094
aa(lp6
S'timestamp'
p7
aF6.525496006011963
aatp8
Rp9
.ccollections
OrderedDict
p0
((lp1
(lp2
S'state'
p3
aI0
aa(lp4
S'distance'
p5
aF47.234764099121094
aa(lp6
S'timestamp'
p7
aF6.525589942932129
aatp8
Rp9
.ccollections
OrderedDict
p0
((lp1
(lp2
S'state'
p3
aI0
aa(lp4
S'distance'
p5
aF47.234764099121094
aa(lp6
S'timestamp'
p7
aF6.526799917221069
aatp8
Rp9
.ccollections
OrderedDict
p0
((lp1
(lp2
S'state'
p3
aI0
aa(lp4
S'distance'
p5
aF47.234764099121094
aa(lp6
S'timestamp'
p7
aF6.5350048542022705
aatp8
Rp9
.ccollections
OrderedDict
p0
((lp1
(lp2
S'state'
p3
aI0
aa(lp4
S'distance'
p5
aF47.234764099121094
aa(lp6
S'timestamp'
p7
aF6.535501003265381
aatp8
Rp9
.ccollections
OrderedDict
p0
((lp1
(lp2
S'state'
p3
aI0
aa(lp4
S'distance'
p5
aF47.234764099121094
aa(lp6
S'timestamp'
p7
aF6.535595893859863
aatp8
Rp9
.ccollections
OrderedDict
p0
((lp1
(lp2
S'state'
p3
aI0
aa(lp4
S'distance'
p5
aF47.234764099121094
aa(lp6
S'timestamp'
p7
aF6.537142038345337
aatp8
Rp9
.ccollections
OrderedDict
p0
((lp1
(lp2
S'state'
p3
aI0
aa(lp4
S'distance'
p5
aF47.234764099121094
aa(lp6
S'timestamp'
p7
aF6.544741868972778
aatp8
Rp9
.ccollections
OrderedDict
p0
((lp1
(lp2
S'state'
p3
aI0
aa(lp4
S'distance'
p5
aF47.234764099121094
aa(lp6
S'timestamp'
p7
aF6.545244932174683
aatp8
Rp9
.ccollections
OrderedDict
p0
((lp1
(lp2
S'state'
p3
aI0
aa(lp4
S'distance'
p5
aF47.234764099121094
aa(lp6
S'timestamp'
p7
aF6.5553460121154785
aatp8
Rp9
.ccollections
OrderedDict
p0
((lp1
(lp2
S'state'
p3
aI0
aa(lp4
S'distance'
p5
aF47.234764099121094
aa(lp6
S'timestamp'
p7
aF6.555885076522827
aatp8
Rp9
.ccollections
OrderedDict
p0
((lp1
(lp2
S'state'
p3
aI0
aa(lp4
S'distance'
p5
aF47.234764099121094
aa(lp6
S'timestamp'
p7
aF6.564764976501465
aatp8
Rp9
.ccollections
OrderedDict
p0
((lp1
(lp2
S'state'
p3
aI0
aa(lp4
S'distance'
p5
aF47.234764099121094
aa(lp6
S'timestamp'
p7
aF6.5654919147491455
aatp8
Rp9
.ccollections
OrderedDict
p0
((lp1
(lp2
S'state'
p3
aI0
aa(lp4
S'distance'
p5
aF47.234764099121094
aa(lp6
S'timestamp'
p7
aF6.575054883956909
aatp8
Rp9
.ccollections
OrderedDict
p0
((lp1
(lp2
S'state'
p3
aI0
aa(lp4
S'distance'
p5
aF47.234764099121094
aa(lp6
S'timestamp'
p7
aF6.57533597946167
aatp8
Rp9
.ccollections
OrderedDict
p0
((lp1
(lp2
S'state'
p3
aI0
aa(lp4
S'distance'
p5
aF47.234764099121094
aa(lp6
S'timestamp'
p7
aF6.585067987442017
aatp8
Rp9
.ccollections
OrderedDict
p0
((lp1
(lp2
S'state'
p3
aI0
aa(lp4
S'distance'
p5
aF47.234764099121094
aa(lp6
S'timestamp'
p7
aF6.5852580070495605
aatp8
Rp9
.ccollections
OrderedDict
p0
((lp1
(lp2
S'state'
p3
aI0
aa(lp4
S'distance'
p5
aF47.234764099121094
aa(lp6
S'timestamp'
p7
aF6.595037937164307
aatp8
Rp9
.ccollections
OrderedDict
p0
((lp1
(lp2
S'state'
p3
aI0
aa(lp4
S'distance'
p5
aF47.234764099121094
aa(lp6
S'timestamp'
p7
aF6.595685958862305
aatp8
Rp9
.ccollections
OrderedDict
p0
((lp1
(lp2
S'state'
p3
aI0
aa(lp4
S'distance'
p5
aF47.234764099121094
aa(lp6
S'timestamp'
p7
aF6.605150938034058
aatp8
Rp9
.ccollections
OrderedDict
p0
((lp1
(lp2
S'state'
p3
aI0
aa(lp4
S'distance'
p5
aF47.234764099121094
aa(lp6
S'timestamp'
p7
aF6.6055028438568115
aatp8
Rp9
.ccollections
OrderedDict
p0
((lp1
(lp2
S'state'
p3
aI0
aa(lp4
S'distance'
p5
aF47.234764099121094
aa(lp6
S'timestamp'
p7
aF6.614883899688721
aatp8
Rp9
.ccollections
OrderedDict
p0
((lp1
(lp2
S'state'
p3
aI0
aa(lp4
S'distance'
p5
aF47.234764099121094
aa(lp6
S'timestamp'
p7
aF6.616086959838867
aatp8
Rp9
.ccollections
OrderedDict
p0
((lp1
(lp2
S'state'
p3
aI0
aa(lp4
S'distance'
p5
aF47.234764099121094
aa(lp6
S'timestamp'
p7
aF6.625736951828003
aatp8
Rp9
.ccollections
OrderedDict
p0
((lp1
(lp2
S'state'
p3
aI0
aa(lp4
S'distance'
p5
aF47.234764099121094
aa(lp6
S'timestamp'
p7
aF6.626384019851685
aatp8
Rp9
.ccollections
OrderedDict
p0
((lp1
(lp2
S'state'
p3
aI0
aa(lp4
S'distance'
p5
aF47.234764099121094
aa(lp6
S'timestamp'
p7
aF6.635271072387695
aatp8
Rp9
.ccollections
OrderedDict
p0
((lp1
(lp2
S'state'
p3
aI0
aa(lp4
S'distance'
p5
aF47.234764099121094
aa(lp6
S'timestamp'
p7
aF6.635441064834595
aatp8
Rp9
.ccollections
OrderedDict
p0
((lp1
(lp2
S'state'
p3
aI0
aa(lp4
S'distance'
p5
aF47.234764099121094
aa(lp6
S'timestamp'
p7
aF6.644974946975708
aatp8
Rp9
.ccollections
OrderedDict
p0
((lp1
(lp2
S'state'
p3
aI0
aa(lp4
S'distance'
p5
aF47.234764099121094
aa(lp6
S'timestamp'
p7
aF6.645537853240967
aatp8
Rp9
.ccollections
OrderedDict
p0
((lp1
(lp2
S'state'
p3
aI0
aa(lp4
S'distance'
p5
aF47.234764099121094
aa(lp6
S'timestamp'
p7
aF6.654605865478516
aatp8
Rp9
.ccollections
OrderedDict
p0
((lp1
(lp2
S'state'
p3
aI0
aa(lp4
S'distance'
p5
aF47.234764099121094
aa(lp6
S'timestamp'
p7
aF6.655531883239746
aatp8
Rp9
.ccollections
OrderedDict
p0
((lp1
(lp2
S'state'
p3
aI0
aa(lp4
S'distance'
p5
aF47.234764099121094
aa(lp6
S'timestamp'
p7
aF6.664883852005005
aatp8
Rp9
.ccollections
OrderedDict
p0
((lp1
(lp2
S'state'
p3
aI0
aa(lp4
S'distance'
p5
aF47.234764099121094
aa(lp6
S'timestamp'
p7
aF6.665318012237549
aatp8
Rp9
.ccollections
OrderedDict
p0
((lp1
(lp2
S'state'
p3
aI0
aa(lp4
S'distance'
p5
aF47.234764099121094
aa(lp6
S'timestamp'
p7
aF6.6747870445251465
aatp8
Rp9
.ccollections
OrderedDict
p0
((lp1
(lp2
S'state'
p3
aI0
aa(lp4
S'distance'
p5
aF47.234764099121094
aa(lp6
S'timestamp'
p7
aF6.675200939178467
aatp8
Rp9
.ccollections
OrderedDict
p0
((lp1
(lp2
S'state'
p3
aI0
aa(lp4
S'distance'
p5
aF47.234764099121094
aa(lp6
S'timestamp'
p7
aF6.685011863708496
aatp8
Rp9
.ccollections
OrderedDict
p0
((lp1
(lp2
S'state'
p3
aI0
aa(lp4
S'distance'
p5
aF47.234764099121094
aa(lp6
S'timestamp'
p7
aF6.6857428550720215
aatp8
Rp9
.ccollections
OrderedDict
p0
((lp1
(lp2
S'state'
p3
aI0
aa(lp4
S'distance'
p5
aF47.234764099121094
aa(lp6
S'timestamp'
p7
aF6.694967031478882
aatp8
Rp9
.ccollections
OrderedDict
p0
((lp1
(lp2
S'state'
p3
aI0
aa(lp4
S'distance'
p5
aF47.234764099121094
aa(lp6
S'timestamp'
p7
aF6.695566892623901
aatp8
Rp9
.ccollections
OrderedDict
p0
((lp1
(lp2
S'state'
p3
aI0
aa(lp4
S'distance'
p5
aF47.234764099121094
aa(lp6
S'timestamp'
p7
aF6.704751968383789
aatp8
Rp9
.ccollections
OrderedDict
p0
((lp1
(lp2
S'state'
p3
aI0
aa(lp4
S'distance'
p5
aF47.234764099121094
aa(lp6
S'timestamp'
p7
aF6.705549001693726
aatp8
Rp9
.ccollections
OrderedDict
p0
((lp1
(lp2
S'state'
p3
aI0
aa(lp4
S'distance'
p5
aF47.234764099121094
aa(lp6
S'timestamp'
p7
aF6.715025901794434
aatp8
Rp9
.ccollections
OrderedDict
p0
((lp1
(lp2
S'state'
p3
aI0
aa(lp4
S'distance'
p5
aF47.234764099121094
aa(lp6
S'timestamp'
p7
aF6.715507984161377
aatp8
Rp9
.ccollections
OrderedDict
p0
((lp1
(lp2
S'state'
p3
aI0
aa(lp4
S'distance'
p5
aF47.234764099121094
aa(lp6
S'timestamp'
p7
aF6.724881887435913
aatp8
Rp9
.ccollections
OrderedDict
p0
((lp1
(lp2
S'state'
p3
aI0
aa(lp4
S'distance'
p5
aF47.234764099121094
aa(lp6
S'timestamp'
p7
aF6.725478887557983
aatp8
Rp9
.ccollections
OrderedDict
p0
((lp1
(lp2
S'state'
p3
aI0
aa(lp4
S'distance'
p5
aF47.234764099121094
aa(lp6
S'timestamp'
p7
aF6.734953880310059
aatp8
Rp9
.ccollections
OrderedDict
p0
((lp1
(lp2
S'state'
p3
aI0
aa(lp4
S'distance'
p5
aF47.234764099121094
aa(lp6
S'timestamp'
p7
aF6.735244035720825
aatp8
Rp9
.ccollections
OrderedDict
p0
((lp1
(lp2
S'state'
p3
aI0
aa(lp4
S'distance'
p5
aF47.234764099121094
aa(lp6
S'timestamp'
p7
aF6.7451629638671875
aatp8
Rp9
.ccollections
OrderedDict
p0
((lp1
(lp2
S'state'
p3
aI0
aa(lp4
S'distance'
p5
aF47.234764099121094
aa(lp6
S'timestamp'
p7
aF6.745281934738159
aatp8
Rp9
.ccollections
OrderedDict
p0
((lp1
(lp2
S'state'
p3
aI0
aa(lp4
S'distance'
p5
aF47.234764099121094
aa(lp6
S'timestamp'
p7
aF6.754617929458618
aatp8
Rp9
.ccollections
OrderedDict
p0
((lp1
(lp2
S'state'
p3
aI0
aa(lp4
S'distance'
p5
aF47.234764099121094
aa(lp6
S'timestamp'
p7
aF6.755521059036255
aatp8
Rp9
.ccollections
OrderedDict
p0
((lp1
(lp2
S'state'
p3
aI0
aa(lp4
S'distance'
p5
aF47.234764099121094
aa(lp6
S'timestamp'
p7
aF6.764910936355591
aatp8
Rp9
.ccollections
OrderedDict
p0
((lp1
(lp2
S'state'
p3
aI0
aa(lp4
S'distance'
p5
aF47.234764099121094
aa(lp6
S'timestamp'
p7
aF6.765271902084351
aatp8
Rp9
.ccollections
OrderedDict
p0
((lp1
(lp2
S'state'
p3
aI0
aa(lp4
S'distance'
p5
aF47.234764099121094
aa(lp6
S'timestamp'
p7
aF6.77517294883728
aatp8
Rp9
.ccollections
OrderedDict
p0
((lp1
(lp2
S'state'
p3
aI0
aa(lp4
S'distance'
p5
aF47.234764099121094
aa(lp6
S'timestamp'
p7
aF6.7752909660339355
aatp8
Rp9
.ccollections
OrderedDict
p0
((lp1
(lp2
S'state'
p3
aI0
aa(lp4
S'distance'
p5
aF47.234764099121094
aa(lp6
S'timestamp'
p7
aF6.784811019897461
aatp8
Rp9
.ccollections
OrderedDict
p0
((lp1
(lp2
S'state'
p3
aI0
aa(lp4
S'distance'
p5
aF47.234764099121094
aa(lp6
S'timestamp'
p7
aF6.8148040771484375
aatp8
Rp9
.ccollections
OrderedDict
p0
((lp1
(lp2
S'state'
p3
aI0
aa(lp4
S'distance'
p5
aF47.234764099121094
aa(lp6
S'timestamp'
p7
aF6.81528902053833
aatp8
Rp9
.ccollections
OrderedDict
p0
((lp1
(lp2
S'state'
p3
aI0
aa(lp4
S'distance'
p5
aF47.234764099121094
aa(lp6
S'timestamp'
p7
aF6.8155739307403564
aatp8
Rp9
.ccollections
OrderedDict
p0
((lp1
(lp2
S'state'
p3
aI0
aa(lp4
S'distance'
p5
aF47.234764099121094
aa(lp6
S'timestamp'
p7
aF6.834778070449829
aatp8
Rp9
.ccollections
OrderedDict
p0
((lp1
(lp2
S'state'
p3
aI0
aa(lp4
S'distance'
p5
aF47.234764099121094
aa(lp6
S'timestamp'
p7
aF6.835391044616699
aatp8
Rp9
.ccollections
OrderedDict
p0
((lp1
(lp2
S'state'
p3
aI0
aa(lp4
S'distance'
p5
aF47.234764099121094
aa(lp6
S'timestamp'
p7
aF6.837252855300903
aatp8
Rp9
.ccollections
OrderedDict
p0
((lp1
(lp2
S'state'
p3
aI0
aa(lp4
S'distance'
p5
aF47.234764099121094
aa(lp6
S'timestamp'
p7
aF6.838357925415039
aatp8
Rp9
.ccollections
OrderedDict
p0
((lp1
(lp2
S'state'
p3
aI0
aa(lp4
S'distance'
p5
aF47.234764099121094
aa(lp6
S'timestamp'
p7
aF6.844997882843018
aatp8
Rp9
.ccollections
OrderedDict
p0
((lp1
(lp2
S'state'
p3
aI0
aa(lp4
S'distance'
p5
aF47.234764099121094
aa(lp6
S'timestamp'
p7
aF6.845645904541016
aatp8
Rp9
.ccollections
OrderedDict
p0
((lp1
(lp2
S'state'
p3
aI0
aa(lp4
S'distance'
p5
aF47.234764099121094
aa(lp6
S'timestamp'
p7
aF6.84663987159729
aatp8
Rp9
.ccollections
OrderedDict
p0
((lp1
(lp2
S'state'
p3
aI0
aa(lp4
S'distance'
p5
aF47.234764099121094
aa(lp6
S'timestamp'
p7
aF6.855562925338745
aatp8
Rp9
.ccollections
OrderedDict
p0
((lp1
(lp2
S'state'
p3
aI0
aa(lp4
S'distance'
p5
aF47.234764099121094
aa(lp6
S'timestamp'
p7
aF6.856513977050781
aatp8
Rp9
.ccollections
OrderedDict
p0
((lp1
(lp2
S'state'
p3
aI0
aa(lp4
S'distance'
p5
aF47.234764099121094
aa(lp6
S'timestamp'
p7
aF6.856687068939209
aatp8
Rp9
.ccollections
OrderedDict
p0
((lp1
(lp2
S'state'
p3
aI0
aa(lp4
S'distance'
p5
aF47.234764099121094
aa(lp6
S'timestamp'
p7
aF6.856818914413452
aatp8
Rp9
.ccollections
OrderedDict
p0
((lp1
(lp2
S'state'
p3
aI0
aa(lp4
S'distance'
p5
aF47.234764099121094
aa(lp6
S'timestamp'
p7
aF6.86513090133667
aatp8
Rp9
.ccollections
OrderedDict
p0
((lp1
(lp2
S'state'
p3
aI0
aa(lp4
S'distance'
p5
aF47.234764099121094
aa(lp6
S'timestamp'
p7
aF6.865222930908203
aatp8
Rp9
.ccollections
OrderedDict
p0
((lp1
(lp2
S'state'
p3
aI0
aa(lp4
S'distance'
p5
aF47.234764099121094
aa(lp6
S'timestamp'
p7
aF6.866225957870483
aatp8
Rp9
.ccollections
OrderedDict
p0
((lp1
(lp2
S'state'
p3
aI0
aa(lp4
S'distance'
p5
aF47.234764099121094
aa(lp6
S'timestamp'
p7
aF6.8746559619903564
aatp8
Rp9
.ccollections
OrderedDict
p0
((lp1
(lp2
S'state'
p3
aI0
aa(lp4
S'distance'
p5
aF47.234764099121094
aa(lp6
S'timestamp'
p7
aF6.875463008880615
aatp8
Rp9
.ccollections
OrderedDict
p0
((lp1
(lp2
S'state'
p3
aI0
aa(lp4
S'distance'
p5
aF47.234764099121094
aa(lp6
S'timestamp'
p7
aF6.89474892616272
aatp8
Rp9
.ccollections
OrderedDict
p0
((lp1
(lp2
S'state'
p3
aI0
aa(lp4
S'distance'
p5
aF47.234764099121094
aa(lp6
S'timestamp'
p7
aF6.895859003067017
aatp8
Rp9
.ccollections
OrderedDict
p0
((lp1
(lp2
S'state'
p3
aI0
aa(lp4
S'distance'
p5
aF47.234764099121094
aa(lp6
S'timestamp'
p7
aF6.895979881286621
aatp8
Rp9
.ccollections
OrderedDict
p0
((lp1
(lp2
S'state'
p3
aI0
aa(lp4
S'distance'
p5
aF47.234764099121094
aa(lp6
S'timestamp'
p7
aF6.905039072036743
aatp8
Rp9
.ccollections
OrderedDict
p0
((lp1
(lp2
S'state'
p3
aI0
aa(lp4
S'distance'
p5
aF47.234764099121094
aa(lp6
S'timestamp'
p7
aF6.905802011489868
aatp8
Rp9
.ccollections
OrderedDict
p0
((lp1
(lp2
S'state'
p3
aI0
aa(lp4
S'distance'
p5
aF47.234764099121094
aa(lp6
S'timestamp'
p7
aF6.905921936035156
aatp8
Rp9
.ccollections
OrderedDict
p0
((lp1
(lp2
S'state'
p3
aI0
aa(lp4
S'distance'
p5
aF47.234764099121094
aa(lp6
S'timestamp'
p7
aF6.9149010181427
aatp8
Rp9
.ccollections
OrderedDict
p0
((lp1
(lp2
S'state'
p3
aI0
aa(lp4
S'distance'
p5
aF47.234764099121094
aa(lp6
S'timestamp'
p7
aF6.915268898010254
aatp8
Rp9
.ccollections
OrderedDict
p0
((lp1
(lp2
S'state'
p3
aI0
aa(lp4
S'distance'
p5
aF47.234764099121094
aa(lp6
S'timestamp'
p7
aF6.925173044204712
aatp8
Rp9
.ccollections
OrderedDict
p0
((lp1
(lp2
S'state'
p3
aI0
aa(lp4
S'distance'
p5
aF47.234764099121094
aa(lp6
S'timestamp'
p7
aF6.92529296875
aatp8
Rp9
.ccollections
OrderedDict
p0
((lp1
(lp2
S'state'
p3
aI0
aa(lp4
S'distance'
p5
aF47.234764099121094
aa(lp6
S'timestamp'
p7
aF6.935003042221069
aatp8
Rp9
.ccollections
OrderedDict
p0
((lp1
(lp2
S'state'
p3
aI0
aa(lp4
S'distance'
p5
aF47.234764099121094
aa(lp6
S'timestamp'
p7
aF6.945158004760742
aatp8
Rp9
.ccollections
OrderedDict
p0
((lp1
(lp2
S'state'
p3
aI0
aa(lp4
S'distance'
p5
aF47.234764099121094
aa(lp6
S'timestamp'
p7
aF6.94528603553772
aatp8
Rp9
.ccollections
OrderedDict
p0
((lp1
(lp2
S'state'
p3
aI0
aa(lp4
S'distance'
p5
aF47.234764099121094
aa(lp6
S'timestamp'
p7
aF6.9461870193481445
aatp8
Rp9
.ccollections
OrderedDict
p0
((lp1
(lp2
S'state'
p3
aI0
aa(lp4
S'distance'
p5
aF47.234764099121094
aa(lp6
S'timestamp'
p7
aF6.954665899276733
aatp8
Rp9
.ccollections
OrderedDict
p0
((lp1
(lp2
S'state'
p3
aI0
aa(lp4
S'distance'
p5
aF47.234764099121094
aa(lp6
S'timestamp'
p7
aF6.95553994178772
aatp8
Rp9
.ccollections
OrderedDict
p0
((lp1
(lp2
S'state'
p3
aI0
aa(lp4
S'distance'
p5
aF47.234764099121094
aa(lp6
S'timestamp'
p7
aF6.965165853500366
aatp8
Rp9
.ccollections
OrderedDict
p0
((lp1
(lp2
S'state'
p3
aI0
aa(lp4
S'distance'
p5
aF47.234764099121094
aa(lp6
S'timestamp'
p7
aF6.965285062789917
aatp8
Rp9
.ccollections
OrderedDict
p0
((lp1
(lp2
S'state'
p3
aI0
aa(lp4
S'distance'
p5
aF47.234764099121094
aa(lp6
S'timestamp'
p7
aF6.975189924240112
aatp8
Rp9
.ccollections
OrderedDict
p0
((lp1
(lp2
S'state'
p3
aI0
aa(lp4
S'distance'
p5
aF47.234764099121094
aa(lp6
S'timestamp'
p7
aF6.975307941436768
aatp8
Rp9
.ccollections
OrderedDict
p0
((lp1
(lp2
S'state'
p3
aI0
aa(lp4
S'distance'
p5
aF47.234764099121094
aa(lp6
S'timestamp'
p7
aF6.984950065612793
aatp8
Rp9
.ccollections
OrderedDict
p0
((lp1
(lp2
S'state'
p3
aI0
aa(lp4
S'distance'
p5
aF47.234764099121094
aa(lp6
S'timestamp'
p7
aF6.985408067703247
aatp8
Rp9
.ccollections
OrderedDict
p0
((lp1
(lp2
S'state'
p3
aI0
aa(lp4
S'distance'
p5
aF47.234764099121094
aa(lp6
S'timestamp'
p7
aF6.995038032531738
aatp8
Rp9
.ccollections
OrderedDict
p0
((lp1
(lp2
S'state'
p3
aI0
aa(lp4
S'distance'
p5
aF47.234764099121094
aa(lp6
S'timestamp'
p7
aF6.995537042617798
aatp8
Rp9
.ccollections
OrderedDict
p0
((lp1
(lp2
S'state'
p3
aI0
aa(lp4
S'distance'
p5
aF47.234764099121094
aa(lp6
S'timestamp'
p7
aF7.015033960342407
aatp8
Rp9
.ccollections
OrderedDict
p0
((lp1
(lp2
S'state'
p3
aI0
aa(lp4
S'distance'
p5
aF47.234764099121094
aa(lp6
S'timestamp'
p7
aF7.015655040740967
aatp8
Rp9
.ccollections
OrderedDict
p0
((lp1
(lp2
S'state'
p3
aI0
aa(lp4
S'distance'
p5
aF47.234764099121094
aa(lp6
S'timestamp'
p7
aF7.017011880874634
aatp8
Rp9
.ccollections
OrderedDict
p0
((lp1
(lp2
S'state'
p3
aI0
aa(lp4
S'distance'
p5
aF47.234764099121094
aa(lp6
S'timestamp'
p7
aF7.017991065979004
aatp8
Rp9
.ccollections
OrderedDict
p0
((lp1
(lp2
S'state'
p3
aI0
aa(lp4
S'distance'
p5
aF47.234764099121094
aa(lp6
S'timestamp'
p7
aF7.024962902069092
aatp8
Rp9
.ccollections
OrderedDict
p0
((lp1
(lp2
S'state'
p3
aI0
aa(lp4
S'distance'
p5
aF47.234764099121094
aa(lp6
S'timestamp'
p7
aF7.025451898574829
aatp8
Rp9
.ccollections
OrderedDict
p0
((lp1
(lp2
S'state'
p3
aI0
aa(lp4
S'distance'
p5
aF47.234764099121094
aa(lp6
S'timestamp'
p7
aF7.034657955169678
aatp8
Rp9
.ccollections
OrderedDict
p0
((lp1
(lp2
S'state'
p3
aI0
aa(lp4
S'distance'
p5
aF47.234764099121094
aa(lp6
S'timestamp'
p7
aF7.035237073898315
aatp8
Rp9
.ccollections
OrderedDict
p0
((lp1
(lp2
S'state'
p3
aI0
aa(lp4
S'distance'
p5
aF47.234764099121094
aa(lp6
S'timestamp'
p7
aF7.045301914215088
aatp8
Rp9
.ccollections
OrderedDict
p0
((lp1
(lp2
S'state'
p3
aI0
aa(lp4
S'distance'
p5
aF47.234764099121094
aa(lp6
S'timestamp'
p7
aF7.045428991317749
aatp8
Rp9
.ccollections
OrderedDict
p0
((lp1
(lp2
S'state'
p3
aI0
aa(lp4
S'distance'
p5
aF47.234764099121094
aa(lp6
S'timestamp'
p7
aF7.0552818775177
aatp8
Rp9
.ccollections
OrderedDict
p0
((lp1
(lp2
S'state'
p3
aI0
aa(lp4
S'distance'
p5
aF47.234764099121094
aa(lp6
S'timestamp'
p7
aF7.0553998947143555
aatp8
Rp9
.ccollections
OrderedDict
p0
((lp1
(lp2
S'state'
p3
aI0
aa(lp4
S'distance'
p5
aF47.234764099121094
aa(lp6
S'timestamp'
p7
aF7.065036058425903
aatp8
Rp9
.ccollections
OrderedDict
p0
((lp1
(lp2
S'state'
p3
aI0
aa(lp4
S'distance'
p5
aF47.234764099121094
aa(lp6
S'timestamp'
p7
aF7.065523862838745
aatp8
Rp9
.ccollections
OrderedDict
p0
((lp1
(lp2
S'state'
p3
aI0
aa(lp4
S'distance'
p5
aF47.234764099121094
aa(lp6
S'timestamp'
p7
aF7.07491397857666
aatp8
Rp9
.ccollections
OrderedDict
p0
((lp1
(lp2
S'state'
p3
aI0
aa(lp4
S'distance'
p5
aF47.234764099121094
aa(lp6
S'timestamp'
p7
aF7.075324058532715
aatp8
Rp9
.ccollections
OrderedDict
p0
((lp1
(lp2
S'state'
p3
aI0
aa(lp4
S'distance'
p5
aF47.234764099121094
aa(lp6
S'timestamp'
p7
aF7.085171937942505
aatp8
Rp9
.ccollections
OrderedDict
p0
((lp1
(lp2
S'state'
p3
aI0
aa(lp4
S'distance'
p5
aF47.234764099121094
aa(lp6
S'timestamp'
p7
aF7.085290908813477
aatp8
Rp9
.ccollections
OrderedDict
p0
((lp1
(lp2
S'state'
p3
aI0
aa(lp4
S'distance'
p5
aF47.234764099121094
aa(lp6
S'timestamp'
p7
aF7.095207929611206
aatp8
Rp9
.ccollections
OrderedDict
p0
((lp1
(lp2
S'state'
p3
aI0
aa(lp4
S'distance'
p5
aF47.234764099121094
aa(lp6
S'timestamp'
p7
aF7.095773935317993
aatp8
Rp9
.ccollections
OrderedDict
p0
((lp1
(lp2
S'state'
p3
aI0
aa(lp4
S'distance'
p5
aF47.234764099121094
aa(lp6
S'timestamp'
p7
aF7.105248928070068
aatp8
Rp9
.ccollections
OrderedDict
p0
((lp1
(lp2
S'state'
p3
aI0
aa(lp4
S'distance'
p5
aF47.234764099121094
aa(lp6
S'timestamp'
p7
aF7.10536789894104
aatp8
Rp9
.ccollections
OrderedDict
p0
((lp1
(lp2
S'state'
p3
aI0
aa(lp4
S'distance'
p5
aF47.234764099121094
aa(lp6
S'timestamp'
p7
aF7.114927053451538
aatp8
Rp9
.ccollections
OrderedDict
p0
((lp1
(lp2
S'state'
p3
aI0
aa(lp4
S'distance'
p5
aF47.234764099121094
aa(lp6
S'timestamp'
p7
aF7.115385055541992
aatp8
Rp9
.ccollections
OrderedDict
p0
((lp1
(lp2
S'state'
p3
aI0
aa(lp4
S'distance'
p5
aF47.234764099121094
aa(lp6
S'timestamp'
p7
aF7.1248719692230225
aatp8
Rp9
.ccollections
OrderedDict
p0
((lp1
(lp2
S'state'
p3
aI0
aa(lp4
S'distance'
p5
aF47.234764099121094
aa(lp6
S'timestamp'
p7
aF7.125594854354858
aatp8
Rp9
.ccollections
OrderedDict
p0
((lp1
(lp2
S'state'
p3
aI0
aa(lp4
S'distance'
p5
aF47.234764099121094
aa(lp6
S'timestamp'
p7
aF7.1349639892578125
aatp8
Rp9
.ccollections
OrderedDict
p0
((lp1
(lp2
S'state'
p3
aI0
aa(lp4
S'distance'
p5
aF47.234764099121094
aa(lp6
S'timestamp'
p7
aF7.135264873504639
aatp8
Rp9
.ccollections
OrderedDict
p0
((lp1
(lp2
S'state'
p3
aI0
aa(lp4
S'distance'
p5
aF47.234764099121094
aa(lp6
S'timestamp'
p7
aF7.144892930984497
aatp8
Rp9
.ccollections
OrderedDict
p0
((lp1
(lp2
S'state'
p3
aI0
aa(lp4
S'distance'
p5
aF47.234764099121094
aa(lp6
S'timestamp'
p7
aF7.145256042480469
aatp8
Rp9
.ccollections
OrderedDict
p0
((lp1
(lp2
S'state'
p3
aI0
aa(lp4
S'distance'
p5
aF47.234764099121094
aa(lp6
S'timestamp'
p7
aF7.155003070831299
aatp8
Rp9
.ccollections
OrderedDict
p0
((lp1
(lp2
S'state'
p3
aI0
aa(lp4
S'distance'
p5
aF47.234764099121094
aa(lp6
S'timestamp'
p7
aF7.155394077301025
aatp8
Rp9
.ccollections
OrderedDict
p0
((lp1
(lp2
S'state'
p3
aI0
aa(lp4
S'distance'
p5
aF47.234764099121094
aa(lp6
S'timestamp'
p7
aF7.1647419929504395
aatp8
Rp9
.ccollections
OrderedDict
p0
((lp1
(lp2
S'state'
p3
aI0
aa(lp4
S'distance'
p5
aF47.234764099121094
aa(lp6
S'timestamp'
p7
aF7.1655189990997314
aatp8
Rp9
.ccollections
OrderedDict
p0
((lp1
(lp2
S'state'
p3
aI0
aa(lp4
S'distance'
p5
aF47.234764099121094
aa(lp6
S'timestamp'
p7
aF7.174949884414673
aatp8
Rp9
.ccollections
OrderedDict
p0
((lp1
(lp2
S'state'
p3
aI0
aa(lp4
S'distance'
p5
aF47.234764099121094
aa(lp6
S'timestamp'
p7
aF7.1755499839782715
aatp8
Rp9
.ccollections
OrderedDict
p0
((lp1
(lp2
S'state'
p3
aI0
aa(lp4
S'distance'
p5
aF47.234764099121094
aa(lp6
S'timestamp'
p7
aF7.185186862945557
aatp8
Rp9
.ccollections
OrderedDict
p0
((lp1
(lp2
S'state'
p3
aI0
aa(lp4
S'distance'
p5
aF47.234764099121094
aa(lp6
S'timestamp'
p7
aF7.185417890548706
aatp8
Rp9
.ccollections
OrderedDict
p0
((lp1
(lp2
S'state'
p3
aI0
aa(lp4
S'distance'
p5
aF47.234764099121094
aa(lp6
S'timestamp'
p7
aF7.19510293006897
aatp8
Rp9
.ccollections
OrderedDict
p0
((lp1
(lp2
S'state'
p3
aI0
aa(lp4
S'distance'
p5
aF47.234764099121094
aa(lp6
S'timestamp'
p7
aF7.1952409744262695
aatp8
Rp9
.ccollections
OrderedDict
p0
((lp1
(lp2
S'state'
p3
aI0
aa(lp4
S'distance'
p5
aF47.234764099121094
aa(lp6
S'timestamp'
p7
aF7.204916000366211
aatp8
Rp9
.ccollections
OrderedDict
p0
((lp1
(lp2
S'state'
p3
aI0
aa(lp4
S'distance'
p5
aF47.234764099121094
aa(lp6
S'timestamp'
p7
aF7.205365896224976
aatp8
Rp9
.ccollections
OrderedDict
p0
((lp1
(lp2
S'state'
p3
aI0
aa(lp4
S'distance'
p5
aF47.234764099121094
aa(lp6
S'timestamp'
p7
aF7.21494197845459
aatp8
Rp9
.ccollections
OrderedDict
p0
((lp1
(lp2
S'state'
p3
aI0
aa(lp4
S'distance'
p5
aF47.234764099121094
aa(lp6
S'timestamp'
p7
aF7.2156970500946045
aatp8
Rp9
.ccollections
OrderedDict
p0
((lp1
(lp2
S'state'
p3
aI0
aa(lp4
S'distance'
p5
aF47.234764099121094
aa(lp6
S'timestamp'
p7
aF7.2260520458221436
aatp8
Rp9
.ccollections
OrderedDict
p0
((lp1
(lp2
S'state'
p3
aI0
aa(lp4
S'distance'
p5
aF47.234764099121094
aa(lp6
S'timestamp'
p7
aF7.226455926895142
aatp8
Rp9
.ccollections
OrderedDict
p0
((lp1
(lp2
S'state'
p3
aI0
aa(lp4
S'distance'
p5
aF47.234764099121094
aa(lp6
S'timestamp'
p7
aF7.234791994094849
aatp8
Rp9
.ccollections
OrderedDict
p0
((lp1
(lp2
S'state'
p3
aI0
aa(lp4
S'distance'
p5
aF47.234764099121094
aa(lp6
S'timestamp'
p7
aF7.235561847686768
aatp8
Rp9
.ccollections
OrderedDict
p0
((lp1
(lp2
S'state'
p3
aI0
aa(lp4
S'distance'
p5
aF47.234764099121094
aa(lp6
S'timestamp'
p7
aF7.244910955429077
aatp8
Rp9
.ccollections
OrderedDict
p0
((lp1
(lp2
S'state'
p3
aI0
aa(lp4
S'distance'
p5
aF47.234764099121094
aa(lp6
S'timestamp'
p7
aF7.245439052581787
aatp8
Rp9
.ccollections
OrderedDict
p0
((lp1
(lp2
S'state'
p3
aI0
aa(lp4
S'distance'
p5
aF47.234764099121094
aa(lp6
S'timestamp'
p7
aF7.2549989223480225
aatp8
Rp9
.ccollections
OrderedDict
p0
((lp1
(lp2
S'state'
p3
aI0
aa(lp4
S'distance'
p5
aF47.234764099121094
aa(lp6
S'timestamp'
p7
aF7.255559921264648
aatp8
Rp9
.ccollections
OrderedDict
p0
((lp1
(lp2
S'state'
p3
aI0
aa(lp4
S'distance'
p5
aF47.234764099121094
aa(lp6
S'timestamp'
p7
aF7.264761924743652
aatp8
Rp9
.ccollections
OrderedDict
p0
((lp1
(lp2
S'state'
p3
aI0
aa(lp4
S'distance'
p5
aF47.234764099121094
aa(lp6
S'timestamp'
p7
aF7.265522003173828
aatp8
Rp9
.ccollections
OrderedDict
p0
((lp1
(lp2
S'state'
p3
aI0
aa(lp4
S'distance'
p5
aF47.234764099121094
aa(lp6
S'timestamp'
p7
aF7.274754047393799
aatp8
Rp9
.ccollections
OrderedDict
p0
((lp1
(lp2
S'state'
p3
aI0
aa(lp4
S'distance'
p5
aF47.234764099121094
aa(lp6
S'timestamp'
p7
aF7.275439023971558
aatp8
Rp9
.ccollections
OrderedDict
p0
((lp1
(lp2
S'state'
p3
aI0
aa(lp4
S'distance'
p5
aF47.234764099121094
aa(lp6
S'timestamp'
p7
aF7.284728050231934
aatp8
Rp9
.ccollections
OrderedDict
p0
((lp1
(lp2
S'state'
p3
aI0
aa(lp4
S'distance'
p5
aF47.234764099121094
aa(lp6
S'timestamp'
p7
aF7.285274982452393
aatp8
Rp9
.ccollections
OrderedDict
p0
((lp1
(lp2
S'state'
p3
aI0
aa(lp4
S'distance'
p5
aF47.234764099121094
aa(lp6
S'timestamp'
p7
aF7.295222043991089
aatp8
Rp9
.ccollections
OrderedDict
p0
((lp1
(lp2
S'state'
p3
aI0
aa(lp4
S'distance'
p5
aF47.234764099121094
aa(lp6
S'timestamp'
p7
aF7.295387029647827
aatp8
Rp9
.ccollections
OrderedDict
p0
((lp1
(lp2
S'state'
p3
aI0
aa(lp4
S'distance'
p5
aF47.234764099121094
aa(lp6
S'timestamp'
p7
aF7.30493688583374
aatp8
Rp9
.ccollections
OrderedDict
p0
((lp1
(lp2
S'state'
p3
aI0
aa(lp4
S'distance'
p5
aF47.234764099121094
aa(lp6
S'timestamp'
p7
aF7.305346965789795
aatp8
Rp9
.ccollections
OrderedDict
p0
((lp1
(lp2
S'state'
p3
aI0
aa(lp4
S'distance'
p5
aF47.234764099121094
aa(lp6
S'timestamp'
p7
aF7.314772844314575
aatp8
Rp9
.ccollections
OrderedDict
p0
((lp1
(lp2
S'state'
p3
aI0
aa(lp4
S'distance'
p5
aF47.234764099121094
aa(lp6
S'timestamp'
p7
aF7.315335035324097
aatp8
Rp9
.ccollections
OrderedDict
p0
((lp1
(lp2
S'state'
p3
aI0
aa(lp4
S'distance'
p5
aF47.234764099121094
aa(lp6
S'timestamp'
p7
aF7.326269865036011
aatp8
Rp9
.ccollections
OrderedDict
p0
((lp1
(lp2
S'state'
p3
aI0
aa(lp4
S'distance'
p5
aF47.234764099121094
aa(lp6
S'timestamp'
p7
aF7.326366901397705
aatp8
Rp9
.ccollections
OrderedDict
p0
((lp1
(lp2
S'state'
p3
aI0
aa(lp4
S'distance'
p5
aF47.234764099121094
aa(lp6
S'timestamp'
p7
aF7.3349609375
aatp8
Rp9
.ccollections
OrderedDict
p0
((lp1
(lp2
S'state'
p3
aI0
aa(lp4
S'distance'
p5
aF47.234764099121094
aa(lp6
S'timestamp'
p7
aF7.33533501625061
aatp8
Rp9
.ccollections
OrderedDict
p0
((lp1
(lp2
S'state'
p3
aI0
aa(lp4
S'distance'
p5
aF47.234764099121094
aa(lp6
S'timestamp'
p7
aF7.344753980636597
aatp8
Rp9
.ccollections
OrderedDict
p0
((lp1
(lp2
S'state'
p3
aI0
aa(lp4
S'distance'
p5
aF47.234764099121094
aa(lp6
S'timestamp'
p7
aF7.345459938049316
aatp8
Rp9
.ccollections
OrderedDict
p0
((lp1
(lp2
S'state'
p3
aI0
aa(lp4
S'distance'
p5
aF47.234764099121094
aa(lp6
S'timestamp'
p7
aF7.354775905609131
aatp8
Rp9
.ccollections
OrderedDict
p0
((lp1
(lp2
S'state'
p3
aI0
aa(lp4
S'distance'
p5
aF47.234764099121094
aa(lp6
S'timestamp'
p7
aF7.355435848236084
aatp8
Rp9
.ccollections
OrderedDict
p0
((lp1
(lp2
S'state'
p3
aI0
aa(lp4
S'distance'
p5
aF47.234764099121094
aa(lp6
S'timestamp'
p7
aF7.364929914474487
aatp8
Rp9
.ccollections
OrderedDict
p0
((lp1
(lp2
S'state'
p3
aI0
aa(lp4
S'distance'
p5
aF47.234764099121094
aa(lp6
S'timestamp'
p7
aF7.365479946136475
aatp8
Rp9
.ccollections
OrderedDict
p0
((lp1
(lp2
S'state'
p3
aI0
aa(lp4
S'distance'
p5
aF47.234764099121094
aa(lp6
S'timestamp'
p7
aF7.374875068664551
aatp8
Rp9
.ccollections
OrderedDict
p0
((lp1
(lp2
S'state'
p3
aI0
aa(lp4
S'distance'
p5
aF47.234764099121094
aa(lp6
S'timestamp'
p7
aF7.385248899459839
aatp8
Rp9
.ccollections
OrderedDict
p0
((lp1
(lp2
S'state'
p3
aI0
aa(lp4
S'distance'
p5
aF47.234764099121094
aa(lp6
S'timestamp'
p7
aF7.38740086555481
aatp8
Rp9
.ccollections
OrderedDict
p0
((lp1
(lp2
S'state'
p3
aI0
aa(lp4
S'distance'
p5
aF47.234764099121094
aa(lp6
S'timestamp'
p7
aF7.38753604888916
aatp8
Rp9
.ccollections
OrderedDict
p0
((lp1
(lp2
S'state'
p3
aI0
aa(lp4
S'distance'
p5
aF47.234764099121094
aa(lp6
S'timestamp'
p7
aF7.39493989944458
aatp8
Rp9
.ccollections
OrderedDict
p0
((lp1
(lp2
S'state'
p3
aI0
aa(lp4
S'distance'
p5
aF47.234764099121094
aa(lp6
S'timestamp'
p7
aF7.395348072052002
aatp8
Rp9
.ccollections
OrderedDict
p0
((lp1
(lp2
S'state'
p3
aI0
aa(lp4
S'distance'
p5
aF47.234764099121094
aa(lp6
S'timestamp'
p7
aF7.404975891113281
aatp8
Rp9
.ccollections
OrderedDict
p0
((lp1
(lp2
S'state'
p3
aI0
aa(lp4
S'distance'
p5
aF47.234764099121094
aa(lp6
S'timestamp'
p7
aF7.405350923538208
aatp8
Rp9
.ccollections
OrderedDict
p0
((lp1
(lp2
S'state'
p3
aI0
aa(lp4
S'distance'
p5
aF47.234764099121094
aa(lp6
S'timestamp'
p7
aF7.415222883224487
aatp8
Rp9
.ccollections
OrderedDict
p0
((lp1
(lp2
S'state'
p3
aI0
aa(lp4
S'distance'
p5
aF47.234764099121094
aa(lp6
S'timestamp'
p7
aF7.4153430461883545
aatp8
Rp9
.ccollections
OrderedDict
p0
((lp1
(lp2
S'state'
p3
aI0
aa(lp4
S'distance'
p5
aF47.234764099121094
aa(lp6
S'timestamp'
p7
aF7.42479395866394
aatp8
Rp9
.ccollections
OrderedDict
p0
((lp1
(lp2
S'state'
p3
aI0
aa(lp4
S'distance'
p5
aF47.234764099121094
aa(lp6
S'timestamp'
p7
aF7.425334930419922
aatp8
Rp9
.ccollections
OrderedDict
p0
((lp1
(lp2
S'state'
p3
aI0
aa(lp4
S'distance'
p5
aF47.234764099121094
aa(lp6
S'timestamp'
p7
aF7.434766054153442
aatp8
Rp9
.ccollections
OrderedDict
p0
((lp1
(lp2
S'state'
p3
aI0
aa(lp4
S'distance'
p5
aF47.234764099121094
aa(lp6
S'timestamp'
p7
aF7.435375928878784
aatp8
Rp9
.ccollections
OrderedDict
p0
((lp1
(lp2
S'state'
p3
aI0
aa(lp4
S'distance'
p5
aF47.234764099121094
aa(lp6
S'timestamp'
p7
aF7.445085048675537
aatp8
Rp9
.ccollections
OrderedDict
p0
((lp1
(lp2
S'state'
p3
aI0
aa(lp4
S'distance'
p5
aF47.234764099121094
aa(lp6
S'timestamp'
p7
aF7.445734024047852
aatp8
Rp9
.ccollections
OrderedDict
p0
((lp1
(lp2
S'state'
p3
aI0
aa(lp4
S'distance'
p5
aF47.234764099121094
aa(lp6
S'timestamp'
p7
aF7.455275058746338
aatp8
Rp9
.ccollections
OrderedDict
p0
((lp1
(lp2
S'state'
p3
aI0
aa(lp4
S'distance'
p5
aF47.234764099121094
aa(lp6
S'timestamp'
p7
aF7.45539402961731
aatp8
Rp9
.ccollections
OrderedDict
p0
((lp1
(lp2
S'state'
p3
aI0
aa(lp4
S'distance'
p5
aF47.234764099121094
aa(lp6
S'timestamp'
p7
aF7.464694023132324
aatp8
Rp9
.ccollections
OrderedDict
p0
((lp1
(lp2
S'state'
p3
aI0
aa(lp4
S'distance'
p5
aF47.234764099121094
aa(lp6
S'timestamp'
p7
aF7.465295076370239
aatp8
Rp9
.ccollections
OrderedDict
p0
((lp1
(lp2
S'state'
p3
aI0
aa(lp4
S'distance'
p5
aF47.234764099121094
aa(lp6
S'timestamp'
p7
aF7.474935054779053
aatp8
Rp9
.ccollections
OrderedDict
p0
((lp1
(lp2
S'state'
p3
aI0
aa(lp4
S'distance'
p5
aF47.234764099121094
aa(lp6
S'timestamp'
p7
aF7.47540807723999
aatp8
Rp9
.ccollections
OrderedDict
p0
((lp1
(lp2
S'state'
p3
aI0
aa(lp4
S'distance'
p5
aF47.234764099121094
aa(lp6
S'timestamp'
p7
aF7.494816064834595
aatp8
Rp9
.ccollections
OrderedDict
p0
((lp1
(lp2
S'state'
p3
aI0
aa(lp4
S'distance'
p5
aF47.234764099121094
aa(lp6
S'timestamp'
p7
aF7.5049729347229
aatp8
Rp9
.ccollections
OrderedDict
p0
((lp1
(lp2
S'state'
p3
aI0
aa(lp4
S'distance'
p5
aF47.234764099121094
aa(lp6
S'timestamp'
p7
aF7.505434989929199
aatp8
Rp9
.ccollections
OrderedDict
p0
((lp1
(lp2
S'state'
p3
aI0
aa(lp4
S'distance'
p5
aF47.234764099121094
aa(lp6
S'timestamp'
p7
aF7.507156848907471
aatp8
Rp9
.ccollections
OrderedDict
p0
((lp1
(lp2
S'state'
p3
aI0
aa(lp4
S'distance'
p5
aF47.234764099121094
aa(lp6
S'timestamp'
p7
aF7.514946937561035
aatp8
Rp9
.ccollections
OrderedDict
p0
((lp1
(lp2
S'state'
p3
aI0
aa(lp4
S'distance'
p5
aF47.234764099121094
aa(lp6
S'timestamp'
p7
aF7.515666961669922
aatp8
Rp9
.ccollections
OrderedDict
p0
((lp1
(lp2
S'state'
p3
aI0
aa(lp4
S'distance'
p5
aF47.234764099121094
aa(lp6
S'timestamp'
p7
aF7.519568920135498
aatp8
Rp9
.ccollections
OrderedDict
p0
((lp1
(lp2
S'state'
p3
aI0
aa(lp4
S'distance'
p5
aF47.234764099121094
aa(lp6
S'timestamp'
p7
aF7.519805908203125
aatp8
Rp9
.ccollections
OrderedDict
p0
((lp1
(lp2
S'state'
p3
aI0
aa(lp4
S'distance'
p5
aF47.234764099121094
aa(lp6
S'timestamp'
p7
aF7.524930000305176
aatp8
Rp9
.ccollections
OrderedDict
p0
((lp1
(lp2
S'state'
p3
aI0
aa(lp4
S'distance'
p5
aF47.234764099121094
aa(lp6
S'timestamp'
p7
aF7.525825023651123
aatp8
Rp9
.ccollections
OrderedDict
p0
((lp1
(lp2
S'state'
p3
aI0
aa(lp4
S'distance'
p5
aF47.234764099121094
aa(lp6
S'timestamp'
p7
aF7.534792900085449
aatp8
Rp9
.ccollections
OrderedDict
p0
((lp1
(lp2
S'state'
p3
aI0
aa(lp4
S'distance'
p5
aF47.234764099121094
aa(lp6
S'timestamp'
p7
aF7.535212993621826
aatp8
Rp9
.ccollections
OrderedDict
p0
((lp1
(lp2
S'state'
p3
aI0
aa(lp4
S'distance'
p5
aF47.234764099121094
aa(lp6
S'timestamp'
p7
aF7.544972896575928
aatp8
Rp9
.ccollections
OrderedDict
p0
((lp1
(lp2
S'state'
p3
aI0
aa(lp4
S'distance'
p5
aF47.234764099121094
aa(lp6
S'timestamp'
p7
aF7.545255899429321
aatp8
Rp9
.ccollections
OrderedDict
p0
((lp1
(lp2
S'state'
p3
aI0
aa(lp4
S'distance'
p5
aF47.234764099121094
aa(lp6
S'timestamp'
p7
aF7.55471396446228
aatp8
Rp9
.ccollections
OrderedDict
p0
((lp1
(lp2
S'state'
p3
aI0
aa(lp4
S'distance'
p5
aF47.234764099121094
aa(lp6
S'timestamp'
p7
aF7.555373907089233
aatp8
Rp9
.ccollections
OrderedDict
p0
((lp1
(lp2
S'state'
p3
aI0
aa(lp4
S'distance'
p5
aF47.234764099121094
aa(lp6
S'timestamp'
p7
aF7.564940929412842
aatp8
Rp9
.ccollections
OrderedDict
p0
((lp1
(lp2
S'state'
p3
aI0
aa(lp4
S'distance'
p5
aF47.234764099121094
aa(lp6
S'timestamp'
p7
aF7.565532922744751
aatp8
Rp9
.ccollections
OrderedDict
p0
((lp1
(lp2
S'state'
p3
aI0
aa(lp4
S'distance'
p5
aF47.234764099121094
aa(lp6
S'timestamp'
p7
aF7.5747010707855225
aatp8
Rp9
.ccollections
OrderedDict
p0
((lp1
(lp2
S'state'
p3
aI0
aa(lp4
S'distance'
p5
aF47.234764099121094
aa(lp6
S'timestamp'
p7
aF7.575486898422241
aatp8
Rp9
.ccollections
OrderedDict
p0
((lp1
(lp2
S'state'
p3
aI0
aa(lp4
S'distance'
p5
aF47.234764099121094
aa(lp6
S'timestamp'
p7
aF7.584653854370117
aatp8
Rp9
.ccollections
OrderedDict
p0
((lp1
(lp2
S'state'
p3
aI0
aa(lp4
S'distance'
p5
aF47.234764099121094
aa(lp6
S'timestamp'
p7
aF7.5852789878845215
aatp8
Rp9
.ccollections
OrderedDict
p0
((lp1
(lp2
S'state'
p3
aI0
aa(lp4
S'distance'
p5
aF47.234764099121094
aa(lp6
S'timestamp'
p7
aF7.595165967941284
aatp8
Rp9
.ccollections
OrderedDict
p0
((lp1
(lp2
S'state'
p3
aI0
aa(lp4
S'distance'
p5
aF47.234764099121094
aa(lp6
S'timestamp'
p7
aF7.595299005508423
aatp8
Rp9
.ccollections
OrderedDict
p0
((lp1
(lp2
S'state'
p3
aI0
aa(lp4
S'distance'
p5
aF47.234764099121094
aa(lp6
S'timestamp'
p7
aF7.604763984680176
aatp8
Rp9
.ccollections
OrderedDict
p0
((lp1
(lp2
S'state'
p3
aI0
aa(lp4
S'distance'
p5
aF47.234764099121094
aa(lp6
S'timestamp'
p7
aF7.605377912521362
aatp8
Rp9
.ccollections
OrderedDict
p0
((lp1
(lp2
S'state'
p3
aI0
aa(lp4
S'distance'
p5
aF47.234764099121094
aa(lp6
S'timestamp'
p7
aF7.614677906036377
aatp8
Rp9
.ccollections
OrderedDict
p0
((lp1
(lp2
S'state'
p3
aI0
aa(lp4
S'distance'
p5
aF47.234764099121094
aa(lp6
S'timestamp'
p7
aF7.6154680252075195
aatp8
Rp9
.ccollections
OrderedDict
p0
((lp1
(lp2
S'state'
p3
aI0
aa(lp4
S'distance'
p5
aF47.234764099121094
aa(lp6
S'timestamp'
p7
aF7.6249589920043945
aatp8
Rp9
.ccollections
OrderedDict
p0
((lp1
(lp2
S'state'
p3
aI0
aa(lp4
S'distance'
p5
aF47.234764099121094
aa(lp6
S'timestamp'
p7
aF7.625500917434692
aatp8
Rp9
.ccollections
OrderedDict
p0
((lp1
(lp2
S'state'
p3
aI0
aa(lp4
S'distance'
p5
aF47.234764099121094
aa(lp6
S'timestamp'
p7
aF7.645180940628052
aatp8
Rp9
.ccollections
OrderedDict
p0
((lp1
(lp2
S'state'
p3
aI0
aa(lp4
S'distance'
p5
aF47.234764099121094
aa(lp6
S'timestamp'
p7
aF7.645299911499023
aatp8
Rp9
.ccollections
OrderedDict
p0
((lp1
(lp2
S'state'
p3
aI0
aa(lp4
S'distance'
p5
aF47.234764099121094
aa(lp6
S'timestamp'
p7
aF7.646817922592163
aatp8
Rp9
.ccollections
OrderedDict
p0
((lp1
(lp2
S'state'
p3
aI0
aa(lp4
S'distance'
p5
aF47.234764099121094
aa(lp6
S'timestamp'
p7
aF7.647624969482422
aatp8
Rp9
.ccollections
OrderedDict
p0
((lp1
(lp2
S'state'
p3
aI0
aa(lp4
S'distance'
p5
aF47.234764099121094
aa(lp6
S'timestamp'
p7
aF7.654878854751587
aatp8
Rp9
.ccollections
OrderedDict
p0
((lp1
(lp2
S'state'
p3
aI0
aa(lp4
S'distance'
p5
aF47.234764099121094
aa(lp6
S'timestamp'
p7
aF7.656745910644531
aatp8
Rp9
.ccollections
OrderedDict
p0
((lp1
(lp2
S'state'
p3
aI0
aa(lp4
S'distance'
p5
aF47.234764099121094
aa(lp6
S'timestamp'
p7
aF7.6651599407196045
aatp8
Rp9
.ccollections
OrderedDict
p0
((lp1
(lp2
S'state'
p3
aI0
aa(lp4
S'distance'
p5
aF47.234764099121094
aa(lp6
S'timestamp'
p7
aF7.665277004241943
aatp8
Rp9
.ccollections
OrderedDict
p0
((lp1
(lp2
S'state'
p3
aI0
aa(lp4
S'distance'
p5
aF47.234764099121094
aa(lp6
S'timestamp'
p7
aF7.675220012664795
aatp8
Rp9
.ccollections
OrderedDict
p0
((lp1
(lp2
S'state'
p3
aI0
aa(lp4
S'distance'
p5
aF47.234764099121094
aa(lp6
S'timestamp'
p7
aF7.675343990325928
aatp8
Rp9
.ccollections
OrderedDict
p0
((lp1
(lp2
S'state'
p3
aI0
aa(lp4
S'distance'
p5
aF47.234764099121094
aa(lp6
S'timestamp'
p7
aF7.684982061386108
aatp8
Rp9
.ccollections
OrderedDict
p0
((lp1
(lp2
S'state'
p3
aI0
aa(lp4
S'distance'
p5
aF47.234764099121094
aa(lp6
S'timestamp'
p7
aF7.685220956802368
aatp8
Rp9
.ccollections
OrderedDict
p0
((lp1
(lp2
S'state'
p3
aI0
aa(lp4
S'distance'
p5
aF47.234764099121094
aa(lp6
S'timestamp'
p7
aF7.695240020751953
aatp8
Rp9
.ccollections
OrderedDict
p0
((lp1
(lp2
S'state'
p3
aI0
aa(lp4
S'distance'
p5
aF47.234764099121094
aa(lp6
S'timestamp'
p7
aF7.695349931716919
aatp8
Rp9
.ccollections
OrderedDict
p0
((lp1
(lp2
S'state'
p3
aI0
aa(lp4
S'distance'
p5
aF47.234764099121094
aa(lp6
S'timestamp'
p7
aF7.705004930496216
aatp8
Rp9
.ccollections
OrderedDict
p0
((lp1
(lp2
S'state'
p3
aI0
aa(lp4
S'distance'
p5
aF47.234764099121094
aa(lp6
S'timestamp'
p7
aF7.70525598526001
aatp8
Rp9
.ccollections
OrderedDict
p0
((lp1
(lp2
S'state'
p3
aI0
aa(lp4
S'distance'
p5
aF47.234764099121094
aa(lp6
S'timestamp'
p7
aF7.724711894989014
aatp8
Rp9
.ccollections
OrderedDict
p0
((lp1
(lp2
S'state'
p3
aI0
aa(lp4
S'distance'
p5
aF47.234764099121094
aa(lp6
S'timestamp'
p7
aF7.725592851638794
aatp8
Rp9
.ccollections
OrderedDict
p0
((lp1
(lp2
S'state'
p3
aI0
aa(lp4
S'distance'
p5
aF47.234764099121094
aa(lp6
S'timestamp'
p7
aF7.7264790534973145
aatp8
Rp9
.ccollections
OrderedDict
p0
((lp1
(lp2
S'state'
p3
aI0
aa(lp4
S'distance'
p5
aF47.234764099121094
aa(lp6
S'timestamp'
p7
aF7.7274839878082275
aatp8
Rp9
.ccollections
OrderedDict
p0
((lp1
(lp2
S'state'
p3
aI0
aa(lp4
S'distance'
p5
aF47.234764099121094
aa(lp6
S'timestamp'
p7
aF7.734999895095825
aatp8
Rp9
.ccollections
OrderedDict
p0
((lp1
(lp2
S'state'
p3
aI0
aa(lp4
S'distance'
p5
aF47.234764099121094
aa(lp6
S'timestamp'
p7
aF7.735285043716431
aatp8
Rp9
.ccollections
OrderedDict
p0
((lp1
(lp2
S'state'
p3
aI0
aa(lp4
S'distance'
p5
aF47.234764099121094
aa(lp6
S'timestamp'
p7
aF7.744807958602905
aatp8
Rp9
.ccollections
OrderedDict
p0
((lp1
(lp2
S'state'
p3
aI0
aa(lp4
S'distance'
p5
aF47.234764099121094
aa(lp6
S'timestamp'
p7
aF7.745621919631958
aatp8
Rp9
.ccollections
OrderedDict
p0
((lp1
(lp2
S'state'
p3
aI0
aa(lp4
S'distance'
p5
aF47.234764099121094
aa(lp6
S'timestamp'
p7
aF7.755205869674683
aatp8
Rp9
.ccollections
OrderedDict
p0
((lp1
(lp2
S'state'
p3
aI0
aa(lp4
S'distance'
p5
aF47.234764099121094
aa(lp6
S'timestamp'
p7
aF7.755325078964233
aatp8
Rp9
.ccollections
OrderedDict
p0
((lp1
(lp2
S'state'
p3
aI0
aa(lp4
S'distance'
p5
aF47.234764099121094
aa(lp6
S'timestamp'
p7
aF7.7646870613098145
aatp8
Rp9
.ccollections
OrderedDict
p0
((lp1
(lp2
S'state'
p3
aI0
aa(lp4
S'distance'
p5
aF47.234764099121094
aa(lp6
S'timestamp'
p7
aF7.765334844589233
aatp8
Rp9
.ccollections
OrderedDict
p0
((lp1
(lp2
S'state'
p3
aI0
aa(lp4
S'distance'
p5
aF47.234764099121094
aa(lp6
S'timestamp'
p7
aF7.7749340534210205
aatp8
Rp9
.ccollections
OrderedDict
p0
((lp1
(lp2
S'state'
p3
aI0
aa(lp4
S'distance'
p5
aF47.234764099121094
aa(lp6
S'timestamp'
p7
aF7.775476932525635
aatp8
Rp9
.ccollections
OrderedDict
p0
((lp1
(lp2
S'state'
p3
aI0
aa(lp4
S'distance'
p5
aF47.234764099121094
aa(lp6
S'timestamp'
p7
aF7.7949888706207275
aatp8
Rp9
.ccollections
OrderedDict
p0
((lp1
(lp2
S'state'
p3
aI0
aa(lp4
S'distance'
p5
aF47.234764099121094
aa(lp6
S'timestamp'
p7
aF7.796084880828857
aatp8
Rp9
.ccollections
OrderedDict
p0
((lp1
(lp2
S'state'
p3
aI0
aa(lp4
S'distance'
p5
aF47.234764099121094
aa(lp6
S'timestamp'
p7
aF7.796210050582886
aatp8
Rp9
.ccollections
OrderedDict
p0
((lp1
(lp2
S'state'
p3
aI0
aa(lp4
S'distance'
p5
aF47.234764099121094
aa(lp6
S'timestamp'
p7
aF7.804923057556152
aatp8
Rp9
.ccollections
OrderedDict
p0
((lp1
(lp2
S'state'
p3
aI0
aa(lp4
S'distance'
p5
aF47.234764099121094
aa(lp6
S'timestamp'
p7
aF7.805330991744995
aatp8
Rp9
.ccollections
OrderedDict
p0
((lp1
(lp2
S'state'
p3
aI0
aa(lp4
S'distance'
p5
aF47.234764099121094
aa(lp6
S'timestamp'
p7
aF7.805912017822266
aatp8
Rp9
.ccollections
OrderedDict
p0
((lp1
(lp2
S'state'
p3
aI0
aa(lp4
S'distance'
p5
aF47.234764099121094
aa(lp6
S'timestamp'
p7
aF7.814743995666504
aatp8
Rp9
.ccollections
OrderedDict
p0
((lp1
(lp2
S'state'
p3
aI0
aa(lp4
S'distance'
p5
aF47.234764099121094
aa(lp6
S'timestamp'
p7
aF7.815458059310913
aatp8
Rp9
.ccollections
OrderedDict
p0
((lp1
(lp2
S'state'
p3
aI0
aa(lp4
S'distance'
p5
aF47.234764099121094
aa(lp6
S'timestamp'
p7
aF7.825587034225464
aatp8
Rp9
.ccollections
OrderedDict
p0
((lp1
(lp2
S'state'
p3
aI0
aa(lp4
S'distance'
p5
aF47.234764099121094
aa(lp6
S'timestamp'
p7
aF7.826369047164917
aatp8
Rp9
.ccollections
OrderedDict
p0
((lp1
(lp2
S'state'
p3
aI0
aa(lp4
S'distance'
p5
aF47.234764099121094
aa(lp6
S'timestamp'
p7
aF7.834784984588623
aatp8
Rp9
.ccollections
OrderedDict
p0
((lp1
(lp2
S'state'
p3
aI0
aa(lp4
S'distance'
p5
aF47.234764099121094
aa(lp6
S'timestamp'
p7
aF7.83543586730957
aatp8
Rp9
.ccollections
OrderedDict
p0
((lp1
(lp2
S'state'
p3
aI0
aa(lp4
S'distance'
p5
aF47.234764099121094
aa(lp6
S'timestamp'
p7
aF7.84490704536438
aatp8
Rp9
.ccollections
OrderedDict
p0
((lp1
(lp2
S'state'
p3
aI0
aa(lp4
S'distance'
p5
aF47.234764099121094
aa(lp6
S'timestamp'
p7
aF7.845301866531372
aatp8
Rp9
.ccollections
OrderedDict
p0
((lp1
(lp2
S'state'
p3
aI0
aa(lp4
S'distance'
p5
aF47.234764099121094
aa(lp6
S'timestamp'
p7
aF7.854784965515137
aatp8
Rp9
.ccollections
OrderedDict
p0
((lp1
(lp2
S'state'
p3
aI0
aa(lp4
S'distance'
p5
aF47.234764099121094
aa(lp6
S'timestamp'
p7
aF7.85536789894104
aatp8
Rp9
.ccollections
OrderedDict
p0
((lp1
(lp2
S'state'
p3
aI0
aa(lp4
S'distance'
p5
aF47.234764099121094
aa(lp6
S'timestamp'
p7
aF7.864917039871216
aatp8
Rp9
.ccollections
OrderedDict
p0
((lp1
(lp2
S'state'
p3
aI0
aa(lp4
S'distance'
p5
aF47.234764099121094
aa(lp6
S'timestamp'
p7
aF7.8652989864349365
aatp8
Rp9
.ccollections
OrderedDict
p0
((lp1
(lp2
S'state'
p3
aI0
aa(lp4
S'distance'
p5
aF47.234764099121094
aa(lp6
S'timestamp'
p7
aF7.874897003173828
aatp8
Rp9
.ccollections
OrderedDict
p0
((lp1
(lp2
S'state'
p3
aI0
aa(lp4
S'distance'
p5
aF47.234764099121094
aa(lp6
S'timestamp'
p7
aF7.875519037246704
aatp8
Rp9
.ccollections
OrderedDict
p0
((lp1
(lp2
S'state'
p3
aI0
aa(lp4
S'distance'
p5
aF47.234764099121094
aa(lp6
S'timestamp'
p7
aF7.884791851043701
aatp8
Rp9
.ccollections
OrderedDict
p0
((lp1
(lp2
S'state'
p3
aI0
aa(lp4
S'distance'
p5
aF47.234764099121094
aa(lp6
S'timestamp'
p7
aF7.885344982147217
aatp8
Rp9
.ccollections
OrderedDict
p0
((lp1
(lp2
S'state'
p3
aI0
aa(lp4
S'distance'
p5
aF47.234764099121094
aa(lp6
S'timestamp'
p7
aF7.895259857177734
aatp8
Rp9
.ccollections
OrderedDict
p0
((lp1
(lp2
S'state'
p3
aI0
aa(lp4
S'distance'
p5
aF47.234764099121094
aa(lp6
S'timestamp'
p7
aF7.895492076873779
aatp8
Rp9
.ccollections
OrderedDict
p0
((lp1
(lp2
S'state'
p3
aI0
aa(lp4
S'distance'
p5
aF47.234764099121094
aa(lp6
S'timestamp'
p7
aF7.905205965042114
aatp8
Rp9
.ccollections
OrderedDict
p0
((lp1
(lp2
S'state'
p3
aI0
aa(lp4
S'distance'
p5
aF47.234764099121094
aa(lp6
S'timestamp'
p7
aF7.905501842498779
aatp8
Rp9
.ccollections
OrderedDict
p0
((lp1
(lp2
S'state'
p3
aI0
aa(lp4
S'distance'
p5
aF47.234764099121094
aa(lp6
S'timestamp'
p7
aF7.914862871170044
aatp8
Rp9
.ccollections
OrderedDict
p0
((lp1
(lp2
S'state'
p3
aI0
aa(lp4
S'distance'
p5
aF47.234764099121094
aa(lp6
S'timestamp'
p7
aF7.915533065795898
aatp8
Rp9
.ccollections
OrderedDict
p0
((lp1
(lp2
S'state'
p3
aI0
aa(lp4
S'distance'
p5
aF47.234764099121094
aa(lp6
S'timestamp'
p7
aF7.92508602142334
aatp8
Rp9
.ccollections
OrderedDict
p0
((lp1
(lp2
S'state'
p3
aI0
aa(lp4
S'distance'
p5
aF47.234764099121094
aa(lp6
S'timestamp'
p7
aF7.9254310131073
aatp8
Rp9
.ccollections
OrderedDict
p0
((lp1
(lp2
S'state'
p3
aI0
aa(lp4
S'distance'
p5
aF47.234764099121094
aa(lp6
S'timestamp'
p7
aF7.935275077819824
aatp8
Rp9
.ccollections
OrderedDict
p0
((lp1
(lp2
S'state'
p3
aI0
aa(lp4
S'distance'
p5
aF47.234764099121094
aa(lp6
S'timestamp'
p7
aF7.935412883758545
aatp8
Rp9
.ccollections
OrderedDict
p0
((lp1
(lp2
S'state'
p3
aI0
aa(lp4
S'distance'
p5
aF47.234764099121094
aa(lp6
S'timestamp'
p7
aF7.9453229904174805
aatp8
Rp9
.ccollections
OrderedDict
p0
((lp1
(lp2
S'state'
p3
aI0
aa(lp4
S'distance'
p5
aF47.234764099121094
aa(lp6
S'timestamp'
p7
aF7.945433855056763
aatp8
Rp9
.ccollections
OrderedDict
p0
((lp1
(lp2
S'state'
p3
aI0
aa(lp4
S'distance'
p5
aF47.234764099121094
aa(lp6
S'timestamp'
p7
aF7.955290079116821
aatp8
Rp9
.ccollections
OrderedDict
p0
((lp1
(lp2
S'state'
p3
aI0
aa(lp4
S'distance'
p5
aF47.234764099121094
aa(lp6
S'timestamp'
p7
aF7.955448865890503
aatp8
Rp9
.ccollections
OrderedDict
p0
((lp1
(lp2
S'state'
p3
aI0
aa(lp4
S'distance'
p5
aF47.234764099121094
aa(lp6
S'timestamp'
p7
aF7.974840879440308
aatp8
Rp9
.ccollections
OrderedDict
p0
((lp1
(lp2
S'state'
p3
aI0
aa(lp4
S'distance'
p5
aF47.234764099121094
aa(lp6
S'timestamp'
p7
aF7.975694894790649
aatp8
Rp9
.ccollections
OrderedDict
p0
((lp1
(lp2
S'state'
p3
aI0
aa(lp4
S'distance'
p5
aF47.234764099121094
aa(lp6
S'timestamp'
p7
aF7.977294921875
aatp8
Rp9
.ccollections
OrderedDict
p0
((lp1
(lp2
S'state'
p3
aI0
aa(lp4
S'distance'
p5
aF47.234764099121094
aa(lp6
S'timestamp'
p7
aF7.995259046554565
aatp8
Rp9
.ccollections
OrderedDict
p0
((lp1
(lp2
S'state'
p3
aI0
aa(lp4
S'distance'
p5
aF47.234764099121094
aa(lp6
S'timestamp'
p7
aF7.995537996292114
aatp8
Rp9
.ccollections
OrderedDict
p0
((lp1
(lp2
S'state'
p3
aI0
aa(lp4
S'distance'
p5
aF47.234764099121094
aa(lp6
S'timestamp'
p7
aF7.99564790725708
aatp8
Rp9
.ccollections
OrderedDict
p0
((lp1
(lp2
S'state'
p3
aI0
aa(lp4
S'distance'
p5
aF47.234764099121094
aa(lp6
S'timestamp'
p7
aF8.005218982696533
aatp8
Rp9
.ccollections
OrderedDict
p0
((lp1
(lp2
S'state'
p3
aI0
aa(lp4
S'distance'
p5
aF47.234764099121094
aa(lp6
S'timestamp'
p7
aF8.005337953567505
aatp8
Rp9
.ccollections
OrderedDict
p0
((lp1
(lp2
S'state'
p3
aI0
aa(lp4
S'distance'
p5
aF47.234764099121094
aa(lp6
S'timestamp'
p7
aF8.007487058639526
aatp8
Rp9
.ccollections
OrderedDict
p0
((lp1
(lp2
S'state'
p3
aI0
aa(lp4
S'distance'
p5
aF47.234764099121094
aa(lp6
S'timestamp'
p7
aF8.00791597366333
aatp8
Rp9
.