ccollections
OrderedDict
p0
((lp1
(lp2
S'state'
p3
aI0
aa(lp4
S'distance'
p5
aF374.4912567138672
aa(lp6
S'timestamp'
p7
aF0.00067901611328125
aatp8
Rp9
.ccollections
OrderedDict
p0
((lp1
(lp2
S'state'
p3
aI0
aa(lp4
S'distance'
p5
aF374.4912567138672
aa(lp6
S'timestamp'
p7
aF0.009244918823242188
aatp8
Rp9
.ccollections
OrderedDict
p0
((lp1
(lp2
S'state'
p3
aI0
aa(lp4
S'distance'
p5
aF374.4912567138672
aa(lp6
S'timestamp'
p7
aF0.009721994400024414
aatp8
Rp9
.ccollections
OrderedDict
p0
((lp1
(lp2
S'state'
p3
aI0
aa(lp4
S'distance'
p5
aF374.4912567138672
aa(lp6
S'timestamp'
p7
aF0.024616003036499023
aatp8
Rp9
.ccollections
OrderedDict
p0
((lp1
(lp2
S'state'
p3
aI0
aa(lp4
S'distance'
p5
aF374.4912567138672
aa(lp6
S'timestamp'
p7
aF0.024739980697631836
aatp8
Rp9
.ccollections
OrderedDict
p0
((lp1
(lp2
S'state'
p3
aI0
aa(lp4
S'distance'
p5
aF374.4912567138672
aa(lp6
S'timestamp'
p7
aF0.028903961181640625
aatp8
Rp9
.ccollections
OrderedDict
p0
((lp1
(lp2
S'state'
p3
aI0
aa(lp4
S'distance'
p5
aF374.4912567138672
aa(lp6
S'timestamp'
p7
aF0.029211997985839844
aatp8
Rp9
.ccollections
OrderedDict
p0
((lp1
(lp2
S'state'
p3
aI0
aa(lp4
S'distance'
p5
aF374.4912567138672
aa(lp6
S'timestamp'
p7
aF0.04906201362609863
aatp8
Rp9
.ccollections
OrderedDict
p0
((lp1
(lp2
S'state'
p3
aI0
aa(lp4
S'distance'
p5
aF374.4912567138672
aa(lp6
S'timestamp'
p7
aF0.049932003021240234
aatp8
Rp9
.ccollections
OrderedDict
p0
((lp1
(lp2
S'state'
p3
aI0
aa(lp4
S'distance'
p5
aF374.4912567138672
aa(lp6
S'timestamp'
p7
aF0.05055093765258789
aatp8
Rp9
.ccollections
OrderedDict
p0
((lp1
(lp2
S'state'
p3
aI0
aa(lp4
S'distance'
p5
aF374.4912567138672
aa(lp6
S'timestamp'
p7
aF0.05253887176513672
aatp8
Rp9
.ccollections
OrderedDict
p0
((lp1
(lp2
S'state'
p3
aI0
aa(lp4
S'distance'
p5
aF374.4912567138672
aa(lp6
S'timestamp'
p7
aF0.059352874755859375
aatp8
Rp9
.ccollections
OrderedDict
p0
((lp1
(lp2
S'state'
p3
aI0
aa(lp4
S'distance'
p5
aF374.4912567138672
aa(lp6
S'timestamp'
p7
aF0.059931039810180664
aatp8
Rp9
.ccollections
OrderedDict
p0
((lp1
(lp2
S'state'
p3
aI0
aa(lp4
S'distance'
p5
aF374.4912567138672
aa(lp6
S'timestamp'
p7
aF0.06899690628051758
aatp8
Rp9
.ccollections
OrderedDict
p0
((lp1
(lp2
S'state'
p3
aI0
aa(lp4
S'distance'
p5
aF374.4912567138672
aa(lp6
S'timestamp'
p7
aF0.06981086730957031
aatp8
Rp9
.ccollections
OrderedDict
p0
((lp1
(lp2
S'state'
p3
aI0
aa(lp4
S'distance'
p5
aF374.4912567138672
aa(lp6
S'timestamp'
p7
aF0.07876801490783691
aatp8
Rp9
.ccollections
OrderedDict
p0
((lp1
(lp2
S'state'
p3
aI0
aa(lp4
S'distance'
p5
aF374.4912567138672
aa(lp6
S'timestamp'
p7
aF0.08003401756286621
aatp8
Rp9
.ccollections
OrderedDict
p0
((lp1
(lp2
S'state'
p3
aI0
aa(lp4
S'distance'
p5
aF374.4912567138672
aa(lp6
S'timestamp'
p7
aF0.08867001533508301
aatp8
Rp9
.ccollections
OrderedDict
p0
((lp1
(lp2
S'state'
p3
aI0
aa(lp4
S'distance'
p5
aF374.4912567138672
aa(lp6
S'timestamp'
p7
aF0.08909797668457031
aatp8
Rp9
.ccollections
OrderedDict
p0
((lp1
(lp2
S'state'
p3
aI0
aa(lp4
S'distance'
p5
aF374.4912567138672
aa(lp6
S'timestamp'
p7
aF0.09868192672729492
aatp8
Rp9
.ccollections
OrderedDict
p0
((lp1
(lp2
S'state'
p3
aI0
aa(lp4
S'distance'
p5
aF374.4912567138672
aa(lp6
S'timestamp'
p7
aF0.0996098518371582
aatp8
Rp9
.ccollections
OrderedDict
p0
((lp1
(lp2
S'state'
p3
aI0
aa(lp4
S'distance'
p5
aF374.4912567138672
aa(lp6
S'timestamp'
p7
aF0.10948300361633301
aatp8
Rp9
.ccollections
OrderedDict
p0
((lp1
(lp2
S'state'
p3
aI0
aa(lp4
S'distance'
p5
aF374.4912567138672
aa(lp6
S'timestamp'
p7
aF0.11068391799926758
aatp8
Rp9
.ccollections
OrderedDict
p0
((lp1
(lp2
S'state'
p3
aI0
aa(lp4
S'distance'
p5
aF374.4912567138672
aa(lp6
S'timestamp'
p7
aF0.12046384811401367
aatp8
Rp9
.ccollections
OrderedDict
p0
((lp1
(lp2
S'state'
p3
aI0
aa(lp4
S'distance'
p5
aF374.4912567138672
aa(lp6
S'timestamp'
p7
aF0.12086796760559082
aatp8
Rp9
.ccollections
OrderedDict
p0
((lp1
(lp2
S'state'
p3
aI0
aa(lp4
S'distance'
p5
aF374.4912567138672
aa(lp6
S'timestamp'
p7
aF0.13196802139282227
aatp8
Rp9
.ccollections
OrderedDict
p0
((lp1
(lp2
S'state'
p3
aI0
aa(lp4
S'distance'
p5
aF374.4912567138672
aa(lp6
S'timestamp'
p7
aF0.1331930160522461
aatp8
Rp9
.ccollections
OrderedDict
p0
((lp1
(lp2
S'state'
p3
aI0
aa(lp4
S'distance'
p5
aF374.4912567138672
aa(lp6
S'timestamp'
p7
aF0.13940691947937012
aatp8
Rp9
.ccollections
OrderedDict
p0
((lp1
(lp2
S'state'
p3
aI0
aa(lp4
S'distance'
p5
aF374.4912567138672
aa(lp6
S'timestamp'
p7
aF0.13958191871643066
aatp8
Rp9
.ccollections
OrderedDict
p0
((lp1
(lp2
S'state'
p3
aI0
aa(lp4
S'distance'
p5
aF374.4912567138672
aa(lp6
S'timestamp'
p7
aF0.1484699249267578
aatp8
Rp9
.ccollections
OrderedDict
p0
((lp1
(lp2
S'state'
p3
aI0
aa(lp4
S'distance'
p5
aF374.4912567138672
aa(lp6
S'timestamp'
p7
aF0.14901304244995117
aatp8
Rp9
.ccollections
OrderedDict
p0
((lp1
(lp2
S'state'
p3
aI0
aa(lp4
S'distance'
p5
aF374.4912567138672
aa(lp6
S'timestamp'
p7
aF0.16900897026062012
aatp8
Rp9
.ccollections
OrderedDict
p0
((lp1
(lp2
S'state'
p3
aI0
aa(lp4
S'distance'
p5
aF374.4912567138672
aa(lp6
S'timestamp'
p7
aF0.17040586471557617
aatp8
Rp9
.ccollections
OrderedDict
p0
((lp1
(lp2
S'state'
p3
aI0
aa(lp4
S'distance'
p5
aF374.4912567138672
aa(lp6
S'timestamp'
p7
aF0.17165184020996094
aatp8
Rp9
.ccollections
OrderedDict
p0
((lp1
(lp2
S'state'
p3
aI0
aa(lp4
S'distance'
p5
aF374.4912567138672
aa(lp6
S'timestamp'
p7
aF0.1718740463256836
aatp8
Rp9
.ccollections
OrderedDict
p0
((lp1
(lp2
S'state'
p3
aI0
aa(lp4
S'distance'
p5
aF374.4912567138672
aa(lp6
S'timestamp'
p7
aF0.1796720027923584
aatp8
Rp9
.ccollections
OrderedDict
p0
((lp1
(lp2
S'state'
p3
aI0
aa(lp4
S'distance'
p5
aF374.4912567138672
aa(lp6
S'timestamp'
p7
aF0.17998194694519043
aatp8
Rp9
.ccollections
OrderedDict
p0
((lp1
(lp2
S'state'
p3
aI0
aa(lp4
S'distance'
p5
aF374.4912567138672
aa(lp6
S'timestamp'
p7
aF0.18915987014770508
aatp8
Rp9
.ccollections
OrderedDict
p0
((lp1
(lp2
S'state'
p3
aI0
aa(lp4
S'distance'
p5
aF374.4912567138672
aa(lp6
S'timestamp'
p7
aF0.18970394134521484
aatp8
Rp9
.ccollections
OrderedDict
p0
((lp1
(lp2
S'state'
p3
aI0
aa(lp4
S'distance'
p5
aF374.4912567138672
aa(lp6
S'timestamp'
p7
aF0.19902801513671875
aatp8
Rp9
.ccollections
OrderedDict
p0
((lp1
(lp2
S'state'
p3
aI0
aa(lp4
S'distance'
p5
aF374.4912567138672
aa(lp6
S'timestamp'
p7
aF0.2004399299621582
aatp8
Rp9
.ccollections
OrderedDict
p0
((lp1
(lp2
S'state'
p3
aI0
aa(lp4
S'distance'
p5
aF374.4912567138672
aa(lp6
S'timestamp'
p7
aF0.21892094612121582
aatp8
Rp9
.ccollections
OrderedDict
p0
((lp1
(lp2
S'state'
p3
aI0
aa(lp4
S'distance'
p5
aF374.4912567138672
aa(lp6
S'timestamp'
p7
aF0.21986103057861328
aatp8
Rp9
.ccollections
OrderedDict
p0
((lp1
(lp2
S'state'
p3
aI0
aa(lp4
S'distance'
p5
aF374.4912567138672
aa(lp6
S'timestamp'
p7
aF0.22106385231018066
aatp8
Rp9
.ccollections
OrderedDict
p0
((lp1
(lp2
S'state'
p3
aI0
aa(lp4
S'distance'
p5
aF374.4912567138672
aa(lp6
S'timestamp'
p7
aF0.22139191627502441
aatp8
Rp9
.ccollections
OrderedDict
p0
((lp1
(lp2
S'state'
p3
aI0
aa(lp4
S'distance'
p5
aF374.4912567138672
aa(lp6
S'timestamp'
p7
aF0.22908496856689453
aatp8
Rp9
.ccollections
OrderedDict
p0
((lp1
(lp2
S'state'
p3
aI0
aa(lp4
S'distance'
p5
aF374.4912567138672
aa(lp6
S'timestamp'
p7
aF0.2299480438232422
aatp8
Rp9
.ccollections
OrderedDict
p0
((lp1
(lp2
S'state'
p3
aI0
aa(lp4
S'distance'
p5
aF374.4912567138672
aa(lp6
S'timestamp'
p7
aF0.23958396911621094
aatp8
Rp9
.ccollections
OrderedDict
p0
((lp1
(lp2
S'state'
p3
aI0
aa(lp4
S'distance'
p5
aF374.4912567138672
aa(lp6
S'timestamp'
p7
aF0.23991894721984863
aatp8
Rp9
.ccollections
OrderedDict
p0
((lp1
(lp2
S'state'
p3
aI0
aa(lp4
S'distance'
p5
aF374.4912567138672
aa(lp6
S'timestamp'
p7
aF0.24913382530212402
aatp8
Rp9
.ccollections
OrderedDict
p0
((lp1
(lp2
S'state'
p3
aI0
aa(lp4
S'distance'
p5
aF374.4912567138672
aa(lp6
S'timestamp'
p7
aF0.25076985359191895
aatp8
Rp9
.ccollections
OrderedDict
p0
((lp1
(lp2
S'state'
p3
aI0
aa(lp4
S'distance'
p5
aF374.4912567138672
aa(lp6
S'timestamp'
p7
aF0.2590038776397705
aatp8
Rp9
.ccollections
OrderedDict
p0
((lp1
(lp2
S'state'
p3
aI0
aa(lp4
S'distance'
p5
aF374.4912567138672
aa(lp6
S'timestamp'
p7
aF0.2598118782043457
aatp8
Rp9
.ccollections
OrderedDict
p0
((lp1
(lp2
S'state'
p3
aI0
aa(lp4
S'distance'
p5
aF374.4912567138672
aa(lp6
S'timestamp'
p7
aF0.26940298080444336
aatp8
Rp9
.ccollections
OrderedDict
p0
((lp1
(lp2
S'state'
p3
aI0
aa(lp4
S'distance'
p5
aF374.4912567138672
aa(lp6
S'timestamp'
p7
aF0.270050048828125
aatp8
Rp9
.ccollections
OrderedDict
p0
((lp1
(lp2
S'state'
p3
aI0
aa(lp4
S'distance'
p5
aF374.4912567138672
aa(lp6
S'timestamp'
p7
aF0.27855587005615234
aatp8
Rp9
.ccollections
OrderedDict
p0
((lp1
(lp2
S'state'
p3
aI0
aa(lp4
S'distance'
p5
aF374.4912567138672
aa(lp6
S'timestamp'
p7
aF0.27916383743286133
aatp8
Rp9
.ccollections
OrderedDict
p0
((lp1
(lp2
S'state'
p3
aI0
aa(lp4
S'distance'
p5
aF374.4912567138672
aa(lp6
S'timestamp'
p7
aF0.2896249294281006
aatp8
Rp9
.ccollections
OrderedDict
p0
((lp1
(lp2
S'state'
p3
aI0
aa(lp4
S'distance'
p5
aF374.4912567138672
aa(lp6
S'timestamp'
p7
aF0.2898118495941162
aatp8
Rp9
.ccollections
OrderedDict
p0
((lp1
(lp2
S'state'
p3
aI0
aa(lp4
S'distance'
p5
aF374.4912567138672
aa(lp6
S'timestamp'
p7
aF0.2991600036621094
aatp8
Rp9
.ccollections
OrderedDict
p0
((lp1
(lp2
S'state'
p3
aI0
aa(lp4
S'distance'
p5
aF374.4912567138672
aa(lp6
S'timestamp'
p7
aF0.30029988288879395
aatp8
Rp9
.ccollections
OrderedDict
p0
((lp1
(lp2
S'state'
p3
aI0
aa(lp4
S'distance'
p5
aF374.4912567138672
aa(lp6
S'timestamp'
p7
aF0.30912184715270996
aatp8
Rp9
.ccollections
OrderedDict
p0
((lp1
(lp2
S'state'
p3
aI0
aa(lp4
S'distance'
p5
aF374.4912567138672
aa(lp6
S'timestamp'
p7
aF0.3101680278778076
aatp8
Rp9
.ccollections
OrderedDict
p0
((lp1
(lp2
S'state'
p3
aI0
aa(lp4
S'distance'
p5
aF374.4912567138672
aa(lp6
S'timestamp'
p7
aF0.3189280033111572
aatp8
Rp9
.ccollections
OrderedDict
p0
((lp1
(lp2
S'state'
p3
aI0
aa(lp4
S'distance'
p5
aF374.4912567138672
aa(lp6
S'timestamp'
p7
aF0.3200349807739258
aatp8
Rp9
.ccollections
OrderedDict
p0
((lp1
(lp2
S'state'
p3
aI0
aa(lp4
S'distance'
p5
aF374.4912567138672
aa(lp6
S'timestamp'
p7
aF0.3300638198852539
aatp8
Rp9
.ccollections
OrderedDict
p0
((lp1
(lp2
S'state'
p3
aI0
aa(lp4
S'distance'
p5
aF374.4912567138672
aa(lp6
S'timestamp'
p7
aF0.33035898208618164
aatp8
Rp9
.ccollections
OrderedDict
p0
((lp1
(lp2
S'state'
p3
aI0
aa(lp4
S'distance'
p5
aF374.4912567138672
aa(lp6
S'timestamp'
p7
aF0.3391709327697754
aatp8
Rp9
.ccollections
OrderedDict
p0
((lp1
(lp2
S'state'
p3
aI0
aa(lp4
S'distance'
p5
aF374.4912567138672
aa(lp6
S'timestamp'
p7
aF0.33984899520874023
aatp8
Rp9
.ccollections
OrderedDict
p0
((lp1
(lp2
S'state'
p3
aI0
aa(lp4
S'distance'
p5
aF374.4912567138672
aa(lp6
S'timestamp'
p7
aF0.3483598232269287
aatp8
Rp9
.ccollections
OrderedDict
p0
((lp1
(lp2
S'state'
p3
aI0
aa(lp4
S'distance'
p5
aF374.4912567138672
aa(lp6
S'timestamp'
p7
aF0.34896397590637207
aatp8
Rp9
.ccollections
OrderedDict
p0
((lp1
(lp2
S'state'
p3
aI0
aa(lp4
S'distance'
p5
aF374.4912567138672
aa(lp6
S'timestamp'
p7
aF0.3591649532318115
aatp8
Rp9
.ccollections
OrderedDict
p0
((lp1
(lp2
S'state'
p3
aI0
aa(lp4
S'distance'
p5
aF374.4912567138672
aa(lp6
S'timestamp'
p7
aF0.35976099967956543
aatp8
Rp9
.ccollections
OrderedDict
p0
((lp1
(lp2
S'state'
p3
aI0
aa(lp4
S'distance'
p5
aF374.4912567138672
aa(lp6
S'timestamp'
p7
aF0.36933183670043945
aatp8
Rp9
.ccollections
OrderedDict
p0
((lp1
(lp2
S'state'
p3
aI0
aa(lp4
S'distance'
p5
aF374.4912567138672
aa(lp6
S'timestamp'
p7
aF0.37011194229125977
aatp8
Rp9
.ccollections
OrderedDict
p0
((lp1
(lp2
S'state'
p3
aI0
aa(lp4
S'distance'
p5
aF374.4912567138672
aa(lp6
S'timestamp'
p7
aF0.3791229724884033
aatp8
Rp9
.ccollections
OrderedDict
p0
((lp1
(lp2
S'state'
p3
aI0
aa(lp4
S'distance'
p5
aF374.4912567138672
aa(lp6
S'timestamp'
p7
aF0.38137197494506836
aatp8
Rp9
.ccollections
OrderedDict
p0
((lp1
(lp2
S'state'
p3
aI0
aa(lp4
S'distance'
p5
aF374.4912567138672
aa(lp6
S'timestamp'
p7
aF0.389758825302124
aatp8
Rp9
.ccollections
OrderedDict
p0
((lp1
(lp2
S'state'
p3
aI0
aa(lp4
S'distance'
p5
aF374.4912567138672
aa(lp6
S'timestamp'
p7
aF0.38989901542663574
aatp8
Rp9
.ccollections
OrderedDict
p0
((lp1
(lp2
S'state'
p3
aI0
aa(lp4
S'distance'
p5
aF374.4912567138672
aa(lp6
S'timestamp'
p7
aF0.39913487434387207
aatp8
Rp9
.ccollections
OrderedDict
p0
((lp1
(lp2
S'state'
p3
aI0
aa(lp4
S'distance'
p5
aF374.4912567138672
aa(lp6
S'timestamp'
p7
aF0.3995089530944824
aatp8
Rp9
.ccollections
OrderedDict
p0
((lp1
(lp2
S'state'
p3
aI0
aa(lp4
S'distance'
p5
aF374.4912567138672
aa(lp6
S'timestamp'
p7
aF0.41890597343444824
aatp8
Rp9
.ccollections
OrderedDict
p0
((lp1
(lp2
S'state'
p3
aI0
aa(lp4
S'distance'
p5
aF374.4912567138672
aa(lp6
S'timestamp'
p7
aF0.4199638366699219
aatp8
Rp9
.ccollections
OrderedDict
p0
((lp1
(lp2
S'state'
p3
aI0
aa(lp4
S'distance'
p5
aF374.4912567138672
aa(lp6
S'timestamp'
p7
aF0.4201090335845947
aatp8
Rp9
.ccollections
OrderedDict
p0
((lp1
(lp2
S'state'
p3
aI0
aa(lp4
S'distance'
p5
aF374.4912567138672
aa(lp6
S'timestamp'
p7
aF0.42121100425720215
aatp8
Rp9
.ccollections
OrderedDict
p0
((lp1
(lp2
S'state'
p3
aI0
aa(lp4
S'distance'
p5
aF374.4912567138672
aa(lp6
S'timestamp'
p7
aF0.42864084243774414
aatp8
Rp9
.ccollections
OrderedDict
p0
((lp1
(lp2
S'state'
p3
aI0
aa(lp4
S'distance'
p5
aF374.4912567138672
aa(lp6
S'timestamp'
p7
aF0.42911601066589355
aatp8
Rp9
.ccollections
OrderedDict
p0
((lp1
(lp2
S'state'
p3
aI0
aa(lp4
S'distance'
p5
aF374.4912567138672
aa(lp6
S'timestamp'
p7
aF0.4387178421020508
aatp8
Rp9
.ccollections
OrderedDict
p0
((lp1
(lp2
S'state'
p3
aI0
aa(lp4
S'distance'
p5
aF374.4912567138672
aa(lp6
S'timestamp'
p7
aF0.4406719207763672
aatp8
Rp9
.ccollections
OrderedDict
p0
((lp1
(lp2
S'state'
p3
aI0
aa(lp4
S'distance'
p5
aF374.4912567138672
aa(lp6
S'timestamp'
p7
aF0.4496920108795166
aatp8
Rp9
.ccollections
OrderedDict
p0
((lp1
(lp2
S'state'
p3
aI0
aa(lp4
S'distance'
p5
aF374.4912567138672
aa(lp6
S'timestamp'
p7
aF0.44984889030456543
aatp8
Rp9
.ccollections
OrderedDict
p0
((lp1
(lp2
S'state'
p3
aI0
aa(lp4
S'distance'
p5
aF374.4912567138672
aa(lp6
S'timestamp'
p7
aF0.45902395248413086
aatp8
Rp9
.ccollections
OrderedDict
p0
((lp1
(lp2
S'state'
p3
aI0
aa(lp4
S'distance'
p5
aF374.4912567138672
aa(lp6
S'timestamp'
p7
aF0.4592409133911133
aatp8
Rp9
.ccollections
OrderedDict
p0
((lp1
(lp2
S'state'
p3
aI0
aa(lp4
S'distance'
p5
aF374.4912567138672
aa(lp6
S'timestamp'
p7
aF0.469135046005249
aatp8
Rp9
.ccollections
OrderedDict
p0
((lp1
(lp2
S'state'
p3
aI0
aa(lp4
S'distance'
p5
aF374.4912567138672
aa(lp6
S'timestamp'
p7
aF0.4693319797515869
aatp8
Rp9
.ccollections
OrderedDict
p0
((lp1
(lp2
S'state'
p3
aI0
aa(lp4
S'distance'
p5
aF374.4912567138672
aa(lp6
S'timestamp'
p7
aF0.4804399013519287
aatp8
Rp9
.ccollections
OrderedDict
p0
((lp1
(lp2
S'state'
p3
aI0
aa(lp4
S'distance'
p5
aF374.4912567138672
aa(lp6
S'timestamp'
p7
aF0.48050498962402344
aatp8
Rp9
.ccollections
OrderedDict
p0
((lp1
(lp2
S'state'
p3
aI0
aa(lp4
S'distance'
p5
aF374.4912567138672
aa(lp6
S'timestamp'
p7
aF0.4891078472137451
aatp8
Rp9
.ccollections
OrderedDict
p0
((lp1
(lp2
S'state'
p3
aI0
aa(lp4
S'distance'
p5
aF374.4912567138672
aa(lp6
S'timestamp'
p7
aF0.4909799098968506
aatp8
Rp9
.ccollections
OrderedDict
p0
((lp1
(lp2
S'state'
p3
aI0
aa(lp4
S'distance'
p5
aF374.4912567138672
aa(lp6
S'timestamp'
p7
aF0.49883484840393066
aatp8
Rp9
.ccollections
OrderedDict
p0
((lp1
(lp2
S'state'
p3
aI0
aa(lp4
S'distance'
p5
aF374.4912567138672
aa(lp6
S'timestamp'
p7
aF0.49988389015197754
aatp8
Rp9
.ccollections
OrderedDict
p0
((lp1
(lp2
S'state'
p3
aI0
aa(lp4
S'distance'
p5
aF374.4912567138672
aa(lp6
S'timestamp'
p7
aF0.5091018676757812
aatp8
Rp9
.ccollections
OrderedDict
p0
((lp1
(lp2
S'state'
p3
aI0
aa(lp4
S'distance'
p5
aF374.4912567138672
aa(lp6
S'timestamp'
p7
aF0.5100438594818115
aatp8
Rp9
.ccollections
OrderedDict
p0
((lp1
(lp2
S'state'
p3
aI0
aa(lp4
S'distance'
p5
aF374.4912567138672
aa(lp6
S'timestamp'
p7
aF0.520129919052124
aatp8
Rp9
.ccollections
OrderedDict
p0
((lp1
(lp2
S'state'
p3
aI0
aa(lp4
S'distance'
p5
aF374.4912567138672
aa(lp6
S'timestamp'
p7
aF0.5201969146728516
aatp8
Rp9
.ccollections
OrderedDict
p0
((lp1
(lp2
S'state'
p3
aI0
aa(lp4
S'distance'
p5
aF374.4912567138672
aa(lp6
S'timestamp'
p7
aF0.5310368537902832
aatp8
Rp9
.ccollections
OrderedDict
p0
((lp1
(lp2
S'state'
p3
aI0
aa(lp4
S'distance'
p5
aF374.4912567138672
aa(lp6
S'timestamp'
p7
aF0.5310988426208496
aatp8
Rp9
.ccollections
OrderedDict
p0
((lp1
(lp2
S'state'
p3
aI0
aa(lp4
S'distance'
p5
aF374.4912567138672
aa(lp6
S'timestamp'
p7
aF0.5402028560638428
aatp8
Rp9
.ccollections
OrderedDict
p0
((lp1
(lp2
S'state'
p3
aI0
aa(lp4
S'distance'
p5
aF374.4912567138672
aa(lp6
S'timestamp'
p7
aF0.5403800010681152
aatp8
Rp9
.ccollections
OrderedDict
p0
((lp1
(lp2
S'state'
p3
aI0
aa(lp4
S'distance'
p5
aF374.4912567138672
aa(lp6
S'timestamp'
p7
aF0.5501060485839844
aatp8
Rp9
.ccollections
OrderedDict
p0
((lp1
(lp2
S'state'
p3
aI0
aa(lp4
S'distance'
p5
aF374.4912567138672
aa(lp6
S'timestamp'
p7
aF0.5501739978790283
aatp8
Rp9
.ccollections
OrderedDict
p0
((lp1
(lp2
S'state'
p3
aI0
aa(lp4
S'distance'
p5
aF374.4912567138672
aa(lp6
S'timestamp'
p7
aF0.5590319633483887
aatp8
Rp9
.ccollections
OrderedDict
p0
((lp1
(lp2
S'state'
p3
aI0
aa(lp4
S'distance'
p5
aF374.4912567138672
aa(lp6
S'timestamp'
p7
aF0.5599098205566406
aatp8
Rp9
.ccollections
OrderedDict
p0
((lp1
(lp2
S'state'
p3
aI0
aa(lp4
S'distance'
p5
aF374.4912567138672
aa(lp6
S'timestamp'
p7
aF0.5690088272094727
aatp8
Rp9
.ccollections
OrderedDict
p0
((lp1
(lp2
S'state'
p3
aI0
aa(lp4
S'distance'
p5
aF374.4912567138672
aa(lp6
S'timestamp'
p7
aF0.5709559917449951
aatp8
Rp9
.ccollections
OrderedDict
p0
((lp1
(lp2
S'state'
p3
aI0
aa(lp4
S'distance'
p5
aF374.4912567138672
aa(lp6
S'timestamp'
p7
aF0.590216875076294
aatp8
Rp9
.ccollections
OrderedDict
p0
((lp1
(lp2
S'state'
p3
aI0
aa(lp4
S'distance'
p5
aF374.4912567138672
aa(lp6
S'timestamp'
p7
aF0.5903010368347168
aatp8
Rp9
.ccollections
OrderedDict
p0
((lp1
(lp2
S'state'
p3
aI0
aa(lp4
S'distance'
p5
aF374.4912567138672
aa(lp6
S'timestamp'
p7
aF0.5904028415679932
aatp8
Rp9
.ccollections
OrderedDict
p0
((lp1
(lp2
S'state'
p3
aI0
aa(lp4
S'distance'
p5
aF374.4912567138672
aa(lp6
S'timestamp'
p7
aF0.5908529758453369
aatp8
Rp9
.ccollections
OrderedDict
p0
((lp1
(lp2
S'state'
p3
aI0
aa(lp4
S'distance'
p5
aF374.4912567138672
aa(lp6
S'timestamp'
p7
aF0.5990469455718994
aatp8
Rp9
.ccollections
OrderedDict
p0
((lp1
(lp2
S'state'
p3
aI0
aa(lp4
S'distance'
p5
aF374.4912567138672
aa(lp6
S'timestamp'
p7
aF0.5998318195343018
aatp8
Rp9
.ccollections
OrderedDict
p0
((lp1
(lp2
S'state'
p3
aI0
aa(lp4
S'distance'
p5
aF374.4912567138672
aa(lp6
S'timestamp'
p7
aF0.6131019592285156
aatp8
Rp9
.ccollections
OrderedDict
p0
((lp1
(lp2
S'state'
p3
aI0
aa(lp4
S'distance'
p5
aF374.4912567138672
aa(lp6
S'timestamp'
p7
aF0.616480827331543
aatp8
Rp9
.ccollections
OrderedDict
p0
((lp1
(lp2
S'state'
p3
aI0
aa(lp4
S'distance'
p5
aF374.4912567138672
aa(lp6
S'timestamp'
p7
aF0.6225779056549072
aatp8
Rp9
.ccollections
OrderedDict
p0
((lp1
(lp2
S'state'
p3
aI0
aa(lp4
S'distance'
p5
aF374.4912567138672
aa(lp6
S'timestamp'
p7
aF0.6261179447174072
aatp8
Rp9
.ccollections
OrderedDict
p0
((lp1
(lp2
S'state'
p3
aI0
aa(lp4
S'distance'
p5
aF374.4912567138672
aa(lp6
S'timestamp'
p7
aF0.6286389827728271
aatp8
Rp9
.ccollections
OrderedDict
p0
((lp1
(lp2
S'state'
p3
aI0
aa(lp4
S'distance'
p5
aF374.4912567138672
aa(lp6
S'timestamp'
p7
aF0.6300668716430664
aatp8
Rp9
.ccollections
OrderedDict
p0
((lp1
(lp2
S'state'
p3
aI0
aa(lp4
S'distance'
p5
aF374.4912567138672
aa(lp6
S'timestamp'
p7
aF0.6404719352722168
aatp8
Rp9
.ccollections
OrderedDict
p0
((lp1
(lp2
S'state'
p3
aI0
aa(lp4
S'distance'
p5
aF374.4912567138672
aa(lp6
S'timestamp'
p7
aF0.6408360004425049
aatp8
Rp9
.ccollections
OrderedDict
p0
((lp1
(lp2
S'state'
p3
aI0
aa(lp4
S'distance'
p5
aF374.4912567138672
aa(lp6
S'timestamp'
p7
aF0.6498098373413086
aatp8
Rp9
.ccollections
OrderedDict
p0
((lp1
(lp2
S'state'
p3
aI0
aa(lp4
S'distance'
p5
aF374.4912567138672
aa(lp6
S'timestamp'
p7
aF0.6513278484344482
aatp8
Rp9
.ccollections
OrderedDict
p0
((lp1
(lp2
S'state'
p3
aI0
aa(lp4
S'distance'
p5
aF374.4912567138672
aa(lp6
S'timestamp'
p7
aF0.6589798927307129
aatp8
Rp9
.ccollections
OrderedDict
p0
((lp1
(lp2
S'state'
p3
aI0
aa(lp4
S'distance'
p5
aF374.4912567138672
aa(lp6
S'timestamp'
p7
aF0.6597499847412109
aatp8
Rp9
.ccollections
OrderedDict
p0
((lp1
(lp2
S'state'
p3
aI0
aa(lp4
S'distance'
p5
aF374.4912567138672
aa(lp6
S'timestamp'
p7
aF0.6690499782562256
aatp8
Rp9
.ccollections
OrderedDict
p0
((lp1
(lp2
S'state'
p3
aI0
aa(lp4
S'distance'
p5
aF374.4912567138672
aa(lp6
S'timestamp'
p7
aF0.6701960563659668
aatp8
Rp9
.ccollections
OrderedDict
p0
((lp1
(lp2
S'state'
p3
aI0
aa(lp4
S'distance'
p5
aF374.4912567138672
aa(lp6
S'timestamp'
p7
aF0.6804440021514893
aatp8
Rp9
.ccollections
OrderedDict
p0
((lp1
(lp2
S'state'
p3
aI0
aa(lp4
S'distance'
p5
aF374.4912567138672
aa(lp6
S'timestamp'
p7
aF0.681229829788208
aatp8
Rp9
.ccollections
OrderedDict
p0
((lp1
(lp2
S'state'
p3
aI0
aa(lp4
S'distance'
p5
aF374.4912567138672
aa(lp6
S'timestamp'
p7
aF0.6898338794708252
aatp8
Rp9
.ccollections
OrderedDict
p0
((lp1
(lp2
S'state'
p3
aI0
aa(lp4
S'distance'
p5
aF374.4912567138672
aa(lp6
S'timestamp'
p7
aF0.6899769306182861
aatp8
Rp9
.ccollections
OrderedDict
p0
((lp1
(lp2
S'state'
p3
aI0
aa(lp4
S'distance'
p5
aF374.4912567138672
aa(lp6
S'timestamp'
p7
aF0.6997878551483154
aatp8
Rp9
.ccollections
OrderedDict
p0
((lp1
(lp2
S'state'
p3
aI0
aa(lp4
S'distance'
p5
aF374.4912567138672
aa(lp6
S'timestamp'
p7
aF0.7000880241394043
aatp8
Rp9
.ccollections
OrderedDict
p0
((lp1
(lp2
S'state'
p3
aI0
aa(lp4
S'distance'
p5
aF374.4912567138672
aa(lp6
S'timestamp'
p7
aF0.709453821182251
aatp8
Rp9
.ccollections
OrderedDict
p0
((lp1
(lp2
S'state'
p3
aI0
aa(lp4
S'distance'
p5
aF374.4912567138672
aa(lp6
S'timestamp'
p7
aF0.7096278667449951
aatp8
Rp9
.ccollections
OrderedDict
p0
((lp1
(lp2
S'state'
p3
aI0
aa(lp4
S'distance'
p5
aF374.4912567138672
aa(lp6
S'timestamp'
p7
aF0.7186708450317383
aatp8
Rp9
.ccollections
OrderedDict
p0
((lp1
(lp2
S'state'
p3
aI0
aa(lp4
S'distance'
p5
aF374.4912567138672
aa(lp6
S'timestamp'
p7
aF0.7204279899597168
aatp8
Rp9
.ccollections
OrderedDict
p0
((lp1
(lp2
S'state'
p3
aI0
aa(lp4
S'distance'
p5
aF374.4912567138672
aa(lp6
S'timestamp'
p7
aF0.729902982711792
aatp8
Rp9
.ccollections
OrderedDict
p0
((lp1
(lp2
S'state'
p3
aI0
aa(lp4
S'distance'
p5
aF374.4912567138672
aa(lp6
S'timestamp'
p7
aF0.7300448417663574
aatp8
Rp9
.ccollections
OrderedDict
p0
((lp1
(lp2
S'state'
p3
aI0
aa(lp4
S'distance'
p5
aF374.4912567138672
aa(lp6
S'timestamp'
p7
aF0.7391719818115234
aatp8
Rp9
.ccollections
OrderedDict
p0
((lp1
(lp2
S'state'
p3
aI0
aa(lp4
S'distance'
p5
aF374.4912567138672
aa(lp6
S'timestamp'
p7
aF0.739717960357666
aatp8
Rp9
.ccollections
OrderedDict
p0
((lp1
(lp2
S'state'
p3
aI0
aa(lp4
S'distance'
p5
aF374.4912567138672
aa(lp6
S'timestamp'
p7
aF0.7483730316162109
aatp8
Rp9
.ccollections
OrderedDict
p0
((lp1
(lp2
S'state'
p3
aI0
aa(lp4
S'distance'
p5
aF374.4912567138672
aa(lp6
S'timestamp'
p7
aF0.749053955078125
aatp8
Rp9
.ccollections
OrderedDict
p0
((lp1
(lp2
S'state'
p3
aI0
aa(lp4
S'distance'
p5
aF374.4912567138672
aa(lp6
S'timestamp'
p7
aF0.7586510181427002
aatp8
Rp9
.ccollections
OrderedDict
p0
((lp1
(lp2
S'state'
p3
aI0
aa(lp4
S'distance'
p5
aF374.4912567138672
aa(lp6
S'timestamp'
p7
aF0.7596628665924072
aatp8
Rp9
.ccollections
OrderedDict
p0
((lp1
(lp2
S'state'
p3
aI0
aa(lp4
S'distance'
p5
aF374.4912567138672
aa(lp6
S'timestamp'
p7
aF0.7690098285675049
aatp8
Rp9
.ccollections
OrderedDict
p0
((lp1
(lp2
S'state'
p3
aI0
aa(lp4
S'distance'
p5
aF374.4912567138672
aa(lp6
S'timestamp'
p7
aF0.7692039012908936
aatp8
Rp9
.ccollections
OrderedDict
p0
((lp1
(lp2
S'state'
p3
aI0
aa(lp4
S'distance'
p5
aF374.4912567138672
aa(lp6
S'timestamp'
p7
aF0.7885899543762207
aatp8
Rp9
.ccollections
OrderedDict
p0
((lp1
(lp2
S'state'
p3
aI0
aa(lp4
S'distance'
p5
aF374.4912567138672
aa(lp6
S'timestamp'
p7
aF0.7891969680786133
aatp8
Rp9
.ccollections
OrderedDict
p0
((lp1
(lp2
S'state'
p3
aI0
aa(lp4
S'distance'
p5
aF374.4912567138672
aa(lp6
S'timestamp'
p7
aF0.790848970413208
aatp8
Rp9
.ccollections
OrderedDict
p0
((lp1
(lp2
S'state'
p3
aI0
aa(lp4
S'distance'
p5
aF374.4912567138672
aa(lp6
S'timestamp'
p7
aF0.7909238338470459
aatp8
Rp9
.ccollections
OrderedDict
p0
((lp1
(lp2
S'state'
p3
aI0
aa(lp4
S'distance'
p5
aF374.4912567138672
aa(lp6
S'timestamp'
p7
aF0.7985210418701172
aatp8
Rp9
.ccollections
OrderedDict
p0
((lp1
(lp2
S'state'
p3
aI0
aa(lp4
S'distance'
p5
aF374.4912567138672
aa(lp6
S'timestamp'
p7
aF0.8003418445587158
aatp8
Rp9
.ccollections
OrderedDict
p0
((lp1
(lp2
S'state'
p3
aI0
aa(lp4
S'distance'
p5
aF374.4912567138672
aa(lp6
S'timestamp'
p7
aF0.8097169399261475
aatp8
Rp9
.ccollections
OrderedDict
p0
((lp1
(lp2
S'state'
p3
aI0
aa(lp4
S'distance'
p5
aF374.4912567138672
aa(lp6
S'timestamp'
p7
aF0.8099050521850586
aatp8
Rp9
.ccollections
OrderedDict
p0
((lp1
(lp2
S'state'
p3
aI0
aa(lp4
S'distance'
p5
aF374.4912567138672
aa(lp6
S'timestamp'
p7
aF0.8219490051269531
aatp8
Rp9
.ccollections
OrderedDict
p0
((lp1
(lp2
S'state'
p3
aI0
aa(lp4
S'distance'
p5
aF374.4912567138672
aa(lp6
S'timestamp'
p7
aF0.8221049308776855
aatp8
Rp9
.ccollections
OrderedDict
p0
((lp1
(lp2
S'state'
p3
aI0
aa(lp4
S'distance'
p5
aF374.4912567138672
aa(lp6
S'timestamp'
p7
aF0.8283660411834717
aatp8
Rp9
.ccollections
OrderedDict
p0
((lp1
(lp2
S'state'
p3
aI0
aa(lp4
S'distance'
p5
aF374.4912567138672
aa(lp6
S'timestamp'
p7
aF0.8292229175567627
aatp8
Rp9
.ccollections
OrderedDict
p0
((lp1
(lp2
S'state'
p3
aI0
aa(lp4
S'distance'
p5
aF374.4912567138672
aa(lp6
S'timestamp'
p7
aF0.8385469913482666
aatp8
Rp9
.ccollections
OrderedDict
p0
((lp1
(lp2
S'state'
p3
aI0
aa(lp4
S'distance'
p5
aF374.4912567138672
aa(lp6
S'timestamp'
p7
aF0.8400938510894775
aatp8
Rp9
.ccollections
OrderedDict
p0
((lp1
(lp2
S'state'
p3
aI0
aa(lp4
S'distance'
p5
aF374.4912567138672
aa(lp6
S'timestamp'
p7
aF0.8485820293426514
aatp8
Rp9
.ccollections
OrderedDict
p0
((lp1
(lp2
S'state'
p3
aI0
aa(lp4
S'distance'
p5
aF374.4912567138672
aa(lp6
S'timestamp'
p7
aF0.8502650260925293
aatp8
Rp9
.ccollections
OrderedDict
p0
((lp1
(lp2
S'state'
p3
aI0
aa(lp4
S'distance'
p5
aF374.4912567138672
aa(lp6
S'timestamp'
p7
aF0.859515905380249
aatp8
Rp9
.ccollections
OrderedDict
p0
((lp1
(lp2
S'state'
p3
aI0
aa(lp4
S'distance'
p5
aF374.4912567138672
aa(lp6
S'timestamp'
p7
aF0.8597409725189209
aatp8
Rp9
.ccollections
OrderedDict
p0
((lp1
(lp2
S'state'
p3
aI0
aa(lp4
S'distance'
p5
aF374.4912567138672
aa(lp6
S'timestamp'
p7
aF0.8684968948364258
aatp8
Rp9
.ccollections
OrderedDict
p0
((lp1
(lp2
S'state'
p3
aI0
aa(lp4
S'distance'
p5
aF374.4912567138672
aa(lp6
S'timestamp'
p7
aF0.8695838451385498
aatp8
Rp9
.ccollections
OrderedDict
p0
((lp1
(lp2
S'state'
p3
aI0
aa(lp4
S'distance'
p5
aF374.4912567138672
aa(lp6
S'timestamp'
p7
aF0.8785839080810547
aatp8
Rp9
.ccollections
OrderedDict
p0
((lp1
(lp2
S'state'
p3
aI0
aa(lp4
S'distance'
p5
aF374.4912567138672
aa(lp6
S'timestamp'
p7
aF0.8799948692321777
aatp8
Rp9
.ccollections
OrderedDict
p0
((lp1
(lp2
S'state'
p3
aI0
aa(lp4
S'distance'
p5
aF374.4912567138672
aa(lp6
S'timestamp'
p7
aF0.8896639347076416
aatp8
Rp9
.ccollections
OrderedDict
p0
((lp1
(lp2
S'state'
p3
aI0
aa(lp4
S'distance'
p5
aF374.4912567138672
aa(lp6
S'timestamp'
p7
aF0.8898580074310303
aatp8
Rp9
.ccollections
OrderedDict
p0
((lp1
(lp2
S'state'
p3
aI0
aa(lp4
S'distance'
p5
aF374.4912567138672
aa(lp6
S'timestamp'
p7
aF0.9100668430328369
aatp8
Rp9
.ccollections
OrderedDict
p0
((lp1
(lp2
S'state'
p3
aI0
aa(lp4
S'distance'
p5
aF374.4912567138672
aa(lp6
S'timestamp'
p7
aF0.9121029376983643
aatp8
Rp9
.ccollections
OrderedDict
p0
((lp1
(lp2
S'state'
p3
aI0
aa(lp4
S'distance'
p5
aF374.4912567138672
aa(lp6
S'timestamp'
p7
aF0.9124619960784912
aatp8
Rp9
.ccollections
OrderedDict
p0
((lp1
(lp2
S'state'
p3
aI0
aa(lp4
S'distance'
p5
aF374.4912567138672
aa(lp6
S'timestamp'
p7
aF0.9125559329986572
aatp8
Rp9
.ccollections
OrderedDict
p0
((lp1
(lp2
S'state'
p3
aI0
aa(lp4
S'distance'
p5
aF374.4912567138672
aa(lp6
S'timestamp'
p7
aF0.918936014175415
aatp8
Rp9
.ccollections
OrderedDict
p0
((lp1
(lp2
S'state'
p3
aI0
aa(lp4
S'distance'
p5
aF374.4912567138672
aa(lp6
S'timestamp'
p7
aF0.9190769195556641
aatp8
Rp9
.ccollections
OrderedDict
p0
((lp1
(lp2
S'state'
p3
aI0
aa(lp4
S'distance'
p5
aF374.4912567138672
aa(lp6
S'timestamp'
p7
aF0.928961992263794
aatp8
Rp9
.ccollections
OrderedDict
p0
((lp1
(lp2
S'state'
p3
aI0
aa(lp4
S'distance'
p5
aF374.4912567138672
aa(lp6
S'timestamp'
p7
aF0.9306519031524658
aatp8
Rp9
.ccollections
OrderedDict
p0
((lp1
(lp2
S'state'
p3
aI0
aa(lp4
S'distance'
p5
aF374.4912567138672
aa(lp6
S'timestamp'
p7
aF0.9389729499816895
aatp8
Rp9
.ccollections
OrderedDict
p0
((lp1
(lp2
S'state'
p3
aI0
aa(lp4
S'distance'
p5
aF374.4912567138672
aa(lp6
S'timestamp'
p7
aF0.9400959014892578
aatp8
Rp9
.ccollections
OrderedDict
p0
((lp1
(lp2
S'state'
p3
aI0
aa(lp4
S'distance'
p5
aF374.4912567138672
aa(lp6
S'timestamp'
p7
aF0.9484388828277588
aatp8
Rp9
.ccollections
OrderedDict
p0
((lp1
(lp2
S'state'
p3
aI0
aa(lp4
S'distance'
p5
aF374.4912567138672
aa(lp6
S'timestamp'
p7
aF0.9493448734283447
aatp8
Rp9
.ccollections
OrderedDict
p0
((lp1
(lp2
S'state'
p3
aI0
aa(lp4
S'distance'
p5
aF374.4912567138672
aa(lp6
S'timestamp'
p7
aF0.958503007888794
aatp8
Rp9
.ccollections
OrderedDict
p0
((lp1
(lp2
S'state'
p3
aI0
aa(lp4
S'distance'
p5
aF374.4912567138672
aa(lp6
S'timestamp'
p7
aF0.9598379135131836
aatp8
Rp9
.ccollections
OrderedDict
p0
((lp1
(lp2
S'state'
p3
aI0
aa(lp4
S'distance'
p5
aF374.4912567138672
aa(lp6
S'timestamp'
p7
aF0.9688048362731934
aatp8
Rp9
.ccollections
OrderedDict
p0
((lp1
(lp2
S'state'
p3
aI0
aa(lp4
S'distance'
p5
aF374.4912567138672
aa(lp6
S'timestamp'
p7
aF0.9689249992370605
aatp8
Rp9
.ccollections
OrderedDict
p0
((lp1
(lp2
S'state'
p3
aI0
aa(lp4
S'distance'
p5
aF374.4912567138672
aa(lp6
S'timestamp'
p7
aF0.979097843170166
aatp8
Rp9
.ccollections
OrderedDict
p0
((lp1
(lp2
S'state'
p3
aI0
aa(lp4
S'distance'
p5
aF374.4912567138672
aa(lp6
S'timestamp'
p7
aF0.9791970252990723
aatp8
Rp9
.ccollections
OrderedDict
p0
((lp1
(lp2
S'state'
p3
aI0
aa(lp4
S'distance'
p5
aF374.4912567138672
aa(lp6
S'timestamp'
p7
aF0.9895930290222168
aatp8
Rp9
.ccollections
OrderedDict
p0
((lp1
(lp2
S'state'
p3
aI0
aa(lp4
S'distance'
p5
aF374.4912567138672
aa(lp6
S'timestamp'
p7
aF0.9897818565368652
aatp8
Rp9
.ccollections
OrderedDict
p0
((lp1
(lp2
S'state'
p3
aI0
aa(lp4
S'distance'
p5
aF374.4912567138672
aa(lp6
S'timestamp'
p7
aF1.0098600387573242
aatp8
Rp9
.ccollections
OrderedDict
p0
((lp1
(lp2
S'state'
p3
aI0
aa(lp4
S'distance'
p5
aF374.4912567138672
aa(lp6
S'timestamp'
p7
aF1.010066032409668
aatp8
Rp9
.ccollections
OrderedDict
p0
((lp1
(lp2
S'state'
p3
aI0
aa(lp4
S'distance'
p5
aF374.4912567138672
aa(lp6
S'timestamp'
p7
aF1.0112099647521973
aatp8
Rp9
.ccollections
OrderedDict
p0
((lp1
(lp2
S'state'
p3
aI0
aa(lp4
S'distance'
p5
aF374.4912567138672
aa(lp6
S'timestamp'
p7
aF1.0120148658752441
aatp8
Rp9
.ccollections
OrderedDict
p0
((lp1
(lp2
S'state'
p3
aI0
aa(lp4
S'distance'
p5
aF374.4912567138672
aa(lp6
S'timestamp'
p7
aF1.0191929340362549
aatp8
Rp9
.ccollections
OrderedDict
p0
((lp1
(lp2
S'state'
p3
aI0
aa(lp4
S'distance'
p5
aF374.4912567138672
aa(lp6
S'timestamp'
p7
aF1.0193078517913818
aatp8
Rp9
.ccollections
OrderedDict
p0
((lp1
(lp2
S'state'
p3
aI0
aa(lp4
S'distance'
p5
aF374.4912567138672
aa(lp6
S'timestamp'
p7
aF1.0400748252868652
aatp8
Rp9
.ccollections
OrderedDict
p0
((lp1
(lp2
S'state'
p3
aI0
aa(lp4
S'distance'
p5
aF374.4912567138672
aa(lp6
S'timestamp'
p7
aF1.040226936340332
aatp8
Rp9
.ccollections
OrderedDict
p0
((lp1
(lp2
S'state'
p3
aI0
aa(lp4
S'distance'
p5
aF374.4912567138672
aa(lp6
S'timestamp'
p7
aF1.0417869091033936
aatp8
Rp9
.ccollections
OrderedDict
p0
((lp1
(lp2
S'state'
p3
aI0
aa(lp4
S'distance'
p5
aF374.4912567138672
aa(lp6
S'timestamp'
p7
aF1.0421168804168701
aatp8
Rp9
.ccollections
OrderedDict
p0
((lp1
(lp2
S'state'
p3
aI0
aa(lp4
S'distance'
p5
aF374.4912567138672
aa(lp6
S'timestamp'
p7
aF1.0486998558044434
aatp8
Rp9
.ccollections
OrderedDict
p0
((lp1
(lp2
S'state'
p3
aI0
aa(lp4
S'distance'
p5
aF374.4912567138672
aa(lp6
S'timestamp'
p7
aF1.0495870113372803
aatp8
Rp9
.ccollections
OrderedDict
p0
((lp1
(lp2
S'state'
p3
aI0
aa(lp4
S'distance'
p5
aF374.4912567138672
aa(lp6
S'timestamp'
p7
aF1.0587379932403564
aatp8
Rp9
.ccollections
OrderedDict
p0
((lp1
(lp2
S'state'
p3
aI0
aa(lp4
S'distance'
p5
aF374.4912567138672
aa(lp6
S'timestamp'
p7
aF1.059818983078003
aatp8
Rp9
.ccollections
OrderedDict
p0
((lp1
(lp2
S'state'
p3
aI0
aa(lp4
S'distance'
p5
aF374.4912567138672
aa(lp6
S'timestamp'
p7
aF1.0686588287353516
aatp8
Rp9
.ccollections
OrderedDict
p0
((lp1
(lp2
S'state'
p3
aI0
aa(lp4
S'distance'
p5
aF374.4912567138672
aa(lp6
S'timestamp'
p7
aF1.0696609020233154
aatp8
Rp9
.ccollections
OrderedDict
p0
((lp1
(lp2
S'state'
p3
aI0
aa(lp4
S'distance'
p5
aF374.4912567138672
aa(lp6
S'timestamp'
p7
aF1.078866958618164
aatp8
Rp9
.ccollections
OrderedDict
p0
((lp1
(lp2
S'state'
p3
aI0
aa(lp4
S'distance'
p5
aF374.4912567138672
aa(lp6
S'timestamp'
p7
aF1.0793609619140625
aatp8
Rp9
.ccollections
OrderedDict
p0
((lp1
(lp2
S'state'
p3
aI0
aa(lp4
S'distance'
p5
aF374.4912567138672
aa(lp6
S'timestamp'
p7
aF1.0887360572814941
aatp8
Rp9
.ccollections
OrderedDict
p0
((lp1
(lp2
S'state'
p3
aI0
aa(lp4
S'distance'
p5
aF374.4912567138672
aa(lp6
S'timestamp'
p7
aF1.089345932006836
aatp8
Rp9
.ccollections
OrderedDict
p0
((lp1
(lp2
S'state'
p3
aI0
aa(lp4
S'distance'
p5
aF374.4912567138672
aa(lp6
S'timestamp'
p7
aF1.099942922592163
aatp8
Rp9
.ccollections
OrderedDict
p0
((lp1
(lp2
S'state'
p3
aI0
aa(lp4
S'distance'
p5
aF374.4912567138672
aa(lp6
S'timestamp'
p7
aF1.1000778675079346
aatp8
Rp9
.ccollections
OrderedDict
p0
((lp1
(lp2
S'state'
p3
aI0
aa(lp4
S'distance'
p5
aF374.4912567138672
aa(lp6
S'timestamp'
p7
aF1.109773874282837
aatp8
Rp9
.ccollections
OrderedDict
p0
((lp1
(lp2
S'state'
p3
aI0
aa(lp4
S'distance'
p5
aF374.4912567138672
aa(lp6
S'timestamp'
p7
aF1.1099770069122314
aatp8
Rp9
.ccollections
OrderedDict
p0
((lp1
(lp2
S'state'
p3
aI0
aa(lp4
S'distance'
p5
aF374.4912567138672
aa(lp6
S'timestamp'
p7
aF1.119215965270996
aatp8
Rp9
.ccollections
OrderedDict
p0
((lp1
(lp2
S'state'
p3
aI0
aa(lp4
S'distance'
p5
aF374.4912567138672
aa(lp6
S'timestamp'
p7
aF1.1193790435791016
aatp8
Rp9
.ccollections
OrderedDict
p0
((lp1
(lp2
S'state'
p3
aI0
aa(lp4
S'distance'
p5
aF374.4912567138672
aa(lp6
S'timestamp'
p7
aF1.1287999153137207
aatp8
Rp9
.ccollections
OrderedDict
p0
((lp1
(lp2
S'state'
p3
aI0
aa(lp4
S'distance'
p5
aF374.4912567138672
aa(lp6
S'timestamp'
p7
aF1.1294209957122803
aatp8
Rp9
.ccollections
OrderedDict
p0
((lp1
(lp2
S'state'
p3
aI0
aa(lp4
S'distance'
p5
aF374.4912567138672
aa(lp6
S'timestamp'
p7
aF1.138887882232666
aatp8
Rp9
.ccollections
OrderedDict
p0
((lp1
(lp2
S'state'
p3
aI0
aa(lp4
S'distance'
p5
aF374.4912567138672
aa(lp6
S'timestamp'
p7
aF1.1393070220947266
aatp8
Rp9
.ccollections
OrderedDict
p0
((lp1
(lp2
S'state'
p3
aI0
aa(lp4
S'distance'
p5
aF374.4912567138672
aa(lp6
S'timestamp'
p7
aF1.1605958938598633
aatp8
Rp9
.ccollections
OrderedDict
p0
((lp1
(lp2
S'state'
p3
aI0
aa(lp4
S'distance'
p5
aF374.4912567138672
aa(lp6
S'timestamp'
p7
aF1.161219835281372
aatp8
Rp9
.ccollections
OrderedDict
p0
((lp1
(lp2
S'state'
p3
aI0
aa(lp4
S'distance'
p5
aF374.4912567138672
aa(lp6
S'timestamp'
p7
aF1.1614429950714111
aatp8
Rp9
.ccollections
OrderedDict
p0
((lp1
(lp2
S'state'
p3
aI0
aa(lp4
S'distance'
p5
aF374.4912567138672
aa(lp6
S'timestamp'
p7
aF1.1615958213806152
aatp8
Rp9
.ccollections
OrderedDict
p0
((lp1
(lp2
S'state'
p3
aI0
aa(lp4
S'distance'
p5
aF374.4912567138672
aa(lp6
S'timestamp'
p7
aF1.168834924697876
aatp8
Rp9
.ccollections
OrderedDict
p0
((lp1
(lp2
S'state'
p3
aI0
aa(lp4
S'distance'
p5
aF374.4912567138672
aa(lp6
S'timestamp'
p7
aF1.1694049835205078
aatp8
Rp9
.ccollections
OrderedDict
p0
((lp1
(lp2
S'state'
p3
aI0
aa(lp4
S'distance'
p5
aF374.4912567138672
aa(lp6
S'timestamp'
p7
aF1.1892318725585938
aatp8
Rp9
.ccollections
OrderedDict
p0
((lp1
(lp2
S'state'
p3
aI0
aa(lp4
S'distance'
p5
aF374.4912567138672
aa(lp6
S'timestamp'
p7
aF1.189652919769287
aatp8
Rp9
.ccollections
OrderedDict
p0
((lp1
(lp2
S'state'
p3
aI0
aa(lp4
S'distance'
p5
aF374.4912567138672
aa(lp6
S'timestamp'
p7
aF1.1915359497070312
aatp8
Rp9
.ccollections
OrderedDict
p0
((lp1
(lp2
S'state'
p3
aI0
aa(lp4
S'distance'
p5
aF374.4912567138672
aa(lp6
S'timestamp'
p7
aF1.1922190189361572
aatp8
Rp9
.ccollections
OrderedDict
p0
((lp1
(lp2
S'state'
p3
aI0
aa(lp4
S'distance'
p5
aF374.4912567138672
aa(lp6
S'timestamp'
p7
aF1.1986639499664307
aatp8
Rp9
.ccollections
OrderedDict
p0
((lp1
(lp2
S'state'
p3
aI0
aa(lp4
S'distance'
p5
aF374.4912567138672
aa(lp6
S'timestamp'
p7
aF1.198796033859253
aatp8
Rp9
.ccollections
OrderedDict
p0
((lp1
(lp2
S'state'
p3
aI0
aa(lp4
S'distance'
p5
aF374.4912567138672
aa(lp6
S'timestamp'
p7
aF1.2096898555755615
aatp8
Rp9
.ccollections
OrderedDict
p0
((lp1
(lp2
S'state'
p3
aI0
aa(lp4
S'distance'
p5
aF374.4912567138672
aa(lp6
S'timestamp'
p7
aF1.2098078727722168
aatp8
Rp9
.ccollections
OrderedDict
p0
((lp1
(lp2
S'state'
p3
aI0
aa(lp4
S'distance'
p5
aF374.4912567138672
aa(lp6
S'timestamp'
p7
aF1.2190608978271484
aatp8
Rp9
.ccollections
OrderedDict
p0
((lp1
(lp2
S'state'
p3
aI0
aa(lp4
S'distance'
p5
aF374.4912567138672
aa(lp6
S'timestamp'
p7
aF1.2198798656463623
aatp8
Rp9
.ccollections
OrderedDict
p0
((lp1
(lp2
S'state'
p3
aI0
aa(lp4
S'distance'
p5
aF374.4912567138672
aa(lp6
S'timestamp'
p7
aF1.2393460273742676
aatp8
Rp9
.ccollections
OrderedDict
p0
((lp1
(lp2
S'state'
p3
aI0
aa(lp4
S'distance'
p5
aF374.4912567138672
aa(lp6
S'timestamp'
p7
aF1.2485458850860596
aatp8
Rp9
.ccollections
OrderedDict
p0
((lp1
(lp2
S'state'
p3
aI0
aa(lp4
S'distance'
p5
aF374.4912567138672
aa(lp6
S'timestamp'
p7
aF1.2492969036102295
aatp8
Rp9
.ccollections
OrderedDict
p0
((lp1
(lp2
S'state'
p3
aI0
aa(lp4
S'distance'
p5
aF374.4912567138672
aa(lp6
S'timestamp'
p7
aF1.2498278617858887
aatp8
Rp9
.ccollections
OrderedDict
p0
((lp1
(lp2
S'state'
p3
aI0
aa(lp4
S'distance'
p5
aF374.4912567138672
aa(lp6
S'timestamp'
p7
aF1.2507588863372803
aatp8
Rp9
.ccollections
OrderedDict
p0
((lp1
(lp2
S'state'
p3
aI0
aa(lp4
S'distance'
p5
aF374.4912567138672
aa(lp6
S'timestamp'
p7
aF1.2586090564727783
aatp8
Rp9
.ccollections
OrderedDict
p0
((lp1
(lp2
S'state'
p3
aI0
aa(lp4
S'distance'
p5
aF374.4912567138672
aa(lp6
S'timestamp'
p7
aF1.2591009140014648
aatp8
Rp9
.ccollections
OrderedDict
p0
((lp1
(lp2
S'state'
p3
aI0
aa(lp4
S'distance'
p5
aF374.4912567138672
aa(lp6
S'timestamp'
p7
aF1.268625020980835
aatp8
Rp9
.ccollections
OrderedDict
p0
((lp1
(lp2
S'state'
p3
aI0
aa(lp4
S'distance'
p5
aF374.4912567138672
aa(lp6
S'timestamp'
p7
aF1.2689449787139893
aatp8
Rp9
.ccollections
OrderedDict
p0
((lp1
(lp2
S'state'
p3
aI0
aa(lp4
S'distance'
p5
aF374.4912567138672
aa(lp6
S'timestamp'
p7
aF1.2700269222259521
aatp8
Rp9
.ccollections
OrderedDict
p0
((lp1
(lp2
S'state'
p3
aI0
aa(lp4
S'distance'
p5
aF374.4912567138672
aa(lp6
S'timestamp'
p7
aF1.2786648273468018
aatp8
Rp9
.ccollections
OrderedDict
p0
((lp1
(lp2
S'state'
p3
aI0
aa(lp4
S'distance'
p5
aF374.4912567138672
aa(lp6
S'timestamp'
p7
aF1.2793409824371338
aatp8
Rp9
.ccollections
OrderedDict
p0
((lp1
(lp2
S'state'
p3
aI0
aa(lp4
S'distance'
p5
aF374.4912567138672
aa(lp6
S'timestamp'
p7
aF1.2985219955444336
aatp8
Rp9
.ccollections
OrderedDict
p0
((lp1
(lp2
S'state'
p3
aI0
aa(lp4
S'distance'
p5
aF374.4912567138672
aa(lp6
S'timestamp'
p7
aF1.2997779846191406
aatp8
Rp9
.ccollections
OrderedDict
p0
((lp1
(lp2
S'state'
p3
aI0
aa(lp4
S'distance'
p5
aF374.4912567138672
aa(lp6
S'timestamp'
p7
aF1.3006658554077148
aatp8
Rp9
.ccollections
OrderedDict
p0
((lp1
(lp2
S'state'
p3
aI0
aa(lp4
S'distance'
p5
aF374.4912567138672
aa(lp6
S'timestamp'
p7
aF1.30222487449646
aatp8
Rp9
.ccollections
OrderedDict
p0
((lp1
(lp2
S'state'
p3
aI0
aa(lp4
S'distance'
p5
aF374.4912567138672
aa(lp6
S'timestamp'
p7
aF1.308763027191162
aatp8
Rp9
.ccollections
OrderedDict
p0
((lp1
(lp2
S'state'
p3
aI0
aa(lp4
S'distance'
p5
aF374.4912567138672
aa(lp6
S'timestamp'
p7
aF1.3093938827514648
aatp8
Rp9
.ccollections
OrderedDict
p0
((lp1
(lp2
S'state'
p3
aI0
aa(lp4
S'distance'
p5
aF374.4912567138672
aa(lp6
S'timestamp'
p7
aF1.3186969757080078
aatp8
Rp9
.ccollections
OrderedDict
p0
((lp1
(lp2
S'state'
p3
aI0
aa(lp4
S'distance'
p5
aF374.4912567138672
aa(lp6
S'timestamp'
p7
aF1.3188748359680176
aatp8
Rp9
.ccollections
OrderedDict
p0
((lp1
(lp2
S'state'
p3
aI0
aa(lp4
S'distance'
p5
aF374.4912567138672
aa(lp6
S'timestamp'
p7
aF1.3286068439483643
aatp8
Rp9
.ccollections
OrderedDict
p0
((lp1
(lp2
S'state'
p3
aI0
aa(lp4
S'distance'
p5
aF374.4912567138672
aa(lp6
S'timestamp'
p7
aF1.3292138576507568
aatp8
Rp9
.ccollections
OrderedDict
p0
((lp1
(lp2
S'state'
p3
aI0
aa(lp4
S'distance'
p5
aF374.4912567138672
aa(lp6
S'timestamp'
p7
aF1.3386850357055664
aatp8
Rp9
.ccollections
OrderedDict
p0
((lp1
(lp2
S'state'
p3
aI0
aa(lp4
S'distance'
p5
aF374.4912567138672
aa(lp6
S'timestamp'
p7
aF1.3390610218048096
aatp8
Rp9
.ccollections
OrderedDict
p0
((lp1
(lp2
S'state'
p3
aI0
aa(lp4
S'distance'
p5
aF374.4912567138672
aa(lp6
S'timestamp'
p7
aF1.3487448692321777
aatp8
Rp9
.ccollections
OrderedDict
p0
((lp1
(lp2
S'state'
p3
aI0
aa(lp4
S'distance'
p5
aF374.4912567138672
aa(lp6
S'timestamp'
p7
aF1.3489999771118164
aatp8
Rp9
.ccollections
OrderedDict
p0
((lp1
(lp2
S'state'
p3
aI0
aa(lp4
S'distance'
p5
aF374.4912567138672
aa(lp6
S'timestamp'
p7
aF1.3586838245391846
aatp8
Rp9
.ccollections
OrderedDict
p0
((lp1
(lp2
S'state'
p3
aI0
aa(lp4
S'distance'
p5
aF374.4912567138672
aa(lp6
S'timestamp'
p7
aF1.3589890003204346
aatp8
Rp9
.ccollections
OrderedDict
p0
((lp1
(lp2
S'state'
p3
aI0
aa(lp4
S'distance'
p5
aF374.4912567138672
aa(lp6
S'timestamp'
p7
aF1.368690013885498
aatp8
Rp9
.ccollections
OrderedDict
p0
((lp1
(lp2
S'state'
p3
aI0
aa(lp4
S'distance'
p5
aF374.4912567138672
aa(lp6
S'timestamp'
p7
aF1.3699419498443604
aatp8
Rp9
.ccollections
OrderedDict
p0
((lp1
(lp2
S'state'
p3
aI0
aa(lp4
S'distance'
p5
aF374.4912567138672
aa(lp6
S'timestamp'
p7
aF1.3783378601074219
aatp8
Rp9
.ccollections
OrderedDict
p0
((lp1
(lp2
S'state'
p3
aI0
aa(lp4
S'distance'
p5
aF374.4912567138672
aa(lp6
S'timestamp'
p7
aF1.3791239261627197
aatp8
Rp9
.ccollections
OrderedDict
p0
((lp1
(lp2
S'state'
p3
aI0
aa(lp4
S'distance'
p5
aF374.4912567138672
aa(lp6
S'timestamp'
p7
aF1.3887619972229004
aatp8
Rp9
.ccollections
OrderedDict
p0
((lp1
(lp2
S'state'
p3
aI0
aa(lp4
S'distance'
p5
aF374.4912567138672
aa(lp6
S'timestamp'
p7
aF1.4096150398254395
aatp8
Rp9
.ccollections
OrderedDict
p0
((lp1
(lp2
S'state'
p3
aI0
aa(lp4
S'distance'
p5
aF374.4912567138672
aa(lp6
S'timestamp'
p7
aF1.4109790325164795
aatp8
Rp9
.ccollections
OrderedDict
p0
((lp1
(lp2
S'state'
p3
aI0
aa(lp4
S'distance'
p5
aF374.4912567138672
aa(lp6
S'timestamp'
p7
aF1.418699026107788
aatp8
Rp9
.ccollections
OrderedDict
p0
((lp1
(lp2
S'state'
p3
aI0
aa(lp4
S'distance'
p5
aF374.4912567138672
aa(lp6
S'timestamp'
p7
aF1.4197359085083008
aatp8
Rp9
.ccollections
OrderedDict
p0
((lp1
(lp2
S'state'
p3
aI0
aa(lp4
S'distance'
p5
aF374.4912567138672
aa(lp6
S'timestamp'
p7
aF1.419909954071045
aatp8
Rp9
.ccollections
OrderedDict
p0
((lp1
(lp2
S'state'
p3
aI0
aa(lp4
S'distance'
p5
aF374.4912567138672
aa(lp6
S'timestamp'
p7
aF1.4211559295654297
aatp8
Rp9
.ccollections
OrderedDict
p0
((lp1
(lp2
S'state'
p3
aI0
aa(lp4
S'distance'
p5
aF374.4912567138672
aa(lp6
S'timestamp'
p7
aF1.4286880493164062
aatp8
Rp9
.ccollections
OrderedDict
p0
((lp1
(lp2
S'state'
p3
aI0
aa(lp4
S'distance'
p5
aF374.4912567138672
aa(lp6
S'timestamp'
p7
aF1.4301328659057617
aatp8
Rp9
.ccollections
OrderedDict
p0
((lp1
(lp2
S'state'
p3
aI0
aa(lp4
S'distance'
p5
aF374.4912567138672
aa(lp6
S'timestamp'
p7
aF1.4302010536193848
aatp8
Rp9
.ccollections
OrderedDict
p0
((lp1
(lp2
S'state'
p3
aI400
aa(lp4
S'distance'
p5
aF374.4912567138672
aa(lp6
S'timestamp'
p7
aF1.438627004623413
aatp8
Rp9
.ccollections
OrderedDict
p0
((lp1
(lp2
S'state'
p3
aI400
aa(lp4
S'distance'
p5
aF374.4912567138672
aa(lp6
S'timestamp'
p7
aF1.440173864364624
aatp8
Rp9
.ccollections
OrderedDict
p0
((lp1
(lp2
S'state'
p3
aI400
aa(lp4
S'distance'
p5
aF374.4912567138672
aa(lp6
S'timestamp'
p7
aF1.4486098289489746
aatp8
Rp9
.ccollections
OrderedDict
p0
((lp1
(lp2
S'state'
p3
aI400
aa(lp4
S'distance'
p5
aF374.4912567138672
aa(lp6
S'timestamp'
p7
aF1.449354887008667
aatp8
Rp9
.ccollections
OrderedDict
p0
((lp1
(lp2
S'state'
p3
aI400
aa(lp4
S'distance'
p5
aF374.4912567138672
aa(lp6
S'timestamp'
p7
aF1.462007999420166
aatp8
Rp9
.ccollections
OrderedDict
p0
((lp1
(lp2
S'state'
p3
aI400
aa(lp4
S'distance'
p5
aF374.4912567138672
aa(lp6
S'timestamp'
p7
aF1.462141990661621
aatp8
Rp9
.ccollections
OrderedDict
p0
((lp1
(lp2
S'state'
p3
aI400
aa(lp4
S'distance'
p5
aF374.4912567138672
aa(lp6
S'timestamp'
p7
aF1.4696168899536133
aatp8
Rp9
.ccollections
OrderedDict
p0
((lp1
(lp2
S'state'
p3
aI400
aa(lp4
S'distance'
p5
aF374.4912567138672
aa(lp6
S'timestamp'
p7
aF1.4697680473327637
aatp8
Rp9
.ccollections
OrderedDict
p0
((lp1
(lp2
S'state'
p3
aI400
aa(lp4
S'distance'
p5
aF374.4912567138672
aa(lp6
S'timestamp'
p7
aF1.4790699481964111
aatp8
Rp9
.ccollections
OrderedDict
p0
((lp1
(lp2
S'state'
p3
aI400
aa(lp4
S'distance'
p5
aF374.4912567138672
aa(lp6
S'timestamp'
p7
aF1.4807579517364502
aatp8
Rp9
.ccollections
OrderedDict
p0
((lp1
(lp2
S'state'
p3
aI400
aa(lp4
S'distance'
p5
aF374.4912567138672
aa(lp6
S'timestamp'
p7
aF1.4908239841461182
aatp8
Rp9
.ccollections
OrderedDict
p0
((lp1
(lp2
S'state'
p3
aI400
aa(lp4
S'distance'
p5
aF374.4912567138672
aa(lp6
S'timestamp'
p7
aF1.4920029640197754
aatp8
Rp9
.ccollections
OrderedDict
p0
((lp1
(lp2
S'state'
p3
aI400
aa(lp4
S'distance'
p5
aF374.4912567138672
aa(lp6
S'timestamp'
p7
aF1.4995508193969727
aatp8
Rp9
.ccollections
OrderedDict
p0
((lp1
(lp2
S'state'
p3
aI400
aa(lp4
S'distance'
p5
aF374.4912567138672
aa(lp6
S'timestamp'
p7
aF1.5007798671722412
aatp8
Rp9
.ccollections
OrderedDict
p0
((lp1
(lp2
S'state'
p3
aI400
aa(lp4
S'distance'
p5
aF374.4912567138672
aa(lp6
S'timestamp'
p7
aF1.5309429168701172
aatp8
Rp9
.ccollections
OrderedDict
p0
((lp1
(lp2
S'state'
p3
aI400
aa(lp4
S'distance'
p5
aF374.4912567138672
aa(lp6
S'timestamp'
p7
aF1.5342979431152344
aatp8
Rp9
.ccollections
OrderedDict
p0
((lp1
(lp2
S'state'
p3
aI400
aa(lp4
S'distance'
p5
aF374.4912567138672
aa(lp6
S'timestamp'
p7
aF1.5344538688659668
aatp8
Rp9
.ccollections
OrderedDict
p0
((lp1
(lp2
S'state'
p3
aI400
aa(lp4
S'distance'
p5
aF374.4912567138672
aa(lp6
S'timestamp'
p7
aF1.534895896911621
aatp8
Rp9
.ccollections
OrderedDict
p0
((lp1
(lp2
S'state'
p3
aI400
aa(lp4
S'distance'
p5
aF374.4912567138672
aa(lp6
S'timestamp'
p7
aF1.5406949520111084
aatp8
Rp9
.ccollections
OrderedDict
p0
((lp1
(lp2
S'state'
p3
aI400
aa(lp4
S'distance'
p5
aF374.4912567138672
aa(lp6
S'timestamp'
p7
aF1.5411229133605957
aatp8
Rp9
.ccollections
OrderedDict
p0
((lp1
(lp2
S'state'
p3
aI400
aa(lp4
S'distance'
p5
aF374.4912567138672
aa(lp6
S'timestamp'
p7
aF1.5415329933166504
aatp8
Rp9
.ccollections
OrderedDict
p0
((lp1
(lp2
S'state'
p3
aI400
aa(lp4
S'distance'
p5
aF374.4912567138672
aa(lp6
S'timestamp'
p7
aF1.541944980621338
aatp8
Rp9
.ccollections
OrderedDict
p0
((lp1
(lp2
S'state'
p3
aI400
aa(lp4
S'distance'
p5
aF374.4912567138672
aa(lp6
S'timestamp'
p7
aF1.5499980449676514
aatp8
Rp9
.ccollections
OrderedDict
p0
((lp1
(lp2
S'state'
p3
aI400
aa(lp4
S'distance'
p5
aF374.4912567138672
aa(lp6
S'timestamp'
p7
aF1.5501370429992676
aatp8
Rp9
.ccollections
OrderedDict
p0
((lp1
(lp2
S'state'
p3
aI400
aa(lp4
S'distance'
p5
aF374.4912567138672
aa(lp6
S'timestamp'
p7
aF1.5602409839630127
aatp8
Rp9
.ccollections
OrderedDict
p0
((lp1
(lp2
S'state'
p3
aI400
aa(lp4
S'distance'
p5
aF374.4912567138672
aa(lp6
S'timestamp'
p7
aF1.5688579082489014
aatp8
Rp9
.ccollections
OrderedDict
p0
((lp1
(lp2
S'state'
p3
aI400
aa(lp4
S'distance'
p5
aF374.4912567138672
aa(lp6
S'timestamp'
p7
aF1.5689818859100342
aatp8
Rp9
.ccollections
OrderedDict
p0
((lp1
(lp2
S'state'
p3
aI400
aa(lp4
S'distance'
p5
aF374.4912567138672
aa(lp6
S'timestamp'
p7
aF1.5711309909820557
aatp8
Rp9
.ccollections
OrderedDict
p0
((lp1
(lp2
S'state'
p3
aI400
aa(lp4
S'distance'
p5
aF374.4912567138672
aa(lp6
S'timestamp'
p7
aF1.5812909603118896
aatp8
Rp9
.ccollections
OrderedDict
p0
((lp1
(lp2
S'state'
p3
aI400
aa(lp4
S'distance'
p5
aF374.4912567138672
aa(lp6
S'timestamp'
p7
aF1.581413984298706
aatp8
Rp9
.ccollections
OrderedDict
p0
((lp1
(lp2
S'state'
p3
aI400
aa(lp4
S'distance'
p5
aF374.4912567138672
aa(lp6
S'timestamp'
p7
aF1.589365005493164
aatp8
Rp9
.ccollections
OrderedDict
p0
((lp1
(lp2
S'state'
p3
aI400
aa(lp4
S'distance'
p5
aF374.4912567138672
aa(lp6
S'timestamp'
p7
aF1.5904350280761719
aatp8
Rp9
.ccollections
OrderedDict
p0
((lp1
(lp2
S'state'
p3
aI400
aa(lp4
S'distance'
p5
aF374.4912567138672
aa(lp6
S'timestamp'
p7
aF1.6002709865570068
aatp8
Rp9
.ccollections
OrderedDict
p0
((lp1
(lp2
S'state'
p3
aI400
aa(lp4
S'distance'
p5
aF374.4912567138672
aa(lp6
S'timestamp'
p7
aF1.6009149551391602
aatp8
Rp9
.ccollections
OrderedDict
p0
((lp1
(lp2
S'state'
p3
aI400
aa(lp4
S'distance'
p5
aF374.4912567138672
aa(lp6
S'timestamp'
p7
aF1.6100668907165527
aatp8
Rp9
.ccollections
OrderedDict
p0
((lp1
(lp2
S'state'
p3
aI400
aa(lp4
S'distance'
p5
aF374.4912567138672
aa(lp6
S'timestamp'
p7
aF1.6102030277252197
aatp8
Rp9
.ccollections
OrderedDict
p0
((lp1
(lp2
S'state'
p3
aI400
aa(lp4
S'distance'
p5
aF374.4912567138672
aa(lp6
S'timestamp'
p7
aF1.619783878326416
aatp8
Rp9
.ccollections
OrderedDict
p0
((lp1
(lp2
S'state'
p3
aI400
aa(lp4
S'distance'
p5
aF374.4912567138672
aa(lp6
S'timestamp'
p7
aF1.619884967803955
aatp8
Rp9
.ccollections
OrderedDict
p0
((lp1
(lp2
S'state'
p3
aI400
aa(lp4
S'distance'
p5
aF374.4912567138672
aa(lp6
S'timestamp'
p7
aF1.6296658515930176
aatp8
Rp9
.ccollections
OrderedDict
p0
((lp1
(lp2
S'state'
p3
aI400
aa(lp4
S'distance'
p5
aF374.4912567138672
aa(lp6
S'timestamp'
p7
aF1.630781888961792
aatp8
Rp9
.ccollections
OrderedDict
p0
((lp1
(lp2
S'state'
p3
aI400
aa(lp4
S'distance'
p5
aF374.4912567138672
aa(lp6
S'timestamp'
p7
aF1.640326976776123
aatp8
Rp9
.ccollections
OrderedDict
p0
((lp1
(lp2
S'state'
p3
aI400
aa(lp4
S'distance'
p5
aF374.4912567138672
aa(lp6
S'timestamp'
p7
aF1.640704870223999
aatp8
Rp9
.ccollections
OrderedDict
p0
((lp1
(lp2
S'state'
p3
aI400
aa(lp4
S'distance'
p5
aF374.4912567138672
aa(lp6
S'timestamp'
p7
aF1.6510488986968994
aatp8
Rp9
.ccollections
OrderedDict
p0
((lp1
(lp2
S'state'
p3
aI400
aa(lp4
S'distance'
p5
aF374.4912567138672
aa(lp6
S'timestamp'
p7
aF1.6516318321228027
aatp8
Rp9
.ccollections
OrderedDict
p0
((lp1
(lp2
S'state'
p3
aI400
aa(lp4
S'distance'
p5
aF374.4912567138672
aa(lp6
S'timestamp'
p7
aF1.659256935119629
aatp8
Rp9
.ccollections
OrderedDict
p0
((lp1
(lp2
S'state'
p3
aI400
aa(lp4
S'distance'
p5
aF374.4912567138672
aa(lp6
S'timestamp'
p7
aF1.660099983215332
aatp8
Rp9
.ccollections
OrderedDict
p0
((lp1
(lp2
S'state'
p3
aI400
aa(lp4
S'distance'
p5
aF374.4912567138672
aa(lp6
S'timestamp'
p7
aF1.6693408489227295
aatp8
Rp9
.ccollections
OrderedDict
p0
((lp1
(lp2
S'state'
p3
aI400
aa(lp4
S'distance'
p5
aF374.4912567138672
aa(lp6
S'timestamp'
p7
aF1.6696839332580566
aatp8
Rp9
.ccollections
OrderedDict
p0
((lp1
(lp2
S'state'
p3
aI400
aa(lp4
S'distance'
p5
aF374.4912567138672
aa(lp6
S'timestamp'
p7
aF1.6790790557861328
aatp8
Rp9
.ccollections
OrderedDict
p0
((lp1
(lp2
S'state'
p3
aI400
aa(lp4
S'distance'
p5
aF374.4912567138672
aa(lp6
S'timestamp'
p7
aF1.680176019668579
aatp8
Rp9
.ccollections
OrderedDict
p0
((lp1
(lp2
S'state'
p3
aI400
aa(lp4
S'distance'
p5
aF374.4912567138672
aa(lp6
S'timestamp'
p7
aF1.6898579597473145
aatp8
Rp9
.ccollections
OrderedDict
p0
((lp1
(lp2
S'state'
p3
aI400
aa(lp4
S'distance'
p5
aF374.4912567138672
aa(lp6
S'timestamp'
p7
aF1.689931869506836
aatp8
Rp9
.ccollections
OrderedDict
p0
((lp1
(lp2
S'state'
p3
aI400
aa(lp4
S'distance'
p5
aF374.4912567138672
aa(lp6
S'timestamp'
p7
aF1.7013049125671387
aatp8
Rp9
.ccollections
OrderedDict
p0
((lp1
(lp2
S'state'
p3
aI400
aa(lp4
S'distance'
p5
aF374.4912567138672
aa(lp6
S'timestamp'
p7
aF1.7014589309692383
aatp8
Rp9
.ccollections
OrderedDict
p0
((lp1
(lp2
S'state'
p3
aI400
aa(lp4
S'distance'
p5
aF374.4912567138672
aa(lp6
S'timestamp'
p7
aF1.7089920043945312
aatp8
Rp9
.ccollections
OrderedDict
p0
((lp1
(lp2
S'state'
p3
aI400
aa(lp4
S'distance'
p5
aF374.4912567138672
aa(lp6
S'timestamp'
p7
aF1.7095530033111572
aatp8
Rp9
.ccollections
OrderedDict
p0
((lp1
(lp2
S'state'
p3
aI400
aa(lp4
S'distance'
p5
aF374.4912567138672
aa(lp6
S'timestamp'
p7
aF1.7189249992370605
aatp8
Rp9
.ccollections
OrderedDict
p0
((lp1
(lp2
S'state'
p3
aI400
aa(lp4
S'distance'
p5
aF374.4912567138672
aa(lp6
S'timestamp'
p7
aF1.7201409339904785
aatp8
Rp9
.ccollections
OrderedDict
p0
((lp1
(lp2
S'state'
p3
aI400
aa(lp4
S'distance'
p5
aF374.4912567138672
aa(lp6
S'timestamp'
p7
aF1.7303929328918457
aatp8
Rp9
.ccollections
OrderedDict
p0
((lp1
(lp2
S'state'
p3
aI400
aa(lp4
S'distance'
p5
aF374.4912567138672
aa(lp6
S'timestamp'
p7
aF1.7309939861297607
aatp8
Rp9
.ccollections
OrderedDict
p0
((lp1
(lp2
S'state'
p3
aI400
aa(lp4
S'distance'
p5
aF374.4912567138672
aa(lp6
S'timestamp'
p7
aF1.7398779392242432
aatp8
Rp9
.ccollections
OrderedDict
p0
((lp1
(lp2
S'state'
p3
aI400
aa(lp4
S'distance'
p5
aF374.4912567138672
aa(lp6
S'timestamp'
p7
aF1.7400689125061035
aatp8
Rp9
.ccollections
OrderedDict
p0
((lp1
(lp2
S'state'
p3
aI400
aa(lp4
S'distance'
p5
aF374.4912567138672
aa(lp6
S'timestamp'
p7
aF1.7489869594573975
aatp8
Rp9
.ccollections
OrderedDict
p0
((lp1
(lp2
S'state'
p3
aI400
aa(lp4
S'distance'
p5
aF374.4912567138672
aa(lp6
S'timestamp'
p7
aF1.7498929500579834
aatp8
Rp9
.ccollections
OrderedDict
p0
((lp1
(lp2
S'state'
p3
aI400
aa(lp4
S'distance'
p5
aF374.4912567138672
aa(lp6
S'timestamp'
p7
aF1.7595689296722412
aatp8
Rp9
.ccollections
OrderedDict
p0
((lp1
(lp2
S'state'
p3
aI400
aa(lp4
S'distance'
p5
aF374.4912567138672
aa(lp6
S'timestamp'
p7
aF1.7597529888153076
aatp8
Rp9
.ccollections
OrderedDict
p0
((lp1
(lp2
S'state'
p3
aI400
aa(lp4
S'distance'
p5
aF374.4912567138672
aa(lp6
S'timestamp'
p7
aF1.7703149318695068
aatp8
Rp9
.ccollections
OrderedDict
p0
((lp1
(lp2
S'state'
p3
aI400
aa(lp4
S'distance'
p5
aF374.4912567138672
aa(lp6
S'timestamp'
p7
aF1.771347999572754
aatp8
Rp9
.ccollections
OrderedDict
p0
((lp1
(lp2
S'state'
p3
aI400
aa(lp4
S'distance'
p5
aF374.4912567138672
aa(lp6
S'timestamp'
p7
aF1.7793259620666504
aatp8
Rp9
.ccollections
OrderedDict
p0
((lp1
(lp2
S'state'
p3
aI400
aa(lp4
S'distance'
p5
aF374.4912567138672
aa(lp6
S'timestamp'
p7
aF1.7811510562896729
aatp8
Rp9
.ccollections
OrderedDict
p0
((lp1
(lp2
S'state'
p3
aI400
aa(lp4
S'distance'
p5
aF374.4912567138672
aa(lp6
S'timestamp'
p7
aF1.7890698909759521
aatp8
Rp9
.ccollections
OrderedDict
p0
((lp1
(lp2
S'state'
p3
aI400
aa(lp4
S'distance'
p5
aF374.4912567138672
aa(lp6
S'timestamp'
p7
aF1.7891528606414795
aatp8
Rp9
.ccollections
OrderedDict
p0
((lp1
(lp2
S'state'
p3
aI400
aa(lp4
S'distance'
p5
aF374.4912567138672
aa(lp6
S'timestamp'
p7
aF1.798490047454834
aatp8
Rp9
.ccollections
OrderedDict
p0
((lp1
(lp2
S'state'
p3
aI400
aa(lp4
S'distance'
p5
aF374.4912567138672
aa(lp6
S'timestamp'
p7
aF1.7993478775024414
aatp8
Rp9
.ccollections
OrderedDict
p0
((lp1
(lp2
S'state'
p3
aI400
aa(lp4
S'distance'
p5
aF374.4912567138672
aa(lp6
S'timestamp'
p7
aF1.810865879058838
aatp8
Rp9
.ccollections
OrderedDict
p0
((lp1
(lp2
S'state'
p3
aI400
aa(lp4
S'distance'
p5
aF374.4912567138672
aa(lp6
S'timestamp'
p7
aF1.810957908630371
aatp8
Rp9
.ccollections
OrderedDict
p0
((lp1
(lp2
S'state'
p3
aI400
aa(lp4
S'distance'
p5
aF374.4912567138672
aa(lp6
S'timestamp'
p7
aF1.8213989734649658
aatp8
Rp9
.ccollections
OrderedDict
p0
((lp1
(lp2
S'state'
p3
aI400
aa(lp4
S'distance'
p5
aF374.4912567138672
aa(lp6
S'timestamp'
p7
aF1.821760892868042
aatp8
Rp9
.ccollections
OrderedDict
p0
((lp1
(lp2
S'state'
p3
aI400
aa(lp4
S'distance'
p5
aF374.4912567138672
aa(lp6
S'timestamp'
p7
aF1.8293659687042236
aatp8
Rp9
.ccollections
OrderedDict
p0
((lp1
(lp2
S'state'
p3
aI400
aa(lp4
S'distance'
p5
aF374.4912567138672
aa(lp6
S'timestamp'
p7
aF1.8296120166778564
aatp8
Rp9
.ccollections
OrderedDict
p0
((lp1
(lp2
S'state'
p3
aI400
aa(lp4
S'distance'
p5
aF374.4912567138672
aa(lp6
S'timestamp'
p7
aF1.8391120433807373
aatp8
Rp9
.ccollections
OrderedDict
p0
((lp1
(lp2
S'state'
p3
aI400
aa(lp4
S'distance'
p5
aF374.4912567138672
aa(lp6
S'timestamp'
p7
aF1.840169906616211
aatp8
Rp9
.ccollections
OrderedDict
p0
((lp1
(lp2
S'state'
p3
aI400
aa(lp4
S'distance'
p5
aF374.4912567138672
aa(lp6
S'timestamp'
p7
aF1.8498189449310303
aatp8
Rp9
.ccollections
OrderedDict
p0
((lp1
(lp2
S'state'
p3
aI400
aa(lp4
S'distance'
p5
aF374.4912567138672
aa(lp6
S'timestamp'
p7
aF1.849998950958252
aatp8
Rp9
.ccollections
OrderedDict
p0
((lp1
(lp2
S'state'
p3
aI400
aa(lp4
S'distance'
p5
aF374.4912567138672
aa(lp6
S'timestamp'
p7
aF1.8592760562896729
aatp8
Rp9
.ccollections
OrderedDict
p0
((lp1
(lp2
S'state'
p3
aI400
aa(lp4
S'distance'
p5
aF374.4912567138672
aa(lp6
S'timestamp'
p7
aF1.8602509498596191
aatp8
Rp9
.ccollections
OrderedDict
p0
((lp1
(lp2
S'state'
p3
aI400
aa(lp4
S'distance'
p5
aF374.4912567138672
aa(lp6
S'timestamp'
p7
aF1.8689470291137695
aatp8
Rp9
.ccollections
OrderedDict
p0
((lp1
(lp2
S'state'
p3
aI400
aa(lp4
S'distance'
p5
aF374.4912567138672
aa(lp6
S'timestamp'
p7
aF1.869236946105957
aatp8
Rp9
.ccollections
OrderedDict
p0
((lp1
(lp2
S'state'
p3
aI400
aa(lp4
S'distance'
p5
aF374.4912567138672
aa(lp6
S'timestamp'
p7
aF1.8795599937438965
aatp8
Rp9
.ccollections
OrderedDict
p0
((lp1
(lp2
S'state'
p3
aI400
aa(lp4
S'distance'
p5
aF374.4912567138672
aa(lp6
S'timestamp'
p7
aF1.881117820739746
aatp8
Rp9
.ccollections
OrderedDict
p0
((lp1
(lp2
S'state'
p3
aI400
aa(lp4
S'distance'
p5
aF374.4912567138672
aa(lp6
S'timestamp'
p7
aF1.9002540111541748
aatp8
Rp9
.ccollections
OrderedDict
p0
((lp1
(lp2
S'state'
p3
aI400
aa(lp4
S'distance'
p5
aF374.4912567138672
aa(lp6
S'timestamp'
p7
aF1.9003379344940186
aatp8
Rp9
.ccollections
OrderedDict
p0
((lp1
(lp2
S'state'
p3
aI400
aa(lp4
S'distance'
p5
aF374.4912567138672
aa(lp6
S'timestamp'
p7
aF1.9004058837890625
aatp8
Rp9
.ccollections
OrderedDict
p0
((lp1
(lp2
S'state'
p3
aI400
aa(lp4
S'distance'
p5
aF374.4912567138672
aa(lp6
S'timestamp'
p7
aF1.900960922241211
aatp8
Rp9
.ccollections
OrderedDict
p0
((lp1
(lp2
S'state'
p3
aI400
aa(lp4
S'distance'
p5
aF374.4912567138672
aa(lp6
S'timestamp'
p7
aF1.9092199802398682
aatp8
Rp9
.ccollections
OrderedDict
p0
((lp1
(lp2
S'state'
p3
aI400
aa(lp4
S'distance'
p5
aF374.4912567138672
aa(lp6
S'timestamp'
p7
aF1.9109418392181396
aatp8
Rp9
.ccollections
OrderedDict
p0
((lp1
(lp2
S'state'
p3
aI400
aa(lp4
S'distance'
p5
aF374.4912567138672
aa(lp6
S'timestamp'
p7
aF1.9197869300842285
aatp8
Rp9
.ccollections
OrderedDict
p0
((lp1
(lp2
S'state'
p3
aI400
aa(lp4
S'distance'
p5
aF374.4912567138672
aa(lp6
S'timestamp'
p7
aF1.9198620319366455
aatp8
Rp9
.ccollections
OrderedDict
p0
((lp1
(lp2
S'state'
p3
aI400
aa(lp4
S'distance'
p5
aF374.4912567138672
aa(lp6
S'timestamp'
p7
aF1.9305620193481445
aatp8
Rp9
.ccollections
OrderedDict
p0
((lp1
(lp2
S'state'
p3
aI400
aa(lp4
S'distance'
p5
aF374.4912567138672
aa(lp6
S'timestamp'
p7
aF1.930661916732788
aatp8
Rp9
.ccollections
OrderedDict
p0
((lp1
(lp2
S'state'
p3
aI400
aa(lp4
S'distance'
p5
aF374.4912567138672
aa(lp6
S'timestamp'
p7
aF1.9385838508605957
aatp8
Rp9
.ccollections
OrderedDict
p0
((lp1
(lp2
S'state'
p3
aI400
aa(lp4
S'distance'
p5
aF374.4912567138672
aa(lp6
S'timestamp'
p7
aF1.9400570392608643
aatp8
Rp9
.ccollections
OrderedDict
p0
((lp1
(lp2
S'state'
p3
aI400
aa(lp4
S'distance'
p5
aF374.4912567138672
aa(lp6
S'timestamp'
p7
aF1.9504988193511963
aatp8
Rp9
.ccollections
OrderedDict
p0
((lp1
(lp2
S'state'
p3
aI400
aa(lp4
S'distance'
p5
aF374.4912567138672
aa(lp6
S'timestamp'
p7
aF1.9517450332641602
aatp8
Rp9
.ccollections
OrderedDict
p0
((lp1
(lp2
S'state'
p3
aI400
aa(lp4
S'distance'
p5
aF374.4912567138672
aa(lp6
S'timestamp'
p7
aF1.9601240158081055
aatp8
Rp9
.ccollections
OrderedDict
p0
((lp1
(lp2
S'state'
p3
aI400
aa(lp4
S'distance'
p5
aF374.4912567138672
aa(lp6
S'timestamp'
p7
aF1.9602649211883545
aatp8
Rp9
.ccollections
OrderedDict
p0
((lp1
(lp2
S'state'
p3
aI400
aa(lp4
S'distance'
p5
aF374.4912567138672
aa(lp6
S'timestamp'
p7
aF1.969053030014038
aatp8
Rp9
.ccollections
OrderedDict
p0
((lp1
(lp2
S'state'
p3
aI400
aa(lp4
S'distance'
p5
aF374.4912567138672
aa(lp6
S'timestamp'
p7
aF1.9708189964294434
aatp8
Rp9
.ccollections
OrderedDict
p0
((lp1
(lp2
S'state'
p3
aI400
aa(lp4
S'distance'
p5
aF374.4912567138672
aa(lp6
S'timestamp'
p7
aF1.9796819686889648
aatp8
Rp9
.ccollections
OrderedDict
p0
((lp1
(lp2
S'state'
p3
aI400
aa(lp4
S'distance'
p5
aF374.4912567138672
aa(lp6
S'timestamp'
p7
aF1.9798409938812256
aatp8
Rp9
.ccollections
OrderedDict
p0
((lp1
(lp2
S'state'
p3
aI400
aa(lp4
S'distance'
p5
aF374.4912567138672
aa(lp6
S'timestamp'
p7
aF1.9902009963989258
aatp8
Rp9
.ccollections
OrderedDict
p0
((lp1
(lp2
S'state'
p3
aI400
aa(lp4
S'distance'
p5
aF374.4912567138672
aa(lp6
S'timestamp'
p7
aF1.990278959274292
aatp8
Rp9
.ccollections
OrderedDict
p0
((lp1
(lp2
S'state'
p3
aI400
aa(lp4
S'distance'
p5
aF374.4912567138672
aa(lp6
S'timestamp'
p7
aF1.9995958805084229
aatp8
Rp9
.ccollections
OrderedDict
p0
((lp1
(lp2
S'state'
p3
aI400
aa(lp4
S'distance'
p5
aF374.4912567138672
aa(lp6
S'timestamp'
p7
aF1.9997479915618896
aatp8
Rp9
.ccollections
OrderedDict
p0
((lp1
(lp2
S'state'
p3
aI400
aa(lp4
S'distance'
p5
aF374.4912567138672
aa(lp6
S'timestamp'
p7
aF2.009434938430786
aatp8
Rp9
.ccollections
OrderedDict
p0
((lp1
(lp2
S'state'
p3
aI400
aa(lp4
S'distance'
p5
aF374.4912567138672
aa(lp6
S'timestamp'
p7
aF2.0095908641815186
aatp8
Rp9
.ccollections
OrderedDict
p0
((lp1
(lp2
S'state'
p3
aI400
aa(lp4
S'distance'
p5
aF374.4912567138672
aa(lp6
S'timestamp'
p7
aF2.019117832183838
aatp8
Rp9
.ccollections
OrderedDict
p0
((lp1
(lp2
S'state'
p3
aI400
aa(lp4
S'distance'
p5
aF374.4912567138672
aa(lp6
S'timestamp'
p7
aF2.019808053970337
aatp8
Rp9
.ccollections
OrderedDict
p0
((lp1
(lp2
S'state'
p3
aI400
aa(lp4
S'distance'
p5
aF374.4912567138672
aa(lp6
S'timestamp'
p7
aF2.028641939163208
aatp8
Rp9
.ccollections
OrderedDict
p0
((lp1
(lp2
S'state'
p3
aI400
aa(lp4
S'distance'
p5
aF374.4912567138672
aa(lp6
S'timestamp'
p7
aF2.0292019844055176
aatp8
Rp9
.ccollections
OrderedDict
p0
((lp1
(lp2
S'state'
p3
aI400
aa(lp4
S'distance'
p5
aF374.4912567138672
aa(lp6
S'timestamp'
p7
aF2.039357900619507
aatp8
Rp9
.ccollections
OrderedDict
p0
((lp1
(lp2
S'state'
p3
aI400
aa(lp4
S'distance'
p5
aF374.4912567138672
aa(lp6
S'timestamp'
p7
aF2.0409810543060303
aatp8
Rp9
.ccollections
OrderedDict
p0
((lp1
(lp2
S'state'
p3
aI400
aa(lp4
S'distance'
p5
aF374.4912567138672
aa(lp6
S'timestamp'
p7
aF2.0490269660949707
aatp8
Rp9
.ccollections
OrderedDict
p0
((lp1
(lp2
S'state'
p3
aI400
aa(lp4
S'distance'
p5
aF374.4912567138672
aa(lp6
S'timestamp'
p7
aF2.050010919570923
aatp8
Rp9
.ccollections
OrderedDict
p0
((lp1
(lp2
S'state'
p3
aI400
aa(lp4
S'distance'
p5
aF374.4912567138672
aa(lp6
S'timestamp'
p7
aF2.0584709644317627
aatp8
Rp9
.ccollections
OrderedDict
p0
((lp1
(lp2
S'state'
p3
aI400
aa(lp4
S'distance'
p5
aF374.4912567138672
aa(lp6
S'timestamp'
p7
aF2.059998035430908
aatp8
Rp9
.ccollections
OrderedDict
p0
((lp1
(lp2
S'state'
p3
aI400
aa(lp4
S'distance'
p5
aF374.4912567138672
aa(lp6
S'timestamp'
p7
aF2.068531036376953
aatp8
Rp9
.ccollections
OrderedDict
p0
((lp1
(lp2
S'state'
p3
aI0
aa(lp4
S'distance'
p5
aF374.4912567138672
aa(lp6
S'timestamp'
p7
aF2.0704798698425293
aatp8
Rp9
.ccollections
OrderedDict
p0
((lp1
(lp2
S'state'
p3
aI0
aa(lp4
S'distance'
p5
aF279.79004669189453
aa(lp6
S'timestamp'
p7
aF2.6482510566711426
aatp8
Rp9
.ccollections
OrderedDict
p0
((lp1
(lp2
S'state'
p3
aI0
aa(lp4
S'distance'
p5
aF279.79004669189453
aa(lp6
S'timestamp'
p7
aF2.6494288444519043
aatp8
Rp9
.ccollections
OrderedDict
p0
((lp1
(lp2
S'state'
p3
aI0
aa(lp4
S'distance'
p5
aF279.79004669189453
aa(lp6
S'timestamp'
p7
aF2.6495048999786377
aatp8
Rp9
.ccollections
OrderedDict
p0
((lp1
(lp2
S'state'
p3
aI0
aa(lp4
S'distance'
p5
aF279.79004669189453
aa(lp6
S'timestamp'
p7
aF2.6505930423736572
aatp8
Rp9
.ccollections
OrderedDict
p0
((lp1
(lp2
S'state'
p3
aI0
aa(lp4
S'distance'
p5
aF279.79004669189453
aa(lp6
S'timestamp'
p7
aF2.6590969562530518
aatp8
Rp9
.ccollections
OrderedDict
p0
((lp1
(lp2
S'state'
p3
aI0
aa(lp4
S'distance'
p5
aF279.79004669189453
aa(lp6
S'timestamp'
p7
aF2.6592519283294678
aatp8
Rp9
.ccollections
OrderedDict
p0
((lp1
(lp2
S'state'
p3
aI0
aa(lp4
S'distance'
p5
aF279.79004669189453
aa(lp6
S'timestamp'
p7
aF2.660780906677246
aatp8
Rp9
.ccollections
OrderedDict
p0
((lp1
(lp2
S'state'
p3
aI0
aa(lp4
S'distance'
p5
aF279.79004669189453
aa(lp6
S'timestamp'
p7
aF2.660856008529663
aatp8
Rp9
.ccollections
OrderedDict
p0
((lp1
(lp2
S'state'
p3
aI0
aa(lp4
S'distance'
p5
aF279.79004669189453
aa(lp6
S'timestamp'
p7
aF2.668592929840088
aatp8
Rp9
.ccollections
OrderedDict
p0
((lp1
(lp2
S'state'
p3
aI0
aa(lp4
S'distance'
p5
aF279.79004669189453
aa(lp6
S'timestamp'
p7
aF2.669477939605713
aatp8
Rp9
.ccollections
OrderedDict
p0
((lp1
(lp2
S'state'
p3
aI0
aa(lp4
S'distance'
p5
aF279.79004669189453
aa(lp6
S'timestamp'
p7
aF2.6783640384674072
aatp8
Rp9
.ccollections
OrderedDict
p0
((lp1
(lp2
S'state'
p3
aI0
aa(lp4
S'distance'
p5
aF279.79004669189453
aa(lp6
S'timestamp'
p7
aF2.679304838180542
aatp8
Rp9
.ccollections
OrderedDict
p0
((lp1
(lp2
S'state'
p3
aI0
aa(lp4
S'distance'
p5
aF279.79004669189453
aa(lp6
S'timestamp'
p7
aF2.688488006591797
aatp8
Rp9
.ccollections
OrderedDict
p0
((lp1
(lp2
S'state'
p3
aI0
aa(lp4
S'distance'
p5
aF279.79004669189453
aa(lp6
S'timestamp'
p7
aF2.6894359588623047
aatp8
Rp9
.ccollections
OrderedDict
p0
((lp1
(lp2
S'state'
p3
aI0
aa(lp4
S'distance'
p5
aF279.79004669189453
aa(lp6
S'timestamp'
p7
aF2.7002148628234863
aatp8
Rp9
.ccollections
OrderedDict
p0
((lp1
(lp2
S'state'
p3
aI0
aa(lp4
S'distance'
p5
aF279.79004669189453
aa(lp6
S'timestamp'
p7
aF2.7002830505371094
aatp8
Rp9
.ccollections
OrderedDict
p0
((lp1
(lp2
S'state'
p3
aI0
aa(lp4
S'distance'
p5
aF279.79004669189453
aa(lp6
S'timestamp'
p7
aF2.7295620441436768
aatp8
Rp9
.ccollections
OrderedDict
p0
((lp1
(lp2
S'state'
p3
aI0
aa(lp4
S'distance'
p5
aF279.79004669189453
aa(lp6
S'timestamp'
p7
aF2.7296528816223145
aatp8
Rp9
.ccollections
OrderedDict
p0
((lp1
(lp2
S'state'
p3
aI0
aa(lp4
S'distance'
p5
aF279.79004669189453
aa(lp6
S'timestamp'
p7
aF2.731649875640869
aatp8
Rp9
.ccollections
OrderedDict
p0
((lp1
(lp2
S'state'
p3
aI0
aa(lp4
S'distance'
p5
aF279.79004669189453
aa(lp6
S'timestamp'
p7
aF2.7319769859313965
aatp8
Rp9
.ccollections
OrderedDict
p0
((lp1
(lp2
S'state'
p3
aI0
aa(lp4
S'distance'
p5
aF279.79004669189453
aa(lp6
S'timestamp'
p7
aF2.739603042602539
aatp8
Rp9
.ccollections
OrderedDict
p0
((lp1
(lp2
S'state'
p3
aI0
aa(lp4
S'distance'
p5
aF279.79004669189453
aa(lp6
S'timestamp'
p7
aF2.740370988845825
aatp8
Rp9
.ccollections
OrderedDict
p0
((lp1
(lp2
S'state'
p3
aI0
aa(lp4
S'distance'
p5
aF279.79004669189453
aa(lp6
S'timestamp'
p7
aF2.740471839904785
aatp8
Rp9
.ccollections
OrderedDict
p0
((lp1
(lp2
S'state'
p3
aI0
aa(lp4
S'distance'
p5
aF279.79004669189453
aa(lp6
S'timestamp'
p7
aF2.7405409812927246
aatp8
Rp9
.ccollections
OrderedDict
p0
((lp1
(lp2
S'state'
p3
aI0
aa(lp4
S'distance'
p5
aF279.79004669189453
aa(lp6
S'timestamp'
p7
aF2.74967098236084
aatp8
Rp9
.ccollections
OrderedDict
p0
((lp1
(lp2
S'state'
p3
aI0
aa(lp4
S'distance'
p5
aF279.79004669189453
aa(lp6
S'timestamp'
p7
aF2.750699996948242
aatp8
Rp9
.ccollections
OrderedDict
p0
((lp1
(lp2
S'state'
p3
aI0
aa(lp4
S'distance'
p5
aF279.79004669189453
aa(lp6
S'timestamp'
p7
aF2.75913405418396
aatp8
Rp9
.ccollections
OrderedDict
p0
((lp1
(lp2
S'state'
p3
aI0
aa(lp4
S'distance'
p5
aF279.79004669189453
aa(lp6
S'timestamp'
p7
aF2.7604990005493164
aatp8
Rp9
.ccollections
OrderedDict
p0
((lp1
(lp2
S'state'
p3
aI0
aa(lp4
S'distance'
p5
aF279.79004669189453
aa(lp6
S'timestamp'
p7
aF2.769359827041626
aatp8
Rp9
.ccollections
OrderedDict
p0
((lp1
(lp2
S'state'
p3
aI0
aa(lp4
S'distance'
p5
aF279.79004669189453
aa(lp6
S'timestamp'
p7
aF2.7709269523620605
aatp8
Rp9
.ccollections
OrderedDict
p0
((lp1
(lp2
S'state'
p3
aI0
aa(lp4
S'distance'
p5
aF279.79004669189453
aa(lp6
S'timestamp'
p7
aF2.7797210216522217
aatp8
Rp9
.ccollections
OrderedDict
p0
((lp1
(lp2
S'state'
p3
aI0
aa(lp4
S'distance'
p5
aF279.79004669189453
aa(lp6
S'timestamp'
p7
aF2.7799179553985596
aatp8
Rp9
.ccollections
OrderedDict
p0
((lp1
(lp2
S'state'
p3
aI0
aa(lp4
S'distance'
p5
aF279.79004669189453
aa(lp6
S'timestamp'
p7
aF2.7886438369750977
aatp8
Rp9
.ccollections
OrderedDict
p0
((lp1
(lp2
S'state'
p3
aI0
aa(lp4
S'distance'
p5
aF279.79004669189453
aa(lp6
S'timestamp'
p7
aF2.7900278568267822
aatp8
Rp9
.ccollections
OrderedDict
p0
((lp1
(lp2
S'state'
p3
aI0
aa(lp4
S'distance'
p5
aF279.79004669189453
aa(lp6
S'timestamp'
p7
aF2.798696994781494
aatp8
Rp9
.ccollections
OrderedDict
p0
((lp1
(lp2
S'state'
p3
aI0
aa(lp4
S'distance'
p5
aF279.79004669189453
aa(lp6
S'timestamp'
p7
aF2.7998058795928955
aatp8
Rp9
.ccollections
OrderedDict
p0
((lp1
(lp2
S'state'
p3
aI0
aa(lp4
S'distance'
p5
aF279.79004669189453
aa(lp6
S'timestamp'
p7
aF2.809006929397583
aatp8
Rp9
.ccollections
OrderedDict
p0
((lp1
(lp2
S'state'
p3
aI0
aa(lp4
S'distance'
p5
aF279.79004669189453
aa(lp6
S'timestamp'
p7
aF2.8101918697357178
aatp8
Rp9
.ccollections
OrderedDict
p0
((lp1
(lp2
S'state'
p3
aI0
aa(lp4
S'distance'
p5
aF279.79004669189453
aa(lp6
S'timestamp'
p7
aF2.81949782371521
aatp8
Rp9
.ccollections
OrderedDict
p0
((lp1
(lp2
S'state'
p3
aI0
aa(lp4
S'distance'
p5
aF279.79004669189453
aa(lp6
S'timestamp'
p7
aF2.819589853286743
aatp8
Rp9
.ccollections
OrderedDict
p0
((lp1
(lp2
S'state'
p3
aI0
aa(lp4
S'distance'
p5
aF279.79004669189453
aa(lp6
S'timestamp'
p7
aF2.8287248611450195
aatp8
Rp9
.ccollections
OrderedDict
p0
((lp1
(lp2
S'state'
p3
aI0
aa(lp4
S'distance'
p5
aF279.79004669189453
aa(lp6
S'timestamp'
p7
aF2.829897880554199
aatp8
Rp9
.ccollections
OrderedDict
p0
((lp1
(lp2
S'state'
p3
aI0
aa(lp4
S'distance'
p5
aF279.79004669189453
aa(lp6
S'timestamp'
p7
aF2.8388988971710205
aatp8
Rp9
.ccollections
OrderedDict
p0
((lp1
(lp2
S'state'
p3
aI0
aa(lp4
S'distance'
p5
aF279.79004669189453
aa(lp6
S'timestamp'
p7
aF2.840235948562622
aatp8
Rp9
.ccollections
OrderedDict
p0
((lp1
(lp2
S'state'
p3
aI0
aa(lp4
S'distance'
p5
aF279.79004669189453
aa(lp6
S'timestamp'
p7
aF2.8491759300231934
aatp8
Rp9
.ccollections
OrderedDict
p0
((lp1
(lp2
S'state'
p3
aI0
aa(lp4
S'distance'
p5
aF279.79004669189453
aa(lp6
S'timestamp'
p7
aF2.849855899810791
aatp8
Rp9
.ccollections
OrderedDict
p0
((lp1
(lp2
S'state'
p3
aI0
aa(lp4
S'distance'
p5
aF279.79004669189453
aa(lp6
S'timestamp'
p7
aF2.858677864074707
aatp8
Rp9
.ccollections
OrderedDict
p0
((lp1
(lp2
S'state'
p3
aI0
aa(lp4
S'distance'
p5
aF279.79004669189453
aa(lp6
S'timestamp'
p7
aF2.8593759536743164
aatp8
Rp9
.ccollections
OrderedDict
p0
((lp1
(lp2
S'state'
p3
aI0
aa(lp4
S'distance'
p5
aF279.79004669189453
aa(lp6
S'timestamp'
p7
aF2.8693158626556396
aatp8
Rp9
.ccollections
OrderedDict
p0
((lp1
(lp2
S'state'
p3
aI0
aa(lp4
S'distance'
p5
aF279.79004669189453
aa(lp6
S'timestamp'
p7
aF2.8694820404052734
aatp8
Rp9
.ccollections
OrderedDict
p0
((lp1
(lp2
S'state'
p3
aI0
aa(lp4
S'distance'
p5
aF279.79004669189453
aa(lp6
S'timestamp'
p7
aF2.8786959648132324
aatp8
Rp9
.ccollections
OrderedDict
p0
((lp1
(lp2
S'state'
p3
aI0
aa(lp4
S'distance'
p5
aF279.79004669189453
aa(lp6
S'timestamp'
p7
aF2.8802478313446045
aatp8
Rp9
.ccollections
OrderedDict
p0
((lp1
(lp2
S'state'
p3
aI0
aa(lp4
S'distance'
p5
aF279.79004669189453
aa(lp6
S'timestamp'
p7
aF2.88913893699646
aatp8
Rp9
.ccollections
OrderedDict
p0
((lp1
(lp2
S'state'
p3
aI0
aa(lp4
S'distance'
p5
aF279.79004669189453
aa(lp6
S'timestamp'
p7
aF2.8896100521087646
aatp8
Rp9
.ccollections
OrderedDict
p0
((lp1
(lp2
S'state'
p3
aI0
aa(lp4
S'distance'
p5
aF279.79004669189453
aa(lp6
S'timestamp'
p7
aF2.8986380100250244
aatp8
Rp9
.ccollections
OrderedDict
p0
((lp1
(lp2
S'state'
p3
aI0
aa(lp4
S'distance'
p5
aF279.79004669189453
aa(lp6
S'timestamp'
p7
aF2.8995449542999268
aatp8
Rp9
.ccollections
OrderedDict
p0
((lp1
(lp2
S'state'
p3
aI0
aa(lp4
S'distance'
p5
aF279.79004669189453
aa(lp6
S'timestamp'
p7
aF2.9095749855041504
aatp8
Rp9
.ccollections
OrderedDict
p0
((lp1
(lp2
S'state'
p3
aI0
aa(lp4
S'distance'
p5
aF279.79004669189453
aa(lp6
S'timestamp'
p7
aF2.9102120399475098
aatp8
Rp9
.ccollections
OrderedDict
p0
((lp1
(lp2
S'state'
p3
aI0
aa(lp4
S'distance'
p5
aF279.79004669189453
aa(lp6
S'timestamp'
p7
aF2.91894793510437
aatp8
Rp9
.ccollections
OrderedDict
p0
((lp1
(lp2
S'state'
p3
aI0
aa(lp4
S'distance'
p5
aF279.79004669189453
aa(lp6
S'timestamp'
p7
aF2.929291009902954
aatp8
Rp9
.ccollections
OrderedDict
p0
((lp1
(lp2
S'state'
p3
aI0
aa(lp4
S'distance'
p5
aF279.79004669189453
aa(lp6
S'timestamp'
p7
aF2.929394006729126
aatp8
Rp9
.ccollections
OrderedDict
p0
((lp1
(lp2
S'state'
p3
aI0
aa(lp4
S'distance'
p5
aF279.79004669189453
aa(lp6
S'timestamp'
p7
aF2.9304699897766113
aatp8
Rp9
.ccollections
OrderedDict
p0
((lp1
(lp2
S'state'
p3
aI0
aa(lp4
S'distance'
p5
aF279.79004669189453
aa(lp6
S'timestamp'
p7
aF2.939018964767456
aatp8
Rp9
.ccollections
OrderedDict
p0
((lp1
(lp2
S'state'
p3
aI0
aa(lp4
S'distance'
p5
aF279.79004669189453
aa(lp6
S'timestamp'
p7
aF2.9403200149536133
aatp8
Rp9
.ccollections
OrderedDict
p0
((lp1
(lp2
S'state'
p3
aI0
aa(lp4
S'distance'
p5
aF279.79004669189453
aa(lp6
S'timestamp'
p7
aF2.948659896850586
aatp8
Rp9
.ccollections
OrderedDict
p0
((lp1
(lp2
S'state'
p3
aI0
aa(lp4
S'distance'
p5
aF279.79004669189453
aa(lp6
S'timestamp'
p7
aF2.949345827102661
aatp8
Rp9
.ccollections
OrderedDict
p0
((lp1
(lp2
S'state'
p3
aI0
aa(lp4
S'distance'
p5
aF279.79004669189453
aa(lp6
S'timestamp'
p7
aF2.9588940143585205
aatp8
Rp9
.ccollections
OrderedDict
p0
((lp1
(lp2
S'state'
p3
aI0
aa(lp4
S'distance'
p5
aF279.79004669189453
aa(lp6
S'timestamp'
p7
aF2.960749864578247
aatp8
Rp9
.ccollections
OrderedDict
p0
((lp1
(lp2
S'state'
p3
aI0
aa(lp4
S'distance'
p5
aF279.79004669189453
aa(lp6
S'timestamp'
p7
aF2.968655824661255
aatp8
Rp9
.ccollections
OrderedDict
p0
((lp1
(lp2
S'state'
p3
aI0
aa(lp4
S'distance'
p5
aF279.79004669189453
aa(lp6
S'timestamp'
p7
aF2.9693729877471924
aatp8
Rp9
.ccollections
OrderedDict
p0
((lp1
(lp2
S'state'
p3
aI0
aa(lp4
S'distance'
p5
aF279.79004669189453
aa(lp6
S'timestamp'
p7
aF2.97917103767395
aatp8
Rp9
.ccollections
OrderedDict
p0
((lp1
(lp2
S'state'
p3
aI0
aa(lp4
S'distance'
p5
aF279.79004669189453
aa(lp6
S'timestamp'
p7
aF2.9797658920288086
aatp8
Rp9
.ccollections
OrderedDict
p0
((lp1
(lp2
S'state'
p3
aI0
aa(lp4
S'distance'
p5
aF279.79004669189453
aa(lp6
S'timestamp'
p7
aF2.988646984100342
aatp8
Rp9
.ccollections
OrderedDict
p0
((lp1
(lp2
S'state'
p3
aI0
aa(lp4
S'distance'
p5
aF279.79004669189453
aa(lp6
S'timestamp'
p7
aF2.989133834838867
aatp8
Rp9
.ccollections
OrderedDict
p0
((lp1
(lp2
S'state'
p3
aI0
aa(lp4
S'distance'
p5
aF279.79004669189453
aa(lp6
S'timestamp'
p7
aF3.0098228454589844
aatp8
Rp9
.ccollections
OrderedDict
p0
((lp1
(lp2
S'state'
p3
aI0
aa(lp4
S'distance'
p5
aF279.79004669189453
aa(lp6
S'timestamp'
p7
aF3.0145888328552246
aatp8
Rp9
.ccollections
OrderedDict
p0
((lp1
(lp2
S'state'
p3
aI0
aa(lp4
S'distance'
p5
aF279.79004669189453
aa(lp6
S'timestamp'
p7
aF3.014880895614624
aatp8
Rp9
.ccollections
OrderedDict
p0
((lp1
(lp2
S'state'
p3
aI0
aa(lp4
S'distance'
p5
aF279.79004669189453
aa(lp6
S'timestamp'
p7
aF3.0151219367980957
aatp8
Rp9
.ccollections
OrderedDict
p0
((lp1
(lp2
S'state'
p3
aI0
aa(lp4
S'distance'
p5
aF279.79004669189453
aa(lp6
S'timestamp'
p7
aF3.022291898727417
aatp8
Rp9
.ccollections
OrderedDict
p0
((lp1
(lp2
S'state'
p3
aI0
aa(lp4
S'distance'
p5
aF279.79004669189453
aa(lp6
S'timestamp'
p7
aF3.0237879753112793
aatp8
Rp9
.ccollections
OrderedDict
p0
((lp1
(lp2
S'state'
p3
aI0
aa(lp4
S'distance'
p5
aF279.79004669189453
aa(lp6
S'timestamp'
p7
aF3.039263963699341
aatp8
Rp9
.ccollections
OrderedDict
p0
((lp1
(lp2
S'state'
p3
aI0
aa(lp4
S'distance'
p5
aF279.79004669189453
aa(lp6
S'timestamp'
p7
aF3.0395100116729736
aatp8
Rp9
.ccollections
OrderedDict
p0
((lp1
(lp2
S'state'
p3
aI0
aa(lp4
S'distance'
p5
aF279.79004669189453
aa(lp6
S'timestamp'
p7
aF3.0401039123535156
aatp8
Rp9
.ccollections
OrderedDict
p0
((lp1
(lp2
S'state'
p3
aI0
aa(lp4
S'distance'
p5
aF279.79004669189453
aa(lp6
S'timestamp'
p7
aF3.041724920272827
aatp8
Rp9
.ccollections
OrderedDict
p0
((lp1
(lp2
S'state'
p3
aI0
aa(lp4
S'distance'
p5
aF279.79004669189453
aa(lp6
S'timestamp'
p7
aF3.0486109256744385
aatp8
Rp9
.ccollections
OrderedDict
p0
((lp1
(lp2
S'state'
p3
aI0
aa(lp4
S'distance'
p5
aF279.79004669189453
aa(lp6
S'timestamp'
p7
aF3.049211025238037
aatp8
Rp9
.ccollections
OrderedDict
p0
((lp1
(lp2
S'state'
p3
aI0
aa(lp4
S'distance'
p5
aF279.79004669189453
aa(lp6
S'timestamp'
p7
aF3.0592620372772217
aatp8
Rp9
.ccollections
OrderedDict
p0
((lp1
(lp2
S'state'
p3
aI0
aa(lp4
S'distance'
p5
aF279.79004669189453
aa(lp6
S'timestamp'
p7
aF3.0609099864959717
aatp8
Rp9
.ccollections
OrderedDict
p0
((lp1
(lp2
S'state'
p3
aI0
aa(lp4
S'distance'
p5
aF279.79004669189453
aa(lp6
S'timestamp'
p7
aF3.069171905517578
aatp8
Rp9
.ccollections
OrderedDict
p0
((lp1
(lp2
S'state'
p3
aI0
aa(lp4
S'distance'
p5
aF279.79004669189453
aa(lp6
S'timestamp'
p7
aF3.070150852203369
aatp8
Rp9
.ccollections
OrderedDict
p0
((lp1
(lp2
S'state'
p3
aI0
aa(lp4
S'distance'
p5
aF279.79004669189453
aa(lp6
S'timestamp'
p7
aF3.0800039768218994
aatp8
Rp9
.ccollections
OrderedDict
p0
((lp1
(lp2
S'state'
p3
aI0
aa(lp4
S'distance'
p5
aF279.79004669189453
aa(lp6
S'timestamp'
p7
aF3.080075979232788
aatp8
Rp9
.ccollections
OrderedDict
p0
((lp1
(lp2
S'state'
p3
aI0
aa(lp4
S'distance'
p5
aF279.79004669189453
aa(lp6
S'timestamp'
p7
aF3.090031862258911
aatp8
Rp9
.ccollections
OrderedDict
p0
((lp1
(lp2
S'state'
p3
aI400
aa(lp4
S'distance'
p5
aF279.79004669189453
aa(lp6
S'timestamp'
p7
aF3.091230869293213
aatp8
Rp9
.ccollections
OrderedDict
p0
((lp1
(lp2
S'state'
p3
aI400
aa(lp4
S'distance'
p5
aF279.79004669189453
aa(lp6
S'timestamp'
p7
aF3.0991129875183105
aatp8
Rp9
.ccollections
OrderedDict
p0
((lp1
(lp2
S'state'
p3
aI400
aa(lp4
S'distance'
p5
aF279.79004669189453
aa(lp6
S'timestamp'
p7
aF3.100261926651001
aatp8
Rp9
.ccollections
OrderedDict
p0
((lp1
(lp2
S'state'
p3
aI400
aa(lp4
S'distance'
p5
aF279.79004669189453
aa(lp6
S'timestamp'
p7
aF3.1103780269622803
aatp8
Rp9
.ccollections
OrderedDict
p0
((lp1
(lp2
S'state'
p3
aI400
aa(lp4
S'distance'
p5
aF279.79004669189453
aa(lp6
S'timestamp'
p7
aF3.112454891204834
aatp8
Rp9
.ccollections
OrderedDict
p0
((lp1
(lp2
S'state'
p3
aI400
aa(lp4
S'distance'
p5
aF279.79004669189453
aa(lp6
S'timestamp'
p7
aF3.118738889694214
aatp8
Rp9
.ccollections
OrderedDict
p0
((lp1
(lp2
S'state'
p3
aI400
aa(lp4
S'distance'
p5
aF279.79004669189453
aa(lp6
S'timestamp'
p7
aF3.133431911468506
aatp8
Rp9
.ccollections
OrderedDict
p0
((lp1
(lp2
S'state'
p3
aI400
aa(lp4
S'distance'
p5
aF279.79004669189453
aa(lp6
S'timestamp'
p7
aF3.133504867553711
aatp8
Rp9
.ccollections
OrderedDict
p0
((lp1
(lp2
S'state'
p3
aI400
aa(lp4
S'distance'
p5
aF279.79004669189453
aa(lp6
S'timestamp'
p7
aF3.133654832839966
aatp8
Rp9
.ccollections
OrderedDict
p0
((lp1
(lp2
S'state'
p3
aI400
aa(lp4
S'distance'
p5
aF279.79004669189453
aa(lp6
S'timestamp'
p7
aF3.141446828842163
aatp8
Rp9
.ccollections
OrderedDict
p0
((lp1
(lp2
S'state'
p3
aI400
aa(lp4
S'distance'
p5
aF279.79004669189453
aa(lp6
S'timestamp'
p7
aF3.1415889263153076
aatp8
Rp9
.ccollections
OrderedDict
p0
((lp1
(lp2
S'state'
p3
aI400
aa(lp4
S'distance'
p5
aF279.79004669189453
aa(lp6
S'timestamp'
p7
aF3.1491479873657227
aatp8
Rp9
.ccollections
OrderedDict
p0
((lp1
(lp2
S'state'
p3
aI400
aa(lp4
S'distance'
p5
aF279.79004669189453
aa(lp6
S'timestamp'
p7
aF3.149343967437744
aatp8
Rp9
.ccollections
OrderedDict
p0
((lp1
(lp2
S'state'
p3
aI400
aa(lp4
S'distance'
p5
aF279.79004669189453
aa(lp6
S'timestamp'
p7
aF3.1586108207702637
aatp8
Rp9
.ccollections
OrderedDict
p0
((lp1
(lp2
S'state'
p3
aI400
aa(lp4
S'distance'
p5
aF279.79004669189453
aa(lp6
S'timestamp'
p7
aF3.1597769260406494
aatp8
Rp9
.ccollections
OrderedDict
p0
((lp1
(lp2
S'state'
p3
aI400
aa(lp4
S'distance'
p5
aF279.79004669189453
aa(lp6
S'timestamp'
p7
aF3.168599843978882
aatp8
Rp9
.ccollections
OrderedDict
p0
((lp1
(lp2
S'state'
p3
aI400
aa(lp4
S'distance'
p5
aF279.79004669189453
aa(lp6
S'timestamp'
p7
aF3.169325828552246
aatp8
Rp9
.ccollections
OrderedDict
p0
((lp1
(lp2
S'state'
p3
aI400
aa(lp4
S'distance'
p5
aF279.79004669189453
aa(lp6
S'timestamp'
p7
aF3.178630828857422
aatp8
Rp9
.ccollections
OrderedDict
p0
((lp1
(lp2
S'state'
p3
aI400
aa(lp4
S'distance'
p5
aF279.79004669189453
aa(lp6
S'timestamp'
p7
aF3.1790969371795654
aatp8
Rp9
.ccollections
OrderedDict
p0
((lp1
(lp2
S'state'
p3
aI400
aa(lp4
S'distance'
p5
aF279.79004669189453
aa(lp6
S'timestamp'
p7
aF3.190600872039795
aatp8
Rp9
.ccollections
OrderedDict
p0
((lp1
(lp2
S'state'
p3
aI400
aa(lp4
S'distance'
p5
aF279.79004669189453
aa(lp6
S'timestamp'
p7
aF3.19136905670166
aatp8
Rp9
.ccollections
OrderedDict
p0
((lp1
(lp2
S'state'
p3
aI400
aa(lp4
S'distance'
p5
aF279.79004669189453
aa(lp6
S'timestamp'
p7
aF3.198632001876831
aatp8
Rp9
.ccollections
OrderedDict
p0
((lp1
(lp2
S'state'
p3
aI400
aa(lp4
S'distance'
p5
aF279.79004669189453
aa(lp6
S'timestamp'
p7
aF3.199496030807495
aatp8
Rp9
.ccollections
OrderedDict
p0
((lp1
(lp2
S'state'
p3
aI400
aa(lp4
S'distance'
p5
aF279.79004669189453
aa(lp6
S'timestamp'
p7
aF3.212723970413208
aatp8
Rp9
.ccollections
OrderedDict
p0
((lp1
(lp2
S'state'
p3
aI400
aa(lp4
S'distance'
p5
aF279.79004669189453
aa(lp6
S'timestamp'
p7
aF3.213578939437866
aatp8
Rp9
.ccollections
OrderedDict
p0
((lp1
(lp2
S'state'
p3
aI400
aa(lp4
S'distance'
p5
aF279.79004669189453
aa(lp6
S'timestamp'
p7
aF3.218655824661255
aatp8
Rp9
.ccollections
OrderedDict
p0
((lp1
(lp2
S'state'
p3
aI400
aa(lp4
S'distance'
p5
aF279.79004669189453
aa(lp6
S'timestamp'
p7
aF3.2193989753723145
aatp8
Rp9
.ccollections
OrderedDict
p0
((lp1
(lp2
S'state'
p3
aI400
aa(lp4
S'distance'
p5
aF279.79004669189453
aa(lp6
S'timestamp'
p7
aF3.2286829948425293
aatp8
Rp9
.ccollections
OrderedDict
p0
((lp1
(lp2
S'state'
p3
aI400
aa(lp4
S'distance'
p5
aF279.79004669189453
aa(lp6
S'timestamp'
p7
aF3.2292559146881104
aatp8
Rp9
.ccollections
OrderedDict
p0
((lp1
(lp2
S'state'
p3
aI400
aa(lp4
S'distance'
p5
aF279.79004669189453
aa(lp6
S'timestamp'
p7
aF3.238476037979126
aatp8
Rp9
.ccollections
OrderedDict
p0
((lp1
(lp2
S'state'
p3
aI400
aa(lp4
S'distance'
p5
aF279.79004669189453
aa(lp6
S'timestamp'
p7
aF3.239104986190796
aatp8
Rp9
.ccollections
OrderedDict
p0
((lp1
(lp2
S'state'
p3
aI400
aa(lp4
S'distance'
p5
aF279.79004669189453
aa(lp6
S'timestamp'
p7
aF3.2586209774017334
aatp8
Rp9
.ccollections
OrderedDict
p0
((lp1
(lp2
S'state'
p3
aI400
aa(lp4
S'distance'
p5
aF279.79004669189453
aa(lp6
S'timestamp'
p7
aF3.260213851928711
aatp8
Rp9
.ccollections
OrderedDict
p0
((lp1
(lp2
S'state'
p3
aI400
aa(lp4
S'distance'
p5
aF279.79004669189453
aa(lp6
S'timestamp'
p7
aF3.2603089809417725
aatp8
Rp9
.ccollections
OrderedDict
p0
((lp1
(lp2
S'state'
p3
aI400
aa(lp4
S'distance'
p5
aF279.79004669189453
aa(lp6
S'timestamp'
p7
aF3.2611730098724365
aatp8
Rp9
.ccollections
OrderedDict
p0
((lp1
(lp2
S'state'
p3
aI400
aa(lp4
S'distance'
p5
aF279.79004669189453
aa(lp6
S'timestamp'
p7
aF3.269850015640259
aatp8
Rp9
.ccollections
OrderedDict
p0
((lp1
(lp2
S'state'
p3
aI400
aa(lp4
S'distance'
p5
aF279.79004669189453
aa(lp6
S'timestamp'
p7
aF3.2699320316314697
aatp8
Rp9
.ccollections
OrderedDict
p0
((lp1
(lp2
S'state'
p3
aI400
aa(lp4
S'distance'
p5
aF279.79004669189453
aa(lp6
S'timestamp'
p7
aF3.2789878845214844
aatp8
Rp9
.ccollections
OrderedDict
p0
((lp1
(lp2
S'state'
p3
aI400
aa(lp4
S'distance'
p5
aF279.79004669189453
aa(lp6
S'timestamp'
p7
aF3.279165029525757
aatp8
Rp9
.ccollections
OrderedDict
p0
((lp1
(lp2
S'state'
p3
aI400
aa(lp4
S'distance'
p5
aF279.79004669189453
aa(lp6
S'timestamp'
p7
aF3.2893240451812744
aatp8
Rp9
.ccollections
OrderedDict
p0
((lp1
(lp2
S'state'
p3
aI400
aa(lp4
S'distance'
p5
aF279.79004669189453
aa(lp6
S'timestamp'
p7
aF3.291275978088379
aatp8
Rp9
.ccollections
OrderedDict
p0
((lp1
(lp2
S'state'
p3
aI400
aa(lp4
S'distance'
p5
aF279.79004669189453
aa(lp6
S'timestamp'
p7
aF3.2998759746551514
aatp8
Rp9
.ccollections
OrderedDict
p0
((lp1
(lp2
S'state'
p3
aI400
aa(lp4
S'distance'
p5
aF279.79004669189453
aa(lp6
S'timestamp'
p7
aF3.2999608516693115
aatp8
Rp9
.ccollections
OrderedDict
p0
((lp1
(lp2
S'state'
p3
aI400
aa(lp4
S'distance'
p5
aF279.79004669189453
aa(lp6
S'timestamp'
p7
aF3.3090109825134277
aatp8
Rp9
.ccollections
OrderedDict
p0
((lp1
(lp2
S'state'
p3
aI400
aa(lp4
S'distance'
p5
aF279.79004669189453
aa(lp6
S'timestamp'
p7
aF3.311004877090454
aatp8
Rp9
.ccollections
OrderedDict
p0
((lp1
(lp2
S'state'
p3
aI400
aa(lp4
S'distance'
p5
aF279.79004669189453
aa(lp6
S'timestamp'
p7
aF3.3199479579925537
aatp8
Rp9
.ccollections
OrderedDict
p0
((lp1
(lp2
S'state'
p3
aI400
aa(lp4
S'distance'
p5
aF279.79004669189453
aa(lp6
S'timestamp'
p7
aF3.320021867752075
aatp8
Rp9
.ccollections
OrderedDict
p0
((lp1
(lp2
S'state'
p3
aI400
aa(lp4
S'distance'
p5
aF279.79004669189453
aa(lp6
S'timestamp'
p7
aF3.3298749923706055
aatp8
Rp9
.ccollections
OrderedDict
p0
((lp1
(lp2
S'state'
p3
aI400
aa(lp4
S'distance'
p5
aF279.79004669189453
aa(lp6
S'timestamp'
p7
aF3.3300929069519043
aatp8
Rp9
.ccollections
OrderedDict
p0
((lp1
(lp2
S'state'
p3
aI400
aa(lp4
S'distance'
p5
aF279.79004669189453
aa(lp6
S'timestamp'
p7
aF3.3389840126037598
aatp8
Rp9
.ccollections
OrderedDict
p0
((lp1
(lp2
S'state'
p3
aI400
aa(lp4
S'distance'
p5
aF279.79004669189453
aa(lp6
S'timestamp'
p7
aF3.3399038314819336
aatp8
Rp9
.ccollections
OrderedDict
p0
((lp1
(lp2
S'state'
p3
aI400
aa(lp4
S'distance'
p5
aF279.79004669189453
aa(lp6
S'timestamp'
p7
aF3.349423885345459
aatp8
Rp9
.ccollections
OrderedDict
p0
((lp1
(lp2
S'state'
p3
aI400
aa(lp4
S'distance'
p5
aF279.79004669189453
aa(lp6
S'timestamp'
p7
aF3.349982976913452
aatp8
Rp9
.ccollections
OrderedDict
p0
((lp1
(lp2
S'state'
p3
aI400
aa(lp4
S'distance'
p5
aF279.79004669189453
aa(lp6
S'timestamp'
p7
aF3.360399007797241
aatp8
Rp9
.ccollections
OrderedDict
p0
((lp1
(lp2
S'state'
p3
aI400
aa(lp4
S'distance'
p5
aF279.79004669189453
aa(lp6
S'timestamp'
p7
aF3.3610880374908447
aatp8
Rp9
.ccollections
OrderedDict
p0
((lp1
(lp2
S'state'
p3
aI400
aa(lp4
S'distance'
p5
aF279.79004669189453
aa(lp6
S'timestamp'
p7
aF3.3686628341674805
aatp8
Rp9
.ccollections
OrderedDict
p0
((lp1
(lp2
S'state'
p3
aI400
aa(lp4
S'distance'
p5
aF279.79004669189453
aa(lp6
S'timestamp'
p7
aF3.379011869430542
aatp8
Rp9
.ccollections
OrderedDict
p0
((lp1
(lp2
S'state'
p3
aI400
aa(lp4
S'distance'
p5
aF279.79004669189453
aa(lp6
S'timestamp'
p7
aF3.3791630268096924
aatp8
Rp9
.ccollections
OrderedDict
p0
((lp1
(lp2
S'state'
p3
aI400
aa(lp4
S'distance'
p5
aF279.79004669189453
aa(lp6
S'timestamp'
p7
aF3.3799328804016113
aatp8
Rp9
.ccollections
OrderedDict
p0
((lp1
(lp2
S'state'
p3
aI400
aa(lp4
S'distance'
p5
aF279.79004669189453
aa(lp6
S'timestamp'
p7
aF3.3890368938446045
aatp8
Rp9
.ccollections
OrderedDict
p0
((lp1
(lp2
S'state'
p3
aI400
aa(lp4
S'distance'
p5
aF279.79004669189453
aa(lp6
S'timestamp'
p7
aF3.390255928039551
aatp8
Rp9
.ccollections
OrderedDict
p0
((lp1
(lp2
S'state'
p3
aI400
aa(lp4
S'distance'
p5
aF279.79004669189453
aa(lp6
S'timestamp'
p7
aF3.3997769355773926
aatp8
Rp9
.ccollections
OrderedDict
p0
((lp1
(lp2
S'state'
p3
aI400
aa(lp4
S'distance'
p5
aF279.79004669189453
aa(lp6
S'timestamp'
p7
aF3.400282859802246
aatp8
Rp9
.ccollections
OrderedDict
p0
((lp1
(lp2
S'state'
p3
aI400
aa(lp4
S'distance'
p5
aF279.79004669189453
aa(lp6
S'timestamp'
p7
aF3.409121036529541
aatp8
Rp9
.ccollections
OrderedDict
p0
((lp1
(lp2
S'state'
p3
aI400
aa(lp4
S'distance'
p5
aF279.79004669189453
aa(lp6
S'timestamp'
p7
aF3.409524917602539
aatp8
Rp9
.ccollections
OrderedDict
p0
((lp1
(lp2
S'state'
p3
aI400
aa(lp4
S'distance'
p5
aF279.79004669189453
aa(lp6
S'timestamp'
p7
aF3.418565034866333
aatp8
Rp9
.ccollections
OrderedDict
p0
((lp1
(lp2
S'state'
p3
aI400
aa(lp4
S'distance'
p5
aF279.79004669189453
aa(lp6
S'timestamp'
p7
aF3.4196419715881348
aatp8
Rp9
.ccollections
OrderedDict
p0
((lp1
(lp2
S'state'
p3
aI400
aa(lp4
S'distance'
p5
aF279.79004669189453
aa(lp6
S'timestamp'
p7
aF3.4290049076080322
aatp8
Rp9
.ccollections
OrderedDict
p0
((lp1
(lp2
S'state'
p3
aI400
aa(lp4
S'distance'
p5
aF279.79004669189453
aa(lp6
S'timestamp'
p7
aF3.431022882461548
aatp8
Rp9
.ccollections
OrderedDict
p0
((lp1
(lp2
S'state'
p3
aI400
aa(lp4
S'distance'
p5
aF279.79004669189453
aa(lp6
S'timestamp'
p7
aF3.438854932785034
aatp8
Rp9
.ccollections
OrderedDict
p0
((lp1
(lp2
S'state'
p3
aI400
aa(lp4
S'distance'
p5
aF279.79004669189453
aa(lp6
S'timestamp'
p7
aF3.4390878677368164
aatp8
Rp9
.ccollections
OrderedDict
p0
((lp1
(lp2
S'state'
p3
aI400
aa(lp4
S'distance'
p5
aF279.79004669189453
aa(lp6
S'timestamp'
p7
aF3.448694944381714
aatp8
Rp9
.ccollections
OrderedDict
p0
((lp1
(lp2
S'state'
p3
aI400
aa(lp4
S'distance'
p5
aF279.79004669189453
aa(lp6
S'timestamp'
p7
aF3.4489798545837402
aatp8
Rp9
.ccollections
OrderedDict
p0
((lp1
(lp2
S'state'
p3
aI400
aa(lp4
S'distance'
p5
aF279.79004669189453
aa(lp6
S'timestamp'
p7
aF3.468639850616455
aatp8
Rp9
.ccollections
OrderedDict
p0
((lp1
(lp2
S'state'
p3
aI400
aa(lp4
S'distance'
p5
aF279.79004669189453
aa(lp6
S'timestamp'
p7
aF3.469895839691162
aatp8
Rp9
.ccollections
OrderedDict
p0
((lp1
(lp2
S'state'
p3
aI400
aa(lp4
S'distance'
p5
aF279.79004669189453
aa(lp6
S'timestamp'
p7
aF3.470089912414551
aatp8
Rp9
.ccollections
OrderedDict
p0
((lp1
(lp2
S'state'
p3
aI400
aa(lp4
S'distance'
p5
aF279.79004669189453
aa(lp6
S'timestamp'
p7
aF3.470278024673462
aatp8
Rp9
.ccollections
OrderedDict
p0
((lp1
(lp2
S'state'
p3
aI400
aa(lp4
S'distance'
p5
aF279.79004669189453
aa(lp6
S'timestamp'
p7
aF3.478550910949707
aatp8
Rp9
.ccollections
OrderedDict
p0
((lp1
(lp2
S'state'
p3
aI400
aa(lp4
S'distance'
p5
aF279.79004669189453
aa(lp6
S'timestamp'
p7
aF3.4801928997039795
aatp8
Rp9
.ccollections
OrderedDict
p0
((lp1
(lp2
S'state'
p3
aI400
aa(lp4
S'distance'
p5
aF279.79004669189453
aa(lp6
S'timestamp'
p7
aF3.4904839992523193
aatp8
Rp9
.ccollections
OrderedDict
p0
((lp1
(lp2
S'state'
p3
aI400
aa(lp4
S'distance'
p5
aF279.79004669189453
aa(lp6
S'timestamp'
p7
aF3.4906599521636963
aatp8
Rp9
.ccollections
OrderedDict
p0
((lp1
(lp2
S'state'
p3
aI400
aa(lp4
S'distance'
p5
aF279.79004669189453
aa(lp6
S'timestamp'
p7
aF3.5011909008026123
aatp8
Rp9
.ccollections
OrderedDict
p0
((lp1
(lp2
S'state'
p3
aI400
aa(lp4
S'distance'
p5
aF279.79004669189453
aa(lp6
S'timestamp'
p7
aF3.501904010772705
aatp8
Rp9
.ccollections
OrderedDict
p0
((lp1
(lp2
S'state'
p3
aI400
aa(lp4
S'distance'
p5
aF279.79004669189453
aa(lp6
S'timestamp'
p7
aF3.5086538791656494
aatp8
Rp9
.ccollections
OrderedDict
p0
((lp1
(lp2
S'state'
p3
aI400
aa(lp4
S'distance'
p5
aF279.79004669189453
aa(lp6
S'timestamp'
p7
aF3.5093159675598145
aatp8
Rp9
.ccollections
OrderedDict
p0
((lp1
(lp2
S'state'
p3
aI400
aa(lp4
S'distance'
p5
aF279.79004669189453
aa(lp6
S'timestamp'
p7
aF3.5186688899993896
aatp8
Rp9
.ccollections
OrderedDict
p0
((lp1
(lp2
S'state'
p3
aI400
aa(lp4
S'distance'
p5
aF279.79004669189453
aa(lp6
S'timestamp'
p7
aF3.5208399295806885
aatp8
Rp9
.ccollections
OrderedDict
p0
((lp1
(lp2
S'state'
p3
aI400
aa(lp4
S'distance'
p5
aF279.79004669189453
aa(lp6
S'timestamp'
p7
aF3.548650026321411
aatp8
Rp9
.ccollections
OrderedDict
p0
((lp1
(lp2
S'state'
p3
aI400
aa(lp4
S'distance'
p5
aF279.79004669189453
aa(lp6
S'timestamp'
p7
aF3.550320863723755
aatp8
Rp9
.ccollections
OrderedDict
p0
((lp1
(lp2
S'state'
p3
aI400
aa(lp4
S'distance'
p5
aF279.79004669189453
aa(lp6
S'timestamp'
p7
aF3.5509259700775146
aatp8
Rp9
.ccollections
OrderedDict
p0
((lp1
(lp2
S'state'
p3
aI400
aa(lp4
S'distance'
p5
aF279.79004669189453
aa(lp6
S'timestamp'
p7
aF3.551949977874756
aatp8
Rp9
.ccollections
OrderedDict
p0
((lp1
(lp2
S'state'
p3
aI400
aa(lp4
S'distance'
p5
aF279.79004669189453
aa(lp6
S'timestamp'
p7
aF3.55855393409729
aatp8
Rp9
.ccollections
OrderedDict
p0
((lp1
(lp2
S'state'
p3
aI400
aa(lp4
S'distance'
p5
aF279.79004669189453
aa(lp6
S'timestamp'
p7
aF3.558979034423828
aatp8
Rp9
.ccollections
OrderedDict
p0
((lp1
(lp2
S'state'
p3
aI400
aa(lp4
S'distance'
p5
aF279.79004669189453
aa(lp6
S'timestamp'
p7
aF3.5595719814300537
aatp8
Rp9
.ccollections
OrderedDict
p0
((lp1
(lp2
S'state'
p3
aI400
aa(lp4
S'distance'
p5
aF279.79004669189453
aa(lp6
S'timestamp'
p7
aF3.5604770183563232
aatp8
Rp9
.ccollections
OrderedDict
p0
((lp1
(lp2
S'state'
p3
aI400
aa(lp4
S'distance'
p5
aF279.79004669189453
aa(lp6
S'timestamp'
p7
aF3.5694899559020996
aatp8
Rp9
.ccollections
OrderedDict
p0
((lp1
(lp2
S'state'
p3
aI400
aa(lp4
S'distance'
p5
aF279.79004669189453
aa(lp6
S'timestamp'
p7
aF3.5712778568267822
aatp8
Rp9
.ccollections
OrderedDict
p0
((lp1
(lp2
S'state'
p3
aI400
aa(lp4
S'distance'
p5
aF279.79004669189453
aa(lp6
S'timestamp'
p7
aF3.5786490440368652
aatp8
Rp9
.ccollections
OrderedDict
p0
((lp1
(lp2
S'state'
p3
aI400
aa(lp4
S'distance'
p5
aF279.79004669189453
aa(lp6
S'timestamp'
p7
aF3.579288959503174
aatp8
Rp9
.ccollections
OrderedDict
p0
((lp1
(lp2
S'state'
p3
aI400
aa(lp4
S'distance'
p5
aF279.79004669189453
aa(lp6
S'timestamp'
p7
aF3.589794874191284
aatp8
Rp9
.ccollections
OrderedDict
p0
((lp1
(lp2
S'state'
p3
aI400
aa(lp4
S'distance'
p5
aF279.79004669189453
aa(lp6
S'timestamp'
p7
aF3.5899479389190674
aatp8
Rp9
.ccollections
OrderedDict
p0
((lp1
(lp2
S'state'
p3
aI400
aa(lp4
S'distance'
p5
aF279.79004669189453
aa(lp6
S'timestamp'
p7
aF3.5995609760284424
aatp8
Rp9
.ccollections
OrderedDict
p0
((lp1
(lp2
S'state'
p3
aI400
aa(lp4
S'distance'
p5
aF279.79004669189453
aa(lp6
S'timestamp'
p7
aF3.6000208854675293
aatp8
Rp9
.ccollections
OrderedDict
p0
((lp1
(lp2
S'state'
p3
aI400
aa(lp4
S'distance'
p5
aF279.79004669189453
aa(lp6
S'timestamp'
p7
aF3.609144926071167
aatp8
Rp9
.ccollections
OrderedDict
p0
((lp1
(lp2
S'state'
p3
aI400
aa(lp4
S'distance'
p5
aF279.79004669189453
aa(lp6
S'timestamp'
p7
aF3.60932993888855
aatp8
Rp9
.ccollections
OrderedDict
p0
((lp1
(lp2
S'state'
p3
aI400
aa(lp4
S'distance'
p5
aF279.79004669189453
aa(lp6
S'timestamp'
p7
aF3.618849039077759
aatp8
Rp9
.ccollections
OrderedDict
p0
((lp1
(lp2
S'state'
p3
aI400
aa(lp4
S'distance'
p5
aF279.79004669189453
aa(lp6
S'timestamp'
p7
aF3.6202499866485596
aatp8
Rp9
.ccollections
OrderedDict
p0
((lp1
(lp2
S'state'
p3
aI400
aa(lp4
S'distance'
p5
aF279.79004669189453
aa(lp6
S'timestamp'
p7
aF3.6306488513946533
aatp8
Rp9
.ccollections
OrderedDict
p0
((lp1
(lp2
S'state'
p3
aI400
aa(lp4
S'distance'
p5
aF279.79004669189453
aa(lp6
S'timestamp'
p7
aF3.6310019493103027
aatp8
Rp9
.ccollections
OrderedDict
p0
((lp1
(lp2
S'state'
p3
aI400
aa(lp4
S'distance'
p5
aF279.79004669189453
aa(lp6
S'timestamp'
p7
aF3.639922857284546
aatp8
Rp9
.ccollections
OrderedDict
p0
((lp1
(lp2
S'state'
p3
aI400
aa(lp4
S'distance'
p5
aF279.79004669189453
aa(lp6
S'timestamp'
p7
aF3.6400229930877686
aatp8
Rp9
.ccollections
OrderedDict
p0
((lp1
(lp2
S'state'
p3
aI400
aa(lp4
S'distance'
p5
aF279.79004669189453
aa(lp6
S'timestamp'
p7
aF3.6595890522003174
aatp8
Rp9
.ccollections
OrderedDict
p0
((lp1
(lp2
S'state'
p3
aI400
aa(lp4
S'distance'
p5
aF279.79004669189453
aa(lp6
S'timestamp'
p7
aF3.65976881980896
aatp8
Rp9
.ccollections
OrderedDict
p0
((lp1
(lp2
S'state'
p3
aI400
aa(lp4
S'distance'
p5
aF279.79004669189453
aa(lp6
S'timestamp'
p7
aF3.661214828491211
aatp8
Rp9
.ccollections
OrderedDict
p0
((lp1
(lp2
S'state'
p3
aI400
aa(lp4
S'distance'
p5
aF279.79004669189453
aa(lp6
S'timestamp'
p7
aF3.662083864212036
aatp8
Rp9
.ccollections
OrderedDict
p0
((lp1
(lp2
S'state'
p3
aI400
aa(lp4
S'distance'
p5
aF279.79004669189453
aa(lp6
S'timestamp'
p7
aF3.6686289310455322
aatp8
Rp9
.ccollections
OrderedDict
p0
((lp1
(lp2
S'state'
p3
aI400
aa(lp4
S'distance'
p5
aF279.79004669189453
aa(lp6
S'timestamp'
p7
aF3.6689610481262207
aatp8
Rp9
.ccollections
OrderedDict
p0
((lp1
(lp2
S'state'
p3
aI400
aa(lp4
S'distance'
p5
aF279.79004669189453
aa(lp6
S'timestamp'
p7
aF3.6785449981689453
aatp8
Rp9
.ccollections
OrderedDict
p0
((lp1
(lp2
S'state'
p3
aI0
aa(lp4
S'distance'
p5
aF279.79004669189453
aa(lp6
S'timestamp'
p7
aF3.6789350509643555
aatp8
Rp9
.ccollections
OrderedDict
p0
((lp1
(lp2
S'state'
p3
aI0
aa(lp4
S'distance'
p5
aF168.13773345947266
aa(lp6
S'timestamp'
p7
aF4.260229825973511
aatp8
Rp9
.ccollections
OrderedDict
p0
((lp1
(lp2
S'state'
p3
aI0
aa(lp4
S'distance'
p5
aF168.13773345947266
aa(lp6
S'timestamp'
p7
aF4.261407852172852
aatp8
Rp9
.ccollections
OrderedDict
p0
((lp1
(lp2
S'state'
p3
aI0
aa(lp4
S'distance'
p5
aF168.13773345947266
aa(lp6
S'timestamp'
p7
aF4.269078969955444
aatp8
Rp9
.ccollections
OrderedDict
p0
((lp1
(lp2
S'state'
p3
aI0
aa(lp4
S'distance'
p5
aF168.13773345947266
aa(lp6
S'timestamp'
p7
aF4.2699668407440186
aatp8
Rp9
.ccollections
OrderedDict
p0
((lp1
(lp2
S'state'
p3
aI0
aa(lp4
S'distance'
p5
aF168.13773345947266
aa(lp6
S'timestamp'
p7
aF4.278563976287842
aatp8
Rp9
.ccollections
OrderedDict
p0
((lp1
(lp2
S'state'
p3
aI0
aa(lp4
S'distance'
p5
aF168.13773345947266
aa(lp6
S'timestamp'
p7
aF4.279268980026245
aatp8
Rp9
.ccollections
OrderedDict
p0
((lp1
(lp2
S'state'
p3
aI0
aa(lp4
S'distance'
p5
aF168.13773345947266
aa(lp6
S'timestamp'
p7
aF4.28857684135437
aatp8
Rp9
.ccollections
OrderedDict
p0
((lp1
(lp2
S'state'
p3
aI0
aa(lp4
S'distance'
p5
aF168.13773345947266
aa(lp6
S'timestamp'
p7
aF4.289331912994385
aatp8
Rp9
.ccollections
OrderedDict
p0
((lp1
(lp2
S'state'
p3
aI0
aa(lp4
S'distance'
p5
aF168.13773345947266
aa(lp6
S'timestamp'
p7
aF4.298588991165161
aatp8
Rp9
.ccollections
OrderedDict
p0
((lp1
(lp2
S'state'
p3
aI0
aa(lp4
S'distance'
p5
aF168.13773345947266
aa(lp6
S'timestamp'
p7
aF4.299201965332031
aatp8
Rp9
.ccollections
OrderedDict
p0
((lp1
(lp2
S'state'
p3
aI0
aa(lp4
S'distance'
p5
aF168.13773345947266
aa(lp6
S'timestamp'
p7
aF4.3085949420928955
aatp8
Rp9
.ccollections
OrderedDict
p0
((lp1
(lp2
S'state'
p3
aI0
aa(lp4
S'distance'
p5
aF168.13773345947266
aa(lp6
S'timestamp'
p7
aF4.3198089599609375
aatp8
Rp9
.ccollections
OrderedDict
p0
((lp1
(lp2
S'state'
p3
aI0
aa(lp4
S'distance'
p5
aF168.13773345947266
aa(lp6
S'timestamp'
p7
aF4.320821046829224
aatp8
Rp9
.ccollections
OrderedDict
p0
((lp1
(lp2
S'state'
p3
aI0
aa(lp4
S'distance'
p5
aF168.13773345947266
aa(lp6
S'timestamp'
p7
aF4.3234169483184814
aatp8
Rp9
.ccollections
OrderedDict
p0
((lp1
(lp2
S'state'
p3
aI0
aa(lp4
S'distance'
p5
aF168.13773345947266
aa(lp6
S'timestamp'
p7
aF4.3304219245910645
aatp8
Rp9
.ccollections
OrderedDict
p0
((lp1
(lp2
S'state'
p3
aI0
aa(lp4
S'distance'
p5
aF168.13773345947266
aa(lp6
S'timestamp'
p7
aF4.3307130336761475
aatp8
Rp9
.ccollections
OrderedDict
p0
((lp1
(lp2
S'state'
p3
aI0
aa(lp4
S'distance'
p5
aF168.13773345947266
aa(lp6
S'timestamp'
p7
aF4.3386640548706055
aatp8
Rp9
.ccollections
OrderedDict
p0
((lp1
(lp2
S'state'
p3
aI0
aa(lp4
S'distance'
p5
aF168.13773345947266
aa(lp6
S'timestamp'
p7
aF4.340185880661011
aatp8
Rp9
.ccollections
OrderedDict
p0
((lp1
(lp2
S'state'
p3
aI0
aa(lp4
S'distance'
p5
aF168.13773345947266
aa(lp6
S'timestamp'
p7
aF4.369040012359619
aatp8
Rp9
.ccollections
OrderedDict
p0
((lp1
(lp2
S'state'
p3
aI0
aa(lp4
S'distance'
p5
aF168.13773345947266
aa(lp6
S'timestamp'
p7
aF4.369422912597656
aatp8
Rp9
.ccollections
OrderedDict
p0
((lp1
(lp2
S'state'
p3
aI0
aa(lp4
S'distance'
p5
aF168.13773345947266
aa(lp6
S'timestamp'
p7
aF4.369511842727661
aatp8
Rp9
.ccollections
OrderedDict
p0
((lp1
(lp2
S'state'
p3
aI0
aa(lp4
S'distance'
p5
aF168.13773345947266
aa(lp6
S'timestamp'
p7
aF4.369966983795166
aatp8
Rp9
.ccollections
OrderedDict
p0
((lp1
(lp2
S'state'
p3
aI0
aa(lp4
S'distance'
p5
aF168.13773345947266
aa(lp6
S'timestamp'
p7
aF4.378636837005615
aatp8
Rp9
.ccollections
OrderedDict
p0
((lp1
(lp2
S'state'
p3
aI0
aa(lp4
S'distance'
p5
aF168.13773345947266
aa(lp6
S'timestamp'
p7
aF4.3791680335998535
aatp8
Rp9
.ccollections
OrderedDict
p0
((lp1
(lp2
S'state'
p3
aI0
aa(lp4
S'distance'
p5
aF168.13773345947266
aa(lp6
S'timestamp'
p7
aF4.380720853805542
aatp8
Rp9
.ccollections
OrderedDict
p0
((lp1
(lp2
S'state'
p3
aI0
aa(lp4
S'distance'
p5
aF168.13773345947266
aa(lp6
S'timestamp'
p7
aF4.381371974945068
aatp8
Rp9
.ccollections
OrderedDict
p0
((lp1
(lp2
S'state'
p3
aI0
aa(lp4
S'distance'
p5
aF168.13773345947266
aa(lp6
S'timestamp'
p7
aF4.389843940734863
aatp8
Rp9
.ccollections
OrderedDict
p0
((lp1
(lp2
S'state'
p3
aI0
aa(lp4
S'distance'
p5
aF168.13773345947266
aa(lp6
S'timestamp'
p7
aF4.390801906585693
aatp8
Rp9
.ccollections
OrderedDict
p0
((lp1
(lp2
S'state'
p3
aI0
aa(lp4
S'distance'
p5
aF168.13773345947266
aa(lp6
S'timestamp'
p7
aF4.398659944534302
aatp8
Rp9
.ccollections
OrderedDict
p0
((lp1
(lp2
S'state'
p3
aI0
aa(lp4
S'distance'
p5
aF168.13773345947266
aa(lp6
S'timestamp'
p7
aF4.399186849594116
aatp8
Rp9
.ccollections
OrderedDict
p0
((lp1
(lp2
S'state'
p3
aI0
aa(lp4
S'distance'
p5
aF168.13773345947266
aa(lp6
S'timestamp'
p7
aF4.408684015274048
aatp8
Rp9
.ccollections
OrderedDict
p0
((lp1
(lp2
S'state'
p3
aI0
aa(lp4
S'distance'
p5
aF168.13773345947266
aa(lp6
S'timestamp'
p7
aF4.409946918487549
aatp8
Rp9
.ccollections
OrderedDict
p0
((lp1
(lp2
S'state'
p3
aI0
aa(lp4
S'distance'
p5
aF168.13773345947266
aa(lp6
S'timestamp'
p7
aF4.4186789989471436
aatp8
Rp9
.ccollections
OrderedDict
p0
((lp1
(lp2
S'state'
p3
aI0
aa(lp4
S'distance'
p5
aF168.13773345947266
aa(lp6
S'timestamp'
p7
aF4.419126033782959
aatp8
Rp9
.ccollections
OrderedDict
p0
((lp1
(lp2
S'state'
p3
aI0
aa(lp4
S'distance'
p5
aF168.13773345947266
aa(lp6
S'timestamp'
p7
aF4.42847204208374
aatp8
Rp9
.ccollections
OrderedDict
p0
((lp1
(lp2
S'state'
p3
aI0
aa(lp4
S'distance'
p5
aF168.13773345947266
aa(lp6
S'timestamp'
p7
aF4.429183006286621
aatp8
Rp9
.ccollections
OrderedDict
p0
((lp1
(lp2
S'state'
p3
aI0
aa(lp4
S'distance'
p5
aF168.13773345947266
aa(lp6
S'timestamp'
p7
aF4.438652038574219
aatp8
Rp9
.ccollections
OrderedDict
p0
((lp1
(lp2
S'state'
p3
aI0
aa(lp4
S'distance'
p5
aF168.13773345947266
aa(lp6
S'timestamp'
p7
aF4.4395458698272705
aatp8
Rp9
.ccollections
OrderedDict
p0
((lp1
(lp2
S'state'
p3
aI0
aa(lp4
S'distance'
p5
aF168.13773345947266
aa(lp6
S'timestamp'
p7
aF4.448664903640747
aatp8
Rp9
.ccollections
OrderedDict
p0
((lp1
(lp2
S'state'
p3
aI0
aa(lp4
S'distance'
p5
aF168.13773345947266
aa(lp6
S'timestamp'
p7
aF4.449647903442383
aatp8
Rp9
.ccollections
OrderedDict
p0
((lp1
(lp2
S'state'
p3
aI0
aa(lp4
S'distance'
p5
aF168.13773345947266
aa(lp6
S'timestamp'
p7
aF4.45847487449646
aatp8
Rp9
.ccollections
OrderedDict
p0
((lp1
(lp2
S'state'
p3
aI0
aa(lp4
S'distance'
p5
aF168.13773345947266
aa(lp6
S'timestamp'
p7
aF4.459166049957275
aatp8
Rp9
.ccollections
OrderedDict
p0
((lp1
(lp2
S'state'
p3
aI0
aa(lp4
S'distance'
p5
aF168.13773345947266
aa(lp6
S'timestamp'
p7
aF4.46858286857605
aatp8
Rp9
.ccollections
OrderedDict
p0
((lp1
(lp2
S'state'
p3
aI0
aa(lp4
S'distance'
p5
aF168.13773345947266
aa(lp6
S'timestamp'
p7
aF4.469280004501343
aatp8
Rp9
.ccollections
OrderedDict
p0
((lp1
(lp2
S'state'
p3
aI0
aa(lp4
S'distance'
p5
aF168.13773345947266
aa(lp6
S'timestamp'
p7
aF4.4886369705200195
aatp8
Rp9
.ccollections
OrderedDict
p0
((lp1
(lp2
S'state'
p3
aI0
aa(lp4
S'distance'
p5
aF168.13773345947266
aa(lp6
S'timestamp'
p7
aF4.489372968673706
aatp8
Rp9
.ccollections
OrderedDict
p0
((lp1
(lp2
S'state'
p3
aI0
aa(lp4
S'distance'
p5
aF168.13773345947266
aa(lp6
S'timestamp'
p7
aF4.48983097076416
aatp8
Rp9
.ccollections
OrderedDict
p0
((lp1
(lp2
S'state'
p3
aI0
aa(lp4
S'distance'
p5
aF168.13773345947266
aa(lp6
S'timestamp'
p7
aF4.491112947463989
aatp8
Rp9
.ccollections
OrderedDict
p0
((lp1
(lp2
S'state'
p3
aI0
aa(lp4
S'distance'
p5
aF168.13773345947266
aa(lp6
S'timestamp'
p7
aF4.498678922653198
aatp8
Rp9
.ccollections
OrderedDict
p0
((lp1
(lp2
S'state'
p3
aI0
aa(lp4
S'distance'
p5
aF168.13773345947266
aa(lp6
S'timestamp'
p7
aF4.499305963516235
aatp8
Rp9
.ccollections
OrderedDict
p0
((lp1
(lp2
S'state'
p3
aI0
aa(lp4
S'distance'
p5
aF168.13773345947266
aa(lp6
S'timestamp'
p7
aF4.5085248947143555
aatp8
Rp9
.ccollections
OrderedDict
p0
((lp1
(lp2
S'state'
p3
aI0
aa(lp4
S'distance'
p5
aF168.13773345947266
aa(lp6
S'timestamp'
p7
aF4.509109973907471
aatp8
Rp9
.ccollections
OrderedDict
p0
((lp1
(lp2
S'state'
p3
aI0
aa(lp4
S'distance'
p5
aF168.13773345947266
aa(lp6
S'timestamp'
p7
aF4.518484830856323
aatp8
Rp9
.ccollections
OrderedDict
p0
((lp1
(lp2
S'state'
p3
aI0
aa(lp4
S'distance'
p5
aF168.13773345947266
aa(lp6
S'timestamp'
p7
aF4.520395040512085
aatp8
Rp9
.ccollections
OrderedDict
p0
((lp1
(lp2
S'state'
p3
aI0
aa(lp4
S'distance'
p5
aF168.13773345947266
aa(lp6
S'timestamp'
p7
aF4.539122819900513
aatp8
Rp9
.ccollections
OrderedDict
p0
((lp1
(lp2
S'state'
p3
aI0
aa(lp4
S'distance'
p5
aF168.13773345947266
aa(lp6
S'timestamp'
p7
aF4.539285898208618
aatp8
Rp9
.ccollections
OrderedDict
p0
((lp1
(lp2
S'state'
p3
aI0
aa(lp4
S'distance'
p5
aF168.13773345947266
aa(lp6
S'timestamp'
p7
aF4.540323972702026
aatp8
Rp9
.ccollections
OrderedDict
p0
((lp1
(lp2
S'state'
p3
aI0
aa(lp4
S'distance'
p5
aF168.13773345947266
aa(lp6
S'timestamp'
p7
aF4.541452884674072
aatp8
Rp9
.ccollections
OrderedDict
p0
((lp1
(lp2
S'state'
p3
aI0
aa(lp4
S'distance'
p5
aF168.13773345947266
aa(lp6
S'timestamp'
p7
aF4.548475980758667
aatp8
Rp9
.ccollections
OrderedDict
p0
((lp1
(lp2
S'state'
p3
aI0
aa(lp4
S'distance'
p5
aF168.13773345947266
aa(lp6
S'timestamp'
p7
aF4.549219846725464
aatp8
Rp9
.ccollections
OrderedDict
p0
((lp1
(lp2
S'state'
p3
aI0
aa(lp4
S'distance'
p5
aF168.13773345947266
aa(lp6
S'timestamp'
p7
aF4.558653831481934
aatp8
Rp9
.ccollections
OrderedDict
p0
((lp1
(lp2
S'state'
p3
aI0
aa(lp4
S'distance'
p5
aF168.13773345947266
aa(lp6
S'timestamp'
p7
aF4.559068918228149
aatp8
Rp9
.ccollections
OrderedDict
p0
((lp1
(lp2
S'state'
p3
aI0
aa(lp4
S'distance'
p5
aF168.13773345947266
aa(lp6
S'timestamp'
p7
aF4.578568935394287
aatp8
Rp9
.ccollections
OrderedDict
p0
((lp1
(lp2
S'state'
p3
aI0
aa(lp4
S'distance'
p5
aF168.13773345947266
aa(lp6
S'timestamp'
p7
aF4.58110785484314
aatp8
Rp9
.ccollections
OrderedDict
p0
((lp1
(lp2
S'state'
p3
aI0
aa(lp4
S'distance'
p5
aF168.13773345947266
aa(lp6
S'timestamp'
p7
aF4.581658840179443
aatp8
Rp9
.ccollections
OrderedDict
p0
((lp1
(lp2
S'state'
p3
aI0
aa(lp4
S'distance'
p5
aF168.13773345947266
aa(lp6
S'timestamp'
p7
aF4.58215594291687
aatp8
Rp9
.ccollections
OrderedDict
p0
((lp1
(lp2
S'state'
p3
aI0
aa(lp4
S'distance'
p5
aF168.13773345947266
aa(lp6
S'timestamp'
p7
aF4.589618921279907
aatp8
Rp9
.ccollections
OrderedDict
p0
((lp1
(lp2
S'state'
p3
aI0
aa(lp4
S'distance'
p5
aF168.13773345947266
aa(lp6
S'timestamp'
p7
aF4.589737892150879
aatp8
Rp9
.ccollections
OrderedDict
p0
((lp1
(lp2
S'state'
p3
aI0
aa(lp4
S'distance'
p5
aF168.13773345947266
aa(lp6
S'timestamp'
p7
aF4.598840951919556
aatp8
Rp9
.ccollections
OrderedDict
p0
((lp1
(lp2
S'state'
p3
aI0
aa(lp4
S'distance'
p5
aF168.13773345947266
aa(lp6
S'timestamp'
p7
aF4.600148916244507
aatp8
Rp9
.ccollections
OrderedDict
p0
((lp1
(lp2
S'state'
p3
aI0
aa(lp4
S'distance'
p5
aF168.13773345947266
aa(lp6
S'timestamp'
p7
aF4.609213829040527
aatp8
Rp9
.ccollections
OrderedDict
p0
((lp1
(lp2
S'state'
p3
aI0
aa(lp4
S'distance'
p5
aF168.13773345947266
aa(lp6
S'timestamp'
p7
aF4.610467910766602
aatp8
Rp9
.ccollections
OrderedDict
p0
((lp1
(lp2
S'state'
p3
aI0
aa(lp4
S'distance'
p5
aF168.13773345947266
aa(lp6
S'timestamp'
p7
aF4.618976831436157
aatp8
Rp9
.ccollections
OrderedDict
p0
((lp1
(lp2
S'state'
p3
aI0
aa(lp4
S'distance'
p5
aF168.13773345947266
aa(lp6
S'timestamp'
p7
aF4.621000051498413
aatp8
Rp9
.ccollections
OrderedDict
p0
((lp1
(lp2
S'state'
p3
aI0
aa(lp4
S'distance'
p5
aF168.13773345947266
aa(lp6
S'timestamp'
p7
aF4.628989934921265
aatp8
Rp9
.ccollections
OrderedDict
p0
((lp1
(lp2
S'state'
p3
aI0
aa(lp4
S'distance'
p5
aF168.13773345947266
aa(lp6
S'timestamp'
p7
aF4.629170894622803
aatp8
Rp9
.ccollections
OrderedDict
p0
((lp1
(lp2
S'state'
p3
aI0
aa(lp4
S'distance'
p5
aF168.13773345947266
aa(lp6
S'timestamp'
p7
aF4.639127969741821
aatp8
Rp9
.ccollections
OrderedDict
p0
((lp1
(lp2
S'state'
p3
aI0
aa(lp4
S'distance'
p5
aF168.13773345947266
aa(lp6
S'timestamp'
p7
aF4.639219045639038
aatp8
Rp9
.ccollections
OrderedDict
p0
((lp1
(lp2
S'state'
p3
aI0
aa(lp4
S'distance'
p5
aF168.13773345947266
aa(lp6
S'timestamp'
p7
aF4.649744987487793
aatp8
Rp9
.ccollections
OrderedDict
p0
((lp1
(lp2
S'state'
p3
aI0
aa(lp4
S'distance'
p5
aF168.13773345947266
aa(lp6
S'timestamp'
p7
aF4.649906873703003
aatp8
Rp9
.ccollections
OrderedDict
p0
((lp1
(lp2
S'state'
p3
aI0
aa(lp4
S'distance'
p5
aF168.13773345947266
aa(lp6
S'timestamp'
p7
aF4.669683933258057
aatp8
Rp9
.ccollections
OrderedDict
p0
((lp1
(lp2
S'state'
p3
aI0
aa(lp4
S'distance'
p5
aF168.13773345947266
aa(lp6
S'timestamp'
p7
aF4.669859886169434
aatp8
Rp9
.ccollections
OrderedDict
p0
((lp1
(lp2
S'state'
p3
aI0
aa(lp4
S'distance'
p5
aF168.13773345947266
aa(lp6
S'timestamp'
p7
aF4.670480966567993
aatp8
Rp9
.ccollections
OrderedDict
p0
((lp1
(lp2
S'state'
p3
aI0
aa(lp4
S'distance'
p5
aF168.13773345947266
aa(lp6
S'timestamp'
p7
aF4.670558929443359
aatp8
Rp9
.ccollections
OrderedDict
p0
((lp1
(lp2
S'state'
p3
aI0
aa(lp4
S'distance'
p5
aF168.13773345947266
aa(lp6
S'timestamp'
p7
aF4.6795618534088135
aatp8
Rp9
.ccollections
OrderedDict
p0
((lp1
(lp2
S'state'
p3
aI0
aa(lp4
S'distance'
p5
aF168.13773345947266
aa(lp6
S'timestamp'
p7
aF4.680336952209473
aatp8
Rp9
.ccollections
OrderedDict
p0
((lp1
(lp2
S'state'
p3
aI0
aa(lp4
S'distance'
p5
aF168.13773345947266
aa(lp6
S'timestamp'
p7
aF4.688346862792969
aatp8
Rp9
.ccollections
OrderedDict
p0
((lp1
(lp2
S'state'
p3
aI400
aa(lp4
S'distance'
p5
aF168.13773345947266
aa(lp6
S'timestamp'
p7
aF4.689551830291748
aatp8
Rp9
.ccollections
OrderedDict
p0
((lp1
(lp2
S'state'
p3
aI400
aa(lp4
S'distance'
p5
aF168.13773345947266
aa(lp6
S'timestamp'
p7
aF4.699039936065674
aatp8
Rp9
.ccollections
OrderedDict
p0
((lp1
(lp2
S'state'
p3
aI400
aa(lp4
S'distance'
p5
aF168.13773345947266
aa(lp6
S'timestamp'
p7
aF4.699985980987549
aatp8
Rp9
.ccollections
OrderedDict
p0
((lp1
(lp2
S'state'
p3
aI400
aa(lp4
S'distance'
p5
aF168.13773345947266
aa(lp6
S'timestamp'
p7
aF4.710310935974121
aatp8
Rp9
.ccollections
OrderedDict
p0
((lp1
(lp2
S'state'
p3
aI400
aa(lp4
S'distance'
p5
aF168.13773345947266
aa(lp6
S'timestamp'
p7
aF4.710486888885498
aatp8
Rp9
.ccollections
OrderedDict
p0
((lp1
(lp2
S'state'
p3
aI400
aa(lp4
S'distance'
p5
aF168.13773345947266
aa(lp6
S'timestamp'
p7
aF4.719122886657715
aatp8
Rp9
.ccollections
OrderedDict
p0
((lp1
(lp2
S'state'
p3
aI400
aa(lp4
S'distance'
p5
aF168.13773345947266
aa(lp6
S'timestamp'
p7
aF4.719219923019409
aatp8
Rp9
.ccollections
OrderedDict
p0
((lp1
(lp2
S'state'
p3
aI400
aa(lp4
S'distance'
p5
aF168.13773345947266
aa(lp6
S'timestamp'
p7
aF4.729817867279053
aatp8
Rp9
.ccollections
OrderedDict
p0
((lp1
(lp2
S'state'
p3
aI400
aa(lp4
S'distance'
p5
aF168.13773345947266
aa(lp6
S'timestamp'
p7
aF4.730464935302734
aatp8
Rp9
.ccollections
OrderedDict
p0
((lp1
(lp2
S'state'
p3
aI400
aa(lp4
S'distance'
p5
aF168.13773345947266
aa(lp6
S'timestamp'
p7
aF4.739677906036377
aatp8
Rp9
.ccollections
OrderedDict
p0
((lp1
(lp2
S'state'
p3
aI400
aa(lp4
S'distance'
p5
aF168.13773345947266
aa(lp6
S'timestamp'
p7
aF4.739804029464722
aatp8
Rp9
.ccollections
OrderedDict
p0
((lp1
(lp2
S'state'
p3
aI400
aa(lp4
S'distance'
p5
aF168.13773345947266
aa(lp6
S'timestamp'
p7
aF4.751327037811279
aatp8
Rp9
.ccollections
OrderedDict
p0
((lp1
(lp2
S'state'
p3
aI400
aa(lp4
S'distance'
p5
aF168.13773345947266
aa(lp6
S'timestamp'
p7
aF4.751507043838501
aatp8
Rp9
.ccollections
OrderedDict
p0
((lp1
(lp2
S'state'
p3
aI400
aa(lp4
S'distance'
p5
aF168.13773345947266
aa(lp6
S'timestamp'
p7
aF4.779185056686401
aatp8
Rp9
.ccollections
OrderedDict
p0
((lp1
(lp2
S'state'
p3
aI400
aa(lp4
S'distance'
p5
aF168.13773345947266
aa(lp6
S'timestamp'
p7
aF4.780998945236206
aatp8
Rp9
.ccollections
OrderedDict
p0
((lp1
(lp2
S'state'
p3
aI400
aa(lp4
S'distance'
p5
aF168.13773345947266
aa(lp6
S'timestamp'
p7
aF4.7815399169921875
aatp8
Rp9
.ccollections
OrderedDict
p0
((lp1
(lp2
S'state'
p3
aI400
aa(lp4
S'distance'
p5
aF168.13773345947266
aa(lp6
S'timestamp'
p7
aF4.78164005279541
aatp8
Rp9
.ccollections
OrderedDict
p0
((lp1
(lp2
S'state'
p3
aI400
aa(lp4
S'distance'
p5
aF168.13773345947266
aa(lp6
S'timestamp'
p7
aF4.788666009902954
aatp8
Rp9
.ccollections
OrderedDict
p0
((lp1
(lp2
S'state'
p3
aI400
aa(lp4
S'distance'
p5
aF168.13773345947266
aa(lp6
S'timestamp'
p7
aF4.789022922515869
aatp8
Rp9
.ccollections
OrderedDict
p0
((lp1
(lp2
S'state'
p3
aI400
aa(lp4
S'distance'
p5
aF168.13773345947266
aa(lp6
S'timestamp'
p7
aF4.790689945220947
aatp8
Rp9
.ccollections
OrderedDict
p0
((lp1
(lp2
S'state'
p3
aI400
aa(lp4
S'distance'
p5
aF168.13773345947266
aa(lp6
S'timestamp'
p7
aF4.791282892227173
aatp8
Rp9
.ccollections
OrderedDict
p0
((lp1
(lp2
S'state'
p3
aI400
aa(lp4
S'distance'
p5
aF168.13773345947266
aa(lp6
S'timestamp'
p7
aF4.798640012741089
aatp8
Rp9
.ccollections
OrderedDict
p0
((lp1
(lp2
S'state'
p3
aI400
aa(lp4
S'distance'
p5
aF168.13773345947266
aa(lp6
S'timestamp'
p7
aF4.799043893814087
aatp8
Rp9
.ccollections
OrderedDict
p0
((lp1
(lp2
S'state'
p3
aI400
aa(lp4
S'distance'
p5
aF168.13773345947266
aa(lp6
S'timestamp'
p7
aF4.808552980422974
aatp8
Rp9
.ccollections
OrderedDict
p0
((lp1
(lp2
S'state'
p3
aI400
aa(lp4
S'distance'
p5
aF168.13773345947266
aa(lp6
S'timestamp'
p7
aF4.809394836425781
aatp8
Rp9
.ccollections
OrderedDict
p0
((lp1
(lp2
S'state'
p3
aI400
aa(lp4
S'distance'
p5
aF168.13773345947266
aa(lp6
S'timestamp'
p7
aF4.820420026779175
aatp8
Rp9
.ccollections
OrderedDict
p0
((lp1
(lp2
S'state'
p3
aI400
aa(lp4
S'distance'
p5
aF168.13773345947266
aa(lp6
S'timestamp'
p7
aF4.820655822753906
aatp8
Rp9
.ccollections
OrderedDict
p0
((lp1
(lp2
S'state'
p3
aI400
aa(lp4
S'distance'
p5
aF168.13773345947266
aa(lp6
S'timestamp'
p7
aF4.8295578956604
aatp8
Rp9
.ccollections
OrderedDict
p0
((lp1
(lp2
S'state'
p3
aI400
aa(lp4
S'distance'
p5
aF168.13773345947266
aa(lp6
S'timestamp'
p7
aF4.8301098346710205
aatp8
Rp9
.ccollections
OrderedDict
p0
((lp1
(lp2
S'state'
p3
aI400
aa(lp4
S'distance'
p5
aF168.13773345947266
aa(lp6
S'timestamp'
p7
aF4.838624954223633
aatp8
Rp9
.ccollections
OrderedDict
p0
((lp1
(lp2
S'state'
p3
aI400
aa(lp4
S'distance'
p5
aF168.13773345947266
aa(lp6
S'timestamp'
p7
aF4.840520858764648
aatp8
Rp9
.ccollections
OrderedDict
p0
((lp1
(lp2
S'state'
p3
aI400
aa(lp4
S'distance'
p5
aF168.13773345947266
aa(lp6
S'timestamp'
p7
aF4.85847282409668
aatp8
Rp9
.ccollections
OrderedDict
p0
((lp1
(lp2
S'state'
p3
aI400
aa(lp4
S'distance'
p5
aF168.13773345947266
aa(lp6
S'timestamp'
p7
aF4.858973979949951
aatp8
Rp9
.ccollections
OrderedDict
p0
((lp1
(lp2
S'state'
p3
aI400
aa(lp4
S'distance'
p5
aF168.13773345947266
aa(lp6
S'timestamp'
p7
aF4.859876871109009
aatp8
Rp9
.ccollections
OrderedDict
p0
((lp1
(lp2
S'state'
p3
aI400
aa(lp4
S'distance'
p5
aF168.13773345947266
aa(lp6
S'timestamp'
p7
aF4.860236883163452
aatp8
Rp9
.ccollections
OrderedDict
p0
((lp1
(lp2
S'state'
p3
aI400
aa(lp4
S'distance'
p5
aF168.13773345947266
aa(lp6
S'timestamp'
p7
aF4.868582010269165
aatp8
Rp9
.ccollections
OrderedDict
p0
((lp1
(lp2
S'state'
p3
aI400
aa(lp4
S'distance'
p5
aF168.13773345947266
aa(lp6
S'timestamp'
p7
aF4.86887788772583
aatp8
Rp9
.ccollections
OrderedDict
p0
((lp1
(lp2
S'state'
p3
aI400
aa(lp4
S'distance'
p5
aF168.13773345947266
aa(lp6
S'timestamp'
p7
aF4.878600835800171
aatp8
Rp9
.ccollections
OrderedDict
p0
((lp1
(lp2
S'state'
p3
aI400
aa(lp4
S'distance'
p5
aF168.13773345947266
aa(lp6
S'timestamp'
p7
aF4.879129886627197
aatp8
Rp9
.ccollections
OrderedDict
p0
((lp1
(lp2
S'state'
p3
aI400
aa(lp4
S'distance'
p5
aF168.13773345947266
aa(lp6
S'timestamp'
p7
aF4.8885228633880615
aatp8
Rp9
.ccollections
OrderedDict
p0
((lp1
(lp2
S'state'
p3
aI400
aa(lp4
S'distance'
p5
aF168.13773345947266
aa(lp6
S'timestamp'
p7
aF4.889336824417114
aatp8
Rp9
.ccollections
OrderedDict
p0
((lp1
(lp2
S'state'
p3
aI400
aa(lp4
S'distance'
p5
aF168.13773345947266
aa(lp6
S'timestamp'
p7
aF4.8986358642578125
aatp8
Rp9
.ccollections
OrderedDict
p0
((lp1
(lp2
S'state'
p3
aI400
aa(lp4
S'distance'
p5
aF168.13773345947266
aa(lp6
S'timestamp'
p7
aF4.900360822677612
aatp8
Rp9
.ccollections
OrderedDict
p0
((lp1
(lp2
S'state'
p3
aI400
aa(lp4
S'distance'
p5
aF168.13773345947266
aa(lp6
S'timestamp'
p7
aF4.908900022506714
aatp8
Rp9
.ccollections
OrderedDict
p0
((lp1
(lp2
S'state'
p3
aI400
aa(lp4
S'distance'
p5
aF168.13773345947266
aa(lp6
S'timestamp'
p7
aF4.910125970840454
aatp8
Rp9
.ccollections
OrderedDict
p0
((lp1
(lp2
S'state'
p3
aI400
aa(lp4
S'distance'
p5
aF168.13773345947266
aa(lp6
S'timestamp'
p7
aF4.928689002990723
aatp8
Rp9
.ccollections
OrderedDict
p0
((lp1
(lp2
S'state'
p3
aI400
aa(lp4
S'distance'
p5
aF168.13773345947266
aa(lp6
S'timestamp'
p7
aF4.9301018714904785
aatp8
Rp9
.ccollections
OrderedDict
p0
((lp1
(lp2
S'state'
p3
aI400
aa(lp4
S'distance'
p5
aF168.13773345947266
aa(lp6
S'timestamp'
p7
aF4.930186033248901
aatp8
Rp9
.ccollections
OrderedDict
p0
((lp1
(lp2
S'state'
p3
aI400
aa(lp4
S'distance'
p5
aF168.13773345947266
aa(lp6
S'timestamp'
p7
aF4.930677890777588
aatp8
Rp9
.ccollections
OrderedDict
p0
((lp1
(lp2
S'state'
p3
aI400
aa(lp4
S'distance'
p5
aF168.13773345947266
aa(lp6
S'timestamp'
p7
aF4.9384989738464355
aatp8
Rp9
.ccollections
OrderedDict
p0
((lp1
(lp2
S'state'
p3
aI400
aa(lp4
S'distance'
p5
aF168.13773345947266
aa(lp6
S'timestamp'
p7
aF4.94176983833313
aatp8
Rp9
.ccollections
OrderedDict
p0
((lp1
(lp2
S'state'
p3
aI400
aa(lp4
S'distance'
p5
aF168.13773345947266
aa(lp6
S'timestamp'
p7
aF4.9486730098724365
aatp8
Rp9
.ccollections
OrderedDict
p0
((lp1
(lp2
S'state'
p3
aI400
aa(lp4
S'distance'
p5
aF168.13773345947266
aa(lp6
S'timestamp'
p7
aF4.949687957763672
aatp8
Rp9
.ccollections
OrderedDict
p0
((lp1
(lp2
S'state'
p3
aI400
aa(lp4
S'distance'
p5
aF168.13773345947266
aa(lp6
S'timestamp'
p7
aF4.95868992805481
aatp8
Rp9
.ccollections
OrderedDict
p0
((lp1
(lp2
S'state'
p3
aI400
aa(lp4
S'distance'
p5
aF168.13773345947266
aa(lp6
S'timestamp'
p7
aF4.959096908569336
aatp8
Rp9
.ccollections
OrderedDict
p0
((lp1
(lp2
S'state'
p3
aI400
aa(lp4
S'distance'
p5
aF168.13773345947266
aa(lp6
S'timestamp'
p7
aF4.968626976013184
aatp8
Rp9
.ccollections
OrderedDict
p0
((lp1
(lp2
S'state'
p3
aI400
aa(lp4
S'distance'
p5
aF168.13773345947266
aa(lp6
S'timestamp'
p7
aF4.968987941741943
aatp8
Rp9
.ccollections
OrderedDict
p0
((lp1
(lp2
S'state'
p3
aI400
aa(lp4
S'distance'
p5
aF168.13773345947266
aa(lp6
S'timestamp'
p7
aF4.9791319370269775
aatp8
Rp9
.ccollections
OrderedDict
p0
((lp1
(lp2
S'state'
p3
aI400
aa(lp4
S'distance'
p5
aF168.13773345947266
aa(lp6
S'timestamp'
p7
aF4.9792749881744385
aatp8
Rp9
.ccollections
OrderedDict
p0
((lp1
(lp2
S'state'
p3
aI400
aa(lp4
S'distance'
p5
aF168.13773345947266
aa(lp6
S'timestamp'
p7
aF4.9885969161987305
aatp8
Rp9
.ccollections
OrderedDict
p0
((lp1
(lp2
S'state'
p3
aI400
aa(lp4
S'distance'
p5
aF168.13773345947266
aa(lp6
S'timestamp'
p7
aF4.989191055297852
aatp8
Rp9
.ccollections
OrderedDict
p0
((lp1
(lp2
S'state'
p3
aI400
aa(lp4
S'distance'
p5
aF168.13773345947266
aa(lp6
S'timestamp'
p7
aF4.99866795539856
aatp8
Rp9
.ccollections
OrderedDict
p0
((lp1
(lp2
S'state'
p3
aI400
aa(lp4
S'distance'
p5
aF168.13773345947266
aa(lp6
S'timestamp'
p7
aF4.999095916748047
aatp8
Rp9
.ccollections
OrderedDict
p0
((lp1
(lp2
S'state'
p3
aI400
aa(lp4
S'distance'
p5
aF168.13773345947266
aa(lp6
S'timestamp'
p7
aF5.008504867553711
aatp8
Rp9
.ccollections
OrderedDict
p0
((lp1
(lp2
S'state'
p3
aI400
aa(lp4
S'distance'
p5
aF168.13773345947266
aa(lp6
S'timestamp'
p7
aF5.008968830108643
aatp8
Rp9
.ccollections
OrderedDict
p0
((lp1
(lp2
S'state'
p3
aI400
aa(lp4
S'distance'
p5
aF168.13773345947266
aa(lp6
S'timestamp'
p7
aF5.019018888473511
aatp8
Rp9
.ccollections
OrderedDict
p0
((lp1
(lp2
S'state'
p3
aI400
aa(lp4
S'distance'
p5
aF168.13773345947266
aa(lp6
S'timestamp'
p7
aF5.019745826721191
aatp8
Rp9
.ccollections
OrderedDict
p0
((lp1
(lp2
S'state'
p3
aI400
aa(lp4
S'distance'
p5
aF168.13773345947266
aa(lp6
S'timestamp'
p7
aF5.028934001922607
aatp8
Rp9
.ccollections
OrderedDict
p0
((lp1
(lp2
S'state'
p3
aI400
aa(lp4
S'distance'
p5
aF168.13773345947266
aa(lp6
S'timestamp'
p7
aF5.029088020324707
aatp8
Rp9
.ccollections
OrderedDict
p0
((lp1
(lp2
S'state'
p3
aI400
aa(lp4
S'distance'
p5
aF168.13773345947266
aa(lp6
S'timestamp'
p7
aF5.0384368896484375
aatp8
Rp9
.ccollections
OrderedDict
p0
((lp1
(lp2
S'state'
p3
aI400
aa(lp4
S'distance'
p5
aF168.13773345947266
aa(lp6
S'timestamp'
p7
aF5.039062023162842
aatp8
Rp9
.ccollections
OrderedDict
p0
((lp1
(lp2
S'state'
p3
aI400
aa(lp4
S'distance'
p5
aF168.13773345947266
aa(lp6
S'timestamp'
p7
aF5.049967050552368
aatp8
Rp9
.ccollections
OrderedDict
p0
((lp1
(lp2
S'state'
p3
aI400
aa(lp4
S'distance'
p5
aF168.13773345947266
aa(lp6
S'timestamp'
p7
aF5.0511088371276855
aatp8
Rp9
.ccollections
OrderedDict
p0
((lp1
(lp2
S'state'
p3
aI400
aa(lp4
S'distance'
p5
aF168.13773345947266
aa(lp6
S'timestamp'
p7
aF5.059072017669678
aatp8
Rp9
.ccollections
OrderedDict
p0
((lp1
(lp2
S'state'
p3
aI400
aa(lp4
S'distance'
p5
aF168.13773345947266
aa(lp6
S'timestamp'
p7
aF5.060375928878784
aatp8
Rp9
.ccollections
OrderedDict
p0
((lp1
(lp2
S'state'
p3
aI400
aa(lp4
S'distance'
p5
aF168.13773345947266
aa(lp6
S'timestamp'
p7
aF5.069138050079346
aatp8
Rp9
.ccollections
OrderedDict
p0
((lp1
(lp2
S'state'
p3
aI400
aa(lp4
S'distance'
p5
aF168.13773345947266
aa(lp6
S'timestamp'
p7
aF5.069305896759033
aatp8
Rp9
.ccollections
OrderedDict
p0
((lp1
(lp2
S'state'
p3
aI400
aa(lp4
S'distance'
p5
aF168.13773345947266
aa(lp6
S'timestamp'
p7
aF5.078564882278442
aatp8
Rp9
.ccollections
OrderedDict
p0
((lp1
(lp2
S'state'
p3
aI400
aa(lp4
S'distance'
p5
aF168.13773345947266
aa(lp6
S'timestamp'
p7
aF5.079080820083618
aatp8
Rp9
.ccollections
OrderedDict
p0
((lp1
(lp2
S'state'
p3
aI400
aa(lp4
S'distance'
p5
aF168.13773345947266
aa(lp6
S'timestamp'
p7
aF5.088423013687134
aatp8
Rp9
.ccollections
OrderedDict
p0
((lp1
(lp2
S'state'
p3
aI400
aa(lp4
S'distance'
p5
aF168.13773345947266
aa(lp6
S'timestamp'
p7
aF5.089488983154297
aatp8
Rp9
.ccollections
OrderedDict
p0
((lp1
(lp2
S'state'
p3
aI400
aa(lp4
S'distance'
p5
aF168.13773345947266
aa(lp6
S'timestamp'
p7
aF5.099217891693115
aatp8
Rp9
.ccollections
OrderedDict
p0
((lp1
(lp2
S'state'
p3
aI400
aa(lp4
S'distance'
p5
aF168.13773345947266
aa(lp6
S'timestamp'
p7
aF5.100515842437744
aatp8
Rp9
.ccollections
OrderedDict
p0
((lp1
(lp2
S'state'
p3
aI400
aa(lp4
S'distance'
p5
aF168.13773345947266
aa(lp6
S'timestamp'
p7
aF5.109451055526733
aatp8
Rp9
.ccollections
OrderedDict
p0
((lp1
(lp2
S'state'
p3
aI400
aa(lp4
S'distance'
p5
aF168.13773345947266
aa(lp6
S'timestamp'
p7
aF5.10967493057251
aatp8
Rp9
.ccollections
OrderedDict
p0
((lp1
(lp2
S'state'
p3
aI400
aa(lp4
S'distance'
p5
aF168.13773345947266
aa(lp6
S'timestamp'
p7
aF5.1188859939575195
aatp8
Rp9
.ccollections
OrderedDict
p0
((lp1
(lp2
S'state'
p3
aI400
aa(lp4
S'distance'
p5
aF168.13773345947266
aa(lp6
S'timestamp'
p7
aF5.119974851608276
aatp8
Rp9
.ccollections
OrderedDict
p0
((lp1
(lp2
S'state'
p3
aI400
aa(lp4
S'distance'
p5
aF168.13773345947266
aa(lp6
S'timestamp'
p7
aF5.129631042480469
aatp8
Rp9
.ccollections
OrderedDict
p0
((lp1
(lp2
S'state'
p3
aI400
aa(lp4
S'distance'
p5
aF168.13773345947266
aa(lp6
S'timestamp'
p7
aF5.12972092628479
aatp8
Rp9
.ccollections
OrderedDict
p0
((lp1
(lp2
S'state'
p3
aI400
aa(lp4
S'distance'
p5
aF168.13773345947266
aa(lp6
S'timestamp'
p7
aF5.1393890380859375
aatp8
Rp9
.ccollections
OrderedDict
p0
((lp1
(lp2
S'state'
p3
aI400
aa(lp4
S'distance'
p5
aF168.13773345947266
aa(lp6
S'timestamp'
p7
aF5.139523029327393
aatp8
Rp9
.ccollections
OrderedDict
p0
((lp1
(lp2
S'state'
p3
aI400
aa(lp4
S'distance'
p5
aF168.13773345947266
aa(lp6
S'timestamp'
p7
aF5.1503589153289795
aatp8
Rp9
.ccollections
OrderedDict
p0
((lp1
(lp2
S'state'
p3
aI400
aa(lp4
S'distance'
p5
aF168.13773345947266
aa(lp6
S'timestamp'
p7
aF5.151154041290283
aatp8
Rp9
.ccollections
OrderedDict
p0
((lp1
(lp2
S'state'
p3
aI400
aa(lp4
S'distance'
p5
aF168.13773345947266
aa(lp6
S'timestamp'
p7
aF5.160050868988037
aatp8
Rp9
.ccollections
OrderedDict
p0
((lp1
(lp2
S'state'
p3
aI400
aa(lp4
S'distance'
p5
aF168.13773345947266
aa(lp6
S'timestamp'
p7
aF5.160260915756226
aatp8
Rp9
.ccollections
OrderedDict
p0
((lp1
(lp2
S'state'
p3
aI400
aa(lp4
S'distance'
p5
aF168.13773345947266
aa(lp6
S'timestamp'
p7
aF5.168442964553833
aatp8
Rp9
.ccollections
OrderedDict
p0
((lp1
(lp2
S'state'
p3
aI400
aa(lp4
S'distance'
p5
aF168.13773345947266
aa(lp6
S'timestamp'
p7
aF5.169055938720703
aatp8
Rp9
.ccollections
OrderedDict
p0
((lp1
(lp2
S'state'
p3
aI400
aa(lp4
S'distance'
p5
aF168.13773345947266
aa(lp6
S'timestamp'
p7
aF5.180606842041016
aatp8
Rp9
.ccollections
OrderedDict
p0
((lp1
(lp2
S'state'
p3
aI400
aa(lp4
S'distance'
p5
aF168.13773345947266
aa(lp6
S'timestamp'
p7
aF5.180801868438721
aatp8
Rp9
.ccollections
OrderedDict
p0
((lp1
(lp2
S'state'
p3
aI400
aa(lp4
S'distance'
p5
aF168.13773345947266
aa(lp6
S'timestamp'
p7
aF5.190248966217041
aatp8
Rp9
.ccollections
OrderedDict
p0
((lp1
(lp2
S'state'
p3
aI400
aa(lp4
S'distance'
p5
aF168.13773345947266
aa(lp6
S'timestamp'
p7
aF5.190574884414673
aatp8
Rp9
.ccollections
OrderedDict
p0
((lp1
(lp2
S'state'
p3
aI400
aa(lp4
S'distance'
p5
aF168.13773345947266
aa(lp6
S'timestamp'
p7
aF5.199023008346558
aatp8
Rp9
.ccollections
OrderedDict
p0
((lp1
(lp2
S'state'
p3
aI400
aa(lp4
S'distance'
p5
aF168.13773345947266
aa(lp6
S'timestamp'
p7
aF5.199291944503784
aatp8
Rp9
.ccollections
OrderedDict
p0
((lp1
(lp2
S'state'
p3
aI400
aa(lp4
S'distance'
p5
aF168.13773345947266
aa(lp6
S'timestamp'
p7
aF5.208935976028442
aatp8
Rp9
.ccollections
OrderedDict
p0
((lp1
(lp2
S'state'
p3
aI400
aa(lp4
S'distance'
p5
aF168.13773345947266
aa(lp6
S'timestamp'
p7
aF5.209713935852051
aatp8
Rp9
.ccollections
OrderedDict
p0
((lp1
(lp2
S'state'
p3
aI400
aa(lp4
S'distance'
p5
aF168.13773345947266
aa(lp6
S'timestamp'
p7
aF5.2301108837127686
aatp8
Rp9
.ccollections
OrderedDict
p0
((lp1
(lp2
S'state'
p3
aI400
aa(lp4
S'distance'
p5
aF168.13773345947266
aa(lp6
S'timestamp'
p7
aF5.230929851531982
aatp8
Rp9
.ccollections
OrderedDict
p0
((lp1
(lp2
S'state'
p3
aI400
aa(lp4
S'distance'
p5
aF168.13773345947266
aa(lp6
S'timestamp'
p7
aF5.231005907058716
aatp8
Rp9
.ccollections
OrderedDict
p0
((lp1
(lp2
S'state'
p3
aI400
aa(lp4
S'distance'
p5
aF168.13773345947266
aa(lp6
S'timestamp'
p7
aF5.231072902679443
aatp8
Rp9
.ccollections
OrderedDict
p0
((lp1
(lp2
S'state'
p3
aI400
aa(lp4
S'distance'
p5
aF168.13773345947266
aa(lp6
S'timestamp'
p7
aF5.240001916885376
aatp8
Rp9
.ccollections
OrderedDict
p0
((lp1
(lp2
S'state'
p3
aI400
aa(lp4
S'distance'
p5
aF168.13773345947266
aa(lp6
S'timestamp'
p7
aF5.240077972412109
aatp8
Rp9
.ccollections
OrderedDict
p0
((lp1
(lp2
S'state'
p3
aI400
aa(lp4
S'distance'
p5
aF168.13773345947266
aa(lp6
S'timestamp'
p7
aF5.249636888504028
aatp8
Rp9
.ccollections
OrderedDict
p0
((lp1
(lp2
S'state'
p3
aI400
aa(lp4
S'distance'
p5
aF168.13773345947266
aa(lp6
S'timestamp'
p7
aF5.249783039093018
aatp8
Rp9
.ccollections
OrderedDict
p0
((lp1
(lp2
S'state'
p3
aI400
aa(lp4
S'distance'
p5
aF168.13773345947266
aa(lp6
S'timestamp'
p7
aF5.259073972702026
aatp8
Rp9
.ccollections
OrderedDict
p0
((lp1
(lp2
S'state'
p3
aI400
aa(lp4
S'distance'
p5
aF168.13773345947266
aa(lp6
S'timestamp'
p7
aF5.260051012039185
aatp8
Rp9
.ccollections
OrderedDict
p0
((lp1
(lp2
S'state'
p3
aI400
aa(lp4
S'distance'
p5
aF168.13773345947266
aa(lp6
S'timestamp'
p7
aF5.268187999725342
aatp8
Rp9
.ccollections
OrderedDict
p0
((lp1
(lp2
S'state'
p3
aI400
aa(lp4
S'distance'
p5
aF168.13773345947266
aa(lp6
S'timestamp'
p7
aF5.268991947174072
aatp8
Rp9
.ccollections
OrderedDict
p0
((lp1
(lp2
S'state'
p3
aI400
aa(lp4
S'distance'
p5
aF168.13773345947266
aa(lp6
S'timestamp'
p7
aF5.280072927474976
aatp8
Rp9
.ccollections
OrderedDict
p0
((lp1
(lp2
S'state'
p3
aI400
aa(lp4
S'distance'
p5
aF168.13773345947266
aa(lp6
S'timestamp'
p7
aF5.280815839767456
aatp8
Rp9
.ccollections
OrderedDict
p0
((lp1
(lp2
S'state'
p3
aI400
aa(lp4
S'distance'
p5
aF168.13773345947266
aa(lp6
S'timestamp'
p7
aF5.289011001586914
aatp8
Rp9
.ccollections
OrderedDict
p0
((lp1
(lp2
S'state'
p3
aI400
aa(lp4
S'distance'
p5
aF168.13773345947266
aa(lp6
S'timestamp'
p7
aF5.289196968078613
aatp8
Rp9
.ccollections
OrderedDict
p0
((lp1
(lp2
S'state'
p3
aI400
aa(lp4
S'distance'
p5
aF168.13773345947266
aa(lp6
S'timestamp'
p7
aF5.298852920532227
aatp8
Rp9
.ccollections
OrderedDict
p0
((lp1
(lp2
S'state'
p3
aI400
aa(lp4
S'distance'
p5
aF168.13773345947266
aa(lp6
S'timestamp'
p7
aF5.300665855407715
aatp8
Rp9
.ccollections
OrderedDict
p0
((lp1
(lp2
S'state'
p3
aI400
aa(lp4
S'distance'
p5
aF168.13773345947266
aa(lp6
S'timestamp'
p7
aF5.309550046920776
aatp8
Rp9
.ccollections
OrderedDict
p0
((lp1
(lp2
S'state'
p3
aI400
aa(lp4
S'distance'
p5
aF168.13773345947266
aa(lp6
S'timestamp'
p7
aF5.310032844543457
aatp8
Rp9
.ccollections
OrderedDict
p0
((lp1
(lp2
S'state'
p3
aI400
aa(lp4
S'distance'
p5
aF168.13773345947266
aa(lp6
S'timestamp'
p7
aF5.319354057312012
aatp8
Rp9
.ccollections
OrderedDict
p0
((lp1
(lp2
S'state'
p3
aI400
aa(lp4
S'distance'
p5
aF168.13773345947266
aa(lp6
S'timestamp'
p7
aF5.319609880447388
aatp8
Rp9
.ccollections
OrderedDict
p0
((lp1
(lp2
S'state'
p3
aI400
aa(lp4
S'distance'
p5
aF168.13773345947266
aa(lp6
S'timestamp'
p7
aF5.32878303527832
aatp8
Rp9
.ccollections
OrderedDict
p0
((lp1
(lp2
S'state'
p3
aI400
aa(lp4
S'distance'
p5
aF168.13773345947266
aa(lp6
S'timestamp'
p7
aF5.329990863800049
aatp8
Rp9
.ccollections
OrderedDict
p0
((lp1
(lp2
S'state'
p3
aI400
aa(lp4
S'distance'
p5
aF168.13773345947266
aa(lp6
S'timestamp'
p7
aF5.338937044143677
aatp8
Rp9
.ccollections
OrderedDict
p0
((lp1
(lp2
S'state'
p3
aI400
aa(lp4
S'distance'
p5
aF168.13773345947266
aa(lp6
S'timestamp'
p7
aF5.340824842453003
aatp8
Rp9
.ccollections
OrderedDict
p0
((lp1
(lp2
S'state'
p3
aI400
aa(lp4
S'distance'
p5
aF168.13773345947266
aa(lp6
S'timestamp'
p7
aF5.349714040756226
aatp8
Rp9
.ccollections
OrderedDict
p0
((lp1
(lp2
S'state'
p3
aI400
aa(lp4
S'distance'
p5
aF168.13773345947266
aa(lp6
S'timestamp'
p7
aF5.349912881851196
aatp8
Rp9
.ccollections
OrderedDict
p0
((lp1
(lp2
S'state'
p3
aI400
aa(lp4
S'distance'
p5
aF168.13773345947266
aa(lp6
S'timestamp'
p7
aF5.358821868896484
aatp8
Rp9
.ccollections
OrderedDict
p0
((lp1
(lp2
S'state'
p3
aI400
aa(lp4
S'distance'
p5
aF168.13773345947266
aa(lp6
S'timestamp'
p7
aF5.359380006790161
aatp8
Rp9
.ccollections
OrderedDict
p0
((lp1
(lp2
S'state'
p3
aI400
aa(lp4
S'distance'
p5
aF168.13773345947266
aa(lp6
S'timestamp'
p7
aF5.368494987487793
aatp8
Rp9
.ccollections
OrderedDict
p0
((lp1
(lp2
S'state'
p3
aI400
aa(lp4
S'distance'
p5
aF168.13773345947266
aa(lp6
S'timestamp'
p7
aF5.369856834411621
aatp8
Rp9
.ccollections
OrderedDict
p0
((lp1
(lp2
S'state'
p3
aI400
aa(lp4
S'distance'
p5
aF168.13773345947266
aa(lp6
S'timestamp'
p7
aF5.379070043563843
aatp8
Rp9
.ccollections
OrderedDict
p0
((lp1
(lp2
S'state'
p3
aI0
aa(lp4
S'distance'
p5
aF168.13773345947266
aa(lp6
S'timestamp'
p7
aF5.379503011703491
aatp8
Rp9
.ccollections
OrderedDict
p0
((lp1
(lp2
S'state'
p3
aI0
aa(lp4
S'distance'
p5
aF65.32745265960693
aa(lp6
S'timestamp'
p7
aF5.950112819671631
aatp8
Rp9
.ccollections
OrderedDict
p0
((lp1
(lp2
S'state'
p3
aI0
aa(lp4
S'distance'
p5
aF65.32745265960693
aa(lp6
S'timestamp'
p7
aF5.951007843017578
aatp8
Rp9
.ccollections
OrderedDict
p0
((lp1
(lp2
S'state'
p3
aI0
aa(lp4
S'distance'
p5
aF65.32745265960693
aa(lp6
S'timestamp'
p7
aF5.968580961227417
aatp8
Rp9
.ccollections
OrderedDict
p0
((lp1
(lp2
S'state'
p3
aI0
aa(lp4
S'distance'
p5
aF65.32745265960693
aa(lp6
S'timestamp'
p7
aF5.969442844390869
aatp8
Rp9
.ccollections
OrderedDict
p0
((lp1
(lp2
S'state'
p3
aI0
aa(lp4
S'distance'
p5
aF65.32745265960693
aa(lp6
S'timestamp'
p7
aF5.970515012741089
aatp8
Rp9
.ccollections
OrderedDict
p0
((lp1
(lp2
S'state'
p3
aI0
aa(lp4
S'distance'
p5
aF65.32745265960693
aa(lp6
S'timestamp'
p7
aF5.971290826797485
aatp8
Rp9
.ccollections
OrderedDict
p0
((lp1
(lp2
S'state'
p3
aI0
aa(lp4
S'distance'
p5
aF65.32745265960693
aa(lp6
S'timestamp'
p7
aF5.978777885437012
aatp8
Rp9
.ccollections
OrderedDict
p0
((lp1
(lp2
S'state'
p3
aI0
aa(lp4
S'distance'
p5
aF65.32745265960693
aa(lp6
S'timestamp'
p7
aF5.9791200160980225
aatp8
Rp9
.ccollections
OrderedDict
p0
((lp1
(lp2
S'state'
p3
aI0
aa(lp4
S'distance'
p5
aF65.32745265960693
aa(lp6
S'timestamp'
p7
aF5.988910913467407
aatp8
Rp9
.ccollections
OrderedDict
p0
((lp1
(lp2
S'state'
p3
aI0
aa(lp4
S'distance'
p5
aF65.32745265960693
aa(lp6
S'timestamp'
p7
aF5.989434003829956
aatp8
Rp9
.ccollections
OrderedDict
p0
((lp1
(lp2
S'state'
p3
aI0
aa(lp4
S'distance'
p5
aF65.32745265960693
aa(lp6
S'timestamp'
p7
aF5.999130010604858
aatp8
Rp9
.ccollections
OrderedDict
p0
((lp1
(lp2
S'state'
p3
aI0
aa(lp4
S'distance'
p5
aF65.32745265960693
aa(lp6
S'timestamp'
p7
aF5.999598026275635
aatp8
Rp9
.ccollections
OrderedDict
p0
((lp1
(lp2
S'state'
p3
aI0
aa(lp4
S'distance'
p5
aF65.32745265960693
aa(lp6
S'timestamp'
p7
aF6.008805990219116
aatp8
Rp9
.ccollections
OrderedDict
p0
((lp1
(lp2
S'state'
p3
aI0
aa(lp4
S'distance'
p5
aF65.32745265960693
aa(lp6
S'timestamp'
p7
aF6.00949501991272
aatp8
Rp9
.ccollections
OrderedDict
p0
((lp1
(lp2
S'state'
p3
aI0
aa(lp4
S'distance'
p5
aF65.32745265960693
aa(lp6
S'timestamp'
p7
aF6.019117832183838
aatp8
Rp9
.ccollections
OrderedDict
p0
((lp1
(lp2
S'state'
p3
aI0
aa(lp4
S'distance'
p5
aF65.32745265960693
aa(lp6
S'timestamp'
p7
aF6.019208908081055
aatp8
Rp9
.ccollections
OrderedDict
p0
((lp1
(lp2
S'state'
p3
aI0
aa(lp4
S'distance'
p5
aF65.32745265960693
aa(lp6
S'timestamp'
p7
aF6.030194997787476
aatp8
Rp9
.ccollections
OrderedDict
p0
((lp1
(lp2
S'state'
p3
aI0
aa(lp4
S'distance'
p5
aF65.32745265960693
aa(lp6
S'timestamp'
p7
aF6.031175851821899
aatp8
Rp9
.ccollections
OrderedDict
p0
((lp1
(lp2
S'state'
p3
aI0
aa(lp4
S'distance'
p5
aF65.32745265960693
aa(lp6
S'timestamp'
p7
aF6.038442850112915
aatp8
Rp9
.ccollections
OrderedDict
p0
((lp1
(lp2
S'state'
p3
aI0
aa(lp4
S'distance'
p5
aF65.32745265960693
aa(lp6
S'timestamp'
p7
aF6.038916826248169
aatp8
Rp9
.ccollections
OrderedDict
p0
((lp1
(lp2
S'state'
p3
aI0
aa(lp4
S'distance'
p5
aF65.32745265960693
aa(lp6
S'timestamp'
p7
aF6.049098968505859
aatp8
Rp9
.ccollections
OrderedDict
p0
((lp1
(lp2
S'state'
p3
aI0
aa(lp4
S'distance'
p5
aF65.32745265960693
aa(lp6
S'timestamp'
p7
aF6.049540042877197
aatp8
Rp9
.ccollections
OrderedDict
p0
((lp1
(lp2
S'state'
p3
aI0
aa(lp4
S'distance'
p5
aF65.32745265960693
aa(lp6
S'timestamp'
p7
aF6.058874845504761
aatp8
Rp9
.ccollections
OrderedDict
p0
((lp1
(lp2
S'state'
p3
aI0
aa(lp4
S'distance'
p5
aF65.32745265960693
aa(lp6
S'timestamp'
p7
aF6.060179948806763
aatp8
Rp9
.ccollections
OrderedDict
p0
((lp1
(lp2
S'state'
p3
aI0
aa(lp4
S'distance'
p5
aF65.32745265960693
aa(lp6
S'timestamp'
p7
aF6.069263935089111
aatp8
Rp9
.ccollections
OrderedDict
p0
((lp1
(lp2
S'state'
p3
aI0
aa(lp4
S'distance'
p5
aF65.32745265960693
aa(lp6
S'timestamp'
p7
aF6.069413900375366
aatp8
Rp9
.ccollections
OrderedDict
p0
((lp1
(lp2
S'state'
p3
aI0
aa(lp4
S'distance'
p5
aF65.32745265960693
aa(lp6
S'timestamp'
p7
aF6.079373836517334
aatp8
Rp9
.ccollections
OrderedDict
p0
((lp1
(lp2
S'state'
p3
aI0
aa(lp4
S'distance'
p5
aF65.32745265960693
aa(lp6
S'timestamp'
p7
aF6.0795738697052
aatp8
Rp9
.ccollections
OrderedDict
p0
((lp1
(lp2
S'state'
p3
aI0
aa(lp4
S'distance'
p5
aF65.32745265960693
aa(lp6
S'timestamp'
p7
aF6.089050054550171
aatp8
Rp9
.ccollections
OrderedDict
p0
((lp1
(lp2
S'state'
p3
aI0
aa(lp4
S'distance'
p5
aF65.32745265960693
aa(lp6
S'timestamp'
p7
aF6.089493036270142
aatp8
Rp9
.ccollections
OrderedDict
p0
((lp1
(lp2
S'state'
p3
aI0
aa(lp4
S'distance'
p5
aF65.32745265960693
aa(lp6
S'timestamp'
p7
aF6.099016904830933
aatp8
Rp9
.ccollections
OrderedDict
p0
((lp1
(lp2
S'state'
p3
aI0
aa(lp4
S'distance'
p5
aF65.32745265960693
aa(lp6
S'timestamp'
p7
aF6.0998640060424805
aatp8
Rp9
.ccollections
OrderedDict
p0
((lp1
(lp2
S'state'
p3
aI0
aa(lp4
S'distance'
p5
aF65.32745265960693
aa(lp6
S'timestamp'
p7
aF6.109285831451416
aatp8
Rp9
.ccollections
OrderedDict
p0
((lp1
(lp2
S'state'
p3
aI0
aa(lp4
S'distance'
p5
aF65.32745265960693
aa(lp6
S'timestamp'
p7
aF6.110649824142456
aatp8
Rp9
.ccollections
OrderedDict
p0
((lp1
(lp2
S'state'
p3
aI0
aa(lp4
S'distance'
p5
aF65.32745265960693
aa(lp6
S'timestamp'
p7
aF6.118911981582642
aatp8
Rp9
.ccollections
OrderedDict
p0
((lp1
(lp2
S'state'
p3
aI0
aa(lp4
S'distance'
p5
aF65.32745265960693
aa(lp6
S'timestamp'
p7
aF6.1192848682403564
aatp8
Rp9
.ccollections
OrderedDict
p0
((lp1
(lp2
S'state'
p3
aI0
aa(lp4
S'distance'
p5
aF65.32745265960693
aa(lp6
S'timestamp'
p7
aF6.128438949584961
aatp8
Rp9
.ccollections
OrderedDict
p0
((lp1
(lp2
S'state'
p3
aI0
aa(lp4
S'distance'
p5
aF65.32745265960693
aa(lp6
S'timestamp'
p7
aF6.1294519901275635
aatp8
Rp9
.ccollections
OrderedDict
p0
((lp1
(lp2
S'state'
p3
aI0
aa(lp4
S'distance'
p5
aF65.32745265960693
aa(lp6
S'timestamp'
p7
aF6.139524936676025
aatp8
Rp9
.ccollections
OrderedDict
p0
((lp1
(lp2
S'state'
p3
aI0
aa(lp4
S'distance'
p5
aF65.32745265960693
aa(lp6
S'timestamp'
p7
aF6.139789819717407
aatp8
Rp9
.ccollections
OrderedDict
p0
((lp1
(lp2
S'state'
p3
aI0
aa(lp4
S'distance'
p5
aF65.32745265960693
aa(lp6
S'timestamp'
p7
aF6.1490819454193115
aatp8
Rp9
.ccollections
OrderedDict
p0
((lp1
(lp2
S'state'
p3
aI0
aa(lp4
S'distance'
p5
aF65.32745265960693
aa(lp6
S'timestamp'
p7
aF6.15023398399353
aatp8
Rp9
.ccollections
OrderedDict
p0
((lp1
(lp2
S'state'
p3
aI0
aa(lp4
S'distance'
p5
aF65.32745265960693
aa(lp6
S'timestamp'
p7
aF6.158406019210815
aatp8
Rp9
.ccollections
OrderedDict
p0
((lp1
(lp2
S'state'
p3
aI0
aa(lp4
S'distance'
p5
aF65.32745265960693
aa(lp6
S'timestamp'
p7
aF6.158965826034546
aatp8
Rp9
.ccollections
OrderedDict
p0
((lp1
(lp2
S'state'
p3
aI0
aa(lp4
S'distance'
p5
aF65.32745265960693
aa(lp6
S'timestamp'
p7
aF6.169018030166626
aatp8
Rp9
.ccollections
OrderedDict
p0
((lp1
(lp2
S'state'
p3
aI0
aa(lp4
S'distance'
p5
aF65.32745265960693
aa(lp6
S'timestamp'
p7
aF6.169322967529297
aatp8
Rp9
.ccollections
OrderedDict
p0
((lp1
(lp2
S'state'
p3
aI0
aa(lp4
S'distance'
p5
aF65.32745265960693
aa(lp6
S'timestamp'
p7
aF6.178833961486816
aatp8
Rp9
.ccollections
OrderedDict
p0
((lp1
(lp2
S'state'
p3
aI0
aa(lp4
S'distance'
p5
aF65.32745265960693
aa(lp6
S'timestamp'
p7
aF6.180373907089233
aatp8
Rp9
.ccollections
OrderedDict
p0
((lp1
(lp2
S'state'
p3
aI0
aa(lp4
S'distance'
p5
aF65.32745265960693
aa(lp6
S'timestamp'
p7
aF6.190546989440918
aatp8
Rp9
.ccollections
OrderedDict
p0
((lp1
(lp2
S'state'
p3
aI0
aa(lp4
S'distance'
p5
aF65.32745265960693
aa(lp6
S'timestamp'
p7
aF6.190950870513916
aatp8
Rp9
.ccollections
OrderedDict
p0
((lp1
(lp2
S'state'
p3
aI0
aa(lp4
S'distance'
p5
aF65.32745265960693
aa(lp6
S'timestamp'
p7
aF6.199547052383423
aatp8
Rp9
.ccollections
OrderedDict
p0
((lp1
(lp2
S'state'
p3
aI0
aa(lp4
S'distance'
p5
aF65.32745265960693
aa(lp6
S'timestamp'
p7
aF6.199708938598633
aatp8
Rp9
.ccollections
OrderedDict
p0
((lp1
(lp2
S'state'
p3
aI0
aa(lp4
S'distance'
p5
aF65.32745265960693
aa(lp6
S'timestamp'
p7
aF6.209950923919678
aatp8
Rp9
.ccollections
OrderedDict
p0
((lp1
(lp2
S'state'
p3
aI0
aa(lp4
S'distance'
p5
aF65.32745265960693
aa(lp6
S'timestamp'
p7
aF6.210268974304199
aatp8
Rp9
.ccollections
OrderedDict
p0
((lp1
(lp2
S'state'
p3
aI0
aa(lp4
S'distance'
p5
aF65.32745265960693
aa(lp6
S'timestamp'
p7
aF6.218930006027222
aatp8
Rp9
.ccollections
OrderedDict
p0
((lp1
(lp2
S'state'
p3
aI0
aa(lp4
S'distance'
p5
aF65.32745265960693
aa(lp6
S'timestamp'
p7
aF6.219576835632324
aatp8
Rp9
.ccollections
OrderedDict
p0
((lp1
(lp2
S'state'
p3
aI0
aa(lp4
S'distance'
p5
aF65.32745265960693
aa(lp6
S'timestamp'
p7
aF6.229259967803955
aatp8
Rp9
.ccollections
OrderedDict
p0
((lp1
(lp2
S'state'
p3
aI0
aa(lp4
S'distance'
p5
aF65.32745265960693
aa(lp6
S'timestamp'
p7
aF6.229467868804932
aatp8
Rp9
.ccollections
OrderedDict
p0
((lp1
(lp2
S'state'
p3
aI0
aa(lp4
S'distance'
p5
aF65.32745265960693
aa(lp6
S'timestamp'
p7
aF6.238771915435791
aatp8
Rp9
.ccollections
OrderedDict
p0
((lp1
(lp2
S'state'
p3
aI0
aa(lp4
S'distance'
p5
aF65.32745265960693
aa(lp6
S'timestamp'
p7
aF6.239833831787109
aatp8
Rp9
.ccollections
OrderedDict
p0
((lp1
(lp2
S'state'
p3
aI0
aa(lp4
S'distance'
p5
aF65.32745265960693
aa(lp6
S'timestamp'
p7
aF6.249032020568848
aatp8
Rp9
.ccollections
OrderedDict
p0
((lp1
(lp2
S'state'
p3
aI0
aa(lp4
S'distance'
p5
aF65.32745265960693
aa(lp6
S'timestamp'
p7
aF6.249483823776245
aatp8
Rp9
.ccollections
OrderedDict
p0
((lp1
(lp2
S'state'
p3
aI0
aa(lp4
S'distance'
p5
aF65.32745265960693
aa(lp6
S'timestamp'
p7
aF6.258729934692383
aatp8
Rp9
.ccollections
OrderedDict
p0
((lp1
(lp2
S'state'
p3
aI0
aa(lp4
S'distance'
p5
aF65.32745265960693
aa(lp6
S'timestamp'
p7
aF6.259716033935547
aatp8
Rp9
.ccollections
OrderedDict
p0
((lp1
(lp2
S'state'
p3
aI0
aa(lp4
S'distance'
p5
aF65.32745265960693
aa(lp6
S'timestamp'
p7
aF6.268968820571899
aatp8
Rp9
.ccollections
OrderedDict
p0
((lp1
(lp2
S'state'
p3
aI0
aa(lp4
S'distance'
p5
aF65.32745265960693
aa(lp6
S'timestamp'
p7
aF6.2694220542907715
aatp8
Rp9
.ccollections
OrderedDict
p0
((lp1
(lp2
S'state'
p3
aI0
aa(lp4
S'distance'
p5
aF65.32745265960693
aa(lp6
S'timestamp'
p7
aF6.278795957565308
aatp8
Rp9
.ccollections
OrderedDict
p0
((lp1
(lp2
S'state'
p3
aI0
aa(lp4
S'distance'
p5
aF65.32745265960693
aa(lp6
S'timestamp'
p7
aF6.27958083152771
aatp8
Rp9
.ccollections
OrderedDict
p0
((lp1
(lp2
S'state'
p3
aI0
aa(lp4
S'distance'
p5
aF65.32745265960693
aa(lp6
S'timestamp'
p7
aF6.289590835571289
aatp8
Rp9
.ccollections
OrderedDict
p0
((lp1
(lp2
S'state'
p3
aI0
aa(lp4
S'distance'
p5
aF65.32745265960693
aa(lp6
S'timestamp'
p7
aF6.2901740074157715
aatp8
Rp9
.ccollections
OrderedDict
p0
((lp1
(lp2
S'state'
p3
aI0
aa(lp4
S'distance'
p5
aF65.32745265960693
aa(lp6
S'timestamp'
p7
aF6.298804998397827
aatp8
Rp9
.ccollections
OrderedDict
p0
((lp1
(lp2
S'state'
p3
aI0
aa(lp4
S'distance'
p5
aF65.32745265960693
aa(lp6
S'timestamp'
p7
aF6.299847841262817
aatp8
Rp9
.ccollections
OrderedDict
p0
((lp1
(lp2
S'state'
p3
aI0
aa(lp4
S'distance'
p5
aF65.32745265960693
aa(lp6
S'timestamp'
p7
aF6.308955907821655
aatp8
Rp9
.ccollections
OrderedDict
p0
((lp1
(lp2
S'state'
p3
aI0
aa(lp4
S'distance'
p5
aF65.32745265960693
aa(lp6
S'timestamp'
p7
aF6.309753894805908
aatp8
Rp9
.ccollections
OrderedDict
p0
((lp1
(lp2
S'state'
p3
aI0
aa(lp4
S'distance'
p5
aF65.32745265960693
aa(lp6
S'timestamp'
p7
aF6.339812994003296
aatp8
Rp9
.ccollections
OrderedDict
p0
((lp1
(lp2
S'state'
p3
aI0
aa(lp4
S'distance'
p5
aF65.32745265960693
aa(lp6
S'timestamp'
p7
aF6.340139865875244
aatp8
Rp9
.ccollections
OrderedDict
p0
((lp1
(lp2
S'state'
p3
aI0
aa(lp4
S'distance'
p5
aF65.32745265960693
aa(lp6
S'timestamp'
p7
aF6.340440988540649
aatp8
Rp9
.ccollections
OrderedDict
p0
((lp1
(lp2
S'state'
p3
aI0
aa(lp4
S'distance'
p5
aF65.32745265960693
aa(lp6
S'timestamp'
p7
aF6.340998888015747
aatp8
Rp9
.ccollections
OrderedDict
p0
((lp1
(lp2
S'state'
p3
aI0
aa(lp4
S'distance'
p5
aF65.32745265960693
aa(lp6
S'timestamp'
p7
aF6.349200010299683
aatp8
Rp9
.ccollections
OrderedDict
p0
((lp1
(lp2
S'state'
p3
aI0
aa(lp4
S'distance'
p5
aF65.32745265960693
aa(lp6
S'timestamp'
p7
aF6.349352836608887
aatp8
Rp9
.ccollections
OrderedDict
p0
((lp1
(lp2
S'state'
p3
aI0
aa(lp4
S'distance'
p5
aF65.32745265960693
aa(lp6
S'timestamp'
p7
aF6.349851846694946
aatp8
Rp9
.ccollections
OrderedDict
p0
((lp1
(lp2
S'state'
p3
aI0
aa(lp4
S'distance'
p5
aF65.32745265960693
aa(lp6
S'timestamp'
p7
aF6.350085973739624
aatp8
Rp9
.ccollections
OrderedDict
p0
((lp1
(lp2
S'state'
p3
aI0
aa(lp4
S'distance'
p5
aF65.32745265960693
aa(lp6
S'timestamp'
p7
aF6.359825849533081
aatp8
Rp9
.ccollections
OrderedDict
p0
((lp1
(lp2
S'state'
p3
aI0
aa(lp4
S'distance'
p5
aF65.32745265960693
aa(lp6
S'timestamp'
p7
aF6.360229015350342
aatp8
Rp9
.ccollections
OrderedDict
p0
((lp1
(lp2
S'state'
p3
aI0
aa(lp4
S'distance'
p5
aF65.32745265960693
aa(lp6
S'timestamp'
p7
aF6.368881940841675
aatp8
Rp9
.ccollections
OrderedDict
p0
((lp1
(lp2
S'state'
p3
aI0
aa(lp4
S'distance'
p5
aF65.32745265960693
aa(lp6
S'timestamp'
p7
aF6.3698248863220215
aatp8
Rp9
.ccollections
OrderedDict
p0
((lp1
(lp2
S'state'
p3
aI0
aa(lp4
S'distance'
p5
aF65.32745265960693
aa(lp6
S'timestamp'
p7
aF6.378912925720215
aatp8
Rp9
.ccollections
OrderedDict
p0
((lp1
(lp2
S'state'
p3
aI0
aa(lp4
S'distance'
p5
aF65.32745265960693
aa(lp6
S'timestamp'
p7
aF6.379027843475342
aatp8
Rp9
.ccollections
OrderedDict
p0
((lp1
(lp2
S'state'
p3
aI0
aa(lp4
S'distance'
p5
aF65.32745265960693
aa(lp6
S'timestamp'
p7
aF6.389014005661011
aatp8
Rp9
.ccollections
OrderedDict
p0
((lp1
(lp2
S'state'
p3
aI0
aa(lp4
S'distance'
p5
aF65.32745265960693
aa(lp6
S'timestamp'
p7
aF6.38941502571106
aatp8
Rp9
.ccollections
OrderedDict
p0
((lp1
(lp2
S'state'
p3
aI0
aa(lp4
S'distance'
p5
aF65.32745265960693
aa(lp6
S'timestamp'
p7
aF6.39894700050354
aatp8
Rp9
.ccollections
OrderedDict
p0
((lp1
(lp2
S'state'
p3
aI0
aa(lp4
S'distance'
p5
aF65.32745265960693
aa(lp6
S'timestamp'
p7
aF6.399941921234131
aatp8
Rp9
.ccollections
OrderedDict
p0
((lp1
(lp2
S'state'
p3
aI0
aa(lp4
S'distance'
p5
aF65.32745265960693
aa(lp6
S'timestamp'
p7
aF6.408421039581299
aatp8
Rp9
.ccollections
OrderedDict
p0
((lp1
(lp2
S'state'
p3
aI0
aa(lp4
S'distance'
p5
aF65.32745265960693
aa(lp6
S'timestamp'
p7
aF6.409592866897583
aatp8
Rp9
.ccollections
OrderedDict
p0
((lp1
(lp2
S'state'
p3
aI0
aa(lp4
S'distance'
p5
aF65.32745265960693
aa(lp6
S'timestamp'
p7
aF6.418426990509033
aatp8
Rp9
.ccollections
OrderedDict
p0
((lp1
(lp2
S'state'
p3
aI0
aa(lp4
S'distance'
p5
aF65.32745265960693
aa(lp6
S'timestamp'
p7
aF6.419528961181641
aatp8
Rp9
.ccollections
OrderedDict
p0
((lp1
(lp2
S'state'
p3
aI0
aa(lp4
S'distance'
p5
aF65.32745265960693
aa(lp6
S'timestamp'
p7
aF6.53092885017395
aatp8
Rp9
.ccollections
OrderedDict
p0
((lp1
(lp2
S'state'
p3
aI0
aa(lp4
S'distance'
p5
aF65.32745265960693
aa(lp6
S'timestamp'
p7
aF6.531749963760376
aatp8
Rp9
.ccollections
OrderedDict
p0
((lp1
(lp2
S'state'
p3
aI0
aa(lp4
S'distance'
p5
aF65.32745265960693
aa(lp6
S'timestamp'
p7
aF6.532384872436523
aatp8
Rp9
.ccollections
OrderedDict
p0
((lp1
(lp2
S'state'
p3
aI0
aa(lp4
S'distance'
p5
aF65.32745265960693
aa(lp6
S'timestamp'
p7
aF6.532750844955444
aatp8
Rp9
.ccollections
OrderedDict
p0
((lp1
(lp2
S'state'
p3
aI0
aa(lp4
S'distance'
p5
aF65.32745265960693
aa(lp6
S'timestamp'
p7
aF6.533053874969482
aatp8
Rp9
.ccollections
OrderedDict
p0
((lp1
(lp2
S'state'
p3
aI0
aa(lp4
S'distance'
p5
aF65.32745265960693
aa(lp6
S'timestamp'
p7
aF6.533387899398804
aatp8
Rp9
.ccollections
OrderedDict
p0
((lp1
(lp2
S'state'
p3
aI0
aa(lp4
S'distance'
p5
aF65.32745265960693
aa(lp6
S'timestamp'
p7
aF6.533524990081787
aatp8
Rp9
.ccollections
OrderedDict
p0
((lp1
(lp2
S'state'
p3
aI0
aa(lp4
S'distance'
p5
aF65.32745265960693
aa(lp6
S'timestamp'
p7
aF6.533879995346069
aatp8
Rp9
.ccollections
OrderedDict
p0
((lp1
(lp2
S'state'
p3
aI0
aa(lp4
S'distance'
p5
aF65.32745265960693
aa(lp6
S'timestamp'
p7
aF6.534075021743774
aatp8
Rp9
.ccollections
OrderedDict
p0
((lp1
(lp2
S'state'
p3
aI0
aa(lp4
S'distance'
p5
aF65.32745265960693
aa(lp6
S'timestamp'
p7
aF6.534757852554321
aatp8
Rp9
.ccollections
OrderedDict
p0
((lp1
(lp2
S'state'
p3
aI0
aa(lp4
S'distance'
p5
aF65.32745265960693
aa(lp6
S'timestamp'
p7
aF6.535111904144287
aatp8
Rp9
.ccollections
OrderedDict
p0
((lp1
(lp2
S'state'
p3
aI0
aa(lp4
S'distance'
p5
aF65.32745265960693
aa(lp6
S'timestamp'
p7
aF6.535274028778076
aatp8
Rp9
.ccollections
OrderedDict
p0
((lp1
(lp2
S'state'
p3
aI0
aa(lp4
S'distance'
p5
aF65.32745265960693
aa(lp6
S'timestamp'
p7
aF6.535953044891357
aatp8
Rp9
.ccollections
OrderedDict
p0
((lp1
(lp2
S'state'
p3
aI0
aa(lp4
S'distance'
p5
aF65.32745265960693
aa(lp6
S'timestamp'
p7
aF6.536113023757935
aatp8
Rp9
.ccollections
OrderedDict
p0
((lp1
(lp2
S'state'
p3
aI0
aa(lp4
S'distance'
p5
aF65.32745265960693
aa(lp6
S'timestamp'
p7
aF6.536365985870361
aatp8
Rp9
.ccollections
OrderedDict
p0
((lp1
(lp2
S'state'
p3
aI0
aa(lp4
S'distance'
p5
aF65.32745265960693
aa(lp6
S'timestamp'
p7
aF6.536861896514893
aatp8
Rp9
.ccollections
OrderedDict
p0
((lp1
(lp2
S'state'
p3
aI0
aa(lp4
S'distance'
p5
aF65.32745265960693
aa(lp6
S'timestamp'
p7
aF6.5374228954315186
aatp8
Rp9
.ccollections
OrderedDict
p0
((lp1
(lp2
S'state'
p3
aI0
aa(lp4
S'distance'
p5
aF65.32745265960693
aa(lp6
S'timestamp'
p7
aF6.538203001022339
aatp8
Rp9
.ccollections
OrderedDict
p0
((lp1
(lp2
S'state'
p3
aI0
aa(lp4
S'distance'
p5
aF65.32745265960693
aa(lp6
S'timestamp'
p7
aF6.539600849151611
aatp8
Rp9
.ccollections
OrderedDict
p0
((lp1
(lp2
S'state'
p3
aI0
aa(lp4
S'distance'
p5
aF65.32745265960693
aa(lp6
S'timestamp'
p7
aF6.540699005126953
aatp8
Rp9
.ccollections
OrderedDict
p0
((lp1
(lp2
S'state'
p3
aI0
aa(lp4
S'distance'
p5
aF65.32745265960693
aa(lp6
S'timestamp'
p7
aF6.541193008422852
aatp8
Rp9
.ccollections
OrderedDict
p0
((lp1
(lp2
S'state'
p3
aI0
aa(lp4
S'distance'
p5
aF65.32745265960693
aa(lp6
S'timestamp'
p7
aF6.541571855545044
aatp8
Rp9
.ccollections
OrderedDict
p0
((lp1
(lp2
S'state'
p3
aI0
aa(lp4
S'distance'
p5
aF65.32745265960693
aa(lp6
S'timestamp'
p7
aF6.5418689250946045
aatp8
Rp9
.ccollections
OrderedDict
p0
((lp1
(lp2
S'state'
p3
aI0
aa(lp4
S'distance'
p5
aF65.32745265960693
aa(lp6
S'timestamp'
p7
aF6.542201995849609
aatp8
Rp9
.ccollections
OrderedDict
p0
((lp1
(lp2
S'state'
p3
aI0
aa(lp4
S'distance'
p5
aF65.32745265960693
aa(lp6
S'timestamp'
p7
aF6.549440860748291
aatp8
Rp9
.ccollections
OrderedDict
p0
((lp1
(lp2
S'state'
p3
aI0
aa(lp4
S'distance'
p5
aF65.32745265960693
aa(lp6
S'timestamp'
p7
aF6.552917003631592
aatp8
Rp9
.ccollections
OrderedDict
p0
((lp1
(lp2
S'state'
p3
aI0
aa(lp4
S'distance'
p5
aF65.32745265960693
aa(lp6
S'timestamp'
p7
aF6.56021785736084
aatp8
Rp9
.ccollections
OrderedDict
p0
((lp1
(lp2
S'state'
p3
aI0
aa(lp4
S'distance'
p5
aF65.32745265960693
aa(lp6
S'timestamp'
p7
aF6.560621976852417
aatp8
Rp9
.ccollections
OrderedDict
p0
((lp1
(lp2
S'state'
p3
aI0
aa(lp4
S'distance'
p5
aF65.32745265960693
aa(lp6
S'timestamp'
p7
aF6.5692949295043945
aatp8
Rp9
.ccollections
OrderedDict
p0
((lp1
(lp2
S'state'
p3
aI0
aa(lp4
S'distance'
p5
aF65.32745265960693
aa(lp6
S'timestamp'
p7
aF6.569457054138184
aatp8
Rp9
.ccollections
OrderedDict
p0
((lp1
(lp2
S'state'
p3
aI0
aa(lp4
S'distance'
p5
aF65.32745265960693
aa(lp6
S'timestamp'
p7
aF6.578395843505859
aatp8
Rp9
.ccollections
OrderedDict
p0
((lp1
(lp2
S'state'
p3
aI0
aa(lp4
S'distance'
p5
aF65.32745265960693
aa(lp6
S'timestamp'
p7
aF6.579509973526001
aatp8
Rp9
.ccollections
OrderedDict
p0
((lp1
(lp2
S'state'
p3
aI0
aa(lp4
S'distance'
p5
aF65.32745265960693
aa(lp6
S'timestamp'
p7
aF6.59033203125
aatp8
Rp9
.ccollections
OrderedDict
p0
((lp1
(lp2
S'state'
p3
aI0
aa(lp4
S'distance'
p5
aF65.32745265960693
aa(lp6
S'timestamp'
p7
aF6.5907909870147705
aatp8
Rp9
.ccollections
OrderedDict
p0
((lp1
(lp2
S'state'
p3
aI0
aa(lp4
S'distance'
p5
aF65.32745265960693
aa(lp6
S'timestamp'
p7
aF6.598767042160034
aatp8
Rp9
.ccollections
OrderedDict
p0
((lp1
(lp2
S'state'
p3
aI0
aa(lp4
S'distance'
p5
aF65.32745265960693
aa(lp6
S'timestamp'
p7
aF6.5989439487457275
aatp8
Rp9
.ccollections
OrderedDict
p0
((lp1
(lp2
S'state'
p3
aI0
aa(lp4
S'distance'
p5
aF65.32745265960693
aa(lp6
S'timestamp'
p7
aF6.608078956604004
aatp8
Rp9
.ccollections
OrderedDict
p0
((lp1
(lp2
S'state'
p3
aI0
aa(lp4
S'distance'
p5
aF65.32745265960693
aa(lp6
S'timestamp'
p7
aF6.608857870101929
aatp8
Rp9
.ccollections
OrderedDict
p0
((lp1
(lp2
S'state'
p3
aI0
aa(lp4
S'distance'
p5
aF65.32745265960693
aa(lp6
S'timestamp'
p7
aF6.619809865951538
aatp8
Rp9
.ccollections
OrderedDict
p0
((lp1
(lp2
S'state'
p3
aI0
aa(lp4
S'distance'
p5
aF65.32745265960693
aa(lp6
S'timestamp'
p7
aF6.619935989379883
aatp8
Rp9
.ccollections
OrderedDict
p0
((lp1
(lp2
S'state'
p3
aI0
aa(lp4
S'distance'
p5
aF65.32745265960693
aa(lp6
S'timestamp'
p7
aF6.631042957305908
aatp8
Rp9
.ccollections
OrderedDict
p0
((lp1
(lp2
S'state'
p3
aI0
aa(lp4
S'distance'
p5
aF65.32745265960693
aa(lp6
S'timestamp'
p7
aF6.632114887237549
aatp8
Rp9
.ccollections
OrderedDict
p0
((lp1
(lp2
S'state'
p3
aI0
aa(lp4
S'distance'
p5
aF65.32745265960693
aa(lp6
S'timestamp'
p7
aF6.639643907546997
aatp8
Rp9
.ccollections
OrderedDict
p0
((lp1
(lp2
S'state'
p3
aI0
aa(lp4
S'distance'
p5
aF65.32745265960693
aa(lp6
S'timestamp'
p7
aF6.6397998332977295
aatp8
Rp9
.ccollections
OrderedDict
p0
((lp1
(lp2
S'state'
p3
aI0
aa(lp4
S'distance'
p5
aF65.32745265960693
aa(lp6
S'timestamp'
p7
aF6.648833990097046
aatp8
Rp9
.ccollections
OrderedDict
p0
((lp1
(lp2
S'state'
p3
aI0
aa(lp4
S'distance'
p5
aF65.32745265960693
aa(lp6
S'timestamp'
p7
aF6.649014949798584
aatp8
Rp9
.ccollections
OrderedDict
p0
((lp1
(lp2
S'state'
p3
aI0
aa(lp4
S'distance'
p5
aF65.32745265960693
aa(lp6
S'timestamp'
p7
aF6.668972969055176
aatp8
Rp9
.ccollections
OrderedDict
p0
((lp1
(lp2
S'state'
p3
aI0
aa(lp4
S'distance'
p5
aF65.32745265960693
aa(lp6
S'timestamp'
p7
aF6.669344902038574
aatp8
Rp9
.ccollections
OrderedDict
p0
((lp1
(lp2
S'state'
p3
aI0
aa(lp4
S'distance'
p5
aF65.32745265960693
aa(lp6
S'timestamp'
p7
aF6.669615030288696
aatp8
Rp9
.ccollections
OrderedDict
p0
((lp1
(lp2
S'state'
p3
aI0
aa(lp4
S'distance'
p5
aF65.32745265960693
aa(lp6
S'timestamp'
p7
aF6.6706578731536865
aatp8
Rp9
.ccollections
OrderedDict
p0
((lp1
(lp2
S'state'
p3
aI0
aa(lp4
S'distance'
p5
aF65.32745265960693
aa(lp6
S'timestamp'
p7
aF6.6783788204193115
aatp8
Rp9
.ccollections
OrderedDict
p0
((lp1
(lp2
S'state'
p3
aI0
aa(lp4
S'distance'
p5
aF65.32745265960693
aa(lp6
S'timestamp'
p7
aF6.679229021072388
aatp8
Rp9
.ccollections
OrderedDict
p0
((lp1
(lp2
S'state'
p3
aI0
aa(lp4
S'distance'
p5
aF65.32745265960693
aa(lp6
S'timestamp'
p7
aF6.688392877578735
aatp8
Rp9
.ccollections
OrderedDict
p0
((lp1
(lp2
S'state'
p3
aI0
aa(lp4
S'distance'
p5
aF65.32745265960693
aa(lp6
S'timestamp'
p7
aF6.689321994781494
aatp8
Rp9
.ccollections
OrderedDict
p0
((lp1
(lp2
S'state'
p3
aI0
aa(lp4
S'distance'
p5
aF65.32745265960693
aa(lp6
S'timestamp'
p7
aF6.709322929382324
aatp8
Rp9
.ccollections
OrderedDict
p0
((lp1
(lp2
S'state'
p3
aI0
aa(lp4
S'distance'
p5
aF65.32745265960693
aa(lp6
S'timestamp'
p7
aF6.7111639976501465
aatp8
Rp9
.ccollections
OrderedDict
p0
((lp1
(lp2
S'state'
p3
aI0
aa(lp4
S'distance'
p5
aF65.32745265960693
aa(lp6
S'timestamp'
p7
aF6.7116358280181885
aatp8
Rp9
.ccollections
OrderedDict
p0
((lp1
(lp2
S'state'
p3
aI0
aa(lp4
S'distance'
p5
aF65.32745265960693
aa(lp6
S'timestamp'
p7
aF6.712008953094482
aatp8
Rp9
.ccollections
OrderedDict
p0
((lp1
(lp2
S'state'
p3
aI0
aa(lp4
S'distance'
p5
aF65.32745265960693
aa(lp6
S'timestamp'
p7
aF6.718881845474243
aatp8
Rp9
.ccollections
OrderedDict
p0
((lp1
(lp2
S'state'
p3
aI0
aa(lp4
S'distance'
p5
aF65.32745265960693
aa(lp6
S'timestamp'
p7
aF6.720676898956299
aatp8
Rp9
.ccollections
OrderedDict
p0
((lp1
(lp2
S'state'
p3
aI0
aa(lp4
S'distance'
p5
aF65.32745265960693
aa(lp6
S'timestamp'
p7
aF6.728412866592407
aatp8
Rp9
.ccollections
OrderedDict
p0
((lp1
(lp2
S'state'
p3
aI0
aa(lp4
S'distance'
p5
aF65.32745265960693
aa(lp6
S'timestamp'
p7
aF6.729748964309692
aatp8
Rp9
.ccollections
OrderedDict
p0
((lp1
(lp2
S'state'
p3
aI0
aa(lp4
S'distance'
p5
aF65.32745265960693
aa(lp6
S'timestamp'
p7
aF6.739527940750122
aatp8
Rp9
.ccollections
OrderedDict
p0
((lp1
(lp2
S'state'
p3
aI0
aa(lp4
S'distance'
p5
aF65.32745265960693
aa(lp6
S'timestamp'
p7
aF6.739738941192627
aatp8
Rp9
.ccollections
OrderedDict
p0
((lp1
(lp2
S'state'
p3
aI0
aa(lp4
S'distance'
p5
aF65.32745265960693
aa(lp6
S'timestamp'
p7
aF6.748775959014893
aatp8
Rp9
.ccollections
OrderedDict
p0
((lp1
(lp2
S'state'
p3
aI0
aa(lp4
S'distance'
p5
aF65.32745265960693
aa(lp6
S'timestamp'
p7
aF6.749557018280029
aatp8
Rp9
.ccollections
OrderedDict
p0
((lp1
(lp2
S'state'
p3
aI0
aa(lp4
S'distance'
p5
aF65.32745265960693
aa(lp6
S'timestamp'
p7
aF6.758836984634399
aatp8
Rp9
.ccollections
OrderedDict
p0
((lp1
(lp2
S'state'
p3
aI0
aa(lp4
S'distance'
p5
aF65.32745265960693
aa(lp6
S'timestamp'
p7
aF6.760045051574707
aatp8
Rp9
.ccollections
OrderedDict
p0
((lp1
(lp2
S'state'
p3
aI0
aa(lp4
S'distance'
p5
aF65.32745265960693
aa(lp6
S'timestamp'
p7
aF6.768935918807983
aatp8
Rp9
.ccollections
OrderedDict
p0
((lp1
(lp2
S'state'
p3
aI0
aa(lp4
S'distance'
p5
aF65.32745265960693
aa(lp6
S'timestamp'
p7
aF6.7693798542022705
aatp8
Rp9
.ccollections
OrderedDict
p0
((lp1
(lp2
S'state'
p3
aI0
aa(lp4
S'distance'
p5
aF65.32745265960693
aa(lp6
S'timestamp'
p7
aF6.778985023498535
aatp8
Rp9
.ccollections
OrderedDict
p0
((lp1
(lp2
S'state'
p3
aI0
aa(lp4
S'distance'
p5
aF65.32745265960693
aa(lp6
S'timestamp'
p7
aF6.780611991882324
aatp8
Rp9
.ccollections
OrderedDict
p0
((lp1
(lp2
S'state'
p3
aI0
aa(lp4
S'distance'
p5
aF65.32745265960693
aa(lp6
S'timestamp'
p7
aF6.789973974227905
aatp8
Rp9
.ccollections
OrderedDict
p0
((lp1
(lp2
S'state'
p3
aI0
aa(lp4
S'distance'
p5
aF65.32745265960693
aa(lp6
S'timestamp'
p7
aF6.790689945220947
aatp8
Rp9
.ccollections
OrderedDict
p0
((lp1
(lp2
S'state'
p3
aI0
aa(lp4
S'distance'
p5
aF65.32745265960693
aa(lp6
S'timestamp'
p7
aF6.798975944519043
aatp8
Rp9
.ccollections
OrderedDict
p0
((lp1
(lp2
S'state'
p3
aI0
aa(lp4
S'distance'
p5
aF65.32745265960693
aa(lp6
S'timestamp'
p7
aF6.80062198638916
aatp8
Rp9
.ccollections
OrderedDict
p0
((lp1
(lp2
S'state'
p3
aI0
aa(lp4
S'distance'
p5
aF65.32745265960693
aa(lp6
S'timestamp'
p7
aF6.808823823928833
aatp8
Rp9
.ccollections
OrderedDict
p0
((lp1
(lp2
S'state'
p3
aI0
aa(lp4
S'distance'
p5
aF65.32745265960693
aa(lp6
S'timestamp'
p7
aF6.8107428550720215
aatp8
Rp9
.ccollections
OrderedDict
p0
((lp1
(lp2
S'state'
p3
aI0
aa(lp4
S'distance'
p5
aF65.32745265960693
aa(lp6
S'timestamp'
p7
aF6.819021940231323
aatp8
Rp9
.ccollections
OrderedDict
p0
((lp1
(lp2
S'state'
p3
aI0
aa(lp4
S'distance'
p5
aF65.32745265960693
aa(lp6
S'timestamp'
p7
aF6.820515871047974
aatp8
Rp9
.ccollections
OrderedDict
p0
((lp1
(lp2
S'state'
p3
aI0
aa(lp4
S'distance'
p5
aF65.32745265960693
aa(lp6
S'timestamp'
p7
aF6.828924894332886
aatp8
Rp9
.ccollections
OrderedDict
p0
((lp1
(lp2
S'state'
p3
aI0
aa(lp4
S'distance'
p5
aF65.32745265960693
aa(lp6
S'timestamp'
p7
aF6.829011917114258
aatp8
Rp9
.ccollections
OrderedDict
p0
((lp1
(lp2
S'state'
p3
aI0
aa(lp4
S'distance'
p5
aF65.32745265960693
aa(lp6
S'timestamp'
p7
aF6.838847875595093
aatp8
Rp9
.ccollections
OrderedDict
p0
((lp1
(lp2
S'state'
p3
aI0
aa(lp4
S'distance'
p5
aF65.32745265960693
aa(lp6
S'timestamp'
p7
aF6.8393659591674805
aatp8
Rp9
.ccollections
OrderedDict
p0
((lp1
(lp2
S'state'
p3
aI0
aa(lp4
S'distance'
p5
aF65.32745265960693
aa(lp6
S'timestamp'
p7
aF6.849381923675537
aatp8
Rp9
.ccollections
OrderedDict
p0
((lp1
(lp2
S'state'
p3
aI0
aa(lp4
S'distance'
p5
aF65.32745265960693
aa(lp6
S'timestamp'
p7
aF6.849630832672119
aatp8
Rp9
.ccollections
OrderedDict
p0
((lp1
(lp2
S'state'
p3
aI0
aa(lp4
S'distance'
p5
aF65.32745265960693
aa(lp6
S'timestamp'
p7
aF6.859014987945557
aatp8
Rp9
.ccollections
OrderedDict
p0
((lp1
(lp2
S'state'
p3
aI0
aa(lp4
S'distance'
p5
aF65.32745265960693
aa(lp6
S'timestamp'
p7
aF6.861196041107178
aatp8
Rp9
.ccollections
OrderedDict
p0
((lp1
(lp2
S'state'
p3
aI0
aa(lp4
S'distance'
p5
aF65.32745265960693
aa(lp6
S'timestamp'
p7
aF6.870616912841797
aatp8
Rp9
.ccollections
OrderedDict
p0
((lp1
(lp2
S'state'
p3
aI0
aa(lp4
S'distance'
p5
aF65.32745265960693
aa(lp6
S'timestamp'
p7
aF6.870690822601318
aatp8
Rp9
.ccollections
OrderedDict
p0
((lp1
(lp2
S'state'
p3
aI0
aa(lp4
S'distance'
p5
aF65.32745265960693
aa(lp6
S'timestamp'
p7
aF6.879495859146118
aatp8
Rp9
.ccollections
OrderedDict
p0
((lp1
(lp2
S'state'
p3
aI0
aa(lp4
S'distance'
p5
aF65.32745265960693
aa(lp6
S'timestamp'
p7
aF6.879823923110962
aatp8
Rp9
.ccollections
OrderedDict
p0
((lp1
(lp2
S'state'
p3
aI0
aa(lp4
S'distance'
p5
aF65.32745265960693
aa(lp6
S'timestamp'
p7
aF6.88924503326416
aatp8
Rp9
.ccollections
OrderedDict
p0
((lp1
(lp2
S'state'
p3
aI0
aa(lp4
S'distance'
p5
aF65.32745265960693
aa(lp6
S'timestamp'
p7
aF6.889595031738281
aatp8
Rp9
.ccollections
OrderedDict
p0
((lp1
(lp2
S'state'
p3
aI0
aa(lp4
S'distance'
p5
aF65.32745265960693
aa(lp6
S'timestamp'
p7
aF6.900138854980469
aatp8
Rp9
.ccollections
OrderedDict
p0
((lp1
(lp2
S'state'
p3
aI0
aa(lp4
S'distance'
p5
aF65.32745265960693
aa(lp6
S'timestamp'
p7
aF6.900547981262207
aatp8
Rp9
.ccollections
OrderedDict
p0
((lp1
(lp2
S'state'
p3
aI0
aa(lp4
S'distance'
p5
aF65.32745265960693
aa(lp6
S'timestamp'
p7
aF6.919975996017456
aatp8
Rp9
.ccollections
OrderedDict
p0
((lp1
(lp2
S'state'
p3
aI0
aa(lp4
S'distance'
p5
aF65.32745265960693
aa(lp6
S'timestamp'
p7
aF6.920512914657593
aatp8
Rp9
.ccollections
OrderedDict
p0
((lp1
(lp2
S'state'
p3
aI0
aa(lp4
S'distance'
p5
aF65.32745265960693
aa(lp6
S'timestamp'
p7
aF6.922960996627808
aatp8
Rp9
.ccollections
OrderedDict
p0
((lp1
(lp2
S'state'
p3
aI0
aa(lp4
S'distance'
p5
aF65.32745265960693
aa(lp6
S'timestamp'
p7
aF6.923034906387329
aatp8
Rp9
.ccollections
OrderedDict
p0
((lp1
(lp2
S'state'
p3
aI0
aa(lp4
S'distance'
p5
aF65.32745265960693
aa(lp6
S'timestamp'
p7
aF6.930194854736328
aatp8
Rp9
.ccollections
OrderedDict
p0
((lp1
(lp2
S'state'
p3
aI0
aa(lp4
S'distance'
p5
aF65.32745265960693
aa(lp6
S'timestamp'
p7
aF6.930620908737183
aatp8
Rp9
.ccollections
OrderedDict
p0
((lp1
(lp2
S'state'
p3
aI0
aa(lp4
S'distance'
p5
aF65.32745265960693
aa(lp6
S'timestamp'
p7
aF6.948390007019043
aatp8
Rp9
.ccollections
OrderedDict
p0
((lp1
(lp2
S'state'
p3
aI0
aa(lp4
S'distance'
p5
aF65.32745265960693
aa(lp6
S'timestamp'
p7
aF6.949405908584595
aatp8
Rp9
.ccollections
OrderedDict
p0
((lp1
(lp2
S'state'
p3
aI0
aa(lp4
S'distance'
p5
aF65.32745265960693
aa(lp6
S'timestamp'
p7
aF6.949656963348389
aatp8
Rp9
.ccollections
OrderedDict
p0
((lp1
(lp2
S'state'
p3
aI0
aa(lp4
S'distance'
p5
aF65.32745265960693
aa(lp6
S'timestamp'
p7
aF6.950625896453857
aatp8
Rp9
.ccollections
OrderedDict
p0
((lp1
(lp2
S'state'
p3
aI0
aa(lp4
S'distance'
p5
aF65.32745265960693
aa(lp6
S'timestamp'
p7
aF6.9602930545806885
aatp8
Rp9
.ccollections
OrderedDict
p0
((lp1
(lp2
S'state'
p3
aI0
aa(lp4
S'distance'
p5
aF65.32745265960693
aa(lp6
S'timestamp'
p7
aF6.960894823074341
aatp8
Rp9
.ccollections
OrderedDict
p0
((lp1
(lp2
S'state'
p3
aI0
aa(lp4
S'distance'
p5
aF65.32745265960693
aa(lp6
S'timestamp'
p7
aF6.969264030456543
aatp8
Rp9
.ccollections
OrderedDict
p0
((lp1
(lp2
S'state'
p3
aI0
aa(lp4
S'distance'
p5
aF65.32745265960693
aa(lp6
S'timestamp'
p7
aF6.969444036483765
aatp8
Rp9
.ccollections
OrderedDict
p0
((lp1
(lp2
S'state'
p3
aI0
aa(lp4
S'distance'
p5
aF65.32745265960693
aa(lp6
S'timestamp'
p7
aF6.9788408279418945
aatp8
Rp9
.ccollections
OrderedDict
p0
((lp1
(lp2
S'state'
p3
aI0
aa(lp4
S'distance'
p5
aF65.32745265960693
aa(lp6
S'timestamp'
p7
aF6.979519844055176
aatp8
Rp9
.ccollections
OrderedDict
p0
((lp1
(lp2
S'state'
p3
aI0
aa(lp4
S'distance'
p5
aF65.32745265960693
aa(lp6
S'timestamp'
p7
aF6.989176988601685
aatp8
Rp9
.ccollections
OrderedDict
p0
((lp1
(lp2
S'state'
p3
aI0
aa(lp4
S'distance'
p5
aF65.32745265960693
aa(lp6
S'timestamp'
p7
aF6.989555835723877
aatp8
Rp9
.ccollections
OrderedDict
p0
((lp1
(lp2
S'state'
p3
aI0
aa(lp4
S'distance'
p5
aF65.32745265960693
aa(lp6
S'timestamp'
p7
aF6.999294996261597
aatp8
Rp9
.ccollections
OrderedDict
p0
((lp1
(lp2
S'state'
p3
aI0
aa(lp4
S'distance'
p5
aF65.32745265960693
aa(lp6
S'timestamp'
p7
aF6.99950098991394
aatp8
Rp9
.ccollections
OrderedDict
p0
((lp1
(lp2
S'state'
p3
aI0
aa(lp4
S'distance'
p5
aF65.32745265960693
aa(lp6
S'timestamp'
p7
aF7.008405923843384
aatp8
Rp9
.ccollections
OrderedDict
p0
((lp1
(lp2
S'state'
p3
aI0
aa(lp4
S'distance'
p5
aF65.32745265960693
aa(lp6
S'timestamp'
p7
aF7.009490966796875
aatp8
Rp9
.ccollections
OrderedDict
p0
((lp1
(lp2
S'state'
p3
aI0
aa(lp4
S'distance'
p5
aF65.32745265960693
aa(lp6
S'timestamp'
p7
aF7.01885986328125
aatp8
Rp9
.ccollections
OrderedDict
p0
((lp1
(lp2
S'state'
p3
aI0
aa(lp4
S'distance'
p5
aF65.32745265960693
aa(lp6
S'timestamp'
p7
aF7.01961088180542
aatp8
Rp9
.ccollections
OrderedDict
p0
((lp1
(lp2
S'state'
p3
aI0
aa(lp4
S'distance'
p5
aF65.32745265960693
aa(lp6
S'timestamp'
p7
aF7.029274940490723
aatp8
Rp9
.ccollections
OrderedDict
p0
((lp1
(lp2
S'state'
p3
aI0
aa(lp4
S'distance'
p5
aF65.32745265960693
aa(lp6
S'timestamp'
p7
aF7.029443979263306
aatp8
Rp9
.ccollections
OrderedDict
p0
((lp1
(lp2
S'state'
p3
aI0
aa(lp4
S'distance'
p5
aF65.32745265960693
aa(lp6
S'timestamp'
p7
aF7.039513826370239
aatp8
Rp9
.ccollections
OrderedDict
p0
((lp1
(lp2
S'state'
p3
aI0
aa(lp4
S'distance'
p5
aF65.32745265960693
aa(lp6
S'timestamp'
p7
aF7.0399768352508545
aatp8
Rp9
.ccollections
OrderedDict
p0
((lp1
(lp2
S'state'
p3
aI0
aa(lp4
S'distance'
p5
aF65.32745265960693
aa(lp6
S'timestamp'
p7
aF7.048794984817505
aatp8
Rp9
.ccollections
OrderedDict
p0
((lp1
(lp2
S'state'
p3
aI0
aa(lp4
S'distance'
p5
aF65.32745265960693
aa(lp6
S'timestamp'
p7
aF7.049469947814941
aatp8
Rp9
.ccollections
OrderedDict
p0
((lp1
(lp2
S'state'
p3
aI0
aa(lp4
S'distance'
p5
aF65.32745265960693
aa(lp6
S'timestamp'
p7
aF7.058948993682861
aatp8
Rp9
.ccollections
OrderedDict
p0
((lp1
(lp2
S'state'
p3
aI0
aa(lp4
S'distance'
p5
aF65.32745265960693
aa(lp6
S'timestamp'
p7
aF7.059844970703125
aatp8
Rp9
.ccollections
OrderedDict
p0
((lp1
(lp2
S'state'
p3
aI0
aa(lp4
S'distance'
p5
aF65.32745265960693
aa(lp6
S'timestamp'
p7
aF7.080683946609497
aatp8
Rp9
.ccollections
OrderedDict
p0
((lp1
(lp2
S'state'
p3
aI0
aa(lp4
S'distance'
p5
aF65.32745265960693
aa(lp6
S'timestamp'
p7
aF7.080761909484863
aatp8
Rp9
.ccollections
OrderedDict
p0
((lp1
(lp2
S'state'
p3
aI0
aa(lp4
S'distance'
p5
aF65.32745265960693
aa(lp6
S'timestamp'
p7
aF7.080828905105591
aatp8
Rp9
.ccollections
OrderedDict
p0
((lp1
(lp2
S'state'
p3
aI0
aa(lp4
S'distance'
p5
aF65.32745265960693
aa(lp6
S'timestamp'
p7
aF7.080894947052002
aatp8
Rp9
.ccollections
OrderedDict
p0
((lp1
(lp2
S'state'
p3
aI0
aa(lp4
S'distance'
p5
aF65.32745265960693
aa(lp6
S'timestamp'
p7
aF7.088923931121826
aatp8
Rp9
.ccollections
OrderedDict
p0
((lp1
(lp2
S'state'
p3
aI0
aa(lp4
S'distance'
p5
aF65.32745265960693
aa(lp6
S'timestamp'
p7
aF7.089738845825195
aatp8
Rp9
.ccollections
OrderedDict
p0
((lp1
(lp2
S'state'
p3
aI0
aa(lp4
S'distance'
p5
aF65.32745265960693
aa(lp6
S'timestamp'
p7
aF7.101374864578247
aatp8
Rp9
.ccollections
OrderedDict
p0
((lp1
(lp2
S'state'
p3
aI0
aa(lp4
S'distance'
p5
aF65.32745265960693
aa(lp6
S'timestamp'
p7
aF7.102776050567627
aatp8
Rp9
.ccollections
OrderedDict
p0
((lp1
(lp2
S'state'
p3
aI0
aa(lp4
S'distance'
p5
aF65.32745265960693
aa(lp6
S'timestamp'
p7
aF7.111280918121338
aatp8
Rp9
.ccollections
OrderedDict
p0
((lp1
(lp2
S'state'
p3
aI0
aa(lp4
S'distance'
p5
aF65.32745265960693
aa(lp6
S'timestamp'
p7
aF7.111521005630493
aatp8
Rp9
.ccollections
OrderedDict
p0
((lp1
(lp2
S'state'
p3
aI0
aa(lp4
S'distance'
p5
aF65.32745265960693
aa(lp6
S'timestamp'
p7
aF7.118852853775024
aatp8
Rp9
.ccollections
OrderedDict
p0
((lp1
(lp2
S'state'
p3
aI0
aa(lp4
S'distance'
p5
aF65.32745265960693
aa(lp6
S'timestamp'
p7
aF7.120079040527344
aatp8
Rp9
.ccollections
OrderedDict
p0
((lp1
(lp2
S'state'
p3
aI0
aa(lp4
S'distance'
p5
aF65.32745265960693
aa(lp6
S'timestamp'
p7
aF7.129283905029297
aatp8
Rp9
.ccollections
OrderedDict
p0
((lp1
(lp2
S'state'
p3
aI0
aa(lp4
S'distance'
p5
aF65.32745265960693
aa(lp6
S'timestamp'
p7
aF7.130198001861572
aatp8
Rp9
.ccollections
OrderedDict
p0
((lp1
(lp2
S'state'
p3
aI0
aa(lp4
S'distance'
p5
aF65.32745265960693
aa(lp6
S'timestamp'
p7
aF7.149714946746826
aatp8
Rp9
.ccollections
OrderedDict
p0
((lp1
(lp2
S'state'
p3
aI0
aa(lp4
S'distance'
p5
aF65.32745265960693
aa(lp6
S'timestamp'
p7
aF7.149931907653809
aatp8
Rp9
.ccollections
OrderedDict
p0
((lp1
(lp2
S'state'
p3
aI0
aa(lp4
S'distance'
p5
aF65.32745265960693
aa(lp6
S'timestamp'
p7
aF7.151033878326416
aatp8
Rp9
.ccollections
OrderedDict
p0
((lp1
(lp2
S'state'
p3
aI0
aa(lp4
S'distance'
p5
aF65.32745265960693
aa(lp6
S'timestamp'
p7
aF7.151705980300903
aatp8
Rp9
.ccollections
OrderedDict
p0
((lp1
(lp2
S'state'
p3
aI0
aa(lp4
S'distance'
p5
aF65.32745265960693
aa(lp6
S'timestamp'
p7
aF7.158902883529663
aatp8
Rp9
.ccollections
OrderedDict
p0
((lp1
(lp2
S'state'
p3
aI0
aa(lp4
S'distance'
p5
aF65.32745265960693
aa(lp6
S'timestamp'
p7
aF7.159150838851929
aatp8
Rp9
.ccollections
OrderedDict
p0
((lp1
(lp2
S'state'
p3
aI0
aa(lp4
S'distance'
p5
aF65.32745265960693
aa(lp6
S'timestamp'
p7
aF7.169090986251831
aatp8
Rp9
.ccollections
OrderedDict
p0
((lp1
(lp2
S'state'
p3
aI0
aa(lp4
S'distance'
p5
aF65.32745265960693
aa(lp6
S'timestamp'
p7
aF7.169189929962158
aatp8
Rp9
.ccollections
OrderedDict
p0
((lp1
(lp2
S'state'
p3
aI0
aa(lp4
S'distance'
p5
aF65.32745265960693
aa(lp6
S'timestamp'
p7
aF7.179141998291016
aatp8
Rp9
.ccollections
OrderedDict
p0
((lp1
(lp2
S'state'
p3
aI0
aa(lp4
S'distance'
p5
aF65.32745265960693
aa(lp6
S'timestamp'
p7
aF7.180807828903198
aatp8
Rp9
.ccollections
OrderedDict
p0
((lp1
(lp2
S'state'
p3
aI0
aa(lp4
S'distance'
p5
aF65.32745265960693
aa(lp6
S'timestamp'
p7
aF7.188469886779785
aatp8
Rp9
.ccollections
OrderedDict
p0
((lp1
(lp2
S'state'
p3
aI0
aa(lp4
S'distance'
p5
aF65.32745265960693
aa(lp6
S'timestamp'
p7
aF7.190362930297852
aatp8
Rp9
.ccollections
OrderedDict
p0
((lp1
(lp2
S'state'
p3
aI0
aa(lp4
S'distance'
p5
aF65.32745265960693
aa(lp6
S'timestamp'
p7
aF7.199622869491577
aatp8
Rp9
.ccollections
OrderedDict
p0
((lp1
(lp2
S'state'
p3
aI0
aa(lp4
S'distance'
p5
aF65.32745265960693
aa(lp6
S'timestamp'
p7
aF7.200373888015747
aatp8
Rp9
.ccollections
OrderedDict
p0
((lp1
(lp2
S'state'
p3
aI0
aa(lp4
S'distance'
p5
aF65.32745265960693
aa(lp6
S'timestamp'
p7
aF7.209874868392944
aatp8
Rp9
.ccollections
OrderedDict
p0
((lp1
(lp2
S'state'
p3
aI0
aa(lp4
S'distance'
p5
aF65.32745265960693
aa(lp6
S'timestamp'
p7
aF7.209939956665039
aatp8
Rp9
.ccollections
OrderedDict
p0
((lp1
(lp2
S'state'
p3
aI0
aa(lp4
S'distance'
p5
aF65.32745265960693
aa(lp6
S'timestamp'
p7
aF7.220530986785889
aatp8
Rp9
.ccollections
OrderedDict
p0
((lp1
(lp2
S'state'
p3
aI0
aa(lp4
S'distance'
p5
aF65.32745265960693
aa(lp6
S'timestamp'
p7
aF7.220612049102783
aatp8
Rp9
.ccollections
OrderedDict
p0
((lp1
(lp2
S'state'
p3
aI0
aa(lp4
S'distance'
p5
aF65.32745265960693
aa(lp6
S'timestamp'
p7
aF7.234869956970215
aatp8
Rp9
.ccollections
OrderedDict
p0
((lp1
(lp2
S'state'
p3
aI0
aa(lp4
S'distance'
p5
aF65.32745265960693
aa(lp6
S'timestamp'
p7
aF7.236119031906128
aatp8
Rp9
.ccollections
OrderedDict
p0
((lp1
(lp2
S'state'
p3
aI0
aa(lp4
S'distance'
p5
aF65.32745265960693
aa(lp6
S'timestamp'
p7
aF7.24058985710144
aatp8
Rp9
.ccollections
OrderedDict
p0
((lp1
(lp2
S'state'
p3
aI0
aa(lp4
S'distance'
p5
aF65.32745265960693
aa(lp6
S'timestamp'
p7
aF7.241895914077759
aatp8
Rp9
.ccollections
OrderedDict
p0
((lp1
(lp2
S'state'
p3
aI0
aa(lp4
S'distance'
p5
aF65.32745265960693
aa(lp6
S'timestamp'
p7
aF7.248679876327515
aatp8
Rp9
.ccollections
OrderedDict
p0
((lp1
(lp2
S'state'
p3
aI0
aa(lp4
S'distance'
p5
aF65.32745265960693
aa(lp6
S'timestamp'
p7
aF7.2510199546813965
aatp8
Rp9
.ccollections
OrderedDict
p0
((lp1
(lp2
S'state'
p3
aI0
aa(lp4
S'distance'
p5
aF65.32745265960693
aa(lp6
S'timestamp'
p7
aF7.258540868759155
aatp8
Rp9
.ccollections
OrderedDict
p0
((lp1
(lp2
S'state'
p3
aI0
aa(lp4
S'distance'
p5
aF65.32745265960693
aa(lp6
S'timestamp'
p7
aF7.259229898452759
aatp8
Rp9
.ccollections
OrderedDict
p0
((lp1
(lp2
S'state'
p3
aI0
aa(lp4
S'distance'
p5
aF65.32745265960693
aa(lp6
S'timestamp'
p7
aF7.26856803894043
aatp8
Rp9
.ccollections
OrderedDict
p0
((lp1
(lp2
S'state'
p3
aI0
aa(lp4
S'distance'
p5
aF65.32745265960693
aa(lp6
S'timestamp'
p7
aF7.270856857299805
aatp8
Rp9
.ccollections
OrderedDict
p0
((lp1
(lp2
S'state'
p3
aI0
aa(lp4
S'distance'
p5
aF65.32745265960693
aa(lp6
S'timestamp'
p7
aF7.27844500541687
aatp8
Rp9
.ccollections
OrderedDict
p0
((lp1
(lp2
S'state'
p3
aI0
aa(lp4
S'distance'
p5
aF65.32745265960693
aa(lp6
S'timestamp'
p7
aF7.2803919315338135
aatp8
Rp9
.ccollections
OrderedDict
p0
((lp1
(lp2
S'state'
p3
aI0
aa(lp4
S'distance'
p5
aF65.32745265960693
aa(lp6
S'timestamp'
p7
aF7.289707899093628
aatp8
Rp9
.ccollections
OrderedDict
p0
((lp1
(lp2
S'state'
p3
aI0
aa(lp4
S'distance'
p5
aF65.32745265960693
aa(lp6
S'timestamp'
p7
aF7.289866924285889
aatp8
Rp9
.ccollections
OrderedDict
p0
((lp1
(lp2
S'state'
p3
aI0
aa(lp4
S'distance'
p5
aF65.32745265960693
aa(lp6
S'timestamp'
p7
aF7.299576044082642
aatp8
Rp9
.ccollections
OrderedDict
p0
((lp1
(lp2
S'state'
p3
aI0
aa(lp4
S'distance'
p5
aF65.32745265960693
aa(lp6
S'timestamp'
p7
aF7.31060004234314
aatp8
Rp9
.ccollections
OrderedDict
p0
((lp1
(lp2
S'state'
p3
aI0
aa(lp4
S'distance'
p5
aF65.32745265960693
aa(lp6
S'timestamp'
p7
aF7.310914039611816
aatp8
Rp9
.ccollections
OrderedDict
p0
((lp1
(lp2
S'state'
p3
aI0
aa(lp4
S'distance'
p5
aF65.32745265960693
aa(lp6
S'timestamp'
p7
aF7.311346054077148
aatp8
Rp9
.ccollections
OrderedDict
p0
((lp1
(lp2
S'state'
p3
aI0
aa(lp4
S'distance'
p5
aF65.32745265960693
aa(lp6
S'timestamp'
p7
aF7.31958794593811
aatp8
Rp9
.ccollections
OrderedDict
p0
((lp1
(lp2
S'state'
p3
aI0
aa(lp4
S'distance'
p5
aF65.32745265960693
aa(lp6
S'timestamp'
p7
aF7.319730043411255
aatp8
Rp9
.ccollections
OrderedDict
p0
((lp1
(lp2
S'state'
p3
aI0
aa(lp4
S'distance'
p5
aF65.32745265960693
aa(lp6
S'timestamp'
p7
aF7.329761028289795
aatp8
Rp9
.ccollections
OrderedDict
p0
((lp1
(lp2
S'state'
p3
aI0
aa(lp4
S'distance'
p5
aF65.32745265960693
aa(lp6
S'timestamp'
p7
aF7.330968856811523
aatp8
Rp9
.ccollections
OrderedDict
p0
((lp1
(lp2
S'state'
p3
aI0
aa(lp4
S'distance'
p5
aF65.32745265960693
aa(lp6
S'timestamp'
p7
aF7.3436150550842285
aatp8
Rp9
.ccollections
OrderedDict
p0
((lp1
(lp2
S'state'
p3
aI0
aa(lp4
S'distance'
p5
aF65.32745265960693
aa(lp6
S'timestamp'
p7
aF7.351840019226074
aatp8
Rp9
.ccollections
OrderedDict
p0
((lp1
(lp2
S'state'
p3
aI0
aa(lp4
S'distance'
p5
aF65.32745265960693
aa(lp6
S'timestamp'
p7
aF7.352977991104126
aatp8
Rp9
.ccollections
OrderedDict
p0
((lp1
(lp2
S'state'
p3
aI0
aa(lp4
S'distance'
p5
aF65.32745265960693
aa(lp6
S'timestamp'
p7
aF7.3534770011901855
aatp8
Rp9
.ccollections
OrderedDict
p0
((lp1
(lp2
S'state'
p3
aI0
aa(lp4
S'distance'
p5
aF65.32745265960693
aa(lp6
S'timestamp'
p7
aF7.37404203414917
aatp8
Rp9
.ccollections
OrderedDict
p0
((lp1
(lp2
S'state'
p3
aI0
aa(lp4
S'distance'
p5
aF65.32745265960693
aa(lp6
S'timestamp'
p7
aF7.386657953262329
aatp8
Rp9
.ccollections
OrderedDict
p0
((lp1
(lp2
S'state'
p3
aI0
aa(lp4
S'distance'
p5
aF65.32745265960693
aa(lp6
S'timestamp'
p7
aF7.387270927429199
aatp8
Rp9
.ccollections
OrderedDict
p0
((lp1
(lp2
S'state'
p3
aI0
aa(lp4
S'distance'
p5
aF65.32745265960693
aa(lp6
S'timestamp'
p7
aF7.390674829483032
aatp8
Rp9
.ccollections
OrderedDict
p0
((lp1
(lp2
S'state'
p3
aI0
aa(lp4
S'distance'
p5
aF65.32745265960693
aa(lp6
S'timestamp'
p7
aF7.39084792137146
aatp8
Rp9
.ccollections
OrderedDict
p0
((lp1
(lp2
S'state'
p3
aI0
aa(lp4
S'distance'
p5
aF65.32745265960693
aa(lp6
S'timestamp'
p7
aF7.3909900188446045
aatp8
Rp9
.ccollections
OrderedDict
p0
((lp1
(lp2
S'state'
p3
aI0
aa(lp4
S'distance'
p5
aF65.32745265960693
aa(lp6
S'timestamp'
p7
aF7.391118049621582
aatp8
Rp9
.ccollections
OrderedDict
p0
((lp1
(lp2
S'state'
p3
aI0
aa(lp4
S'distance'
p5
aF65.32745265960693
aa(lp6
S'timestamp'
p7
aF7.3924009799957275
aatp8
Rp9
.ccollections
OrderedDict
p0
((lp1
(lp2
S'state'
p3
aI0
aa(lp4
S'distance'
p5
aF65.32745265960693
aa(lp6
S'timestamp'
p7
aF7.399251937866211
aatp8
Rp9
.ccollections
OrderedDict
p0
((lp1
(lp2
S'state'
p3
aI0
aa(lp4
S'distance'
p5
aF65.32745265960693
aa(lp6
S'timestamp'
p7
aF7.399596929550171
aatp8
Rp9
.ccollections
OrderedDict
p0
((lp1
(lp2
S'state'
p3
aI0
aa(lp4
S'distance'
p5
aF65.32745265960693
aa(lp6
S'timestamp'
p7
aF7.4092090129852295
aatp8
Rp9
.ccollections
OrderedDict
p0
((lp1
(lp2
S'state'
p3
aI0
aa(lp4
S'distance'
p5
aF65.32745265960693
aa(lp6
S'timestamp'
p7
aF7.4093968868255615
aatp8
Rp9
.ccollections
OrderedDict
p0
((lp1
(lp2
S'state'
p3
aI0
aa(lp4
S'distance'
p5
aF65.32745265960693
aa(lp6
S'timestamp'
p7
aF7.419029951095581
aatp8
Rp9
.ccollections
OrderedDict
p0
((lp1
(lp2
S'state'
p3
aI0
aa(lp4
S'distance'
p5
aF65.32745265960693
aa(lp6
S'timestamp'
p7
aF7.419906854629517
aatp8
Rp9
.ccollections
OrderedDict
p0
((lp1
(lp2
S'state'
p3
aI0
aa(lp4
S'distance'
p5
aF65.32745265960693
aa(lp6
S'timestamp'
p7
aF7.429358005523682
aatp8
Rp9
.ccollections
OrderedDict
p0
((lp1
(lp2
S'state'
p3
aI0
aa(lp4
S'distance'
p5
aF65.32745265960693
aa(lp6
S'timestamp'
p7
aF7.429882049560547
aatp8
Rp9
.ccollections
OrderedDict
p0
((lp1
(lp2
S'state'
p3
aI0
aa(lp4
S'distance'
p5
aF65.32745265960693
aa(lp6
S'timestamp'
p7
aF7.449044942855835
aatp8
Rp9
.ccollections
OrderedDict
p0
((lp1
(lp2
S'state'
p3
aI0
aa(lp4
S'distance'
p5
aF65.32745265960693
aa(lp6
S'timestamp'
p7
aF7.449180841445923
aatp8
Rp9
.ccollections
OrderedDict
p0
((lp1
(lp2
S'state'
p3
aI0
aa(lp4
S'distance'
p5
aF65.32745265960693
aa(lp6
S'timestamp'
p7
aF7.449789047241211
aatp8
Rp9
.ccollections
OrderedDict
p0
((lp1
(lp2
S'state'
p3
aI0
aa(lp4
S'distance'
p5
aF65.32745265960693
aa(lp6
S'timestamp'
p7
aF7.450516939163208
aatp8
Rp9
.ccollections
OrderedDict
p0
((lp1
(lp2
S'state'
p3
aI0
aa(lp4
S'distance'
p5
aF65.32745265960693
aa(lp6
S'timestamp'
p7
aF7.459425926208496
aatp8
Rp9
.ccollections
OrderedDict
p0
((lp1
(lp2
S'state'
p3
aI0
aa(lp4
S'distance'
p5
aF65.32745265960693
aa(lp6
S'timestamp'
p7
aF7.460144996643066
aatp8
Rp9
.ccollections
OrderedDict
p0
((lp1
(lp2
S'state'
p3
aI0
aa(lp4
S'distance'
p5
aF65.32745265960693
aa(lp6
S'timestamp'
p7
aF7.488231897354126
aatp8
Rp9
.ccollections
OrderedDict
p0
((lp1
(lp2
S'state'
p3
aI0
aa(lp4
S'distance'
p5
aF65.32745265960693
aa(lp6
S'timestamp'
p7
aF7.488728046417236
aatp8
Rp9
.ccollections
OrderedDict
p0
((lp1
(lp2
S'state'
p3
aI0
aa(lp4
S'distance'
p5
aF65.32745265960693
aa(lp6
S'timestamp'
p7
aF7.490422010421753
aatp8
Rp9
.ccollections
OrderedDict
p0
((lp1
(lp2
S'state'
p3
aI0
aa(lp4
S'distance'
p5
aF65.32745265960693
aa(lp6
S'timestamp'
p7
aF7.490571022033691
aatp8
Rp9
.ccollections
OrderedDict
p0
((lp1
(lp2
S'state'
p3
aI0
aa(lp4
S'distance'
p5
aF65.32745265960693
aa(lp6
S'timestamp'
p7
aF7.500964879989624
aatp8
Rp9
.ccollections
OrderedDict
p0
((lp1
(lp2
S'state'
p3
aI0
aa(lp4
S'distance'
p5
aF65.32745265960693
aa(lp6
S'timestamp'
p7
aF7.501202821731567
aatp8
Rp9
.ccollections
OrderedDict
p0
((lp1
(lp2
S'state'
p3
aI0
aa(lp4
S'distance'
p5
aF65.32745265960693
aa(lp6
S'timestamp'
p7
aF7.501489877700806
aatp8
Rp9
.ccollections
OrderedDict
p0
((lp1
(lp2
S'state'
p3
aI0
aa(lp4
S'distance'
p5
aF65.32745265960693
aa(lp6
S'timestamp'
p7
aF7.5017828941345215
aatp8
Rp9
.ccollections
OrderedDict
p0
((lp1
(lp2
S'state'
p3
aI0
aa(lp4
S'distance'
p5
aF65.32745265960693
aa(lp6
S'timestamp'
p7
aF7.509045839309692
aatp8
Rp9
.ccollections
OrderedDict
p0
((lp1
(lp2
S'state'
p3
aI0
aa(lp4
S'distance'
p5
aF65.32745265960693
aa(lp6
S'timestamp'
p7
aF7.509281873703003
aatp8
Rp9
.ccollections
OrderedDict
p0
((lp1
(lp2
S'state'
p3
aI0
aa(lp4
S'distance'
p5
aF65.32745265960693
aa(lp6
S'timestamp'
p7
aF7.529991865158081
aatp8
Rp9
.ccollections
OrderedDict
p0
((lp1
(lp2
S'state'
p3
aI0
aa(lp4
S'distance'
p5
aF65.32745265960693
aa(lp6
S'timestamp'
p7
aF7.530073881149292
aatp8
Rp9
.ccollections
OrderedDict
p0
((lp1
(lp2
S'state'
p3
aI0
aa(lp4
S'distance'
p5
aF65.32745265960693
aa(lp6
S'timestamp'
p7
aF7.53823184967041
aatp8
Rp9
.ccollections
OrderedDict
p0
((lp1
(lp2
S'state'
p3
aI0
aa(lp4
S'distance'
p5
aF65.32745265960693
aa(lp6
S'timestamp'
p7
aF7.538688898086548
aatp8
Rp9
.ccollections
OrderedDict
p0
((lp1
(lp2
S'state'
p3
aI0
aa(lp4
S'distance'
p5
aF65.32745265960693
aa(lp6
S'timestamp'
p7
aF7.5398969650268555
aatp8
Rp9
.ccollections
OrderedDict
p0
((lp1
(lp2
S'state'
p3
aI0
aa(lp4
S'distance'
p5
aF65.32745265960693
aa(lp6
S'timestamp'
p7
aF7.5408220291137695
aatp8
Rp9
.ccollections
OrderedDict
p0
((lp1
(lp2
S'state'
p3
aI0
aa(lp4
S'distance'
p5
aF65.32745265960693
aa(lp6
S'timestamp'
p7
aF7.549892902374268
aatp8
Rp9
.ccollections
OrderedDict
p0
((lp1
(lp2
S'state'
p3
aI0
aa(lp4
S'distance'
p5
aF65.32745265960693
aa(lp6
S'timestamp'
p7
aF7.550134897232056
aatp8
Rp9
.ccollections
OrderedDict
p0
((lp1
(lp2
S'state'
p3
aI0
aa(lp4
S'distance'
p5
aF65.32745265960693
aa(lp6
S'timestamp'
p7
aF7.558418035507202
aatp8
Rp9
.ccollections
OrderedDict
p0
((lp1
(lp2
S'state'
p3
aI0
aa(lp4
S'distance'
p5
aF65.32745265960693
aa(lp6
S'timestamp'
p7
aF7.558837890625
aatp8
Rp9
.ccollections
OrderedDict
p0
((lp1
(lp2
S'state'
p3
aI0
aa(lp4
S'distance'
p5
aF65.32745265960693
aa(lp6
S'timestamp'
p7
aF7.578886985778809
aatp8
Rp9
.ccollections
OrderedDict
p0
((lp1
(lp2
S'state'
p3
aI0
aa(lp4
S'distance'
p5
aF65.32745265960693
aa(lp6
S'timestamp'
p7
aF7.579763889312744
aatp8
Rp9
.ccollections
OrderedDict
p0
((lp1
(lp2
S'state'
p3
aI0
aa(lp4
S'distance'
p5
aF65.32745265960693
aa(lp6
S'timestamp'
p7
aF7.579967975616455
aatp8
Rp9
.ccollections
OrderedDict
p0
((lp1
(lp2
S'state'
p3
aI0
aa(lp4
S'distance'
p5
aF65.32745265960693
aa(lp6
S'timestamp'
p7
aF7.58053994178772
aatp8
Rp9
.ccollections
OrderedDict
p0
((lp1
(lp2
S'state'
p3
aI0
aa(lp4
S'distance'
p5
aF65.32745265960693
aa(lp6
S'timestamp'
p7
aF7.5887579917907715
aatp8
Rp9
.ccollections
OrderedDict
p0
((lp1
(lp2
S'state'
p3
aI0
aa(lp4
S'distance'
p5
aF65.32745265960693
aa(lp6
S'timestamp'
p7
aF7.590112924575806
aatp8
Rp9
.ccollections
OrderedDict
p0
((lp1
(lp2
S'state'
p3
aI0
aa(lp4
S'distance'
p5
aF65.32745265960693
aa(lp6
S'timestamp'
p7
aF7.5991199016571045
aatp8
Rp9
.ccollections
OrderedDict
p0
((lp1
(lp2
S'state'
p3
aI0
aa(lp4
S'distance'
p5
aF65.32745265960693
aa(lp6
S'timestamp'
p7
aF7.6003148555755615
aatp8
Rp9
.ccollections
OrderedDict
p0
((lp1
(lp2
S'state'
p3
aI0
aa(lp4
S'distance'
p5
aF65.32745265960693
aa(lp6
S'timestamp'
p7
aF7.608865976333618
aatp8
Rp9
.ccollections
OrderedDict
p0
((lp1
(lp2
S'state'
p3
aI0
aa(lp4
S'distance'
p5
aF65.32745265960693
aa(lp6
S'timestamp'
p7
aF7.609078884124756
aatp8
Rp9
.ccollections
OrderedDict
p0
((lp1
(lp2
S'state'
p3
aI0
aa(lp4
S'distance'
p5
aF65.32745265960693
aa(lp6
S'timestamp'
p7
aF7.618306875228882
aatp8
Rp9
.ccollections
OrderedDict
p0
((lp1
(lp2
S'state'
p3
aI0
aa(lp4
S'distance'
p5
aF65.32745265960693
aa(lp6
S'timestamp'
p7
aF7.6199140548706055
aatp8
Rp9
.ccollections
OrderedDict
p0
((lp1
(lp2
S'state'
p3
aI0
aa(lp4
S'distance'
p5
aF65.32745265960693
aa(lp6
S'timestamp'
p7
aF7.628870964050293
aatp8
Rp9
.ccollections
OrderedDict
p0
((lp1
(lp2
S'state'
p3
aI0
aa(lp4
S'distance'
p5
aF65.32745265960693
aa(lp6
S'timestamp'
p7
aF7.630415916442871
aatp8
Rp9
.ccollections
OrderedDict
p0
((lp1
(lp2
S'state'
p3
aI0
aa(lp4
S'distance'
p5
aF65.32745265960693
aa(lp6
S'timestamp'
p7
aF7.63897705078125
aatp8
Rp9
.ccollections
OrderedDict
p0
((lp1
(lp2
S'state'
p3
aI0
aa(lp4
S'distance'
p5
aF65.32745265960693
aa(lp6
S'timestamp'
p7
aF7.639750957489014
aatp8
Rp9
.ccollections
OrderedDict
p0
((lp1
(lp2
S'state'
p3
aI0
aa(lp4
S'distance'
p5
aF65.32745265960693
aa(lp6
S'timestamp'
p7
aF7.649374008178711
aatp8
Rp9
.ccollections
OrderedDict
p0
((lp1
(lp2
S'state'
p3
aI0
aa(lp4
S'distance'
p5
aF65.32745265960693
aa(lp6
S'timestamp'
p7
aF7.649622917175293
aatp8
Rp9
.ccollections
OrderedDict
p0
((lp1
(lp2
S'state'
p3
aI0
aa(lp4
S'distance'
p5
aF65.32745265960693
aa(lp6
S'timestamp'
p7
aF7.66069483757019
aatp8
Rp9
.ccollections
OrderedDict
p0
((lp1
(lp2
S'state'
p3
aI0
aa(lp4
S'distance'
p5
aF65.32745265960693
aa(lp6
S'timestamp'
p7
aF7.661224842071533
aatp8
Rp9
.ccollections
OrderedDict
p0
((lp1
(lp2
S'state'
p3
aI0
aa(lp4
S'distance'
p5
aF65.32745265960693
aa(lp6
S'timestamp'
p7
aF7.669041872024536
aatp8
Rp9
.ccollections
OrderedDict
p0
((lp1
(lp2
S'state'
p3
aI0
aa(lp4
S'distance'
p5
aF65.32745265960693
aa(lp6
S'timestamp'
p7
aF7.669831991195679
aatp8
Rp9
.ccollections
OrderedDict
p0
((lp1
(lp2
S'state'
p3
aI0
aa(lp4
S'distance'
p5
aF65.32745265960693
aa(lp6
S'timestamp'
p7
aF7.678478956222534
aatp8
Rp9
.ccollections
OrderedDict
p0
((lp1
(lp2
S'state'
p3
aI0
aa(lp4
S'distance'
p5
aF65.32745265960693
aa(lp6
S'timestamp'
p7
aF7.679033041000366
aatp8
Rp9
.ccollections
OrderedDict
p0
((lp1
(lp2
S'state'
p3
aI0
aa(lp4
S'distance'
p5
aF65.32745265960693
aa(lp6
S'timestamp'
p7
aF7.689594984054565
aatp8
Rp9
.ccollections
OrderedDict
p0
((lp1
(lp2
S'state'
p3
aI0
aa(lp4
S'distance'
p5
aF65.32745265960693
aa(lp6
S'timestamp'
p7
aF7.689764022827148
aatp8
Rp9
.ccollections
OrderedDict
p0
((lp1
(lp2
S'state'
p3
aI0
aa(lp4
S'distance'
p5
aF65.32745265960693
aa(lp6
S'timestamp'
p7
aF7.699547052383423
aatp8
Rp9
.ccollections
OrderedDict
p0
((lp1
(lp2
S'state'
p3
aI0
aa(lp4
S'distance'
p5
aF65.32745265960693
aa(lp6
S'timestamp'
p7
aF7.699832916259766
aatp8
Rp9
.ccollections
OrderedDict
p0
((lp1
(lp2
S'state'
p3
aI0
aa(lp4
S'distance'
p5
aF65.32745265960693
aa(lp6
S'timestamp'
p7
aF7.70937705039978
aatp8
Rp9
.ccollections
OrderedDict
p0
((lp1
(lp2
S'state'
p3
aI0
aa(lp4
S'distance'
p5
aF65.32745265960693
aa(lp6
S'timestamp'
p7
aF7.710261821746826
aatp8
Rp9
.ccollections
OrderedDict
p0
((lp1
(lp2
S'state'
p3
aI0
aa(lp4
S'distance'
p5
aF65.32745265960693
aa(lp6
S'timestamp'
p7
aF7.71877384185791
aatp8
Rp9
.ccollections
OrderedDict
p0
((lp1
(lp2
S'state'
p3
aI0
aa(lp4
S'distance'
p5
aF65.32745265960693
aa(lp6
S'timestamp'
p7
aF7.7196948528289795
aatp8
Rp9
.ccollections
OrderedDict
p0
((lp1
(lp2
S'state'
p3
aI0
aa(lp4
S'distance'
p5
aF65.32745265960693
aa(lp6
S'timestamp'
p7
aF7.729782819747925
aatp8
Rp9
.ccollections
OrderedDict
p0
((lp1
(lp2
S'state'
p3
aI0
aa(lp4
S'distance'
p5
aF65.32745265960693
aa(lp6
S'timestamp'
p7
aF7.729940891265869
aatp8
Rp9
.ccollections
OrderedDict
p0
((lp1
(lp2
S'state'
p3
aI0
aa(lp4
S'distance'
p5
aF65.32745265960693
aa(lp6
S'timestamp'
p7
aF7.739742040634155
aatp8
Rp9
.ccollections
OrderedDict
p0
((lp1
(lp2
S'state'
p3
aI0
aa(lp4
S'distance'
p5
aF65.32745265960693
aa(lp6
S'timestamp'
p7
aF7.741086959838867
aatp8
Rp9
.ccollections
OrderedDict
p0
((lp1
(lp2
S'state'
p3
aI0
aa(lp4
S'distance'
p5
aF65.32745265960693
aa(lp6
S'timestamp'
p7
aF7.74888801574707
aatp8
Rp9
.ccollections
OrderedDict
p0
((lp1
(lp2
S'state'
p3
aI0
aa(lp4
S'distance'
p5
aF65.32745265960693
aa(lp6
S'timestamp'
p7
aF7.750466823577881
aatp8
Rp9
.ccollections
OrderedDict
p0
((lp1
(lp2
S'state'
p3
aI0
aa(lp4
S'distance'
p5
aF65.32745265960693
aa(lp6
S'timestamp'
p7
aF7.760244846343994
aatp8
Rp9
.ccollections
OrderedDict
p0
((lp1
(lp2
S'state'
p3
aI0
aa(lp4
S'distance'
p5
aF65.32745265960693
aa(lp6
S'timestamp'
p7
aF7.760313987731934
aatp8
Rp9
.ccollections
OrderedDict
p0
((lp1
(lp2
S'state'
p3
aI0
aa(lp4
S'distance'
p5
aF65.32745265960693
aa(lp6
S'timestamp'
p7
aF7.769683837890625
aatp8
Rp9
.ccollections
OrderedDict
p0
((lp1
(lp2
S'state'
p3
aI0
aa(lp4
S'distance'
p5
aF65.32745265960693
aa(lp6
S'timestamp'
p7
aF7.769965887069702
aatp8
Rp9
.ccollections
OrderedDict
p0
((lp1
(lp2
S'state'
p3
aI0
aa(lp4
S'distance'
p5
aF65.32745265960693
aa(lp6
S'timestamp'
p7
aF7.7790679931640625
aatp8
Rp9
.ccollections
OrderedDict
p0
((lp1
(lp2
S'state'
p3
aI0
aa(lp4
S'distance'
p5
aF65.32745265960693
aa(lp6
S'timestamp'
p7
aF7.780580043792725
aatp8
Rp9
.ccollections
OrderedDict
p0
((lp1
(lp2
S'state'
p3
aI0
aa(lp4
S'distance'
p5
aF65.32745265960693
aa(lp6
S'timestamp'
p7
aF7.788846015930176
aatp8
Rp9
.ccollections
OrderedDict
p0
((lp1
(lp2
S'state'
p3
aI0
aa(lp4
S'distance'
p5
aF65.32745265960693
aa(lp6
S'timestamp'
p7
aF7.789310932159424
aatp8
Rp9
.ccollections
OrderedDict
p0
((lp1
(lp2
S'state'
p3
aI0
aa(lp4
S'distance'
p5
aF65.32745265960693
aa(lp6
S'timestamp'
p7
aF7.799484014511108
aatp8
Rp9
.ccollections
OrderedDict
p0
((lp1
(lp2
S'state'
p3
aI0
aa(lp4
S'distance'
p5
aF65.32745265960693
aa(lp6
S'timestamp'
p7
aF7.799607038497925
aatp8
Rp9
.ccollections
OrderedDict
p0
((lp1
(lp2
S'state'
p3
aI0
aa(lp4
S'distance'
p5
aF65.32745265960693
aa(lp6
S'timestamp'
p7
aF7.818536043167114
aatp8
Rp9
.ccollections
OrderedDict
p0
((lp1
(lp2
S'state'
p3
aI0
aa(lp4
S'distance'
p5
aF65.32745265960693
aa(lp6
S'timestamp'
p7
aF7.821923017501831
aatp8
Rp9
.ccollections
OrderedDict
p0
((lp1
(lp2
S'state'
p3
aI0
aa(lp4
S'distance'
p5
aF65.32745265960693
aa(lp6
S'timestamp'
p7
aF7.822070837020874
aatp8
Rp9
.ccollections
OrderedDict
p0
((lp1
(lp2
S'state'
p3
aI0
aa(lp4
S'distance'
p5
aF65.32745265960693
aa(lp6
S'timestamp'
p7
aF7.824805021286011
aatp8
Rp9
.ccollections
OrderedDict
p0
((lp1
(lp2
S'state'
p3
aI0
aa(lp4
S'distance'
p5
aF65.32745265960693
aa(lp6
S'timestamp'
p7
aF7.830267906188965
aatp8
Rp9
.ccollections
OrderedDict
p0
((lp1
(lp2
S'state'
p3
aI0
aa(lp4
S'distance'
p5
aF65.32745265960693
aa(lp6
S'timestamp'
p7
aF7.832867860794067
aatp8
Rp9
.ccollections
OrderedDict
p0
((lp1
(lp2
S'state'
p3
aI0
aa(lp4
S'distance'
p5
aF65.32745265960693
aa(lp6
S'timestamp'
p7
aF7.839092016220093
aatp8
Rp9
.ccollections
OrderedDict
p0
((lp1
(lp2
S'state'
p3
aI0
aa(lp4
S'distance'
p5
aF65.32745265960693
aa(lp6
S'timestamp'
p7
aF7.839193820953369
aatp8
Rp9
.ccollections
OrderedDict
p0
((lp1
(lp2
S'state'
p3
aI0
aa(lp4
S'distance'
p5
aF65.32745265960693
aa(lp6
S'timestamp'
p7
aF7.849097967147827
aatp8
Rp9
.ccollections
OrderedDict
p0
((lp1
(lp2
S'state'
p3
aI0
aa(lp4
S'distance'
p5
aF65.32745265960693
aa(lp6
S'timestamp'
p7
aF7.849493026733398
aatp8
Rp9
.ccollections
OrderedDict
p0
((lp1
(lp2
S'state'
p3
aI0
aa(lp4
S'distance'
p5
aF65.32745265960693
aa(lp6
S'timestamp'
p7
aF7.8588080406188965
aatp8
Rp9
.ccollections
OrderedDict
p0
((lp1
(lp2
S'state'
p3
aI0
aa(lp4
S'distance'
p5
aF65.32745265960693
aa(lp6
S'timestamp'
p7
aF7.859067916870117
aatp8
Rp9
.ccollections
OrderedDict
p0
((lp1
(lp2
S'state'
p3
aI0
aa(lp4
S'distance'
p5
aF65.32745265960693
aa(lp6
S'timestamp'
p7
aF7.870131015777588
aatp8
Rp9
.ccollections
OrderedDict
p0
((lp1
(lp2
S'state'
p3
aI0
aa(lp4
S'distance'
p5
aF65.32745265960693
aa(lp6
S'timestamp'
p7
aF7.870483875274658
aatp8
Rp9
.ccollections
OrderedDict
p0
((lp1
(lp2
S'state'
p3
aI0
aa(lp4
S'distance'
p5
aF65.32745265960693
aa(lp6
S'timestamp'
p7
aF7.879845857620239
aatp8
Rp9
.ccollections
OrderedDict
p0
((lp1
(lp2
S'state'
p3
aI0
aa(lp4
S'distance'
p5
aF65.32745265960693
aa(lp6
S'timestamp'
p7
aF7.880053997039795
aatp8
Rp9
.ccollections
OrderedDict
p0
((lp1
(lp2
S'state'
p3
aI0
aa(lp4
S'distance'
p5
aF65.32745265960693
aa(lp6
S'timestamp'
p7
aF7.888919830322266
aatp8
Rp9
.ccollections
OrderedDict
p0
((lp1
(lp2
S'state'
p3
aI0
aa(lp4
S'distance'
p5
aF65.32745265960693
aa(lp6
S'timestamp'
p7
aF7.8904688358306885
aatp8
Rp9
.ccollections
OrderedDict
p0
((lp1
(lp2
S'state'
p3
aI0
aa(lp4
S'distance'
p5
aF65.32745265960693
aa(lp6
S'timestamp'
p7
aF7.899862051010132
aatp8
Rp9
.ccollections
OrderedDict
p0
((lp1
(lp2
S'state'
p3
aI0
aa(lp4
S'distance'
p5
aF65.32745265960693
aa(lp6
S'timestamp'
p7
aF7.900018930435181
aatp8
Rp9
.ccollections
OrderedDict
p0
((lp1
(lp2
S'state'
p3
aI0
aa(lp4
S'distance'
p5
aF65.32745265960693
aa(lp6
S'timestamp'
p7
aF7.908905982971191
aatp8
Rp9
.ccollections
OrderedDict
p0
((lp1
(lp2
S'state'
p3
aI0
aa(lp4
S'distance'
p5
aF65.32745265960693
aa(lp6
S'timestamp'
p7
aF7.910106897354126
aatp8
Rp9
.ccollections
OrderedDict
p0
((lp1
(lp2
S'state'
p3
aI0
aa(lp4
S'distance'
p5
aF65.32745265960693
aa(lp6
S'timestamp'
p7
aF7.918737888336182
aatp8
Rp9
.ccollections
OrderedDict
p0
((lp1
(lp2
S'state'
p3
aI0
aa(lp4
S'distance'
p5
aF65.32745265960693
aa(lp6
S'timestamp'
p7
aF7.9198899269104
aatp8
Rp9
.ccollections
OrderedDict
p0
((lp1
(lp2
S'state'
p3
aI0
aa(lp4
S'distance'
p5
aF65.32745265960693
aa(lp6
S'timestamp'
p7
aF7.931290864944458
aatp8
Rp9
.ccollections
OrderedDict
p0
((lp1
(lp2
S'state'
p3
aI0
aa(lp4
S'distance'
p5
aF65.32745265960693
aa(lp6
S'timestamp'
p7
aF7.931365966796875
aatp8
Rp9
.ccollections
OrderedDict
p0
((lp1
(lp2
S'state'
p3
aI0
aa(lp4
S'distance'
p5
aF65.32745265960693
aa(lp6
S'timestamp'
p7
aF7.939023017883301
aatp8
Rp9
.ccollections
OrderedDict
p0
((lp1
(lp2
S'state'
p3
aI0
aa(lp4
S'distance'
p5
aF65.32745265960693
aa(lp6
S'timestamp'
p7
aF7.9395270347595215
aatp8
Rp9
.ccollections
OrderedDict
p0
((lp1
(lp2
S'state'
p3
aI0
aa(lp4
S'distance'
p5
aF65.32745265960693
aa(lp6
S'timestamp'
p7
aF7.948840856552124
aatp8
Rp9
.ccollections
OrderedDict
p0
((lp1
(lp2
S'state'
p3
aI0
aa(lp4
S'distance'
p5
aF65.32745265960693
aa(lp6
S'timestamp'
p7
aF7.950716972351074
aatp8
Rp9
.ccollections
OrderedDict
p0
((lp1
(lp2
S'state'
p3
aI0
aa(lp4
S'distance'
p5
aF65.32745265960693
aa(lp6
S'timestamp'
p7
aF7.959635972976685
aatp8
Rp9
.ccollections
OrderedDict
p0
((lp1
(lp2
S'state'
p3
aI0
aa(lp4
S'distance'
p5
aF65.32745265960693
aa(lp6
S'timestamp'
p7
aF7.9597649574279785
aatp8
Rp9
.ccollections
OrderedDict
p0
((lp1
(lp2
S'state'
p3
aI0
aa(lp4
S'distance'
p5
aF65.32745265960693
aa(lp6
S'timestamp'
p7
aF7.968933820724487
aatp8
Rp9
.ccollections
OrderedDict
p0
((lp1
(lp2
S'state'
p3
aI0
aa(lp4
S'distance'
p5
aF65.32745265960693
aa(lp6
S'timestamp'
p7
aF7.9701080322265625
aatp8
Rp9
.ccollections
OrderedDict
p0
((lp1
(lp2
S'state'
p3
aI0
aa(lp4
S'distance'
p5
aF65.32745265960693
aa(lp6
S'timestamp'
p7
aF7.980185031890869
aatp8
Rp9
.ccollections
OrderedDict
p0
((lp1
(lp2
S'state'
p3
aI0
aa(lp4
S'distance'
p5
aF65.32745265960693
aa(lp6
S'timestamp'
p7
aF7.980352878570557
aatp8
Rp9
.ccollections
OrderedDict
p0
((lp1
(lp2
S'state'
p3
aI0
aa(lp4
S'distance'
p5
aF65.32745265960693
aa(lp6
S'timestamp'
p7
aF7.98931884765625
aatp8
Rp9
.ccollections
OrderedDict
p0
((lp1
(lp2
S'state'
p3
aI0
aa(lp4
S'distance'
p5
aF65.32745265960693
aa(lp6
S'timestamp'
p7
aF7.990294933319092
aatp8
Rp9
.ccollections
OrderedDict
p0
((lp1
(lp2
S'state'
p3
aI0
aa(lp4
S'distance'
p5
aF65.32745265960693
aa(lp6
S'timestamp'
p7
aF7.998386859893799
aatp8
Rp9
.ccollections
OrderedDict
p0
((lp1
(lp2
S'state'
p3
aI0
aa(lp4
S'distance'
p5
aF65.32745265960693
aa(lp6
S'timestamp'
p7
aF7.999547958374023
aatp8
Rp9
.