ccollections
OrderedDict
p0
((lp1
(lp2
S'state'
p3
aI0
aa(lp4
S'distance'
p5
aF369.74378204345703
aa(lp6
S'timestamp'
p7
aF0.007568836212158203
aatp8
Rp9
.ccollections
OrderedDict
p0
((lp1
(lp2
S'state'
p3
aI0
aa(lp4
S'distance'
p5
aF369.74378204345703
aa(lp6
S'timestamp'
p7
aF0.008456945419311523
aatp8
Rp9
.ccollections
OrderedDict
p0
((lp1
(lp2
S'state'
p3
aI0
aa(lp4
S'distance'
p5
aF369.74378204345703
aa(lp6
S'timestamp'
p7
aF0.021324872970581055
aatp8
Rp9
.ccollections
OrderedDict
p0
((lp1
(lp2
S'state'
p3
aI0
aa(lp4
S'distance'
p5
aF369.74378204345703
aa(lp6
S'timestamp'
p7
aF0.0214388370513916
aatp8
Rp9
.ccollections
OrderedDict
p0
((lp1
(lp2
S'state'
p3
aI0
aa(lp4
S'distance'
p5
aF369.74378204345703
aa(lp6
S'timestamp'
p7
aF0.027870893478393555
aatp8
Rp9
.ccollections
OrderedDict
p0
((lp1
(lp2
S'state'
p3
aI0
aa(lp4
S'distance'
p5
aF369.74378204345703
aa(lp6
S'timestamp'
p7
aF0.029366016387939453
aatp8
Rp9
.ccollections
OrderedDict
p0
((lp1
(lp2
S'state'
p3
aI0
aa(lp4
S'distance'
p5
aF369.74378204345703
aa(lp6
S'timestamp'
p7
aF0.03826785087585449
aatp8
Rp9
.ccollections
OrderedDict
p0
((lp1
(lp2
S'state'
p3
aI0
aa(lp4
S'distance'
p5
aF369.74378204345703
aa(lp6
S'timestamp'
p7
aF0.03922104835510254
aatp8
Rp9
.ccollections
OrderedDict
p0
((lp1
(lp2
S'state'
p3
aI0
aa(lp4
S'distance'
p5
aF369.74378204345703
aa(lp6
S'timestamp'
p7
aF0.04771995544433594
aatp8
Rp9
.ccollections
OrderedDict
p0
((lp1
(lp2
S'state'
p3
aI0
aa(lp4
S'distance'
p5
aF369.74378204345703
aa(lp6
S'timestamp'
p7
aF0.04807281494140625
aatp8
Rp9
.ccollections
OrderedDict
p0
((lp1
(lp2
S'state'
p3
aI0
aa(lp4
S'distance'
p5
aF369.74378204345703
aa(lp6
S'timestamp'
p7
aF0.057723045349121094
aatp8
Rp9
.ccollections
OrderedDict
p0
((lp1
(lp2
S'state'
p3
aI0
aa(lp4
S'distance'
p5
aF369.74378204345703
aa(lp6
S'timestamp'
p7
aF0.058992862701416016
aatp8
Rp9
.ccollections
OrderedDict
p0
((lp1
(lp2
S'state'
p3
aI0
aa(lp4
S'distance'
p5
aF369.74378204345703
aa(lp6
S'timestamp'
p7
aF0.06766700744628906
aatp8
Rp9
.ccollections
OrderedDict
p0
((lp1
(lp2
S'state'
p3
aI0
aa(lp4
S'distance'
p5
aF369.74378204345703
aa(lp6
S'timestamp'
p7
aF0.06823492050170898
aatp8
Rp9
.ccollections
OrderedDict
p0
((lp1
(lp2
S'state'
p3
aI0
aa(lp4
S'distance'
p5
aF369.74378204345703
aa(lp6
S'timestamp'
p7
aF0.07835888862609863
aatp8
Rp9
.ccollections
OrderedDict
p0
((lp1
(lp2
S'state'
p3
aI0
aa(lp4
S'distance'
p5
aF369.74378204345703
aa(lp6
S'timestamp'
p7
aF0.07883882522583008
aatp8
Rp9
.ccollections
OrderedDict
p0
((lp1
(lp2
S'state'
p3
aI0
aa(lp4
S'distance'
p5
aF369.74378204345703
aa(lp6
S'timestamp'
p7
aF0.08771896362304688
aatp8
Rp9
.ccollections
OrderedDict
p0
((lp1
(lp2
S'state'
p3
aI0
aa(lp4
S'distance'
p5
aF369.74378204345703
aa(lp6
S'timestamp'
p7
aF0.08831596374511719
aatp8
Rp9
.ccollections
OrderedDict
p0
((lp1
(lp2
S'state'
p3
aI0
aa(lp4
S'distance'
p5
aF369.74378204345703
aa(lp6
S'timestamp'
p7
aF0.09774398803710938
aatp8
Rp9
.ccollections
OrderedDict
p0
((lp1
(lp2
S'state'
p3
aI0
aa(lp4
S'distance'
p5
aF369.74378204345703
aa(lp6
S'timestamp'
p7
aF0.0983579158782959
aatp8
Rp9
.ccollections
OrderedDict
p0
((lp1
(lp2
S'state'
p3
aI0
aa(lp4
S'distance'
p5
aF369.74378204345703
aa(lp6
S'timestamp'
p7
aF0.10813403129577637
aatp8
Rp9
.ccollections
OrderedDict
p0
((lp1
(lp2
S'state'
p3
aI0
aa(lp4
S'distance'
p5
aF369.74378204345703
aa(lp6
S'timestamp'
p7
aF0.10848689079284668
aatp8
Rp9
.ccollections
OrderedDict
p0
((lp1
(lp2
S'state'
p3
aI0
aa(lp4
S'distance'
p5
aF369.74378204345703
aa(lp6
S'timestamp'
p7
aF0.11786484718322754
aatp8
Rp9
.ccollections
OrderedDict
p0
((lp1
(lp2
S'state'
p3
aI0
aa(lp4
S'distance'
p5
aF369.74378204345703
aa(lp6
S'timestamp'
p7
aF0.11848998069763184
aatp8
Rp9
.ccollections
OrderedDict
p0
((lp1
(lp2
S'state'
p3
aI0
aa(lp4
S'distance'
p5
aF369.74378204345703
aa(lp6
S'timestamp'
p7
aF0.12821698188781738
aatp8
Rp9
.ccollections
OrderedDict
p0
((lp1
(lp2
S'state'
p3
aI0
aa(lp4
S'distance'
p5
aF369.74378204345703
aa(lp6
S'timestamp'
p7
aF0.12830495834350586
aatp8
Rp9
.ccollections
OrderedDict
p0
((lp1
(lp2
S'state'
p3
aI0
aa(lp4
S'distance'
p5
aF369.74378204345703
aa(lp6
S'timestamp'
p7
aF0.14768290519714355
aatp8
Rp9
.ccollections
OrderedDict
p0
((lp1
(lp2
S'state'
p3
aI0
aa(lp4
S'distance'
p5
aF369.74378204345703
aa(lp6
S'timestamp'
p7
aF0.14780497550964355
aatp8
Rp9
.ccollections
OrderedDict
p0
((lp1
(lp2
S'state'
p3
aI0
aa(lp4
S'distance'
p5
aF369.74378204345703
aa(lp6
S'timestamp'
p7
aF0.14919495582580566
aatp8
Rp9
.ccollections
OrderedDict
p0
((lp1
(lp2
S'state'
p3
aI0
aa(lp4
S'distance'
p5
aF369.74378204345703
aa(lp6
S'timestamp'
p7
aF0.15022897720336914
aatp8
Rp9
.ccollections
OrderedDict
p0
((lp1
(lp2
S'state'
p3
aI0
aa(lp4
S'distance'
p5
aF369.74378204345703
aa(lp6
S'timestamp'
p7
aF0.15770888328552246
aatp8
Rp9
.ccollections
OrderedDict
p0
((lp1
(lp2
S'state'
p3
aI0
aa(lp4
S'distance'
p5
aF369.74378204345703
aa(lp6
S'timestamp'
p7
aF0.15780186653137207
aatp8
Rp9
.ccollections
OrderedDict
p0
((lp1
(lp2
S'state'
p3
aI0
aa(lp4
S'distance'
p5
aF369.74378204345703
aa(lp6
S'timestamp'
p7
aF0.16852903366088867
aatp8
Rp9
.ccollections
OrderedDict
p0
((lp1
(lp2
S'state'
p3
aI0
aa(lp4
S'distance'
p5
aF369.74378204345703
aa(lp6
S'timestamp'
p7
aF0.1691608428955078
aatp8
Rp9
.ccollections
OrderedDict
p0
((lp1
(lp2
S'state'
p3
aI0
aa(lp4
S'distance'
p5
aF369.74378204345703
aa(lp6
S'timestamp'
p7
aF0.17795395851135254
aatp8
Rp9
.ccollections
OrderedDict
p0
((lp1
(lp2
S'state'
p3
aI0
aa(lp4
S'distance'
p5
aF369.74378204345703
aa(lp6
S'timestamp'
p7
aF0.17829489707946777
aatp8
Rp9
.ccollections
OrderedDict
p0
((lp1
(lp2
S'state'
p3
aI0
aa(lp4
S'distance'
p5
aF369.74378204345703
aa(lp6
S'timestamp'
p7
aF0.18770194053649902
aatp8
Rp9
.ccollections
OrderedDict
p0
((lp1
(lp2
S'state'
p3
aI0
aa(lp4
S'distance'
p5
aF369.74378204345703
aa(lp6
S'timestamp'
p7
aF0.18796896934509277
aatp8
Rp9
.ccollections
OrderedDict
p0
((lp1
(lp2
S'state'
p3
aI0
aa(lp4
S'distance'
p5
aF369.74378204345703
aa(lp6
S'timestamp'
p7
aF0.19765281677246094
aatp8
Rp9
.ccollections
OrderedDict
p0
((lp1
(lp2
S'state'
p3
aI0
aa(lp4
S'distance'
p5
aF369.74378204345703
aa(lp6
S'timestamp'
p7
aF0.19855690002441406
aatp8
Rp9
.ccollections
OrderedDict
p0
((lp1
(lp2
S'state'
p3
aI0
aa(lp4
S'distance'
p5
aF369.74378204345703
aa(lp6
S'timestamp'
p7
aF0.20745301246643066
aatp8
Rp9
.ccollections
OrderedDict
p0
((lp1
(lp2
S'state'
p3
aI0
aa(lp4
S'distance'
p5
aF369.74378204345703
aa(lp6
S'timestamp'
p7
aF0.20818495750427246
aatp8
Rp9
.ccollections
OrderedDict
p0
((lp1
(lp2
S'state'
p3
aI0
aa(lp4
S'distance'
p5
aF369.74378204345703
aa(lp6
S'timestamp'
p7
aF0.21785783767700195
aatp8
Rp9
.ccollections
OrderedDict
p0
((lp1
(lp2
S'state'
p3
aI0
aa(lp4
S'distance'
p5
aF369.74378204345703
aa(lp6
S'timestamp'
p7
aF0.21860098838806152
aatp8
Rp9
.ccollections
OrderedDict
p0
((lp1
(lp2
S'state'
p3
aI0
aa(lp4
S'distance'
p5
aF369.74378204345703
aa(lp6
S'timestamp'
p7
aF0.2276768684387207
aatp8
Rp9
.ccollections
OrderedDict
p0
((lp1
(lp2
S'state'
p3
aI0
aa(lp4
S'distance'
p5
aF369.74378204345703
aa(lp6
S'timestamp'
p7
aF0.22857284545898438
aatp8
Rp9
.ccollections
OrderedDict
p0
((lp1
(lp2
S'state'
p3
aI0
aa(lp4
S'distance'
p5
aF369.74378204345703
aa(lp6
S'timestamp'
p7
aF0.23766183853149414
aatp8
Rp9
.ccollections
OrderedDict
p0
((lp1
(lp2
S'state'
p3
aI0
aa(lp4
S'distance'
p5
aF369.74378204345703
aa(lp6
S'timestamp'
p7
aF0.23833084106445312
aatp8
Rp9
.ccollections
OrderedDict
p0
((lp1
(lp2
S'state'
p3
aI0
aa(lp4
S'distance'
p5
aF369.74378204345703
aa(lp6
S'timestamp'
p7
aF0.24767303466796875
aatp8
Rp9
.ccollections
OrderedDict
p0
((lp1
(lp2
S'state'
p3
aI0
aa(lp4
S'distance'
p5
aF369.74378204345703
aa(lp6
S'timestamp'
p7
aF0.24849295616149902
aatp8
Rp9
.ccollections
OrderedDict
p0
((lp1
(lp2
S'state'
p3
aI0
aa(lp4
S'distance'
p5
aF369.74378204345703
aa(lp6
S'timestamp'
p7
aF0.2580139636993408
aatp8
Rp9
.ccollections
OrderedDict
p0
((lp1
(lp2
S'state'
p3
aI0
aa(lp4
S'distance'
p5
aF369.74378204345703
aa(lp6
S'timestamp'
p7
aF0.25809192657470703
aatp8
Rp9
.ccollections
OrderedDict
p0
((lp1
(lp2
S'state'
p3
aI0
aa(lp4
S'distance'
p5
aF369.74378204345703
aa(lp6
S'timestamp'
p7
aF0.267596960067749
aatp8
Rp9
.ccollections
OrderedDict
p0
((lp1
(lp2
S'state'
p3
aI0
aa(lp4
S'distance'
p5
aF369.74378204345703
aa(lp6
S'timestamp'
p7
aF0.2690608501434326
aatp8
Rp9
.ccollections
OrderedDict
p0
((lp1
(lp2
S'state'
p3
aI0
aa(lp4
S'distance'
p5
aF369.74378204345703
aa(lp6
S'timestamp'
p7
aF0.2776470184326172
aatp8
Rp9
.ccollections
OrderedDict
p0
((lp1
(lp2
S'state'
p3
aI0
aa(lp4
S'distance'
p5
aF369.74378204345703
aa(lp6
S'timestamp'
p7
aF0.27856898307800293
aatp8
Rp9
.ccollections
OrderedDict
p0
((lp1
(lp2
S'state'
p3
aI0
aa(lp4
S'distance'
p5
aF369.74378204345703
aa(lp6
S'timestamp'
p7
aF0.28827595710754395
aatp8
Rp9
.ccollections
OrderedDict
p0
((lp1
(lp2
S'state'
p3
aI0
aa(lp4
S'distance'
p5
aF369.74378204345703
aa(lp6
S'timestamp'
p7
aF0.28835582733154297
aatp8
Rp9
.ccollections
OrderedDict
p0
((lp1
(lp2
S'state'
p3
aI0
aa(lp4
S'distance'
p5
aF369.74378204345703
aa(lp6
S'timestamp'
p7
aF0.29845404624938965
aatp8
Rp9
.ccollections
OrderedDict
p0
((lp1
(lp2
S'state'
p3
aI0
aa(lp4
S'distance'
p5
aF369.74378204345703
aa(lp6
S'timestamp'
p7
aF0.29860687255859375
aatp8
Rp9
.ccollections
OrderedDict
p0
((lp1
(lp2
S'state'
p3
aI0
aa(lp4
S'distance'
p5
aF369.74378204345703
aa(lp6
S'timestamp'
p7
aF0.30773282051086426
aatp8
Rp9
.ccollections
OrderedDict
p0
((lp1
(lp2
S'state'
p3
aI0
aa(lp4
S'distance'
p5
aF369.74378204345703
aa(lp6
S'timestamp'
p7
aF0.30839085578918457
aatp8
Rp9
.ccollections
OrderedDict
p0
((lp1
(lp2
S'state'
p3
aI0
aa(lp4
S'distance'
p5
aF369.74378204345703
aa(lp6
S'timestamp'
p7
aF0.3176569938659668
aatp8
Rp9
.ccollections
OrderedDict
p0
((lp1
(lp2
S'state'
p3
aI0
aa(lp4
S'distance'
p5
aF369.74378204345703
aa(lp6
S'timestamp'
p7
aF0.3186638355255127
aatp8
Rp9
.ccollections
OrderedDict
p0
((lp1
(lp2
S'state'
p3
aI0
aa(lp4
S'distance'
p5
aF369.74378204345703
aa(lp6
S'timestamp'
p7
aF0.32767200469970703
aatp8
Rp9
.ccollections
OrderedDict
p0
((lp1
(lp2
S'state'
p3
aI0
aa(lp4
S'distance'
p5
aF369.74378204345703
aa(lp6
S'timestamp'
p7
aF0.3282918930053711
aatp8
Rp9
.ccollections
OrderedDict
p0
((lp1
(lp2
S'state'
p3
aI0
aa(lp4
S'distance'
p5
aF369.74378204345703
aa(lp6
S'timestamp'
p7
aF0.33853697776794434
aatp8
Rp9
.ccollections
OrderedDict
p0
((lp1
(lp2
S'state'
p3
aI0
aa(lp4
S'distance'
p5
aF369.74378204345703
aa(lp6
S'timestamp'
p7
aF0.33866286277770996
aatp8
Rp9
.ccollections
OrderedDict
p0
((lp1
(lp2
S'state'
p3
aI0
aa(lp4
S'distance'
p5
aF369.74378204345703
aa(lp6
S'timestamp'
p7
aF0.3477189540863037
aatp8
Rp9
.ccollections
OrderedDict
p0
((lp1
(lp2
S'state'
p3
aI0
aa(lp4
S'distance'
p5
aF369.74378204345703
aa(lp6
S'timestamp'
p7
aF0.34807682037353516
aatp8
Rp9
.ccollections
OrderedDict
p0
((lp1
(lp2
S'state'
p3
aI0
aa(lp4
S'distance'
p5
aF369.74378204345703
aa(lp6
S'timestamp'
p7
aF0.3574059009552002
aatp8
Rp9
.ccollections
OrderedDict
p0
((lp1
(lp2
S'state'
p3
aI0
aa(lp4
S'distance'
p5
aF369.74378204345703
aa(lp6
S'timestamp'
p7
aF0.35793590545654297
aatp8
Rp9
.ccollections
OrderedDict
p0
((lp1
(lp2
S'state'
p3
aI0
aa(lp4
S'distance'
p5
aF369.74378204345703
aa(lp6
S'timestamp'
p7
aF0.36766600608825684
aatp8
Rp9
.ccollections
OrderedDict
p0
((lp1
(lp2
S'state'
p3
aI0
aa(lp4
S'distance'
p5
aF369.74378204345703
aa(lp6
S'timestamp'
p7
aF0.36918187141418457
aatp8
Rp9
.ccollections
OrderedDict
p0
((lp1
(lp2
S'state'
p3
aI0
aa(lp4
S'distance'
p5
aF369.74378204345703
aa(lp6
S'timestamp'
p7
aF0.37758398056030273
aatp8
Rp9
.ccollections
OrderedDict
p0
((lp1
(lp2
S'state'
p3
aI0
aa(lp4
S'distance'
p5
aF369.74378204345703
aa(lp6
S'timestamp'
p7
aF0.37843894958496094
aatp8
Rp9
.ccollections
OrderedDict
p0
((lp1
(lp2
S'state'
p3
aI0
aa(lp4
S'distance'
p5
aF369.74378204345703
aa(lp6
S'timestamp'
p7
aF0.3876810073852539
aatp8
Rp9
.ccollections
OrderedDict
p0
((lp1
(lp2
S'state'
p3
aI0
aa(lp4
S'distance'
p5
aF369.74378204345703
aa(lp6
S'timestamp'
p7
aF0.3884928226470947
aatp8
Rp9
.ccollections
OrderedDict
p0
((lp1
(lp2
S'state'
p3
aI0
aa(lp4
S'distance'
p5
aF369.74378204345703
aa(lp6
S'timestamp'
p7
aF0.39822888374328613
aatp8
Rp9
.ccollections
OrderedDict
p0
((lp1
(lp2
S'state'
p3
aI0
aa(lp4
S'distance'
p5
aF369.74378204345703
aa(lp6
S'timestamp'
p7
aF0.39830684661865234
aatp8
Rp9
.ccollections
OrderedDict
p0
((lp1
(lp2
S'state'
p3
aI0
aa(lp4
S'distance'
p5
aF369.74378204345703
aa(lp6
S'timestamp'
p7
aF0.40758800506591797
aatp8
Rp9
.ccollections
OrderedDict
p0
((lp1
(lp2
S'state'
p3
aI0
aa(lp4
S'distance'
p5
aF369.74378204345703
aa(lp6
S'timestamp'
p7
aF0.40831494331359863
aatp8
Rp9
.ccollections
OrderedDict
p0
((lp1
(lp2
S'state'
p3
aI0
aa(lp4
S'distance'
p5
aF369.74378204345703
aa(lp6
S'timestamp'
p7
aF0.4171760082244873
aatp8
Rp9
.ccollections
OrderedDict
p0
((lp1
(lp2
S'state'
p3
aI0
aa(lp4
S'distance'
p5
aF369.74378204345703
aa(lp6
S'timestamp'
p7
aF0.4178459644317627
aatp8
Rp9
.ccollections
OrderedDict
p0
((lp1
(lp2
S'state'
p3
aI0
aa(lp4
S'distance'
p5
aF369.74378204345703
aa(lp6
S'timestamp'
p7
aF0.4289870262145996
aatp8
Rp9
.ccollections
OrderedDict
p0
((lp1
(lp2
S'state'
p3
aI0
aa(lp4
S'distance'
p5
aF369.74378204345703
aa(lp6
S'timestamp'
p7
aF0.42912983894348145
aatp8
Rp9
.ccollections
OrderedDict
p0
((lp1
(lp2
S'state'
p3
aI0
aa(lp4
S'distance'
p5
aF369.74378204345703
aa(lp6
S'timestamp'
p7
aF0.4382510185241699
aatp8
Rp9
.ccollections
OrderedDict
p0
((lp1
(lp2
S'state'
p3
aI0
aa(lp4
S'distance'
p5
aF369.74378204345703
aa(lp6
S'timestamp'
p7
aF0.43834495544433594
aatp8
Rp9
.ccollections
OrderedDict
p0
((lp1
(lp2
S'state'
p3
aI0
aa(lp4
S'distance'
p5
aF369.74378204345703
aa(lp6
S'timestamp'
p7
aF0.4476180076599121
aatp8
Rp9
.ccollections
OrderedDict
p0
((lp1
(lp2
S'state'
p3
aI0
aa(lp4
S'distance'
p5
aF369.74378204345703
aa(lp6
S'timestamp'
p7
aF0.44832396507263184
aatp8
Rp9
.ccollections
OrderedDict
p0
((lp1
(lp2
S'state'
p3
aI0
aa(lp4
S'distance'
p5
aF369.74378204345703
aa(lp6
S'timestamp'
p7
aF0.45879197120666504
aatp8
Rp9
.ccollections
OrderedDict
p0
((lp1
(lp2
S'state'
p3
aI0
aa(lp4
S'distance'
p5
aF369.74378204345703
aa(lp6
S'timestamp'
p7
aF0.45894694328308105
aatp8
Rp9
.ccollections
OrderedDict
p0
((lp1
(lp2
S'state'
p3
aI0
aa(lp4
S'distance'
p5
aF369.74378204345703
aa(lp6
S'timestamp'
p7
aF0.4676799774169922
aatp8
Rp9
.ccollections
OrderedDict
p0
((lp1
(lp2
S'state'
p3
aI0
aa(lp4
S'distance'
p5
aF369.74378204345703
aa(lp6
S'timestamp'
p7
aF0.4682738780975342
aatp8
Rp9
.ccollections
OrderedDict
p0
((lp1
(lp2
S'state'
p3
aI0
aa(lp4
S'distance'
p5
aF369.74378204345703
aa(lp6
S'timestamp'
p7
aF0.47766900062561035
aatp8
Rp9
.ccollections
OrderedDict
p0
((lp1
(lp2
S'state'
p3
aI0
aa(lp4
S'distance'
p5
aF369.74378204345703
aa(lp6
S'timestamp'
p7
aF0.47852301597595215
aatp8
Rp9
.ccollections
OrderedDict
p0
((lp1
(lp2
S'state'
p3
aI0
aa(lp4
S'distance'
p5
aF369.74378204345703
aa(lp6
S'timestamp'
p7
aF0.48758602142333984
aatp8
Rp9
.ccollections
OrderedDict
p0
((lp1
(lp2
S'state'
p3
aI0
aa(lp4
S'distance'
p5
aF369.74378204345703
aa(lp6
S'timestamp'
p7
aF0.48848891258239746
aatp8
Rp9
.ccollections
OrderedDict
p0
((lp1
(lp2
S'state'
p3
aI0
aa(lp4
S'distance'
p5
aF369.74378204345703
aa(lp6
S'timestamp'
p7
aF0.49767398834228516
aatp8
Rp9
.ccollections
OrderedDict
p0
((lp1
(lp2
S'state'
p3
aI0
aa(lp4
S'distance'
p5
aF369.74378204345703
aa(lp6
S'timestamp'
p7
aF0.49892687797546387
aatp8
Rp9
.ccollections
OrderedDict
p0
((lp1
(lp2
S'state'
p3
aI0
aa(lp4
S'distance'
p5
aF369.74378204345703
aa(lp6
S'timestamp'
p7
aF0.5074470043182373
aatp8
Rp9
.ccollections
OrderedDict
p0
((lp1
(lp2
S'state'
p3
aI0
aa(lp4
S'distance'
p5
aF369.74378204345703
aa(lp6
S'timestamp'
p7
aF0.5079178810119629
aatp8
Rp9
.ccollections
OrderedDict
p0
((lp1
(lp2
S'state'
p3
aI0
aa(lp4
S'distance'
p5
aF369.74378204345703
aa(lp6
S'timestamp'
p7
aF0.5176219940185547
aatp8
Rp9
.ccollections
OrderedDict
p0
((lp1
(lp2
S'state'
p3
aI0
aa(lp4
S'distance'
p5
aF369.74378204345703
aa(lp6
S'timestamp'
p7
aF0.5183038711547852
aatp8
Rp9
.ccollections
OrderedDict
p0
((lp1
(lp2
S'state'
p3
aI0
aa(lp4
S'distance'
p5
aF369.74378204345703
aa(lp6
S'timestamp'
p7
aF0.5277400016784668
aatp8
Rp9
.ccollections
OrderedDict
p0
((lp1
(lp2
S'state'
p3
aI0
aa(lp4
S'distance'
p5
aF369.74378204345703
aa(lp6
S'timestamp'
p7
aF0.5278809070587158
aatp8
Rp9
.ccollections
OrderedDict
p0
((lp1
(lp2
S'state'
p3
aI0
aa(lp4
S'distance'
p5
aF369.74378204345703
aa(lp6
S'timestamp'
p7
aF0.537524938583374
aatp8
Rp9
.ccollections
OrderedDict
p0
((lp1
(lp2
S'state'
p3
aI0
aa(lp4
S'distance'
p5
aF369.74378204345703
aa(lp6
S'timestamp'
p7
aF0.5387189388275146
aatp8
Rp9
.ccollections
OrderedDict
p0
((lp1
(lp2
S'state'
p3
aI0
aa(lp4
S'distance'
p5
aF369.74378204345703
aa(lp6
S'timestamp'
p7
aF0.5475518703460693
aatp8
Rp9
.ccollections
OrderedDict
p0
((lp1
(lp2
S'state'
p3
aI0
aa(lp4
S'distance'
p5
aF369.74378204345703
aa(lp6
S'timestamp'
p7
aF0.5483028888702393
aatp8
Rp9
.ccollections
OrderedDict
p0
((lp1
(lp2
S'state'
p3
aI0
aa(lp4
S'distance'
p5
aF369.74378204345703
aa(lp6
S'timestamp'
p7
aF0.5576488971710205
aatp8
Rp9
.ccollections
OrderedDict
p0
((lp1
(lp2
S'state'
p3
aI0
aa(lp4
S'distance'
p5
aF369.74378204345703
aa(lp6
S'timestamp'
p7
aF0.5585529804229736
aatp8
Rp9
.ccollections
OrderedDict
p0
((lp1
(lp2
S'state'
p3
aI0
aa(lp4
S'distance'
p5
aF369.74378204345703
aa(lp6
S'timestamp'
p7
aF0.5674428939819336
aatp8
Rp9
.ccollections
OrderedDict
p0
((lp1
(lp2
S'state'
p3
aI0
aa(lp4
S'distance'
p5
aF369.74378204345703
aa(lp6
S'timestamp'
p7
aF0.5682849884033203
aatp8
Rp9
.ccollections
OrderedDict
p0
((lp1
(lp2
S'state'
p3
aI0
aa(lp4
S'distance'
p5
aF369.74378204345703
aa(lp6
S'timestamp'
p7
aF0.5775899887084961
aatp8
Rp9
.ccollections
OrderedDict
p0
((lp1
(lp2
S'state'
p3
aI0
aa(lp4
S'distance'
p5
aF369.74378204345703
aa(lp6
S'timestamp'
p7
aF0.5785238742828369
aatp8
Rp9
.ccollections
OrderedDict
p0
((lp1
(lp2
S'state'
p3
aI0
aa(lp4
S'distance'
p5
aF369.74378204345703
aa(lp6
S'timestamp'
p7
aF0.5877490043640137
aatp8
Rp9
.ccollections
OrderedDict
p0
((lp1
(lp2
S'state'
p3
aI0
aa(lp4
S'distance'
p5
aF369.74378204345703
aa(lp6
S'timestamp'
p7
aF0.5881350040435791
aatp8
Rp9
.ccollections
OrderedDict
p0
((lp1
(lp2
S'state'
p3
aI0
aa(lp4
S'distance'
p5
aF369.74378204345703
aa(lp6
S'timestamp'
p7
aF0.5982508659362793
aatp8
Rp9
.ccollections
OrderedDict
p0
((lp1
(lp2
S'state'
p3
aI0
aa(lp4
S'distance'
p5
aF369.74378204345703
aa(lp6
S'timestamp'
p7
aF0.5983278751373291
aatp8
Rp9
.ccollections
OrderedDict
p0
((lp1
(lp2
S'state'
p3
aI0
aa(lp4
S'distance'
p5
aF369.74378204345703
aa(lp6
S'timestamp'
p7
aF0.6087319850921631
aatp8
Rp9
.ccollections
OrderedDict
p0
((lp1
(lp2
S'state'
p3
aI0
aa(lp4
S'distance'
p5
aF369.74378204345703
aa(lp6
S'timestamp'
p7
aF0.6088898181915283
aatp8
Rp9
.ccollections
OrderedDict
p0
((lp1
(lp2
S'state'
p3
aI0
aa(lp4
S'distance'
p5
aF369.74378204345703
aa(lp6
S'timestamp'
p7
aF0.6188778877258301
aatp8
Rp9
.ccollections
OrderedDict
p0
((lp1
(lp2
S'state'
p3
aI0
aa(lp4
S'distance'
p5
aF369.74378204345703
aa(lp6
S'timestamp'
p7
aF0.6193950176239014
aatp8
Rp9
.ccollections
OrderedDict
p0
((lp1
(lp2
S'state'
p3
aI0
aa(lp4
S'distance'
p5
aF369.74378204345703
aa(lp6
S'timestamp'
p7
aF0.6275708675384521
aatp8
Rp9
.ccollections
OrderedDict
p0
((lp1
(lp2
S'state'
p3
aI0
aa(lp4
S'distance'
p5
aF369.74378204345703
aa(lp6
S'timestamp'
p7
aF0.6287379264831543
aatp8
Rp9
.ccollections
OrderedDict
p0
((lp1
(lp2
S'state'
p3
aI0
aa(lp4
S'distance'
p5
aF369.74378204345703
aa(lp6
S'timestamp'
p7
aF0.6380228996276855
aatp8
Rp9
.ccollections
OrderedDict
p0
((lp1
(lp2
S'state'
p3
aI0
aa(lp4
S'distance'
p5
aF369.74378204345703
aa(lp6
S'timestamp'
p7
aF0.6381268501281738
aatp8
Rp9
.ccollections
OrderedDict
p0
((lp1
(lp2
S'state'
p3
aI0
aa(lp4
S'distance'
p5
aF369.74378204345703
aa(lp6
S'timestamp'
p7
aF0.648169994354248
aatp8
Rp9
.ccollections
OrderedDict
p0
((lp1
(lp2
S'state'
p3
aI0
aa(lp4
S'distance'
p5
aF369.74378204345703
aa(lp6
S'timestamp'
p7
aF0.6482529640197754
aatp8
Rp9
.ccollections
OrderedDict
p0
((lp1
(lp2
S'state'
p3
aI0
aa(lp4
S'distance'
p5
aF369.74378204345703
aa(lp6
S'timestamp'
p7
aF0.65743088722229
aatp8
Rp9
.ccollections
OrderedDict
p0
((lp1
(lp2
S'state'
p3
aI0
aa(lp4
S'distance'
p5
aF369.74378204345703
aa(lp6
S'timestamp'
p7
aF0.6780929565429688
aatp8
Rp9
.ccollections
OrderedDict
p0
((lp1
(lp2
S'state'
p3
aI0
aa(lp4
S'distance'
p5
aF369.74378204345703
aa(lp6
S'timestamp'
p7
aF0.6781759262084961
aatp8
Rp9
.ccollections
OrderedDict
p0
((lp1
(lp2
S'state'
p3
aI0
aa(lp4
S'distance'
p5
aF369.74378204345703
aa(lp6
S'timestamp'
p7
aF0.6788909435272217
aatp8
Rp9
.ccollections
OrderedDict
p0
((lp1
(lp2
S'state'
p3
aI0
aa(lp4
S'distance'
p5
aF369.74378204345703
aa(lp6
S'timestamp'
p7
aF0.6801450252532959
aatp8
Rp9
.ccollections
OrderedDict
p0
((lp1
(lp2
S'state'
p3
aI0
aa(lp4
S'distance'
p5
aF369.74378204345703
aa(lp6
S'timestamp'
p7
aF0.6876058578491211
aatp8
Rp9
.ccollections
OrderedDict
p0
((lp1
(lp2
S'state'
p3
aI0
aa(lp4
S'distance'
p5
aF369.74378204345703
aa(lp6
S'timestamp'
p7
aF0.6881270408630371
aatp8
Rp9
.ccollections
OrderedDict
p0
((lp1
(lp2
S'state'
p3
aI0
aa(lp4
S'distance'
p5
aF369.74378204345703
aa(lp6
S'timestamp'
p7
aF0.6888768672943115
aatp8
Rp9
.ccollections
OrderedDict
p0
((lp1
(lp2
S'state'
p3
aI0
aa(lp4
S'distance'
p5
aF369.74378204345703
aa(lp6
S'timestamp'
p7
aF0.6978209018707275
aatp8
Rp9
.ccollections
OrderedDict
p0
((lp1
(lp2
S'state'
p3
aI0
aa(lp4
S'distance'
p5
aF369.74378204345703
aa(lp6
S'timestamp'
p7
aF0.6985549926757812
aatp8
Rp9
.ccollections
OrderedDict
p0
((lp1
(lp2
S'state'
p3
aI0
aa(lp4
S'distance'
p5
aF369.74378204345703
aa(lp6
S'timestamp'
p7
aF0.7082500457763672
aatp8
Rp9
.ccollections
OrderedDict
p0
((lp1
(lp2
S'state'
p3
aI0
aa(lp4
S'distance'
p5
aF369.74378204345703
aa(lp6
S'timestamp'
p7
aF0.7084100246429443
aatp8
Rp9
.ccollections
OrderedDict
p0
((lp1
(lp2
S'state'
p3
aI0
aa(lp4
S'distance'
p5
aF369.74378204345703
aa(lp6
S'timestamp'
p7
aF0.7178390026092529
aatp8
Rp9
.ccollections
OrderedDict
p0
((lp1
(lp2
S'state'
p3
aI0
aa(lp4
S'distance'
p5
aF369.74378204345703
aa(lp6
S'timestamp'
p7
aF0.7183778285980225
aatp8
Rp9
.ccollections
OrderedDict
p0
((lp1
(lp2
S'state'
p3
aI0
aa(lp4
S'distance'
p5
aF369.74378204345703
aa(lp6
S'timestamp'
p7
aF0.7282729148864746
aatp8
Rp9
.ccollections
OrderedDict
p0
((lp1
(lp2
S'state'
p3
aI0
aa(lp4
S'distance'
p5
aF369.74378204345703
aa(lp6
S'timestamp'
p7
aF0.7283480167388916
aatp8
Rp9
.ccollections
OrderedDict
p0
((lp1
(lp2
S'state'
p3
aI0
aa(lp4
S'distance'
p5
aF369.74378204345703
aa(lp6
S'timestamp'
p7
aF0.7385568618774414
aatp8
Rp9
.ccollections
OrderedDict
p0
((lp1
(lp2
S'state'
p3
aI0
aa(lp4
S'distance'
p5
aF369.74378204345703
aa(lp6
S'timestamp'
p7
aF0.7393419742584229
aatp8
Rp9
.ccollections
OrderedDict
p0
((lp1
(lp2
S'state'
p3
aI0
aa(lp4
S'distance'
p5
aF369.74378204345703
aa(lp6
S'timestamp'
p7
aF0.7479479312896729
aatp8
Rp9
.ccollections
OrderedDict
p0
((lp1
(lp2
S'state'
p3
aI0
aa(lp4
S'distance'
p5
aF369.74378204345703
aa(lp6
S'timestamp'
p7
aF0.7482290267944336
aatp8
Rp9
.ccollections
OrderedDict
p0
((lp1
(lp2
S'state'
p3
aI0
aa(lp4
S'distance'
p5
aF369.74378204345703
aa(lp6
S'timestamp'
p7
aF0.7578639984130859
aatp8
Rp9
.ccollections
OrderedDict
p0
((lp1
(lp2
S'state'
p3
aI0
aa(lp4
S'distance'
p5
aF369.74378204345703
aa(lp6
S'timestamp'
p7
aF0.758249044418335
aatp8
Rp9
.ccollections
OrderedDict
p0
((lp1
(lp2
S'state'
p3
aI0
aa(lp4
S'distance'
p5
aF369.74378204345703
aa(lp6
S'timestamp'
p7
aF0.7683470249176025
aatp8
Rp9
.ccollections
OrderedDict
p0
((lp1
(lp2
S'state'
p3
aI0
aa(lp4
S'distance'
p5
aF369.74378204345703
aa(lp6
S'timestamp'
p7
aF0.7684428691864014
aatp8
Rp9
.ccollections
OrderedDict
p0
((lp1
(lp2
S'state'
p3
aI0
aa(lp4
S'distance'
p5
aF369.74378204345703
aa(lp6
S'timestamp'
p7
aF0.7784969806671143
aatp8
Rp9
.ccollections
OrderedDict
p0
((lp1
(lp2
S'state'
p3
aI0
aa(lp4
S'distance'
p5
aF369.74378204345703
aa(lp6
S'timestamp'
p7
aF0.7790079116821289
aatp8
Rp9
.ccollections
OrderedDict
p0
((lp1
(lp2
S'state'
p3
aI0
aa(lp4
S'distance'
p5
aF369.74378204345703
aa(lp6
S'timestamp'
p7
aF0.7878608703613281
aatp8
Rp9
.ccollections
OrderedDict
p0
((lp1
(lp2
S'state'
p3
aI0
aa(lp4
S'distance'
p5
aF369.74378204345703
aa(lp6
S'timestamp'
p7
aF0.7879819869995117
aatp8
Rp9
.ccollections
OrderedDict
p0
((lp1
(lp2
S'state'
p3
aI0
aa(lp4
S'distance'
p5
aF369.74378204345703
aa(lp6
S'timestamp'
p7
aF0.7977828979492188
aatp8
Rp9
.ccollections
OrderedDict
p0
((lp1
(lp2
S'state'
p3
aI0
aa(lp4
S'distance'
p5
aF369.74378204345703
aa(lp6
S'timestamp'
p7
aF0.7985930442810059
aatp8
Rp9
.ccollections
OrderedDict
p0
((lp1
(lp2
S'state'
p3
aI0
aa(lp4
S'distance'
p5
aF369.74378204345703
aa(lp6
S'timestamp'
p7
aF0.8081858158111572
aatp8
Rp9
.ccollections
OrderedDict
p0
((lp1
(lp2
S'state'
p3
aI0
aa(lp4
S'distance'
p5
aF369.74378204345703
aa(lp6
S'timestamp'
p7
aF0.808264970779419
aatp8
Rp9
.ccollections
OrderedDict
p0
((lp1
(lp2
S'state'
p3
aI0
aa(lp4
S'distance'
p5
aF369.74378204345703
aa(lp6
S'timestamp'
p7
aF0.8179569244384766
aatp8
Rp9
.ccollections
OrderedDict
p0
((lp1
(lp2
S'state'
p3
aI0
aa(lp4
S'distance'
p5
aF369.74378204345703
aa(lp6
S'timestamp'
p7
aF0.818572998046875
aatp8
Rp9
.ccollections
OrderedDict
p0
((lp1
(lp2
S'state'
p3
aI0
aa(lp4
S'distance'
p5
aF369.74378204345703
aa(lp6
S'timestamp'
p7
aF0.8279268741607666
aatp8
Rp9
.ccollections
OrderedDict
p0
((lp1
(lp2
S'state'
p3
aI0
aa(lp4
S'distance'
p5
aF369.74378204345703
aa(lp6
S'timestamp'
p7
aF0.8283369541168213
aatp8
Rp9
.ccollections
OrderedDict
p0
((lp1
(lp2
S'state'
p3
aI0
aa(lp4
S'distance'
p5
aF369.74378204345703
aa(lp6
S'timestamp'
p7
aF0.8382949829101562
aatp8
Rp9
.ccollections
OrderedDict
p0
((lp1
(lp2
S'state'
p3
aI0
aa(lp4
S'distance'
p5
aF369.74378204345703
aa(lp6
S'timestamp'
p7
aF0.8384079933166504
aatp8
Rp9
.ccollections
OrderedDict
p0
((lp1
(lp2
S'state'
p3
aI0
aa(lp4
S'distance'
p5
aF369.74378204345703
aa(lp6
S'timestamp'
p7
aF0.8479838371276855
aatp8
Rp9
.ccollections
OrderedDict
p0
((lp1
(lp2
S'state'
p3
aI0
aa(lp4
S'distance'
p5
aF369.74378204345703
aa(lp6
S'timestamp'
p7
aF0.8483610153198242
aatp8
Rp9
.ccollections
OrderedDict
p0
((lp1
(lp2
S'state'
p3
aI0
aa(lp4
S'distance'
p5
aF369.74378204345703
aa(lp6
S'timestamp'
p7
aF0.8587749004364014
aatp8
Rp9
.ccollections
OrderedDict
p0
((lp1
(lp2
S'state'
p3
aI0
aa(lp4
S'distance'
p5
aF369.74378204345703
aa(lp6
S'timestamp'
p7
aF0.8593859672546387
aatp8
Rp9
.ccollections
OrderedDict
p0
((lp1
(lp2
S'state'
p3
aI0
aa(lp4
S'distance'
p5
aF369.74378204345703
aa(lp6
S'timestamp'
p7
aF0.8677480220794678
aatp8
Rp9
.ccollections
OrderedDict
p0
((lp1
(lp2
S'state'
p3
aI0
aa(lp4
S'distance'
p5
aF369.74378204345703
aa(lp6
S'timestamp'
p7
aF0.8779778480529785
aatp8
Rp9
.ccollections
OrderedDict
p0
((lp1
(lp2
S'state'
p3
aI0
aa(lp4
S'distance'
p5
aF369.74378204345703
aa(lp6
S'timestamp'
p7
aF0.8782370090484619
aatp8
Rp9
.ccollections
OrderedDict
p0
((lp1
(lp2
S'state'
p3
aI0
aa(lp4
S'distance'
p5
aF369.74378204345703
aa(lp6
S'timestamp'
p7
aF0.879112958908081
aatp8
Rp9
.ccollections
OrderedDict
p0
((lp1
(lp2
S'state'
p3
aI0
aa(lp4
S'distance'
p5
aF369.74378204345703
aa(lp6
S'timestamp'
p7
aF0.8876090049743652
aatp8
Rp9
.ccollections
OrderedDict
p0
((lp1
(lp2
S'state'
p3
aI0
aa(lp4
S'distance'
p5
aF369.74378204345703
aa(lp6
S'timestamp'
p7
aF0.888239860534668
aatp8
Rp9
.ccollections
OrderedDict
p0
((lp1
(lp2
S'state'
p3
aI0
aa(lp4
S'distance'
p5
aF369.74378204345703
aa(lp6
S'timestamp'
p7
aF0.8978710174560547
aatp8
Rp9
.ccollections
OrderedDict
p0
((lp1
(lp2
S'state'
p3
aI0
aa(lp4
S'distance'
p5
aF369.74378204345703
aa(lp6
S'timestamp'
p7
aF0.8985629081726074
aatp8
Rp9
.ccollections
OrderedDict
p0
((lp1
(lp2
S'state'
p3
aI0
aa(lp4
S'distance'
p5
aF369.74378204345703
aa(lp6
S'timestamp'
p7
aF0.9075729846954346
aatp8
Rp9
.ccollections
OrderedDict
p0
((lp1
(lp2
S'state'
p3
aI0
aa(lp4
S'distance'
p5
aF369.74378204345703
aa(lp6
S'timestamp'
p7
aF0.9080018997192383
aatp8
Rp9
.ccollections
OrderedDict
p0
((lp1
(lp2
S'state'
p3
aI0
aa(lp4
S'distance'
p5
aF369.74378204345703
aa(lp6
S'timestamp'
p7
aF0.9181098937988281
aatp8
Rp9
.ccollections
OrderedDict
p0
((lp1
(lp2
S'state'
p3
aI0
aa(lp4
S'distance'
p5
aF369.74378204345703
aa(lp6
S'timestamp'
p7
aF0.9182138442993164
aatp8
Rp9
.ccollections
OrderedDict
p0
((lp1
(lp2
S'state'
p3
aI0
aa(lp4
S'distance'
p5
aF369.74378204345703
aa(lp6
S'timestamp'
p7
aF0.9483120441436768
aatp8
Rp9
.ccollections
OrderedDict
p0
((lp1
(lp2
S'state'
p3
aI0
aa(lp4
S'distance'
p5
aF369.74378204345703
aa(lp6
S'timestamp'
p7
aF0.9485249519348145
aatp8
Rp9
.ccollections
OrderedDict
p0
((lp1
(lp2
S'state'
p3
aI0
aa(lp4
S'distance'
p5
aF369.74378204345703
aa(lp6
S'timestamp'
p7
aF0.9486868381500244
aatp8
Rp9
.ccollections
OrderedDict
p0
((lp1
(lp2
S'state'
p3
aI0
aa(lp4
S'distance'
p5
aF369.74378204345703
aa(lp6
S'timestamp'
p7
aF0.9489858150482178
aatp8
Rp9
.ccollections
OrderedDict
p0
((lp1
(lp2
S'state'
p3
aI0
aa(lp4
S'distance'
p5
aF369.74378204345703
aa(lp6
S'timestamp'
p7
aF0.9579598903656006
aatp8
Rp9
.ccollections
OrderedDict
p0
((lp1
(lp2
S'state'
p3
aI0
aa(lp4
S'distance'
p5
aF369.74378204345703
aa(lp6
S'timestamp'
p7
aF0.9584250450134277
aatp8
Rp9
.ccollections
OrderedDict
p0
((lp1
(lp2
S'state'
p3
aI0
aa(lp4
S'distance'
p5
aF369.74378204345703
aa(lp6
S'timestamp'
p7
aF0.960230827331543
aatp8
Rp9
.ccollections
OrderedDict
p0
((lp1
(lp2
S'state'
p3
aI0
aa(lp4
S'distance'
p5
aF369.74378204345703
aa(lp6
S'timestamp'
p7
aF0.9611759185791016
aatp8
Rp9
.ccollections
OrderedDict
p0
((lp1
(lp2
S'state'
p3
aI0
aa(lp4
S'distance'
p5
aF369.74378204345703
aa(lp6
S'timestamp'
p7
aF0.9680168628692627
aatp8
Rp9
.ccollections
OrderedDict
p0
((lp1
(lp2
S'state'
p3
aI0
aa(lp4
S'distance'
p5
aF369.74378204345703
aa(lp6
S'timestamp'
p7
aF0.9684569835662842
aatp8
Rp9
.ccollections
OrderedDict
p0
((lp1
(lp2
S'state'
p3
aI0
aa(lp4
S'distance'
p5
aF369.74378204345703
aa(lp6
S'timestamp'
p7
aF0.977841854095459
aatp8
Rp9
.ccollections
OrderedDict
p0
((lp1
(lp2
S'state'
p3
aI0
aa(lp4
S'distance'
p5
aF369.74378204345703
aa(lp6
S'timestamp'
p7
aF0.9781758785247803
aatp8
Rp9
.ccollections
OrderedDict
p0
((lp1
(lp2
S'state'
p3
aI0
aa(lp4
S'distance'
p5
aF369.74378204345703
aa(lp6
S'timestamp'
p7
aF1.0079388618469238
aatp8
Rp9
.ccollections
OrderedDict
p0
((lp1
(lp2
S'state'
p3
aI0
aa(lp4
S'distance'
p5
aF369.74378204345703
aa(lp6
S'timestamp'
p7
aF1.008141040802002
aatp8
Rp9
.ccollections
OrderedDict
p0
((lp1
(lp2
S'state'
p3
aI0
aa(lp4
S'distance'
p5
aF369.74378204345703
aa(lp6
S'timestamp'
p7
aF1.0179250240325928
aatp8
Rp9
.ccollections
OrderedDict
p0
((lp1
(lp2
S'state'
p3
aI0
aa(lp4
S'distance'
p5
aF369.74378204345703
aa(lp6
S'timestamp'
p7
aF1.0180449485778809
aatp8
Rp9
.ccollections
OrderedDict
p0
((lp1
(lp2
S'state'
p3
aI0
aa(lp4
S'distance'
p5
aF369.74378204345703
aa(lp6
S'timestamp'
p7
aF1.0200610160827637
aatp8
Rp9
.ccollections
OrderedDict
p0
((lp1
(lp2
S'state'
p3
aI0
aa(lp4
S'distance'
p5
aF369.74378204345703
aa(lp6
S'timestamp'
p7
aF1.020136833190918
aatp8
Rp9
.ccollections
OrderedDict
p0
((lp1
(lp2
S'state'
p3
aI0
aa(lp4
S'distance'
p5
aF369.74378204345703
aa(lp6
S'timestamp'
p7
aF1.0285420417785645
aatp8
Rp9
.ccollections
OrderedDict
p0
((lp1
(lp2
S'state'
p3
aI0
aa(lp4
S'distance'
p5
aF369.74378204345703
aa(lp6
S'timestamp'
p7
aF1.0286970138549805
aatp8
Rp9
.ccollections
OrderedDict
p0
((lp1
(lp2
S'state'
p3
aI0
aa(lp4
S'distance'
p5
aF369.74378204345703
aa(lp6
S'timestamp'
p7
aF1.0288138389587402
aatp8
Rp9
.ccollections
OrderedDict
p0
((lp1
(lp2
S'state'
p3
aI0
aa(lp4
S'distance'
p5
aF369.74378204345703
aa(lp6
S'timestamp'
p7
aF1.0290160179138184
aatp8
Rp9
.ccollections
OrderedDict
p0
((lp1
(lp2
S'state'
p3
aI0
aa(lp4
S'distance'
p5
aF369.74378204345703
aa(lp6
S'timestamp'
p7
aF1.0379929542541504
aatp8
Rp9
.ccollections
OrderedDict
p0
((lp1
(lp2
S'state'
p3
aI0
aa(lp4
S'distance'
p5
aF369.74378204345703
aa(lp6
S'timestamp'
p7
aF1.038404941558838
aatp8
Rp9
.ccollections
OrderedDict
p0
((lp1
(lp2
S'state'
p3
aI0
aa(lp4
S'distance'
p5
aF369.74378204345703
aa(lp6
S'timestamp'
p7
aF1.0479838848114014
aatp8
Rp9
.ccollections
OrderedDict
p0
((lp1
(lp2
S'state'
p3
aI0
aa(lp4
S'distance'
p5
aF369.74378204345703
aa(lp6
S'timestamp'
p7
aF1.0483360290527344
aatp8
Rp9
.ccollections
OrderedDict
p0
((lp1
(lp2
S'state'
p3
aI0
aa(lp4
S'distance'
p5
aF369.74378204345703
aa(lp6
S'timestamp'
p7
aF1.058607816696167
aatp8
Rp9
.ccollections
OrderedDict
p0
((lp1
(lp2
S'state'
p3
aI0
aa(lp4
S'distance'
p5
aF369.74378204345703
aa(lp6
S'timestamp'
p7
aF1.0588459968566895
aatp8
Rp9
.ccollections
OrderedDict
p0
((lp1
(lp2
S'state'
p3
aI0
aa(lp4
S'distance'
p5
aF369.74378204345703
aa(lp6
S'timestamp'
p7
aF1.0681018829345703
aatp8
Rp9
.ccollections
OrderedDict
p0
((lp1
(lp2
S'state'
p3
aI0
aa(lp4
S'distance'
p5
aF369.74378204345703
aa(lp6
S'timestamp'
p7
aF1.0681798458099365
aatp8
Rp9
.ccollections
OrderedDict
p0
((lp1
(lp2
S'state'
p3
aI0
aa(lp4
S'distance'
p5
aF369.74378204345703
aa(lp6
S'timestamp'
p7
aF1.0885930061340332
aatp8
Rp9
.ccollections
OrderedDict
p0
((lp1
(lp2
S'state'
p3
aI0
aa(lp4
S'distance'
p5
aF369.74378204345703
aa(lp6
S'timestamp'
p7
aF1.088681936264038
aatp8
Rp9
.ccollections
OrderedDict
p0
((lp1
(lp2
S'state'
p3
aI0
aa(lp4
S'distance'
p5
aF369.74378204345703
aa(lp6
S'timestamp'
p7
aF1.088752031326294
aatp8
Rp9
.ccollections
OrderedDict
p0
((lp1
(lp2
S'state'
p3
aI0
aa(lp4
S'distance'
p5
aF369.74378204345703
aa(lp6
S'timestamp'
p7
aF1.088860034942627
aatp8
Rp9
.ccollections
OrderedDict
p0
((lp1
(lp2
S'state'
p3
aI0
aa(lp4
S'distance'
p5
aF369.74378204345703
aa(lp6
S'timestamp'
p7
aF1.0980310440063477
aatp8
Rp9
.ccollections
OrderedDict
p0
((lp1
(lp2
S'state'
p3
aI0
aa(lp4
S'distance'
p5
aF369.74378204345703
aa(lp6
S'timestamp'
p7
aF1.098572015762329
aatp8
Rp9
.ccollections
OrderedDict
p0
((lp1
(lp2
S'state'
p3
aI0
aa(lp4
S'distance'
p5
aF369.74378204345703
aa(lp6
S'timestamp'
p7
aF1.1082279682159424
aatp8
Rp9
.ccollections
OrderedDict
p0
((lp1
(lp2
S'state'
p3
aI0
aa(lp4
S'distance'
p5
aF369.74378204345703
aa(lp6
S'timestamp'
p7
aF1.1083078384399414
aatp8
Rp9
.ccollections
OrderedDict
p0
((lp1
(lp2
S'state'
p3
aI0
aa(lp4
S'distance'
p5
aF369.74378204345703
aa(lp6
S'timestamp'
p7
aF1.1180438995361328
aatp8
Rp9
.ccollections
OrderedDict
p0
((lp1
(lp2
S'state'
p3
aI0
aa(lp4
S'distance'
p5
aF369.74378204345703
aa(lp6
S'timestamp'
p7
aF1.1181678771972656
aatp8
Rp9
.ccollections
OrderedDict
p0
((lp1
(lp2
S'state'
p3
aI0
aa(lp4
S'distance'
p5
aF369.74378204345703
aa(lp6
S'timestamp'
p7
aF1.1276109218597412
aatp8
Rp9
.ccollections
OrderedDict
p0
((lp1
(lp2
S'state'
p3
aI0
aa(lp4
S'distance'
p5
aF369.74378204345703
aa(lp6
S'timestamp'
p7
aF1.128242015838623
aatp8
Rp9
.ccollections
OrderedDict
p0
((lp1
(lp2
S'state'
p3
aI0
aa(lp4
S'distance'
p5
aF369.74378204345703
aa(lp6
S'timestamp'
p7
aF1.137643814086914
aatp8
Rp9
.ccollections
OrderedDict
p0
((lp1
(lp2
S'state'
p3
aI0
aa(lp4
S'distance'
p5
aF369.74378204345703
aa(lp6
S'timestamp'
p7
aF1.1390409469604492
aatp8
Rp9
.ccollections
OrderedDict
p0
((lp1
(lp2
S'state'
p3
aI0
aa(lp4
S'distance'
p5
aF369.74378204345703
aa(lp6
S'timestamp'
p7
aF1.1479549407958984
aatp8
Rp9
.ccollections
OrderedDict
p0
((lp1
(lp2
S'state'
p3
aI0
aa(lp4
S'distance'
p5
aF369.74378204345703
aa(lp6
S'timestamp'
p7
aF1.1484479904174805
aatp8
Rp9
.ccollections
OrderedDict
p0
((lp1
(lp2
S'state'
p3
aI0
aa(lp4
S'distance'
p5
aF369.74378204345703
aa(lp6
S'timestamp'
p7
aF1.1675848960876465
aatp8
Rp9
.ccollections
OrderedDict
p0
((lp1
(lp2
S'state'
p3
aI0
aa(lp4
S'distance'
p5
aF369.74378204345703
aa(lp6
S'timestamp'
p7
aF1.168215036392212
aatp8
Rp9
.ccollections
OrderedDict
p0
((lp1
(lp2
S'state'
p3
aI0
aa(lp4
S'distance'
p5
aF369.74378204345703
aa(lp6
S'timestamp'
p7
aF1.1687779426574707
aatp8
Rp9
.ccollections
OrderedDict
p0
((lp1
(lp2
S'state'
p3
aI0
aa(lp4
S'distance'
p5
aF369.74378204345703
aa(lp6
S'timestamp'
p7
aF1.169036865234375
aatp8
Rp9
.ccollections
OrderedDict
p0
((lp1
(lp2
S'state'
p3
aI0
aa(lp4
S'distance'
p5
aF369.74378204345703
aa(lp6
S'timestamp'
p7
aF1.1875488758087158
aatp8
Rp9
.ccollections
OrderedDict
p0
((lp1
(lp2
S'state'
p3
aI0
aa(lp4
S'distance'
p5
aF369.74378204345703
aa(lp6
S'timestamp'
p7
aF1.1883158683776855
aatp8
Rp9
.ccollections
OrderedDict
p0
((lp1
(lp2
S'state'
p3
aI0
aa(lp4
S'distance'
p5
aF369.74378204345703
aa(lp6
S'timestamp'
p7
aF1.1896748542785645
aatp8
Rp9
.ccollections
OrderedDict
p0
((lp1
(lp2
S'state'
p3
aI0
aa(lp4
S'distance'
p5
aF369.74378204345703
aa(lp6
S'timestamp'
p7
aF1.1901748180389404
aatp8
Rp9
.ccollections
OrderedDict
p0
((lp1
(lp2
S'state'
p3
aI0
aa(lp4
S'distance'
p5
aF369.74378204345703
aa(lp6
S'timestamp'
p7
aF1.197674036026001
aatp8
Rp9
.ccollections
OrderedDict
p0
((lp1
(lp2
S'state'
p3
aI0
aa(lp4
S'distance'
p5
aF369.74378204345703
aa(lp6
S'timestamp'
p7
aF1.1982660293579102
aatp8
Rp9
.ccollections
OrderedDict
p0
((lp1
(lp2
S'state'
p3
aI0
aa(lp4
S'distance'
p5
aF369.74378204345703
aa(lp6
S'timestamp'
p7
aF1.2113568782806396
aatp8
Rp9
.ccollections
OrderedDict
p0
((lp1
(lp2
S'state'
p3
aI0
aa(lp4
S'distance'
p5
aF369.74378204345703
aa(lp6
S'timestamp'
p7
aF1.2115769386291504
aatp8
Rp9
.ccollections
OrderedDict
p0
((lp1
(lp2
S'state'
p3
aI0
aa(lp4
S'distance'
p5
aF369.74378204345703
aa(lp6
S'timestamp'
p7
aF1.2278249263763428
aatp8
Rp9
.ccollections
OrderedDict
p0
((lp1
(lp2
S'state'
p3
aI0
aa(lp4
S'distance'
p5
aF369.74378204345703
aa(lp6
S'timestamp'
p7
aF1.2280290126800537
aatp8
Rp9
.ccollections
OrderedDict
p0
((lp1
(lp2
S'state'
p3
aI0
aa(lp4
S'distance'
p5
aF369.74378204345703
aa(lp6
S'timestamp'
p7
aF1.2284510135650635
aatp8
Rp9
.ccollections
OrderedDict
p0
((lp1
(lp2
S'state'
p3
aI0
aa(lp4
S'distance'
p5
aF369.74378204345703
aa(lp6
S'timestamp'
p7
aF1.2293469905853271
aatp8
Rp9
.ccollections
OrderedDict
p0
((lp1
(lp2
S'state'
p3
aI0
aa(lp4
S'distance'
p5
aF369.74378204345703
aa(lp6
S'timestamp'
p7
aF1.2380828857421875
aatp8
Rp9
.ccollections
OrderedDict
p0
((lp1
(lp2
S'state'
p3
aI0
aa(lp4
S'distance'
p5
aF369.74378204345703
aa(lp6
S'timestamp'
p7
aF1.2381620407104492
aatp8
Rp9
.ccollections
OrderedDict
p0
((lp1
(lp2
S'state'
p3
aI0
aa(lp4
S'distance'
p5
aF369.74378204345703
aa(lp6
S'timestamp'
p7
aF1.248262882232666
aatp8
Rp9
.ccollections
OrderedDict
p0
((lp1
(lp2
S'state'
p3
aI0
aa(lp4
S'distance'
p5
aF369.74378204345703
aa(lp6
S'timestamp'
p7
aF1.2483599185943604
aatp8
Rp9
.ccollections
OrderedDict
p0
((lp1
(lp2
S'state'
p3
aI0
aa(lp4
S'distance'
p5
aF369.74378204345703
aa(lp6
S'timestamp'
p7
aF1.2578599452972412
aatp8
Rp9
.ccollections
OrderedDict
p0
((lp1
(lp2
S'state'
p3
aI0
aa(lp4
S'distance'
p5
aF369.74378204345703
aa(lp6
S'timestamp'
p7
aF1.2587168216705322
aatp8
Rp9
.ccollections
OrderedDict
p0
((lp1
(lp2
S'state'
p3
aI0
aa(lp4
S'distance'
p5
aF369.74378204345703
aa(lp6
S'timestamp'
p7
aF1.2679920196533203
aatp8
Rp9
.ccollections
OrderedDict
p0
((lp1
(lp2
S'state'
p3
aI0
aa(lp4
S'distance'
p5
aF369.74378204345703
aa(lp6
S'timestamp'
p7
aF1.2682130336761475
aatp8
Rp9
.ccollections
OrderedDict
p0
((lp1
(lp2
S'state'
p3
aI0
aa(lp4
S'distance'
p5
aF369.74378204345703
aa(lp6
S'timestamp'
p7
aF1.277897834777832
aatp8
Rp9
.ccollections
OrderedDict
p0
((lp1
(lp2
S'state'
p3
aI0
aa(lp4
S'distance'
p5
aF369.74378204345703
aa(lp6
S'timestamp'
p7
aF1.2783079147338867
aatp8
Rp9
.ccollections
OrderedDict
p0
((lp1
(lp2
S'state'
p3
aI0
aa(lp4
S'distance'
p5
aF369.74378204345703
aa(lp6
S'timestamp'
p7
aF1.2876558303833008
aatp8
Rp9
.ccollections
OrderedDict
p0
((lp1
(lp2
S'state'
p3
aI0
aa(lp4
S'distance'
p5
aF369.74378204345703
aa(lp6
S'timestamp'
p7
aF1.2880070209503174
aatp8
Rp9
.ccollections
OrderedDict
p0
((lp1
(lp2
S'state'
p3
aI0
aa(lp4
S'distance'
p5
aF369.74378204345703
aa(lp6
S'timestamp'
p7
aF1.2984018325805664
aatp8
Rp9
.ccollections
OrderedDict
p0
((lp1
(lp2
S'state'
p3
aI0
aa(lp4
S'distance'
p5
aF369.74378204345703
aa(lp6
S'timestamp'
p7
aF1.298832893371582
aatp8
Rp9
.ccollections
OrderedDict
p0
((lp1
(lp2
S'state'
p3
aI0
aa(lp4
S'distance'
p5
aF369.74378204345703
aa(lp6
S'timestamp'
p7
aF1.308210849761963
aatp8
Rp9
.ccollections
OrderedDict
p0
((lp1
(lp2
S'state'
p3
aI0
aa(lp4
S'distance'
p5
aF369.74378204345703
aa(lp6
S'timestamp'
p7
aF1.3082849979400635
aatp8
Rp9
.ccollections
OrderedDict
p0
((lp1
(lp2
S'state'
p3
aI0
aa(lp4
S'distance'
p5
aF369.74378204345703
aa(lp6
S'timestamp'
p7
aF1.3181300163269043
aatp8
Rp9
.ccollections
OrderedDict
p0
((lp1
(lp2
S'state'
p3
aI0
aa(lp4
S'distance'
p5
aF369.74378204345703
aa(lp6
S'timestamp'
p7
aF1.3182108402252197
aatp8
Rp9
.ccollections
OrderedDict
p0
((lp1
(lp2
S'state'
p3
aI0
aa(lp4
S'distance'
p5
aF369.74378204345703
aa(lp6
S'timestamp'
p7
aF1.3277838230133057
aatp8
Rp9
.ccollections
OrderedDict
p0
((lp1
(lp2
S'state'
p3
aI0
aa(lp4
S'distance'
p5
aF369.74378204345703
aa(lp6
S'timestamp'
p7
aF1.3281970024108887
aatp8
Rp9
.ccollections
OrderedDict
p0
((lp1
(lp2
S'state'
p3
aI0
aa(lp4
S'distance'
p5
aF369.74378204345703
aa(lp6
S'timestamp'
p7
aF1.3380520343780518
aatp8
Rp9
.ccollections
OrderedDict
p0
((lp1
(lp2
S'state'
p3
aI0
aa(lp4
S'distance'
p5
aF369.74378204345703
aa(lp6
S'timestamp'
p7
aF1.3384919166564941
aatp8
Rp9
.ccollections
OrderedDict
p0
((lp1
(lp2
S'state'
p3
aI0
aa(lp4
S'distance'
p5
aF369.74378204345703
aa(lp6
S'timestamp'
p7
aF1.3482568264007568
aatp8
Rp9
.ccollections
OrderedDict
p0
((lp1
(lp2
S'state'
p3
aI0
aa(lp4
S'distance'
p5
aF369.74378204345703
aa(lp6
S'timestamp'
p7
aF1.3483848571777344
aatp8
Rp9
.ccollections
OrderedDict
p0
((lp1
(lp2
S'state'
p3
aI0
aa(lp4
S'distance'
p5
aF369.74378204345703
aa(lp6
S'timestamp'
p7
aF1.3577258586883545
aatp8
Rp9
.ccollections
OrderedDict
p0
((lp1
(lp2
S'state'
p3
aI0
aa(lp4
S'distance'
p5
aF369.74378204345703
aa(lp6
S'timestamp'
p7
aF1.3583199977874756
aatp8
Rp9
.ccollections
OrderedDict
p0
((lp1
(lp2
S'state'
p3
aI0
aa(lp4
S'distance'
p5
aF369.74378204345703
aa(lp6
S'timestamp'
p7
aF1.3675448894500732
aatp8
Rp9
.ccollections
OrderedDict
p0
((lp1
(lp2
S'state'
p3
aI0
aa(lp4
S'distance'
p5
aF369.74378204345703
aa(lp6
S'timestamp'
p7
aF1.368351936340332
aatp8
Rp9
.ccollections
OrderedDict
p0
((lp1
(lp2
S'state'
p3
aI0
aa(lp4
S'distance'
p5
aF369.74378204345703
aa(lp6
S'timestamp'
p7
aF1.3879890441894531
aatp8
Rp9
.ccollections
OrderedDict
p0
((lp1
(lp2
S'state'
p3
aI0
aa(lp4
S'distance'
p5
aF369.74378204345703
aa(lp6
S'timestamp'
p7
aF1.388490915298462
aatp8
Rp9
.ccollections
OrderedDict
p0
((lp1
(lp2
S'state'
p3
aI0
aa(lp4
S'distance'
p5
aF369.74378204345703
aa(lp6
S'timestamp'
p7
aF1.3889639377593994
aatp8
Rp9
.ccollections
OrderedDict
p0
((lp1
(lp2
S'state'
p3
aI0
aa(lp4
S'distance'
p5
aF369.74378204345703
aa(lp6
S'timestamp'
p7
aF1.3893108367919922
aatp8
Rp9
.ccollections
OrderedDict
p0
((lp1
(lp2
S'state'
p3
aI0
aa(lp4
S'distance'
p5
aF369.74378204345703
aa(lp6
S'timestamp'
p7
aF1.3978848457336426
aatp8
Rp9
.ccollections
OrderedDict
p0
((lp1
(lp2
S'state'
p3
aI0
aa(lp4
S'distance'
p5
aF369.74378204345703
aa(lp6
S'timestamp'
p7
aF1.3984019756317139
aatp8
Rp9
.ccollections
OrderedDict
p0
((lp1
(lp2
S'state'
p3
aI0
aa(lp4
S'distance'
p5
aF369.74378204345703
aa(lp6
S'timestamp'
p7
aF1.4081718921661377
aatp8
Rp9
.ccollections
OrderedDict
p0
((lp1
(lp2
S'state'
p3
aI0
aa(lp4
S'distance'
p5
aF369.74378204345703
aa(lp6
S'timestamp'
p7
aF1.4082539081573486
aatp8
Rp9
.ccollections
OrderedDict
p0
((lp1
(lp2
S'state'
p3
aI0
aa(lp4
S'distance'
p5
aF369.74378204345703
aa(lp6
S'timestamp'
p7
aF1.4173469543457031
aatp8
Rp9
.ccollections
OrderedDict
p0
((lp1
(lp2
S'state'
p3
aI0
aa(lp4
S'distance'
p5
aF369.74378204345703
aa(lp6
S'timestamp'
p7
aF1.4186649322509766
aatp8
Rp9
.ccollections
OrderedDict
p0
((lp1
(lp2
S'state'
p3
aI0
aa(lp4
S'distance'
p5
aF369.74378204345703
aa(lp6
S'timestamp'
p7
aF1.4281589984893799
aatp8
Rp9
.ccollections
OrderedDict
p0
((lp1
(lp2
S'state'
p3
aI0
aa(lp4
S'distance'
p5
aF369.74378204345703
aa(lp6
S'timestamp'
p7
aF1.4282360076904297
aatp8
Rp9
.ccollections
OrderedDict
p0
((lp1
(lp2
S'state'
p3
aI0
aa(lp4
S'distance'
p5
aF369.74378204345703
aa(lp6
S'timestamp'
p7
aF1.4379258155822754
aatp8
Rp9
.ccollections
OrderedDict
p0
((lp1
(lp2
S'state'
p3
aI0
aa(lp4
S'distance'
p5
aF369.74378204345703
aa(lp6
S'timestamp'
p7
aF1.438004970550537
aatp8
Rp9
.ccollections
OrderedDict
p0
((lp1
(lp2
S'state'
p3
aI0
aa(lp4
S'distance'
p5
aF369.74378204345703
aa(lp6
S'timestamp'
p7
aF1.4476039409637451
aatp8
Rp9
.ccollections
OrderedDict
p0
((lp1
(lp2
S'state'
p3
aI0
aa(lp4
S'distance'
p5
aF369.74378204345703
aa(lp6
S'timestamp'
p7
aF1.4480600357055664
aatp8
Rp9
.ccollections
OrderedDict
p0
((lp1
(lp2
S'state'
p3
aI0
aa(lp4
S'distance'
p5
aF369.74378204345703
aa(lp6
S'timestamp'
p7
aF1.4583978652954102
aatp8
Rp9
.ccollections
OrderedDict
p0
((lp1
(lp2
S'state'
p3
aI0
aa(lp4
S'distance'
p5
aF369.74378204345703
aa(lp6
S'timestamp'
p7
aF1.458798885345459
aatp8
Rp9
.ccollections
OrderedDict
p0
((lp1
(lp2
S'state'
p3
aI0
aa(lp4
S'distance'
p5
aF369.74378204345703
aa(lp6
S'timestamp'
p7
aF1.4676868915557861
aatp8
Rp9
.ccollections
OrderedDict
p0
((lp1
(lp2
S'state'
p3
aI0
aa(lp4
S'distance'
p5
aF369.74378204345703
aa(lp6
S'timestamp'
p7
aF1.4685750007629395
aatp8
Rp9
.ccollections
OrderedDict
p0
((lp1
(lp2
S'state'
p3
aI0
aa(lp4
S'distance'
p5
aF369.74378204345703
aa(lp6
S'timestamp'
p7
aF1.4775059223175049
aatp8
Rp9
.ccollections
OrderedDict
p0
((lp1
(lp2
S'state'
p3
aI0
aa(lp4
S'distance'
p5
aF369.74378204345703
aa(lp6
S'timestamp'
p7
aF1.47816801071167
aatp8
Rp9
.ccollections
OrderedDict
p0
((lp1
(lp2
S'state'
p3
aI0
aa(lp4
S'distance'
p5
aF369.74378204345703
aa(lp6
S'timestamp'
p7
aF1.487381935119629
aatp8
Rp9
.ccollections
OrderedDict
p0
((lp1
(lp2
S'state'
p3
aI0
aa(lp4
S'distance'
p5
aF369.74378204345703
aa(lp6
S'timestamp'
p7
aF1.4878180027008057
aatp8
Rp9
.ccollections
OrderedDict
p0
((lp1
(lp2
S'state'
p3
aI0
aa(lp4
S'distance'
p5
aF369.74378204345703
aa(lp6
S'timestamp'
p7
aF1.4975168704986572
aatp8
Rp9
.ccollections
OrderedDict
p0
((lp1
(lp2
S'state'
p3
aI0
aa(lp4
S'distance'
p5
aF369.74378204345703
aa(lp6
S'timestamp'
p7
aF1.4982998371124268
aatp8
Rp9
.ccollections
OrderedDict
p0
((lp1
(lp2
S'state'
p3
aI0
aa(lp4
S'distance'
p5
aF369.74378204345703
aa(lp6
S'timestamp'
p7
aF1.5075960159301758
aatp8
Rp9
.ccollections
OrderedDict
p0
((lp1
(lp2
S'state'
p3
aI0
aa(lp4
S'distance'
p5
aF369.74378204345703
aa(lp6
S'timestamp'
p7
aF1.5082879066467285
aatp8
Rp9
.ccollections
OrderedDict
p0
((lp1
(lp2
S'state'
p3
aI0
aa(lp4
S'distance'
p5
aF369.74378204345703
aa(lp6
S'timestamp'
p7
aF1.5177249908447266
aatp8
Rp9
.ccollections
OrderedDict
p0
((lp1
(lp2
S'state'
p3
aI0
aa(lp4
S'distance'
p5
aF369.74378204345703
aa(lp6
S'timestamp'
p7
aF1.5184049606323242
aatp8
Rp9
.ccollections
OrderedDict
p0
((lp1
(lp2
S'state'
p3
aI0
aa(lp4
S'distance'
p5
aF369.74378204345703
aa(lp6
S'timestamp'
p7
aF1.527418851852417
aatp8
Rp9
.ccollections
OrderedDict
p0
((lp1
(lp2
S'state'
p3
aI0
aa(lp4
S'distance'
p5
aF369.74378204345703
aa(lp6
S'timestamp'
p7
aF1.5278840065002441
aatp8
Rp9
.ccollections
OrderedDict
p0
((lp1
(lp2
S'state'
p3
aI0
aa(lp4
S'distance'
p5
aF369.74378204345703
aa(lp6
S'timestamp'
p7
aF1.537524938583374
aatp8
Rp9
.ccollections
OrderedDict
p0
((lp1
(lp2
S'state'
p3
aI0
aa(lp4
S'distance'
p5
aF369.74378204345703
aa(lp6
S'timestamp'
p7
aF1.5391199588775635
aatp8
Rp9
.ccollections
OrderedDict
p0
((lp1
(lp2
S'state'
p3
aI0
aa(lp4
S'distance'
p5
aF369.74378204345703
aa(lp6
S'timestamp'
p7
aF1.5481719970703125
aatp8
Rp9
.ccollections
OrderedDict
p0
((lp1
(lp2
S'state'
p3
aI0
aa(lp4
S'distance'
p5
aF369.74378204345703
aa(lp6
S'timestamp'
p7
aF1.5482759475708008
aatp8
Rp9
.ccollections
OrderedDict
p0
((lp1
(lp2
S'state'
p3
aI0
aa(lp4
S'distance'
p5
aF369.74378204345703
aa(lp6
S'timestamp'
p7
aF1.5576019287109375
aatp8
Rp9
.ccollections
OrderedDict
p0
((lp1
(lp2
S'state'
p3
aI0
aa(lp4
S'distance'
p5
aF369.74378204345703
aa(lp6
S'timestamp'
p7
aF1.5582778453826904
aatp8
Rp9
.ccollections
OrderedDict
p0
((lp1
(lp2
S'state'
p3
aI0
aa(lp4
S'distance'
p5
aF369.74378204345703
aa(lp6
S'timestamp'
p7
aF1.5674378871917725
aatp8
Rp9
.ccollections
OrderedDict
p0
((lp1
(lp2
S'state'
p3
aI0
aa(lp4
S'distance'
p5
aF369.74378204345703
aa(lp6
S'timestamp'
p7
aF1.5678119659423828
aatp8
Rp9
.ccollections
OrderedDict
p0
((lp1
(lp2
S'state'
p3
aI0
aa(lp4
S'distance'
p5
aF369.74378204345703
aa(lp6
S'timestamp'
p7
aF1.5776448249816895
aatp8
Rp9
.ccollections
OrderedDict
p0
((lp1
(lp2
S'state'
p3
aI0
aa(lp4
S'distance'
p5
aF369.74378204345703
aa(lp6
S'timestamp'
p7
aF1.578739881515503
aatp8
Rp9
.ccollections
OrderedDict
p0
((lp1
(lp2
S'state'
p3
aI0
aa(lp4
S'distance'
p5
aF369.74378204345703
aa(lp6
S'timestamp'
p7
aF1.5881428718566895
aatp8
Rp9
.ccollections
OrderedDict
p0
((lp1
(lp2
S'state'
p3
aI0
aa(lp4
S'distance'
p5
aF369.74378204345703
aa(lp6
S'timestamp'
p7
aF1.5882208347320557
aatp8
Rp9
.ccollections
OrderedDict
p0
((lp1
(lp2
S'state'
p3
aI0
aa(lp4
S'distance'
p5
aF369.74378204345703
aa(lp6
S'timestamp'
p7
aF1.5976178646087646
aatp8
Rp9
.ccollections
OrderedDict
p0
((lp1
(lp2
S'state'
p3
aI0
aa(lp4
S'distance'
p5
aF369.74378204345703
aa(lp6
S'timestamp'
p7
aF1.5983619689941406
aatp8
Rp9
.ccollections
OrderedDict
p0
((lp1
(lp2
S'state'
p3
aI0
aa(lp4
S'distance'
p5
aF369.74378204345703
aa(lp6
S'timestamp'
p7
aF1.6075220108032227
aatp8
Rp9
.ccollections
OrderedDict
p0
((lp1
(lp2
S'state'
p3
aI0
aa(lp4
S'distance'
p5
aF369.74378204345703
aa(lp6
S'timestamp'
p7
aF1.6083309650421143
aatp8
Rp9
.ccollections
OrderedDict
p0
((lp1
(lp2
S'state'
p3
aI0
aa(lp4
S'distance'
p5
aF369.74378204345703
aa(lp6
S'timestamp'
p7
aF1.6175730228424072
aatp8
Rp9
.ccollections
OrderedDict
p0
((lp1
(lp2
S'state'
p3
aI0
aa(lp4
S'distance'
p5
aF369.74378204345703
aa(lp6
S'timestamp'
p7
aF1.6186048984527588
aatp8
Rp9
.ccollections
OrderedDict
p0
((lp1
(lp2
S'state'
p3
aI400
aa(lp4
S'distance'
p5
aF369.74378204345703
aa(lp6
S'timestamp'
p7
aF1.6282129287719727
aatp8
Rp9
.ccollections
OrderedDict
p0
((lp1
(lp2
S'state'
p3
aI400
aa(lp4
S'distance'
p5
aF369.74378204345703
aa(lp6
S'timestamp'
p7
aF1.6282949447631836
aatp8
Rp9
.ccollections
OrderedDict
p0
((lp1
(lp2
S'state'
p3
aI400
aa(lp4
S'distance'
p5
aF369.74378204345703
aa(lp6
S'timestamp'
p7
aF1.637739896774292
aatp8
Rp9
.ccollections
OrderedDict
p0
((lp1
(lp2
S'state'
p3
aI400
aa(lp4
S'distance'
p5
aF369.74378204345703
aa(lp6
S'timestamp'
p7
aF1.638286828994751
aatp8
Rp9
.ccollections
OrderedDict
p0
((lp1
(lp2
S'state'
p3
aI400
aa(lp4
S'distance'
p5
aF369.74378204345703
aa(lp6
S'timestamp'
p7
aF1.6481058597564697
aatp8
Rp9
.ccollections
OrderedDict
p0
((lp1
(lp2
S'state'
p3
aI400
aa(lp4
S'distance'
p5
aF369.74378204345703
aa(lp6
S'timestamp'
p7
aF1.648360013961792
aatp8
Rp9
.ccollections
OrderedDict
p0
((lp1
(lp2
S'state'
p3
aI400
aa(lp4
S'distance'
p5
aF369.74378204345703
aa(lp6
S'timestamp'
p7
aF1.665050983428955
aatp8
Rp9
.ccollections
OrderedDict
p0
((lp1
(lp2
S'state'
p3
aI400
aa(lp4
S'distance'
p5
aF369.74378204345703
aa(lp6
S'timestamp'
p7
aF1.6658549308776855
aatp8
Rp9
.ccollections
OrderedDict
p0
((lp1
(lp2
S'state'
p3
aI400
aa(lp4
S'distance'
p5
aF369.74378204345703
aa(lp6
S'timestamp'
p7
aF1.6697378158569336
aatp8
Rp9
.ccollections
OrderedDict
p0
((lp1
(lp2
S'state'
p3
aI400
aa(lp4
S'distance'
p5
aF369.74378204345703
aa(lp6
S'timestamp'
p7
aF1.6707580089569092
aatp8
Rp9
.ccollections
OrderedDict
p0
((lp1
(lp2
S'state'
p3
aI400
aa(lp4
S'distance'
p5
aF369.74378204345703
aa(lp6
S'timestamp'
p7
aF1.6778450012207031
aatp8
Rp9
.ccollections
OrderedDict
p0
((lp1
(lp2
S'state'
p3
aI400
aa(lp4
S'distance'
p5
aF369.74378204345703
aa(lp6
S'timestamp'
p7
aF1.6781318187713623
aatp8
Rp9
.ccollections
OrderedDict
p0
((lp1
(lp2
S'state'
p3
aI400
aa(lp4
S'distance'
p5
aF369.74378204345703
aa(lp6
S'timestamp'
p7
aF1.6977849006652832
aatp8
Rp9
.ccollections
OrderedDict
p0
((lp1
(lp2
S'state'
p3
aI400
aa(lp4
S'distance'
p5
aF369.74378204345703
aa(lp6
S'timestamp'
p7
aF1.697948932647705
aatp8
Rp9
.ccollections
OrderedDict
p0
((lp1
(lp2
S'state'
p3
aI400
aa(lp4
S'distance'
p5
aF369.74378204345703
aa(lp6
S'timestamp'
p7
aF1.698124885559082
aatp8
Rp9
.ccollections
OrderedDict
p0
((lp1
(lp2
S'state'
p3
aI400
aa(lp4
S'distance'
p5
aF369.74378204345703
aa(lp6
S'timestamp'
p7
aF1.6987860202789307
aatp8
Rp9
.ccollections
OrderedDict
p0
((lp1
(lp2
S'state'
p3
aI400
aa(lp4
S'distance'
p5
aF369.74378204345703
aa(lp6
S'timestamp'
p7
aF1.7077100276947021
aatp8
Rp9
.ccollections
OrderedDict
p0
((lp1
(lp2
S'state'
p3
aI400
aa(lp4
S'distance'
p5
aF369.74378204345703
aa(lp6
S'timestamp'
p7
aF1.7082879543304443
aatp8
Rp9
.ccollections
OrderedDict
p0
((lp1
(lp2
S'state'
p3
aI400
aa(lp4
S'distance'
p5
aF369.74378204345703
aa(lp6
S'timestamp'
p7
aF1.7175159454345703
aatp8
Rp9
.ccollections
OrderedDict
p0
((lp1
(lp2
S'state'
p3
aI400
aa(lp4
S'distance'
p5
aF369.74378204345703
aa(lp6
S'timestamp'
p7
aF1.718552827835083
aatp8
Rp9
.ccollections
OrderedDict
p0
((lp1
(lp2
S'state'
p3
aI400
aa(lp4
S'distance'
p5
aF369.74378204345703
aa(lp6
S'timestamp'
p7
aF1.7273240089416504
aatp8
Rp9
.ccollections
OrderedDict
p0
((lp1
(lp2
S'state'
p3
aI400
aa(lp4
S'distance'
p5
aF369.74378204345703
aa(lp6
S'timestamp'
p7
aF1.7278218269348145
aatp8
Rp9
.ccollections
OrderedDict
p0
((lp1
(lp2
S'state'
p3
aI400
aa(lp4
S'distance'
p5
aF369.74378204345703
aa(lp6
S'timestamp'
p7
aF1.737290859222412
aatp8
Rp9
.ccollections
OrderedDict
p0
((lp1
(lp2
S'state'
p3
aI400
aa(lp4
S'distance'
p5
aF369.74378204345703
aa(lp6
S'timestamp'
p7
aF1.7384328842163086
aatp8
Rp9
.ccollections
OrderedDict
p0
((lp1
(lp2
S'state'
p3
aI400
aa(lp4
S'distance'
p5
aF369.74378204345703
aa(lp6
S'timestamp'
p7
aF1.7476179599761963
aatp8
Rp9
.ccollections
OrderedDict
p0
((lp1
(lp2
S'state'
p3
aI400
aa(lp4
S'distance'
p5
aF369.74378204345703
aa(lp6
S'timestamp'
p7
aF1.7482948303222656
aatp8
Rp9
.ccollections
OrderedDict
p0
((lp1
(lp2
S'state'
p3
aI400
aa(lp4
S'distance'
p5
aF369.74378204345703
aa(lp6
S'timestamp'
p7
aF1.7678499221801758
aatp8
Rp9
.ccollections
OrderedDict
p0
((lp1
(lp2
S'state'
p3
aI400
aa(lp4
S'distance'
p5
aF369.74378204345703
aa(lp6
S'timestamp'
p7
aF1.7682089805603027
aatp8
Rp9
.ccollections
OrderedDict
p0
((lp1
(lp2
S'state'
p3
aI400
aa(lp4
S'distance'
p5
aF369.74378204345703
aa(lp6
S'timestamp'
p7
aF1.7690370082855225
aatp8
Rp9
.ccollections
OrderedDict
p0
((lp1
(lp2
S'state'
p3
aI400
aa(lp4
S'distance'
p5
aF369.74378204345703
aa(lp6
S'timestamp'
p7
aF1.7692999839782715
aatp8
Rp9
.ccollections
OrderedDict
p0
((lp1
(lp2
S'state'
p3
aI400
aa(lp4
S'distance'
p5
aF369.74378204345703
aa(lp6
S'timestamp'
p7
aF1.7776238918304443
aatp8
Rp9
.ccollections
OrderedDict
p0
((lp1
(lp2
S'state'
p3
aI400
aa(lp4
S'distance'
p5
aF369.74378204345703
aa(lp6
S'timestamp'
p7
aF1.778777837753296
aatp8
Rp9
.ccollections
OrderedDict
p0
((lp1
(lp2
S'state'
p3
aI400
aa(lp4
S'distance'
p5
aF369.74378204345703
aa(lp6
S'timestamp'
p7
aF1.7874610424041748
aatp8
Rp9
.ccollections
OrderedDict
p0
((lp1
(lp2
S'state'
p3
aI400
aa(lp4
S'distance'
p5
aF369.74378204345703
aa(lp6
S'timestamp'
p7
aF1.7884068489074707
aatp8
Rp9
.ccollections
OrderedDict
p0
((lp1
(lp2
S'state'
p3
aI400
aa(lp4
S'distance'
p5
aF369.74378204345703
aa(lp6
S'timestamp'
p7
aF1.7976360321044922
aatp8
Rp9
.ccollections
OrderedDict
p0
((lp1
(lp2
S'state'
p3
aI400
aa(lp4
S'distance'
p5
aF369.74378204345703
aa(lp6
S'timestamp'
p7
aF1.7985999584197998
aatp8
Rp9
.ccollections
OrderedDict
p0
((lp1
(lp2
S'state'
p3
aI400
aa(lp4
S'distance'
p5
aF369.74378204345703
aa(lp6
S'timestamp'
p7
aF1.8079619407653809
aatp8
Rp9
.ccollections
OrderedDict
p0
((lp1
(lp2
S'state'
p3
aI400
aa(lp4
S'distance'
p5
aF369.74378204345703
aa(lp6
S'timestamp'
p7
aF1.8082330226898193
aatp8
Rp9
.ccollections
OrderedDict
p0
((lp1
(lp2
S'state'
p3
aI400
aa(lp4
S'distance'
p5
aF369.74378204345703
aa(lp6
S'timestamp'
p7
aF1.8194990158081055
aatp8
Rp9
.ccollections
OrderedDict
p0
((lp1
(lp2
S'state'
p3
aI400
aa(lp4
S'distance'
p5
aF369.74378204345703
aa(lp6
S'timestamp'
p7
aF1.8201148509979248
aatp8
Rp9
.ccollections
OrderedDict
p0
((lp1
(lp2
S'state'
p3
aI400
aa(lp4
S'distance'
p5
aF369.74378204345703
aa(lp6
S'timestamp'
p7
aF1.8375940322875977
aatp8
Rp9
.ccollections
OrderedDict
p0
((lp1
(lp2
S'state'
p3
aI400
aa(lp4
S'distance'
p5
aF369.74378204345703
aa(lp6
S'timestamp'
p7
aF1.8381388187408447
aatp8
Rp9
.ccollections
OrderedDict
p0
((lp1
(lp2
S'state'
p3
aI400
aa(lp4
S'distance'
p5
aF369.74378204345703
aa(lp6
S'timestamp'
p7
aF1.8390648365020752
aatp8
Rp9
.ccollections
OrderedDict
p0
((lp1
(lp2
S'state'
p3
aI400
aa(lp4
S'distance'
p5
aF369.74378204345703
aa(lp6
S'timestamp'
p7
aF1.8399460315704346
aatp8
Rp9
.ccollections
OrderedDict
p0
((lp1
(lp2
S'state'
p3
aI400
aa(lp4
S'distance'
p5
aF369.74378204345703
aa(lp6
S'timestamp'
p7
aF1.8475308418273926
aatp8
Rp9
.ccollections
OrderedDict
p0
((lp1
(lp2
S'state'
p3
aI400
aa(lp4
S'distance'
p5
aF369.74378204345703
aa(lp6
S'timestamp'
p7
aF1.8482818603515625
aatp8
Rp9
.ccollections
OrderedDict
p0
((lp1
(lp2
S'state'
p3
aI400
aa(lp4
S'distance'
p5
aF369.74378204345703
aa(lp6
S'timestamp'
p7
aF1.8580069541931152
aatp8
Rp9
.ccollections
OrderedDict
p0
((lp1
(lp2
S'state'
p3
aI400
aa(lp4
S'distance'
p5
aF369.74378204345703
aa(lp6
S'timestamp'
p7
aF1.8581838607788086
aatp8
Rp9
.ccollections
OrderedDict
p0
((lp1
(lp2
S'state'
p3
aI400
aa(lp4
S'distance'
p5
aF369.74378204345703
aa(lp6
S'timestamp'
p7
aF1.8675239086151123
aatp8
Rp9
.ccollections
OrderedDict
p0
((lp1
(lp2
S'state'
p3
aI400
aa(lp4
S'distance'
p5
aF369.74378204345703
aa(lp6
S'timestamp'
p7
aF1.8683538436889648
aatp8
Rp9
.ccollections
OrderedDict
p0
((lp1
(lp2
S'state'
p3
aI400
aa(lp4
S'distance'
p5
aF369.74378204345703
aa(lp6
S'timestamp'
p7
aF1.8775758743286133
aatp8
Rp9
.ccollections
OrderedDict
p0
((lp1
(lp2
S'state'
p3
aI400
aa(lp4
S'distance'
p5
aF369.74378204345703
aa(lp6
S'timestamp'
p7
aF1.8782079219818115
aatp8
Rp9
.ccollections
OrderedDict
p0
((lp1
(lp2
S'state'
p3
aI400
aa(lp4
S'distance'
p5
aF369.74378204345703
aa(lp6
S'timestamp'
p7
aF1.9088740348815918
aatp8
Rp9
.ccollections
OrderedDict
p0
((lp1
(lp2
S'state'
p3
aI400
aa(lp4
S'distance'
p5
aF369.74378204345703
aa(lp6
S'timestamp'
p7
aF1.909080982208252
aatp8
Rp9
.ccollections
OrderedDict
p0
((lp1
(lp2
S'state'
p3
aI400
aa(lp4
S'distance'
p5
aF369.74378204345703
aa(lp6
S'timestamp'
p7
aF1.9092729091644287
aatp8
Rp9
.ccollections
OrderedDict
p0
((lp1
(lp2
S'state'
p3
aI400
aa(lp4
S'distance'
p5
aF369.74378204345703
aa(lp6
S'timestamp'
p7
aF1.9095208644866943
aatp8
Rp9
.ccollections
OrderedDict
p0
((lp1
(lp2
S'state'
p3
aI400
aa(lp4
S'distance'
p5
aF369.74378204345703
aa(lp6
S'timestamp'
p7
aF1.9175958633422852
aatp8
Rp9
.ccollections
OrderedDict
p0
((lp1
(lp2
S'state'
p3
aI400
aa(lp4
S'distance'
p5
aF369.74378204345703
aa(lp6
S'timestamp'
p7
aF1.9179339408874512
aatp8
Rp9
.ccollections
OrderedDict
p0
((lp1
(lp2
S'state'
p3
aI400
aa(lp4
S'distance'
p5
aF369.74378204345703
aa(lp6
S'timestamp'
p7
aF1.9184749126434326
aatp8
Rp9
.ccollections
OrderedDict
p0
((lp1
(lp2
S'state'
p3
aI400
aa(lp4
S'distance'
p5
aF369.74378204345703
aa(lp6
S'timestamp'
p7
aF1.919510841369629
aatp8
Rp9
.ccollections
OrderedDict
p0
((lp1
(lp2
S'state'
p3
aI400
aa(lp4
S'distance'
p5
aF369.74378204345703
aa(lp6
S'timestamp'
p7
aF1.927495002746582
aatp8
Rp9
.ccollections
OrderedDict
p0
((lp1
(lp2
S'state'
p3
aI400
aa(lp4
S'distance'
p5
aF369.74378204345703
aa(lp6
S'timestamp'
p7
aF1.928177833557129
aatp8
Rp9
.ccollections
OrderedDict
p0
((lp1
(lp2
S'state'
p3
aI400
aa(lp4
S'distance'
p5
aF369.74378204345703
aa(lp6
S'timestamp'
p7
aF1.9375669956207275
aatp8
Rp9
.ccollections
OrderedDict
p0
((lp1
(lp2
S'state'
p3
aI400
aa(lp4
S'distance'
p5
aF369.74378204345703
aa(lp6
S'timestamp'
p7
aF1.9387898445129395
aatp8
Rp9
.ccollections
OrderedDict
p0
((lp1
(lp2
S'state'
p3
aI400
aa(lp4
S'distance'
p5
aF369.74378204345703
aa(lp6
S'timestamp'
p7
aF1.9473049640655518
aatp8
Rp9
.ccollections
OrderedDict
p0
((lp1
(lp2
S'state'
p3
aI400
aa(lp4
S'distance'
p5
aF369.74378204345703
aa(lp6
S'timestamp'
p7
aF1.9477870464324951
aatp8
Rp9
.ccollections
OrderedDict
p0
((lp1
(lp2
S'state'
p3
aI400
aa(lp4
S'distance'
p5
aF369.74378204345703
aa(lp6
S'timestamp'
p7
aF1.9577019214630127
aatp8
Rp9
.ccollections
OrderedDict
p0
((lp1
(lp2
S'state'
p3
aI400
aa(lp4
S'distance'
p5
aF369.74378204345703
aa(lp6
S'timestamp'
p7
aF1.958353042602539
aatp8
Rp9
.ccollections
OrderedDict
p0
((lp1
(lp2
S'state'
p3
aI400
aa(lp4
S'distance'
p5
aF369.74378204345703
aa(lp6
S'timestamp'
p7
aF1.967667818069458
aatp8
Rp9
.ccollections
OrderedDict
p0
((lp1
(lp2
S'state'
p3
aI400
aa(lp4
S'distance'
p5
aF369.74378204345703
aa(lp6
S'timestamp'
p7
aF1.968487024307251
aatp8
Rp9
.ccollections
OrderedDict
p0
((lp1
(lp2
S'state'
p3
aI400
aa(lp4
S'distance'
p5
aF369.74378204345703
aa(lp6
S'timestamp'
p7
aF1.9776849746704102
aatp8
Rp9
.ccollections
OrderedDict
p0
((lp1
(lp2
S'state'
p3
aI400
aa(lp4
S'distance'
p5
aF369.74378204345703
aa(lp6
S'timestamp'
p7
aF1.9783618450164795
aatp8
Rp9
.ccollections
OrderedDict
p0
((lp1
(lp2
S'state'
p3
aI400
aa(lp4
S'distance'
p5
aF369.74378204345703
aa(lp6
S'timestamp'
p7
aF1.9875538349151611
aatp8
Rp9
.ccollections
OrderedDict
p0
((lp1
(lp2
S'state'
p3
aI400
aa(lp4
S'distance'
p5
aF369.74378204345703
aa(lp6
S'timestamp'
p7
aF1.9882209300994873
aatp8
Rp9
.ccollections
OrderedDict
p0
((lp1
(lp2
S'state'
p3
aI400
aa(lp4
S'distance'
p5
aF369.74378204345703
aa(lp6
S'timestamp'
p7
aF1.9976558685302734
aatp8
Rp9
.ccollections
OrderedDict
p0
((lp1
(lp2
S'state'
p3
aI400
aa(lp4
S'distance'
p5
aF369.74378204345703
aa(lp6
S'timestamp'
p7
aF1.9982678890228271
aatp8
Rp9
.ccollections
OrderedDict
p0
((lp1
(lp2
S'state'
p3
aI400
aa(lp4
S'distance'
p5
aF369.74378204345703
aa(lp6
S'timestamp'
p7
aF2.007516860961914
aatp8
Rp9
.ccollections
OrderedDict
p0
((lp1
(lp2
S'state'
p3
aI400
aa(lp4
S'distance'
p5
aF369.74378204345703
aa(lp6
S'timestamp'
p7
aF2.008265972137451
aatp8
Rp9
.ccollections
OrderedDict
p0
((lp1
(lp2
S'state'
p3
aI400
aa(lp4
S'distance'
p5
aF369.74378204345703
aa(lp6
S'timestamp'
p7
aF2.017590045928955
aatp8
Rp9
.ccollections
OrderedDict
p0
((lp1
(lp2
S'state'
p3
aI400
aa(lp4
S'distance'
p5
aF369.74378204345703
aa(lp6
S'timestamp'
p7
aF2.0184779167175293
aatp8
Rp9
.ccollections
OrderedDict
p0
((lp1
(lp2
S'state'
p3
aI400
aa(lp4
S'distance'
p5
aF369.74378204345703
aa(lp6
S'timestamp'
p7
aF2.0276029109954834
aatp8
Rp9
.ccollections
OrderedDict
p0
((lp1
(lp2
S'state'
p3
aI400
aa(lp4
S'distance'
p5
aF369.74378204345703
aa(lp6
S'timestamp'
p7
aF2.027902841567993
aatp8
Rp9
.ccollections
OrderedDict
p0
((lp1
(lp2
S'state'
p3
aI400
aa(lp4
S'distance'
p5
aF369.74378204345703
aa(lp6
S'timestamp'
p7
aF2.037544012069702
aatp8
Rp9
.ccollections
OrderedDict
p0
((lp1
(lp2
S'state'
p3
aI400
aa(lp4
S'distance'
p5
aF369.74378204345703
aa(lp6
S'timestamp'
p7
aF2.038489818572998
aatp8
Rp9
.ccollections
OrderedDict
p0
((lp1
(lp2
S'state'
p3
aI400
aa(lp4
S'distance'
p5
aF369.74378204345703
aa(lp6
S'timestamp'
p7
aF2.047921895980835
aatp8
Rp9
.ccollections
OrderedDict
p0
((lp1
(lp2
S'state'
p3
aI400
aa(lp4
S'distance'
p5
aF369.74378204345703
aa(lp6
S'timestamp'
p7
aF2.0481719970703125
aatp8
Rp9
.ccollections
OrderedDict
p0
((lp1
(lp2
S'state'
p3
aI400
aa(lp4
S'distance'
p5
aF369.74378204345703
aa(lp6
S'timestamp'
p7
aF2.05765700340271
aatp8
Rp9
.ccollections
OrderedDict
p0
((lp1
(lp2
S'state'
p3
aI400
aa(lp4
S'distance'
p5
aF369.74378204345703
aa(lp6
S'timestamp'
p7
aF2.0586600303649902
aatp8
Rp9
.ccollections
OrderedDict
p0
((lp1
(lp2
S'state'
p3
aI400
aa(lp4
S'distance'
p5
aF369.74378204345703
aa(lp6
S'timestamp'
p7
aF2.067534923553467
aatp8
Rp9
.ccollections
OrderedDict
p0
((lp1
(lp2
S'state'
p3
aI400
aa(lp4
S'distance'
p5
aF369.74378204345703
aa(lp6
S'timestamp'
p7
aF2.0682499408721924
aatp8
Rp9
.ccollections
OrderedDict
p0
((lp1
(lp2
S'state'
p3
aI400
aa(lp4
S'distance'
p5
aF369.74378204345703
aa(lp6
S'timestamp'
p7
aF2.078075885772705
aatp8
Rp9
.ccollections
OrderedDict
p0
((lp1
(lp2
S'state'
p3
aI400
aa(lp4
S'distance'
p5
aF369.74378204345703
aa(lp6
S'timestamp'
p7
aF2.078157901763916
aatp8
Rp9
.ccollections
OrderedDict
p0
((lp1
(lp2
S'state'
p3
aI400
aa(lp4
S'distance'
p5
aF369.74378204345703
aa(lp6
S'timestamp'
p7
aF2.087683916091919
aatp8
Rp9
.ccollections
OrderedDict
p0
((lp1
(lp2
S'state'
p3
aI400
aa(lp4
S'distance'
p5
aF369.74378204345703
aa(lp6
S'timestamp'
p7
aF2.0880448818206787
aatp8
Rp9
.ccollections
OrderedDict
p0
((lp1
(lp2
S'state'
p3
aI400
aa(lp4
S'distance'
p5
aF369.74378204345703
aa(lp6
S'timestamp'
p7
aF2.0980279445648193
aatp8
Rp9
.ccollections
OrderedDict
p0
((lp1
(lp2
S'state'
p3
aI400
aa(lp4
S'distance'
p5
aF369.74378204345703
aa(lp6
S'timestamp'
p7
aF2.098520040512085
aatp8
Rp9
.ccollections
OrderedDict
p0
((lp1
(lp2
S'state'
p3
aI400
aa(lp4
S'distance'
p5
aF369.74378204345703
aa(lp6
S'timestamp'
p7
aF2.1076550483703613
aatp8
Rp9
.ccollections
OrderedDict
p0
((lp1
(lp2
S'state'
p3
aI400
aa(lp4
S'distance'
p5
aF369.74378204345703
aa(lp6
S'timestamp'
p7
aF2.107818841934204
aatp8
Rp9
.ccollections
OrderedDict
p0
((lp1
(lp2
S'state'
p3
aI400
aa(lp4
S'distance'
p5
aF369.74378204345703
aa(lp6
S'timestamp'
p7
aF2.1175880432128906
aatp8
Rp9
.ccollections
OrderedDict
p0
((lp1
(lp2
S'state'
p3
aI400
aa(lp4
S'distance'
p5
aF369.74378204345703
aa(lp6
S'timestamp'
p7
aF2.1182940006256104
aatp8
Rp9
.ccollections
OrderedDict
p0
((lp1
(lp2
S'state'
p3
aI400
aa(lp4
S'distance'
p5
aF369.74378204345703
aa(lp6
S'timestamp'
p7
aF2.1277339458465576
aatp8
Rp9
.ccollections
OrderedDict
p0
((lp1
(lp2
S'state'
p3
aI400
aa(lp4
S'distance'
p5
aF369.74378204345703
aa(lp6
S'timestamp'
p7
aF2.1280159950256348
aatp8
Rp9
.ccollections
OrderedDict
p0
((lp1
(lp2
S'state'
p3
aI400
aa(lp4
S'distance'
p5
aF369.74378204345703
aa(lp6
S'timestamp'
p7
aF2.137565851211548
aatp8
Rp9
.ccollections
OrderedDict
p0
((lp1
(lp2
S'state'
p3
aI400
aa(lp4
S'distance'
p5
aF369.74378204345703
aa(lp6
S'timestamp'
p7
aF2.1385598182678223
aatp8
Rp9
.ccollections
OrderedDict
p0
((lp1
(lp2
S'state'
p3
aI400
aa(lp4
S'distance'
p5
aF369.74378204345703
aa(lp6
S'timestamp'
p7
aF2.1475980281829834
aatp8
Rp9
.ccollections
OrderedDict
p0
((lp1
(lp2
S'state'
p3
aI400
aa(lp4
S'distance'
p5
aF369.74378204345703
aa(lp6
S'timestamp'
p7
aF2.148284912109375
aatp8
Rp9
.ccollections
OrderedDict
p0
((lp1
(lp2
S'state'
p3
aI400
aa(lp4
S'distance'
p5
aF369.74378204345703
aa(lp6
S'timestamp'
p7
aF2.157650947570801
aatp8
Rp9
.ccollections
OrderedDict
p0
((lp1
(lp2
S'state'
p3
aI400
aa(lp4
S'distance'
p5
aF369.74378204345703
aa(lp6
S'timestamp'
p7
aF2.1578660011291504
aatp8
Rp9
.ccollections
OrderedDict
p0
((lp1
(lp2
S'state'
p3
aI400
aa(lp4
S'distance'
p5
aF369.74378204345703
aa(lp6
S'timestamp'
p7
aF2.1687989234924316
aatp8
Rp9
.ccollections
OrderedDict
p0
((lp1
(lp2
S'state'
p3
aI400
aa(lp4
S'distance'
p5
aF369.74378204345703
aa(lp6
S'timestamp'
p7
aF2.169029951095581
aatp8
Rp9
.ccollections
OrderedDict
p0
((lp1
(lp2
S'state'
p3
aI400
aa(lp4
S'distance'
p5
aF369.74378204345703
aa(lp6
S'timestamp'
p7
aF2.1784958839416504
aatp8
Rp9
.ccollections
OrderedDict
p0
((lp1
(lp2
S'state'
p3
aI400
aa(lp4
S'distance'
p5
aF369.74378204345703
aa(lp6
S'timestamp'
p7
aF2.178973913192749
aatp8
Rp9
.ccollections
OrderedDict
p0
((lp1
(lp2
S'state'
p3
aI400
aa(lp4
S'distance'
p5
aF369.74378204345703
aa(lp6
S'timestamp'
p7
aF2.197713851928711
aatp8
Rp9
.ccollections
OrderedDict
p0
((lp1
(lp2
S'state'
p3
aI400
aa(lp4
S'distance'
p5
aF369.74378204345703
aa(lp6
S'timestamp'
p7
aF2.1985838413238525
aatp8
Rp9
.ccollections
OrderedDict
p0
((lp1
(lp2
S'state'
p3
aI400
aa(lp4
S'distance'
p5
aF369.74378204345703
aa(lp6
S'timestamp'
p7
aF2.19872784614563
aatp8
Rp9
.ccollections
OrderedDict
p0
((lp1
(lp2
S'state'
p3
aI400
aa(lp4
S'distance'
p5
aF369.74378204345703
aa(lp6
S'timestamp'
p7
aF2.1994149684906006
aatp8
Rp9
.ccollections
OrderedDict
p0
((lp1
(lp2
S'state'
p3
aI400
aa(lp4
S'distance'
p5
aF369.74378204345703
aa(lp6
S'timestamp'
p7
aF2.2082319259643555
aatp8
Rp9
.ccollections
OrderedDict
p0
((lp1
(lp2
S'state'
p3
aI400
aa(lp4
S'distance'
p5
aF369.74378204345703
aa(lp6
S'timestamp'
p7
aF2.20831298828125
aatp8
Rp9
.ccollections
OrderedDict
p0
((lp1
(lp2
S'state'
p3
aI400
aa(lp4
S'distance'
p5
aF369.74378204345703
aa(lp6
S'timestamp'
p7
aF2.2183728218078613
aatp8
Rp9
.ccollections
OrderedDict
p0
((lp1
(lp2
S'state'
p3
aI400
aa(lp4
S'distance'
p5
aF369.74378204345703
aa(lp6
S'timestamp'
p7
aF2.2184970378875732
aatp8
Rp9
.ccollections
OrderedDict
p0
((lp1
(lp2
S'state'
p3
aI0
aa(lp4
S'distance'
p5
aF369.74378204345703
aa(lp6
S'timestamp'
p7
aF2.2278330326080322
aatp8
Rp9
.ccollections
OrderedDict
p0
((lp1
(lp2
S'state'
p3
aI0
aa(lp4
S'distance'
p5
aF265.64026641845703
aa(lp6
S'timestamp'
p7
aF2.7889468669891357
aatp8
Rp9
.ccollections
OrderedDict
p0
((lp1
(lp2
S'state'
p3
aI0
aa(lp4
S'distance'
p5
aF265.64026641845703
aa(lp6
S'timestamp'
p7
aF2.7975029945373535
aatp8
Rp9
.ccollections
OrderedDict
p0
((lp1
(lp2
S'state'
p3
aI0
aa(lp4
S'distance'
p5
aF265.64026641845703
aa(lp6
S'timestamp'
p7
aF2.798494815826416
aatp8
Rp9
.ccollections
OrderedDict
p0
((lp1
(lp2
S'state'
p3
aI0
aa(lp4
S'distance'
p5
aF265.64026641845703
aa(lp6
S'timestamp'
p7
aF2.8074870109558105
aatp8
Rp9
.ccollections
OrderedDict
p0
((lp1
(lp2
S'state'
p3
aI0
aa(lp4
S'distance'
p5
aF265.64026641845703
aa(lp6
S'timestamp'
p7
aF2.808076858520508
aatp8
Rp9
.ccollections
OrderedDict
p0
((lp1
(lp2
S'state'
p3
aI0
aa(lp4
S'distance'
p5
aF265.64026641845703
aa(lp6
S'timestamp'
p7
aF2.8275349140167236
aatp8
Rp9
.ccollections
OrderedDict
p0
((lp1
(lp2
S'state'
p3
aI0
aa(lp4
S'distance'
p5
aF265.64026641845703
aa(lp6
S'timestamp'
p7
aF2.8291308879852295
aatp8
Rp9
.ccollections
OrderedDict
p0
((lp1
(lp2
S'state'
p3
aI0
aa(lp4
S'distance'
p5
aF265.64026641845703
aa(lp6
S'timestamp'
p7
aF2.83160400390625
aatp8
Rp9
.ccollections
OrderedDict
p0
((lp1
(lp2
S'state'
p3
aI0
aa(lp4
S'distance'
p5
aF265.64026641845703
aa(lp6
S'timestamp'
p7
aF2.832340955734253
aatp8
Rp9
.ccollections
OrderedDict
p0
((lp1
(lp2
S'state'
p3
aI0
aa(lp4
S'distance'
p5
aF265.64026641845703
aa(lp6
S'timestamp'
p7
aF2.8678228855133057
aatp8
Rp9
.ccollections
OrderedDict
p0
((lp1
(lp2
S'state'
p3
aI0
aa(lp4
S'distance'
p5
aF265.64026641845703
aa(lp6
S'timestamp'
p7
aF2.8680548667907715
aatp8
Rp9
.ccollections
OrderedDict
p0
((lp1
(lp2
S'state'
p3
aI0
aa(lp4
S'distance'
p5
aF265.64026641845703
aa(lp6
S'timestamp'
p7
aF2.8692679405212402
aatp8
Rp9
.ccollections
OrderedDict
p0
((lp1
(lp2
S'state'
p3
aI0
aa(lp4
S'distance'
p5
aF265.64026641845703
aa(lp6
S'timestamp'
p7
aF2.8702149391174316
aatp8
Rp9
.ccollections
OrderedDict
p0
((lp1
(lp2
S'state'
p3
aI0
aa(lp4
S'distance'
p5
aF265.64026641845703
aa(lp6
S'timestamp'
p7
aF2.8774900436401367
aatp8
Rp9
.ccollections
OrderedDict
p0
((lp1
(lp2
S'state'
p3
aI0
aa(lp4
S'distance'
p5
aF265.64026641845703
aa(lp6
S'timestamp'
p7
aF2.877997875213623
aatp8
Rp9
.ccollections
OrderedDict
p0
((lp1
(lp2
S'state'
p3
aI0
aa(lp4
S'distance'
p5
aF265.64026641845703
aa(lp6
S'timestamp'
p7
aF2.8786959648132324
aatp8
Rp9
.ccollections
OrderedDict
p0
((lp1
(lp2
S'state'
p3
aI0
aa(lp4
S'distance'
p5
aF265.64026641845703
aa(lp6
S'timestamp'
p7
aF2.8798089027404785
aatp8
Rp9
.ccollections
OrderedDict
p0
((lp1
(lp2
S'state'
p3
aI0
aa(lp4
S'distance'
p5
aF265.64026641845703
aa(lp6
S'timestamp'
p7
aF2.897542953491211
aatp8
Rp9
.ccollections
OrderedDict
p0
((lp1
(lp2
S'state'
p3
aI0
aa(lp4
S'distance'
p5
aF265.64026641845703
aa(lp6
S'timestamp'
p7
aF2.8984618186950684
aatp8
Rp9
.ccollections
OrderedDict
p0
((lp1
(lp2
S'state'
p3
aI0
aa(lp4
S'distance'
p5
aF265.64026641845703
aa(lp6
S'timestamp'
p7
aF2.898977041244507
aatp8
Rp9
.ccollections
OrderedDict
p0
((lp1
(lp2
S'state'
p3
aI0
aa(lp4
S'distance'
p5
aF265.64026641845703
aa(lp6
S'timestamp'
p7
aF2.899765968322754
aatp8
Rp9
.ccollections
OrderedDict
p0
((lp1
(lp2
S'state'
p3
aI0
aa(lp4
S'distance'
p5
aF265.64026641845703
aa(lp6
S'timestamp'
p7
aF2.907533884048462
aatp8
Rp9
.ccollections
OrderedDict
p0
((lp1
(lp2
S'state'
p3
aI0
aa(lp4
S'distance'
p5
aF265.64026641845703
aa(lp6
S'timestamp'
p7
aF2.9077529907226562
aatp8
Rp9
.ccollections
OrderedDict
p0
((lp1
(lp2
S'state'
p3
aI0
aa(lp4
S'distance'
p5
aF265.64026641845703
aa(lp6
S'timestamp'
p7
aF2.908681869506836
aatp8
Rp9
.ccollections
OrderedDict
p0
((lp1
(lp2
S'state'
p3
aI0
aa(lp4
S'distance'
p5
aF265.64026641845703
aa(lp6
S'timestamp'
p7
aF2.908798933029175
aatp8
Rp9
.ccollections
OrderedDict
p0
((lp1
(lp2
S'state'
p3
aI0
aa(lp4
S'distance'
p5
aF265.64026641845703
aa(lp6
S'timestamp'
p7
aF2.947399854660034
aatp8
Rp9
.ccollections
OrderedDict
p0
((lp1
(lp2
S'state'
p3
aI0
aa(lp4
S'distance'
p5
aF265.64026641845703
aa(lp6
S'timestamp'
p7
aF2.9487369060516357
aatp8
Rp9
.ccollections
OrderedDict
p0
((lp1
(lp2
S'state'
p3
aI0
aa(lp4
S'distance'
p5
aF265.64026641845703
aa(lp6
S'timestamp'
p7
aF2.9495790004730225
aatp8
Rp9
.ccollections
OrderedDict
p0
((lp1
(lp2
S'state'
p3
aI0
aa(lp4
S'distance'
p5
aF265.64026641845703
aa(lp6
S'timestamp'
p7
aF2.950479030609131
aatp8
Rp9
.ccollections
OrderedDict
p0
((lp1
(lp2
S'state'
p3
aI0
aa(lp4
S'distance'
p5
aF265.64026641845703
aa(lp6
S'timestamp'
p7
aF2.9589059352874756
aatp8
Rp9
.ccollections
OrderedDict
p0
((lp1
(lp2
S'state'
p3
aI0
aa(lp4
S'distance'
p5
aF265.64026641845703
aa(lp6
S'timestamp'
p7
aF2.959082841873169
aatp8
Rp9
.ccollections
OrderedDict
p0
((lp1
(lp2
S'state'
p3
aI0
aa(lp4
S'distance'
p5
aF265.64026641845703
aa(lp6
S'timestamp'
p7
aF2.9595119953155518
aatp8
Rp9
.ccollections
OrderedDict
p0
((lp1
(lp2
S'state'
p3
aI0
aa(lp4
S'distance'
p5
aF265.64026641845703
aa(lp6
S'timestamp'
p7
aF2.9602999687194824
aatp8
Rp9
.ccollections
OrderedDict
p0
((lp1
(lp2
S'state'
p3
aI0
aa(lp4
S'distance'
p5
aF265.64026641845703
aa(lp6
S'timestamp'
p7
aF2.9782350063323975
aatp8
Rp9
.ccollections
OrderedDict
p0
((lp1
(lp2
S'state'
p3
aI0
aa(lp4
S'distance'
p5
aF265.64026641845703
aa(lp6
S'timestamp'
p7
aF2.978372812271118
aatp8
Rp9
.ccollections
OrderedDict
p0
((lp1
(lp2
S'state'
p3
aI0
aa(lp4
S'distance'
p5
aF265.64026641845703
aa(lp6
S'timestamp'
p7
aF2.979214906692505
aatp8
Rp9
.ccollections
OrderedDict
p0
((lp1
(lp2
S'state'
p3
aI0
aa(lp4
S'distance'
p5
aF265.64026641845703
aa(lp6
S'timestamp'
p7
aF2.9797568321228027
aatp8
Rp9
.ccollections
OrderedDict
p0
((lp1
(lp2
S'state'
p3
aI0
aa(lp4
S'distance'
p5
aF265.64026641845703
aa(lp6
S'timestamp'
p7
aF2.987496852874756
aatp8
Rp9
.ccollections
OrderedDict
p0
((lp1
(lp2
S'state'
p3
aI0
aa(lp4
S'distance'
p5
aF265.64026641845703
aa(lp6
S'timestamp'
p7
aF2.9877309799194336
aatp8
Rp9
.ccollections
OrderedDict
p0
((lp1
(lp2
S'state'
p3
aI0
aa(lp4
S'distance'
p5
aF265.64026641845703
aa(lp6
S'timestamp'
p7
aF2.997227907180786
aatp8
Rp9
.ccollections
OrderedDict
p0
((lp1
(lp2
S'state'
p3
aI0
aa(lp4
S'distance'
p5
aF265.64026641845703
aa(lp6
S'timestamp'
p7
aF2.9979970455169678
aatp8
Rp9
.ccollections
OrderedDict
p0
((lp1
(lp2
S'state'
p3
aI0
aa(lp4
S'distance'
p5
aF265.64026641845703
aa(lp6
S'timestamp'
p7
aF2.9995508193969727
aatp8
Rp9
.ccollections
OrderedDict
p0
((lp1
(lp2
S'state'
p3
aI0
aa(lp4
S'distance'
p5
aF265.64026641845703
aa(lp6
S'timestamp'
p7
aF3.0002989768981934
aatp8
Rp9
.ccollections
OrderedDict
p0
((lp1
(lp2
S'state'
p3
aI0
aa(lp4
S'distance'
p5
aF265.64026641845703
aa(lp6
S'timestamp'
p7
aF3.018167018890381
aatp8
Rp9
.ccollections
OrderedDict
p0
((lp1
(lp2
S'state'
p3
aI0
aa(lp4
S'distance'
p5
aF265.64026641845703
aa(lp6
S'timestamp'
p7
aF3.0184710025787354
aatp8
Rp9
.ccollections
OrderedDict
p0
((lp1
(lp2
S'state'
p3
aI0
aa(lp4
S'distance'
p5
aF265.64026641845703
aa(lp6
S'timestamp'
p7
aF3.0201969146728516
aatp8
Rp9
.ccollections
OrderedDict
p0
((lp1
(lp2
S'state'
p3
aI0
aa(lp4
S'distance'
p5
aF265.64026641845703
aa(lp6
S'timestamp'
p7
aF3.0206308364868164
aatp8
Rp9
.ccollections
OrderedDict
p0
((lp1
(lp2
S'state'
p3
aI0
aa(lp4
S'distance'
p5
aF265.64026641845703
aa(lp6
S'timestamp'
p7
aF3.0278139114379883
aatp8
Rp9
.ccollections
OrderedDict
p0
((lp1
(lp2
S'state'
p3
aI0
aa(lp4
S'distance'
p5
aF265.64026641845703
aa(lp6
S'timestamp'
p7
aF3.0284759998321533
aatp8
Rp9
.ccollections
OrderedDict
p0
((lp1
(lp2
S'state'
p3
aI0
aa(lp4
S'distance'
p5
aF265.64026641845703
aa(lp6
S'timestamp'
p7
aF3.0375030040740967
aatp8
Rp9
.ccollections
OrderedDict
p0
((lp1
(lp2
S'state'
p3
aI0
aa(lp4
S'distance'
p5
aF265.64026641845703
aa(lp6
S'timestamp'
p7
aF3.038226842880249
aatp8
Rp9
.ccollections
OrderedDict
p0
((lp1
(lp2
S'state'
p3
aI0
aa(lp4
S'distance'
p5
aF265.64026641845703
aa(lp6
S'timestamp'
p7
aF3.067546844482422
aatp8
Rp9
.ccollections
OrderedDict
p0
((lp1
(lp2
S'state'
p3
aI0
aa(lp4
S'distance'
p5
aF265.64026641845703
aa(lp6
S'timestamp'
p7
aF3.0678110122680664
aatp8
Rp9
.ccollections
OrderedDict
p0
((lp1
(lp2
S'state'
p3
aI0
aa(lp4
S'distance'
p5
aF265.64026641845703
aa(lp6
S'timestamp'
p7
aF3.0691628456115723
aatp8
Rp9
.ccollections
OrderedDict
p0
((lp1
(lp2
S'state'
p3
aI0
aa(lp4
S'distance'
p5
aF265.64026641845703
aa(lp6
S'timestamp'
p7
aF3.0702860355377197
aatp8
Rp9
.ccollections
OrderedDict
p0
((lp1
(lp2
S'state'
p3
aI0
aa(lp4
S'distance'
p5
aF265.64026641845703
aa(lp6
S'timestamp'
p7
aF3.077509880065918
aatp8
Rp9
.ccollections
OrderedDict
p0
((lp1
(lp2
S'state'
p3
aI0
aa(lp4
S'distance'
p5
aF265.64026641845703
aa(lp6
S'timestamp'
p7
aF3.078446865081787
aatp8
Rp9
.ccollections
OrderedDict
p0
((lp1
(lp2
S'state'
p3
aI0
aa(lp4
S'distance'
p5
aF265.64026641845703
aa(lp6
S'timestamp'
p7
aF3.08833384513855
aatp8
Rp9
.ccollections
OrderedDict
p0
((lp1
(lp2
S'state'
p3
aI0
aa(lp4
S'distance'
p5
aF265.64026641845703
aa(lp6
S'timestamp'
p7
aF3.08857798576355
aatp8
Rp9
.ccollections
OrderedDict
p0
((lp1
(lp2
S'state'
p3
aI0
aa(lp4
S'distance'
p5
aF265.64026641845703
aa(lp6
S'timestamp'
p7
aF3.088805913925171
aatp8
Rp9
.ccollections
OrderedDict
p0
((lp1
(lp2
S'state'
p3
aI0
aa(lp4
S'distance'
p5
aF265.64026641845703
aa(lp6
S'timestamp'
p7
aF3.089157819747925
aatp8
Rp9
.ccollections
OrderedDict
p0
((lp1
(lp2
S'state'
p3
aI0
aa(lp4
S'distance'
p5
aF265.64026641845703
aa(lp6
S'timestamp'
p7
aF3.0975990295410156
aatp8
Rp9
.ccollections
OrderedDict
p0
((lp1
(lp2
S'state'
p3
aI0
aa(lp4
S'distance'
p5
aF265.64026641845703
aa(lp6
S'timestamp'
p7
aF3.097899913787842
aatp8
Rp9
.ccollections
OrderedDict
p0
((lp1
(lp2
S'state'
p3
aI0
aa(lp4
S'distance'
p5
aF265.64026641845703
aa(lp6
S'timestamp'
p7
aF3.107461929321289
aatp8
Rp9
.ccollections
OrderedDict
p0
((lp1
(lp2
S'state'
p3
aI0
aa(lp4
S'distance'
p5
aF265.64026641845703
aa(lp6
S'timestamp'
p7
aF3.1083779335021973
aatp8
Rp9
.ccollections
OrderedDict
p0
((lp1
(lp2
S'state'
p3
aI0
aa(lp4
S'distance'
p5
aF265.64026641845703
aa(lp6
S'timestamp'
p7
aF3.1175999641418457
aatp8
Rp9
.ccollections
OrderedDict
p0
((lp1
(lp2
S'state'
p3
aI0
aa(lp4
S'distance'
p5
aF265.64026641845703
aa(lp6
S'timestamp'
p7
aF3.117763042449951
aatp8
Rp9
.ccollections
OrderedDict
p0
((lp1
(lp2
S'state'
p3
aI0
aa(lp4
S'distance'
p5
aF265.64026641845703
aa(lp6
S'timestamp'
p7
aF3.137420892715454
aatp8
Rp9
.ccollections
OrderedDict
p0
((lp1
(lp2
S'state'
p3
aI0
aa(lp4
S'distance'
p5
aF265.64026641845703
aa(lp6
S'timestamp'
p7
aF3.1387038230895996
aatp8
Rp9
.ccollections
OrderedDict
p0
((lp1
(lp2
S'state'
p3
aI0
aa(lp4
S'distance'
p5
aF265.64026641845703
aa(lp6
S'timestamp'
p7
aF3.139058828353882
aatp8
Rp9
.ccollections
OrderedDict
p0
((lp1
(lp2
S'state'
p3
aI0
aa(lp4
S'distance'
p5
aF265.64026641845703
aa(lp6
S'timestamp'
p7
aF3.1393039226531982
aatp8
Rp9
.ccollections
OrderedDict
p0
((lp1
(lp2
S'state'
p3
aI0
aa(lp4
S'distance'
p5
aF265.64026641845703
aa(lp6
S'timestamp'
p7
aF3.1475369930267334
aatp8
Rp9
.ccollections
OrderedDict
p0
((lp1
(lp2
S'state'
p3
aI0
aa(lp4
S'distance'
p5
aF265.64026641845703
aa(lp6
S'timestamp'
p7
aF3.1484580039978027
aatp8
Rp9
.ccollections
OrderedDict
p0
((lp1
(lp2
S'state'
p3
aI0
aa(lp4
S'distance'
p5
aF265.64026641845703
aa(lp6
S'timestamp'
p7
aF3.1573870182037354
aatp8
Rp9
.ccollections
OrderedDict
p0
((lp1
(lp2
S'state'
p3
aI0
aa(lp4
S'distance'
p5
aF265.64026641845703
aa(lp6
S'timestamp'
p7
aF3.1580429077148438
aatp8
Rp9
.ccollections
OrderedDict
p0
((lp1
(lp2
S'state'
p3
aI0
aa(lp4
S'distance'
p5
aF265.64026641845703
aa(lp6
S'timestamp'
p7
aF3.1675069332122803
aatp8
Rp9
.ccollections
OrderedDict
p0
((lp1
(lp2
S'state'
p3
aI0
aa(lp4
S'distance'
p5
aF265.64026641845703
aa(lp6
S'timestamp'
p7
aF3.1681389808654785
aatp8
Rp9
.ccollections
OrderedDict
p0
((lp1
(lp2
S'state'
p3
aI0
aa(lp4
S'distance'
p5
aF265.64026641845703
aa(lp6
S'timestamp'
p7
aF3.1774539947509766
aatp8
Rp9
.ccollections
OrderedDict
p0
((lp1
(lp2
S'state'
p3
aI0
aa(lp4
S'distance'
p5
aF265.64026641845703
aa(lp6
S'timestamp'
p7
aF3.1794838905334473
aatp8
Rp9
.ccollections
OrderedDict
p0
((lp1
(lp2
S'state'
p3
aI0
aa(lp4
S'distance'
p5
aF265.64026641845703
aa(lp6
S'timestamp'
p7
aF3.197471857070923
aatp8
Rp9
.ccollections
OrderedDict
p0
((lp1
(lp2
S'state'
p3
aI0
aa(lp4
S'distance'
p5
aF265.64026641845703
aa(lp6
S'timestamp'
p7
aF3.1980409622192383
aatp8
Rp9
.ccollections
OrderedDict
p0
((lp1
(lp2
S'state'
p3
aI0
aa(lp4
S'distance'
p5
aF265.64026641845703
aa(lp6
S'timestamp'
p7
aF3.199218988418579
aatp8
Rp9
.ccollections
OrderedDict
p0
((lp1
(lp2
S'state'
p3
aI0
aa(lp4
S'distance'
p5
aF265.64026641845703
aa(lp6
S'timestamp'
p7
aF3.1992979049682617
aatp8
Rp9
.ccollections
OrderedDict
p0
((lp1
(lp2
S'state'
p3
aI0
aa(lp4
S'distance'
p5
aF265.64026641845703
aa(lp6
S'timestamp'
p7
aF3.207526922225952
aatp8
Rp9
.ccollections
OrderedDict
p0
((lp1
(lp2
S'state'
p3
aI0
aa(lp4
S'distance'
p5
aF265.64026641845703
aa(lp6
S'timestamp'
p7
aF3.208232879638672
aatp8
Rp9
.ccollections
OrderedDict
p0
((lp1
(lp2
S'state'
p3
aI0
aa(lp4
S'distance'
p5
aF265.64026641845703
aa(lp6
S'timestamp'
p7
aF3.217576026916504
aatp8
Rp9
.ccollections
OrderedDict
p0
((lp1
(lp2
S'state'
p3
aI0
aa(lp4
S'distance'
p5
aF265.64026641845703
aa(lp6
S'timestamp'
p7
aF3.218158006668091
aatp8
Rp9
.ccollections
OrderedDict
p0
((lp1
(lp2
S'state'
p3
aI0
aa(lp4
S'distance'
p5
aF265.64026641845703
aa(lp6
S'timestamp'
p7
aF3.2374868392944336
aatp8
Rp9
.ccollections
OrderedDict
p0
((lp1
(lp2
S'state'
p3
aI0
aa(lp4
S'distance'
p5
aF265.64026641845703
aa(lp6
S'timestamp'
p7
aF3.2379958629608154
aatp8
Rp9
.ccollections
OrderedDict
p0
((lp1
(lp2
S'state'
p3
aI0
aa(lp4
S'distance'
p5
aF265.64026641845703
aa(lp6
S'timestamp'
p7
aF3.2386128902435303
aatp8
Rp9
.ccollections
OrderedDict
p0
((lp1
(lp2
S'state'
p3
aI0
aa(lp4
S'distance'
p5
aF265.64026641845703
aa(lp6
S'timestamp'
p7
aF3.2386999130249023
aatp8
Rp9
.ccollections
OrderedDict
p0
((lp1
(lp2
S'state'
p3
aI0
aa(lp4
S'distance'
p5
aF265.64026641845703
aa(lp6
S'timestamp'
p7
aF3.247530937194824
aatp8
Rp9
.ccollections
OrderedDict
p0
((lp1
(lp2
S'state'
p3
aI0
aa(lp4
S'distance'
p5
aF265.64026641845703
aa(lp6
S'timestamp'
p7
aF3.2481000423431396
aatp8
Rp9
.ccollections
OrderedDict
p0
((lp1
(lp2
S'state'
p3
aI0
aa(lp4
S'distance'
p5
aF265.64026641845703
aa(lp6
S'timestamp'
p7
aF3.257539987564087
aatp8
Rp9
.ccollections
OrderedDict
p0
((lp1
(lp2
S'state'
p3
aI0
aa(lp4
S'distance'
p5
aF265.64026641845703
aa(lp6
S'timestamp'
p7
aF3.258450984954834
aatp8
Rp9
.ccollections
OrderedDict
p0
((lp1
(lp2
S'state'
p3
aI0
aa(lp4
S'distance'
p5
aF265.64026641845703
aa(lp6
S'timestamp'
p7
aF3.267698049545288
aatp8
Rp9
.ccollections
OrderedDict
p0
((lp1
(lp2
S'state'
p3
aI0
aa(lp4
S'distance'
p5
aF265.64026641845703
aa(lp6
S'timestamp'
p7
aF3.268563985824585
aatp8
Rp9
.ccollections
OrderedDict
p0
((lp1
(lp2
S'state'
p3
aI0
aa(lp4
S'distance'
p5
aF265.64026641845703
aa(lp6
S'timestamp'
p7
aF3.2774789333343506
aatp8
Rp9
.ccollections
OrderedDict
p0
((lp1
(lp2
S'state'
p3
aI0
aa(lp4
S'distance'
p5
aF265.64026641845703
aa(lp6
S'timestamp'
p7
aF3.2782678604125977
aatp8
Rp9
.ccollections
OrderedDict
p0
((lp1
(lp2
S'state'
p3
aI0
aa(lp4
S'distance'
p5
aF265.64026641845703
aa(lp6
S'timestamp'
p7
aF3.287487030029297
aatp8
Rp9
.ccollections
OrderedDict
p0
((lp1
(lp2
S'state'
p3
aI0
aa(lp4
S'distance'
p5
aF265.64026641845703
aa(lp6
S'timestamp'
p7
aF3.2882418632507324
aatp8
Rp9
.ccollections
OrderedDict
p0
((lp1
(lp2
S'state'
p3
aI0
aa(lp4
S'distance'
p5
aF265.64026641845703
aa(lp6
S'timestamp'
p7
aF3.297423839569092
aatp8
Rp9
.ccollections
OrderedDict
p0
((lp1
(lp2
S'state'
p3
aI0
aa(lp4
S'distance'
p5
aF265.64026641845703
aa(lp6
S'timestamp'
p7
aF3.298503875732422
aatp8
Rp9
.ccollections
OrderedDict
p0
((lp1
(lp2
S'state'
p3
aI0
aa(lp4
S'distance'
p5
aF265.64026641845703
aa(lp6
S'timestamp'
p7
aF3.307243824005127
aatp8
Rp9
.ccollections
OrderedDict
p0
((lp1
(lp2
S'state'
p3
aI0
aa(lp4
S'distance'
p5
aF265.64026641845703
aa(lp6
S'timestamp'
p7
aF3.308044910430908
aatp8
Rp9
.ccollections
OrderedDict
p0
((lp1
(lp2
S'state'
p3
aI0
aa(lp4
S'distance'
p5
aF265.64026641845703
aa(lp6
S'timestamp'
p7
aF3.3374619483947754
aatp8
Rp9
.ccollections
OrderedDict
p0
((lp1
(lp2
S'state'
p3
aI0
aa(lp4
S'distance'
p5
aF265.64026641845703
aa(lp6
S'timestamp'
p7
aF3.3384039402008057
aatp8
Rp9
.ccollections
OrderedDict
p0
((lp1
(lp2
S'state'
p3
aI0
aa(lp4
S'distance'
p5
aF265.64026641845703
aa(lp6
S'timestamp'
p7
aF3.339521884918213
aatp8
Rp9
.ccollections
OrderedDict
p0
((lp1
(lp2
S'state'
p3
aI0
aa(lp4
S'distance'
p5
aF265.64026641845703
aa(lp6
S'timestamp'
p7
aF3.3474559783935547
aatp8
Rp9
.ccollections
OrderedDict
p0
((lp1
(lp2
S'state'
p3
aI400
aa(lp4
S'distance'
p5
aF265.64026641845703
aa(lp6
S'timestamp'
p7
aF3.348449945449829
aatp8
Rp9
.ccollections
OrderedDict
p0
((lp1
(lp2
S'state'
p3
aI400
aa(lp4
S'distance'
p5
aF265.64026641845703
aa(lp6
S'timestamp'
p7
aF3.349810838699341
aatp8
Rp9
.ccollections
OrderedDict
p0
((lp1
(lp2
S'state'
p3
aI400
aa(lp4
S'distance'
p5
aF265.64026641845703
aa(lp6
S'timestamp'
p7
aF3.350126028060913
aatp8
Rp9
.ccollections
OrderedDict
p0
((lp1
(lp2
S'state'
p3
aI400
aa(lp4
S'distance'
p5
aF265.64026641845703
aa(lp6
S'timestamp'
p7
aF3.3574399948120117
aatp8
Rp9
.ccollections
OrderedDict
p0
((lp1
(lp2
S'state'
p3
aI400
aa(lp4
S'distance'
p5
aF265.64026641845703
aa(lp6
S'timestamp'
p7
aF3.3580169677734375
aatp8
Rp9
.ccollections
OrderedDict
p0
((lp1
(lp2
S'state'
p3
aI400
aa(lp4
S'distance'
p5
aF265.64026641845703
aa(lp6
S'timestamp'
p7
aF3.3587698936462402
aatp8
Rp9
.ccollections
OrderedDict
p0
((lp1
(lp2
S'state'
p3
aI400
aa(lp4
S'distance'
p5
aF265.64026641845703
aa(lp6
S'timestamp'
p7
aF3.3878889083862305
aatp8
Rp9
.ccollections
OrderedDict
p0
((lp1
(lp2
S'state'
p3
aI400
aa(lp4
S'distance'
p5
aF265.64026641845703
aa(lp6
S'timestamp'
p7
aF3.3882009983062744
aatp8
Rp9
.ccollections
OrderedDict
p0
((lp1
(lp2
S'state'
p3
aI400
aa(lp4
S'distance'
p5
aF265.64026641845703
aa(lp6
S'timestamp'
p7
aF3.3898470401763916
aatp8
Rp9
.ccollections
OrderedDict
p0
((lp1
(lp2
S'state'
p3
aI400
aa(lp4
S'distance'
p5
aF265.64026641845703
aa(lp6
S'timestamp'
p7
aF3.390439987182617
aatp8
Rp9
.ccollections
OrderedDict
p0
((lp1
(lp2
S'state'
p3
aI400
aa(lp4
S'distance'
p5
aF265.64026641845703
aa(lp6
S'timestamp'
p7
aF3.398275852203369
aatp8
Rp9
.ccollections
OrderedDict
p0
((lp1
(lp2
S'state'
p3
aI400
aa(lp4
S'distance'
p5
aF265.64026641845703
aa(lp6
S'timestamp'
p7
aF3.3987138271331787
aatp8
Rp9
.ccollections
OrderedDict
p0
((lp1
(lp2
S'state'
p3
aI400
aa(lp4
S'distance'
p5
aF265.64026641845703
aa(lp6
S'timestamp'
p7
aF3.400209903717041
aatp8
Rp9
.ccollections
OrderedDict
p0
((lp1
(lp2
S'state'
p3
aI400
aa(lp4
S'distance'
p5
aF265.64026641845703
aa(lp6
S'timestamp'
p7
aF3.4011499881744385
aatp8
Rp9
.ccollections
OrderedDict
p0
((lp1
(lp2
S'state'
p3
aI400
aa(lp4
S'distance'
p5
aF265.64026641845703
aa(lp6
S'timestamp'
p7
aF3.4074389934539795
aatp8
Rp9
.ccollections
OrderedDict
p0
((lp1
(lp2
S'state'
p3
aI400
aa(lp4
S'distance'
p5
aF265.64026641845703
aa(lp6
S'timestamp'
p7
aF3.4084038734436035
aatp8
Rp9
.ccollections
OrderedDict
p0
((lp1
(lp2
S'state'
p3
aI400
aa(lp4
S'distance'
p5
aF265.64026641845703
aa(lp6
S'timestamp'
p7
aF3.4175078868865967
aatp8
Rp9
.ccollections
OrderedDict
p0
((lp1
(lp2
S'state'
p3
aI400
aa(lp4
S'distance'
p5
aF265.64026641845703
aa(lp6
S'timestamp'
p7
aF3.418059825897217
aatp8
Rp9
.ccollections
OrderedDict
p0
((lp1
(lp2
S'state'
p3
aI400
aa(lp4
S'distance'
p5
aF265.64026641845703
aa(lp6
S'timestamp'
p7
aF3.427534818649292
aatp8
Rp9
.ccollections
OrderedDict
p0
((lp1
(lp2
S'state'
p3
aI400
aa(lp4
S'distance'
p5
aF265.64026641845703
aa(lp6
S'timestamp'
p7
aF3.428170919418335
aatp8
Rp9
.ccollections
OrderedDict
p0
((lp1
(lp2
S'state'
p3
aI400
aa(lp4
S'distance'
p5
aF265.64026641845703
aa(lp6
S'timestamp'
p7
aF3.4372198581695557
aatp8
Rp9
.ccollections
OrderedDict
p0
((lp1
(lp2
S'state'
p3
aI400
aa(lp4
S'distance'
p5
aF265.64026641845703
aa(lp6
S'timestamp'
p7
aF3.437937021255493
aatp8
Rp9
.ccollections
OrderedDict
p0
((lp1
(lp2
S'state'
p3
aI400
aa(lp4
S'distance'
p5
aF265.64026641845703
aa(lp6
S'timestamp'
p7
aF3.4574320316314697
aatp8
Rp9
.ccollections
OrderedDict
p0
((lp1
(lp2
S'state'
p3
aI400
aa(lp4
S'distance'
p5
aF265.64026641845703
aa(lp6
S'timestamp'
p7
aF3.458477020263672
aatp8
Rp9
.ccollections
OrderedDict
p0
((lp1
(lp2
S'state'
p3
aI400
aa(lp4
S'distance'
p5
aF265.64026641845703
aa(lp6
S'timestamp'
p7
aF3.4586758613586426
aatp8
Rp9
.ccollections
OrderedDict
p0
((lp1
(lp2
S'state'
p3
aI400
aa(lp4
S'distance'
p5
aF265.64026641845703
aa(lp6
S'timestamp'
p7
aF3.4593098163604736
aatp8
Rp9
.ccollections
OrderedDict
p0
((lp1
(lp2
S'state'
p3
aI400
aa(lp4
S'distance'
p5
aF265.64026641845703
aa(lp6
S'timestamp'
p7
aF3.4779770374298096
aatp8
Rp9
.ccollections
OrderedDict
p0
((lp1
(lp2
S'state'
p3
aI400
aa(lp4
S'distance'
p5
aF265.64026641845703
aa(lp6
S'timestamp'
p7
aF3.4781739711761475
aatp8
Rp9
.ccollections
OrderedDict
p0
((lp1
(lp2
S'state'
p3
aI400
aa(lp4
S'distance'
p5
aF265.64026641845703
aa(lp6
S'timestamp'
p7
aF3.479188919067383
aatp8
Rp9
.ccollections
OrderedDict
p0
((lp1
(lp2
S'state'
p3
aI400
aa(lp4
S'distance'
p5
aF265.64026641845703
aa(lp6
S'timestamp'
p7
aF3.479611873626709
aatp8
Rp9
.ccollections
OrderedDict
p0
((lp1
(lp2
S'state'
p3
aI400
aa(lp4
S'distance'
p5
aF265.64026641845703
aa(lp6
S'timestamp'
p7
aF3.4874179363250732
aatp8
Rp9
.ccollections
OrderedDict
p0
((lp1
(lp2
S'state'
p3
aI400
aa(lp4
S'distance'
p5
aF265.64026641845703
aa(lp6
S'timestamp'
p7
aF3.488485813140869
aatp8
Rp9
.ccollections
OrderedDict
p0
((lp1
(lp2
S'state'
p3
aI400
aa(lp4
S'distance'
p5
aF265.64026641845703
aa(lp6
S'timestamp'
p7
aF3.497476816177368
aatp8
Rp9
.ccollections
OrderedDict
p0
((lp1
(lp2
S'state'
p3
aI400
aa(lp4
S'distance'
p5
aF265.64026641845703
aa(lp6
S'timestamp'
p7
aF3.498389959335327
aatp8
Rp9
.ccollections
OrderedDict
p0
((lp1
(lp2
S'state'
p3
aI400
aa(lp4
S'distance'
p5
aF265.64026641845703
aa(lp6
S'timestamp'
p7
aF3.5074520111083984
aatp8
Rp9
.ccollections
OrderedDict
p0
((lp1
(lp2
S'state'
p3
aI400
aa(lp4
S'distance'
p5
aF265.64026641845703
aa(lp6
S'timestamp'
p7
aF3.508275032043457
aatp8
Rp9
.ccollections
OrderedDict
p0
((lp1
(lp2
S'state'
p3
aI400
aa(lp4
S'distance'
p5
aF265.64026641845703
aa(lp6
S'timestamp'
p7
aF3.5177090167999268
aatp8
Rp9
.ccollections
OrderedDict
p0
((lp1
(lp2
S'state'
p3
aI400
aa(lp4
S'distance'
p5
aF265.64026641845703
aa(lp6
S'timestamp'
p7
aF3.517982006072998
aatp8
Rp9
.ccollections
OrderedDict
p0
((lp1
(lp2
S'state'
p3
aI400
aa(lp4
S'distance'
p5
aF265.64026641845703
aa(lp6
S'timestamp'
p7
aF3.5374319553375244
aatp8
Rp9
.ccollections
OrderedDict
p0
((lp1
(lp2
S'state'
p3
aI400
aa(lp4
S'distance'
p5
aF265.64026641845703
aa(lp6
S'timestamp'
p7
aF3.538439989089966
aatp8
Rp9
.ccollections
OrderedDict
p0
((lp1
(lp2
S'state'
p3
aI400
aa(lp4
S'distance'
p5
aF265.64026641845703
aa(lp6
S'timestamp'
p7
aF3.539172887802124
aatp8
Rp9
.ccollections
OrderedDict
p0
((lp1
(lp2
S'state'
p3
aI400
aa(lp4
S'distance'
p5
aF265.64026641845703
aa(lp6
S'timestamp'
p7
aF3.5406229496002197
aatp8
Rp9
.ccollections
OrderedDict
p0
((lp1
(lp2
S'state'
p3
aI400
aa(lp4
S'distance'
p5
aF265.64026641845703
aa(lp6
S'timestamp'
p7
aF3.5476579666137695
aatp8
Rp9
.ccollections
OrderedDict
p0
((lp1
(lp2
S'state'
p3
aI400
aa(lp4
S'distance'
p5
aF265.64026641845703
aa(lp6
S'timestamp'
p7
aF3.547883987426758
aatp8
Rp9
.ccollections
OrderedDict
p0
((lp1
(lp2
S'state'
p3
aI400
aa(lp4
S'distance'
p5
aF265.64026641845703
aa(lp6
S'timestamp'
p7
aF3.5577759742736816
aatp8
Rp9
.ccollections
OrderedDict
p0
((lp1
(lp2
S'state'
p3
aI400
aa(lp4
S'distance'
p5
aF265.64026641845703
aa(lp6
S'timestamp'
p7
aF3.5579519271850586
aatp8
Rp9
.ccollections
OrderedDict
p0
((lp1
(lp2
S'state'
p3
aI400
aa(lp4
S'distance'
p5
aF265.64026641845703
aa(lp6
S'timestamp'
p7
aF3.5675458908081055
aatp8
Rp9
.ccollections
OrderedDict
p0
((lp1
(lp2
S'state'
p3
aI400
aa(lp4
S'distance'
p5
aF265.64026641845703
aa(lp6
S'timestamp'
p7
aF3.568372964859009
aatp8
Rp9
.ccollections
OrderedDict
p0
((lp1
(lp2
S'state'
p3
aI400
aa(lp4
S'distance'
p5
aF265.64026641845703
aa(lp6
S'timestamp'
p7
aF3.5775558948516846
aatp8
Rp9
.ccollections
OrderedDict
p0
((lp1
(lp2
S'state'
p3
aI400
aa(lp4
S'distance'
p5
aF265.64026641845703
aa(lp6
S'timestamp'
p7
aF3.578794002532959
aatp8
Rp9
.ccollections
OrderedDict
p0
((lp1
(lp2
S'state'
p3
aI400
aa(lp4
S'distance'
p5
aF265.64026641845703
aa(lp6
S'timestamp'
p7
aF3.5874009132385254
aatp8
Rp9
.ccollections
OrderedDict
p0
((lp1
(lp2
S'state'
p3
aI400
aa(lp4
S'distance'
p5
aF265.64026641845703
aa(lp6
S'timestamp'
p7
aF3.5882749557495117
aatp8
Rp9
.ccollections
OrderedDict
p0
((lp1
(lp2
S'state'
p3
aI400
aa(lp4
S'distance'
p5
aF265.64026641845703
aa(lp6
S'timestamp'
p7
aF3.6078579425811768
aatp8
Rp9
.ccollections
OrderedDict
p0
((lp1
(lp2
S'state'
p3
aI400
aa(lp4
S'distance'
p5
aF265.64026641845703
aa(lp6
S'timestamp'
p7
aF3.6081159114837646
aatp8
Rp9
.ccollections
OrderedDict
p0
((lp1
(lp2
S'state'
p3
aI400
aa(lp4
S'distance'
p5
aF265.64026641845703
aa(lp6
S'timestamp'
p7
aF3.614914894104004
aatp8
Rp9
.ccollections
OrderedDict
p0
((lp1
(lp2
S'state'
p3
aI400
aa(lp4
S'distance'
p5
aF265.64026641845703
aa(lp6
S'timestamp'
p7
aF3.615450859069824
aatp8
Rp9
.ccollections
OrderedDict
p0
((lp1
(lp2
S'state'
p3
aI400
aa(lp4
S'distance'
p5
aF265.64026641845703
aa(lp6
S'timestamp'
p7
aF3.6181509494781494
aatp8
Rp9
.ccollections
OrderedDict
p0
((lp1
(lp2
S'state'
p3
aI400
aa(lp4
S'distance'
p5
aF265.64026641845703
aa(lp6
S'timestamp'
p7
aF3.619359016418457
aatp8
Rp9
.ccollections
OrderedDict
p0
((lp1
(lp2
S'state'
p3
aI400
aa(lp4
S'distance'
p5
aF265.64026641845703
aa(lp6
S'timestamp'
p7
aF3.6278209686279297
aatp8
Rp9
.ccollections
OrderedDict
p0
((lp1
(lp2
S'state'
p3
aI400
aa(lp4
S'distance'
p5
aF265.64026641845703
aa(lp6
S'timestamp'
p7
aF3.628105878829956
aatp8
Rp9
.ccollections
OrderedDict
p0
((lp1
(lp2
S'state'
p3
aI400
aa(lp4
S'distance'
p5
aF265.64026641845703
aa(lp6
S'timestamp'
p7
aF3.63729190826416
aatp8
Rp9
.ccollections
OrderedDict
p0
((lp1
(lp2
S'state'
p3
aI400
aa(lp4
S'distance'
p5
aF265.64026641845703
aa(lp6
S'timestamp'
p7
aF3.638005018234253
aatp8
Rp9
.ccollections
OrderedDict
p0
((lp1
(lp2
S'state'
p3
aI400
aa(lp4
S'distance'
p5
aF265.64026641845703
aa(lp6
S'timestamp'
p7
aF3.647467851638794
aatp8
Rp9
.ccollections
OrderedDict
p0
((lp1
(lp2
S'state'
p3
aI400
aa(lp4
S'distance'
p5
aF265.64026641845703
aa(lp6
S'timestamp'
p7
aF3.6485228538513184
aatp8
Rp9
.ccollections
OrderedDict
p0
((lp1
(lp2
S'state'
p3
aI400
aa(lp4
S'distance'
p5
aF265.64026641845703
aa(lp6
S'timestamp'
p7
aF3.6573238372802734
aatp8
Rp9
.ccollections
OrderedDict
p0
((lp1
(lp2
S'state'
p3
aI400
aa(lp4
S'distance'
p5
aF265.64026641845703
aa(lp6
S'timestamp'
p7
aF3.658442974090576
aatp8
Rp9
.ccollections
OrderedDict
p0
((lp1
(lp2
S'state'
p3
aI400
aa(lp4
S'distance'
p5
aF265.64026641845703
aa(lp6
S'timestamp'
p7
aF3.667444944381714
aatp8
Rp9
.ccollections
OrderedDict
p0
((lp1
(lp2
S'state'
p3
aI400
aa(lp4
S'distance'
p5
aF265.64026641845703
aa(lp6
S'timestamp'
p7
aF3.6684279441833496
aatp8
Rp9
.ccollections
OrderedDict
p0
((lp1
(lp2
S'state'
p3
aI400
aa(lp4
S'distance'
p5
aF265.64026641845703
aa(lp6
S'timestamp'
p7
aF3.6774349212646484
aatp8
Rp9
.ccollections
OrderedDict
p0
((lp1
(lp2
S'state'
p3
aI400
aa(lp4
S'distance'
p5
aF265.64026641845703
aa(lp6
S'timestamp'
p7
aF3.6783788204193115
aatp8
Rp9
.ccollections
OrderedDict
p0
((lp1
(lp2
S'state'
p3
aI400
aa(lp4
S'distance'
p5
aF265.64026641845703
aa(lp6
S'timestamp'
p7
aF3.687415838241577
aatp8
Rp9
.ccollections
OrderedDict
p0
((lp1
(lp2
S'state'
p3
aI400
aa(lp4
S'distance'
p5
aF265.64026641845703
aa(lp6
S'timestamp'
p7
aF3.687893867492676
aatp8
Rp9
.ccollections
OrderedDict
p0
((lp1
(lp2
S'state'
p3
aI400
aa(lp4
S'distance'
p5
aF265.64026641845703
aa(lp6
S'timestamp'
p7
aF3.697490930557251
aatp8
Rp9
.ccollections
OrderedDict
p0
((lp1
(lp2
S'state'
p3
aI400
aa(lp4
S'distance'
p5
aF265.64026641845703
aa(lp6
S'timestamp'
p7
aF3.6986138820648193
aatp8
Rp9
.ccollections
OrderedDict
p0
((lp1
(lp2
S'state'
p3
aI400
aa(lp4
S'distance'
p5
aF265.64026641845703
aa(lp6
S'timestamp'
p7
aF3.707479953765869
aatp8
Rp9
.ccollections
OrderedDict
p0
((lp1
(lp2
S'state'
p3
aI400
aa(lp4
S'distance'
p5
aF265.64026641845703
aa(lp6
S'timestamp'
p7
aF3.7085659503936768
aatp8
Rp9
.ccollections
OrderedDict
p0
((lp1
(lp2
S'state'
p3
aI400
aa(lp4
S'distance'
p5
aF265.64026641845703
aa(lp6
S'timestamp'
p7
aF3.7175040245056152
aatp8
Rp9
.ccollections
OrderedDict
p0
((lp1
(lp2
S'state'
p3
aI400
aa(lp4
S'distance'
p5
aF265.64026641845703
aa(lp6
S'timestamp'
p7
aF3.718334913253784
aatp8
Rp9
.ccollections
OrderedDict
p0
((lp1
(lp2
S'state'
p3
aI400
aa(lp4
S'distance'
p5
aF265.64026641845703
aa(lp6
S'timestamp'
p7
aF3.7274768352508545
aatp8
Rp9
.ccollections
OrderedDict
p0
((lp1
(lp2
S'state'
p3
aI400
aa(lp4
S'distance'
p5
aF265.64026641845703
aa(lp6
S'timestamp'
p7
aF3.727754831314087
aatp8
Rp9
.ccollections
OrderedDict
p0
((lp1
(lp2
S'state'
p3
aI400
aa(lp4
S'distance'
p5
aF265.64026641845703
aa(lp6
S'timestamp'
p7
aF3.737370014190674
aatp8
Rp9
.ccollections
OrderedDict
p0
((lp1
(lp2
S'state'
p3
aI400
aa(lp4
S'distance'
p5
aF265.64026641845703
aa(lp6
S'timestamp'
p7
aF3.7382888793945312
aatp8
Rp9
.ccollections
OrderedDict
p0
((lp1
(lp2
S'state'
p3
aI400
aa(lp4
S'distance'
p5
aF265.64026641845703
aa(lp6
S'timestamp'
p7
aF3.7574520111083984
aatp8
Rp9
.ccollections
OrderedDict
p0
((lp1
(lp2
S'state'
p3
aI400
aa(lp4
S'distance'
p5
aF265.64026641845703
aa(lp6
S'timestamp'
p7
aF3.7582600116729736
aatp8
Rp9
.ccollections
OrderedDict
p0
((lp1
(lp2
S'state'
p3
aI400
aa(lp4
S'distance'
p5
aF265.64026641845703
aa(lp6
S'timestamp'
p7
aF3.7587249279022217
aatp8
Rp9
.ccollections
OrderedDict
p0
((lp1
(lp2
S'state'
p3
aI400
aa(lp4
S'distance'
p5
aF265.64026641845703
aa(lp6
S'timestamp'
p7
aF3.759881019592285
aatp8
Rp9
.ccollections
OrderedDict
p0
((lp1
(lp2
S'state'
p3
aI400
aa(lp4
S'distance'
p5
aF265.64026641845703
aa(lp6
S'timestamp'
p7
aF3.768523931503296
aatp8
Rp9
.ccollections
OrderedDict
p0
((lp1
(lp2
S'state'
p3
aI400
aa(lp4
S'distance'
p5
aF265.64026641845703
aa(lp6
S'timestamp'
p7
aF3.768612861633301
aatp8
Rp9
.ccollections
OrderedDict
p0
((lp1
(lp2
S'state'
p3
aI400
aa(lp4
S'distance'
p5
aF265.64026641845703
aa(lp6
S'timestamp'
p7
aF3.7774930000305176
aatp8
Rp9
.ccollections
OrderedDict
p0
((lp1
(lp2
S'state'
p3
aI400
aa(lp4
S'distance'
p5
aF265.64026641845703
aa(lp6
S'timestamp'
p7
aF3.778409957885742
aatp8
Rp9
.ccollections
OrderedDict
p0
((lp1
(lp2
S'state'
p3
aI400
aa(lp4
S'distance'
p5
aF265.64026641845703
aa(lp6
S'timestamp'
p7
aF3.787268877029419
aatp8
Rp9
.ccollections
OrderedDict
p0
((lp1
(lp2
S'state'
p3
aI400
aa(lp4
S'distance'
p5
aF265.64026641845703
aa(lp6
S'timestamp'
p7
aF3.787976026535034
aatp8
Rp9
.ccollections
OrderedDict
p0
((lp1
(lp2
S'state'
p3
aI400
aa(lp4
S'distance'
p5
aF265.64026641845703
aa(lp6
S'timestamp'
p7
aF3.7974250316619873
aatp8
Rp9
.ccollections
OrderedDict
p0
((lp1
(lp2
S'state'
p3
aI400
aa(lp4
S'distance'
p5
aF265.64026641845703
aa(lp6
S'timestamp'
p7
aF3.7981789112091064
aatp8
Rp9
.ccollections
OrderedDict
p0
((lp1
(lp2
S'state'
p3
aI400
aa(lp4
S'distance'
p5
aF265.64026641845703
aa(lp6
S'timestamp'
p7
aF3.8074638843536377
aatp8
Rp9
.ccollections
OrderedDict
p0
((lp1
(lp2
S'state'
p3
aI400
aa(lp4
S'distance'
p5
aF265.64026641845703
aa(lp6
S'timestamp'
p7
aF3.8081369400024414
aatp8
Rp9
.ccollections
OrderedDict
p0
((lp1
(lp2
S'state'
p3
aI400
aa(lp4
S'distance'
p5
aF265.64026641845703
aa(lp6
S'timestamp'
p7
aF3.817466974258423
aatp8
Rp9
.ccollections
OrderedDict
p0
((lp1
(lp2
S'state'
p3
aI400
aa(lp4
S'distance'
p5
aF265.64026641845703
aa(lp6
S'timestamp'
p7
aF3.818485975265503
aatp8
Rp9
.ccollections
OrderedDict
p0
((lp1
(lp2
S'state'
p3
aI400
aa(lp4
S'distance'
p5
aF265.64026641845703
aa(lp6
S'timestamp'
p7
aF3.8274269104003906
aatp8
Rp9
.ccollections
OrderedDict
p0
((lp1
(lp2
S'state'
p3
aI400
aa(lp4
S'distance'
p5
aF265.64026641845703
aa(lp6
S'timestamp'
p7
aF3.82773494720459
aatp8
Rp9
.ccollections
OrderedDict
p0
((lp1
(lp2
S'state'
p3
aI400
aa(lp4
S'distance'
p5
aF265.64026641845703
aa(lp6
S'timestamp'
p7
aF3.8374269008636475
aatp8
Rp9
.ccollections
OrderedDict
p0
((lp1
(lp2
S'state'
p3
aI400
aa(lp4
S'distance'
p5
aF265.64026641845703
aa(lp6
S'timestamp'
p7
aF3.838136911392212
aatp8
Rp9
.ccollections
OrderedDict
p0
((lp1
(lp2
S'state'
p3
aI400
aa(lp4
S'distance'
p5
aF265.64026641845703
aa(lp6
S'timestamp'
p7
aF3.8474650382995605
aatp8
Rp9
.ccollections
OrderedDict
p0
((lp1
(lp2
S'state'
p3
aI400
aa(lp4
S'distance'
p5
aF265.64026641845703
aa(lp6
S'timestamp'
p7
aF3.848176956176758
aatp8
Rp9
.ccollections
OrderedDict
p0
((lp1
(lp2
S'state'
p3
aI400
aa(lp4
S'distance'
p5
aF265.64026641845703
aa(lp6
S'timestamp'
p7
aF3.8573620319366455
aatp8
Rp9
.ccollections
OrderedDict
p0
((lp1
(lp2
S'state'
p3
aI400
aa(lp4
S'distance'
p5
aF265.64026641845703
aa(lp6
S'timestamp'
p7
aF3.8584580421447754
aatp8
Rp9
.ccollections
OrderedDict
p0
((lp1
(lp2
S'state'
p3
aI400
aa(lp4
S'distance'
p5
aF265.64026641845703
aa(lp6
S'timestamp'
p7
aF3.867867946624756
aatp8
Rp9
.ccollections
OrderedDict
p0
((lp1
(lp2
S'state'
p3
aI400
aa(lp4
S'distance'
p5
aF265.64026641845703
aa(lp6
S'timestamp'
p7
aF3.867947816848755
aatp8
Rp9
.ccollections
OrderedDict
p0
((lp1
(lp2
S'state'
p3
aI400
aa(lp4
S'distance'
p5
aF265.64026641845703
aa(lp6
S'timestamp'
p7
aF3.8775548934936523
aatp8
Rp9
.ccollections
OrderedDict
p0
((lp1
(lp2
S'state'
p3
aI400
aa(lp4
S'distance'
p5
aF265.64026641845703
aa(lp6
S'timestamp'
p7
aF3.8776848316192627
aatp8
Rp9
.ccollections
OrderedDict
p0
((lp1
(lp2
S'state'
p3
aI400
aa(lp4
S'distance'
p5
aF265.64026641845703
aa(lp6
S'timestamp'
p7
aF3.887392997741699
aatp8
Rp9
.ccollections
OrderedDict
p0
((lp1
(lp2
S'state'
p3
aI400
aa(lp4
S'distance'
p5
aF265.64026641845703
aa(lp6
S'timestamp'
p7
aF3.888394832611084
aatp8
Rp9
.ccollections
OrderedDict
p0
((lp1
(lp2
S'state'
p3
aI400
aa(lp4
S'distance'
p5
aF265.64026641845703
aa(lp6
S'timestamp'
p7
aF3.89795184135437
aatp8
Rp9
.ccollections
OrderedDict
p0
((lp1
(lp2
S'state'
p3
aI400
aa(lp4
S'distance'
p5
aF265.64026641845703
aa(lp6
S'timestamp'
p7
aF3.898401975631714
aatp8
Rp9
.ccollections
OrderedDict
p0
((lp1
(lp2
S'state'
p3
aI400
aa(lp4
S'distance'
p5
aF265.64026641845703
aa(lp6
S'timestamp'
p7
aF3.908139944076538
aatp8
Rp9
.ccollections
OrderedDict
p0
((lp1
(lp2
S'state'
p3
aI400
aa(lp4
S'distance'
p5
aF265.64026641845703
aa(lp6
S'timestamp'
p7
aF3.9082188606262207
aatp8
Rp9
.ccollections
OrderedDict
p0
((lp1
(lp2
S'state'
p3
aI400
aa(lp4
S'distance'
p5
aF265.64026641845703
aa(lp6
S'timestamp'
p7
aF3.917428970336914
aatp8
Rp9
.ccollections
OrderedDict
p0
((lp1
(lp2
S'state'
p3
aI400
aa(lp4
S'distance'
p5
aF265.64026641845703
aa(lp6
S'timestamp'
p7
aF3.9184038639068604
aatp8
Rp9
.ccollections
OrderedDict
p0
((lp1
(lp2
S'state'
p3
aI400
aa(lp4
S'distance'
p5
aF265.64026641845703
aa(lp6
S'timestamp'
p7
aF3.9274508953094482
aatp8
Rp9
.ccollections
OrderedDict
p0
((lp1
(lp2
S'state'
p3
aI400
aa(lp4
S'distance'
p5
aF265.64026641845703
aa(lp6
S'timestamp'
p7
aF3.928170919418335
aatp8
Rp9
.ccollections
OrderedDict
p0
((lp1
(lp2
S'state'
p3
aI400
aa(lp4
S'distance'
p5
aF265.64026641845703
aa(lp6
S'timestamp'
p7
aF3.938504934310913
aatp8
Rp9
.ccollections
OrderedDict
p0
((lp1
(lp2
S'state'
p3
aI400
aa(lp4
S'distance'
p5
aF265.64026641845703
aa(lp6
S'timestamp'
p7
aF3.938581943511963
aatp8
Rp9
.ccollections
OrderedDict
p0
((lp1
(lp2
S'state'
p3
aI400
aa(lp4
S'distance'
p5
aF265.64026641845703
aa(lp6
S'timestamp'
p7
aF3.947481870651245
aatp8
Rp9
.ccollections
OrderedDict
p0
((lp1
(lp2
S'state'
p3
aI400
aa(lp4
S'distance'
p5
aF265.64026641845703
aa(lp6
S'timestamp'
p7
aF3.9482369422912598
aatp8
Rp9
.ccollections
OrderedDict
p0
((lp1
(lp2
S'state'
p3
aI400
aa(lp4
S'distance'
p5
aF265.64026641845703
aa(lp6
S'timestamp'
p7
aF3.957373857498169
aatp8
Rp9
.ccollections
OrderedDict
p0
((lp1
(lp2
S'state'
p3
aI400
aa(lp4
S'distance'
p5
aF265.64026641845703
aa(lp6
S'timestamp'
p7
aF3.9581518173217773
aatp8
Rp9
.ccollections
OrderedDict
p0
((lp1
(lp2
S'state'
p3
aI400
aa(lp4
S'distance'
p5
aF265.64026641845703
aa(lp6
S'timestamp'
p7
aF3.96753191947937
aatp8
Rp9
.ccollections
OrderedDict
p0
((lp1
(lp2
S'state'
p3
aI400
aa(lp4
S'distance'
p5
aF265.64026641845703
aa(lp6
S'timestamp'
p7
aF3.968505859375
aatp8
Rp9
.ccollections
OrderedDict
p0
((lp1
(lp2
S'state'
p3
aI0
aa(lp4
S'distance'
p5
aF265.64026641845703
aa(lp6
S'timestamp'
p7
aF3.97831392288208
aatp8
Rp9
.ccollections
OrderedDict
p0
((lp1
(lp2
S'state'
p3
aI0
aa(lp4
S'distance'
p5
aF164.14007186889648
aa(lp6
S'timestamp'
p7
aF4.538255929946899
aatp8
Rp9
.ccollections
OrderedDict
p0
((lp1
(lp2
S'state'
p3
aI0
aa(lp4
S'distance'
p5
aF164.14007186889648
aa(lp6
S'timestamp'
p7
aF4.547966957092285
aatp8
Rp9
.ccollections
OrderedDict
p0
((lp1
(lp2
S'state'
p3
aI0
aa(lp4
S'distance'
p5
aF164.14007186889648
aa(lp6
S'timestamp'
p7
aF4.548058032989502
aatp8
Rp9
.ccollections
OrderedDict
p0
((lp1
(lp2
S'state'
p3
aI0
aa(lp4
S'distance'
p5
aF164.14007186889648
aa(lp6
S'timestamp'
p7
aF4.557768821716309
aatp8
Rp9
.ccollections
OrderedDict
p0
((lp1
(lp2
S'state'
p3
aI0
aa(lp4
S'distance'
p5
aF164.14007186889648
aa(lp6
S'timestamp'
p7
aF4.557848930358887
aatp8
Rp9
.ccollections
OrderedDict
p0
((lp1
(lp2
S'state'
p3
aI0
aa(lp4
S'distance'
p5
aF164.14007186889648
aa(lp6
S'timestamp'
p7
aF4.567831039428711
aatp8
Rp9
.ccollections
OrderedDict
p0
((lp1
(lp2
S'state'
p3
aI0
aa(lp4
S'distance'
p5
aF164.14007186889648
aa(lp6
S'timestamp'
p7
aF4.567903995513916
aatp8
Rp9
.ccollections
OrderedDict
p0
((lp1
(lp2
S'state'
p3
aI0
aa(lp4
S'distance'
p5
aF164.14007186889648
aa(lp6
S'timestamp'
p7
aF4.5778398513793945
aatp8
Rp9
.ccollections
OrderedDict
p0
((lp1
(lp2
S'state'
p3
aI0
aa(lp4
S'distance'
p5
aF164.14007186889648
aa(lp6
S'timestamp'
p7
aF4.57861590385437
aatp8
Rp9
.ccollections
OrderedDict
p0
((lp1
(lp2
S'state'
p3
aI0
aa(lp4
S'distance'
p5
aF164.14007186889648
aa(lp6
S'timestamp'
p7
aF4.587846040725708
aatp8
Rp9
.ccollections
OrderedDict
p0
((lp1
(lp2
S'state'
p3
aI0
aa(lp4
S'distance'
p5
aF164.14007186889648
aa(lp6
S'timestamp'
p7
aF4.58797287940979
aatp8
Rp9
.ccollections
OrderedDict
p0
((lp1
(lp2
S'state'
p3
aI0
aa(lp4
S'distance'
p5
aF164.14007186889648
aa(lp6
S'timestamp'
p7
aF4.59764289855957
aatp8
Rp9
.ccollections
OrderedDict
p0
((lp1
(lp2
S'state'
p3
aI0
aa(lp4
S'distance'
p5
aF164.14007186889648
aa(lp6
S'timestamp'
p7
aF4.597717046737671
aatp8
Rp9
.ccollections
OrderedDict
p0
((lp1
(lp2
S'state'
p3
aI0
aa(lp4
S'distance'
p5
aF164.14007186889648
aa(lp6
S'timestamp'
p7
aF4.608019828796387
aatp8
Rp9
.ccollections
OrderedDict
p0
((lp1
(lp2
S'state'
p3
aI0
aa(lp4
S'distance'
p5
aF164.14007186889648
aa(lp6
S'timestamp'
p7
aF4.608104944229126
aatp8
Rp9
.ccollections
OrderedDict
p0
((lp1
(lp2
S'state'
p3
aI0
aa(lp4
S'distance'
p5
aF164.14007186889648
aa(lp6
S'timestamp'
p7
aF4.6177709102630615
aatp8
Rp9
.ccollections
OrderedDict
p0
((lp1
(lp2
S'state'
p3
aI0
aa(lp4
S'distance'
p5
aF164.14007186889648
aa(lp6
S'timestamp'
p7
aF4.617950916290283
aatp8
Rp9
.ccollections
OrderedDict
p0
((lp1
(lp2
S'state'
p3
aI0
aa(lp4
S'distance'
p5
aF164.14007186889648
aa(lp6
S'timestamp'
p7
aF4.637797832489014
aatp8
Rp9
.ccollections
OrderedDict
p0
((lp1
(lp2
S'state'
p3
aI0
aa(lp4
S'distance'
p5
aF164.14007186889648
aa(lp6
S'timestamp'
p7
aF4.637871026992798
aatp8
Rp9
.ccollections
OrderedDict
p0
((lp1
(lp2
S'state'
p3
aI0
aa(lp4
S'distance'
p5
aF164.14007186889648
aa(lp6
S'timestamp'
p7
aF4.639071941375732
aatp8
Rp9
.ccollections
OrderedDict
p0
((lp1
(lp2
S'state'
p3
aI0
aa(lp4
S'distance'
p5
aF164.14007186889648
aa(lp6
S'timestamp'
p7
aF4.639423847198486
aatp8
Rp9
.ccollections
OrderedDict
p0
((lp1
(lp2
S'state'
p3
aI0
aa(lp4
S'distance'
p5
aF164.14007186889648
aa(lp6
S'timestamp'
p7
aF4.647610902786255
aatp8
Rp9
.ccollections
OrderedDict
p0
((lp1
(lp2
S'state'
p3
aI0
aa(lp4
S'distance'
p5
aF164.14007186889648
aa(lp6
S'timestamp'
p7
aF4.647748947143555
aatp8
Rp9
.ccollections
OrderedDict
p0
((lp1
(lp2
S'state'
p3
aI0
aa(lp4
S'distance'
p5
aF164.14007186889648
aa(lp6
S'timestamp'
p7
aF4.6577348709106445
aatp8
Rp9
.ccollections
OrderedDict
p0
((lp1
(lp2
S'state'
p3
aI0
aa(lp4
S'distance'
p5
aF164.14007186889648
aa(lp6
S'timestamp'
p7
aF4.6579749584198
aatp8
Rp9
.ccollections
OrderedDict
p0
((lp1
(lp2
S'state'
p3
aI0
aa(lp4
S'distance'
p5
aF164.14007186889648
aa(lp6
S'timestamp'
p7
aF4.687381029129028
aatp8
Rp9
.ccollections
OrderedDict
p0
((lp1
(lp2
S'state'
p3
aI0
aa(lp4
S'distance'
p5
aF164.14007186889648
aa(lp6
S'timestamp'
p7
aF4.687554836273193
aatp8
Rp9
.ccollections
OrderedDict
p0
((lp1
(lp2
S'state'
p3
aI0
aa(lp4
S'distance'
p5
aF164.14007186889648
aa(lp6
S'timestamp'
p7
aF4.6889660358428955
aatp8
Rp9
.ccollections
OrderedDict
p0
((lp1
(lp2
S'state'
p3
aI0
aa(lp4
S'distance'
p5
aF164.14007186889648
aa(lp6
S'timestamp'
p7
aF4.689108848571777
aatp8
Rp9
.ccollections
OrderedDict
p0
((lp1
(lp2
S'state'
p3
aI0
aa(lp4
S'distance'
p5
aF164.14007186889648
aa(lp6
S'timestamp'
p7
aF4.698107004165649
aatp8
Rp9
.ccollections
OrderedDict
p0
((lp1
(lp2
S'state'
p3
aI0
aa(lp4
S'distance'
p5
aF164.14007186889648
aa(lp6
S'timestamp'
p7
aF4.698268890380859
aatp8
Rp9
.ccollections
OrderedDict
p0
((lp1
(lp2
S'state'
p3
aI0
aa(lp4
S'distance'
p5
aF164.14007186889648
aa(lp6
S'timestamp'
p7
aF4.698415994644165
aatp8
Rp9
.ccollections
OrderedDict
p0
((lp1
(lp2
S'state'
p3
aI0
aa(lp4
S'distance'
p5
aF164.14007186889648
aa(lp6
S'timestamp'
p7
aF4.6986188888549805
aatp8
Rp9
.ccollections
OrderedDict
p0
((lp1
(lp2
S'state'
p3
aI0
aa(lp4
S'distance'
p5
aF164.14007186889648
aa(lp6
S'timestamp'
p7
aF4.707415819168091
aatp8
Rp9
.ccollections
OrderedDict
p0
((lp1
(lp2
S'state'
p3
aI0
aa(lp4
S'distance'
p5
aF164.14007186889648
aa(lp6
S'timestamp'
p7
aF4.707746982574463
aatp8
Rp9
.ccollections
OrderedDict
p0
((lp1
(lp2
S'state'
p3
aI0
aa(lp4
S'distance'
p5
aF164.14007186889648
aa(lp6
S'timestamp'
p7
aF4.7174248695373535
aatp8
Rp9
.ccollections
OrderedDict
p0
((lp1
(lp2
S'state'
p3
aI0
aa(lp4
S'distance'
p5
aF164.14007186889648
aa(lp6
S'timestamp'
p7
aF4.717671871185303
aatp8
Rp9
.ccollections
OrderedDict
p0
((lp1
(lp2
S'state'
p3
aI0
aa(lp4
S'distance'
p5
aF164.14007186889648
aa(lp6
S'timestamp'
p7
aF4.727507829666138
aatp8
Rp9
.ccollections
OrderedDict
p0
((lp1
(lp2
S'state'
p3
aI0
aa(lp4
S'distance'
p5
aF164.14007186889648
aa(lp6
S'timestamp'
p7
aF4.72760796546936
aatp8
Rp9
.ccollections
OrderedDict
p0
((lp1
(lp2
S'state'
p3
aI0
aa(lp4
S'distance'
p5
aF164.14007186889648
aa(lp6
S'timestamp'
p7
aF4.737598896026611
aatp8
Rp9
.ccollections
OrderedDict
p0
((lp1
(lp2
S'state'
p3
aI0
aa(lp4
S'distance'
p5
aF164.14007186889648
aa(lp6
S'timestamp'
p7
aF4.739506006240845
aatp8
Rp9
.ccollections
OrderedDict
p0
((lp1
(lp2
S'state'
p3
aI0
aa(lp4
S'distance'
p5
aF164.14007186889648
aa(lp6
S'timestamp'
p7
aF4.747715950012207
aatp8
Rp9
.ccollections
OrderedDict
p0
((lp1
(lp2
S'state'
p3
aI0
aa(lp4
S'distance'
p5
aF164.14007186889648
aa(lp6
S'timestamp'
p7
aF4.747797966003418
aatp8
Rp9
.ccollections
OrderedDict
p0
((lp1
(lp2
S'state'
p3
aI0
aa(lp4
S'distance'
p5
aF164.14007186889648
aa(lp6
S'timestamp'
p7
aF4.7580718994140625
aatp8
Rp9
.ccollections
OrderedDict
p0
((lp1
(lp2
S'state'
p3
aI0
aa(lp4
S'distance'
p5
aF164.14007186889648
aa(lp6
S'timestamp'
p7
aF4.758144855499268
aatp8
Rp9
.ccollections
OrderedDict
p0
((lp1
(lp2
S'state'
p3
aI0
aa(lp4
S'distance'
p5
aF164.14007186889648
aa(lp6
S'timestamp'
p7
aF4.768066883087158
aatp8
Rp9
.ccollections
OrderedDict
p0
((lp1
(lp2
S'state'
p3
aI0
aa(lp4
S'distance'
p5
aF164.14007186889648
aa(lp6
S'timestamp'
p7
aF4.768148899078369
aatp8
Rp9
.ccollections
OrderedDict
p0
((lp1
(lp2
S'state'
p3
aI0
aa(lp4
S'distance'
p5
aF164.14007186889648
aa(lp6
S'timestamp'
p7
aF4.778151988983154
aatp8
Rp9
.ccollections
OrderedDict
p0
((lp1
(lp2
S'state'
p3
aI0
aa(lp4
S'distance'
p5
aF164.14007186889648
aa(lp6
S'timestamp'
p7
aF4.778347969055176
aatp8
Rp9
.ccollections
OrderedDict
p0
((lp1
(lp2
S'state'
p3
aI0
aa(lp4
S'distance'
p5
aF164.14007186889648
aa(lp6
S'timestamp'
p7
aF4.787786960601807
aatp8
Rp9
.ccollections
OrderedDict
p0
((lp1
(lp2
S'state'
p3
aI0
aa(lp4
S'distance'
p5
aF164.14007186889648
aa(lp6
S'timestamp'
p7
aF4.78830885887146
aatp8
Rp9
.ccollections
OrderedDict
p0
((lp1
(lp2
S'state'
p3
aI0
aa(lp4
S'distance'
p5
aF164.14007186889648
aa(lp6
S'timestamp'
p7
aF4.797969818115234
aatp8
Rp9
.ccollections
OrderedDict
p0
((lp1
(lp2
S'state'
p3
aI0
aa(lp4
S'distance'
p5
aF164.14007186889648
aa(lp6
S'timestamp'
p7
aF4.798113822937012
aatp8
Rp9
.ccollections
OrderedDict
p0
((lp1
(lp2
S'state'
p3
aI0
aa(lp4
S'distance'
p5
aF164.14007186889648
aa(lp6
S'timestamp'
p7
aF4.8084938526153564
aatp8
Rp9
.ccollections
OrderedDict
p0
((lp1
(lp2
S'state'
p3
aI0
aa(lp4
S'distance'
p5
aF164.14007186889648
aa(lp6
S'timestamp'
p7
aF4.808588027954102
aatp8
Rp9
.ccollections
OrderedDict
p0
((lp1
(lp2
S'state'
p3
aI0
aa(lp4
S'distance'
p5
aF164.14007186889648
aa(lp6
S'timestamp'
p7
aF4.8184428215026855
aatp8
Rp9
.ccollections
OrderedDict
p0
((lp1
(lp2
S'state'
p3
aI0
aa(lp4
S'distance'
p5
aF164.14007186889648
aa(lp6
S'timestamp'
p7
aF4.819281816482544
aatp8
Rp9
.ccollections
OrderedDict
p0
((lp1
(lp2
S'state'
p3
aI0
aa(lp4
S'distance'
p5
aF164.14007186889648
aa(lp6
S'timestamp'
p7
aF4.827436923980713
aatp8
Rp9
.ccollections
OrderedDict
p0
((lp1
(lp2
S'state'
p3
aI0
aa(lp4
S'distance'
p5
aF164.14007186889648
aa(lp6
S'timestamp'
p7
aF4.8282859325408936
aatp8
Rp9
.ccollections
OrderedDict
p0
((lp1
(lp2
S'state'
p3
aI0
aa(lp4
S'distance'
p5
aF164.14007186889648
aa(lp6
S'timestamp'
p7
aF4.837286949157715
aatp8
Rp9
.ccollections
OrderedDict
p0
((lp1
(lp2
S'state'
p3
aI0
aa(lp4
S'distance'
p5
aF164.14007186889648
aa(lp6
S'timestamp'
p7
aF4.837888956069946
aatp8
Rp9
.ccollections
OrderedDict
p0
((lp1
(lp2
S'state'
p3
aI0
aa(lp4
S'distance'
p5
aF164.14007186889648
aa(lp6
S'timestamp'
p7
aF4.8479180335998535
aatp8
Rp9
.ccollections
OrderedDict
p0
((lp1
(lp2
S'state'
p3
aI0
aa(lp4
S'distance'
p5
aF164.14007186889648
aa(lp6
S'timestamp'
p7
aF4.847996950149536
aatp8
Rp9
.ccollections
OrderedDict
p0
((lp1
(lp2
S'state'
p3
aI0
aa(lp4
S'distance'
p5
aF164.14007186889648
aa(lp6
S'timestamp'
p7
aF4.877943992614746
aatp8
Rp9
.ccollections
OrderedDict
p0
((lp1
(lp2
S'state'
p3
aI0
aa(lp4
S'distance'
p5
aF164.14007186889648
aa(lp6
S'timestamp'
p7
aF4.878015041351318
aatp8
Rp9
.ccollections
OrderedDict
p0
((lp1
(lp2
S'state'
p3
aI0
aa(lp4
S'distance'
p5
aF164.14007186889648
aa(lp6
S'timestamp'
p7
aF4.878731966018677
aatp8
Rp9
.ccollections
OrderedDict
p0
((lp1
(lp2
S'state'
p3
aI0
aa(lp4
S'distance'
p5
aF164.14007186889648
aa(lp6
S'timestamp'
p7
aF4.879112005233765
aatp8
Rp9
.ccollections
OrderedDict
p0
((lp1
(lp2
S'state'
p3
aI0
aa(lp4
S'distance'
p5
aF164.14007186889648
aa(lp6
S'timestamp'
p7
aF4.88844895362854
aatp8
Rp9
.ccollections
OrderedDict
p0
((lp1
(lp2
S'state'
p3
aI0
aa(lp4
S'distance'
p5
aF164.14007186889648
aa(lp6
S'timestamp'
p7
aF4.888526916503906
aatp8
Rp9
.ccollections
OrderedDict
p0
((lp1
(lp2
S'state'
p3
aI0
aa(lp4
S'distance'
p5
aF164.14007186889648
aa(lp6
S'timestamp'
p7
aF4.888662815093994
aatp8
Rp9
.ccollections
OrderedDict
p0
((lp1
(lp2
S'state'
p3
aI0
aa(lp4
S'distance'
p5
aF164.14007186889648
aa(lp6
S'timestamp'
p7
aF4.888981819152832
aatp8
Rp9
.ccollections
OrderedDict
p0
((lp1
(lp2
S'state'
p3
aI0
aa(lp4
S'distance'
p5
aF164.14007186889648
aa(lp6
S'timestamp'
p7
aF4.89777398109436
aatp8
Rp9
.ccollections
OrderedDict
p0
((lp1
(lp2
S'state'
p3
aI0
aa(lp4
S'distance'
p5
aF164.14007186889648
aa(lp6
S'timestamp'
p7
aF4.898293972015381
aatp8
Rp9
.ccollections
OrderedDict
p0
((lp1
(lp2
S'state'
p3
aI0
aa(lp4
S'distance'
p5
aF164.14007186889648
aa(lp6
S'timestamp'
p7
aF4.907984972000122
aatp8
Rp9
.ccollections
OrderedDict
p0
((lp1
(lp2
S'state'
p3
aI0
aa(lp4
S'distance'
p5
aF164.14007186889648
aa(lp6
S'timestamp'
p7
aF4.908071041107178
aatp8
Rp9
.ccollections
OrderedDict
p0
((lp1
(lp2
S'state'
p3
aI0
aa(lp4
S'distance'
p5
aF164.14007186889648
aa(lp6
S'timestamp'
p7
aF4.917841911315918
aatp8
Rp9
.ccollections
OrderedDict
p0
((lp1
(lp2
S'state'
p3
aI0
aa(lp4
S'distance'
p5
aF164.14007186889648
aa(lp6
S'timestamp'
p7
aF4.917918920516968
aatp8
Rp9
.ccollections
OrderedDict
p0
((lp1
(lp2
S'state'
p3
aI0
aa(lp4
S'distance'
p5
aF164.14007186889648
aa(lp6
S'timestamp'
p7
aF4.92789888381958
aatp8
Rp9
.ccollections
OrderedDict
p0
((lp1
(lp2
S'state'
p3
aI0
aa(lp4
S'distance'
p5
aF164.14007186889648
aa(lp6
S'timestamp'
p7
aF4.927981853485107
aatp8
Rp9
.ccollections
OrderedDict
p0
((lp1
(lp2
S'state'
p3
aI0
aa(lp4
S'distance'
p5
aF164.14007186889648
aa(lp6
S'timestamp'
p7
aF4.937887907028198
aatp8
Rp9
.ccollections
OrderedDict
p0
((lp1
(lp2
S'state'
p3
aI0
aa(lp4
S'distance'
p5
aF164.14007186889648
aa(lp6
S'timestamp'
p7
aF4.938091039657593
aatp8
Rp9
.ccollections
OrderedDict
p0
((lp1
(lp2
S'state'
p3
aI0
aa(lp4
S'distance'
p5
aF164.14007186889648
aa(lp6
S'timestamp'
p7
aF4.947580814361572
aatp8
Rp9
.ccollections
OrderedDict
p0
((lp1
(lp2
S'state'
p3
aI0
aa(lp4
S'distance'
p5
aF164.14007186889648
aa(lp6
S'timestamp'
p7
aF4.947770833969116
aatp8
Rp9
.ccollections
OrderedDict
p0
((lp1
(lp2
S'state'
p3
aI0
aa(lp4
S'distance'
p5
aF164.14007186889648
aa(lp6
S'timestamp'
p7
aF4.957828044891357
aatp8
Rp9
.ccollections
OrderedDict
p0
((lp1
(lp2
S'state'
p3
aI0
aa(lp4
S'distance'
p5
aF164.14007186889648
aa(lp6
S'timestamp'
p7
aF4.957906007766724
aatp8
Rp9
.ccollections
OrderedDict
p0
((lp1
(lp2
S'state'
p3
aI0
aa(lp4
S'distance'
p5
aF164.14007186889648
aa(lp6
S'timestamp'
p7
aF4.967828989028931
aatp8
Rp9
.ccollections
OrderedDict
p0
((lp1
(lp2
S'state'
p3
aI0
aa(lp4
S'distance'
p5
aF164.14007186889648
aa(lp6
S'timestamp'
p7
aF4.9679038524627686
aatp8
Rp9
.ccollections
OrderedDict
p0
((lp1
(lp2
S'state'
p3
aI0
aa(lp4
S'distance'
p5
aF164.14007186889648
aa(lp6
S'timestamp'
p7
aF4.977138996124268
aatp8
Rp9
.ccollections
OrderedDict
p0
((lp1
(lp2
S'state'
p3
aI0
aa(lp4
S'distance'
p5
aF164.14007186889648
aa(lp6
S'timestamp'
p7
aF4.978184938430786
aatp8
Rp9
.ccollections
OrderedDict
p0
((lp1
(lp2
S'state'
p3
aI0
aa(lp4
S'distance'
p5
aF164.14007186889648
aa(lp6
S'timestamp'
p7
aF4.987489938735962
aatp8
Rp9
.ccollections
OrderedDict
p0
((lp1
(lp2
S'state'
p3
aI0
aa(lp4
S'distance'
p5
aF164.14007186889648
aa(lp6
S'timestamp'
p7
aF4.988090991973877
aatp8
Rp9
.ccollections
OrderedDict
p0
((lp1
(lp2
S'state'
p3
aI0
aa(lp4
S'distance'
p5
aF164.14007186889648
aa(lp6
S'timestamp'
p7
aF4.9980950355529785
aatp8
Rp9
.ccollections
OrderedDict
p0
((lp1
(lp2
S'state'
p3
aI0
aa(lp4
S'distance'
p5
aF164.14007186889648
aa(lp6
S'timestamp'
p7
aF4.998183965682983
aatp8
Rp9
.ccollections
OrderedDict
p0
((lp1
(lp2
S'state'
p3
aI0
aa(lp4
S'distance'
p5
aF164.14007186889648
aa(lp6
S'timestamp'
p7
aF5.007879018783569
aatp8
Rp9
.ccollections
OrderedDict
p0
((lp1
(lp2
S'state'
p3
aI0
aa(lp4
S'distance'
p5
aF164.14007186889648
aa(lp6
S'timestamp'
p7
aF5.018066883087158
aatp8
Rp9
.ccollections
OrderedDict
p0
((lp1
(lp2
S'state'
p3
aI0
aa(lp4
S'distance'
p5
aF164.14007186889648
aa(lp6
S'timestamp'
p7
aF5.018424987792969
aatp8
Rp9
.ccollections
OrderedDict
p0
((lp1
(lp2
S'state'
p3
aI0
aa(lp4
S'distance'
p5
aF164.14007186889648
aa(lp6
S'timestamp'
p7
aF5.018779993057251
aatp8
Rp9
.ccollections
OrderedDict
p0
((lp1
(lp2
S'state'
p3
aI0
aa(lp4
S'distance'
p5
aF164.14007186889648
aa(lp6
S'timestamp'
p7
aF5.027766942977905
aatp8
Rp9
.ccollections
OrderedDict
p0
((lp1
(lp2
S'state'
p3
aI0
aa(lp4
S'distance'
p5
aF164.14007186889648
aa(lp6
S'timestamp'
p7
aF5.028110027313232
aatp8
Rp9
.ccollections
OrderedDict
p0
((lp1
(lp2
S'state'
p3
aI0
aa(lp4
S'distance'
p5
aF164.14007186889648
aa(lp6
S'timestamp'
p7
aF5.037819862365723
aatp8
Rp9
.ccollections
OrderedDict
p0
((lp1
(lp2
S'state'
p3
aI0
aa(lp4
S'distance'
p5
aF164.14007186889648
aa(lp6
S'timestamp'
p7
aF5.037899971008301
aatp8
Rp9
.ccollections
OrderedDict
p0
((lp1
(lp2
S'state'
p3
aI0
aa(lp4
S'distance'
p5
aF164.14007186889648
aa(lp6
S'timestamp'
p7
aF5.047845840454102
aatp8
Rp9
.ccollections
OrderedDict
p0
((lp1
(lp2
S'state'
p3
aI0
aa(lp4
S'distance'
p5
aF164.14007186889648
aa(lp6
S'timestamp'
p7
aF5.048401832580566
aatp8
Rp9
.ccollections
OrderedDict
p0
((lp1
(lp2
S'state'
p3
aI0
aa(lp4
S'distance'
p5
aF164.14007186889648
aa(lp6
S'timestamp'
p7
aF5.058038949966431
aatp8
Rp9
.ccollections
OrderedDict
p0
((lp1
(lp2
S'state'
p3
aI0
aa(lp4
S'distance'
p5
aF164.14007186889648
aa(lp6
S'timestamp'
p7
aF5.059234857559204
aatp8
Rp9
.ccollections
OrderedDict
p0
((lp1
(lp2
S'state'
p3
aI0
aa(lp4
S'distance'
p5
aF164.14007186889648
aa(lp6
S'timestamp'
p7
aF5.067957878112793
aatp8
Rp9
.ccollections
OrderedDict
p0
((lp1
(lp2
S'state'
p3
aI0
aa(lp4
S'distance'
p5
aF164.14007186889648
aa(lp6
S'timestamp'
p7
aF5.068096876144409
aatp8
Rp9
.ccollections
OrderedDict
p0
((lp1
(lp2
S'state'
p3
aI0
aa(lp4
S'distance'
p5
aF164.14007186889648
aa(lp6
S'timestamp'
p7
aF5.0778968334198
aatp8
Rp9
.ccollections
OrderedDict
p0
((lp1
(lp2
S'state'
p3
aI0
aa(lp4
S'distance'
p5
aF164.14007186889648
aa(lp6
S'timestamp'
p7
aF5.077972888946533
aatp8
Rp9
.ccollections
OrderedDict
p0
((lp1
(lp2
S'state'
p3
aI0
aa(lp4
S'distance'
p5
aF164.14007186889648
aa(lp6
S'timestamp'
p7
aF5.098603963851929
aatp8
Rp9
.ccollections
OrderedDict
p0
((lp1
(lp2
S'state'
p3
aI0
aa(lp4
S'distance'
p5
aF164.14007186889648
aa(lp6
S'timestamp'
p7
aF5.099510908126831
aatp8
Rp9
.ccollections
OrderedDict
p0
((lp1
(lp2
S'state'
p3
aI0
aa(lp4
S'distance'
p5
aF164.14007186889648
aa(lp6
S'timestamp'
p7
aF5.099876880645752
aatp8
Rp9
.ccollections
OrderedDict
p0
((lp1
(lp2
S'state'
p3
aI400
aa(lp4
S'distance'
p5
aF164.14007186889648
aa(lp6
S'timestamp'
p7
aF5.100003957748413
aatp8
Rp9
.ccollections
OrderedDict
p0
((lp1
(lp2
S'state'
p3
aI400
aa(lp4
S'distance'
p5
aF164.14007186889648
aa(lp6
S'timestamp'
p7
aF5.107852935791016
aatp8
Rp9
.ccollections
OrderedDict
p0
((lp1
(lp2
S'state'
p3
aI400
aa(lp4
S'distance'
p5
aF164.14007186889648
aa(lp6
S'timestamp'
p7
aF5.107956886291504
aatp8
Rp9
.ccollections
OrderedDict
p0
((lp1
(lp2
S'state'
p3
aI400
aa(lp4
S'distance'
p5
aF164.14007186889648
aa(lp6
S'timestamp'
p7
aF5.117940902709961
aatp8
Rp9
.ccollections
OrderedDict
p0
((lp1
(lp2
S'state'
p3
aI400
aa(lp4
S'distance'
p5
aF164.14007186889648
aa(lp6
S'timestamp'
p7
aF5.11817193031311
aatp8
Rp9
.ccollections
OrderedDict
p0
((lp1
(lp2
S'state'
p3
aI400
aa(lp4
S'distance'
p5
aF164.14007186889648
aa(lp6
S'timestamp'
p7
aF5.127218961715698
aatp8
Rp9
.ccollections
OrderedDict
p0
((lp1
(lp2
S'state'
p3
aI400
aa(lp4
S'distance'
p5
aF164.14007186889648
aa(lp6
S'timestamp'
p7
aF5.128180980682373
aatp8
Rp9
.ccollections
OrderedDict
p0
((lp1
(lp2
S'state'
p3
aI400
aa(lp4
S'distance'
p5
aF164.14007186889648
aa(lp6
S'timestamp'
p7
aF5.138051986694336
aatp8
Rp9
.ccollections
OrderedDict
p0
((lp1
(lp2
S'state'
p3
aI400
aa(lp4
S'distance'
p5
aF164.14007186889648
aa(lp6
S'timestamp'
p7
aF5.138247966766357
aatp8
Rp9
.ccollections
OrderedDict
p0
((lp1
(lp2
S'state'
p3
aI400
aa(lp4
S'distance'
p5
aF164.14007186889648
aa(lp6
S'timestamp'
p7
aF5.147922039031982
aatp8
Rp9
.ccollections
OrderedDict
p0
((lp1
(lp2
S'state'
p3
aI400
aa(lp4
S'distance'
p5
aF164.14007186889648
aa(lp6
S'timestamp'
p7
aF5.148991823196411
aatp8
Rp9
.ccollections
OrderedDict
p0
((lp1
(lp2
S'state'
p3
aI400
aa(lp4
S'distance'
p5
aF164.14007186889648
aa(lp6
S'timestamp'
p7
aF5.167870044708252
aatp8
Rp9
.ccollections
OrderedDict
p0
((lp1
(lp2
S'state'
p3
aI400
aa(lp4
S'distance'
p5
aF164.14007186889648
aa(lp6
S'timestamp'
p7
aF5.167948007583618
aatp8
Rp9
.ccollections
OrderedDict
p0
((lp1
(lp2
S'state'
p3
aI400
aa(lp4
S'distance'
p5
aF164.14007186889648
aa(lp6
S'timestamp'
p7
aF5.168660879135132
aatp8
Rp9
.ccollections
OrderedDict
p0
((lp1
(lp2
S'state'
p3
aI400
aa(lp4
S'distance'
p5
aF164.14007186889648
aa(lp6
S'timestamp'
p7
aF5.169217824935913
aatp8
Rp9
.ccollections
OrderedDict
p0
((lp1
(lp2
S'state'
p3
aI400
aa(lp4
S'distance'
p5
aF164.14007186889648
aa(lp6
S'timestamp'
p7
aF5.177965879440308
aatp8
Rp9
.ccollections
OrderedDict
p0
((lp1
(lp2
S'state'
p3
aI400
aa(lp4
S'distance'
p5
aF164.14007186889648
aa(lp6
S'timestamp'
p7
aF5.178087949752808
aatp8
Rp9
.ccollections
OrderedDict
p0
((lp1
(lp2
S'state'
p3
aI400
aa(lp4
S'distance'
p5
aF164.14007186889648
aa(lp6
S'timestamp'
p7
aF5.1877360343933105
aatp8
Rp9
.ccollections
OrderedDict
p0
((lp1
(lp2
S'state'
p3
aI400
aa(lp4
S'distance'
p5
aF164.14007186889648
aa(lp6
S'timestamp'
p7
aF5.187902927398682
aatp8
Rp9
.ccollections
OrderedDict
p0
((lp1
(lp2
S'state'
p3
aI400
aa(lp4
S'distance'
p5
aF164.14007186889648
aa(lp6
S'timestamp'
p7
aF5.197577953338623
aatp8
Rp9
.ccollections
OrderedDict
p0
((lp1
(lp2
S'state'
p3
aI400
aa(lp4
S'distance'
p5
aF164.14007186889648
aa(lp6
S'timestamp'
p7
aF5.198210954666138
aatp8
Rp9
.ccollections
OrderedDict
p0
((lp1
(lp2
S'state'
p3
aI400
aa(lp4
S'distance'
p5
aF164.14007186889648
aa(lp6
S'timestamp'
p7
aF5.2182698249816895
aatp8
Rp9
.ccollections
OrderedDict
p0
((lp1
(lp2
S'state'
p3
aI400
aa(lp4
S'distance'
p5
aF164.14007186889648
aa(lp6
S'timestamp'
p7
aF5.218865871429443
aatp8
Rp9
.ccollections
OrderedDict
p0
((lp1
(lp2
S'state'
p3
aI400
aa(lp4
S'distance'
p5
aF164.14007186889648
aa(lp6
S'timestamp'
p7
aF5.218952894210815
aatp8
Rp9
.ccollections
OrderedDict
p0
((lp1
(lp2
S'state'
p3
aI400
aa(lp4
S'distance'
p5
aF164.14007186889648
aa(lp6
S'timestamp'
p7
aF5.219020843505859
aatp8
Rp9
.ccollections
OrderedDict
p0
((lp1
(lp2
S'state'
p3
aI400
aa(lp4
S'distance'
p5
aF164.14007186889648
aa(lp6
S'timestamp'
p7
aF5.237701892852783
aatp8
Rp9
.ccollections
OrderedDict
p0
((lp1
(lp2
S'state'
p3
aI400
aa(lp4
S'distance'
p5
aF164.14007186889648
aa(lp6
S'timestamp'
p7
aF5.23783802986145
aatp8
Rp9
.ccollections
OrderedDict
p0
((lp1
(lp2
S'state'
p3
aI400
aa(lp4
S'distance'
p5
aF164.14007186889648
aa(lp6
S'timestamp'
p7
aF5.238968849182129
aatp8
Rp9
.ccollections
OrderedDict
p0
((lp1
(lp2
S'state'
p3
aI400
aa(lp4
S'distance'
p5
aF164.14007186889648
aa(lp6
S'timestamp'
p7
aF5.239274024963379
aatp8
Rp9
.ccollections
OrderedDict
p0
((lp1
(lp2
S'state'
p3
aI400
aa(lp4
S'distance'
p5
aF164.14007186889648
aa(lp6
S'timestamp'
p7
aF5.247820854187012
aatp8
Rp9
.ccollections
OrderedDict
p0
((lp1
(lp2
S'state'
p3
aI400
aa(lp4
S'distance'
p5
aF164.14007186889648
aa(lp6
S'timestamp'
p7
aF5.248448848724365
aatp8
Rp9
.ccollections
OrderedDict
p0
((lp1
(lp2
S'state'
p3
aI400
aa(lp4
S'distance'
p5
aF164.14007186889648
aa(lp6
S'timestamp'
p7
aF5.257937908172607
aatp8
Rp9
.ccollections
OrderedDict
p0
((lp1
(lp2
S'state'
p3
aI400
aa(lp4
S'distance'
p5
aF164.14007186889648
aa(lp6
S'timestamp'
p7
aF5.258365869522095
aatp8
Rp9
.ccollections
OrderedDict
p0
((lp1
(lp2
S'state'
p3
aI400
aa(lp4
S'distance'
p5
aF164.14007186889648
aa(lp6
S'timestamp'
p7
aF5.26859188079834
aatp8
Rp9
.ccollections
OrderedDict
p0
((lp1
(lp2
S'state'
p3
aI400
aa(lp4
S'distance'
p5
aF164.14007186889648
aa(lp6
S'timestamp'
p7
aF5.26869797706604
aatp8
Rp9
.ccollections
OrderedDict
p0
((lp1
(lp2
S'state'
p3
aI400
aa(lp4
S'distance'
p5
aF164.14007186889648
aa(lp6
S'timestamp'
p7
aF5.287452936172485
aatp8
Rp9
.ccollections
OrderedDict
p0
((lp1
(lp2
S'state'
p3
aI400
aa(lp4
S'distance'
p5
aF164.14007186889648
aa(lp6
S'timestamp'
p7
aF5.287871837615967
aatp8
Rp9
.ccollections
OrderedDict
p0
((lp1
(lp2
S'state'
p3
aI400
aa(lp4
S'distance'
p5
aF164.14007186889648
aa(lp6
S'timestamp'
p7
aF5.288628816604614
aatp8
Rp9
.ccollections
OrderedDict
p0
((lp1
(lp2
S'state'
p3
aI400
aa(lp4
S'distance'
p5
aF164.14007186889648
aa(lp6
S'timestamp'
p7
aF5.289549827575684
aatp8
Rp9
.ccollections
OrderedDict
p0
((lp1
(lp2
S'state'
p3
aI400
aa(lp4
S'distance'
p5
aF164.14007186889648
aa(lp6
S'timestamp'
p7
aF5.297842979431152
aatp8
Rp9
.ccollections
OrderedDict
p0
((lp1
(lp2
S'state'
p3
aI400
aa(lp4
S'distance'
p5
aF164.14007186889648
aa(lp6
S'timestamp'
p7
aF5.2980358600616455
aatp8
Rp9
.ccollections
OrderedDict
p0
((lp1
(lp2
S'state'
p3
aI400
aa(lp4
S'distance'
p5
aF164.14007186889648
aa(lp6
S'timestamp'
p7
aF5.30705189704895
aatp8
Rp9
.ccollections
OrderedDict
p0
((lp1
(lp2
S'state'
p3
aI400
aa(lp4
S'distance'
p5
aF164.14007186889648
aa(lp6
S'timestamp'
p7
aF5.307761907577515
aatp8
Rp9
.ccollections
OrderedDict
p0
((lp1
(lp2
S'state'
p3
aI400
aa(lp4
S'distance'
p5
aF164.14007186889648
aa(lp6
S'timestamp'
p7
aF5.317334890365601
aatp8
Rp9
.ccollections
OrderedDict
p0
((lp1
(lp2
S'state'
p3
aI400
aa(lp4
S'distance'
p5
aF164.14007186889648
aa(lp6
S'timestamp'
p7
aF5.318042039871216
aatp8
Rp9
.ccollections
OrderedDict
p0
((lp1
(lp2
S'state'
p3
aI400
aa(lp4
S'distance'
p5
aF164.14007186889648
aa(lp6
S'timestamp'
p7
aF5.32724404335022
aatp8
Rp9
.ccollections
OrderedDict
p0
((lp1
(lp2
S'state'
p3
aI400
aa(lp4
S'distance'
p5
aF164.14007186889648
aa(lp6
S'timestamp'
p7
aF5.327821969985962
aatp8
Rp9
.ccollections
OrderedDict
p0
((lp1
(lp2
S'state'
p3
aI400
aa(lp4
S'distance'
p5
aF164.14007186889648
aa(lp6
S'timestamp'
p7
aF5.337981939315796
aatp8
Rp9
.ccollections
OrderedDict
p0
((lp1
(lp2
S'state'
p3
aI400
aa(lp4
S'distance'
p5
aF164.14007186889648
aa(lp6
S'timestamp'
p7
aF5.338222026824951
aatp8
Rp9
.ccollections
OrderedDict
p0
((lp1
(lp2
S'state'
p3
aI400
aa(lp4
S'distance'
p5
aF164.14007186889648
aa(lp6
S'timestamp'
p7
aF5.347966909408569
aatp8
Rp9
.ccollections
OrderedDict
p0
((lp1
(lp2
S'state'
p3
aI400
aa(lp4
S'distance'
p5
aF164.14007186889648
aa(lp6
S'timestamp'
p7
aF5.348219871520996
aatp8
Rp9
.ccollections
OrderedDict
p0
((lp1
(lp2
S'state'
p3
aI400
aa(lp4
S'distance'
p5
aF164.14007186889648
aa(lp6
S'timestamp'
p7
aF5.357525825500488
aatp8
Rp9
.ccollections
OrderedDict
p0
((lp1
(lp2
S'state'
p3
aI400
aa(lp4
S'distance'
p5
aF164.14007186889648
aa(lp6
S'timestamp'
p7
aF5.358155965805054
aatp8
Rp9
.ccollections
OrderedDict
p0
((lp1
(lp2
S'state'
p3
aI400
aa(lp4
S'distance'
p5
aF164.14007186889648
aa(lp6
S'timestamp'
p7
aF5.3677818775177
aatp8
Rp9
.ccollections
OrderedDict
p0
((lp1
(lp2
S'state'
p3
aI400
aa(lp4
S'distance'
p5
aF164.14007186889648
aa(lp6
S'timestamp'
p7
aF5.367857933044434
aatp8
Rp9
.ccollections
OrderedDict
p0
((lp1
(lp2
S'state'
p3
aI400
aa(lp4
S'distance'
p5
aF164.14007186889648
aa(lp6
S'timestamp'
p7
aF5.3780248165130615
aatp8
Rp9
.ccollections
OrderedDict
p0
((lp1
(lp2
S'state'
p3
aI400
aa(lp4
S'distance'
p5
aF164.14007186889648
aa(lp6
S'timestamp'
p7
aF5.387249946594238
aatp8
Rp9
.ccollections
OrderedDict
p0
((lp1
(lp2
S'state'
p3
aI400
aa(lp4
S'distance'
p5
aF164.14007186889648
aa(lp6
S'timestamp'
p7
aF5.388164043426514
aatp8
Rp9
.ccollections
OrderedDict
p0
((lp1
(lp2
S'state'
p3
aI400
aa(lp4
S'distance'
p5
aF164.14007186889648
aa(lp6
S'timestamp'
p7
aF5.388234853744507
aatp8
Rp9
.ccollections
OrderedDict
p0
((lp1
(lp2
S'state'
p3
aI400
aa(lp4
S'distance'
p5
aF164.14007186889648
aa(lp6
S'timestamp'
p7
aF5.397313833236694
aatp8
Rp9
.ccollections
OrderedDict
p0
((lp1
(lp2
S'state'
p3
aI400
aa(lp4
S'distance'
p5
aF164.14007186889648
aa(lp6
S'timestamp'
p7
aF5.397756814956665
aatp8
Rp9
.ccollections
OrderedDict
p0
((lp1
(lp2
S'state'
p3
aI400
aa(lp4
S'distance'
p5
aF164.14007186889648
aa(lp6
S'timestamp'
p7
aF5.4073569774627686
aatp8
Rp9
.ccollections
OrderedDict
p0
((lp1
(lp2
S'state'
p3
aI400
aa(lp4
S'distance'
p5
aF164.14007186889648
aa(lp6
S'timestamp'
p7
aF5.408212900161743
aatp8
Rp9
.ccollections
OrderedDict
p0
((lp1
(lp2
S'state'
p3
aI400
aa(lp4
S'distance'
p5
aF164.14007186889648
aa(lp6
S'timestamp'
p7
aF5.41917085647583
aatp8
Rp9
.ccollections
OrderedDict
p0
((lp1
(lp2
S'state'
p3
aI400
aa(lp4
S'distance'
p5
aF164.14007186889648
aa(lp6
S'timestamp'
p7
aF5.419595956802368
aatp8
Rp9
.ccollections
OrderedDict
p0
((lp1
(lp2
S'state'
p3
aI400
aa(lp4
S'distance'
p5
aF164.14007186889648
aa(lp6
S'timestamp'
p7
aF5.427227973937988
aatp8
Rp9
.ccollections
OrderedDict
p0
((lp1
(lp2
S'state'
p3
aI400
aa(lp4
S'distance'
p5
aF164.14007186889648
aa(lp6
S'timestamp'
p7
aF5.427968978881836
aatp8
Rp9
.ccollections
OrderedDict
p0
((lp1
(lp2
S'state'
p3
aI400
aa(lp4
S'distance'
p5
aF164.14007186889648
aa(lp6
S'timestamp'
p7
aF5.437495946884155
aatp8
Rp9
.ccollections
OrderedDict
p0
((lp1
(lp2
S'state'
p3
aI400
aa(lp4
S'distance'
p5
aF164.14007186889648
aa(lp6
S'timestamp'
p7
aF5.4382898807525635
aatp8
Rp9
.ccollections
OrderedDict
p0
((lp1
(lp2
S'state'
p3
aI400
aa(lp4
S'distance'
p5
aF164.14007186889648
aa(lp6
S'timestamp'
p7
aF5.458034992218018
aatp8
Rp9
.ccollections
OrderedDict
p0
((lp1
(lp2
S'state'
p3
aI400
aa(lp4
S'distance'
p5
aF164.14007186889648
aa(lp6
S'timestamp'
p7
aF5.458686828613281
aatp8
Rp9
.ccollections
OrderedDict
p0
((lp1
(lp2
S'state'
p3
aI400
aa(lp4
S'distance'
p5
aF164.14007186889648
aa(lp6
S'timestamp'
p7
aF5.45892596244812
aatp8
Rp9
.ccollections
OrderedDict
p0
((lp1
(lp2
S'state'
p3
aI400
aa(lp4
S'distance'
p5
aF164.14007186889648
aa(lp6
S'timestamp'
p7
aF5.459604978561401
aatp8
Rp9
.ccollections
OrderedDict
p0
((lp1
(lp2
S'state'
p3
aI400
aa(lp4
S'distance'
p5
aF164.14007186889648
aa(lp6
S'timestamp'
p7
aF5.467319011688232
aatp8
Rp9
.ccollections
OrderedDict
p0
((lp1
(lp2
S'state'
p3
aI400
aa(lp4
S'distance'
p5
aF164.14007186889648
aa(lp6
S'timestamp'
p7
aF5.467834949493408
aatp8
Rp9
.ccollections
OrderedDict
p0
((lp1
(lp2
S'state'
p3
aI400
aa(lp4
S'distance'
p5
aF164.14007186889648
aa(lp6
S'timestamp'
p7
aF5.487491846084595
aatp8
Rp9
.ccollections
OrderedDict
p0
((lp1
(lp2
S'state'
p3
aI400
aa(lp4
S'distance'
p5
aF164.14007186889648
aa(lp6
S'timestamp'
p7
aF5.4875829219818115
aatp8
Rp9
.ccollections
OrderedDict
p0
((lp1
(lp2
S'state'
p3
aI400
aa(lp4
S'distance'
p5
aF164.14007186889648
aa(lp6
S'timestamp'
p7
aF5.488268852233887
aatp8
Rp9
.ccollections
OrderedDict
p0
((lp1
(lp2
S'state'
p3
aI400
aa(lp4
S'distance'
p5
aF164.14007186889648
aa(lp6
S'timestamp'
p7
aF5.488533973693848
aatp8
Rp9
.ccollections
OrderedDict
p0
((lp1
(lp2
S'state'
p3
aI400
aa(lp4
S'distance'
p5
aF164.14007186889648
aa(lp6
S'timestamp'
p7
aF5.497860908508301
aatp8
Rp9
.ccollections
OrderedDict
p0
((lp1
(lp2
S'state'
p3
aI400
aa(lp4
S'distance'
p5
aF164.14007186889648
aa(lp6
S'timestamp'
p7
aF5.4979469776153564
aatp8
Rp9
.ccollections
OrderedDict
p0
((lp1
(lp2
S'state'
p3
aI400
aa(lp4
S'distance'
p5
aF164.14007186889648
aa(lp6
S'timestamp'
p7
aF5.507267951965332
aatp8
Rp9
.ccollections
OrderedDict
p0
((lp1
(lp2
S'state'
p3
aI400
aa(lp4
S'distance'
p5
aF164.14007186889648
aa(lp6
S'timestamp'
p7
aF5.5077009201049805
aatp8
Rp9
.ccollections
OrderedDict
p0
((lp1
(lp2
S'state'
p3
aI400
aa(lp4
S'distance'
p5
aF164.14007186889648
aa(lp6
S'timestamp'
p7
aF5.527158975601196
aatp8
Rp9
.ccollections
OrderedDict
p0
((lp1
(lp2
S'state'
p3
aI400
aa(lp4
S'distance'
p5
aF164.14007186889648
aa(lp6
S'timestamp'
p7
aF5.527806997299194
aatp8
Rp9
.ccollections
OrderedDict
p0
((lp1
(lp2
S'state'
p3
aI400
aa(lp4
S'distance'
p5
aF164.14007186889648
aa(lp6
S'timestamp'
p7
aF5.527886867523193
aatp8
Rp9
.ccollections
OrderedDict
p0
((lp1
(lp2
S'state'
p3
aI400
aa(lp4
S'distance'
p5
aF164.14007186889648
aa(lp6
S'timestamp'
p7
aF5.5295939445495605
aatp8
Rp9
.ccollections
OrderedDict
p0
((lp1
(lp2
S'state'
p3
aI400
aa(lp4
S'distance'
p5
aF164.14007186889648
aa(lp6
S'timestamp'
p7
aF5.537950038909912
aatp8
Rp9
.ccollections
OrderedDict
p0
((lp1
(lp2
S'state'
p3
aI400
aa(lp4
S'distance'
p5
aF164.14007186889648
aa(lp6
S'timestamp'
p7
aF5.538924932479858
aatp8
Rp9
.ccollections
OrderedDict
p0
((lp1
(lp2
S'state'
p3
aI400
aa(lp4
S'distance'
p5
aF164.14007186889648
aa(lp6
S'timestamp'
p7
aF5.5479819774627686
aatp8
Rp9
.ccollections
OrderedDict
p0
((lp1
(lp2
S'state'
p3
aI400
aa(lp4
S'distance'
p5
aF164.14007186889648
aa(lp6
S'timestamp'
p7
aF5.548065900802612
aatp8
Rp9
.ccollections
OrderedDict
p0
((lp1
(lp2
S'state'
p3
aI400
aa(lp4
S'distance'
p5
aF164.14007186889648
aa(lp6
S'timestamp'
p7
aF5.557988882064819
aatp8
Rp9
.ccollections
OrderedDict
p0
((lp1
(lp2
S'state'
p3
aI400
aa(lp4
S'distance'
p5
aF164.14007186889648
aa(lp6
S'timestamp'
p7
aF5.558069944381714
aatp8
Rp9
.ccollections
OrderedDict
p0
((lp1
(lp2
S'state'
p3
aI400
aa(lp4
S'distance'
p5
aF164.14007186889648
aa(lp6
S'timestamp'
p7
aF5.5680389404296875
aatp8
Rp9
.ccollections
OrderedDict
p0
((lp1
(lp2
S'state'
p3
aI400
aa(lp4
S'distance'
p5
aF164.14007186889648
aa(lp6
S'timestamp'
p7
aF5.568115949630737
aatp8
Rp9
.ccollections
OrderedDict
p0
((lp1
(lp2
S'state'
p3
aI400
aa(lp4
S'distance'
p5
aF164.14007186889648
aa(lp6
S'timestamp'
p7
aF5.577723979949951
aatp8
Rp9
.ccollections
OrderedDict
p0
((lp1
(lp2
S'state'
p3
aI400
aa(lp4
S'distance'
p5
aF164.14007186889648
aa(lp6
S'timestamp'
p7
aF5.57803201675415
aatp8
Rp9
.ccollections
OrderedDict
p0
((lp1
(lp2
S'state'
p3
aI400
aa(lp4
S'distance'
p5
aF164.14007186889648
aa(lp6
S'timestamp'
p7
aF5.607571840286255
aatp8
Rp9
.ccollections
OrderedDict
p0
((lp1
(lp2
S'state'
p3
aI400
aa(lp4
S'distance'
p5
aF164.14007186889648
aa(lp6
S'timestamp'
p7
aF5.60812783241272
aatp8
Rp9
.ccollections
OrderedDict
p0
((lp1
(lp2
S'state'
p3
aI400
aa(lp4
S'distance'
p5
aF164.14007186889648
aa(lp6
S'timestamp'
p7
aF5.608602046966553
aatp8
Rp9
.ccollections
OrderedDict
p0
((lp1
(lp2
S'state'
p3
aI400
aa(lp4
S'distance'
p5
aF164.14007186889648
aa(lp6
S'timestamp'
p7
aF5.609575986862183
aatp8
Rp9
.ccollections
OrderedDict
p0
((lp1
(lp2
S'state'
p3
aI400
aa(lp4
S'distance'
p5
aF164.14007186889648
aa(lp6
S'timestamp'
p7
aF5.617987871170044
aatp8
Rp9
.ccollections
OrderedDict
p0
((lp1
(lp2
S'state'
p3
aI400
aa(lp4
S'distance'
p5
aF164.14007186889648
aa(lp6
S'timestamp'
p7
aF5.618626832962036
aatp8
Rp9
.ccollections
OrderedDict
p0
((lp1
(lp2
S'state'
p3
aI400
aa(lp4
S'distance'
p5
aF164.14007186889648
aa(lp6
S'timestamp'
p7
aF5.618706941604614
aatp8
Rp9
.ccollections
OrderedDict
p0
((lp1
(lp2
S'state'
p3
aI400
aa(lp4
S'distance'
p5
aF164.14007186889648
aa(lp6
S'timestamp'
p7
aF5.61956787109375
aatp8
Rp9
.ccollections
OrderedDict
p0
((lp1
(lp2
S'state'
p3
aI400
aa(lp4
S'distance'
p5
aF164.14007186889648
aa(lp6
S'timestamp'
p7
aF5.627229928970337
aatp8
Rp9
.ccollections
OrderedDict
p0
((lp1
(lp2
S'state'
p3
aI400
aa(lp4
S'distance'
p5
aF164.14007186889648
aa(lp6
S'timestamp'
p7
aF5.62808084487915
aatp8
Rp9
.ccollections
OrderedDict
p0
((lp1
(lp2
S'state'
p3
aI400
aa(lp4
S'distance'
p5
aF164.14007186889648
aa(lp6
S'timestamp'
p7
aF5.637404918670654
aatp8
Rp9
.ccollections
OrderedDict
p0
((lp1
(lp2
S'state'
p3
aI400
aa(lp4
S'distance'
p5
aF164.14007186889648
aa(lp6
S'timestamp'
p7
aF5.63782000541687
aatp8
Rp9
.ccollections
OrderedDict
p0
((lp1
(lp2
S'state'
p3
aI400
aa(lp4
S'distance'
p5
aF164.14007186889648
aa(lp6
S'timestamp'
p7
aF5.6472389698028564
aatp8
Rp9
.ccollections
OrderedDict
p0
((lp1
(lp2
S'state'
p3
aI400
aa(lp4
S'distance'
p5
aF164.14007186889648
aa(lp6
S'timestamp'
p7
aF5.648002862930298
aatp8
Rp9
.ccollections
OrderedDict
p0
((lp1
(lp2
S'state'
p3
aI400
aa(lp4
S'distance'
p5
aF164.14007186889648
aa(lp6
S'timestamp'
p7
aF5.657243967056274
aatp8
Rp9
.ccollections
OrderedDict
p0
((lp1
(lp2
S'state'
p3
aI400
aa(lp4
S'distance'
p5
aF164.14007186889648
aa(lp6
S'timestamp'
p7
aF5.658115863800049
aatp8
Rp9
.ccollections
OrderedDict
p0
((lp1
(lp2
S'state'
p3
aI400
aa(lp4
S'distance'
p5
aF164.14007186889648
aa(lp6
S'timestamp'
p7
aF5.667297840118408
aatp8
Rp9
.ccollections
OrderedDict
p0
((lp1
(lp2
S'state'
p3
aI400
aa(lp4
S'distance'
p5
aF164.14007186889648
aa(lp6
S'timestamp'
p7
aF5.6680169105529785
aatp8
Rp9
.ccollections
OrderedDict
p0
((lp1
(lp2
S'state'
p3
aI400
aa(lp4
S'distance'
p5
aF164.14007186889648
aa(lp6
S'timestamp'
p7
aF5.687438011169434
aatp8
Rp9
.ccollections
OrderedDict
p0
((lp1
(lp2
S'state'
p3
aI400
aa(lp4
S'distance'
p5
aF164.14007186889648
aa(lp6
S'timestamp'
p7
aF5.688020944595337
aatp8
Rp9
.ccollections
OrderedDict
p0
((lp1
(lp2
S'state'
p3
aI400
aa(lp4
S'distance'
p5
aF164.14007186889648
aa(lp6
S'timestamp'
p7
aF5.68850302696228
aatp8
Rp9
.ccollections
OrderedDict
p0
((lp1
(lp2
S'state'
p3
aI400
aa(lp4
S'distance'
p5
aF164.14007186889648
aa(lp6
S'timestamp'
p7
aF5.697260856628418
aatp8
Rp9
.ccollections
OrderedDict
p0
((lp1
(lp2
S'state'
p3
aI400
aa(lp4
S'distance'
p5
aF164.14007186889648
aa(lp6
S'timestamp'
p7
aF5.6978678703308105
aatp8
Rp9
.ccollections
OrderedDict
p0
((lp1
(lp2
S'state'
p3
aI400
aa(lp4
S'distance'
p5
aF164.14007186889648
aa(lp6
S'timestamp'
p7
aF5.699528932571411
aatp8
Rp9
.ccollections
OrderedDict
p0
((lp1
(lp2
S'state'
p3
aI400
aa(lp4
S'distance'
p5
aF164.14007186889648
aa(lp6
S'timestamp'
p7
aF5.707687854766846
aatp8
Rp9
.ccollections
OrderedDict
p0
((lp1
(lp2
S'state'
p3
aI400
aa(lp4
S'distance'
p5
aF164.14007186889648
aa(lp6
S'timestamp'
p7
aF5.708132028579712
aatp8
Rp9
.ccollections
OrderedDict
p0
((lp1
(lp2
S'state'
p3
aI400
aa(lp4
S'distance'
p5
aF164.14007186889648
aa(lp6
S'timestamp'
p7
aF5.717872858047485
aatp8
Rp9
.ccollections
OrderedDict
p0
((lp1
(lp2
S'state'
p3
aI400
aa(lp4
S'distance'
p5
aF164.14007186889648
aa(lp6
S'timestamp'
p7
aF5.717960834503174
aatp8
Rp9
.ccollections
OrderedDict
p0
((lp1
(lp2
S'state'
p3
aI400
aa(lp4
S'distance'
p5
aF164.14007186889648
aa(lp6
S'timestamp'
p7
aF5.727196931838989
aatp8
Rp9
.ccollections
OrderedDict
p0
((lp1
(lp2
S'state'
p3
aI400
aa(lp4
S'distance'
p5
aF164.14007186889648
aa(lp6
S'timestamp'
p7
aF5.72782301902771
aatp8
Rp9
.ccollections
OrderedDict
p0
((lp1
(lp2
S'state'
p3
aI400
aa(lp4
S'distance'
p5
aF164.14007186889648
aa(lp6
S'timestamp'
p7
aF5.737797975540161
aatp8
Rp9
.ccollections
OrderedDict
p0
((lp1
(lp2
S'state'
p3
aI400
aa(lp4
S'distance'
p5
aF164.14007186889648
aa(lp6
S'timestamp'
p7
aF5.737984895706177
aatp8
Rp9
.ccollections
OrderedDict
p0
((lp1
(lp2
S'state'
p3
aI400
aa(lp4
S'distance'
p5
aF164.14007186889648
aa(lp6
S'timestamp'
p7
aF5.7472920417785645
aatp8
Rp9
.ccollections
OrderedDict
p0
((lp1
(lp2
S'state'
p3
aI400
aa(lp4
S'distance'
p5
aF164.14007186889648
aa(lp6
S'timestamp'
p7
aF5.748034954071045
aatp8
Rp9
.ccollections
OrderedDict
p0
((lp1
(lp2
S'state'
p3
aI400
aa(lp4
S'distance'
p5
aF164.14007186889648
aa(lp6
S'timestamp'
p7
aF5.757372856140137
aatp8
Rp9
.ccollections
OrderedDict
p0
((lp1
(lp2
S'state'
p3
aI0
aa(lp4
S'distance'
p5
aF164.14007186889648
aa(lp6
S'timestamp'
p7
aF5.758112907409668
aatp8
Rp9
.ccollections
OrderedDict
p0
((lp1
(lp2
S'state'
p3
aI0
aa(lp4
S'distance'
p5
aF67.2188663482666
aa(lp6
S'timestamp'
p7
aF6.318289041519165
aatp8
Rp9
.ccollections
OrderedDict
p0
((lp1
(lp2
S'state'
p3
aI0
aa(lp4
S'distance'
p5
aF67.2188663482666
aa(lp6
S'timestamp'
p7
aF6.327438831329346
aatp8
Rp9
.ccollections
OrderedDict
p0
((lp1
(lp2
S'state'
p3
aI0
aa(lp4
S'distance'
p5
aF67.2188663482666
aa(lp6
S'timestamp'
p7
aF6.3283820152282715
aatp8
Rp9
.ccollections
OrderedDict
p0
((lp1
(lp2
S'state'
p3
aI0
aa(lp4
S'distance'
p5
aF67.2188663482666
aa(lp6
S'timestamp'
p7
aF6.337509870529175
aatp8
Rp9
.ccollections
OrderedDict
p0
((lp1
(lp2
S'state'
p3
aI0
aa(lp4
S'distance'
p5
aF67.2188663482666
aa(lp6
S'timestamp'
p7
aF6.347398996353149
aatp8
Rp9
.ccollections
OrderedDict
p0
((lp1
(lp2
S'state'
p3
aI0
aa(lp4
S'distance'
p5
aF67.2188663482666
aa(lp6
S'timestamp'
p7
aF6.347653865814209
aatp8
Rp9
.ccollections
OrderedDict
p0
((lp1
(lp2
S'state'
p3
aI0
aa(lp4
S'distance'
p5
aF67.2188663482666
aa(lp6
S'timestamp'
p7
aF6.348825931549072
aatp8
Rp9
.ccollections
OrderedDict
p0
((lp1
(lp2
S'state'
p3
aI0
aa(lp4
S'distance'
p5
aF67.2188663482666
aa(lp6
S'timestamp'
p7
aF6.357302904129028
aatp8
Rp9
.ccollections
OrderedDict
p0
((lp1
(lp2
S'state'
p3
aI0
aa(lp4
S'distance'
p5
aF67.2188663482666
aa(lp6
S'timestamp'
p7
aF6.360512971878052
aatp8
Rp9
.ccollections
OrderedDict
p0
((lp1
(lp2
S'state'
p3
aI0
aa(lp4
S'distance'
p5
aF67.2188663482666
aa(lp6
S'timestamp'
p7
aF6.367424964904785
aatp8
Rp9
.ccollections
OrderedDict
p0
((lp1
(lp2
S'state'
p3
aI0
aa(lp4
S'distance'
p5
aF67.2188663482666
aa(lp6
S'timestamp'
p7
aF6.368067026138306
aatp8
Rp9
.ccollections
OrderedDict
p0
((lp1
(lp2
S'state'
p3
aI0
aa(lp4
S'distance'
p5
aF67.2188663482666
aa(lp6
S'timestamp'
p7
aF6.378269910812378
aatp8
Rp9
.ccollections
OrderedDict
p0
((lp1
(lp2
S'state'
p3
aI0
aa(lp4
S'distance'
p5
aF67.2188663482666
aa(lp6
S'timestamp'
p7
aF6.378402948379517
aatp8
Rp9
.ccollections
OrderedDict
p0
((lp1
(lp2
S'state'
p3
aI0
aa(lp4
S'distance'
p5
aF67.2188663482666
aa(lp6
S'timestamp'
p7
aF6.387297868728638
aatp8
Rp9
.ccollections
OrderedDict
p0
((lp1
(lp2
S'state'
p3
aI0
aa(lp4
S'distance'
p5
aF67.2188663482666
aa(lp6
S'timestamp'
p7
aF6.387943983078003
aatp8
Rp9
.ccollections
OrderedDict
p0
((lp1
(lp2
S'state'
p3
aI0
aa(lp4
S'distance'
p5
aF67.2188663482666
aa(lp6
S'timestamp'
p7
aF6.397380828857422
aatp8
Rp9
.ccollections
OrderedDict
p0
((lp1
(lp2
S'state'
p3
aI0
aa(lp4
S'distance'
p5
aF67.2188663482666
aa(lp6
S'timestamp'
p7
aF6.39829683303833
aatp8
Rp9
.ccollections
OrderedDict
p0
((lp1
(lp2
S'state'
p3
aI0
aa(lp4
S'distance'
p5
aF67.2188663482666
aa(lp6
S'timestamp'
p7
aF6.407307863235474
aatp8
Rp9
.ccollections
OrderedDict
p0
((lp1
(lp2
S'state'
p3
aI0
aa(lp4
S'distance'
p5
aF67.2188663482666
aa(lp6
S'timestamp'
p7
aF6.417379856109619
aatp8
Rp9
.ccollections
OrderedDict
p0
((lp1
(lp2
S'state'
p3
aI0
aa(lp4
S'distance'
p5
aF67.2188663482666
aa(lp6
S'timestamp'
p7
aF6.417804002761841
aatp8
Rp9
.ccollections
OrderedDict
p0
((lp1
(lp2
S'state'
p3
aI0
aa(lp4
S'distance'
p5
aF67.2188663482666
aa(lp6
S'timestamp'
p7
aF6.419188022613525
aatp8
Rp9
.ccollections
OrderedDict
p0
((lp1
(lp2
S'state'
p3
aI0
aa(lp4
S'distance'
p5
aF67.2188663482666
aa(lp6
S'timestamp'
p7
aF6.4274609088897705
aatp8
Rp9
.ccollections
OrderedDict
p0
((lp1
(lp2
S'state'
p3
aI0
aa(lp4
S'distance'
p5
aF67.2188663482666
aa(lp6
S'timestamp'
p7
aF6.428170919418335
aatp8
Rp9
.ccollections
OrderedDict
p0
((lp1
(lp2
S'state'
p3
aI0
aa(lp4
S'distance'
p5
aF67.2188663482666
aa(lp6
S'timestamp'
p7
aF6.437378883361816
aatp8
Rp9
.ccollections
OrderedDict
p0
((lp1
(lp2
S'state'
p3
aI0
aa(lp4
S'distance'
p5
aF67.2188663482666
aa(lp6
S'timestamp'
p7
aF6.438143968582153
aatp8
Rp9
.ccollections
OrderedDict
p0
((lp1
(lp2
S'state'
p3
aI0
aa(lp4
S'distance'
p5
aF67.2188663482666
aa(lp6
S'timestamp'
p7
aF6.447283983230591
aatp8
Rp9
.ccollections
OrderedDict
p0
((lp1
(lp2
S'state'
p3
aI0
aa(lp4
S'distance'
p5
aF67.2188663482666
aa(lp6
S'timestamp'
p7
aF6.448309898376465
aatp8
Rp9
.ccollections
OrderedDict
p0
((lp1
(lp2
S'state'
p3
aI0
aa(lp4
S'distance'
p5
aF67.2188663482666
aa(lp6
S'timestamp'
p7
aF6.457427978515625
aatp8
Rp9
.ccollections
OrderedDict
p0
((lp1
(lp2
S'state'
p3
aI0
aa(lp4
S'distance'
p5
aF67.2188663482666
aa(lp6
S'timestamp'
p7
aF6.458393812179565
aatp8
Rp9
.ccollections
OrderedDict
p0
((lp1
(lp2
S'state'
p3
aI0
aa(lp4
S'distance'
p5
aF67.2188663482666
aa(lp6
S'timestamp'
p7
aF6.4674389362335205
aatp8
Rp9
.ccollections
OrderedDict
p0
((lp1
(lp2
S'state'
p3
aI0
aa(lp4
S'distance'
p5
aF67.2188663482666
aa(lp6
S'timestamp'
p7
aF6.4683308601379395
aatp8
Rp9
.ccollections
OrderedDict
p0
((lp1
(lp2
S'state'
p3
aI0
aa(lp4
S'distance'
p5
aF67.2188663482666
aa(lp6
S'timestamp'
p7
aF6.477407932281494
aatp8
Rp9
.ccollections
OrderedDict
p0
((lp1
(lp2
S'state'
p3
aI0
aa(lp4
S'distance'
p5
aF67.2188663482666
aa(lp6
S'timestamp'
p7
aF6.477900981903076
aatp8
Rp9
.ccollections
OrderedDict
p0
((lp1
(lp2
S'state'
p3
aI0
aa(lp4
S'distance'
p5
aF67.2188663482666
aa(lp6
S'timestamp'
p7
aF6.4873199462890625
aatp8
Rp9
.ccollections
OrderedDict
p0
((lp1
(lp2
S'state'
p3
aI0
aa(lp4
S'distance'
p5
aF67.2188663482666
aa(lp6
S'timestamp'
p7
aF6.488185882568359
aatp8
Rp9
.ccollections
OrderedDict
p0
((lp1
(lp2
S'state'
p3
aI0
aa(lp4
S'distance'
p5
aF67.2188663482666
aa(lp6
S'timestamp'
p7
aF6.4974589347839355
aatp8
Rp9
.ccollections
OrderedDict
p0
((lp1
(lp2
S'state'
p3
aI0
aa(lp4
S'distance'
p5
aF67.2188663482666
aa(lp6
S'timestamp'
p7
aF6.4979119300842285
aatp8
Rp9
.ccollections
OrderedDict
p0
((lp1
(lp2
S'state'
p3
aI0
aa(lp4
S'distance'
p5
aF67.2188663482666
aa(lp6
S'timestamp'
p7
aF6.508002996444702
aatp8
Rp9
.ccollections
OrderedDict
p0
((lp1
(lp2
S'state'
p3
aI0
aa(lp4
S'distance'
p5
aF67.2188663482666
aa(lp6
S'timestamp'
p7
aF6.509187936782837
aatp8
Rp9
.ccollections
OrderedDict
p0
((lp1
(lp2
S'state'
p3
aI0
aa(lp4
S'distance'
p5
aF67.2188663482666
aa(lp6
S'timestamp'
p7
aF6.517349004745483
aatp8
Rp9
.ccollections
OrderedDict
p0
((lp1
(lp2
S'state'
p3
aI0
aa(lp4
S'distance'
p5
aF67.2188663482666
aa(lp6
S'timestamp'
p7
aF6.518100023269653
aatp8
Rp9
.ccollections
OrderedDict
p0
((lp1
(lp2
S'state'
p3
aI0
aa(lp4
S'distance'
p5
aF67.2188663482666
aa(lp6
S'timestamp'
p7
aF6.527379035949707
aatp8
Rp9
.ccollections
OrderedDict
p0
((lp1
(lp2
S'state'
p3
aI0
aa(lp4
S'distance'
p5
aF67.2188663482666
aa(lp6
S'timestamp'
p7
aF6.527549982070923
aatp8
Rp9
.ccollections
OrderedDict
p0
((lp1
(lp2
S'state'
p3
aI0
aa(lp4
S'distance'
p5
aF67.2188663482666
aa(lp6
S'timestamp'
p7
aF6.538163900375366
aatp8
Rp9
.ccollections
OrderedDict
p0
((lp1
(lp2
S'state'
p3
aI0
aa(lp4
S'distance'
p5
aF67.2188663482666
aa(lp6
S'timestamp'
p7
aF6.538900852203369
aatp8
Rp9
.ccollections
OrderedDict
p0
((lp1
(lp2
S'state'
p3
aI0
aa(lp4
S'distance'
p5
aF67.2188663482666
aa(lp6
S'timestamp'
p7
aF6.547538995742798
aatp8
Rp9
.ccollections
OrderedDict
p0
((lp1
(lp2
S'state'
p3
aI0
aa(lp4
S'distance'
p5
aF67.2188663482666
aa(lp6
S'timestamp'
p7
aF6.5478010177612305
aatp8
Rp9
.ccollections
OrderedDict
p0
((lp1
(lp2
S'state'
p3
aI0
aa(lp4
S'distance'
p5
aF67.2188663482666
aa(lp6
S'timestamp'
p7
aF6.557413816452026
aatp8
Rp9
.ccollections
OrderedDict
p0
((lp1
(lp2
S'state'
p3
aI0
aa(lp4
S'distance'
p5
aF67.2188663482666
aa(lp6
S'timestamp'
p7
aF6.558389902114868
aatp8
Rp9
.ccollections
OrderedDict
p0
((lp1
(lp2
S'state'
p3
aI0
aa(lp4
S'distance'
p5
aF67.2188663482666
aa(lp6
S'timestamp'
p7
aF6.567328929901123
aatp8
Rp9
.ccollections
OrderedDict
p0
((lp1
(lp2
S'state'
p3
aI0
aa(lp4
S'distance'
p5
aF67.2188663482666
aa(lp6
S'timestamp'
p7
aF6.567735910415649
aatp8
Rp9
.ccollections
OrderedDict
p0
((lp1
(lp2
S'state'
p3
aI0
aa(lp4
S'distance'
p5
aF67.2188663482666
aa(lp6
S'timestamp'
p7
aF6.577808856964111
aatp8
Rp9
.ccollections
OrderedDict
p0
((lp1
(lp2
S'state'
p3
aI0
aa(lp4
S'distance'
p5
aF67.2188663482666
aa(lp6
S'timestamp'
p7
aF6.5793750286102295
aatp8
Rp9
.ccollections
OrderedDict
p0
((lp1
(lp2
S'state'
p3
aI0
aa(lp4
S'distance'
p5
aF67.2188663482666
aa(lp6
S'timestamp'
p7
aF6.5878119468688965
aatp8
Rp9
.ccollections
OrderedDict
p0
((lp1
(lp2
S'state'
p3
aI0
aa(lp4
S'distance'
p5
aF67.2188663482666
aa(lp6
S'timestamp'
p7
aF6.587947845458984
aatp8
Rp9
.ccollections
OrderedDict
p0
((lp1
(lp2
S'state'
p3
aI0
aa(lp4
S'distance'
p5
aF67.2188663482666
aa(lp6
S'timestamp'
p7
aF6.59809684753418
aatp8
Rp9
.ccollections
OrderedDict
p0
((lp1
(lp2
S'state'
p3
aI0
aa(lp4
S'distance'
p5
aF67.2188663482666
aa(lp6
S'timestamp'
p7
aF6.598215818405151
aatp8
Rp9
.ccollections
OrderedDict
p0
((lp1
(lp2
S'state'
p3
aI0
aa(lp4
S'distance'
p5
aF67.2188663482666
aa(lp6
S'timestamp'
p7
aF6.6074378490448
aatp8
Rp9
.ccollections
OrderedDict
p0
((lp1
(lp2
S'state'
p3
aI0
aa(lp4
S'distance'
p5
aF67.2188663482666
aa(lp6
S'timestamp'
p7
aF6.607585906982422
aatp8
Rp9
.ccollections
OrderedDict
p0
((lp1
(lp2
S'state'
p3
aI0
aa(lp4
S'distance'
p5
aF67.2188663482666
aa(lp6
S'timestamp'
p7
aF6.618513822555542
aatp8
Rp9
.ccollections
OrderedDict
p0
((lp1
(lp2
S'state'
p3
aI0
aa(lp4
S'distance'
p5
aF67.2188663482666
aa(lp6
S'timestamp'
p7
aF6.61886191368103
aatp8
Rp9
.ccollections
OrderedDict
p0
((lp1
(lp2
S'state'
p3
aI0
aa(lp4
S'distance'
p5
aF67.2188663482666
aa(lp6
S'timestamp'
p7
aF6.628748893737793
aatp8
Rp9
.ccollections
OrderedDict
p0
((lp1
(lp2
S'state'
p3
aI0
aa(lp4
S'distance'
p5
aF67.2188663482666
aa(lp6
S'timestamp'
p7
aF6.628928899765015
aatp8
Rp9
.ccollections
OrderedDict
p0
((lp1
(lp2
S'state'
p3
aI0
aa(lp4
S'distance'
p5
aF67.2188663482666
aa(lp6
S'timestamp'
p7
aF6.637236833572388
aatp8
Rp9
.ccollections
OrderedDict
p0
((lp1
(lp2
S'state'
p3
aI0
aa(lp4
S'distance'
p5
aF67.2188663482666
aa(lp6
S'timestamp'
p7
aF6.638092994689941
aatp8
Rp9
.ccollections
OrderedDict
p0
((lp1
(lp2
S'state'
p3
aI0
aa(lp4
S'distance'
p5
aF67.2188663482666
aa(lp6
S'timestamp'
p7
aF6.647459030151367
aatp8
Rp9
.ccollections
OrderedDict
p0
((lp1
(lp2
S'state'
p3
aI0
aa(lp4
S'distance'
p5
aF67.2188663482666
aa(lp6
S'timestamp'
p7
aF6.6475958824157715
aatp8
Rp9
.ccollections
OrderedDict
p0
((lp1
(lp2
S'state'
p3
aI0
aa(lp4
S'distance'
p5
aF67.2188663482666
aa(lp6
S'timestamp'
p7
aF6.658231973648071
aatp8
Rp9
.ccollections
OrderedDict
p0
((lp1
(lp2
S'state'
p3
aI0
aa(lp4
S'distance'
p5
aF67.2188663482666
aa(lp6
S'timestamp'
p7
aF6.659528017044067
aatp8
Rp9
.ccollections
OrderedDict
p0
((lp1
(lp2
S'state'
p3
aI0
aa(lp4
S'distance'
p5
aF67.2188663482666
aa(lp6
S'timestamp'
p7
aF6.667426824569702
aatp8
Rp9
.ccollections
OrderedDict
p0
((lp1
(lp2
S'state'
p3
aI0
aa(lp4
S'distance'
p5
aF67.2188663482666
aa(lp6
S'timestamp'
p7
aF6.66767692565918
aatp8
Rp9
.ccollections
OrderedDict
p0
((lp1
(lp2
S'state'
p3
aI0
aa(lp4
S'distance'
p5
aF67.2188663482666
aa(lp6
S'timestamp'
p7
aF6.6781628131866455
aatp8
Rp9
.ccollections
OrderedDict
p0
((lp1
(lp2
S'state'
p3
aI0
aa(lp4
S'distance'
p5
aF67.2188663482666
aa(lp6
S'timestamp'
p7
aF6.678236961364746
aatp8
Rp9
.ccollections
OrderedDict
p0
((lp1
(lp2
S'state'
p3
aI0
aa(lp4
S'distance'
p5
aF67.2188663482666
aa(lp6
S'timestamp'
p7
aF6.687242031097412
aatp8
Rp9
.ccollections
OrderedDict
p0
((lp1
(lp2
S'state'
p3
aI0
aa(lp4
S'distance'
p5
aF67.2188663482666
aa(lp6
S'timestamp'
p7
aF6.688910961151123
aatp8
Rp9
.ccollections
OrderedDict
p0
((lp1
(lp2
S'state'
p3
aI0
aa(lp4
S'distance'
p5
aF67.2188663482666
aa(lp6
S'timestamp'
p7
aF6.70731782913208
aatp8
Rp9
.ccollections
OrderedDict
p0
((lp1
(lp2
S'state'
p3
aI0
aa(lp4
S'distance'
p5
aF67.2188663482666
aa(lp6
S'timestamp'
p7
aF6.7074079513549805
aatp8
Rp9
.ccollections
OrderedDict
p0
((lp1
(lp2
S'state'
p3
aI0
aa(lp4
S'distance'
p5
aF67.2188663482666
aa(lp6
S'timestamp'
p7
aF6.70845890045166
aatp8
Rp9
.ccollections
OrderedDict
p0
((lp1
(lp2
S'state'
p3
aI0
aa(lp4
S'distance'
p5
aF67.2188663482666
aa(lp6
S'timestamp'
p7
aF6.708902835845947
aatp8
Rp9
.ccollections
OrderedDict
p0
((lp1
(lp2
S'state'
p3
aI0
aa(lp4
S'distance'
p5
aF67.2188663482666
aa(lp6
S'timestamp'
p7
aF6.717401027679443
aatp8
Rp9
.ccollections
OrderedDict
p0
((lp1
(lp2
S'state'
p3
aI0
aa(lp4
S'distance'
p5
aF67.2188663482666
aa(lp6
S'timestamp'
p7
aF6.7186198234558105
aatp8
Rp9
.ccollections
OrderedDict
p0
((lp1
(lp2
S'state'
p3
aI0
aa(lp4
S'distance'
p5
aF67.2188663482666
aa(lp6
S'timestamp'
p7
aF6.727357864379883
aatp8
Rp9
.ccollections
OrderedDict
p0
((lp1
(lp2
S'state'
p3
aI0
aa(lp4
S'distance'
p5
aF67.2188663482666
aa(lp6
S'timestamp'
p7
aF6.728121042251587
aatp8
Rp9
.ccollections
OrderedDict
p0
((lp1
(lp2
S'state'
p3
aI0
aa(lp4
S'distance'
p5
aF67.2188663482666
aa(lp6
S'timestamp'
p7
aF6.737869024276733
aatp8
Rp9
.ccollections
OrderedDict
p0
((lp1
(lp2
S'state'
p3
aI0
aa(lp4
S'distance'
p5
aF67.2188663482666
aa(lp6
S'timestamp'
p7
aF6.738447904586792
aatp8
Rp9
.ccollections
OrderedDict
p0
((lp1
(lp2
S'state'
p3
aI0
aa(lp4
S'distance'
p5
aF67.2188663482666
aa(lp6
S'timestamp'
p7
aF6.757275819778442
aatp8
Rp9
.ccollections
OrderedDict
p0
((lp1
(lp2
S'state'
p3
aI0
aa(lp4
S'distance'
p5
aF67.2188663482666
aa(lp6
S'timestamp'
p7
aF6.757719039916992
aatp8
Rp9
.ccollections
OrderedDict
p0
((lp1
(lp2
S'state'
p3
aI0
aa(lp4
S'distance'
p5
aF67.2188663482666
aa(lp6
S'timestamp'
p7
aF6.759068012237549
aatp8
Rp9
.ccollections
OrderedDict
p0
((lp1
(lp2
S'state'
p3
aI0
aa(lp4
S'distance'
p5
aF67.2188663482666
aa(lp6
S'timestamp'
p7
aF6.759765863418579
aatp8
Rp9
.ccollections
OrderedDict
p0
((lp1
(lp2
S'state'
p3
aI0
aa(lp4
S'distance'
p5
aF67.2188663482666
aa(lp6
S'timestamp'
p7
aF6.767496824264526
aatp8
Rp9
.ccollections
OrderedDict
p0
((lp1
(lp2
S'state'
p3
aI0
aa(lp4
S'distance'
p5
aF67.2188663482666
aa(lp6
S'timestamp'
p7
aF6.767700910568237
aatp8
Rp9
.ccollections
OrderedDict
p0
((lp1
(lp2
S'state'
p3
aI0
aa(lp4
S'distance'
p5
aF67.2188663482666
aa(lp6
S'timestamp'
p7
aF6.777281999588013
aatp8
Rp9
.ccollections
OrderedDict
p0
((lp1
(lp2
S'state'
p3
aI0
aa(lp4
S'distance'
p5
aF67.2188663482666
aa(lp6
S'timestamp'
p7
aF6.778719902038574
aatp8
Rp9
.ccollections
OrderedDict
p0
((lp1
(lp2
S'state'
p3
aI0
aa(lp4
S'distance'
p5
aF67.2188663482666
aa(lp6
S'timestamp'
p7
aF6.787739038467407
aatp8
Rp9
.ccollections
OrderedDict
p0
((lp1
(lp2
S'state'
p3
aI0
aa(lp4
S'distance'
p5
aF67.2188663482666
aa(lp6
S'timestamp'
p7
aF6.788029909133911
aatp8
Rp9
.ccollections
OrderedDict
p0
((lp1
(lp2
S'state'
p3
aI0
aa(lp4
S'distance'
p5
aF67.2188663482666
aa(lp6
S'timestamp'
p7
aF6.797379016876221
aatp8
Rp9
.ccollections
OrderedDict
p0
((lp1
(lp2
S'state'
p3
aI0
aa(lp4
S'distance'
p5
aF67.2188663482666
aa(lp6
S'timestamp'
p7
aF6.7981789112091064
aatp8
Rp9
.ccollections
OrderedDict
p0
((lp1
(lp2
S'state'
p3
aI0
aa(lp4
S'distance'
p5
aF67.2188663482666
aa(lp6
S'timestamp'
p7
aF6.807143926620483
aatp8
Rp9
.ccollections
OrderedDict
p0
((lp1
(lp2
S'state'
p3
aI0
aa(lp4
S'distance'
p5
aF67.2188663482666
aa(lp6
S'timestamp'
p7
aF6.807649850845337
aatp8
Rp9
.ccollections
OrderedDict
p0
((lp1
(lp2
S'state'
p3
aI0
aa(lp4
S'distance'
p5
aF67.2188663482666
aa(lp6
S'timestamp'
p7
aF6.817569017410278
aatp8
Rp9
.ccollections
OrderedDict
p0
((lp1
(lp2
S'state'
p3
aI0
aa(lp4
S'distance'
p5
aF67.2188663482666
aa(lp6
S'timestamp'
p7
aF6.8177008628845215
aatp8
Rp9
.ccollections
OrderedDict
p0
((lp1
(lp2
S'state'
p3
aI0
aa(lp4
S'distance'
p5
aF67.2188663482666
aa(lp6
S'timestamp'
p7
aF6.827384948730469
aatp8
Rp9
.ccollections
OrderedDict
p0
((lp1
(lp2
S'state'
p3
aI0
aa(lp4
S'distance'
p5
aF67.2188663482666
aa(lp6
S'timestamp'
p7
aF6.828277826309204
aatp8
Rp9
.ccollections
OrderedDict
p0
((lp1
(lp2
S'state'
p3
aI0
aa(lp4
S'distance'
p5
aF67.2188663482666
aa(lp6
S'timestamp'
p7
aF6.837381839752197
aatp8
Rp9
.ccollections
OrderedDict
p0
((lp1
(lp2
S'state'
p3
aI0
aa(lp4
S'distance'
p5
aF67.2188663482666
aa(lp6
S'timestamp'
p7
aF6.837774991989136
aatp8
Rp9
.ccollections
OrderedDict
p0
((lp1
(lp2
S'state'
p3
aI0
aa(lp4
S'distance'
p5
aF67.2188663482666
aa(lp6
S'timestamp'
p7
aF6.847775936126709
aatp8
Rp9
.ccollections
OrderedDict
p0
((lp1
(lp2
S'state'
p3
aI0
aa(lp4
S'distance'
p5
aF67.2188663482666
aa(lp6
S'timestamp'
p7
aF6.848664045333862
aatp8
Rp9
.ccollections
OrderedDict
p0
((lp1
(lp2
S'state'
p3
aI0
aa(lp4
S'distance'
p5
aF67.2188663482666
aa(lp6
S'timestamp'
p7
aF6.857249021530151
aatp8
Rp9
.ccollections
OrderedDict
p0
((lp1
(lp2
S'state'
p3
aI0
aa(lp4
S'distance'
p5
aF67.2188663482666
aa(lp6
S'timestamp'
p7
aF6.858316898345947
aatp8
Rp9
.ccollections
OrderedDict
p0
((lp1
(lp2
S'state'
p3
aI0
aa(lp4
S'distance'
p5
aF67.2188663482666
aa(lp6
S'timestamp'
p7
aF6.8673999309539795
aatp8
Rp9
.ccollections
OrderedDict
p0
((lp1
(lp2
S'state'
p3
aI0
aa(lp4
S'distance'
p5
aF67.2188663482666
aa(lp6
S'timestamp'
p7
aF6.867872953414917
aatp8
Rp9
.ccollections
OrderedDict
p0
((lp1
(lp2
S'state'
p3
aI0
aa(lp4
S'distance'
p5
aF67.2188663482666
aa(lp6
S'timestamp'
p7
aF6.877550840377808
aatp8
Rp9
.ccollections
OrderedDict
p0
((lp1
(lp2
S'state'
p3
aI0
aa(lp4
S'distance'
p5
aF67.2188663482666
aa(lp6
S'timestamp'
p7
aF6.877671003341675
aatp8
Rp9
.ccollections
OrderedDict
p0
((lp1
(lp2
S'state'
p3
aI0
aa(lp4
S'distance'
p5
aF67.2188663482666
aa(lp6
S'timestamp'
p7
aF6.8879289627075195
aatp8
Rp9
.ccollections
OrderedDict
p0
((lp1
(lp2
S'state'
p3
aI0
aa(lp4
S'distance'
p5
aF67.2188663482666
aa(lp6
S'timestamp'
p7
aF6.888005018234253
aatp8
Rp9
.ccollections
OrderedDict
p0
((lp1
(lp2
S'state'
p3
aI0
aa(lp4
S'distance'
p5
aF67.2188663482666
aa(lp6
S'timestamp'
p7
aF6.8975160121917725
aatp8
Rp9
.ccollections
OrderedDict
p0
((lp1
(lp2
S'state'
p3
aI0
aa(lp4
S'distance'
p5
aF67.2188663482666
aa(lp6
S'timestamp'
p7
aF6.898476839065552
aatp8
Rp9
.ccollections
OrderedDict
p0
((lp1
(lp2
S'state'
p3
aI0
aa(lp4
S'distance'
p5
aF67.2188663482666
aa(lp6
S'timestamp'
p7
aF6.907618999481201
aatp8
Rp9
.ccollections
OrderedDict
p0
((lp1
(lp2
S'state'
p3
aI0
aa(lp4
S'distance'
p5
aF67.2188663482666
aa(lp6
S'timestamp'
p7
aF6.908447027206421
aatp8
Rp9
.ccollections
OrderedDict
p0
((lp1
(lp2
S'state'
p3
aI0
aa(lp4
S'distance'
p5
aF67.2188663482666
aa(lp6
S'timestamp'
p7
aF6.918148994445801
aatp8
Rp9
.ccollections
OrderedDict
p0
((lp1
(lp2
S'state'
p3
aI0
aa(lp4
S'distance'
p5
aF67.2188663482666
aa(lp6
S'timestamp'
p7
aF6.918251037597656
aatp8
Rp9
.ccollections
OrderedDict
p0
((lp1
(lp2
S'state'
p3
aI0
aa(lp4
S'distance'
p5
aF67.2188663482666
aa(lp6
S'timestamp'
p7
aF6.92782187461853
aatp8
Rp9
.ccollections
OrderedDict
p0
((lp1
(lp2
S'state'
p3
aI0
aa(lp4
S'distance'
p5
aF67.2188663482666
aa(lp6
S'timestamp'
p7
aF6.927896022796631
aatp8
Rp9
.ccollections
OrderedDict
p0
((lp1
(lp2
S'state'
p3
aI0
aa(lp4
S'distance'
p5
aF67.2188663482666
aa(lp6
S'timestamp'
p7
aF6.938277959823608
aatp8
Rp9
.ccollections
OrderedDict
p0
((lp1
(lp2
S'state'
p3
aI0
aa(lp4
S'distance'
p5
aF67.2188663482666
aa(lp6
S'timestamp'
p7
aF6.938535928726196
aatp8
Rp9
.ccollections
OrderedDict
p0
((lp1
(lp2
S'state'
p3
aI0
aa(lp4
S'distance'
p5
aF67.2188663482666
aa(lp6
S'timestamp'
p7
aF6.948035955429077
aatp8
Rp9
.ccollections
OrderedDict
p0
((lp1
(lp2
S'state'
p3
aI0
aa(lp4
S'distance'
p5
aF67.2188663482666
aa(lp6
S'timestamp'
p7
aF6.948237895965576
aatp8
Rp9
.ccollections
OrderedDict
p0
((lp1
(lp2
S'state'
p3
aI0
aa(lp4
S'distance'
p5
aF67.2188663482666
aa(lp6
S'timestamp'
p7
aF6.957795858383179
aatp8
Rp9
.ccollections
OrderedDict
p0
((lp1
(lp2
S'state'
p3
aI0
aa(lp4
S'distance'
p5
aF67.2188663482666
aa(lp6
S'timestamp'
p7
aF6.95787787437439
aatp8
Rp9
.ccollections
OrderedDict
p0
((lp1
(lp2
S'state'
p3
aI0
aa(lp4
S'distance'
p5
aF67.2188663482666
aa(lp6
S'timestamp'
p7
aF6.967088937759399
aatp8
Rp9
.ccollections
OrderedDict
p0
((lp1
(lp2
S'state'
p3
aI0
aa(lp4
S'distance'
p5
aF67.2188663482666
aa(lp6
S'timestamp'
p7
aF6.967527866363525
aatp8
Rp9
.ccollections
OrderedDict
p0
((lp1
(lp2
S'state'
p3
aI0
aa(lp4
S'distance'
p5
aF67.2188663482666
aa(lp6
S'timestamp'
p7
aF6.977319955825806
aatp8
Rp9
.ccollections
OrderedDict
p0
((lp1
(lp2
S'state'
p3
aI0
aa(lp4
S'distance'
p5
aF67.2188663482666
aa(lp6
S'timestamp'
p7
aF6.977612018585205
aatp8
Rp9
.ccollections
OrderedDict
p0
((lp1
(lp2
S'state'
p3
aI0
aa(lp4
S'distance'
p5
aF67.2188663482666
aa(lp6
S'timestamp'
p7
aF6.987220048904419
aatp8
Rp9
.ccollections
OrderedDict
p0
((lp1
(lp2
S'state'
p3
aI0
aa(lp4
S'distance'
p5
aF67.2188663482666
aa(lp6
S'timestamp'
p7
aF6.9874958992004395
aatp8
Rp9
.ccollections
OrderedDict
p0
((lp1
(lp2
S'state'
p3
aI0
aa(lp4
S'distance'
p5
aF67.2188663482666
aa(lp6
S'timestamp'
p7
aF6.997395038604736
aatp8
Rp9
.ccollections
OrderedDict
p0
((lp1
(lp2
S'state'
p3
aI0
aa(lp4
S'distance'
p5
aF67.2188663482666
aa(lp6
S'timestamp'
p7
aF6.9975128173828125
aatp8
Rp9
.ccollections
OrderedDict
p0
((lp1
(lp2
S'state'
p3
aI0
aa(lp4
S'distance'
p5
aF67.2188663482666
aa(lp6
S'timestamp'
p7
aF7.007474899291992
aatp8
Rp9
.ccollections
OrderedDict
p0
((lp1
(lp2
S'state'
p3
aI0
aa(lp4
S'distance'
p5
aF67.2188663482666
aa(lp6
S'timestamp'
p7
aF7.007567882537842
aatp8
Rp9
.ccollections
OrderedDict
p0
((lp1
(lp2
S'state'
p3
aI0
aa(lp4
S'distance'
p5
aF67.2188663482666
aa(lp6
S'timestamp'
p7
aF7.0172998905181885
aatp8
Rp9
.ccollections
OrderedDict
p0
((lp1
(lp2
S'state'
p3
aI0
aa(lp4
S'distance'
p5
aF67.2188663482666
aa(lp6
S'timestamp'
p7
aF7.017927885055542
aatp8
Rp9
.ccollections
OrderedDict
p0
((lp1
(lp2
S'state'
p3
aI0
aa(lp4
S'distance'
p5
aF67.2188663482666
aa(lp6
S'timestamp'
p7
aF7.0273778438568115
aatp8
Rp9
.ccollections
OrderedDict
p0
((lp1
(lp2
S'state'
p3
aI0
aa(lp4
S'distance'
p5
aF67.2188663482666
aa(lp6
S'timestamp'
p7
aF7.027894973754883
aatp8
Rp9
.ccollections
OrderedDict
p0
((lp1
(lp2
S'state'
p3
aI0
aa(lp4
S'distance'
p5
aF67.2188663482666
aa(lp6
S'timestamp'
p7
aF7.037601947784424
aatp8
Rp9
.ccollections
OrderedDict
p0
((lp1
(lp2
S'state'
p3
aI0
aa(lp4
S'distance'
p5
aF67.2188663482666
aa(lp6
S'timestamp'
p7
aF7.037762880325317
aatp8
Rp9
.ccollections
OrderedDict
p0
((lp1
(lp2
S'state'
p3
aI0
aa(lp4
S'distance'
p5
aF67.2188663482666
aa(lp6
S'timestamp'
p7
aF7.04735803604126
aatp8
Rp9
.ccollections
OrderedDict
p0
((lp1
(lp2
S'state'
p3
aI0
aa(lp4
S'distance'
p5
aF67.2188663482666
aa(lp6
S'timestamp'
p7
aF7.047891855239868
aatp8
Rp9
.ccollections
OrderedDict
p0
((lp1
(lp2
S'state'
p3
aI0
aa(lp4
S'distance'
p5
aF67.2188663482666
aa(lp6
S'timestamp'
p7
aF7.057334899902344
aatp8
Rp9
.ccollections
OrderedDict
p0
((lp1
(lp2
S'state'
p3
aI0
aa(lp4
S'distance'
p5
aF67.2188663482666
aa(lp6
S'timestamp'
p7
aF7.058178901672363
aatp8
Rp9
.ccollections
OrderedDict
p0
((lp1
(lp2
S'state'
p3
aI0
aa(lp4
S'distance'
p5
aF67.2188663482666
aa(lp6
S'timestamp'
p7
aF7.067322015762329
aatp8
Rp9
.ccollections
OrderedDict
p0
((lp1
(lp2
S'state'
p3
aI0
aa(lp4
S'distance'
p5
aF67.2188663482666
aa(lp6
S'timestamp'
p7
aF7.067469835281372
aatp8
Rp9
.ccollections
OrderedDict
p0
((lp1
(lp2
S'state'
p3
aI0
aa(lp4
S'distance'
p5
aF67.2188663482666
aa(lp6
S'timestamp'
p7
aF7.077384948730469
aatp8
Rp9
.ccollections
OrderedDict
p0
((lp1
(lp2
S'state'
p3
aI0
aa(lp4
S'distance'
p5
aF67.2188663482666
aa(lp6
S'timestamp'
p7
aF7.077472925186157
aatp8
Rp9
.ccollections
OrderedDict
p0
((lp1
(lp2
S'state'
p3
aI0
aa(lp4
S'distance'
p5
aF67.2188663482666
aa(lp6
S'timestamp'
p7
aF7.087195873260498
aatp8
Rp9
.ccollections
OrderedDict
p0
((lp1
(lp2
S'state'
p3
aI0
aa(lp4
S'distance'
p5
aF67.2188663482666
aa(lp6
S'timestamp'
p7
aF7.097369909286499
aatp8
Rp9
.ccollections
OrderedDict
p0
((lp1
(lp2
S'state'
p3
aI0
aa(lp4
S'distance'
p5
aF67.2188663482666
aa(lp6
S'timestamp'
p7
aF7.097522974014282
aatp8
Rp9
.ccollections
OrderedDict
p0
((lp1
(lp2
S'state'
p3
aI0
aa(lp4
S'distance'
p5
aF67.2188663482666
aa(lp6
S'timestamp'
p7
aF7.098382949829102
aatp8
Rp9
.ccollections
OrderedDict
p0
((lp1
(lp2
S'state'
p3
aI0
aa(lp4
S'distance'
p5
aF67.2188663482666
aa(lp6
S'timestamp'
p7
aF7.107311010360718
aatp8
Rp9
.ccollections
OrderedDict
p0
((lp1
(lp2
S'state'
p3
aI0
aa(lp4
S'distance'
p5
aF67.2188663482666
aa(lp6
S'timestamp'
p7
aF7.107821941375732
aatp8
Rp9
.ccollections
OrderedDict
p0
((lp1
(lp2
S'state'
p3
aI0
aa(lp4
S'distance'
p5
aF67.2188663482666
aa(lp6
S'timestamp'
p7
aF7.117292881011963
aatp8
Rp9
.ccollections
OrderedDict
p0
((lp1
(lp2
S'state'
p3
aI0
aa(lp4
S'distance'
p5
aF67.2188663482666
aa(lp6
S'timestamp'
p7
aF7.1177568435668945
aatp8
Rp9
.ccollections
OrderedDict
p0
((lp1
(lp2
S'state'
p3
aI0
aa(lp4
S'distance'
p5
aF67.2188663482666
aa(lp6
S'timestamp'
p7
aF7.127207040786743
aatp8
Rp9
.ccollections
OrderedDict
p0
((lp1
(lp2
S'state'
p3
aI0
aa(lp4
S'distance'
p5
aF67.2188663482666
aa(lp6
S'timestamp'
p7
aF7.1278159618377686
aatp8
Rp9
.ccollections
OrderedDict
p0
((lp1
(lp2
S'state'
p3
aI0
aa(lp4
S'distance'
p5
aF67.2188663482666
aa(lp6
S'timestamp'
p7
aF7.1370790004730225
aatp8
Rp9
.ccollections
OrderedDict
p0
((lp1
(lp2
S'state'
p3
aI0
aa(lp4
S'distance'
p5
aF67.2188663482666
aa(lp6
S'timestamp'
p7
aF7.137912034988403
aatp8
Rp9
.ccollections
OrderedDict
p0
((lp1
(lp2
S'state'
p3
aI0
aa(lp4
S'distance'
p5
aF67.2188663482666
aa(lp6
S'timestamp'
p7
aF7.1474449634552
aatp8
Rp9
.ccollections
OrderedDict
p0
((lp1
(lp2
S'state'
p3
aI0
aa(lp4
S'distance'
p5
aF67.2188663482666
aa(lp6
S'timestamp'
p7
aF7.14752984046936
aatp8
Rp9
.ccollections
OrderedDict
p0
((lp1
(lp2
S'state'
p3
aI0
aa(lp4
S'distance'
p5
aF67.2188663482666
aa(lp6
S'timestamp'
p7
aF7.157307863235474
aatp8
Rp9
.ccollections
OrderedDict
p0
((lp1
(lp2
S'state'
p3
aI0
aa(lp4
S'distance'
p5
aF67.2188663482666
aa(lp6
S'timestamp'
p7
aF7.157801866531372
aatp8
Rp9
.ccollections
OrderedDict
p0
((lp1
(lp2
S'state'
p3
aI0
aa(lp4
S'distance'
p5
aF67.2188663482666
aa(lp6
S'timestamp'
p7
aF7.167318820953369
aatp8
Rp9
.ccollections
OrderedDict
p0
((lp1
(lp2
S'state'
p3
aI0
aa(lp4
S'distance'
p5
aF67.2188663482666
aa(lp6
S'timestamp'
p7
aF7.16782283782959
aatp8
Rp9
.ccollections
OrderedDict
p0
((lp1
(lp2
S'state'
p3
aI0
aa(lp4
S'distance'
p5
aF67.2188663482666
aa(lp6
S'timestamp'
p7
aF7.1777448654174805
aatp8
Rp9
.ccollections
OrderedDict
p0
((lp1
(lp2
S'state'
p3
aI0
aa(lp4
S'distance'
p5
aF67.2188663482666
aa(lp6
S'timestamp'
p7
aF7.1779608726501465
aatp8
Rp9
.ccollections
OrderedDict
p0
((lp1
(lp2
S'state'
p3
aI0
aa(lp4
S'distance'
p5
aF67.2188663482666
aa(lp6
S'timestamp'
p7
aF7.187285900115967
aatp8
Rp9
.ccollections
OrderedDict
p0
((lp1
(lp2
S'state'
p3
aI0
aa(lp4
S'distance'
p5
aF67.2188663482666
aa(lp6
S'timestamp'
p7
aF7.1874799728393555
aatp8
Rp9
.ccollections
OrderedDict
p0
((lp1
(lp2
S'state'
p3
aI0
aa(lp4
S'distance'
p5
aF67.2188663482666
aa(lp6
S'timestamp'
p7
aF7.197391033172607
aatp8
Rp9
.ccollections
OrderedDict
p0
((lp1
(lp2
S'state'
p3
aI0
aa(lp4
S'distance'
p5
aF67.2188663482666
aa(lp6
S'timestamp'
p7
aF7.19788384437561
aatp8
Rp9
.ccollections
OrderedDict
p0
((lp1
(lp2
S'state'
p3
aI0
aa(lp4
S'distance'
p5
aF67.2188663482666
aa(lp6
S'timestamp'
p7
aF7.20764684677124
aatp8
Rp9
.ccollections
OrderedDict
p0
((lp1
(lp2
S'state'
p3
aI0
aa(lp4
S'distance'
p5
aF67.2188663482666
aa(lp6
S'timestamp'
p7
aF7.207720041275024
aatp8
Rp9
.ccollections
OrderedDict
p0
((lp1
(lp2
S'state'
p3
aI0
aa(lp4
S'distance'
p5
aF67.2188663482666
aa(lp6
S'timestamp'
p7
aF7.217766046524048
aatp8
Rp9
.ccollections
OrderedDict
p0
((lp1
(lp2
S'state'
p3
aI0
aa(lp4
S'distance'
p5
aF67.2188663482666
aa(lp6
S'timestamp'
p7
aF7.228186845779419
aatp8
Rp9
.ccollections
OrderedDict
p0
((lp1
(lp2
S'state'
p3
aI0
aa(lp4
S'distance'
p5
aF67.2188663482666
aa(lp6
S'timestamp'
p7
aF7.228294849395752
aatp8
Rp9
.ccollections
OrderedDict
p0
((lp1
(lp2
S'state'
p3
aI0
aa(lp4
S'distance'
p5
aF67.2188663482666
aa(lp6
S'timestamp'
p7
aF7.228371858596802
aatp8
Rp9
.ccollections
OrderedDict
p0
((lp1
(lp2
S'state'
p3
aI0
aa(lp4
S'distance'
p5
aF67.2188663482666
aa(lp6
S'timestamp'
p7
aF7.247306823730469
aatp8
Rp9
.ccollections
OrderedDict
p0
((lp1
(lp2
S'state'
p3
aI0
aa(lp4
S'distance'
p5
aF67.2188663482666
aa(lp6
S'timestamp'
p7
aF7.247427940368652
aatp8
Rp9
.ccollections
OrderedDict
p0
((lp1
(lp2
S'state'
p3
aI0
aa(lp4
S'distance'
p5
aF67.2188663482666
aa(lp6
S'timestamp'
p7
aF7.2486348152160645
aatp8
Rp9
.ccollections
OrderedDict
p0
((lp1
(lp2
S'state'
p3
aI0
aa(lp4
S'distance'
p5
aF67.2188663482666
aa(lp6
S'timestamp'
p7
aF7.249598026275635
aatp8
Rp9
.ccollections
OrderedDict
p0
((lp1
(lp2
S'state'
p3
aI0
aa(lp4
S'distance'
p5
aF67.2188663482666
aa(lp6
S'timestamp'
p7
aF7.257306814193726
aatp8
Rp9
.ccollections
OrderedDict
p0
((lp1
(lp2
S'state'
p3
aI0
aa(lp4
S'distance'
p5
aF67.2188663482666
aa(lp6
S'timestamp'
p7
aF7.277354001998901
aatp8
Rp9
.ccollections
OrderedDict
p0
((lp1
(lp2
S'state'
p3
aI0
aa(lp4
S'distance'
p5
aF67.2188663482666
aa(lp6
S'timestamp'
p7
aF7.2779810428619385
aatp8
Rp9
.ccollections
OrderedDict
p0
((lp1
(lp2
S'state'
p3
aI0
aa(lp4
S'distance'
p5
aF67.2188663482666
aa(lp6
S'timestamp'
p7
aF7.278051853179932
aatp8
Rp9
.ccollections
OrderedDict
p0
((lp1
(lp2
S'state'
p3
aI0
aa(lp4
S'distance'
p5
aF67.2188663482666
aa(lp6
S'timestamp'
p7
aF7.29786491394043
aatp8
Rp9
.ccollections
OrderedDict
p0
((lp1
(lp2
S'state'
p3
aI0
aa(lp4
S'distance'
p5
aF67.2188663482666
aa(lp6
S'timestamp'
p7
aF7.298122882843018
aatp8
Rp9
.ccollections
OrderedDict
p0
((lp1
(lp2
S'state'
p3
aI0
aa(lp4
S'distance'
p5
aF67.2188663482666
aa(lp6
S'timestamp'
p7
aF7.298921823501587
aatp8
Rp9
.ccollections
OrderedDict
p0
((lp1
(lp2
S'state'
p3
aI0
aa(lp4
S'distance'
p5
aF67.2188663482666
aa(lp6
S'timestamp'
p7
aF7.299341917037964
aatp8
Rp9
.ccollections
OrderedDict
p0
((lp1
(lp2
S'state'
p3
aI0
aa(lp4
S'distance'
p5
aF67.2188663482666
aa(lp6
S'timestamp'
p7
aF7.317694902420044
aatp8
Rp9
.ccollections
OrderedDict
p0
((lp1
(lp2
S'state'
p3
aI0
aa(lp4
S'distance'
p5
aF67.2188663482666
aa(lp6
S'timestamp'
p7
aF7.3178629875183105
aatp8
Rp9
.ccollections
OrderedDict
p0
((lp1
(lp2
S'state'
p3
aI0
aa(lp4
S'distance'
p5
aF67.2188663482666
aa(lp6
S'timestamp'
p7
aF7.318181991577148
aatp8
Rp9
.ccollections
OrderedDict
p0
((lp1
(lp2
S'state'
p3
aI0
aa(lp4
S'distance'
p5
aF67.2188663482666
aa(lp6
S'timestamp'
p7
aF7.318388938903809
aatp8
Rp9
.ccollections
OrderedDict
p0
((lp1
(lp2
S'state'
p3
aI0
aa(lp4
S'distance'
p5
aF67.2188663482666
aa(lp6
S'timestamp'
p7
aF7.32775092124939
aatp8
Rp9
.ccollections
OrderedDict
p0
((lp1
(lp2
S'state'
p3
aI0
aa(lp4
S'distance'
p5
aF67.2188663482666
aa(lp6
S'timestamp'
p7
aF7.327823877334595
aatp8
Rp9
.ccollections
OrderedDict
p0
((lp1
(lp2
S'state'
p3
aI0
aa(lp4
S'distance'
p5
aF67.2188663482666
aa(lp6
S'timestamp'
p7
aF7.329133987426758
aatp8
Rp9
.ccollections
OrderedDict
p0
((lp1
(lp2
S'state'
p3
aI0
aa(lp4
S'distance'
p5
aF67.2188663482666
aa(lp6
S'timestamp'
p7
aF7.329840898513794
aatp8
Rp9
.ccollections
OrderedDict
p0
((lp1
(lp2
S'state'
p3
aI0
aa(lp4
S'distance'
p5
aF67.2188663482666
aa(lp6
S'timestamp'
p7
aF7.337978839874268
aatp8
Rp9
.ccollections
OrderedDict
p0
((lp1
(lp2
S'state'
p3
aI0
aa(lp4
S'distance'
p5
aF67.2188663482666
aa(lp6
S'timestamp'
p7
aF7.338071823120117
aatp8
Rp9
.ccollections
OrderedDict
p0
((lp1
(lp2
S'state'
p3
aI0
aa(lp4
S'distance'
p5
aF67.2188663482666
aa(lp6
S'timestamp'
p7
aF7.347654819488525
aatp8
Rp9
.ccollections
OrderedDict
p0
((lp1
(lp2
S'state'
p3
aI0
aa(lp4
S'distance'
p5
aF67.2188663482666
aa(lp6
S'timestamp'
p7
aF7.347726821899414
aatp8
Rp9
.ccollections
OrderedDict
p0
((lp1
(lp2
S'state'
p3
aI0
aa(lp4
S'distance'
p5
aF67.2188663482666
aa(lp6
S'timestamp'
p7
aF7.357640027999878
aatp8
Rp9
.ccollections
OrderedDict
p0
((lp1
(lp2
S'state'
p3
aI0
aa(lp4
S'distance'
p5
aF67.2188663482666
aa(lp6
S'timestamp'
p7
aF7.357709884643555
aatp8
Rp9
.ccollections
OrderedDict
p0
((lp1
(lp2
S'state'
p3
aI0
aa(lp4
S'distance'
p5
aF67.2188663482666
aa(lp6
S'timestamp'
p7
aF7.367262840270996
aatp8
Rp9
.ccollections
OrderedDict
p0
((lp1
(lp2
S'state'
p3
aI0
aa(lp4
S'distance'
p5
aF67.2188663482666
aa(lp6
S'timestamp'
p7
aF7.367841005325317
aatp8
Rp9
.ccollections
OrderedDict
p0
((lp1
(lp2
S'state'
p3
aI0
aa(lp4
S'distance'
p5
aF67.2188663482666
aa(lp6
S'timestamp'
p7
aF7.377180814743042
aatp8
Rp9
.ccollections
OrderedDict
p0
((lp1
(lp2
S'state'
p3
aI0
aa(lp4
S'distance'
p5
aF67.2188663482666
aa(lp6
S'timestamp'
p7
aF7.378058910369873
aatp8
Rp9
.ccollections
OrderedDict
p0
((lp1
(lp2
S'state'
p3
aI0
aa(lp4
S'distance'
p5
aF67.2188663482666
aa(lp6
S'timestamp'
p7
aF7.387065887451172
aatp8
Rp9
.ccollections
OrderedDict
p0
((lp1
(lp2
S'state'
p3
aI0
aa(lp4
S'distance'
p5
aF67.2188663482666
aa(lp6
S'timestamp'
p7
aF7.387662887573242
aatp8
Rp9
.ccollections
OrderedDict
p0
((lp1
(lp2
S'state'
p3
aI0
aa(lp4
S'distance'
p5
aF67.2188663482666
aa(lp6
S'timestamp'
p7
aF7.407199859619141
aatp8
Rp9
.ccollections
OrderedDict
p0
((lp1
(lp2
S'state'
p3
aI0
aa(lp4
S'distance'
p5
aF67.2188663482666
aa(lp6
S'timestamp'
p7
aF7.407704830169678
aatp8
Rp9
.ccollections
OrderedDict
p0
((lp1
(lp2
S'state'
p3
aI0
aa(lp4
S'distance'
p5
aF67.2188663482666
aa(lp6
S'timestamp'
p7
aF7.4093098640441895
aatp8
Rp9
.ccollections
OrderedDict
p0
((lp1
(lp2
S'state'
p3
aI0
aa(lp4
S'distance'
p5
aF67.2188663482666
aa(lp6
S'timestamp'
p7
aF7.437358856201172
aatp8
Rp9
.ccollections
OrderedDict
p0
((lp1
(lp2
S'state'
p3
aI0
aa(lp4
S'distance'
p5
aF67.2188663482666
aa(lp6
S'timestamp'
p7
aF7.4375598430633545
aatp8
Rp9
.ccollections
OrderedDict
p0
((lp1
(lp2
S'state'
p3
aI0
aa(lp4
S'distance'
p5
aF67.2188663482666
aa(lp6
S'timestamp'
p7
aF7.438179969787598
aatp8
Rp9
.ccollections
OrderedDict
p0
((lp1
(lp2
S'state'
p3
aI0
aa(lp4
S'distance'
p5
aF67.2188663482666
aa(lp6
S'timestamp'
p7
aF7.438421964645386
aatp8
Rp9
.ccollections
OrderedDict
p0
((lp1
(lp2
S'state'
p3
aI0
aa(lp4
S'distance'
p5
aF67.2188663482666
aa(lp6
S'timestamp'
p7
aF7.4586498737335205
aatp8
Rp9
.ccollections
OrderedDict
p0
((lp1
(lp2
S'state'
p3
aI0
aa(lp4
S'distance'
p5
aF67.2188663482666
aa(lp6
S'timestamp'
p7
aF7.458982944488525
aatp8
Rp9
.ccollections
OrderedDict
p0
((lp1
(lp2
S'state'
p3
aI0
aa(lp4
S'distance'
p5
aF67.2188663482666
aa(lp6
S'timestamp'
p7
aF7.459617853164673
aatp8
Rp9
.ccollections
OrderedDict
p0
((lp1
(lp2
S'state'
p3
aI0
aa(lp4
S'distance'
p5
aF67.2188663482666
aa(lp6
S'timestamp'
p7
aF7.459857940673828
aatp8
Rp9
.ccollections
OrderedDict
p0
((lp1
(lp2
S'state'
p3
aI0
aa(lp4
S'distance'
p5
aF67.2188663482666
aa(lp6
S'timestamp'
p7
aF7.467458963394165
aatp8
Rp9
.ccollections
OrderedDict
p0
((lp1
(lp2
S'state'
p3
aI0
aa(lp4
S'distance'
p5
aF67.2188663482666
aa(lp6
S'timestamp'
p7
aF7.468149900436401
aatp8
Rp9
.ccollections
OrderedDict
p0
((lp1
(lp2
S'state'
p3
aI0
aa(lp4
S'distance'
p5
aF67.2188663482666
aa(lp6
S'timestamp'
p7
aF7.468816041946411
aatp8
Rp9
.ccollections
OrderedDict
p0
((lp1
(lp2
S'state'
p3
aI0
aa(lp4
S'distance'
p5
aF67.2188663482666
aa(lp6
S'timestamp'
p7
aF7.468998908996582
aatp8
Rp9
.ccollections
OrderedDict
p0
((lp1
(lp2
S'state'
p3
aI0
aa(lp4
S'distance'
p5
aF67.2188663482666
aa(lp6
S'timestamp'
p7
aF7.478047847747803
aatp8
Rp9
.ccollections
OrderedDict
p0
((lp1
(lp2
S'state'
p3
aI0
aa(lp4
S'distance'
p5
aF67.2188663482666
aa(lp6
S'timestamp'
p7
aF7.478343963623047
aatp8
Rp9
.ccollections
OrderedDict
p0
((lp1
(lp2
S'state'
p3
aI0
aa(lp4
S'distance'
p5
aF67.2188663482666
aa(lp6
S'timestamp'
p7
aF7.4797868728637695
aatp8
Rp9
.ccollections
OrderedDict
p0
((lp1
(lp2
S'state'
p3
aI0
aa(lp4
S'distance'
p5
aF67.2188663482666
aa(lp6
S'timestamp'
p7
aF7.487340927124023
aatp8
Rp9
.ccollections
OrderedDict
p0
((lp1
(lp2
S'state'
p3
aI0
aa(lp4
S'distance'
p5
aF67.2188663482666
aa(lp6
S'timestamp'
p7
aF7.488224983215332
aatp8
Rp9
.ccollections
OrderedDict
p0
((lp1
(lp2
S'state'
p3
aI0
aa(lp4
S'distance'
p5
aF67.2188663482666
aa(lp6
S'timestamp'
p7
aF7.497414827346802
aatp8
Rp9
.ccollections
OrderedDict
p0
((lp1
(lp2
S'state'
p3
aI0
aa(lp4
S'distance'
p5
aF67.2188663482666
aa(lp6
S'timestamp'
p7
aF7.497856855392456
aatp8
Rp9
.ccollections
OrderedDict
p0
((lp1
(lp2
S'state'
p3
aI0
aa(lp4
S'distance'
p5
aF67.2188663482666
aa(lp6
S'timestamp'
p7
aF7.507285833358765
aatp8
Rp9
.ccollections
OrderedDict
p0
((lp1
(lp2
S'state'
p3
aI0
aa(lp4
S'distance'
p5
aF67.2188663482666
aa(lp6
S'timestamp'
p7
aF7.50824499130249
aatp8
Rp9
.ccollections
OrderedDict
p0
((lp1
(lp2
S'state'
p3
aI0
aa(lp4
S'distance'
p5
aF67.2188663482666
aa(lp6
S'timestamp'
p7
aF7.5179808139801025
aatp8
Rp9
.ccollections
OrderedDict
p0
((lp1
(lp2
S'state'
p3
aI0
aa(lp4
S'distance'
p5
aF67.2188663482666
aa(lp6
S'timestamp'
p7
aF7.5180628299713135
aatp8
Rp9
.ccollections
OrderedDict
p0
((lp1
(lp2
S'state'
p3
aI0
aa(lp4
S'distance'
p5
aF67.2188663482666
aa(lp6
S'timestamp'
p7
aF7.527406930923462
aatp8
Rp9
.ccollections
OrderedDict
p0
((lp1
(lp2
S'state'
p3
aI0
aa(lp4
S'distance'
p5
aF67.2188663482666
aa(lp6
S'timestamp'
p7
aF7.53736686706543
aatp8
Rp9
.ccollections
OrderedDict
p0
((lp1
(lp2
S'state'
p3
aI0
aa(lp4
S'distance'
p5
aF67.2188663482666
aa(lp6
S'timestamp'
p7
aF7.538636922836304
aatp8
Rp9
.ccollections
OrderedDict
p0
((lp1
(lp2
S'state'
p3
aI0
aa(lp4
S'distance'
p5
aF67.2188663482666
aa(lp6
S'timestamp'
p7
aF7.538858890533447
aatp8
Rp9
.ccollections
OrderedDict
p0
((lp1
(lp2
S'state'
p3
aI0
aa(lp4
S'distance'
p5
aF67.2188663482666
aa(lp6
S'timestamp'
p7
aF7.547109842300415
aatp8
Rp9
.ccollections
OrderedDict
p0
((lp1
(lp2
S'state'
p3
aI0
aa(lp4
S'distance'
p5
aF67.2188663482666
aa(lp6
S'timestamp'
p7
aF7.5481040477752686
aatp8
Rp9
.ccollections
OrderedDict
p0
((lp1
(lp2
S'state'
p3
aI0
aa(lp4
S'distance'
p5
aF67.2188663482666
aa(lp6
S'timestamp'
p7
aF7.5572309494018555
aatp8
Rp9
.ccollections
OrderedDict
p0
((lp1
(lp2
S'state'
p3
aI0
aa(lp4
S'distance'
p5
aF67.2188663482666
aa(lp6
S'timestamp'
p7
aF7.557726860046387
aatp8
Rp9
.ccollections
OrderedDict
p0
((lp1
(lp2
S'state'
p3
aI0
aa(lp4
S'distance'
p5
aF67.2188663482666
aa(lp6
S'timestamp'
p7
aF7.567296028137207
aatp8
Rp9
.ccollections
OrderedDict
p0
((lp1
(lp2
S'state'
p3
aI0
aa(lp4
S'distance'
p5
aF67.2188663482666
aa(lp6
S'timestamp'
p7
aF7.568581819534302
aatp8
Rp9
.ccollections
OrderedDict
p0
((lp1
(lp2
S'state'
p3
aI0
aa(lp4
S'distance'
p5
aF67.2188663482666
aa(lp6
S'timestamp'
p7
aF7.577966928482056
aatp8
Rp9
.ccollections
OrderedDict
p0
((lp1
(lp2
S'state'
p3
aI0
aa(lp4
S'distance'
p5
aF67.2188663482666
aa(lp6
S'timestamp'
p7
aF7.578126907348633
aatp8
Rp9
.ccollections
OrderedDict
p0
((lp1
(lp2
S'state'
p3
aI0
aa(lp4
S'distance'
p5
aF67.2188663482666
aa(lp6
S'timestamp'
p7
aF7.587349891662598
aatp8
Rp9
.ccollections
OrderedDict
p0
((lp1
(lp2
S'state'
p3
aI0
aa(lp4
S'distance'
p5
aF67.2188663482666
aa(lp6
S'timestamp'
p7
aF7.587519884109497
aatp8
Rp9
.ccollections
OrderedDict
p0
((lp1
(lp2
S'state'
p3
aI0
aa(lp4
S'distance'
p5
aF67.2188663482666
aa(lp6
S'timestamp'
p7
aF7.597343921661377
aatp8
Rp9
.ccollections
OrderedDict
p0
((lp1
(lp2
S'state'
p3
aI0
aa(lp4
S'distance'
p5
aF67.2188663482666
aa(lp6
S'timestamp'
p7
aF7.5980470180511475
aatp8
Rp9
.ccollections
OrderedDict
p0
((lp1
(lp2
S'state'
p3
aI0
aa(lp4
S'distance'
p5
aF67.2188663482666
aa(lp6
S'timestamp'
p7
aF7.607391834259033
aatp8
Rp9
.ccollections
OrderedDict
p0
((lp1
(lp2
S'state'
p3
aI0
aa(lp4
S'distance'
p5
aF67.2188663482666
aa(lp6
S'timestamp'
p7
aF7.6081788539886475
aatp8
Rp9
.ccollections
OrderedDict
p0
((lp1
(lp2
S'state'
p3
aI0
aa(lp4
S'distance'
p5
aF67.2188663482666
aa(lp6
S'timestamp'
p7
aF7.617884874343872
aatp8
Rp9
.ccollections
OrderedDict
p0
((lp1
(lp2
S'state'
p3
aI0
aa(lp4
S'distance'
p5
aF67.2188663482666
aa(lp6
S'timestamp'
p7
aF7.61839485168457
aatp8
Rp9
.ccollections
OrderedDict
p0
((lp1
(lp2
S'state'
p3
aI0
aa(lp4
S'distance'
p5
aF67.2188663482666
aa(lp6
S'timestamp'
p7
aF7.637344837188721
aatp8
Rp9
.ccollections
OrderedDict
p0
((lp1
(lp2
S'state'
p3
aI0
aa(lp4
S'distance'
p5
aF67.2188663482666
aa(lp6
S'timestamp'
p7
aF7.637512922286987
aatp8
Rp9
.ccollections
OrderedDict
p0
((lp1
(lp2
S'state'
p3
aI0
aa(lp4
S'distance'
p5
aF67.2188663482666
aa(lp6
S'timestamp'
p7
aF7.639490842819214
aatp8
Rp9
.ccollections
OrderedDict
p0
((lp1
(lp2
S'state'
p3
aI0
aa(lp4
S'distance'
p5
aF67.2188663482666
aa(lp6
S'timestamp'
p7
aF7.640041828155518
aatp8
Rp9
.ccollections
OrderedDict
p0
((lp1
(lp2
S'state'
p3
aI0
aa(lp4
S'distance'
p5
aF67.2188663482666
aa(lp6
S'timestamp'
p7
aF7.6474339962005615
aatp8
Rp9
.ccollections
OrderedDict
p0
((lp1
(lp2
S'state'
p3
aI0
aa(lp4
S'distance'
p5
aF67.2188663482666
aa(lp6
S'timestamp'
p7
aF7.647604942321777
aatp8
Rp9
.ccollections
OrderedDict
p0
((lp1
(lp2
S'state'
p3
aI0
aa(lp4
S'distance'
p5
aF67.2188663482666
aa(lp6
S'timestamp'
p7
aF7.657285928726196
aatp8
Rp9
.ccollections
OrderedDict
p0
((lp1
(lp2
S'state'
p3
aI0
aa(lp4
S'distance'
p5
aF67.2188663482666
aa(lp6
S'timestamp'
p7
aF7.660624980926514
aatp8
Rp9
.ccollections
OrderedDict
p0
((lp1
(lp2
S'state'
p3
aI0
aa(lp4
S'distance'
p5
aF67.2188663482666
aa(lp6
S'timestamp'
p7
aF7.67736291885376
aatp8
Rp9
.ccollections
OrderedDict
p0
((lp1
(lp2
S'state'
p3
aI0
aa(lp4
S'distance'
p5
aF67.2188663482666
aa(lp6
S'timestamp'
p7
aF7.677933931350708
aatp8
Rp9
.ccollections
OrderedDict
p0
((lp1
(lp2
S'state'
p3
aI0
aa(lp4
S'distance'
p5
aF67.2188663482666
aa(lp6
S'timestamp'
p7
aF7.679613828659058
aatp8
Rp9
.ccollections
OrderedDict
p0
((lp1
(lp2
S'state'
p3
aI0
aa(lp4
S'distance'
p5
aF67.2188663482666
aa(lp6
S'timestamp'
p7
aF7.680004835128784
aatp8
Rp9
.ccollections
OrderedDict
p0
((lp1
(lp2
S'state'
p3
aI0
aa(lp4
S'distance'
p5
aF67.2188663482666
aa(lp6
S'timestamp'
p7
aF7.687795877456665
aatp8
Rp9
.ccollections
OrderedDict
p0
((lp1
(lp2
S'state'
p3
aI0
aa(lp4
S'distance'
p5
aF67.2188663482666
aa(lp6
S'timestamp'
p7
aF7.68787693977356
aatp8
Rp9
.ccollections
OrderedDict
p0
((lp1
(lp2
S'state'
p3
aI0
aa(lp4
S'distance'
p5
aF67.2188663482666
aa(lp6
S'timestamp'
p7
aF7.697433948516846
aatp8
Rp9
.ccollections
OrderedDict
p0
((lp1
(lp2
S'state'
p3
aI0
aa(lp4
S'distance'
p5
aF67.2188663482666
aa(lp6
S'timestamp'
p7
aF7.6975719928741455
aatp8
Rp9
.ccollections
OrderedDict
p0
((lp1
(lp2
S'state'
p3
aI0
aa(lp4
S'distance'
p5
aF67.2188663482666
aa(lp6
S'timestamp'
p7
aF7.707079887390137
aatp8
Rp9
.ccollections
OrderedDict
p0
((lp1
(lp2
S'state'
p3
aI0
aa(lp4
S'distance'
p5
aF67.2188663482666
aa(lp6
S'timestamp'
p7
aF7.707903861999512
aatp8
Rp9
.ccollections
OrderedDict
p0
((lp1
(lp2
S'state'
p3
aI0
aa(lp4
S'distance'
p5
aF67.2188663482666
aa(lp6
S'timestamp'
p7
aF7.717402935028076
aatp8
Rp9
.ccollections
OrderedDict
p0
((lp1
(lp2
S'state'
p3
aI0
aa(lp4
S'distance'
p5
aF67.2188663482666
aa(lp6
S'timestamp'
p7
aF7.718031883239746
aatp8
Rp9
.ccollections
OrderedDict
p0
((lp1
(lp2
S'state'
p3
aI0
aa(lp4
S'distance'
p5
aF67.2188663482666
aa(lp6
S'timestamp'
p7
aF7.727218866348267
aatp8
Rp9
.ccollections
OrderedDict
p0
((lp1
(lp2
S'state'
p3
aI0
aa(lp4
S'distance'
p5
aF67.2188663482666
aa(lp6
S'timestamp'
p7
aF7.727852821350098
aatp8
Rp9
.ccollections
OrderedDict
p0
((lp1
(lp2
S'state'
p3
aI0
aa(lp4
S'distance'
p5
aF67.2188663482666
aa(lp6
S'timestamp'
p7
aF7.738268852233887
aatp8
Rp9
.ccollections
OrderedDict
p0
((lp1
(lp2
S'state'
p3
aI0
aa(lp4
S'distance'
p5
aF67.2188663482666
aa(lp6
S'timestamp'
p7
aF7.738893032073975
aatp8
Rp9
.ccollections
OrderedDict
p0
((lp1
(lp2
S'state'
p3
aI0
aa(lp4
S'distance'
p5
aF67.2188663482666
aa(lp6
S'timestamp'
p7
aF7.747597932815552
aatp8
Rp9
.ccollections
OrderedDict
p0
((lp1
(lp2
S'state'
p3
aI0
aa(lp4
S'distance'
p5
aF67.2188663482666
aa(lp6
S'timestamp'
p7
aF7.747788906097412
aatp8
Rp9
.ccollections
OrderedDict
p0
((lp1
(lp2
S'state'
p3
aI0
aa(lp4
S'distance'
p5
aF67.2188663482666
aa(lp6
S'timestamp'
p7
aF7.757666826248169
aatp8
Rp9
.ccollections
OrderedDict
p0
((lp1
(lp2
S'state'
p3
aI0
aa(lp4
S'distance'
p5
aF67.2188663482666
aa(lp6
S'timestamp'
p7
aF7.7577409744262695
aatp8
Rp9
.ccollections
OrderedDict
p0
((lp1
(lp2
S'state'
p3
aI0
aa(lp4
S'distance'
p5
aF67.2188663482666
aa(lp6
S'timestamp'
p7
aF7.7676918506622314
aatp8
Rp9
.ccollections
OrderedDict
p0
((lp1
(lp2
S'state'
p3
aI0
aa(lp4
S'distance'
p5
aF67.2188663482666
aa(lp6
S'timestamp'
p7
aF7.767912864685059
aatp8
Rp9
.ccollections
OrderedDict
p0
((lp1
(lp2
S'state'
p3
aI0
aa(lp4
S'distance'
p5
aF67.2188663482666
aa(lp6
S'timestamp'
p7
aF7.777889966964722
aatp8
Rp9
.ccollections
OrderedDict
p0
((lp1
(lp2
S'state'
p3
aI0
aa(lp4
S'distance'
p5
aF67.2188663482666
aa(lp6
S'timestamp'
p7
aF7.778379917144775
aatp8
Rp9
.ccollections
OrderedDict
p0
((lp1
(lp2
S'state'
p3
aI0
aa(lp4
S'distance'
p5
aF67.2188663482666
aa(lp6
S'timestamp'
p7
aF7.7878098487854
aatp8
Rp9
.ccollections
OrderedDict
p0
((lp1
(lp2
S'state'
p3
aI0
aa(lp4
S'distance'
p5
aF67.2188663482666
aa(lp6
S'timestamp'
p7
aF7.787894010543823
aatp8
Rp9
.ccollections
OrderedDict
p0
((lp1
(lp2
S'state'
p3
aI0
aa(lp4
S'distance'
p5
aF67.2188663482666
aa(lp6
S'timestamp'
p7
aF7.7973339557647705
aatp8
Rp9
.ccollections
OrderedDict
p0
((lp1
(lp2
S'state'
p3
aI0
aa(lp4
S'distance'
p5
aF67.2188663482666
aa(lp6
S'timestamp'
p7
aF7.797797918319702
aatp8
Rp9
.ccollections
OrderedDict
p0
((lp1
(lp2
S'state'
p3
aI0
aa(lp4
S'distance'
p5
aF67.2188663482666
aa(lp6
S'timestamp'
p7
aF7.807659864425659
aatp8
Rp9
.ccollections
OrderedDict
p0
((lp1
(lp2
S'state'
p3
aI0
aa(lp4
S'distance'
p5
aF67.2188663482666
aa(lp6
S'timestamp'
p7
aF7.80853796005249
aatp8
Rp9
.ccollections
OrderedDict
p0
((lp1
(lp2
S'state'
p3
aI0
aa(lp4
S'distance'
p5
aF67.2188663482666
aa(lp6
S'timestamp'
p7
aF7.837543964385986
aatp8
Rp9
.ccollections
OrderedDict
p0
((lp1
(lp2
S'state'
p3
aI0
aa(lp4
S'distance'
p5
aF67.2188663482666
aa(lp6
S'timestamp'
p7
aF7.8377509117126465
aatp8
Rp9
.ccollections
OrderedDict
p0
((lp1
(lp2
S'state'
p3
aI0
aa(lp4
S'distance'
p5
aF67.2188663482666
aa(lp6
S'timestamp'
p7
aF7.839125871658325
aatp8
Rp9
.ccollections
OrderedDict
p0
((lp1
(lp2
S'state'
p3
aI0
aa(lp4
S'distance'
p5
aF67.2188663482666
aa(lp6
S'timestamp'
p7
aF7.840386867523193
aatp8
Rp9
.ccollections
OrderedDict
p0
((lp1
(lp2
S'state'
p3
aI0
aa(lp4
S'distance'
p5
aF67.2188663482666
aa(lp6
S'timestamp'
p7
aF7.847321033477783
aatp8
Rp9
.ccollections
OrderedDict
p0
((lp1
(lp2
S'state'
p3
aI0
aa(lp4
S'distance'
p5
aF67.2188663482666
aa(lp6
S'timestamp'
p7
aF7.847465991973877
aatp8
Rp9
.ccollections
OrderedDict
p0
((lp1
(lp2
S'state'
p3
aI0
aa(lp4
S'distance'
p5
aF67.2188663482666
aa(lp6
S'timestamp'
p7
aF7.848477840423584
aatp8
Rp9
.ccollections
OrderedDict
p0
((lp1
(lp2
S'state'
p3
aI0
aa(lp4
S'distance'
p5
aF67.2188663482666
aa(lp6
S'timestamp'
p7
aF7.848909854888916
aatp8
Rp9
.ccollections
OrderedDict
p0
((lp1
(lp2
S'state'
p3
aI0
aa(lp4
S'distance'
p5
aF67.2188663482666
aa(lp6
S'timestamp'
p7
aF7.85719895362854
aatp8
Rp9
.ccollections
OrderedDict
p0
((lp1
(lp2
S'state'
p3
aI0
aa(lp4
S'distance'
p5
aF67.2188663482666
aa(lp6
S'timestamp'
p7
aF7.858338832855225
aatp8
Rp9
.ccollections
OrderedDict
p0
((lp1
(lp2
S'state'
p3
aI0
aa(lp4
S'distance'
p5
aF67.2188663482666
aa(lp6
S'timestamp'
p7
aF7.868001937866211
aatp8
Rp9
.ccollections
OrderedDict
p0
((lp1
(lp2
S'state'
p3
aI0
aa(lp4
S'distance'
p5
aF67.2188663482666
aa(lp6
S'timestamp'
p7
aF7.868089914321899
aatp8
Rp9
.ccollections
OrderedDict
p0
((lp1
(lp2
S'state'
p3
aI0
aa(lp4
S'distance'
p5
aF67.2188663482666
aa(lp6
S'timestamp'
p7
aF7.877236843109131
aatp8
Rp9
.ccollections
OrderedDict
p0
((lp1
(lp2
S'state'
p3
aI0
aa(lp4
S'distance'
p5
aF67.2188663482666
aa(lp6
S'timestamp'
p7
aF7.878247022628784
aatp8
Rp9
.ccollections
OrderedDict
p0
((lp1
(lp2
S'state'
p3
aI0
aa(lp4
S'distance'
p5
aF67.2188663482666
aa(lp6
S'timestamp'
p7
aF7.8874359130859375
aatp8
Rp9
.ccollections
OrderedDict
p0
((lp1
(lp2
S'state'
p3
aI0
aa(lp4
S'distance'
p5
aF67.2188663482666
aa(lp6
S'timestamp'
p7
aF7.887951850891113
aatp8
Rp9
.ccollections
OrderedDict
p0
((lp1
(lp2
S'state'
p3
aI0
aa(lp4
S'distance'
p5
aF67.2188663482666
aa(lp6
S'timestamp'
p7
aF7.898103952407837
aatp8
Rp9
.ccollections
OrderedDict
p0
((lp1
(lp2
S'state'
p3
aI0
aa(lp4
S'distance'
p5
aF67.2188663482666
aa(lp6
S'timestamp'
p7
aF7.898887872695923
aatp8
Rp9
.ccollections
OrderedDict
p0
((lp1
(lp2
S'state'
p3
aI0
aa(lp4
S'distance'
p5
aF67.2188663482666
aa(lp6
S'timestamp'
p7
aF7.907232999801636
aatp8
Rp9
.ccollections
OrderedDict
p0
((lp1
(lp2
S'state'
p3
aI0
aa(lp4
S'distance'
p5
aF67.2188663482666
aa(lp6
S'timestamp'
p7
aF7.907667875289917
aatp8
Rp9
.ccollections
OrderedDict
p0
((lp1
(lp2
S'state'
p3
aI0
aa(lp4
S'distance'
p5
aF67.2188663482666
aa(lp6
S'timestamp'
p7
aF7.917168855667114
aatp8
Rp9
.ccollections
OrderedDict
p0
((lp1
(lp2
S'state'
p3
aI0
aa(lp4
S'distance'
p5
aF67.2188663482666
aa(lp6
S'timestamp'
p7
aF7.917717933654785
aatp8
Rp9
.ccollections
OrderedDict
p0
((lp1
(lp2
S'state'
p3
aI0
aa(lp4
S'distance'
p5
aF67.2188663482666
aa(lp6
S'timestamp'
p7
aF7.928371906280518
aatp8
Rp9
.ccollections
OrderedDict
p0
((lp1
(lp2
S'state'
p3
aI0
aa(lp4
S'distance'
p5
aF67.2188663482666
aa(lp6
S'timestamp'
p7
aF7.9284749031066895
aatp8
Rp9
.ccollections
OrderedDict
p0
((lp1
(lp2
S'state'
p3
aI400
aa(lp4
S'distance'
p5
aF67.2188663482666
aa(lp6
S'timestamp'
p7
aF7.9383649826049805
aatp8
Rp9
.ccollections
OrderedDict
p0
((lp1
(lp2
S'state'
p3
aI400
aa(lp4
S'distance'
p5
aF67.2188663482666
aa(lp6
S'timestamp'
p7
aF7.938510894775391
aatp8
Rp9
.ccollections
OrderedDict
p0
((lp1
(lp2
S'state'
p3
aI400
aa(lp4
S'distance'
p5
aF67.2188663482666
aa(lp6
S'timestamp'
p7
aF7.9478678703308105
aatp8
Rp9
.ccollections
OrderedDict
p0
((lp1
(lp2
S'state'
p3
aI400
aa(lp4
S'distance'
p5
aF67.2188663482666
aa(lp6
S'timestamp'
p7
aF7.947945833206177
aatp8
Rp9
.ccollections
OrderedDict
p0
((lp1
(lp2
S'state'
p3
aI400
aa(lp4
S'distance'
p5
aF67.2188663482666
aa(lp6
S'timestamp'
p7
aF7.957546949386597
aatp8
Rp9
.ccollections
OrderedDict
p0
((lp1
(lp2
S'state'
p3
aI400
aa(lp4
S'distance'
p5
aF67.2188663482666
aa(lp6
S'timestamp'
p7
aF7.958176851272583
aatp8
Rp9
.ccollections
OrderedDict
p0
((lp1
(lp2
S'state'
p3
aI400
aa(lp4
S'distance'
p5
aF67.2188663482666
aa(lp6
S'timestamp'
p7
aF7.97264289855957
aatp8
Rp9
.ccollections
OrderedDict
p0
((lp1
(lp2
S'state'
p3
aI400
aa(lp4
S'distance'
p5
aF67.2188663482666
aa(lp6
S'timestamp'
p7
aF7.972779035568237
aatp8
Rp9
.ccollections
OrderedDict
p0
((lp1
(lp2
S'state'
p3
aI400
aa(lp4
S'distance'
p5
aF67.2188663482666
aa(lp6
S'timestamp'
p7
aF7.978456974029541
aatp8
Rp9
.ccollections
OrderedDict
p0
((lp1
(lp2
S'state'
p3
aI400
aa(lp4
S'distance'
p5
aF67.2188663482666
aa(lp6
S'timestamp'
p7
aF7.978688955307007
aatp8
Rp9
.ccollections
OrderedDict
p0
((lp1
(lp2
S'state'
p3
aI400
aa(lp4
S'distance'
p5
aF67.2188663482666
aa(lp6
S'timestamp'
p7
aF7.989293813705444
aatp8
Rp9
.ccollections
OrderedDict
p0
((lp1
(lp2
S'state'
p3
aI400
aa(lp4
S'distance'
p5
aF67.2188663482666
aa(lp6
S'timestamp'
p7
aF7.989476919174194
aatp8
Rp9
.ccollections
OrderedDict
p0
((lp1
(lp2
S'state'
p3
aI400
aa(lp4
S'distance'
p5
aF67.2188663482666
aa(lp6
S'timestamp'
p7
aF7.99734091758728
aatp8
Rp9
.ccollections
OrderedDict
p0
((lp1
(lp2
S'state'
p3
aI400
aa(lp4
S'distance'
p5
aF67.2188663482666
aa(lp6
S'timestamp'
p7
aF7.997743844985962
aatp8
Rp9
.