ccollections
OrderedDict
p0
((lp1
(lp2
S'state'
p3
aI0
aa(lp4
S'distance'
p5
aF374.735595703125
aa(lp6
S'timestamp'
p7
aF0.00022602081298828125
aatp8
Rp9
.ccollections
OrderedDict
p0
((lp1
(lp2
S'state'
p3
aI0
aa(lp4
S'distance'
p5
aF374.735595703125
aa(lp6
S'timestamp'
p7
aF0.009647130966186523
aatp8
Rp9
.ccollections
OrderedDict
p0
((lp1
(lp2
S'state'
p3
aI0
aa(lp4
S'distance'
p5
aF374.735595703125
aa(lp6
S'timestamp'
p7
aF0.00984811782836914
aatp8
Rp9
.ccollections
OrderedDict
p0
((lp1
(lp2
S'state'
p3
aI0
aa(lp4
S'distance'
p5
aF374.735595703125
aa(lp6
S'timestamp'
p7
aF0.02078700065612793
aatp8
Rp9
.ccollections
OrderedDict
p0
((lp1
(lp2
S'state'
p3
aI0
aa(lp4
S'distance'
p5
aF374.735595703125
aa(lp6
S'timestamp'
p7
aF0.021773099899291992
aatp8
Rp9
.ccollections
OrderedDict
p0
((lp1
(lp2
S'state'
p3
aI0
aa(lp4
S'distance'
p5
aF374.735595703125
aa(lp6
S'timestamp'
p7
aF0.031124114990234375
aatp8
Rp9
.ccollections
OrderedDict
p0
((lp1
(lp2
S'state'
p3
aI0
aa(lp4
S'distance'
p5
aF374.735595703125
aa(lp6
S'timestamp'
p7
aF0.031410932540893555
aatp8
Rp9
.ccollections
OrderedDict
p0
((lp1
(lp2
S'state'
p3
aI0
aa(lp4
S'distance'
p5
aF374.735595703125
aa(lp6
S'timestamp'
p7
aF0.039793968200683594
aatp8
Rp9
.ccollections
OrderedDict
p0
((lp1
(lp2
S'state'
p3
aI0
aa(lp4
S'distance'
p5
aF374.735595703125
aa(lp6
S'timestamp'
p7
aF0.040305137634277344
aatp8
Rp9
.ccollections
OrderedDict
p0
((lp1
(lp2
S'state'
p3
aI0
aa(lp4
S'distance'
p5
aF374.735595703125
aa(lp6
S'timestamp'
p7
aF0.049391984939575195
aatp8
Rp9
.ccollections
OrderedDict
p0
((lp1
(lp2
S'state'
p3
aI0
aa(lp4
S'distance'
p5
aF374.735595703125
aa(lp6
S'timestamp'
p7
aF0.050199031829833984
aatp8
Rp9
.ccollections
OrderedDict
p0
((lp1
(lp2
S'state'
p3
aI0
aa(lp4
S'distance'
p5
aF374.735595703125
aa(lp6
S'timestamp'
p7
aF0.05937600135803223
aatp8
Rp9
.ccollections
OrderedDict
p0
((lp1
(lp2
S'state'
p3
aI0
aa(lp4
S'distance'
p5
aF374.735595703125
aa(lp6
S'timestamp'
p7
aF0.05994701385498047
aatp8
Rp9
.ccollections
OrderedDict
p0
((lp1
(lp2
S'state'
p3
aI0
aa(lp4
S'distance'
p5
aF374.735595703125
aa(lp6
S'timestamp'
p7
aF0.06969213485717773
aatp8
Rp9
.ccollections
OrderedDict
p0
((lp1
(lp2
S'state'
p3
aI0
aa(lp4
S'distance'
p5
aF374.735595703125
aa(lp6
S'timestamp'
p7
aF0.07017111778259277
aatp8
Rp9
.ccollections
OrderedDict
p0
((lp1
(lp2
S'state'
p3
aI0
aa(lp4
S'distance'
p5
aF374.735595703125
aa(lp6
S'timestamp'
p7
aF0.07982993125915527
aatp8
Rp9
.ccollections
OrderedDict
p0
((lp1
(lp2
S'state'
p3
aI0
aa(lp4
S'distance'
p5
aF374.735595703125
aa(lp6
S'timestamp'
p7
aF0.07999205589294434
aatp8
Rp9
.ccollections
OrderedDict
p0
((lp1
(lp2
S'state'
p3
aI0
aa(lp4
S'distance'
p5
aF374.735595703125
aa(lp6
S'timestamp'
p7
aF0.08935213088989258
aatp8
Rp9
.ccollections
OrderedDict
p0
((lp1
(lp2
S'state'
p3
aI0
aa(lp4
S'distance'
p5
aF374.735595703125
aa(lp6
S'timestamp'
p7
aF0.09061098098754883
aatp8
Rp9
.ccollections
OrderedDict
p0
((lp1
(lp2
S'state'
p3
aI0
aa(lp4
S'distance'
p5
aF374.735595703125
aa(lp6
S'timestamp'
p7
aF0.09944510459899902
aatp8
Rp9
.ccollections
OrderedDict
p0
((lp1
(lp2
S'state'
p3
aI0
aa(lp4
S'distance'
p5
aF374.735595703125
aa(lp6
S'timestamp'
p7
aF0.09997200965881348
aatp8
Rp9
.ccollections
OrderedDict
p0
((lp1
(lp2
S'state'
p3
aI0
aa(lp4
S'distance'
p5
aF374.735595703125
aa(lp6
S'timestamp'
p7
aF0.11481499671936035
aatp8
Rp9
.ccollections
OrderedDict
p0
((lp1
(lp2
S'state'
p3
aI0
aa(lp4
S'distance'
p5
aF374.735595703125
aa(lp6
S'timestamp'
p7
aF0.11498403549194336
aatp8
Rp9
.ccollections
OrderedDict
p0
((lp1
(lp2
S'state'
p3
aI0
aa(lp4
S'distance'
p5
aF374.735595703125
aa(lp6
S'timestamp'
p7
aF0.11936807632446289
aatp8
Rp9
.ccollections
OrderedDict
p0
((lp1
(lp2
S'state'
p3
aI0
aa(lp4
S'distance'
p5
aF374.735595703125
aa(lp6
S'timestamp'
p7
aF0.1205439567565918
aatp8
Rp9
.ccollections
OrderedDict
p0
((lp1
(lp2
S'state'
p3
aI0
aa(lp4
S'distance'
p5
aF374.735595703125
aa(lp6
S'timestamp'
p7
aF0.1293809413909912
aatp8
Rp9
.ccollections
OrderedDict
p0
((lp1
(lp2
S'state'
p3
aI0
aa(lp4
S'distance'
p5
aF374.735595703125
aa(lp6
S'timestamp'
p7
aF0.13056206703186035
aatp8
Rp9
.ccollections
OrderedDict
p0
((lp1
(lp2
S'state'
p3
aI0
aa(lp4
S'distance'
p5
aF374.735595703125
aa(lp6
S'timestamp'
p7
aF0.1497039794921875
aatp8
Rp9
.ccollections
OrderedDict
p0
((lp1
(lp2
S'state'
p3
aI0
aa(lp4
S'distance'
p5
aF374.735595703125
aa(lp6
S'timestamp'
p7
aF0.1498279571533203
aatp8
Rp9
.ccollections
OrderedDict
p0
((lp1
(lp2
S'state'
p3
aI0
aa(lp4
S'distance'
p5
aF374.735595703125
aa(lp6
S'timestamp'
p7
aF0.15047502517700195
aatp8
Rp9
.ccollections
OrderedDict
p0
((lp1
(lp2
S'state'
p3
aI0
aa(lp4
S'distance'
p5
aF374.735595703125
aa(lp6
S'timestamp'
p7
aF0.15101313591003418
aatp8
Rp9
.ccollections
OrderedDict
p0
((lp1
(lp2
S'state'
p3
aI0
aa(lp4
S'distance'
p5
aF374.735595703125
aa(lp6
S'timestamp'
p7
aF0.15963196754455566
aatp8
Rp9
.ccollections
OrderedDict
p0
((lp1
(lp2
S'state'
p3
aI0
aa(lp4
S'distance'
p5
aF374.735595703125
aa(lp6
S'timestamp'
p7
aF0.15980100631713867
aatp8
Rp9
.ccollections
OrderedDict
p0
((lp1
(lp2
S'state'
p3
aI0
aa(lp4
S'distance'
p5
aF374.735595703125
aa(lp6
S'timestamp'
p7
aF0.16954898834228516
aatp8
Rp9
.ccollections
OrderedDict
p0
((lp1
(lp2
S'state'
p3
aI0
aa(lp4
S'distance'
p5
aF374.735595703125
aa(lp6
S'timestamp'
p7
aF0.17033004760742188
aatp8
Rp9
.ccollections
OrderedDict
p0
((lp1
(lp2
S'state'
p3
aI0
aa(lp4
S'distance'
p5
aF374.735595703125
aa(lp6
S'timestamp'
p7
aF0.17945504188537598
aatp8
Rp9
.ccollections
OrderedDict
p0
((lp1
(lp2
S'state'
p3
aI0
aa(lp4
S'distance'
p5
aF374.735595703125
aa(lp6
S'timestamp'
p7
aF0.1805131435394287
aatp8
Rp9
.ccollections
OrderedDict
p0
((lp1
(lp2
S'state'
p3
aI0
aa(lp4
S'distance'
p5
aF374.735595703125
aa(lp6
S'timestamp'
p7
aF0.18936896324157715
aatp8
Rp9
.ccollections
OrderedDict
p0
((lp1
(lp2
S'state'
p3
aI0
aa(lp4
S'distance'
p5
aF374.735595703125
aa(lp6
S'timestamp'
p7
aF0.19055914878845215
aatp8
Rp9
.ccollections
OrderedDict
p0
((lp1
(lp2
S'state'
p3
aI0
aa(lp4
S'distance'
p5
aF374.735595703125
aa(lp6
S'timestamp'
p7
aF0.19946908950805664
aatp8
Rp9
.ccollections
OrderedDict
p0
((lp1
(lp2
S'state'
p3
aI0
aa(lp4
S'distance'
p5
aF374.735595703125
aa(lp6
S'timestamp'
p7
aF0.1999819278717041
aatp8
Rp9
.ccollections
OrderedDict
p0
((lp1
(lp2
S'state'
p3
aI0
aa(lp4
S'distance'
p5
aF374.735595703125
aa(lp6
S'timestamp'
p7
aF0.20973706245422363
aatp8
Rp9
.ccollections
OrderedDict
p0
((lp1
(lp2
S'state'
p3
aI0
aa(lp4
S'distance'
p5
aF374.735595703125
aa(lp6
S'timestamp'
p7
aF0.21050095558166504
aatp8
Rp9
.ccollections
OrderedDict
p0
((lp1
(lp2
S'state'
p3
aI0
aa(lp4
S'distance'
p5
aF374.735595703125
aa(lp6
S'timestamp'
p7
aF0.21962594985961914
aatp8
Rp9
.ccollections
OrderedDict
p0
((lp1
(lp2
S'state'
p3
aI0
aa(lp4
S'distance'
p5
aF374.735595703125
aa(lp6
S'timestamp'
p7
aF0.22037696838378906
aatp8
Rp9
.ccollections
OrderedDict
p0
((lp1
(lp2
S'state'
p3
aI0
aa(lp4
S'distance'
p5
aF374.735595703125
aa(lp6
S'timestamp'
p7
aF0.22945809364318848
aatp8
Rp9
.ccollections
OrderedDict
p0
((lp1
(lp2
S'state'
p3
aI0
aa(lp4
S'distance'
p5
aF374.735595703125
aa(lp6
S'timestamp'
p7
aF0.23046207427978516
aatp8
Rp9
.ccollections
OrderedDict
p0
((lp1
(lp2
S'state'
p3
aI0
aa(lp4
S'distance'
p5
aF374.735595703125
aa(lp6
S'timestamp'
p7
aF0.2399139404296875
aatp8
Rp9
.ccollections
OrderedDict
p0
((lp1
(lp2
S'state'
p3
aI0
aa(lp4
S'distance'
p5
aF374.735595703125
aa(lp6
S'timestamp'
p7
aF0.24080896377563477
aatp8
Rp9
.ccollections
OrderedDict
p0
((lp1
(lp2
S'state'
p3
aI0
aa(lp4
S'distance'
p5
aF374.735595703125
aa(lp6
S'timestamp'
p7
aF0.24942612648010254
aatp8
Rp9
.ccollections
OrderedDict
p0
((lp1
(lp2
S'state'
p3
aI0
aa(lp4
S'distance'
p5
aF374.735595703125
aa(lp6
S'timestamp'
p7
aF0.2502479553222656
aatp8
Rp9
.ccollections
OrderedDict
p0
((lp1
(lp2
S'state'
p3
aI0
aa(lp4
S'distance'
p5
aF374.735595703125
aa(lp6
S'timestamp'
p7
aF0.25943613052368164
aatp8
Rp9
.ccollections
OrderedDict
p0
((lp1
(lp2
S'state'
p3
aI0
aa(lp4
S'distance'
p5
aF374.735595703125
aa(lp6
S'timestamp'
p7
aF0.26944494247436523
aatp8
Rp9
.ccollections
OrderedDict
p0
((lp1
(lp2
S'state'
p3
aI0
aa(lp4
S'distance'
p5
aF374.735595703125
aa(lp6
S'timestamp'
p7
aF0.2698049545288086
aatp8
Rp9
.ccollections
OrderedDict
p0
((lp1
(lp2
S'state'
p3
aI0
aa(lp4
S'distance'
p5
aF374.735595703125
aa(lp6
S'timestamp'
p7
aF0.270672082901001
aatp8
Rp9
.ccollections
OrderedDict
p0
((lp1
(lp2
S'state'
p3
aI0
aa(lp4
S'distance'
p5
aF374.735595703125
aa(lp6
S'timestamp'
p7
aF0.27953600883483887
aatp8
Rp9
.ccollections
OrderedDict
p0
((lp1
(lp2
S'state'
p3
aI0
aa(lp4
S'distance'
p5
aF374.735595703125
aa(lp6
S'timestamp'
p7
aF0.28049492835998535
aatp8
Rp9
.ccollections
OrderedDict
p0
((lp1
(lp2
S'state'
p3
aI0
aa(lp4
S'distance'
p5
aF374.735595703125
aa(lp6
S'timestamp'
p7
aF0.2894749641418457
aatp8
Rp9
.ccollections
OrderedDict
p0
((lp1
(lp2
S'state'
p3
aI0
aa(lp4
S'distance'
p5
aF374.735595703125
aa(lp6
S'timestamp'
p7
aF0.2899501323699951
aatp8
Rp9
.ccollections
OrderedDict
p0
((lp1
(lp2
S'state'
p3
aI0
aa(lp4
S'distance'
p5
aF374.735595703125
aa(lp6
S'timestamp'
p7
aF0.2997090816497803
aatp8
Rp9
.ccollections
OrderedDict
p0
((lp1
(lp2
S'state'
p3
aI0
aa(lp4
S'distance'
p5
aF374.735595703125
aa(lp6
S'timestamp'
p7
aF0.3006110191345215
aatp8
Rp9
.ccollections
OrderedDict
p0
((lp1
(lp2
S'state'
p3
aI0
aa(lp4
S'distance'
p5
aF374.735595703125
aa(lp6
S'timestamp'
p7
aF0.30940699577331543
aatp8
Rp9
.ccollections
OrderedDict
p0
((lp1
(lp2
S'state'
p3
aI0
aa(lp4
S'distance'
p5
aF374.735595703125
aa(lp6
S'timestamp'
p7
aF0.3105461597442627
aatp8
Rp9
.ccollections
OrderedDict
p0
((lp1
(lp2
S'state'
p3
aI0
aa(lp4
S'distance'
p5
aF374.735595703125
aa(lp6
S'timestamp'
p7
aF0.31941795349121094
aatp8
Rp9
.ccollections
OrderedDict
p0
((lp1
(lp2
S'state'
p3
aI0
aa(lp4
S'distance'
p5
aF374.735595703125
aa(lp6
S'timestamp'
p7
aF0.32035398483276367
aatp8
Rp9
.ccollections
OrderedDict
p0
((lp1
(lp2
S'state'
p3
aI0
aa(lp4
S'distance'
p5
aF374.735595703125
aa(lp6
S'timestamp'
p7
aF0.3293941020965576
aatp8
Rp9
.ccollections
OrderedDict
p0
((lp1
(lp2
S'state'
p3
aI0
aa(lp4
S'distance'
p5
aF374.735595703125
aa(lp6
S'timestamp'
p7
aF0.33031797409057617
aatp8
Rp9
.ccollections
OrderedDict
p0
((lp1
(lp2
S'state'
p3
aI0
aa(lp4
S'distance'
p5
aF374.735595703125
aa(lp6
S'timestamp'
p7
aF0.33971595764160156
aatp8
Rp9
.ccollections
OrderedDict
p0
((lp1
(lp2
S'state'
p3
aI0
aa(lp4
S'distance'
p5
aF374.735595703125
aa(lp6
S'timestamp'
p7
aF0.3406081199645996
aatp8
Rp9
.ccollections
OrderedDict
p0
((lp1
(lp2
S'state'
p3
aI0
aa(lp4
S'distance'
p5
aF374.735595703125
aa(lp6
S'timestamp'
p7
aF0.34966611862182617
aatp8
Rp9
.ccollections
OrderedDict
p0
((lp1
(lp2
S'state'
p3
aI0
aa(lp4
S'distance'
p5
aF374.735595703125
aa(lp6
S'timestamp'
p7
aF0.35050201416015625
aatp8
Rp9
.ccollections
OrderedDict
p0
((lp1
(lp2
S'state'
p3
aI0
aa(lp4
S'distance'
p5
aF374.735595703125
aa(lp6
S'timestamp'
p7
aF0.3594801425933838
aatp8
Rp9
.ccollections
OrderedDict
p0
((lp1
(lp2
S'state'
p3
aI0
aa(lp4
S'distance'
p5
aF374.735595703125
aa(lp6
S'timestamp'
p7
aF0.3607969284057617
aatp8
Rp9
.ccollections
OrderedDict
p0
((lp1
(lp2
S'state'
p3
aI0
aa(lp4
S'distance'
p5
aF374.735595703125
aa(lp6
S'timestamp'
p7
aF0.36947107315063477
aatp8
Rp9
.ccollections
OrderedDict
p0
((lp1
(lp2
S'state'
p3
aI0
aa(lp4
S'distance'
p5
aF374.735595703125
aa(lp6
S'timestamp'
p7
aF0.37017107009887695
aatp8
Rp9
.ccollections
OrderedDict
p0
((lp1
(lp2
S'state'
p3
aI0
aa(lp4
S'distance'
p5
aF374.735595703125
aa(lp6
S'timestamp'
p7
aF0.3797581195831299
aatp8
Rp9
.ccollections
OrderedDict
p0
((lp1
(lp2
S'state'
p3
aI0
aa(lp4
S'distance'
p5
aF374.735595703125
aa(lp6
S'timestamp'
p7
aF0.37996697425842285
aatp8
Rp9
.ccollections
OrderedDict
p0
((lp1
(lp2
S'state'
p3
aI0
aa(lp4
S'distance'
p5
aF374.735595703125
aa(lp6
S'timestamp'
p7
aF0.3898789882659912
aatp8
Rp9
.ccollections
OrderedDict
p0
((lp1
(lp2
S'state'
p3
aI0
aa(lp4
S'distance'
p5
aF374.735595703125
aa(lp6
S'timestamp'
p7
aF0.39003705978393555
aatp8
Rp9
.ccollections
OrderedDict
p0
((lp1
(lp2
S'state'
p3
aI0
aa(lp4
S'distance'
p5
aF374.735595703125
aa(lp6
S'timestamp'
p7
aF0.3995780944824219
aatp8
Rp9
.ccollections
OrderedDict
p0
((lp1
(lp2
S'state'
p3
aI0
aa(lp4
S'distance'
p5
aF374.735595703125
aa(lp6
S'timestamp'
p7
aF0.4000580310821533
aatp8
Rp9
.ccollections
OrderedDict
p0
((lp1
(lp2
S'state'
p3
aI0
aa(lp4
S'distance'
p5
aF374.735595703125
aa(lp6
S'timestamp'
p7
aF0.4094240665435791
aatp8
Rp9
.ccollections
OrderedDict
p0
((lp1
(lp2
S'state'
p3
aI0
aa(lp4
S'distance'
p5
aF374.735595703125
aa(lp6
S'timestamp'
p7
aF0.41060304641723633
aatp8
Rp9
.ccollections
OrderedDict
p0
((lp1
(lp2
S'state'
p3
aI0
aa(lp4
S'distance'
p5
aF374.735595703125
aa(lp6
S'timestamp'
p7
aF0.4195890426635742
aatp8
Rp9
.ccollections
OrderedDict
p0
((lp1
(lp2
S'state'
p3
aI0
aa(lp4
S'distance'
p5
aF374.735595703125
aa(lp6
S'timestamp'
p7
aF0.42047595977783203
aatp8
Rp9
.ccollections
OrderedDict
p0
((lp1
(lp2
S'state'
p3
aI0
aa(lp4
S'distance'
p5
aF374.735595703125
aa(lp6
S'timestamp'
p7
aF0.4295189380645752
aatp8
Rp9
.ccollections
OrderedDict
p0
((lp1
(lp2
S'state'
p3
aI0
aa(lp4
S'distance'
p5
aF374.735595703125
aa(lp6
S'timestamp'
p7
aF0.43050193786621094
aatp8
Rp9
.ccollections
OrderedDict
p0
((lp1
(lp2
S'state'
p3
aI0
aa(lp4
S'distance'
p5
aF374.735595703125
aa(lp6
S'timestamp'
p7
aF0.43982911109924316
aatp8
Rp9
.ccollections
OrderedDict
p0
((lp1
(lp2
S'state'
p3
aI0
aa(lp4
S'distance'
p5
aF374.735595703125
aa(lp6
S'timestamp'
p7
aF0.4405090808868408
aatp8
Rp9
.ccollections
OrderedDict
p0
((lp1
(lp2
S'state'
p3
aI0
aa(lp4
S'distance'
p5
aF374.735595703125
aa(lp6
S'timestamp'
p7
aF0.449660062789917
aatp8
Rp9
.ccollections
OrderedDict
p0
((lp1
(lp2
S'state'
p3
aI0
aa(lp4
S'distance'
p5
aF374.735595703125
aa(lp6
S'timestamp'
p7
aF0.4501650333404541
aatp8
Rp9
.ccollections
OrderedDict
p0
((lp1
(lp2
S'state'
p3
aI0
aa(lp4
S'distance'
p5
aF374.735595703125
aa(lp6
S'timestamp'
p7
aF0.45976710319519043
aatp8
Rp9
.ccollections
OrderedDict
p0
((lp1
(lp2
S'state'
p3
aI0
aa(lp4
S'distance'
p5
aF374.735595703125
aa(lp6
S'timestamp'
p7
aF0.4599800109863281
aatp8
Rp9
.ccollections
OrderedDict
p0
((lp1
(lp2
S'state'
p3
aI0
aa(lp4
S'distance'
p5
aF374.735595703125
aa(lp6
S'timestamp'
p7
aF0.469480037689209
aatp8
Rp9
.ccollections
OrderedDict
p0
((lp1
(lp2
S'state'
p3
aI0
aa(lp4
S'distance'
p5
aF374.735595703125
aa(lp6
S'timestamp'
p7
aF0.4706389904022217
aatp8
Rp9
.ccollections
OrderedDict
p0
((lp1
(lp2
S'state'
p3
aI0
aa(lp4
S'distance'
p5
aF374.735595703125
aa(lp6
S'timestamp'
p7
aF0.4794950485229492
aatp8
Rp9
.ccollections
OrderedDict
p0
((lp1
(lp2
S'state'
p3
aI0
aa(lp4
S'distance'
p5
aF374.735595703125
aa(lp6
S'timestamp'
p7
aF0.4805281162261963
aatp8
Rp9
.ccollections
OrderedDict
p0
((lp1
(lp2
S'state'
p3
aI0
aa(lp4
S'distance'
p5
aF374.735595703125
aa(lp6
S'timestamp'
p7
aF0.4997739791870117
aatp8
Rp9
.ccollections
OrderedDict
p0
((lp1
(lp2
S'state'
p3
aI0
aa(lp4
S'distance'
p5
aF374.735595703125
aa(lp6
S'timestamp'
p7
aF0.49997615814208984
aatp8
Rp9
.ccollections
OrderedDict
p0
((lp1
(lp2
S'state'
p3
aI0
aa(lp4
S'distance'
p5
aF374.735595703125
aa(lp6
S'timestamp'
p7
aF0.5010581016540527
aatp8
Rp9
.ccollections
OrderedDict
p0
((lp1
(lp2
S'state'
p3
aI0
aa(lp4
S'distance'
p5
aF374.735595703125
aa(lp6
S'timestamp'
p7
aF0.50189208984375
aatp8
Rp9
.ccollections
OrderedDict
p0
((lp1
(lp2
S'state'
p3
aI0
aa(lp4
S'distance'
p5
aF374.735595703125
aa(lp6
S'timestamp'
p7
aF0.5095210075378418
aatp8
Rp9
.ccollections
OrderedDict
p0
((lp1
(lp2
S'state'
p3
aI0
aa(lp4
S'distance'
p5
aF374.735595703125
aa(lp6
S'timestamp'
p7
aF0.5105581283569336
aatp8
Rp9
.ccollections
OrderedDict
p0
((lp1
(lp2
S'state'
p3
aI0
aa(lp4
S'distance'
p5
aF374.735595703125
aa(lp6
S'timestamp'
p7
aF0.5194640159606934
aatp8
Rp9
.ccollections
OrderedDict
p0
((lp1
(lp2
S'state'
p3
aI0
aa(lp4
S'distance'
p5
aF374.735595703125
aa(lp6
S'timestamp'
p7
aF0.5207509994506836
aatp8
Rp9
.ccollections
OrderedDict
p0
((lp1
(lp2
S'state'
p3
aI0
aa(lp4
S'distance'
p5
aF374.735595703125
aa(lp6
S'timestamp'
p7
aF0.5294189453125
aatp8
Rp9
.ccollections
OrderedDict
p0
((lp1
(lp2
S'state'
p3
aI0
aa(lp4
S'distance'
p5
aF374.735595703125
aa(lp6
S'timestamp'
p7
aF0.5305991172790527
aatp8
Rp9
.ccollections
OrderedDict
p0
((lp1
(lp2
S'state'
p3
aI0
aa(lp4
S'distance'
p5
aF374.735595703125
aa(lp6
S'timestamp'
p7
aF0.539680004119873
aatp8
Rp9
.ccollections
OrderedDict
p0
((lp1
(lp2
S'state'
p3
aI0
aa(lp4
S'distance'
p5
aF374.735595703125
aa(lp6
S'timestamp'
p7
aF0.5401830673217773
aatp8
Rp9
.ccollections
OrderedDict
p0
((lp1
(lp2
S'state'
p3
aI0
aa(lp4
S'distance'
p5
aF374.735595703125
aa(lp6
S'timestamp'
p7
aF0.5497751235961914
aatp8
Rp9
.ccollections
OrderedDict
p0
((lp1
(lp2
S'state'
p3
aI0
aa(lp4
S'distance'
p5
aF374.735595703125
aa(lp6
S'timestamp'
p7
aF0.5501420497894287
aatp8
Rp9
.ccollections
OrderedDict
p0
((lp1
(lp2
S'state'
p3
aI0
aa(lp4
S'distance'
p5
aF374.735595703125
aa(lp6
S'timestamp'
p7
aF0.5599291324615479
aatp8
Rp9
.ccollections
OrderedDict
p0
((lp1
(lp2
S'state'
p3
aI0
aa(lp4
S'distance'
p5
aF374.735595703125
aa(lp6
S'timestamp'
p7
aF0.5600910186767578
aatp8
Rp9
.ccollections
OrderedDict
p0
((lp1
(lp2
S'state'
p3
aI0
aa(lp4
S'distance'
p5
aF374.735595703125
aa(lp6
S'timestamp'
p7
aF0.5695240497589111
aatp8
Rp9
.ccollections
OrderedDict
p0
((lp1
(lp2
S'state'
p3
aI0
aa(lp4
S'distance'
p5
aF374.735595703125
aa(lp6
S'timestamp'
p7
aF0.5701160430908203
aatp8
Rp9
.ccollections
OrderedDict
p0
((lp1
(lp2
S'state'
p3
aI0
aa(lp4
S'distance'
p5
aF374.735595703125
aa(lp6
S'timestamp'
p7
aF0.5796220302581787
aatp8
Rp9
.ccollections
OrderedDict
p0
((lp1
(lp2
S'state'
p3
aI0
aa(lp4
S'distance'
p5
aF374.735595703125
aa(lp6
S'timestamp'
p7
aF0.5803220272064209
aatp8
Rp9
.ccollections
OrderedDict
p0
((lp1
(lp2
S'state'
p3
aI0
aa(lp4
S'distance'
p5
aF374.735595703125
aa(lp6
S'timestamp'
p7
aF0.5895321369171143
aatp8
Rp9
.ccollections
OrderedDict
p0
((lp1
(lp2
S'state'
p3
aI0
aa(lp4
S'distance'
p5
aF374.735595703125
aa(lp6
S'timestamp'
p7
aF0.5902969837188721
aatp8
Rp9
.ccollections
OrderedDict
p0
((lp1
(lp2
S'state'
p3
aI0
aa(lp4
S'distance'
p5
aF374.735595703125
aa(lp6
S'timestamp'
p7
aF0.5997071266174316
aatp8
Rp9
.ccollections
OrderedDict
p0
((lp1
(lp2
S'state'
p3
aI0
aa(lp4
S'distance'
p5
aF374.735595703125
aa(lp6
S'timestamp'
p7
aF0.6119351387023926
aatp8
Rp9
.ccollections
OrderedDict
p0
((lp1
(lp2
S'state'
p3
aI0
aa(lp4
S'distance'
p5
aF374.735595703125
aa(lp6
S'timestamp'
p7
aF0.6126980781555176
aatp8
Rp9
.ccollections
OrderedDict
p0
((lp1
(lp2
S'state'
p3
aI0
aa(lp4
S'distance'
p5
aF374.735595703125
aa(lp6
S'timestamp'
p7
aF0.6143350601196289
aatp8
Rp9
.ccollections
OrderedDict
p0
((lp1
(lp2
S'state'
p3
aI0
aa(lp4
S'distance'
p5
aF374.735595703125
aa(lp6
S'timestamp'
p7
aF0.6198151111602783
aatp8
Rp9
.ccollections
OrderedDict
p0
((lp1
(lp2
S'state'
p3
aI0
aa(lp4
S'distance'
p5
aF374.735595703125
aa(lp6
S'timestamp'
p7
aF0.6201479434967041
aatp8
Rp9
.ccollections
OrderedDict
p0
((lp1
(lp2
S'state'
p3
aI0
aa(lp4
S'distance'
p5
aF374.735595703125
aa(lp6
S'timestamp'
p7
aF0.6296589374542236
aatp8
Rp9
.ccollections
OrderedDict
p0
((lp1
(lp2
S'state'
p3
aI0
aa(lp4
S'distance'
p5
aF374.735595703125
aa(lp6
S'timestamp'
p7
aF0.6396570205688477
aatp8
Rp9
.ccollections
OrderedDict
p0
((lp1
(lp2
S'state'
p3
aI0
aa(lp4
S'distance'
p5
aF374.735595703125
aa(lp6
S'timestamp'
p7
aF0.6399199962615967
aatp8
Rp9
.ccollections
OrderedDict
p0
((lp1
(lp2
S'state'
p3
aI0
aa(lp4
S'distance'
p5
aF374.735595703125
aa(lp6
S'timestamp'
p7
aF0.6408159732818604
aatp8
Rp9
.ccollections
OrderedDict
p0
((lp1
(lp2
S'state'
p3
aI0
aa(lp4
S'distance'
p5
aF374.735595703125
aa(lp6
S'timestamp'
p7
aF0.6495139598846436
aatp8
Rp9
.ccollections
OrderedDict
p0
((lp1
(lp2
S'state'
p3
aI0
aa(lp4
S'distance'
p5
aF374.735595703125
aa(lp6
S'timestamp'
p7
aF0.6504809856414795
aatp8
Rp9
.ccollections
OrderedDict
p0
((lp1
(lp2
S'state'
p3
aI0
aa(lp4
S'distance'
p5
aF374.735595703125
aa(lp6
S'timestamp'
p7
aF0.6597449779510498
aatp8
Rp9
.ccollections
OrderedDict
p0
((lp1
(lp2
S'state'
p3
aI0
aa(lp4
S'distance'
p5
aF374.735595703125
aa(lp6
S'timestamp'
p7
aF0.6603450775146484
aatp8
Rp9
.ccollections
OrderedDict
p0
((lp1
(lp2
S'state'
p3
aI0
aa(lp4
S'distance'
p5
aF374.735595703125
aa(lp6
S'timestamp'
p7
aF0.6700611114501953
aatp8
Rp9
.ccollections
OrderedDict
p0
((lp1
(lp2
S'state'
p3
aI0
aa(lp4
S'distance'
p5
aF374.735595703125
aa(lp6
S'timestamp'
p7
aF0.6702160835266113
aatp8
Rp9
.ccollections
OrderedDict
p0
((lp1
(lp2
S'state'
p3
aI0
aa(lp4
S'distance'
p5
aF374.735595703125
aa(lp6
S'timestamp'
p7
aF0.6795411109924316
aatp8
Rp9
.ccollections
OrderedDict
p0
((lp1
(lp2
S'state'
p3
aI0
aa(lp4
S'distance'
p5
aF374.735595703125
aa(lp6
S'timestamp'
p7
aF0.6800949573516846
aatp8
Rp9
.ccollections
OrderedDict
p0
((lp1
(lp2
S'state'
p3
aI0
aa(lp4
S'distance'
p5
aF374.735595703125
aa(lp6
S'timestamp'
p7
aF0.6895251274108887
aatp8
Rp9
.ccollections
OrderedDict
p0
((lp1
(lp2
S'state'
p3
aI0
aa(lp4
S'distance'
p5
aF374.735595703125
aa(lp6
S'timestamp'
p7
aF0.6908400058746338
aatp8
Rp9
.ccollections
OrderedDict
p0
((lp1
(lp2
S'state'
p3
aI0
aa(lp4
S'distance'
p5
aF374.735595703125
aa(lp6
S'timestamp'
p7
aF0.6997430324554443
aatp8
Rp9
.ccollections
OrderedDict
p0
((lp1
(lp2
S'state'
p3
aI0
aa(lp4
S'distance'
p5
aF374.735595703125
aa(lp6
S'timestamp'
p7
aF0.7008740901947021
aatp8
Rp9
.ccollections
OrderedDict
p0
((lp1
(lp2
S'state'
p3
aI0
aa(lp4
S'distance'
p5
aF374.735595703125
aa(lp6
S'timestamp'
p7
aF0.7097029685974121
aatp8
Rp9
.ccollections
OrderedDict
p0
((lp1
(lp2
S'state'
p3
aI0
aa(lp4
S'distance'
p5
aF374.735595703125
aa(lp6
S'timestamp'
p7
aF0.710576057434082
aatp8
Rp9
.ccollections
OrderedDict
p0
((lp1
(lp2
S'state'
p3
aI0
aa(lp4
S'distance'
p5
aF374.735595703125
aa(lp6
S'timestamp'
p7
aF0.7194559574127197
aatp8
Rp9
.ccollections
OrderedDict
p0
((lp1
(lp2
S'state'
p3
aI0
aa(lp4
S'distance'
p5
aF374.735595703125
aa(lp6
S'timestamp'
p7
aF0.7212059497833252
aatp8
Rp9
.ccollections
OrderedDict
p0
((lp1
(lp2
S'state'
p3
aI0
aa(lp4
S'distance'
p5
aF374.735595703125
aa(lp6
S'timestamp'
p7
aF0.7295610904693604
aatp8
Rp9
.ccollections
OrderedDict
p0
((lp1
(lp2
S'state'
p3
aI0
aa(lp4
S'distance'
p5
aF374.735595703125
aa(lp6
S'timestamp'
p7
aF0.7302660942077637
aatp8
Rp9
.ccollections
OrderedDict
p0
((lp1
(lp2
S'state'
p3
aI0
aa(lp4
S'distance'
p5
aF374.735595703125
aa(lp6
S'timestamp'
p7
aF0.7400050163269043
aatp8
Rp9
.ccollections
OrderedDict
p0
((lp1
(lp2
S'state'
p3
aI0
aa(lp4
S'distance'
p5
aF374.735595703125
aa(lp6
S'timestamp'
p7
aF0.7401680946350098
aatp8
Rp9
.ccollections
OrderedDict
p0
((lp1
(lp2
S'state'
p3
aI0
aa(lp4
S'distance'
p5
aF374.735595703125
aa(lp6
S'timestamp'
p7
aF0.749824047088623
aatp8
Rp9
.ccollections
OrderedDict
p0
((lp1
(lp2
S'state'
p3
aI0
aa(lp4
S'distance'
p5
aF374.735595703125
aa(lp6
S'timestamp'
p7
aF0.7500419616699219
aatp8
Rp9
.ccollections
OrderedDict
p0
((lp1
(lp2
S'state'
p3
aI0
aa(lp4
S'distance'
p5
aF374.735595703125
aa(lp6
S'timestamp'
p7
aF0.7597639560699463
aatp8
Rp9
.ccollections
OrderedDict
p0
((lp1
(lp2
S'state'
p3
aI0
aa(lp4
S'distance'
p5
aF374.735595703125
aa(lp6
S'timestamp'
p7
aF0.7610111236572266
aatp8
Rp9
.ccollections
OrderedDict
p0
((lp1
(lp2
S'state'
p3
aI0
aa(lp4
S'distance'
p5
aF374.735595703125
aa(lp6
S'timestamp'
p7
aF0.7695939540863037
aatp8
Rp9
.ccollections
OrderedDict
p0
((lp1
(lp2
S'state'
p3
aI0
aa(lp4
S'distance'
p5
aF374.735595703125
aa(lp6
S'timestamp'
p7
aF0.7705371379852295
aatp8
Rp9
.ccollections
OrderedDict
p0
((lp1
(lp2
S'state'
p3
aI0
aa(lp4
S'distance'
p5
aF374.735595703125
aa(lp6
S'timestamp'
p7
aF0.7795820236206055
aatp8
Rp9
.ccollections
OrderedDict
p0
((lp1
(lp2
S'state'
p3
aI0
aa(lp4
S'distance'
p5
aF374.735595703125
aa(lp6
S'timestamp'
p7
aF0.7808301448822021
aatp8
Rp9
.ccollections
OrderedDict
p0
((lp1
(lp2
S'state'
p3
aI0
aa(lp4
S'distance'
p5
aF374.735595703125
aa(lp6
S'timestamp'
p7
aF0.7897500991821289
aatp8
Rp9
.ccollections
OrderedDict
p0
((lp1
(lp2
S'state'
p3
aI0
aa(lp4
S'distance'
p5
aF374.735595703125
aa(lp6
S'timestamp'
p7
aF0.7904329299926758
aatp8
Rp9
.ccollections
OrderedDict
p0
((lp1
(lp2
S'state'
p3
aI0
aa(lp4
S'distance'
p5
aF374.735595703125
aa(lp6
S'timestamp'
p7
aF0.7997570037841797
aatp8
Rp9
.ccollections
OrderedDict
p0
((lp1
(lp2
S'state'
p3
aI0
aa(lp4
S'distance'
p5
aF374.735595703125
aa(lp6
S'timestamp'
p7
aF0.8002281188964844
aatp8
Rp9
.ccollections
OrderedDict
p0
((lp1
(lp2
S'state'
p3
aI0
aa(lp4
S'distance'
p5
aF374.735595703125
aa(lp6
S'timestamp'
p7
aF0.8096871376037598
aatp8
Rp9
.ccollections
OrderedDict
p0
((lp1
(lp2
S'state'
p3
aI0
aa(lp4
S'distance'
p5
aF374.735595703125
aa(lp6
S'timestamp'
p7
aF0.8100490570068359
aatp8
Rp9
.ccollections
OrderedDict
p0
((lp1
(lp2
S'state'
p3
aI0
aa(lp4
S'distance'
p5
aF374.735595703125
aa(lp6
S'timestamp'
p7
aF0.8196020126342773
aatp8
Rp9
.ccollections
OrderedDict
p0
((lp1
(lp2
S'state'
p3
aI0
aa(lp4
S'distance'
p5
aF374.735595703125
aa(lp6
S'timestamp'
p7
aF0.8204360008239746
aatp8
Rp9
.ccollections
OrderedDict
p0
((lp1
(lp2
S'state'
p3
aI0
aa(lp4
S'distance'
p5
aF374.735595703125
aa(lp6
S'timestamp'
p7
aF0.8295869827270508
aatp8
Rp9
.ccollections
OrderedDict
p0
((lp1
(lp2
S'state'
p3
aI0
aa(lp4
S'distance'
p5
aF374.735595703125
aa(lp6
S'timestamp'
p7
aF0.8309390544891357
aatp8
Rp9
.ccollections
OrderedDict
p0
((lp1
(lp2
S'state'
p3
aI0
aa(lp4
S'distance'
p5
aF374.735595703125
aa(lp6
S'timestamp'
p7
aF0.8397819995880127
aatp8
Rp9
.ccollections
OrderedDict
p0
((lp1
(lp2
S'state'
p3
aI0
aa(lp4
S'distance'
p5
aF374.735595703125
aa(lp6
S'timestamp'
p7
aF0.8404030799865723
aatp8
Rp9
.ccollections
OrderedDict
p0
((lp1
(lp2
S'state'
p3
aI0
aa(lp4
S'distance'
p5
aF374.735595703125
aa(lp6
S'timestamp'
p7
aF0.849621057510376
aatp8
Rp9
.ccollections
OrderedDict
p0
((lp1
(lp2
S'state'
p3
aI0
aa(lp4
S'distance'
p5
aF374.735595703125
aa(lp6
S'timestamp'
p7
aF0.8501899242401123
aatp8
Rp9
.ccollections
OrderedDict
p0
((lp1
(lp2
S'state'
p3
aI0
aa(lp4
S'distance'
p5
aF374.735595703125
aa(lp6
S'timestamp'
p7
aF0.8595890998840332
aatp8
Rp9
.ccollections
OrderedDict
p0
((lp1
(lp2
S'state'
p3
aI0
aa(lp4
S'distance'
p5
aF374.735595703125
aa(lp6
S'timestamp'
p7
aF0.8602099418640137
aatp8
Rp9
.ccollections
OrderedDict
p0
((lp1
(lp2
S'state'
p3
aI0
aa(lp4
S'distance'
p5
aF374.735595703125
aa(lp6
S'timestamp'
p7
aF0.8697121143341064
aatp8
Rp9
.ccollections
OrderedDict
p0
((lp1
(lp2
S'state'
p3
aI0
aa(lp4
S'distance'
p5
aF374.735595703125
aa(lp6
S'timestamp'
p7
aF0.8706021308898926
aatp8
Rp9
.ccollections
OrderedDict
p0
((lp1
(lp2
S'state'
p3
aI0
aa(lp4
S'distance'
p5
aF374.735595703125
aa(lp6
S'timestamp'
p7
aF0.8796060085296631
aatp8
Rp9
.ccollections
OrderedDict
p0
((lp1
(lp2
S'state'
p3
aI0
aa(lp4
S'distance'
p5
aF374.735595703125
aa(lp6
S'timestamp'
p7
aF0.8803379535675049
aatp8
Rp9
.ccollections
OrderedDict
p0
((lp1
(lp2
S'state'
p3
aI0
aa(lp4
S'distance'
p5
aF374.735595703125
aa(lp6
S'timestamp'
p7
aF0.8896019458770752
aatp8
Rp9
.ccollections
OrderedDict
p0
((lp1
(lp2
S'state'
p3
aI0
aa(lp4
S'distance'
p5
aF374.735595703125
aa(lp6
S'timestamp'
p7
aF0.8901870250701904
aatp8
Rp9
.ccollections
OrderedDict
p0
((lp1
(lp2
S'state'
p3
aI0
aa(lp4
S'distance'
p5
aF374.735595703125
aa(lp6
S'timestamp'
p7
aF0.899791955947876
aatp8
Rp9
.ccollections
OrderedDict
p0
((lp1
(lp2
S'state'
p3
aI0
aa(lp4
S'distance'
p5
aF374.735595703125
aa(lp6
S'timestamp'
p7
aF0.9004459381103516
aatp8
Rp9
.ccollections
OrderedDict
p0
((lp1
(lp2
S'state'
p3
aI0
aa(lp4
S'distance'
p5
aF374.735595703125
aa(lp6
S'timestamp'
p7
aF0.9100539684295654
aatp8
Rp9
.ccollections
OrderedDict
p0
((lp1
(lp2
S'state'
p3
aI0
aa(lp4
S'distance'
p5
aF374.735595703125
aa(lp6
S'timestamp'
p7
aF0.9102160930633545
aatp8
Rp9
.ccollections
OrderedDict
p0
((lp1
(lp2
S'state'
p3
aI0
aa(lp4
S'distance'
p5
aF374.735595703125
aa(lp6
S'timestamp'
p7
aF0.9199490547180176
aatp8
Rp9
.ccollections
OrderedDict
p0
((lp1
(lp2
S'state'
p3
aI0
aa(lp4
S'distance'
p5
aF374.735595703125
aa(lp6
S'timestamp'
p7
aF0.9208920001983643
aatp8
Rp9
.ccollections
OrderedDict
p0
((lp1
(lp2
S'state'
p3
aI0
aa(lp4
S'distance'
p5
aF374.735595703125
aa(lp6
S'timestamp'
p7
aF0.929495096206665
aatp8
Rp9
.ccollections
OrderedDict
p0
((lp1
(lp2
S'state'
p3
aI0
aa(lp4
S'distance'
p5
aF374.735595703125
aa(lp6
S'timestamp'
p7
aF0.9307689666748047
aatp8
Rp9
.ccollections
OrderedDict
p0
((lp1
(lp2
S'state'
p3
aI0
aa(lp4
S'distance'
p5
aF374.735595703125
aa(lp6
S'timestamp'
p7
aF0.9395229816436768
aatp8
Rp9
.ccollections
OrderedDict
p0
((lp1
(lp2
S'state'
p3
aI0
aa(lp4
S'distance'
p5
aF374.735595703125
aa(lp6
S'timestamp'
p7
aF0.9405460357666016
aatp8
Rp9
.ccollections
OrderedDict
p0
((lp1
(lp2
S'state'
p3
aI0
aa(lp4
S'distance'
p5
aF374.735595703125
aa(lp6
S'timestamp'
p7
aF0.9496300220489502
aatp8
Rp9
.ccollections
OrderedDict
p0
((lp1
(lp2
S'state'
p3
aI0
aa(lp4
S'distance'
p5
aF374.735595703125
aa(lp6
S'timestamp'
p7
aF0.9511439800262451
aatp8
Rp9
.ccollections
OrderedDict
p0
((lp1
(lp2
S'state'
p3
aI0
aa(lp4
S'distance'
p5
aF374.735595703125
aa(lp6
S'timestamp'
p7
aF0.9599249362945557
aatp8
Rp9
.ccollections
OrderedDict
p0
((lp1
(lp2
S'state'
p3
aI0
aa(lp4
S'distance'
p5
aF374.735595703125
aa(lp6
S'timestamp'
p7
aF0.9601161479949951
aatp8
Rp9
.ccollections
OrderedDict
p0
((lp1
(lp2
S'state'
p3
aI0
aa(lp4
S'distance'
p5
aF374.735595703125
aa(lp6
S'timestamp'
p7
aF0.9696061611175537
aatp8
Rp9
.ccollections
OrderedDict
p0
((lp1
(lp2
S'state'
p3
aI0
aa(lp4
S'distance'
p5
aF374.735595703125
aa(lp6
S'timestamp'
p7
aF0.9703741073608398
aatp8
Rp9
.ccollections
OrderedDict
p0
((lp1
(lp2
S'state'
p3
aI0
aa(lp4
S'distance'
p5
aF374.735595703125
aa(lp6
S'timestamp'
p7
aF0.9796090126037598
aatp8
Rp9
.ccollections
OrderedDict
p0
((lp1
(lp2
S'state'
p3
aI0
aa(lp4
S'distance'
p5
aF374.735595703125
aa(lp6
S'timestamp'
p7
aF0.9803180694580078
aatp8
Rp9
.ccollections
OrderedDict
p0
((lp1
(lp2
S'state'
p3
aI0
aa(lp4
S'distance'
p5
aF374.735595703125
aa(lp6
S'timestamp'
p7
aF0.9896280765533447
aatp8
Rp9
.ccollections
OrderedDict
p0
((lp1
(lp2
S'state'
p3
aI0
aa(lp4
S'distance'
p5
aF374.735595703125
aa(lp6
S'timestamp'
p7
aF0.9906589984893799
aatp8
Rp9
.ccollections
OrderedDict
p0
((lp1
(lp2
S'state'
p3
aI0
aa(lp4
S'distance'
p5
aF374.735595703125
aa(lp6
S'timestamp'
p7
aF0.9996621608734131
aatp8
Rp9
.ccollections
OrderedDict
p0
((lp1
(lp2
S'state'
p3
aI0
aa(lp4
S'distance'
p5
aF374.735595703125
aa(lp6
S'timestamp'
p7
aF1.0097849369049072
aatp8
Rp9
.ccollections
OrderedDict
p0
((lp1
(lp2
S'state'
p3
aI0
aa(lp4
S'distance'
p5
aF374.735595703125
aa(lp6
S'timestamp'
p7
aF1.0099811553955078
aatp8
Rp9
.ccollections
OrderedDict
p0
((lp1
(lp2
S'state'
p3
aI0
aa(lp4
S'distance'
p5
aF374.735595703125
aa(lp6
S'timestamp'
p7
aF1.0109729766845703
aatp8
Rp9
.ccollections
OrderedDict
p0
((lp1
(lp2
S'state'
p3
aI0
aa(lp4
S'distance'
p5
aF374.735595703125
aa(lp6
S'timestamp'
p7
aF1.0198731422424316
aatp8
Rp9
.ccollections
OrderedDict
p0
((lp1
(lp2
S'state'
p3
aI0
aa(lp4
S'distance'
p5
aF374.735595703125
aa(lp6
S'timestamp'
p7
aF1.0202500820159912
aatp8
Rp9
.ccollections
OrderedDict
p0
((lp1
(lp2
S'state'
p3
aI0
aa(lp4
S'distance'
p5
aF374.735595703125
aa(lp6
S'timestamp'
p7
aF1.0295701026916504
aatp8
Rp9
.ccollections
OrderedDict
p0
((lp1
(lp2
S'state'
p3
aI0
aa(lp4
S'distance'
p5
aF374.735595703125
aa(lp6
S'timestamp'
p7
aF1.030928134918213
aatp8
Rp9
.ccollections
OrderedDict
p0
((lp1
(lp2
S'state'
p3
aI0
aa(lp4
S'distance'
p5
aF374.735595703125
aa(lp6
S'timestamp'
p7
aF1.0395801067352295
aatp8
Rp9
.ccollections
OrderedDict
p0
((lp1
(lp2
S'state'
p3
aI0
aa(lp4
S'distance'
p5
aF374.735595703125
aa(lp6
S'timestamp'
p7
aF1.0413520336151123
aatp8
Rp9
.ccollections
OrderedDict
p0
((lp1
(lp2
S'state'
p3
aI0
aa(lp4
S'distance'
p5
aF374.735595703125
aa(lp6
S'timestamp'
p7
aF1.049544095993042
aatp8
Rp9
.ccollections
OrderedDict
p0
((lp1
(lp2
S'state'
p3
aI0
aa(lp4
S'distance'
p5
aF374.735595703125
aa(lp6
S'timestamp'
p7
aF1.05098295211792
aatp8
Rp9
.ccollections
OrderedDict
p0
((lp1
(lp2
S'state'
p3
aI0
aa(lp4
S'distance'
p5
aF374.735595703125
aa(lp6
S'timestamp'
p7
aF1.059831142425537
aatp8
Rp9
.ccollections
OrderedDict
p0
((lp1
(lp2
S'state'
p3
aI0
aa(lp4
S'distance'
p5
aF374.735595703125
aa(lp6
S'timestamp'
p7
aF1.060455083847046
aatp8
Rp9
.ccollections
OrderedDict
p0
((lp1
(lp2
S'state'
p3
aI0
aa(lp4
S'distance'
p5
aF374.735595703125
aa(lp6
S'timestamp'
p7
aF1.069612979888916
aatp8
Rp9
.ccollections
OrderedDict
p0
((lp1
(lp2
S'state'
p3
aI0
aa(lp4
S'distance'
p5
aF374.735595703125
aa(lp6
S'timestamp'
p7
aF1.070552110671997
aatp8
Rp9
.ccollections
OrderedDict
p0
((lp1
(lp2
S'state'
p3
aI0
aa(lp4
S'distance'
p5
aF374.735595703125
aa(lp6
S'timestamp'
p7
aF1.0797770023345947
aatp8
Rp9
.ccollections
OrderedDict
p0
((lp1
(lp2
S'state'
p3
aI0
aa(lp4
S'distance'
p5
aF374.735595703125
aa(lp6
S'timestamp'
p7
aF1.0802421569824219
aatp8
Rp9
.ccollections
OrderedDict
p0
((lp1
(lp2
S'state'
p3
aI0
aa(lp4
S'distance'
p5
aF374.735595703125
aa(lp6
S'timestamp'
p7
aF1.0895190238952637
aatp8
Rp9
.ccollections
OrderedDict
p0
((lp1
(lp2
S'state'
p3
aI0
aa(lp4
S'distance'
p5
aF374.735595703125
aa(lp6
S'timestamp'
p7
aF1.090757131576538
aatp8
Rp9
.ccollections
OrderedDict
p0
((lp1
(lp2
S'state'
p3
aI0
aa(lp4
S'distance'
p5
aF374.735595703125
aa(lp6
S'timestamp'
p7
aF1.0998871326446533
aatp8
Rp9
.ccollections
OrderedDict
p0
((lp1
(lp2
S'state'
p3
aI0
aa(lp4
S'distance'
p5
aF374.735595703125
aa(lp6
S'timestamp'
p7
aF1.1004650592803955
aatp8
Rp9
.ccollections
OrderedDict
p0
((lp1
(lp2
S'state'
p3
aI0
aa(lp4
S'distance'
p5
aF374.735595703125
aa(lp6
S'timestamp'
p7
aF1.109827995300293
aatp8
Rp9
.ccollections
OrderedDict
p0
((lp1
(lp2
S'state'
p3
aI0
aa(lp4
S'distance'
p5
aF374.735595703125
aa(lp6
S'timestamp'
p7
aF1.1104710102081299
aatp8
Rp9
.ccollections
OrderedDict
p0
((lp1
(lp2
S'state'
p3
aI0
aa(lp4
S'distance'
p5
aF374.735595703125
aa(lp6
S'timestamp'
p7
aF1.1198561191558838
aatp8
Rp9
.ccollections
OrderedDict
p0
((lp1
(lp2
S'state'
p3
aI0
aa(lp4
S'distance'
p5
aF374.735595703125
aa(lp6
S'timestamp'
p7
aF1.121243953704834
aatp8
Rp9
.ccollections
OrderedDict
p0
((lp1
(lp2
S'state'
p3
aI0
aa(lp4
S'distance'
p5
aF374.735595703125
aa(lp6
S'timestamp'
p7
aF1.1295089721679688
aatp8
Rp9
.ccollections
OrderedDict
p0
((lp1
(lp2
S'state'
p3
aI0
aa(lp4
S'distance'
p5
aF374.735595703125
aa(lp6
S'timestamp'
p7
aF1.1305530071258545
aatp8
Rp9
.ccollections
OrderedDict
p0
((lp1
(lp2
S'state'
p3
aI0
aa(lp4
S'distance'
p5
aF374.735595703125
aa(lp6
S'timestamp'
p7
aF1.1398539543151855
aatp8
Rp9
.ccollections
OrderedDict
p0
((lp1
(lp2
S'state'
p3
aI0
aa(lp4
S'distance'
p5
aF374.735595703125
aa(lp6
S'timestamp'
p7
aF1.1402759552001953
aatp8
Rp9
.ccollections
OrderedDict
p0
((lp1
(lp2
S'state'
p3
aI0
aa(lp4
S'distance'
p5
aF374.735595703125
aa(lp6
S'timestamp'
p7
aF1.149811029434204
aatp8
Rp9
.ccollections
OrderedDict
p0
((lp1
(lp2
S'state'
p3
aI0
aa(lp4
S'distance'
p5
aF374.735595703125
aa(lp6
S'timestamp'
p7
aF1.150270938873291
aatp8
Rp9
.ccollections
OrderedDict
p0
((lp1
(lp2
S'state'
p3
aI0
aa(lp4
S'distance'
p5
aF374.735595703125
aa(lp6
S'timestamp'
p7
aF1.1599221229553223
aatp8
Rp9
.ccollections
OrderedDict
p0
((lp1
(lp2
S'state'
p3
aI0
aa(lp4
S'distance'
p5
aF374.735595703125
aa(lp6
S'timestamp'
p7
aF1.1601459980010986
aatp8
Rp9
.ccollections
OrderedDict
p0
((lp1
(lp2
S'state'
p3
aI0
aa(lp4
S'distance'
p5
aF374.735595703125
aa(lp6
S'timestamp'
p7
aF1.1695449352264404
aatp8
Rp9
.ccollections
OrderedDict
p0
((lp1
(lp2
S'state'
p3
aI0
aa(lp4
S'distance'
p5
aF374.735595703125
aa(lp6
S'timestamp'
p7
aF1.170551061630249
aatp8
Rp9
.ccollections
OrderedDict
p0
((lp1
(lp2
S'state'
p3
aI0
aa(lp4
S'distance'
p5
aF374.735595703125
aa(lp6
S'timestamp'
p7
aF1.1796979904174805
aatp8
Rp9
.ccollections
OrderedDict
p0
((lp1
(lp2
S'state'
p3
aI0
aa(lp4
S'distance'
p5
aF374.735595703125
aa(lp6
S'timestamp'
p7
aF1.180483102798462
aatp8
Rp9
.ccollections
OrderedDict
p0
((lp1
(lp2
S'state'
p3
aI0
aa(lp4
S'distance'
p5
aF374.735595703125
aa(lp6
S'timestamp'
p7
aF1.1898119449615479
aatp8
Rp9
.ccollections
OrderedDict
p0
((lp1
(lp2
S'state'
p3
aI0
aa(lp4
S'distance'
p5
aF374.735595703125
aa(lp6
S'timestamp'
p7
aF1.190467119216919
aatp8
Rp9
.ccollections
OrderedDict
p0
((lp1
(lp2
S'state'
p3
aI0
aa(lp4
S'distance'
p5
aF374.735595703125
aa(lp6
S'timestamp'
p7
aF1.1999471187591553
aatp8
Rp9
.ccollections
OrderedDict
p0
((lp1
(lp2
S'state'
p3
aI0
aa(lp4
S'distance'
p5
aF374.735595703125
aa(lp6
S'timestamp'
p7
aF1.20058012008667
aatp8
Rp9
.ccollections
OrderedDict
p0
((lp1
(lp2
S'state'
p3
aI0
aa(lp4
S'distance'
p5
aF374.735595703125
aa(lp6
S'timestamp'
p7
aF1.2106411457061768
aatp8
Rp9
.ccollections
OrderedDict
p0
((lp1
(lp2
S'state'
p3
aI0
aa(lp4
S'distance'
p5
aF374.735595703125
aa(lp6
S'timestamp'
p7
aF1.2127690315246582
aatp8
Rp9
.ccollections
OrderedDict
p0
((lp1
(lp2
S'state'
p3
aI0
aa(lp4
S'distance'
p5
aF374.735595703125
aa(lp6
S'timestamp'
p7
aF1.2198350429534912
aatp8
Rp9
.ccollections
OrderedDict
p0
((lp1
(lp2
S'state'
p3
aI0
aa(lp4
S'distance'
p5
aF374.735595703125
aa(lp6
S'timestamp'
p7
aF1.2206921577453613
aatp8
Rp9
.ccollections
OrderedDict
p0
((lp1
(lp2
S'state'
p3
aI0
aa(lp4
S'distance'
p5
aF374.735595703125
aa(lp6
S'timestamp'
p7
aF1.2299790382385254
aatp8
Rp9
.ccollections
OrderedDict
p0
((lp1
(lp2
S'state'
p3
aI0
aa(lp4
S'distance'
p5
aF374.735595703125
aa(lp6
S'timestamp'
p7
aF1.2301721572875977
aatp8
Rp9
.ccollections
OrderedDict
p0
((lp1
(lp2
S'state'
p3
aI0
aa(lp4
S'distance'
p5
aF374.735595703125
aa(lp6
S'timestamp'
p7
aF1.2399179935455322
aatp8
Rp9
.ccollections
OrderedDict
p0
((lp1
(lp2
S'state'
p3
aI0
aa(lp4
S'distance'
p5
aF374.735595703125
aa(lp6
S'timestamp'
p7
aF1.2404000759124756
aatp8
Rp9
.ccollections
OrderedDict
p0
((lp1
(lp2
S'state'
p3
aI0
aa(lp4
S'distance'
p5
aF374.735595703125
aa(lp6
S'timestamp'
p7
aF1.2495920658111572
aatp8
Rp9
.ccollections
OrderedDict
p0
((lp1
(lp2
S'state'
p3
aI0
aa(lp4
S'distance'
p5
aF374.735595703125
aa(lp6
S'timestamp'
p7
aF1.2508139610290527
aatp8
Rp9
.ccollections
OrderedDict
p0
((lp1
(lp2
S'state'
p3
aI0
aa(lp4
S'distance'
p5
aF374.735595703125
aa(lp6
S'timestamp'
p7
aF1.2600021362304688
aatp8
Rp9
.ccollections
OrderedDict
p0
((lp1
(lp2
S'state'
p3
aI0
aa(lp4
S'distance'
p5
aF374.735595703125
aa(lp6
S'timestamp'
p7
aF1.2602250576019287
aatp8
Rp9
.ccollections
OrderedDict
p0
((lp1
(lp2
S'state'
p3
aI0
aa(lp4
S'distance'
p5
aF374.735595703125
aa(lp6
S'timestamp'
p7
aF1.2699620723724365
aatp8
Rp9
.ccollections
OrderedDict
p0
((lp1
(lp2
S'state'
p3
aI0
aa(lp4
S'distance'
p5
aF374.735595703125
aa(lp6
S'timestamp'
p7
aF1.2708160877227783
aatp8
Rp9
.ccollections
OrderedDict
p0
((lp1
(lp2
S'state'
p3
aI0
aa(lp4
S'distance'
p5
aF374.735595703125
aa(lp6
S'timestamp'
p7
aF1.2796001434326172
aatp8
Rp9
.ccollections
OrderedDict
p0
((lp1
(lp2
S'state'
p3
aI0
aa(lp4
S'distance'
p5
aF374.735595703125
aa(lp6
S'timestamp'
p7
aF1.2809579372406006
aatp8
Rp9
.ccollections
OrderedDict
p0
((lp1
(lp2
S'state'
p3
aI0
aa(lp4
S'distance'
p5
aF374.735595703125
aa(lp6
S'timestamp'
p7
aF1.2897100448608398
aatp8
Rp9
.ccollections
OrderedDict
p0
((lp1
(lp2
S'state'
p3
aI0
aa(lp4
S'distance'
p5
aF374.735595703125
aa(lp6
S'timestamp'
p7
aF1.2907531261444092
aatp8
Rp9
.ccollections
OrderedDict
p0
((lp1
(lp2
S'state'
p3
aI0
aa(lp4
S'distance'
p5
aF374.735595703125
aa(lp6
S'timestamp'
p7
aF1.3478479385375977
aatp8
Rp9
.ccollections
OrderedDict
p0
((lp1
(lp2
S'state'
p3
aI0
aa(lp4
S'distance'
p5
aF374.735595703125
aa(lp6
S'timestamp'
p7
aF1.3480300903320312
aatp8
Rp9
.ccollections
OrderedDict
p0
((lp1
(lp2
S'state'
p3
aI0
aa(lp4
S'distance'
p5
aF374.735595703125
aa(lp6
S'timestamp'
p7
aF1.3481481075286865
aatp8
Rp9
.ccollections
OrderedDict
p0
((lp1
(lp2
S'state'
p3
aI0
aa(lp4
S'distance'
p5
aF374.735595703125
aa(lp6
S'timestamp'
p7
aF1.348222017288208
aatp8
Rp9
.ccollections
OrderedDict
p0
((lp1
(lp2
S'state'
p3
aI0
aa(lp4
S'distance'
p5
aF374.735595703125
aa(lp6
S'timestamp'
p7
aF1.3484010696411133
aatp8
Rp9
.ccollections
OrderedDict
p0
((lp1
(lp2
S'state'
p3
aI0
aa(lp4
S'distance'
p5
aF374.735595703125
aa(lp6
S'timestamp'
p7
aF1.3485081195831299
aatp8
Rp9
.ccollections
OrderedDict
p0
((lp1
(lp2
S'state'
p3
aI0
aa(lp4
S'distance'
p5
aF374.735595703125
aa(lp6
S'timestamp'
p7
aF1.351473093032837
aatp8
Rp9
.ccollections
OrderedDict
p0
((lp1
(lp2
S'state'
p3
aI0
aa(lp4
S'distance'
p5
aF374.735595703125
aa(lp6
S'timestamp'
p7
aF1.3521649837493896
aatp8
Rp9
.ccollections
OrderedDict
p0
((lp1
(lp2
S'state'
p3
aI0
aa(lp4
S'distance'
p5
aF374.735595703125
aa(lp6
S'timestamp'
p7
aF1.3523471355438232
aatp8
Rp9
.ccollections
OrderedDict
p0
((lp1
(lp2
S'state'
p3
aI0
aa(lp4
S'distance'
p5
aF374.735595703125
aa(lp6
S'timestamp'
p7
aF1.3524811267852783
aatp8
Rp9
.ccollections
OrderedDict
p0
((lp1
(lp2
S'state'
p3
aI0
aa(lp4
S'distance'
p5
aF374.735595703125
aa(lp6
S'timestamp'
p7
aF1.355530023574829
aatp8
Rp9
.ccollections
OrderedDict
p0
((lp1
(lp2
S'state'
p3
aI0
aa(lp4
S'distance'
p5
aF374.735595703125
aa(lp6
S'timestamp'
p7
aF1.3559589385986328
aatp8
Rp9
.ccollections
OrderedDict
p0
((lp1
(lp2
S'state'
p3
aI0
aa(lp4
S'distance'
p5
aF374.735595703125
aa(lp6
S'timestamp'
p7
aF1.36393404006958
aatp8
Rp9
.ccollections
OrderedDict
p0
((lp1
(lp2
S'state'
p3
aI0
aa(lp4
S'distance'
p5
aF374.735595703125
aa(lp6
S'timestamp'
p7
aF1.3647170066833496
aatp8
Rp9
.ccollections
OrderedDict
p0
((lp1
(lp2
S'state'
p3
aI0
aa(lp4
S'distance'
p5
aF374.735595703125
aa(lp6
S'timestamp'
p7
aF1.3697209358215332
aatp8
Rp9
.ccollections
OrderedDict
p0
((lp1
(lp2
S'state'
p3
aI0
aa(lp4
S'distance'
p5
aF374.735595703125
aa(lp6
S'timestamp'
p7
aF1.3799419403076172
aatp8
Rp9
.ccollections
OrderedDict
p0
((lp1
(lp2
S'state'
p3
aI0
aa(lp4
S'distance'
p5
aF374.735595703125
aa(lp6
S'timestamp'
p7
aF1.3800840377807617
aatp8
Rp9
.ccollections
OrderedDict
p0
((lp1
(lp2
S'state'
p3
aI0
aa(lp4
S'distance'
p5
aF374.735595703125
aa(lp6
S'timestamp'
p7
aF1.3809540271759033
aatp8
Rp9
.ccollections
OrderedDict
p0
((lp1
(lp2
S'state'
p3
aI0
aa(lp4
S'distance'
p5
aF374.735595703125
aa(lp6
S'timestamp'
p7
aF1.3902649879455566
aatp8
Rp9
.ccollections
OrderedDict
p0
((lp1
(lp2
S'state'
p3
aI0
aa(lp4
S'distance'
p5
aF374.735595703125
aa(lp6
S'timestamp'
p7
aF1.390571117401123
aatp8
Rp9
.ccollections
OrderedDict
p0
((lp1
(lp2
S'state'
p3
aI0
aa(lp4
S'distance'
p5
aF374.735595703125
aa(lp6
S'timestamp'
p7
aF1.4000160694122314
aatp8
Rp9
.ccollections
OrderedDict
p0
((lp1
(lp2
S'state'
p3
aI0
aa(lp4
S'distance'
p5
aF374.735595703125
aa(lp6
S'timestamp'
p7
aF1.4097599983215332
aatp8
Rp9
.ccollections
OrderedDict
p0
((lp1
(lp2
S'state'
p3
aI0
aa(lp4
S'distance'
p5
aF374.735595703125
aa(lp6
S'timestamp'
p7
aF1.4101519584655762
aatp8
Rp9
.ccollections
OrderedDict
p0
((lp1
(lp2
S'state'
p3
aI0
aa(lp4
S'distance'
p5
aF374.735595703125
aa(lp6
S'timestamp'
p7
aF1.4115850925445557
aatp8
Rp9
.ccollections
OrderedDict
p0
((lp1
(lp2
S'state'
p3
aI0
aa(lp4
S'distance'
p5
aF374.735595703125
aa(lp6
S'timestamp'
p7
aF1.4196670055389404
aatp8
Rp9
.ccollections
OrderedDict
p0
((lp1
(lp2
S'state'
p3
aI0
aa(lp4
S'distance'
p5
aF374.735595703125
aa(lp6
S'timestamp'
p7
aF1.4210150241851807
aatp8
Rp9
.ccollections
OrderedDict
p0
((lp1
(lp2
S'state'
p3
aI0
aa(lp4
S'distance'
p5
aF374.735595703125
aa(lp6
S'timestamp'
p7
aF1.4297740459442139
aatp8
Rp9
.ccollections
OrderedDict
p0
((lp1
(lp2
S'state'
p3
aI0
aa(lp4
S'distance'
p5
aF374.735595703125
aa(lp6
S'timestamp'
p7
aF1.431046962738037
aatp8
Rp9
.ccollections
OrderedDict
p0
((lp1
(lp2
S'state'
p3
aI0
aa(lp4
S'distance'
p5
aF374.735595703125
aa(lp6
S'timestamp'
p7
aF1.4401440620422363
aatp8
Rp9
.ccollections
OrderedDict
p0
((lp1
(lp2
S'state'
p3
aI0
aa(lp4
S'distance'
p5
aF374.735595703125
aa(lp6
S'timestamp'
p7
aF1.4403910636901855
aatp8
Rp9
.ccollections
OrderedDict
p0
((lp1
(lp2
S'state'
p3
aI0
aa(lp4
S'distance'
p5
aF374.735595703125
aa(lp6
S'timestamp'
p7
aF1.4498720169067383
aatp8
Rp9
.ccollections
OrderedDict
p0
((lp1
(lp2
S'state'
p3
aI0
aa(lp4
S'distance'
p5
aF374.735595703125
aa(lp6
S'timestamp'
p7
aF1.4505691528320312
aatp8
Rp9
.ccollections
OrderedDict
p0
((lp1
(lp2
S'state'
p3
aI0
aa(lp4
S'distance'
p5
aF374.735595703125
aa(lp6
S'timestamp'
p7
aF1.4598400592803955
aatp8
Rp9
.ccollections
OrderedDict
p0
((lp1
(lp2
S'state'
p3
aI0
aa(lp4
S'distance'
p5
aF374.735595703125
aa(lp6
S'timestamp'
p7
aF1.4610390663146973
aatp8
Rp9
.ccollections
OrderedDict
p0
((lp1
(lp2
S'state'
p3
aI0
aa(lp4
S'distance'
p5
aF374.735595703125
aa(lp6
S'timestamp'
p7
aF1.4698951244354248
aatp8
Rp9
.ccollections
OrderedDict
p0
((lp1
(lp2
S'state'
p3
aI0
aa(lp4
S'distance'
p5
aF374.735595703125
aa(lp6
S'timestamp'
p7
aF1.4707670211791992
aatp8
Rp9
.ccollections
OrderedDict
p0
((lp1
(lp2
S'state'
p3
aI0
aa(lp4
S'distance'
p5
aF374.735595703125
aa(lp6
S'timestamp'
p7
aF1.480320930480957
aatp8
Rp9
.ccollections
OrderedDict
p0
((lp1
(lp2
S'state'
p3
aI0
aa(lp4
S'distance'
p5
aF374.735595703125
aa(lp6
S'timestamp'
p7
aF1.48045015335083
aatp8
Rp9
.ccollections
OrderedDict
p0
((lp1
(lp2
S'state'
p3
aI0
aa(lp4
S'distance'
p5
aF374.735595703125
aa(lp6
S'timestamp'
p7
aF1.4999189376831055
aatp8
Rp9
.ccollections
OrderedDict
p0
((lp1
(lp2
S'state'
p3
aI0
aa(lp4
S'distance'
p5
aF374.735595703125
aa(lp6
S'timestamp'
p7
aF1.5006091594696045
aatp8
Rp9
.ccollections
OrderedDict
p0
((lp1
(lp2
S'state'
p3
aI0
aa(lp4
S'distance'
p5
aF374.735595703125
aa(lp6
S'timestamp'
p7
aF1.5014190673828125
aatp8
Rp9
.ccollections
OrderedDict
p0
((lp1
(lp2
S'state'
p3
aI0
aa(lp4
S'distance'
p5
aF374.735595703125
aa(lp6
S'timestamp'
p7
aF1.5014920234680176
aatp8
Rp9
.ccollections
OrderedDict
p0
((lp1
(lp2
S'state'
p3
aI0
aa(lp4
S'distance'
p5
aF374.735595703125
aa(lp6
S'timestamp'
p7
aF1.5102019309997559
aatp8
Rp9
.ccollections
OrderedDict
p0
((lp1
(lp2
S'state'
p3
aI0
aa(lp4
S'distance'
p5
aF374.735595703125
aa(lp6
S'timestamp'
p7
aF1.5104379653930664
aatp8
Rp9
.ccollections
OrderedDict
p0
((lp1
(lp2
S'state'
p3
aI0
aa(lp4
S'distance'
p5
aF374.735595703125
aa(lp6
S'timestamp'
p7
aF1.5201709270477295
aatp8
Rp9
.ccollections
OrderedDict
p0
((lp1
(lp2
S'state'
p3
aI0
aa(lp4
S'distance'
p5
aF374.735595703125
aa(lp6
S'timestamp'
p7
aF1.5204291343688965
aatp8
Rp9
.ccollections
OrderedDict
p0
((lp1
(lp2
S'state'
p3
aI0
aa(lp4
S'distance'
p5
aF374.735595703125
aa(lp6
S'timestamp'
p7
aF1.5301730632781982
aatp8
Rp9
.ccollections
OrderedDict
p0
((lp1
(lp2
S'state'
p3
aI0
aa(lp4
S'distance'
p5
aF374.735595703125
aa(lp6
S'timestamp'
p7
aF1.5302939414978027
aatp8
Rp9
.ccollections
OrderedDict
p0
((lp1
(lp2
S'state'
p3
aI0
aa(lp4
S'distance'
p5
aF374.735595703125
aa(lp6
S'timestamp'
p7
aF1.5396511554718018
aatp8
Rp9
.ccollections
OrderedDict
p0
((lp1
(lp2
S'state'
p3
aI0
aa(lp4
S'distance'
p5
aF374.735595703125
aa(lp6
S'timestamp'
p7
aF1.540842056274414
aatp8
Rp9
.ccollections
OrderedDict
p0
((lp1
(lp2
S'state'
p3
aI0
aa(lp4
S'distance'
p5
aF374.735595703125
aa(lp6
S'timestamp'
p7
aF1.5501649379730225
aatp8
Rp9
.ccollections
OrderedDict
p0
((lp1
(lp2
S'state'
p3
aI0
aa(lp4
S'distance'
p5
aF374.735595703125
aa(lp6
S'timestamp'
p7
aF1.5504519939422607
aatp8
Rp9
.ccollections
OrderedDict
p0
((lp1
(lp2
S'state'
p3
aI0
aa(lp4
S'distance'
p5
aF374.735595703125
aa(lp6
S'timestamp'
p7
aF1.5599720478057861
aatp8
Rp9
.ccollections
OrderedDict
p0
((lp1
(lp2
S'state'
p3
aI0
aa(lp4
S'distance'
p5
aF374.735595703125
aa(lp6
S'timestamp'
p7
aF1.5605270862579346
aatp8
Rp9
.ccollections
OrderedDict
p0
((lp1
(lp2
S'state'
p3
aI0
aa(lp4
S'distance'
p5
aF374.735595703125
aa(lp6
S'timestamp'
p7
aF1.5696499347686768
aatp8
Rp9
.ccollections
OrderedDict
p0
((lp1
(lp2
S'state'
p3
aI0
aa(lp4
S'distance'
p5
aF374.735595703125
aa(lp6
S'timestamp'
p7
aF1.5708670616149902
aatp8
Rp9
.ccollections
OrderedDict
p0
((lp1
(lp2
S'state'
p3
aI0
aa(lp4
S'distance'
p5
aF374.735595703125
aa(lp6
S'timestamp'
p7
aF1.5799970626831055
aatp8
Rp9
.ccollections
OrderedDict
p0
((lp1
(lp2
S'state'
p3
aI0
aa(lp4
S'distance'
p5
aF374.735595703125
aa(lp6
S'timestamp'
p7
aF1.5810611248016357
aatp8
Rp9
.ccollections
OrderedDict
p0
((lp1
(lp2
S'state'
p3
aI0
aa(lp4
S'distance'
p5
aF374.735595703125
aa(lp6
S'timestamp'
p7
aF1.589946985244751
aatp8
Rp9
.ccollections
OrderedDict
p0
((lp1
(lp2
S'state'
p3
aI0
aa(lp4
S'distance'
p5
aF374.735595703125
aa(lp6
S'timestamp'
p7
aF1.5905530452728271
aatp8
Rp9
.ccollections
OrderedDict
p0
((lp1
(lp2
S'state'
p3
aI0
aa(lp4
S'distance'
p5
aF374.735595703125
aa(lp6
S'timestamp'
p7
aF1.6003069877624512
aatp8
Rp9
.ccollections
OrderedDict
p0
((lp1
(lp2
S'state'
p3
aI0
aa(lp4
S'distance'
p5
aF374.735595703125
aa(lp6
S'timestamp'
p7
aF1.600574016571045
aatp8
Rp9
.ccollections
OrderedDict
p0
((lp1
(lp2
S'state'
p3
aI0
aa(lp4
S'distance'
p5
aF374.735595703125
aa(lp6
S'timestamp'
p7
aF1.6099629402160645
aatp8
Rp9
.ccollections
OrderedDict
p0
((lp1
(lp2
S'state'
p3
aI0
aa(lp4
S'distance'
p5
aF374.735595703125
aa(lp6
S'timestamp'
p7
aF1.6110470294952393
aatp8
Rp9
.ccollections
OrderedDict
p0
((lp1
(lp2
S'state'
p3
aI0
aa(lp4
S'distance'
p5
aF374.735595703125
aa(lp6
S'timestamp'
p7
aF1.619861125946045
aatp8
Rp9
.ccollections
OrderedDict
p0
((lp1
(lp2
S'state'
p3
aI0
aa(lp4
S'distance'
p5
aF374.735595703125
aa(lp6
S'timestamp'
p7
aF1.6205129623413086
aatp8
Rp9
.ccollections
OrderedDict
p0
((lp1
(lp2
S'state'
p3
aI0
aa(lp4
S'distance'
p5
aF374.735595703125
aa(lp6
S'timestamp'
p7
aF1.6299419403076172
aatp8
Rp9
.ccollections
OrderedDict
p0
((lp1
(lp2
S'state'
p3
aI0
aa(lp4
S'distance'
p5
aF374.735595703125
aa(lp6
S'timestamp'
p7
aF1.6311049461364746
aatp8
Rp9
.ccollections
OrderedDict
p0
((lp1
(lp2
S'state'
p3
aI0
aa(lp4
S'distance'
p5
aF374.735595703125
aa(lp6
S'timestamp'
p7
aF1.6402370929718018
aatp8
Rp9
.ccollections
OrderedDict
p0
((lp1
(lp2
S'state'
p3
aI0
aa(lp4
S'distance'
p5
aF374.735595703125
aa(lp6
S'timestamp'
p7
aF1.6405029296875
aatp8
Rp9
.ccollections
OrderedDict
p0
((lp1
(lp2
S'state'
p3
aI0
aa(lp4
S'distance'
p5
aF374.735595703125
aa(lp6
S'timestamp'
p7
aF1.6499650478363037
aatp8
Rp9
.ccollections
OrderedDict
p0
((lp1
(lp2
S'state'
p3
aI0
aa(lp4
S'distance'
p5
aF374.735595703125
aa(lp6
S'timestamp'
p7
aF1.6505589485168457
aatp8
Rp9
.ccollections
OrderedDict
p0
((lp1
(lp2
S'state'
p3
aI0
aa(lp4
S'distance'
p5
aF374.735595703125
aa(lp6
S'timestamp'
p7
aF1.659801959991455
aatp8
Rp9
.ccollections
OrderedDict
p0
((lp1
(lp2
S'state'
p3
aI0
aa(lp4
S'distance'
p5
aF374.735595703125
aa(lp6
S'timestamp'
p7
aF1.6611061096191406
aatp8
Rp9
.ccollections
OrderedDict
p0
((lp1
(lp2
S'state'
p3
aI0
aa(lp4
S'distance'
p5
aF374.735595703125
aa(lp6
S'timestamp'
p7
aF1.670760154724121
aatp8
Rp9
.ccollections
OrderedDict
p0
((lp1
(lp2
S'state'
p3
aI0
aa(lp4
S'distance'
p5
aF374.735595703125
aa(lp6
S'timestamp'
p7
aF1.6711909770965576
aatp8
Rp9
.ccollections
OrderedDict
p0
((lp1
(lp2
S'state'
p3
aI0
aa(lp4
S'distance'
p5
aF374.735595703125
aa(lp6
S'timestamp'
p7
aF1.6801791191101074
aatp8
Rp9
.ccollections
OrderedDict
p0
((lp1
(lp2
S'state'
p3
aI0
aa(lp4
S'distance'
p5
aF374.735595703125
aa(lp6
S'timestamp'
p7
aF1.6805031299591064
aatp8
Rp9
.ccollections
OrderedDict
p0
((lp1
(lp2
S'state'
p3
aI0
aa(lp4
S'distance'
p5
aF374.735595703125
aa(lp6
S'timestamp'
p7
aF1.6899361610412598
aatp8
Rp9
.ccollections
OrderedDict
p0
((lp1
(lp2
S'state'
p3
aI0
aa(lp4
S'distance'
p5
aF374.735595703125
aa(lp6
S'timestamp'
p7
aF1.6907341480255127
aatp8
Rp9
.ccollections
OrderedDict
p0
((lp1
(lp2
S'state'
p3
aI0
aa(lp4
S'distance'
p5
aF374.735595703125
aa(lp6
S'timestamp'
p7
aF1.6999120712280273
aatp8
Rp9
.ccollections
OrderedDict
p0
((lp1
(lp2
S'state'
p3
aI0
aa(lp4
S'distance'
p5
aF374.735595703125
aa(lp6
S'timestamp'
p7
aF1.700855016708374
aatp8
Rp9
.ccollections
OrderedDict
p0
((lp1
(lp2
S'state'
p3
aI0
aa(lp4
S'distance'
p5
aF374.735595703125
aa(lp6
S'timestamp'
p7
aF1.7102611064910889
aatp8
Rp9
.ccollections
OrderedDict
p0
((lp1
(lp2
S'state'
p3
aI0
aa(lp4
S'distance'
p5
aF374.735595703125
aa(lp6
S'timestamp'
p7
aF1.7105059623718262
aatp8
Rp9
.ccollections
OrderedDict
p0
((lp1
(lp2
S'state'
p3
aI400
aa(lp4
S'distance'
p5
aF374.735595703125
aa(lp6
S'timestamp'
p7
aF1.720560073852539
aatp8
Rp9
.ccollections
OrderedDict
p0
((lp1
(lp2
S'state'
p3
aI400
aa(lp4
S'distance'
p5
aF374.735595703125
aa(lp6
S'timestamp'
p7
aF1.721524953842163
aatp8
Rp9
.ccollections
OrderedDict
p0
((lp1
(lp2
S'state'
p3
aI400
aa(lp4
S'distance'
p5
aF374.735595703125
aa(lp6
S'timestamp'
p7
aF1.7298099994659424
aatp8
Rp9
.ccollections
OrderedDict
p0
((lp1
(lp2
S'state'
p3
aI400
aa(lp4
S'distance'
p5
aF374.735595703125
aa(lp6
S'timestamp'
p7
aF1.7326209545135498
aatp8
Rp9
.ccollections
OrderedDict
p0
((lp1
(lp2
S'state'
p3
aI400
aa(lp4
S'distance'
p5
aF374.735595703125
aa(lp6
S'timestamp'
p7
aF1.7398850917816162
aatp8
Rp9
.ccollections
OrderedDict
p0
((lp1
(lp2
S'state'
p3
aI400
aa(lp4
S'distance'
p5
aF374.735595703125
aa(lp6
S'timestamp'
p7
aF1.757045030593872
aatp8
Rp9
.ccollections
OrderedDict
p0
((lp1
(lp2
S'state'
p3
aI400
aa(lp4
S'distance'
p5
aF374.735595703125
aa(lp6
S'timestamp'
p7
aF1.7580580711364746
aatp8
Rp9
.ccollections
OrderedDict
p0
((lp1
(lp2
S'state'
p3
aI400
aa(lp4
S'distance'
p5
aF374.735595703125
aa(lp6
S'timestamp'
p7
aF1.7584760189056396
aatp8
Rp9
.ccollections
OrderedDict
p0
((lp1
(lp2
S'state'
p3
aI400
aa(lp4
S'distance'
p5
aF374.735595703125
aa(lp6
S'timestamp'
p7
aF1.763617992401123
aatp8
Rp9
.ccollections
OrderedDict
p0
((lp1
(lp2
S'state'
p3
aI400
aa(lp4
S'distance'
p5
aF374.735595703125
aa(lp6
S'timestamp'
p7
aF1.7650749683380127
aatp8
Rp9
.ccollections
OrderedDict
p0
((lp1
(lp2
S'state'
p3
aI400
aa(lp4
S'distance'
p5
aF374.735595703125
aa(lp6
S'timestamp'
p7
aF1.77248215675354
aatp8
Rp9
.ccollections
OrderedDict
p0
((lp1
(lp2
S'state'
p3
aI400
aa(lp4
S'distance'
p5
aF374.735595703125
aa(lp6
S'timestamp'
p7
aF1.772597074508667
aatp8
Rp9
.ccollections
OrderedDict
p0
((lp1
(lp2
S'state'
p3
aI400
aa(lp4
S'distance'
p5
aF374.735595703125
aa(lp6
S'timestamp'
p7
aF1.7800030708312988
aatp8
Rp9
.ccollections
OrderedDict
p0
((lp1
(lp2
S'state'
p3
aI400
aa(lp4
S'distance'
p5
aF374.735595703125
aa(lp6
S'timestamp'
p7
aF1.7808449268341064
aatp8
Rp9
.ccollections
OrderedDict
p0
((lp1
(lp2
S'state'
p3
aI400
aa(lp4
S'distance'
p5
aF374.735595703125
aa(lp6
S'timestamp'
p7
aF1.790135145187378
aatp8
Rp9
.ccollections
OrderedDict
p0
((lp1
(lp2
S'state'
p3
aI400
aa(lp4
S'distance'
p5
aF374.735595703125
aa(lp6
S'timestamp'
p7
aF1.7904880046844482
aatp8
Rp9
.ccollections
OrderedDict
p0
((lp1
(lp2
S'state'
p3
aI400
aa(lp4
S'distance'
p5
aF374.735595703125
aa(lp6
S'timestamp'
p7
aF1.7999629974365234
aatp8
Rp9
.ccollections
OrderedDict
p0
((lp1
(lp2
S'state'
p3
aI400
aa(lp4
S'distance'
p5
aF374.735595703125
aa(lp6
S'timestamp'
p7
aF1.8003859519958496
aatp8
Rp9
.ccollections
OrderedDict
p0
((lp1
(lp2
S'state'
p3
aI400
aa(lp4
S'distance'
p5
aF374.735595703125
aa(lp6
S'timestamp'
p7
aF1.8107011318206787
aatp8
Rp9
.ccollections
OrderedDict
p0
((lp1
(lp2
S'state'
p3
aI400
aa(lp4
S'distance'
p5
aF374.735595703125
aa(lp6
S'timestamp'
p7
aF1.810863971710205
aatp8
Rp9
.ccollections
OrderedDict
p0
((lp1
(lp2
S'state'
p3
aI400
aa(lp4
S'distance'
p5
aF374.735595703125
aa(lp6
S'timestamp'
p7
aF1.819998025894165
aatp8
Rp9
.ccollections
OrderedDict
p0
((lp1
(lp2
S'state'
p3
aI400
aa(lp4
S'distance'
p5
aF374.735595703125
aa(lp6
S'timestamp'
p7
aF1.8205559253692627
aatp8
Rp9
.ccollections
OrderedDict
p0
((lp1
(lp2
S'state'
p3
aI400
aa(lp4
S'distance'
p5
aF374.735595703125
aa(lp6
S'timestamp'
p7
aF1.8304109573364258
aatp8
Rp9
.ccollections
OrderedDict
p0
((lp1
(lp2
S'state'
p3
aI400
aa(lp4
S'distance'
p5
aF374.735595703125
aa(lp6
S'timestamp'
p7
aF1.8306159973144531
aatp8
Rp9
.ccollections
OrderedDict
p0
((lp1
(lp2
S'state'
p3
aI400
aa(lp4
S'distance'
p5
aF374.735595703125
aa(lp6
S'timestamp'
p7
aF1.8402290344238281
aatp8
Rp9
.ccollections
OrderedDict
p0
((lp1
(lp2
S'state'
p3
aI400
aa(lp4
S'distance'
p5
aF374.735595703125
aa(lp6
S'timestamp'
p7
aF1.8403890132904053
aatp8
Rp9
.ccollections
OrderedDict
p0
((lp1
(lp2
S'state'
p3
aI400
aa(lp4
S'distance'
p5
aF374.735595703125
aa(lp6
S'timestamp'
p7
aF1.8499400615692139
aatp8
Rp9
.ccollections
OrderedDict
p0
((lp1
(lp2
S'state'
p3
aI400
aa(lp4
S'distance'
p5
aF374.735595703125
aa(lp6
S'timestamp'
p7
aF1.8506319522857666
aatp8
Rp9
.ccollections
OrderedDict
p0
((lp1
(lp2
S'state'
p3
aI400
aa(lp4
S'distance'
p5
aF374.735595703125
aa(lp6
S'timestamp'
p7
aF1.8598079681396484
aatp8
Rp9
.ccollections
OrderedDict
p0
((lp1
(lp2
S'state'
p3
aI400
aa(lp4
S'distance'
p5
aF374.735595703125
aa(lp6
S'timestamp'
p7
aF1.860656976699829
aatp8
Rp9
.ccollections
OrderedDict
p0
((lp1
(lp2
S'state'
p3
aI400
aa(lp4
S'distance'
p5
aF374.735595703125
aa(lp6
S'timestamp'
p7
aF1.869861125946045
aatp8
Rp9
.ccollections
OrderedDict
p0
((lp1
(lp2
S'state'
p3
aI400
aa(lp4
S'distance'
p5
aF374.735595703125
aa(lp6
S'timestamp'
p7
aF1.870595932006836
aatp8
Rp9
.ccollections
OrderedDict
p0
((lp1
(lp2
S'state'
p3
aI400
aa(lp4
S'distance'
p5
aF374.735595703125
aa(lp6
S'timestamp'
p7
aF1.8802111148834229
aatp8
Rp9
.ccollections
OrderedDict
p0
((lp1
(lp2
S'state'
p3
aI400
aa(lp4
S'distance'
p5
aF374.735595703125
aa(lp6
S'timestamp'
p7
aF1.8803479671478271
aatp8
Rp9
.ccollections
OrderedDict
p0
((lp1
(lp2
S'state'
p3
aI400
aa(lp4
S'distance'
p5
aF374.735595703125
aa(lp6
S'timestamp'
p7
aF1.8897120952606201
aatp8
Rp9
.ccollections
OrderedDict
p0
((lp1
(lp2
S'state'
p3
aI400
aa(lp4
S'distance'
p5
aF374.735595703125
aa(lp6
S'timestamp'
p7
aF1.8906750679016113
aatp8
Rp9
.ccollections
OrderedDict
p0
((lp1
(lp2
S'state'
p3
aI400
aa(lp4
S'distance'
p5
aF374.735595703125
aa(lp6
S'timestamp'
p7
aF1.899857997894287
aatp8
Rp9
.ccollections
OrderedDict
p0
((lp1
(lp2
S'state'
p3
aI400
aa(lp4
S'distance'
p5
aF374.735595703125
aa(lp6
S'timestamp'
p7
aF1.9006199836730957
aatp8
Rp9
.ccollections
OrderedDict
p0
((lp1
(lp2
S'state'
p3
aI400
aa(lp4
S'distance'
p5
aF374.735595703125
aa(lp6
S'timestamp'
p7
aF1.9100351333618164
aatp8
Rp9
.ccollections
OrderedDict
p0
((lp1
(lp2
S'state'
p3
aI400
aa(lp4
S'distance'
p5
aF374.735595703125
aa(lp6
S'timestamp'
p7
aF1.9107160568237305
aatp8
Rp9
.ccollections
OrderedDict
p0
((lp1
(lp2
S'state'
p3
aI400
aa(lp4
S'distance'
p5
aF374.735595703125
aa(lp6
S'timestamp'
p7
aF1.920060157775879
aatp8
Rp9
.ccollections
OrderedDict
p0
((lp1
(lp2
S'state'
p3
aI400
aa(lp4
S'distance'
p5
aF374.735595703125
aa(lp6
S'timestamp'
p7
aF1.9207401275634766
aatp8
Rp9
.ccollections
OrderedDict
p0
((lp1
(lp2
S'state'
p3
aI400
aa(lp4
S'distance'
p5
aF374.735595703125
aa(lp6
S'timestamp'
p7
aF1.9297430515289307
aatp8
Rp9
.ccollections
OrderedDict
p0
((lp1
(lp2
S'state'
p3
aI400
aa(lp4
S'distance'
p5
aF374.735595703125
aa(lp6
S'timestamp'
p7
aF1.9306650161743164
aatp8
Rp9
.ccollections
OrderedDict
p0
((lp1
(lp2
S'state'
p3
aI400
aa(lp4
S'distance'
p5
aF374.735595703125
aa(lp6
S'timestamp'
p7
aF1.9399819374084473
aatp8
Rp9
.ccollections
OrderedDict
p0
((lp1
(lp2
S'state'
p3
aI400
aa(lp4
S'distance'
p5
aF374.735595703125
aa(lp6
S'timestamp'
p7
aF1.9405109882354736
aatp8
Rp9
.ccollections
OrderedDict
p0
((lp1
(lp2
S'state'
p3
aI400
aa(lp4
S'distance'
p5
aF374.735595703125
aa(lp6
S'timestamp'
p7
aF1.9501781463623047
aatp8
Rp9
.ccollections
OrderedDict
p0
((lp1
(lp2
S'state'
p3
aI400
aa(lp4
S'distance'
p5
aF374.735595703125
aa(lp6
S'timestamp'
p7
aF1.9507060050964355
aatp8
Rp9
.ccollections
OrderedDict
p0
((lp1
(lp2
S'state'
p3
aI400
aa(lp4
S'distance'
p5
aF374.735595703125
aa(lp6
S'timestamp'
p7
aF1.9601480960845947
aatp8
Rp9
.ccollections
OrderedDict
p0
((lp1
(lp2
S'state'
p3
aI400
aa(lp4
S'distance'
p5
aF374.735595703125
aa(lp6
S'timestamp'
p7
aF1.9603750705718994
aatp8
Rp9
.ccollections
OrderedDict
p0
((lp1
(lp2
S'state'
p3
aI400
aa(lp4
S'distance'
p5
aF374.735595703125
aa(lp6
S'timestamp'
p7
aF1.9799230098724365
aatp8
Rp9
.ccollections
OrderedDict
p0
((lp1
(lp2
S'state'
p3
aI400
aa(lp4
S'distance'
p5
aF374.735595703125
aa(lp6
S'timestamp'
p7
aF1.9802420139312744
aatp8
Rp9
.ccollections
OrderedDict
p0
((lp1
(lp2
S'state'
p3
aI400
aa(lp4
S'distance'
p5
aF374.735595703125
aa(lp6
S'timestamp'
p7
aF1.9813640117645264
aatp8
Rp9
.ccollections
OrderedDict
p0
((lp1
(lp2
S'state'
p3
aI400
aa(lp4
S'distance'
p5
aF374.735595703125
aa(lp6
S'timestamp'
p7
aF1.9814369678497314
aatp8
Rp9
.ccollections
OrderedDict
p0
((lp1
(lp2
S'state'
p3
aI400
aa(lp4
S'distance'
p5
aF374.735595703125
aa(lp6
S'timestamp'
p7
aF1.9899210929870605
aatp8
Rp9
.ccollections
OrderedDict
p0
((lp1
(lp2
S'state'
p3
aI400
aa(lp4
S'distance'
p5
aF374.735595703125
aa(lp6
S'timestamp'
p7
aF1.9908421039581299
aatp8
Rp9
.ccollections
OrderedDict
p0
((lp1
(lp2
S'state'
p3
aI400
aa(lp4
S'distance'
p5
aF374.735595703125
aa(lp6
S'timestamp'
p7
aF1.9999899864196777
aatp8
Rp9
.ccollections
OrderedDict
p0
((lp1
(lp2
S'state'
p3
aI400
aa(lp4
S'distance'
p5
aF374.735595703125
aa(lp6
S'timestamp'
p7
aF2.001055955886841
aatp8
Rp9
.ccollections
OrderedDict
p0
((lp1
(lp2
S'state'
p3
aI400
aa(lp4
S'distance'
p5
aF374.735595703125
aa(lp6
S'timestamp'
p7
aF2.0098071098327637
aatp8
Rp9
.ccollections
OrderedDict
p0
((lp1
(lp2
S'state'
p3
aI400
aa(lp4
S'distance'
p5
aF374.735595703125
aa(lp6
S'timestamp'
p7
aF2.011029005050659
aatp8
Rp9
.ccollections
OrderedDict
p0
((lp1
(lp2
S'state'
p3
aI400
aa(lp4
S'distance'
p5
aF374.735595703125
aa(lp6
S'timestamp'
p7
aF2.0197839736938477
aatp8
Rp9
.ccollections
OrderedDict
p0
((lp1
(lp2
S'state'
p3
aI400
aa(lp4
S'distance'
p5
aF374.735595703125
aa(lp6
S'timestamp'
p7
aF2.0211739540100098
aatp8
Rp9
.ccollections
OrderedDict
p0
((lp1
(lp2
S'state'
p3
aI400
aa(lp4
S'distance'
p5
aF374.735595703125
aa(lp6
S'timestamp'
p7
aF2.0298690795898438
aatp8
Rp9
.ccollections
OrderedDict
p0
((lp1
(lp2
S'state'
p3
aI400
aa(lp4
S'distance'
p5
aF374.735595703125
aa(lp6
S'timestamp'
p7
aF2.0309929847717285
aatp8
Rp9
.ccollections
OrderedDict
p0
((lp1
(lp2
S'state'
p3
aI400
aa(lp4
S'distance'
p5
aF374.735595703125
aa(lp6
S'timestamp'
p7
aF2.049967050552368
aatp8
Rp9
.ccollections
OrderedDict
p0
((lp1
(lp2
S'state'
p3
aI400
aa(lp4
S'distance'
p5
aF374.735595703125
aa(lp6
S'timestamp'
p7
aF2.050459146499634
aatp8
Rp9
.ccollections
OrderedDict
p0
((lp1
(lp2
S'state'
p3
aI400
aa(lp4
S'distance'
p5
aF374.735595703125
aa(lp6
S'timestamp'
p7
aF2.051316022872925
aatp8
Rp9
.ccollections
OrderedDict
p0
((lp1
(lp2
S'state'
p3
aI400
aa(lp4
S'distance'
p5
aF374.735595703125
aa(lp6
S'timestamp'
p7
aF2.052294969558716
aatp8
Rp9
.ccollections
OrderedDict
p0
((lp1
(lp2
S'state'
p3
aI400
aa(lp4
S'distance'
p5
aF374.735595703125
aa(lp6
S'timestamp'
p7
aF2.0603089332580566
aatp8
Rp9
.ccollections
OrderedDict
p0
((lp1
(lp2
S'state'
p3
aI400
aa(lp4
S'distance'
p5
aF374.735595703125
aa(lp6
S'timestamp'
p7
aF2.0604701042175293
aatp8
Rp9
.ccollections
OrderedDict
p0
((lp1
(lp2
S'state'
p3
aI400
aa(lp4
S'distance'
p5
aF374.735595703125
aa(lp6
S'timestamp'
p7
aF2.0702590942382812
aatp8
Rp9
.ccollections
OrderedDict
p0
((lp1
(lp2
S'state'
p3
aI400
aa(lp4
S'distance'
p5
aF374.735595703125
aa(lp6
S'timestamp'
p7
aF2.0704281330108643
aatp8
Rp9
.ccollections
OrderedDict
p0
((lp1
(lp2
S'state'
p3
aI400
aa(lp4
S'distance'
p5
aF374.735595703125
aa(lp6
S'timestamp'
p7
aF2.080026149749756
aatp8
Rp9
.ccollections
OrderedDict
p0
((lp1
(lp2
S'state'
p3
aI400
aa(lp4
S'distance'
p5
aF374.735595703125
aa(lp6
S'timestamp'
p7
aF2.0809831619262695
aatp8
Rp9
.ccollections
OrderedDict
p0
((lp1
(lp2
S'state'
p3
aI400
aa(lp4
S'distance'
p5
aF374.735595703125
aa(lp6
S'timestamp'
p7
aF2.0900590419769287
aatp8
Rp9
.ccollections
OrderedDict
p0
((lp1
(lp2
S'state'
p3
aI400
aa(lp4
S'distance'
p5
aF374.735595703125
aa(lp6
S'timestamp'
p7
aF2.0905039310455322
aatp8
Rp9
.ccollections
OrderedDict
p0
((lp1
(lp2
S'state'
p3
aI400
aa(lp4
S'distance'
p5
aF374.735595703125
aa(lp6
S'timestamp'
p7
aF2.0998001098632812
aatp8
Rp9
.ccollections
OrderedDict
p0
((lp1
(lp2
S'state'
p3
aI400
aa(lp4
S'distance'
p5
aF374.735595703125
aa(lp6
S'timestamp'
p7
aF2.1007211208343506
aatp8
Rp9
.ccollections
OrderedDict
p0
((lp1
(lp2
S'state'
p3
aI400
aa(lp4
S'distance'
p5
aF374.735595703125
aa(lp6
S'timestamp'
p7
aF2.1098949909210205
aatp8
Rp9
.ccollections
OrderedDict
p0
((lp1
(lp2
S'state'
p3
aI400
aa(lp4
S'distance'
p5
aF374.735595703125
aa(lp6
S'timestamp'
p7
aF2.1200051307678223
aatp8
Rp9
.ccollections
OrderedDict
p0
((lp1
(lp2
S'state'
p3
aI400
aa(lp4
S'distance'
p5
aF374.735595703125
aa(lp6
S'timestamp'
p7
aF2.12034010887146
aatp8
Rp9
.ccollections
OrderedDict
p0
((lp1
(lp2
S'state'
p3
aI400
aa(lp4
S'distance'
p5
aF374.735595703125
aa(lp6
S'timestamp'
p7
aF2.1217501163482666
aatp8
Rp9
.ccollections
OrderedDict
p0
((lp1
(lp2
S'state'
p3
aI400
aa(lp4
S'distance'
p5
aF374.735595703125
aa(lp6
S'timestamp'
p7
aF2.1298251152038574
aatp8
Rp9
.ccollections
OrderedDict
p0
((lp1
(lp2
S'state'
p3
aI400
aa(lp4
S'distance'
p5
aF374.735595703125
aa(lp6
S'timestamp'
p7
aF2.1308650970458984
aatp8
Rp9
.ccollections
OrderedDict
p0
((lp1
(lp2
S'state'
p3
aI400
aa(lp4
S'distance'
p5
aF374.735595703125
aa(lp6
S'timestamp'
p7
aF2.1400070190429688
aatp8
Rp9
.ccollections
OrderedDict
p0
((lp1
(lp2
S'state'
p3
aI400
aa(lp4
S'distance'
p5
aF374.735595703125
aa(lp6
S'timestamp'
p7
aF2.140342950820923
aatp8
Rp9
.ccollections
OrderedDict
p0
((lp1
(lp2
S'state'
p3
aI400
aa(lp4
S'distance'
p5
aF374.735595703125
aa(lp6
S'timestamp'
p7
aF2.1499061584472656
aatp8
Rp9
.ccollections
OrderedDict
p0
((lp1
(lp2
S'state'
p3
aI400
aa(lp4
S'distance'
p5
aF374.735595703125
aa(lp6
S'timestamp'
p7
aF2.151064157485962
aatp8
Rp9
.ccollections
OrderedDict
p0
((lp1
(lp2
S'state'
p3
aI400
aa(lp4
S'distance'
p5
aF374.735595703125
aa(lp6
S'timestamp'
p7
aF2.1600100994110107
aatp8
Rp9
.ccollections
OrderedDict
p0
((lp1
(lp2
S'state'
p3
aI400
aa(lp4
S'distance'
p5
aF374.735595703125
aa(lp6
S'timestamp'
p7
aF2.1611180305480957
aatp8
Rp9
.ccollections
OrderedDict
p0
((lp1
(lp2
S'state'
p3
aI400
aa(lp4
S'distance'
p5
aF374.735595703125
aa(lp6
S'timestamp'
p7
aF2.1700069904327393
aatp8
Rp9
.ccollections
OrderedDict
p0
((lp1
(lp2
S'state'
p3
aI400
aa(lp4
S'distance'
p5
aF374.735595703125
aa(lp6
S'timestamp'
p7
aF2.1706509590148926
aatp8
Rp9
.ccollections
OrderedDict
p0
((lp1
(lp2
S'state'
p3
aI400
aa(lp4
S'distance'
p5
aF374.735595703125
aa(lp6
S'timestamp'
p7
aF2.179847002029419
aatp8
Rp9
.ccollections
OrderedDict
p0
((lp1
(lp2
S'state'
p3
aI400
aa(lp4
S'distance'
p5
aF374.735595703125
aa(lp6
S'timestamp'
p7
aF2.1808080673217773
aatp8
Rp9
.ccollections
OrderedDict
p0
((lp1
(lp2
S'state'
p3
aI400
aa(lp4
S'distance'
p5
aF374.735595703125
aa(lp6
S'timestamp'
p7
aF2.1898159980773926
aatp8
Rp9
.ccollections
OrderedDict
p0
((lp1
(lp2
S'state'
p3
aI400
aa(lp4
S'distance'
p5
aF374.735595703125
aa(lp6
S'timestamp'
p7
aF2.191035032272339
aatp8
Rp9
.ccollections
OrderedDict
p0
((lp1
(lp2
S'state'
p3
aI400
aa(lp4
S'distance'
p5
aF374.735595703125
aa(lp6
S'timestamp'
p7
aF2.200140953063965
aatp8
Rp9
.ccollections
OrderedDict
p0
((lp1
(lp2
S'state'
p3
aI400
aa(lp4
S'distance'
p5
aF374.735595703125
aa(lp6
S'timestamp'
p7
aF2.20098614692688
aatp8
Rp9
.ccollections
OrderedDict
p0
((lp1
(lp2
S'state'
p3
aI400
aa(lp4
S'distance'
p5
aF374.735595703125
aa(lp6
S'timestamp'
p7
aF2.209831953048706
aatp8
Rp9
.ccollections
OrderedDict
p0
((lp1
(lp2
S'state'
p3
aI400
aa(lp4
S'distance'
p5
aF374.735595703125
aa(lp6
S'timestamp'
p7
aF2.210677146911621
aatp8
Rp9
.ccollections
OrderedDict
p0
((lp1
(lp2
S'state'
p3
aI400
aa(lp4
S'distance'
p5
aF374.735595703125
aa(lp6
S'timestamp'
p7
aF2.2200281620025635
aatp8
Rp9
.ccollections
OrderedDict
p0
((lp1
(lp2
S'state'
p3
aI400
aa(lp4
S'distance'
p5
aF374.735595703125
aa(lp6
S'timestamp'
p7
aF2.2206530570983887
aatp8
Rp9
.ccollections
OrderedDict
p0
((lp1
(lp2
S'state'
p3
aI400
aa(lp4
S'distance'
p5
aF374.735595703125
aa(lp6
S'timestamp'
p7
aF2.229820966720581
aatp8
Rp9
.ccollections
OrderedDict
p0
((lp1
(lp2
S'state'
p3
aI400
aa(lp4
S'distance'
p5
aF374.735595703125
aa(lp6
S'timestamp'
p7
aF2.231168031692505
aatp8
Rp9
.ccollections
OrderedDict
p0
((lp1
(lp2
S'state'
p3
aI400
aa(lp4
S'distance'
p5
aF374.735595703125
aa(lp6
S'timestamp'
p7
aF2.239997148513794
aatp8
Rp9
.ccollections
OrderedDict
p0
((lp1
(lp2
S'state'
p3
aI400
aa(lp4
S'distance'
p5
aF374.735595703125
aa(lp6
S'timestamp'
p7
aF2.24106502532959
aatp8
Rp9
.ccollections
OrderedDict
p0
((lp1
(lp2
S'state'
p3
aI400
aa(lp4
S'distance'
p5
aF374.735595703125
aa(lp6
S'timestamp'
p7
aF2.2499160766601562
aatp8
Rp9
.ccollections
OrderedDict
p0
((lp1
(lp2
S'state'
p3
aI400
aa(lp4
S'distance'
p5
aF374.735595703125
aa(lp6
S'timestamp'
p7
aF2.2599189281463623
aatp8
Rp9
.ccollections
OrderedDict
p0
((lp1
(lp2
S'state'
p3
aI400
aa(lp4
S'distance'
p5
aF374.735595703125
aa(lp6
S'timestamp'
p7
aF2.260512113571167
aatp8
Rp9
.ccollections
OrderedDict
p0
((lp1
(lp2
S'state'
p3
aI400
aa(lp4
S'distance'
p5
aF374.735595703125
aa(lp6
S'timestamp'
p7
aF2.261362075805664
aatp8
Rp9
.ccollections
OrderedDict
p0
((lp1
(lp2
S'state'
p3
aI400
aa(lp4
S'distance'
p5
aF374.735595703125
aa(lp6
S'timestamp'
p7
aF2.2699079513549805
aatp8
Rp9
.ccollections
OrderedDict
p0
((lp1
(lp2
S'state'
p3
aI400
aa(lp4
S'distance'
p5
aF374.735595703125
aa(lp6
S'timestamp'
p7
aF2.2711241245269775
aatp8
Rp9
.ccollections
OrderedDict
p0
((lp1
(lp2
S'state'
p3
aI400
aa(lp4
S'distance'
p5
aF374.735595703125
aa(lp6
S'timestamp'
p7
aF2.2799880504608154
aatp8
Rp9
.ccollections
OrderedDict
p0
((lp1
(lp2
S'state'
p3
aI400
aa(lp4
S'distance'
p5
aF374.735595703125
aa(lp6
S'timestamp'
p7
aF2.2817230224609375
aatp8
Rp9
.ccollections
OrderedDict
p0
((lp1
(lp2
S'state'
p3
aI400
aa(lp4
S'distance'
p5
aF374.735595703125
aa(lp6
S'timestamp'
p7
aF2.2899320125579834
aatp8
Rp9
.ccollections
OrderedDict
p0
((lp1
(lp2
S'state'
p3
aI400
aa(lp4
S'distance'
p5
aF374.735595703125
aa(lp6
S'timestamp'
p7
aF2.2905759811401367
aatp8
Rp9
.ccollections
OrderedDict
p0
((lp1
(lp2
S'state'
p3
aI400
aa(lp4
S'distance'
p5
aF374.735595703125
aa(lp6
S'timestamp'
p7
aF2.3001389503479004
aatp8
Rp9
.ccollections
OrderedDict
p0
((lp1
(lp2
S'state'
p3
aI400
aa(lp4
S'distance'
p5
aF374.735595703125
aa(lp6
S'timestamp'
p7
aF2.3009979724884033
aatp8
Rp9
.ccollections
OrderedDict
p0
((lp1
(lp2
S'state'
p3
aI400
aa(lp4
S'distance'
p5
aF374.735595703125
aa(lp6
S'timestamp'
p7
aF2.309937000274658
aatp8
Rp9
.ccollections
OrderedDict
p0
((lp1
(lp2
S'state'
p3
aI400
aa(lp4
S'distance'
p5
aF374.735595703125
aa(lp6
S'timestamp'
p7
aF2.3110790252685547
aatp8
Rp9
.ccollections
OrderedDict
p0
((lp1
(lp2
S'state'
p3
aI400
aa(lp4
S'distance'
p5
aF374.735595703125
aa(lp6
S'timestamp'
p7
aF2.3198490142822266
aatp8
Rp9
.ccollections
OrderedDict
p0
((lp1
(lp2
S'state'
p3
aI400
aa(lp4
S'distance'
p5
aF374.735595703125
aa(lp6
S'timestamp'
p7
aF2.3216469287872314
aatp8
Rp9
.ccollections
OrderedDict
p0
((lp1
(lp2
S'state'
p3
aI400
aa(lp4
S'distance'
p5
aF374.735595703125
aa(lp6
S'timestamp'
p7
aF2.3298959732055664
aatp8
Rp9
.ccollections
OrderedDict
p0
((lp1
(lp2
S'state'
p3
aI400
aa(lp4
S'distance'
p5
aF374.735595703125
aa(lp6
S'timestamp'
p7
aF2.3308401107788086
aatp8
Rp9
.ccollections
OrderedDict
p0
((lp1
(lp2
S'state'
p3
aI400
aa(lp4
S'distance'
p5
aF374.735595703125
aa(lp6
S'timestamp'
p7
aF2.339906930923462
aatp8
Rp9
.ccollections
OrderedDict
p0
((lp1
(lp2
S'state'
p3
aI400
aa(lp4
S'distance'
p5
aF374.735595703125
aa(lp6
S'timestamp'
p7
aF2.341175079345703
aatp8
Rp9
.ccollections
OrderedDict
p0
((lp1
(lp2
S'state'
p3
aI400
aa(lp4
S'distance'
p5
aF374.735595703125
aa(lp6
S'timestamp'
p7
aF2.349843978881836
aatp8
Rp9
.ccollections
OrderedDict
p0
((lp1
(lp2
S'state'
p3
aI400
aa(lp4
S'distance'
p5
aF374.735595703125
aa(lp6
S'timestamp'
p7
aF2.3510560989379883
aatp8
Rp9
.ccollections
OrderedDict
p0
((lp1
(lp2
S'state'
p3
aI0
aa(lp4
S'distance'
p5
aF374.735595703125
aa(lp6
S'timestamp'
p7
aF2.3598499298095703
aatp8
Rp9
.ccollections
OrderedDict
p0
((lp1
(lp2
S'state'
p3
aI0
aa(lp4
S'distance'
p5
aF256.76030349731445
aa(lp6
S'timestamp'
p7
aF2.9222469329833984
aatp8
Rp9
.ccollections
OrderedDict
p0
((lp1
(lp2
S'state'
p3
aI0
aa(lp4
S'distance'
p5
aF256.76030349731445
aa(lp6
S'timestamp'
p7
aF2.930117130279541
aatp8
Rp9
.ccollections
OrderedDict
p0
((lp1
(lp2
S'state'
p3
aI0
aa(lp4
S'distance'
p5
aF256.76030349731445
aa(lp6
S'timestamp'
p7
aF2.931424140930176
aatp8
Rp9
.ccollections
OrderedDict
p0
((lp1
(lp2
S'state'
p3
aI0
aa(lp4
S'distance'
p5
aF256.76030349731445
aa(lp6
S'timestamp'
p7
aF2.9406321048736572
aatp8
Rp9
.ccollections
OrderedDict
p0
((lp1
(lp2
S'state'
p3
aI0
aa(lp4
S'distance'
p5
aF256.76030349731445
aa(lp6
S'timestamp'
p7
aF2.9409239292144775
aatp8
Rp9
.ccollections
OrderedDict
p0
((lp1
(lp2
S'state'
p3
aI0
aa(lp4
S'distance'
p5
aF256.76030349731445
aa(lp6
S'timestamp'
p7
aF2.9502201080322266
aatp8
Rp9
.ccollections
OrderedDict
p0
((lp1
(lp2
S'state'
p3
aI0
aa(lp4
S'distance'
p5
aF256.76030349731445
aa(lp6
S'timestamp'
p7
aF2.951050043106079
aatp8
Rp9
.ccollections
OrderedDict
p0
((lp1
(lp2
S'state'
p3
aI0
aa(lp4
S'distance'
p5
aF256.76030349731445
aa(lp6
S'timestamp'
p7
aF2.960381031036377
aatp8
Rp9
.ccollections
OrderedDict
p0
((lp1
(lp2
S'state'
p3
aI0
aa(lp4
S'distance'
p5
aF256.76030349731445
aa(lp6
S'timestamp'
p7
aF2.961764097213745
aatp8
Rp9
.ccollections
OrderedDict
p0
((lp1
(lp2
S'state'
p3
aI0
aa(lp4
S'distance'
p5
aF256.76030349731445
aa(lp6
S'timestamp'
p7
aF2.97031307220459
aatp8
Rp9
.ccollections
OrderedDict
p0
((lp1
(lp2
S'state'
p3
aI0
aa(lp4
S'distance'
p5
aF256.76030349731445
aa(lp6
S'timestamp'
p7
aF2.9709701538085938
aatp8
Rp9
.ccollections
OrderedDict
p0
((lp1
(lp2
S'state'
p3
aI0
aa(lp4
S'distance'
p5
aF256.76030349731445
aa(lp6
S'timestamp'
p7
aF2.9802210330963135
aatp8
Rp9
.ccollections
OrderedDict
p0
((lp1
(lp2
S'state'
p3
aI0
aa(lp4
S'distance'
p5
aF256.76030349731445
aa(lp6
S'timestamp'
p7
aF2.981760025024414
aatp8
Rp9
.ccollections
OrderedDict
p0
((lp1
(lp2
S'state'
p3
aI0
aa(lp4
S'distance'
p5
aF256.76030349731445
aa(lp6
S'timestamp'
p7
aF2.9901230335235596
aatp8
Rp9
.ccollections
OrderedDict
p0
((lp1
(lp2
S'state'
p3
aI0
aa(lp4
S'distance'
p5
aF256.76030349731445
aa(lp6
S'timestamp'
p7
aF2.9913721084594727
aatp8
Rp9
.ccollections
OrderedDict
p0
((lp1
(lp2
S'state'
p3
aI0
aa(lp4
S'distance'
p5
aF256.76030349731445
aa(lp6
S'timestamp'
p7
aF3.0010769367218018
aatp8
Rp9
.ccollections
OrderedDict
p0
((lp1
(lp2
S'state'
p3
aI0
aa(lp4
S'distance'
p5
aF256.76030349731445
aa(lp6
S'timestamp'
p7
aF3.001850128173828
aatp8
Rp9
.ccollections
OrderedDict
p0
((lp1
(lp2
S'state'
p3
aI0
aa(lp4
S'distance'
p5
aF256.76030349731445
aa(lp6
S'timestamp'
p7
aF3.0102689266204834
aatp8
Rp9
.ccollections
OrderedDict
p0
((lp1
(lp2
S'state'
p3
aI0
aa(lp4
S'distance'
p5
aF256.76030349731445
aa(lp6
S'timestamp'
p7
aF3.0139801502227783
aatp8
Rp9
.ccollections
OrderedDict
p0
((lp1
(lp2
S'state'
p3
aI0
aa(lp4
S'distance'
p5
aF256.76030349731445
aa(lp6
S'timestamp'
p7
aF3.02120304107666
aatp8
Rp9
.ccollections
OrderedDict
p0
((lp1
(lp2
S'state'
p3
aI0
aa(lp4
S'distance'
p5
aF256.76030349731445
aa(lp6
S'timestamp'
p7
aF3.0214321613311768
aatp8
Rp9
.ccollections
OrderedDict
p0
((lp1
(lp2
S'state'
p3
aI0
aa(lp4
S'distance'
p5
aF256.76030349731445
aa(lp6
S'timestamp'
p7
aF3.0303640365600586
aatp8
Rp9
.ccollections
OrderedDict
p0
((lp1
(lp2
S'state'
p3
aI0
aa(lp4
S'distance'
p5
aF256.76030349731445
aa(lp6
S'timestamp'
p7
aF3.0404529571533203
aatp8
Rp9
.ccollections
OrderedDict
p0
((lp1
(lp2
S'state'
p3
aI0
aa(lp4
S'distance'
p5
aF256.76030349731445
aa(lp6
S'timestamp'
p7
aF3.040708065032959
aatp8
Rp9
.ccollections
OrderedDict
p0
((lp1
(lp2
S'state'
p3
aI0
aa(lp4
S'distance'
p5
aF256.76030349731445
aa(lp6
S'timestamp'
p7
aF3.0414819717407227
aatp8
Rp9
.ccollections
OrderedDict
p0
((lp1
(lp2
S'state'
p3
aI0
aa(lp4
S'distance'
p5
aF256.76030349731445
aa(lp6
S'timestamp'
p7
aF3.050328016281128
aatp8
Rp9
.ccollections
OrderedDict
p0
((lp1
(lp2
S'state'
p3
aI0
aa(lp4
S'distance'
p5
aF256.76030349731445
aa(lp6
S'timestamp'
p7
aF3.050771951675415
aatp8
Rp9
.ccollections
OrderedDict
p0
((lp1
(lp2
S'state'
p3
aI0
aa(lp4
S'distance'
p5
aF256.76030349731445
aa(lp6
S'timestamp'
p7
aF3.061422109603882
aatp8
Rp9
.ccollections
OrderedDict
p0
((lp1
(lp2
S'state'
p3
aI0
aa(lp4
S'distance'
p5
aF256.76030349731445
aa(lp6
S'timestamp'
p7
aF3.062061071395874
aatp8
Rp9
.ccollections
OrderedDict
p0
((lp1
(lp2
S'state'
p3
aI0
aa(lp4
S'distance'
p5
aF256.76030349731445
aa(lp6
S'timestamp'
p7
aF3.0709121227264404
aatp8
Rp9
.ccollections
OrderedDict
p0
((lp1
(lp2
S'state'
p3
aI0
aa(lp4
S'distance'
p5
aF256.76030349731445
aa(lp6
S'timestamp'
p7
aF3.0711510181427
aatp8
Rp9
.ccollections
OrderedDict
p0
((lp1
(lp2
S'state'
p3
aI0
aa(lp4
S'distance'
p5
aF256.76030349731445
aa(lp6
S'timestamp'
p7
aF3.080065965652466
aatp8
Rp9
.ccollections
OrderedDict
p0
((lp1
(lp2
S'state'
p3
aI0
aa(lp4
S'distance'
p5
aF256.76030349731445
aa(lp6
S'timestamp'
p7
aF3.0818891525268555
aatp8
Rp9
.ccollections
OrderedDict
p0
((lp1
(lp2
S'state'
p3
aI0
aa(lp4
S'distance'
p5
aF256.76030349731445
aa(lp6
S'timestamp'
p7
aF3.090369939804077
aatp8
Rp9
.ccollections
OrderedDict
p0
((lp1
(lp2
S'state'
p3
aI0
aa(lp4
S'distance'
p5
aF256.76030349731445
aa(lp6
S'timestamp'
p7
aF3.0915510654449463
aatp8
Rp9
.ccollections
OrderedDict
p0
((lp1
(lp2
S'state'
p3
aI0
aa(lp4
S'distance'
p5
aF256.76030349731445
aa(lp6
S'timestamp'
p7
aF3.1003451347351074
aatp8
Rp9
.ccollections
OrderedDict
p0
((lp1
(lp2
S'state'
p3
aI0
aa(lp4
S'distance'
p5
aF256.76030349731445
aa(lp6
S'timestamp'
p7
aF3.10076904296875
aatp8
Rp9
.ccollections
OrderedDict
p0
((lp1
(lp2
S'state'
p3
aI0
aa(lp4
S'distance'
p5
aF256.76030349731445
aa(lp6
S'timestamp'
p7
aF3.110743999481201
aatp8
Rp9
.ccollections
OrderedDict
p0
((lp1
(lp2
S'state'
p3
aI0
aa(lp4
S'distance'
p5
aF256.76030349731445
aa(lp6
S'timestamp'
p7
aF3.111588954925537
aatp8
Rp9
.ccollections
OrderedDict
p0
((lp1
(lp2
S'state'
p3
aI0
aa(lp4
S'distance'
p5
aF256.76030349731445
aa(lp6
S'timestamp'
p7
aF3.1204400062561035
aatp8
Rp9
.ccollections
OrderedDict
p0
((lp1
(lp2
S'state'
p3
aI0
aa(lp4
S'distance'
p5
aF256.76030349731445
aa(lp6
S'timestamp'
p7
aF3.1217610836029053
aatp8
Rp9
.ccollections
OrderedDict
p0
((lp1
(lp2
S'state'
p3
aI0
aa(lp4
S'distance'
p5
aF256.76030349731445
aa(lp6
S'timestamp'
p7
aF3.130208969116211
aatp8
Rp9
.ccollections
OrderedDict
p0
((lp1
(lp2
S'state'
p3
aI0
aa(lp4
S'distance'
p5
aF256.76030349731445
aa(lp6
S'timestamp'
p7
aF3.1313979625701904
aatp8
Rp9
.ccollections
OrderedDict
p0
((lp1
(lp2
S'state'
p3
aI0
aa(lp4
S'distance'
p5
aF256.76030349731445
aa(lp6
S'timestamp'
p7
aF3.14005708694458
aatp8
Rp9
.ccollections
OrderedDict
p0
((lp1
(lp2
S'state'
p3
aI400
aa(lp4
S'distance'
p5
aF256.76030349731445
aa(lp6
S'timestamp'
p7
aF3.1418211460113525
aatp8
Rp9
.ccollections
OrderedDict
p0
((lp1
(lp2
S'state'
p3
aI400
aa(lp4
S'distance'
p5
aF256.76030349731445
aa(lp6
S'timestamp'
p7
aF3.16168212890625
aatp8
Rp9
.ccollections
OrderedDict
p0
((lp1
(lp2
S'state'
p3
aI400
aa(lp4
S'distance'
p5
aF256.76030349731445
aa(lp6
S'timestamp'
p7
aF3.162055015563965
aatp8
Rp9
.ccollections
OrderedDict
p0
((lp1
(lp2
S'state'
p3
aI400
aa(lp4
S'distance'
p5
aF256.76030349731445
aa(lp6
S'timestamp'
p7
aF3.163619041442871
aatp8
Rp9
.ccollections
OrderedDict
p0
((lp1
(lp2
S'state'
p3
aI400
aa(lp4
S'distance'
p5
aF256.76030349731445
aa(lp6
S'timestamp'
p7
aF3.163776159286499
aatp8
Rp9
.ccollections
OrderedDict
p0
((lp1
(lp2
S'state'
p3
aI400
aa(lp4
S'distance'
p5
aF256.76030349731445
aa(lp6
S'timestamp'
p7
aF3.1716420650482178
aatp8
Rp9
.ccollections
OrderedDict
p0
((lp1
(lp2
S'state'
p3
aI400
aa(lp4
S'distance'
p5
aF256.76030349731445
aa(lp6
S'timestamp'
p7
aF3.1717920303344727
aatp8
Rp9
.ccollections
OrderedDict
p0
((lp1
(lp2
S'state'
p3
aI400
aa(lp4
S'distance'
p5
aF256.76030349731445
aa(lp6
S'timestamp'
p7
aF3.182068109512329
aatp8
Rp9
.ccollections
OrderedDict
p0
((lp1
(lp2
S'state'
p3
aI400
aa(lp4
S'distance'
p5
aF256.76030349731445
aa(lp6
S'timestamp'
p7
aF3.18703293800354
aatp8
Rp9
.ccollections
OrderedDict
p0
((lp1
(lp2
S'state'
p3
aI400
aa(lp4
S'distance'
p5
aF256.76030349731445
aa(lp6
S'timestamp'
p7
aF3.190279006958008
aatp8
Rp9
.ccollections
OrderedDict
p0
((lp1
(lp2
S'state'
p3
aI400
aa(lp4
S'distance'
p5
aF256.76030349731445
aa(lp6
S'timestamp'
p7
aF3.191354990005493
aatp8
Rp9
.ccollections
OrderedDict
p0
((lp1
(lp2
S'state'
p3
aI400
aa(lp4
S'distance'
p5
aF256.76030349731445
aa(lp6
S'timestamp'
p7
aF3.200119972229004
aatp8
Rp9
.ccollections
OrderedDict
p0
((lp1
(lp2
S'state'
p3
aI400
aa(lp4
S'distance'
p5
aF256.76030349731445
aa(lp6
S'timestamp'
p7
aF3.2037861347198486
aatp8
Rp9
.ccollections
OrderedDict
p0
((lp1
(lp2
S'state'
p3
aI400
aa(lp4
S'distance'
p5
aF256.76030349731445
aa(lp6
S'timestamp'
p7
aF3.2107131481170654
aatp8
Rp9
.ccollections
OrderedDict
p0
((lp1
(lp2
S'state'
p3
aI400
aa(lp4
S'distance'
p5
aF256.76030349731445
aa(lp6
S'timestamp'
p7
aF3.210926055908203
aatp8
Rp9
.ccollections
OrderedDict
p0
((lp1
(lp2
S'state'
p3
aI400
aa(lp4
S'distance'
p5
aF256.76030349731445
aa(lp6
S'timestamp'
p7
aF3.2204530239105225
aatp8
Rp9
.ccollections
OrderedDict
p0
((lp1
(lp2
S'state'
p3
aI400
aa(lp4
S'distance'
p5
aF256.76030349731445
aa(lp6
S'timestamp'
p7
aF3.2308881282806396
aatp8
Rp9
.ccollections
OrderedDict
p0
((lp1
(lp2
S'state'
p3
aI400
aa(lp4
S'distance'
p5
aF256.76030349731445
aa(lp6
S'timestamp'
p7
aF3.231074094772339
aatp8
Rp9
.ccollections
OrderedDict
p0
((lp1
(lp2
S'state'
p3
aI400
aa(lp4
S'distance'
p5
aF256.76030349731445
aa(lp6
S'timestamp'
p7
aF3.2320799827575684
aatp8
Rp9
.ccollections
OrderedDict
p0
((lp1
(lp2
S'state'
p3
aI400
aa(lp4
S'distance'
p5
aF256.76030349731445
aa(lp6
S'timestamp'
p7
aF3.2409040927886963
aatp8
Rp9
.ccollections
OrderedDict
p0
((lp1
(lp2
S'state'
p3
aI400
aa(lp4
S'distance'
p5
aF256.76030349731445
aa(lp6
S'timestamp'
p7
aF3.2410881519317627
aatp8
Rp9
.ccollections
OrderedDict
p0
((lp1
(lp2
S'state'
p3
aI400
aa(lp4
S'distance'
p5
aF256.76030349731445
aa(lp6
S'timestamp'
p7
aF3.2507071495056152
aatp8
Rp9
.ccollections
OrderedDict
p0
((lp1
(lp2
S'state'
p3
aI400
aa(lp4
S'distance'
p5
aF256.76030349731445
aa(lp6
S'timestamp'
p7
aF3.250951051712036
aatp8
Rp9
.ccollections
OrderedDict
p0
((lp1
(lp2
S'state'
p3
aI400
aa(lp4
S'distance'
p5
aF256.76030349731445
aa(lp6
S'timestamp'
p7
aF3.260322093963623
aatp8
Rp9
.ccollections
OrderedDict
p0
((lp1
(lp2
S'state'
p3
aI400
aa(lp4
S'distance'
p5
aF256.76030349731445
aa(lp6
S'timestamp'
p7
aF3.261057138442993
aatp8
Rp9
.ccollections
OrderedDict
p0
((lp1
(lp2
S'state'
p3
aI400
aa(lp4
S'distance'
p5
aF256.76030349731445
aa(lp6
S'timestamp'
p7
aF3.2708051204681396
aatp8
Rp9
.ccollections
OrderedDict
p0
((lp1
(lp2
S'state'
p3
aI400
aa(lp4
S'distance'
p5
aF256.76030349731445
aa(lp6
S'timestamp'
p7
aF3.270905017852783
aatp8
Rp9
.ccollections
OrderedDict
p0
((lp1
(lp2
S'state'
p3
aI400
aa(lp4
S'distance'
p5
aF256.76030349731445
aa(lp6
S'timestamp'
p7
aF3.2802000045776367
aatp8
Rp9
.ccollections
OrderedDict
p0
((lp1
(lp2
S'state'
p3
aI400
aa(lp4
S'distance'
p5
aF256.76030349731445
aa(lp6
S'timestamp'
p7
aF3.2808690071105957
aatp8
Rp9
.ccollections
OrderedDict
p0
((lp1
(lp2
S'state'
p3
aI400
aa(lp4
S'distance'
p5
aF256.76030349731445
aa(lp6
S'timestamp'
p7
aF3.290295124053955
aatp8
Rp9
.ccollections
OrderedDict
p0
((lp1
(lp2
S'state'
p3
aI400
aa(lp4
S'distance'
p5
aF256.76030349731445
aa(lp6
S'timestamp'
p7
aF3.2909810543060303
aatp8
Rp9
.ccollections
OrderedDict
p0
((lp1
(lp2
S'state'
p3
aI400
aa(lp4
S'distance'
p5
aF256.76030349731445
aa(lp6
S'timestamp'
p7
aF3.30021595954895
aatp8
Rp9
.ccollections
OrderedDict
p0
((lp1
(lp2
S'state'
p3
aI400
aa(lp4
S'distance'
p5
aF256.76030349731445
aa(lp6
S'timestamp'
p7
aF3.3018620014190674
aatp8
Rp9
.ccollections
OrderedDict
p0
((lp1
(lp2
S'state'
p3
aI400
aa(lp4
S'distance'
p5
aF256.76030349731445
aa(lp6
S'timestamp'
p7
aF3.3101940155029297
aatp8
Rp9
.ccollections
OrderedDict
p0
((lp1
(lp2
S'state'
p3
aI400
aa(lp4
S'distance'
p5
aF256.76030349731445
aa(lp6
S'timestamp'
p7
aF3.311527967453003
aatp8
Rp9
.ccollections
OrderedDict
p0
((lp1
(lp2
S'state'
p3
aI400
aa(lp4
S'distance'
p5
aF256.76030349731445
aa(lp6
S'timestamp'
p7
aF3.3207790851593018
aatp8
Rp9
.ccollections
OrderedDict
p0
((lp1
(lp2
S'state'
p3
aI400
aa(lp4
S'distance'
p5
aF256.76030349731445
aa(lp6
S'timestamp'
p7
aF3.3210060596466064
aatp8
Rp9
.ccollections
OrderedDict
p0
((lp1
(lp2
S'state'
p3
aI400
aa(lp4
S'distance'
p5
aF256.76030349731445
aa(lp6
S'timestamp'
p7
aF3.3304519653320312
aatp8
Rp9
.ccollections
OrderedDict
p0
((lp1
(lp2
S'state'
p3
aI400
aa(lp4
S'distance'
p5
aF256.76030349731445
aa(lp6
S'timestamp'
p7
aF3.3310000896453857
aatp8
Rp9
.ccollections
OrderedDict
p0
((lp1
(lp2
S'state'
p3
aI400
aa(lp4
S'distance'
p5
aF256.76030349731445
aa(lp6
S'timestamp'
p7
aF3.3402860164642334
aatp8
Rp9
.ccollections
OrderedDict
p0
((lp1
(lp2
S'state'
p3
aI400
aa(lp4
S'distance'
p5
aF256.76030349731445
aa(lp6
S'timestamp'
p7
aF3.340985059738159
aatp8
Rp9
.ccollections
OrderedDict
p0
((lp1
(lp2
S'state'
p3
aI400
aa(lp4
S'distance'
p5
aF256.76030349731445
aa(lp6
S'timestamp'
p7
aF3.3501861095428467
aatp8
Rp9
.ccollections
OrderedDict
p0
((lp1
(lp2
S'state'
p3
aI400
aa(lp4
S'distance'
p5
aF256.76030349731445
aa(lp6
S'timestamp'
p7
aF3.350986957550049
aatp8
Rp9
.ccollections
OrderedDict
p0
((lp1
(lp2
S'state'
p3
aI400
aa(lp4
S'distance'
p5
aF256.76030349731445
aa(lp6
S'timestamp'
p7
aF3.3706679344177246
aatp8
Rp9
.ccollections
OrderedDict
p0
((lp1
(lp2
S'state'
p3
aI400
aa(lp4
S'distance'
p5
aF256.76030349731445
aa(lp6
S'timestamp'
p7
aF3.371506929397583
aatp8
Rp9
.ccollections
OrderedDict
p0
((lp1
(lp2
S'state'
p3
aI400
aa(lp4
S'distance'
p5
aF256.76030349731445
aa(lp6
S'timestamp'
p7
aF3.373347043991089
aatp8
Rp9
.ccollections
OrderedDict
p0
((lp1
(lp2
S'state'
p3
aI400
aa(lp4
S'distance'
p5
aF256.76030349731445
aa(lp6
S'timestamp'
p7
aF3.374027967453003
aatp8
Rp9
.ccollections
OrderedDict
p0
((lp1
(lp2
S'state'
p3
aI400
aa(lp4
S'distance'
p5
aF256.76030349731445
aa(lp6
S'timestamp'
p7
aF3.3808741569519043
aatp8
Rp9
.ccollections
OrderedDict
p0
((lp1
(lp2
S'state'
p3
aI400
aa(lp4
S'distance'
p5
aF256.76030349731445
aa(lp6
S'timestamp'
p7
aF3.381035089492798
aatp8
Rp9
.ccollections
OrderedDict
p0
((lp1
(lp2
S'state'
p3
aI400
aa(lp4
S'distance'
p5
aF256.76030349731445
aa(lp6
S'timestamp'
p7
aF3.390429973602295
aatp8
Rp9
.ccollections
OrderedDict
p0
((lp1
(lp2
S'state'
p3
aI400
aa(lp4
S'distance'
p5
aF256.76030349731445
aa(lp6
S'timestamp'
p7
aF3.390994071960449
aatp8
Rp9
.ccollections
OrderedDict
p0
((lp1
(lp2
S'state'
p3
aI400
aa(lp4
S'distance'
p5
aF256.76030349731445
aa(lp6
S'timestamp'
p7
aF3.400771141052246
aatp8
Rp9
.ccollections
OrderedDict
p0
((lp1
(lp2
S'state'
p3
aI400
aa(lp4
S'distance'
p5
aF256.76030349731445
aa(lp6
S'timestamp'
p7
aF3.401050090789795
aatp8
Rp9
.ccollections
OrderedDict
p0
((lp1
(lp2
S'state'
p3
aI400
aa(lp4
S'distance'
p5
aF256.76030349731445
aa(lp6
S'timestamp'
p7
aF3.410443067550659
aatp8
Rp9
.ccollections
OrderedDict
p0
((lp1
(lp2
S'state'
p3
aI400
aa(lp4
S'distance'
p5
aF256.76030349731445
aa(lp6
S'timestamp'
p7
aF3.4108619689941406
aatp8
Rp9
.ccollections
OrderedDict
p0
((lp1
(lp2
S'state'
p3
aI400
aa(lp4
S'distance'
p5
aF256.76030349731445
aa(lp6
S'timestamp'
p7
aF3.4202680587768555
aatp8
Rp9
.ccollections
OrderedDict
p0
((lp1
(lp2
S'state'
p3
aI400
aa(lp4
S'distance'
p5
aF256.76030349731445
aa(lp6
S'timestamp'
p7
aF3.4218339920043945
aatp8
Rp9
.ccollections
OrderedDict
p0
((lp1
(lp2
S'state'
p3
aI400
aa(lp4
S'distance'
p5
aF256.76030349731445
aa(lp6
S'timestamp'
p7
aF3.4302351474761963
aatp8
Rp9
.ccollections
OrderedDict
p0
((lp1
(lp2
S'state'
p3
aI400
aa(lp4
S'distance'
p5
aF256.76030349731445
aa(lp6
S'timestamp'
p7
aF3.431234121322632
aatp8
Rp9
.ccollections
OrderedDict
p0
((lp1
(lp2
S'state'
p3
aI400
aa(lp4
S'distance'
p5
aF256.76030349731445
aa(lp6
S'timestamp'
p7
aF3.440277099609375
aatp8
Rp9
.ccollections
OrderedDict
p0
((lp1
(lp2
S'state'
p3
aI400
aa(lp4
S'distance'
p5
aF256.76030349731445
aa(lp6
S'timestamp'
p7
aF3.441132068634033
aatp8
Rp9
.ccollections
OrderedDict
p0
((lp1
(lp2
S'state'
p3
aI400
aa(lp4
S'distance'
p5
aF256.76030349731445
aa(lp6
S'timestamp'
p7
aF3.46083402633667
aatp8
Rp9
.ccollections
OrderedDict
p0
((lp1
(lp2
S'state'
p3
aI400
aa(lp4
S'distance'
p5
aF256.76030349731445
aa(lp6
S'timestamp'
p7
aF3.4610631465911865
aatp8
Rp9
.ccollections
OrderedDict
p0
((lp1
(lp2
S'state'
p3
aI400
aa(lp4
S'distance'
p5
aF256.76030349731445
aa(lp6
S'timestamp'
p7
aF3.46271014213562
aatp8
Rp9
.ccollections
OrderedDict
p0
((lp1
(lp2
S'state'
p3
aI400
aa(lp4
S'distance'
p5
aF256.76030349731445
aa(lp6
S'timestamp'
p7
aF3.4631869792938232
aatp8
Rp9
.ccollections
OrderedDict
p0
((lp1
(lp2
S'state'
p3
aI400
aa(lp4
S'distance'
p5
aF256.76030349731445
aa(lp6
S'timestamp'
p7
aF3.470741033554077
aatp8
Rp9
.ccollections
OrderedDict
p0
((lp1
(lp2
S'state'
p3
aI400
aa(lp4
S'distance'
p5
aF256.76030349731445
aa(lp6
S'timestamp'
p7
aF3.470993995666504
aatp8
Rp9
.ccollections
OrderedDict
p0
((lp1
(lp2
S'state'
p3
aI400
aa(lp4
S'distance'
p5
aF256.76030349731445
aa(lp6
S'timestamp'
p7
aF3.4807801246643066
aatp8
Rp9
.ccollections
OrderedDict
p0
((lp1
(lp2
S'state'
p3
aI400
aa(lp4
S'distance'
p5
aF256.76030349731445
aa(lp6
S'timestamp'
p7
aF3.481003999710083
aatp8
Rp9
.ccollections
OrderedDict
p0
((lp1
(lp2
S'state'
p3
aI400
aa(lp4
S'distance'
p5
aF256.76030349731445
aa(lp6
S'timestamp'
p7
aF3.490273952484131
aatp8
Rp9
.ccollections
OrderedDict
p0
((lp1
(lp2
S'state'
p3
aI400
aa(lp4
S'distance'
p5
aF256.76030349731445
aa(lp6
S'timestamp'
p7
aF3.4918229579925537
aatp8
Rp9
.ccollections
OrderedDict
p0
((lp1
(lp2
S'state'
p3
aI400
aa(lp4
S'distance'
p5
aF256.76030349731445
aa(lp6
S'timestamp'
p7
aF3.5002591609954834
aatp8
Rp9
.ccollections
OrderedDict
p0
((lp1
(lp2
S'state'
p3
aI400
aa(lp4
S'distance'
p5
aF256.76030349731445
aa(lp6
S'timestamp'
p7
aF3.50175404548645
aatp8
Rp9
.ccollections
OrderedDict
p0
((lp1
(lp2
S'state'
p3
aI400
aa(lp4
S'distance'
p5
aF256.76030349731445
aa(lp6
S'timestamp'
p7
aF3.5104129314422607
aatp8
Rp9
.ccollections
OrderedDict
p0
((lp1
(lp2
S'state'
p3
aI400
aa(lp4
S'distance'
p5
aF256.76030349731445
aa(lp6
S'timestamp'
p7
aF3.5115480422973633
aatp8
Rp9
.ccollections
OrderedDict
p0
((lp1
(lp2
S'state'
p3
aI400
aa(lp4
S'distance'
p5
aF256.76030349731445
aa(lp6
S'timestamp'
p7
aF3.5204379558563232
aatp8
Rp9
.ccollections
OrderedDict
p0
((lp1
(lp2
S'state'
p3
aI400
aa(lp4
S'distance'
p5
aF256.76030349731445
aa(lp6
S'timestamp'
p7
aF3.530935049057007
aatp8
Rp9
.ccollections
OrderedDict
p0
((lp1
(lp2
S'state'
p3
aI400
aa(lp4
S'distance'
p5
aF256.76030349731445
aa(lp6
S'timestamp'
p7
aF3.531618118286133
aatp8
Rp9
.ccollections
OrderedDict
p0
((lp1
(lp2
S'state'
p3
aI400
aa(lp4
S'distance'
p5
aF256.76030349731445
aa(lp6
S'timestamp'
p7
aF3.531968116760254
aatp8
Rp9
.ccollections
OrderedDict
p0
((lp1
(lp2
S'state'
p3
aI400
aa(lp4
S'distance'
p5
aF256.76030349731445
aa(lp6
S'timestamp'
p7
aF3.5405280590057373
aatp8
Rp9
.ccollections
OrderedDict
p0
((lp1
(lp2
S'state'
p3
aI400
aa(lp4
S'distance'
p5
aF256.76030349731445
aa(lp6
S'timestamp'
p7
aF3.5415940284729004
aatp8
Rp9
.ccollections
OrderedDict
p0
((lp1
(lp2
S'state'
p3
aI400
aa(lp4
S'distance'
p5
aF256.76030349731445
aa(lp6
S'timestamp'
p7
aF3.5505759716033936
aatp8
Rp9
.ccollections
OrderedDict
p0
((lp1
(lp2
S'state'
p3
aI400
aa(lp4
S'distance'
p5
aF256.76030349731445
aa(lp6
S'timestamp'
p7
aF3.5511720180511475
aatp8
Rp9
.ccollections
OrderedDict
p0
((lp1
(lp2
S'state'
p3
aI400
aa(lp4
S'distance'
p5
aF256.76030349731445
aa(lp6
S'timestamp'
p7
aF3.560586929321289
aatp8
Rp9
.ccollections
OrderedDict
p0
((lp1
(lp2
S'state'
p3
aI400
aa(lp4
S'distance'
p5
aF256.76030349731445
aa(lp6
S'timestamp'
p7
aF3.5610480308532715
aatp8
Rp9
.ccollections
OrderedDict
p0
((lp1
(lp2
S'state'
p3
aI400
aa(lp4
S'distance'
p5
aF256.76030349731445
aa(lp6
S'timestamp'
p7
aF3.5702030658721924
aatp8
Rp9
.ccollections
OrderedDict
p0
((lp1
(lp2
S'state'
p3
aI400
aa(lp4
S'distance'
p5
aF256.76030349731445
aa(lp6
S'timestamp'
p7
aF3.5711300373077393
aatp8
Rp9
.ccollections
OrderedDict
p0
((lp1
(lp2
S'state'
p3
aI400
aa(lp4
S'distance'
p5
aF256.76030349731445
aa(lp6
S'timestamp'
p7
aF3.5803050994873047
aatp8
Rp9
.ccollections
OrderedDict
p0
((lp1
(lp2
S'state'
p3
aI400
aa(lp4
S'distance'
p5
aF256.76030349731445
aa(lp6
S'timestamp'
p7
aF3.5809969902038574
aatp8
Rp9
.ccollections
OrderedDict
p0
((lp1
(lp2
S'state'
p3
aI400
aa(lp4
S'distance'
p5
aF256.76030349731445
aa(lp6
S'timestamp'
p7
aF3.590204954147339
aatp8
Rp9
.ccollections
OrderedDict
p0
((lp1
(lp2
S'state'
p3
aI400
aa(lp4
S'distance'
p5
aF256.76030349731445
aa(lp6
S'timestamp'
p7
aF3.6008081436157227
aatp8
Rp9
.ccollections
OrderedDict
p0
((lp1
(lp2
S'state'
p3
aI400
aa(lp4
S'distance'
p5
aF256.76030349731445
aa(lp6
S'timestamp'
p7
aF3.6014790534973145
aatp8
Rp9
.ccollections
OrderedDict
p0
((lp1
(lp2
S'state'
p3
aI400
aa(lp4
S'distance'
p5
aF256.76030349731445
aa(lp6
S'timestamp'
p7
aF3.6023571491241455
aatp8
Rp9
.ccollections
OrderedDict
p0
((lp1
(lp2
S'state'
p3
aI400
aa(lp4
S'distance'
p5
aF256.76030349731445
aa(lp6
S'timestamp'
p7
aF3.6151490211486816
aatp8
Rp9
.ccollections
OrderedDict
p0
((lp1
(lp2
S'state'
p3
aI400
aa(lp4
S'distance'
p5
aF256.76030349731445
aa(lp6
S'timestamp'
p7
aF3.6175780296325684
aatp8
Rp9
.ccollections
OrderedDict
p0
((lp1
(lp2
S'state'
p3
aI400
aa(lp4
S'distance'
p5
aF256.76030349731445
aa(lp6
S'timestamp'
p7
aF3.6213979721069336
aatp8
Rp9
.ccollections
OrderedDict
p0
((lp1
(lp2
S'state'
p3
aI400
aa(lp4
S'distance'
p5
aF256.76030349731445
aa(lp6
S'timestamp'
p7
aF3.6215829849243164
aatp8
Rp9
.ccollections
OrderedDict
p0
((lp1
(lp2
S'state'
p3
aI400
aa(lp4
S'distance'
p5
aF256.76030349731445
aa(lp6
S'timestamp'
p7
aF3.6303229331970215
aatp8
Rp9
.ccollections
OrderedDict
p0
((lp1
(lp2
S'state'
p3
aI400
aa(lp4
S'distance'
p5
aF256.76030349731445
aa(lp6
S'timestamp'
p7
aF3.6310250759124756
aatp8
Rp9
.ccollections
OrderedDict
p0
((lp1
(lp2
S'state'
p3
aI400
aa(lp4
S'distance'
p5
aF256.76030349731445
aa(lp6
S'timestamp'
p7
aF3.6405420303344727
aatp8
Rp9
.ccollections
OrderedDict
p0
((lp1
(lp2
S'state'
p3
aI400
aa(lp4
S'distance'
p5
aF256.76030349731445
aa(lp6
S'timestamp'
p7
aF3.640990972518921
aatp8
Rp9
.ccollections
OrderedDict
p0
((lp1
(lp2
S'state'
p3
aI400
aa(lp4
S'distance'
p5
aF256.76030349731445
aa(lp6
S'timestamp'
p7
aF3.651785135269165
aatp8
Rp9
.ccollections
OrderedDict
p0
((lp1
(lp2
S'state'
p3
aI400
aa(lp4
S'distance'
p5
aF256.76030349731445
aa(lp6
S'timestamp'
p7
aF3.6518630981445312
aatp8
Rp9
.ccollections
OrderedDict
p0
((lp1
(lp2
S'state'
p3
aI400
aa(lp4
S'distance'
p5
aF256.76030349731445
aa(lp6
S'timestamp'
p7
aF3.6603691577911377
aatp8
Rp9
.ccollections
OrderedDict
p0
((lp1
(lp2
S'state'
p3
aI400
aa(lp4
S'distance'
p5
aF256.76030349731445
aa(lp6
S'timestamp'
p7
aF3.661013126373291
aatp8
Rp9
.ccollections
OrderedDict
p0
((lp1
(lp2
S'state'
p3
aI400
aa(lp4
S'distance'
p5
aF256.76030349731445
aa(lp6
S'timestamp'
p7
aF3.6702260971069336
aatp8
Rp9
.ccollections
OrderedDict
p0
((lp1
(lp2
S'state'
p3
aI400
aa(lp4
S'distance'
p5
aF256.76030349731445
aa(lp6
S'timestamp'
p7
aF3.6712629795074463
aatp8
Rp9
.ccollections
OrderedDict
p0
((lp1
(lp2
S'state'
p3
aI400
aa(lp4
S'distance'
p5
aF256.76030349731445
aa(lp6
S'timestamp'
p7
aF3.6808829307556152
aatp8
Rp9
.ccollections
OrderedDict
p0
((lp1
(lp2
S'state'
p3
aI400
aa(lp4
S'distance'
p5
aF256.76030349731445
aa(lp6
S'timestamp'
p7
aF3.681159019470215
aatp8
Rp9
.ccollections
OrderedDict
p0
((lp1
(lp2
S'state'
p3
aI400
aa(lp4
S'distance'
p5
aF256.76030349731445
aa(lp6
S'timestamp'
p7
aF3.6904220581054688
aatp8
Rp9
.ccollections
OrderedDict
p0
((lp1
(lp2
S'state'
p3
aI400
aa(lp4
S'distance'
p5
aF256.76030349731445
aa(lp6
S'timestamp'
p7
aF3.6911251544952393
aatp8
Rp9
.ccollections
OrderedDict
p0
((lp1
(lp2
S'state'
p3
aI400
aa(lp4
S'distance'
p5
aF256.76030349731445
aa(lp6
S'timestamp'
p7
aF3.701092004776001
aatp8
Rp9
.ccollections
OrderedDict
p0
((lp1
(lp2
S'state'
p3
aI400
aa(lp4
S'distance'
p5
aF256.76030349731445
aa(lp6
S'timestamp'
p7
aF3.703110933303833
aatp8
Rp9
.ccollections
OrderedDict
p0
((lp1
(lp2
S'state'
p3
aI400
aa(lp4
S'distance'
p5
aF256.76030349731445
aa(lp6
S'timestamp'
p7
aF3.710232973098755
aatp8
Rp9
.ccollections
OrderedDict
p0
((lp1
(lp2
S'state'
p3
aI400
aa(lp4
S'distance'
p5
aF256.76030349731445
aa(lp6
S'timestamp'
p7
aF3.7109200954437256
aatp8
Rp9
.ccollections
OrderedDict
p0
((lp1
(lp2
S'state'
p3
aI400
aa(lp4
S'distance'
p5
aF256.76030349731445
aa(lp6
S'timestamp'
p7
aF3.7208499908447266
aatp8
Rp9
.ccollections
OrderedDict
p0
((lp1
(lp2
S'state'
p3
aI400
aa(lp4
S'distance'
p5
aF256.76030349731445
aa(lp6
S'timestamp'
p7
aF3.721903085708618
aatp8
Rp9
.ccollections
OrderedDict
p0
((lp1
(lp2
S'state'
p3
aI400
aa(lp4
S'distance'
p5
aF256.76030349731445
aa(lp6
S'timestamp'
p7
aF3.730772018432617
aatp8
Rp9
.ccollections
OrderedDict
p0
((lp1
(lp2
S'state'
p3
aI400
aa(lp4
S'distance'
p5
aF256.76030349731445
aa(lp6
S'timestamp'
p7
aF3.731048107147217
aatp8
Rp9
.ccollections
OrderedDict
p0
((lp1
(lp2
S'state'
p3
aI400
aa(lp4
S'distance'
p5
aF256.76030349731445
aa(lp6
S'timestamp'
p7
aF3.740971088409424
aatp8
Rp9
.ccollections
OrderedDict
p0
((lp1
(lp2
S'state'
p3
aI400
aa(lp4
S'distance'
p5
aF256.76030349731445
aa(lp6
S'timestamp'
p7
aF3.7411999702453613
aatp8
Rp9
.ccollections
OrderedDict
p0
((lp1
(lp2
S'state'
p3
aI400
aa(lp4
S'distance'
p5
aF256.76030349731445
aa(lp6
S'timestamp'
p7
aF3.750976085662842
aatp8
Rp9
.ccollections
OrderedDict
p0
((lp1
(lp2
S'state'
p3
aI400
aa(lp4
S'distance'
p5
aF256.76030349731445
aa(lp6
S'timestamp'
p7
aF3.751116991043091
aatp8
Rp9
.ccollections
OrderedDict
p0
((lp1
(lp2
S'state'
p3
aI400
aa(lp4
S'distance'
p5
aF256.76030349731445
aa(lp6
S'timestamp'
p7
aF3.7603490352630615
aatp8
Rp9
.ccollections
OrderedDict
p0
((lp1
(lp2
S'state'
p3
aI400
aa(lp4
S'distance'
p5
aF256.76030349731445
aa(lp6
S'timestamp'
p7
aF3.760901927947998
aatp8
Rp9
.ccollections
OrderedDict
p0
((lp1
(lp2
S'state'
p3
aI400
aa(lp4
S'distance'
p5
aF256.76030349731445
aa(lp6
S'timestamp'
p7
aF3.770324945449829
aatp8
Rp9
.ccollections
OrderedDict
p0
((lp1
(lp2
S'state'
p3
aI400
aa(lp4
S'distance'
p5
aF256.76030349731445
aa(lp6
S'timestamp'
p7
aF3.7712221145629883
aatp8
Rp9
.ccollections
OrderedDict
p0
((lp1
(lp2
S'state'
p3
aI400
aa(lp4
S'distance'
p5
aF256.76030349731445
aa(lp6
S'timestamp'
p7
aF3.7810919284820557
aatp8
Rp9
.ccollections
OrderedDict
p0
((lp1
(lp2
S'state'
p3
aI400
aa(lp4
S'distance'
p5
aF256.76030349731445
aa(lp6
S'timestamp'
p7
aF3.781625986099243
aatp8
Rp9
.ccollections
OrderedDict
p0
((lp1
(lp2
S'state'
p3
aI400
aa(lp4
S'distance'
p5
aF256.76030349731445
aa(lp6
S'timestamp'
p7
aF3.790334939956665
aatp8
Rp9
.ccollections
OrderedDict
p0
((lp1
(lp2
S'state'
p3
aI400
aa(lp4
S'distance'
p5
aF256.76030349731445
aa(lp6
S'timestamp'
p7
aF3.791067123413086
aatp8
Rp9
.ccollections
OrderedDict
p0
((lp1
(lp2
S'state'
p3
aI400
aa(lp4
S'distance'
p5
aF256.76030349731445
aa(lp6
S'timestamp'
p7
aF3.8003010749816895
aatp8
Rp9
.ccollections
OrderedDict
p0
((lp1
(lp2
S'state'
p3
aI400
aa(lp4
S'distance'
p5
aF256.76030349731445
aa(lp6
S'timestamp'
p7
aF3.8011929988861084
aatp8
Rp9
.ccollections
OrderedDict
p0
((lp1
(lp2
S'state'
p3
aI400
aa(lp4
S'distance'
p5
aF256.76030349731445
aa(lp6
S'timestamp'
p7
aF3.810352087020874
aatp8
Rp9
.ccollections
OrderedDict
p0
((lp1
(lp2
S'state'
p3
aI400
aa(lp4
S'distance'
p5
aF256.76030349731445
aa(lp6
S'timestamp'
p7
aF3.810943126678467
aatp8
Rp9
.ccollections
OrderedDict
p0
((lp1
(lp2
S'state'
p3
aI400
aa(lp4
S'distance'
p5
aF256.76030349731445
aa(lp6
S'timestamp'
p7
aF3.820289134979248
aatp8
Rp9
.ccollections
OrderedDict
p0
((lp1
(lp2
S'state'
p3
aI400
aa(lp4
S'distance'
p5
aF256.76030349731445
aa(lp6
S'timestamp'
p7
aF3.8213629722595215
aatp8
Rp9
.ccollections
OrderedDict
p0
((lp1
(lp2
S'state'
p3
aI400
aa(lp4
S'distance'
p5
aF256.76030349731445
aa(lp6
S'timestamp'
p7
aF3.8312299251556396
aatp8
Rp9
.ccollections
OrderedDict
p0
((lp1
(lp2
S'state'
p3
aI400
aa(lp4
S'distance'
p5
aF256.76030349731445
aa(lp6
S'timestamp'
p7
aF3.8320109844207764
aatp8
Rp9
.ccollections
OrderedDict
p0
((lp1
(lp2
S'state'
p3
aI400
aa(lp4
S'distance'
p5
aF256.76030349731445
aa(lp6
S'timestamp'
p7
aF3.8405730724334717
aatp8
Rp9
.ccollections
OrderedDict
p0
((lp1
(lp2
S'state'
p3
aI400
aa(lp4
S'distance'
p5
aF256.76030349731445
aa(lp6
S'timestamp'
p7
aF3.8409860134124756
aatp8
Rp9
.ccollections
OrderedDict
p0
((lp1
(lp2
S'state'
p3
aI400
aa(lp4
S'distance'
p5
aF256.76030349731445
aa(lp6
S'timestamp'
p7
aF3.8509490489959717
aatp8
Rp9
.ccollections
OrderedDict
p0
((lp1
(lp2
S'state'
p3
aI400
aa(lp4
S'distance'
p5
aF256.76030349731445
aa(lp6
S'timestamp'
p7
aF3.851254940032959
aatp8
Rp9
.ccollections
OrderedDict
p0
((lp1
(lp2
S'state'
p3
aI400
aa(lp4
S'distance'
p5
aF256.76030349731445
aa(lp6
S'timestamp'
p7
aF3.8604531288146973
aatp8
Rp9
.ccollections
OrderedDict
p0
((lp1
(lp2
S'state'
p3
aI400
aa(lp4
S'distance'
p5
aF256.76030349731445
aa(lp6
S'timestamp'
p7
aF3.8615939617156982
aatp8
Rp9
.ccollections
OrderedDict
p0
((lp1
(lp2
S'state'
p3
aI0
aa(lp4
S'distance'
p5
aF256.76030349731445
aa(lp6
S'timestamp'
p7
aF3.8704140186309814
aatp8
Rp9
.ccollections
OrderedDict
p0
((lp1
(lp2
S'state'
p3
aI0
aa(lp4
S'distance'
p5
aF135.0443344116211
aa(lp6
S'timestamp'
p7
aF4.4318671226501465
aatp8
Rp9
.ccollections
OrderedDict
p0
((lp1
(lp2
S'state'
p3
aI0
aa(lp4
S'distance'
p5
aF135.0443344116211
aa(lp6
S'timestamp'
p7
aF4.440525054931641
aatp8
Rp9
.ccollections
OrderedDict
p0
((lp1
(lp2
S'state'
p3
aI0
aa(lp4
S'distance'
p5
aF135.0443344116211
aa(lp6
S'timestamp'
p7
aF4.441105127334595
aatp8
Rp9
.ccollections
OrderedDict
p0
((lp1
(lp2
S'state'
p3
aI0
aa(lp4
S'distance'
p5
aF135.0443344116211
aa(lp6
S'timestamp'
p7
aF4.45047402381897
aatp8
Rp9
.ccollections
OrderedDict
p0
((lp1
(lp2
S'state'
p3
aI0
aa(lp4
S'distance'
p5
aF135.0443344116211
aa(lp6
S'timestamp'
p7
aF4.451394081115723
aatp8
Rp9
.ccollections
OrderedDict
p0
((lp1
(lp2
S'state'
p3
aI0
aa(lp4
S'distance'
p5
aF135.0443344116211
aa(lp6
S'timestamp'
p7
aF4.461249113082886
aatp8
Rp9
.ccollections
OrderedDict
p0
((lp1
(lp2
S'state'
p3
aI0
aa(lp4
S'distance'
p5
aF135.0443344116211
aa(lp6
S'timestamp'
p7
aF4.461503982543945
aatp8
Rp9
.ccollections
OrderedDict
p0
((lp1
(lp2
S'state'
p3
aI0
aa(lp4
S'distance'
p5
aF135.0443344116211
aa(lp6
S'timestamp'
p7
aF4.4706079959869385
aatp8
Rp9
.ccollections
OrderedDict
p0
((lp1
(lp2
S'state'
p3
aI0
aa(lp4
S'distance'
p5
aF135.0443344116211
aa(lp6
S'timestamp'
p7
aF4.471321105957031
aatp8
Rp9
.ccollections
OrderedDict
p0
((lp1
(lp2
S'state'
p3
aI0
aa(lp4
S'distance'
p5
aF135.0443344116211
aa(lp6
S'timestamp'
p7
aF4.480798959732056
aatp8
Rp9
.ccollections
OrderedDict
p0
((lp1
(lp2
S'state'
p3
aI0
aa(lp4
S'distance'
p5
aF135.0443344116211
aa(lp6
S'timestamp'
p7
aF4.480994939804077
aatp8
Rp9
.ccollections
OrderedDict
p0
((lp1
(lp2
S'state'
p3
aI0
aa(lp4
S'distance'
p5
aF135.0443344116211
aa(lp6
S'timestamp'
p7
aF4.490920066833496
aatp8
Rp9
.ccollections
OrderedDict
p0
((lp1
(lp2
S'state'
p3
aI0
aa(lp4
S'distance'
p5
aF135.0443344116211
aa(lp6
S'timestamp'
p7
aF4.491083145141602
aatp8
Rp9
.ccollections
OrderedDict
p0
((lp1
(lp2
S'state'
p3
aI0
aa(lp4
S'distance'
p5
aF135.0443344116211
aa(lp6
S'timestamp'
p7
aF4.500519037246704
aatp8
Rp9
.ccollections
OrderedDict
p0
((lp1
(lp2
S'state'
p3
aI0
aa(lp4
S'distance'
p5
aF135.0443344116211
aa(lp6
S'timestamp'
p7
aF4.501615047454834
aatp8
Rp9
.ccollections
OrderedDict
p0
((lp1
(lp2
S'state'
p3
aI0
aa(lp4
S'distance'
p5
aF135.0443344116211
aa(lp6
S'timestamp'
p7
aF4.511899948120117
aatp8
Rp9
.ccollections
OrderedDict
p0
((lp1
(lp2
S'state'
p3
aI0
aa(lp4
S'distance'
p5
aF135.0443344116211
aa(lp6
S'timestamp'
p7
aF4.513499021530151
aatp8
Rp9
.ccollections
OrderedDict
p0
((lp1
(lp2
S'state'
p3
aI0
aa(lp4
S'distance'
p5
aF135.0443344116211
aa(lp6
S'timestamp'
p7
aF4.520482063293457
aatp8
Rp9
.ccollections
OrderedDict
p0
((lp1
(lp2
S'state'
p3
aI0
aa(lp4
S'distance'
p5
aF135.0443344116211
aa(lp6
S'timestamp'
p7
aF4.521182060241699
aatp8
Rp9
.ccollections
OrderedDict
p0
((lp1
(lp2
S'state'
p3
aI0
aa(lp4
S'distance'
p5
aF135.0443344116211
aa(lp6
S'timestamp'
p7
aF4.530490159988403
aatp8
Rp9
.ccollections
OrderedDict
p0
((lp1
(lp2
S'state'
p3
aI0
aa(lp4
S'distance'
p5
aF135.0443344116211
aa(lp6
S'timestamp'
p7
aF4.531432151794434
aatp8
Rp9
.ccollections
OrderedDict
p0
((lp1
(lp2
S'state'
p3
aI0
aa(lp4
S'distance'
p5
aF135.0443344116211
aa(lp6
S'timestamp'
p7
aF4.540471076965332
aatp8
Rp9
.ccollections
OrderedDict
p0
((lp1
(lp2
S'state'
p3
aI0
aa(lp4
S'distance'
p5
aF135.0443344116211
aa(lp6
S'timestamp'
p7
aF4.541559934616089
aatp8
Rp9
.ccollections
OrderedDict
p0
((lp1
(lp2
S'state'
p3
aI0
aa(lp4
S'distance'
p5
aF135.0443344116211
aa(lp6
S'timestamp'
p7
aF4.550528049468994
aatp8
Rp9
.ccollections
OrderedDict
p0
((lp1
(lp2
S'state'
p3
aI0
aa(lp4
S'distance'
p5
aF135.0443344116211
aa(lp6
S'timestamp'
p7
aF4.551330089569092
aatp8
Rp9
.ccollections
OrderedDict
p0
((lp1
(lp2
S'state'
p3
aI0
aa(lp4
S'distance'
p5
aF135.0443344116211
aa(lp6
S'timestamp'
p7
aF4.561005115509033
aatp8
Rp9
.ccollections
OrderedDict
p0
((lp1
(lp2
S'state'
p3
aI0
aa(lp4
S'distance'
p5
aF135.0443344116211
aa(lp6
S'timestamp'
p7
aF4.56116795539856
aatp8
Rp9
.ccollections
OrderedDict
p0
((lp1
(lp2
S'state'
p3
aI0
aa(lp4
S'distance'
p5
aF135.0443344116211
aa(lp6
S'timestamp'
p7
aF4.570659160614014
aatp8
Rp9
.ccollections
OrderedDict
p0
((lp1
(lp2
S'state'
p3
aI0
aa(lp4
S'distance'
p5
aF135.0443344116211
aa(lp6
S'timestamp'
p7
aF4.5710930824279785
aatp8
Rp9
.ccollections
OrderedDict
p0
((lp1
(lp2
S'state'
p3
aI0
aa(lp4
S'distance'
p5
aF135.0443344116211
aa(lp6
S'timestamp'
p7
aF4.580517053604126
aatp8
Rp9
.ccollections
OrderedDict
p0
((lp1
(lp2
S'state'
p3
aI0
aa(lp4
S'distance'
p5
aF135.0443344116211
aa(lp6
S'timestamp'
p7
aF4.581084966659546
aatp8
Rp9
.ccollections
OrderedDict
p0
((lp1
(lp2
S'state'
p3
aI0
aa(lp4
S'distance'
p5
aF135.0443344116211
aa(lp6
S'timestamp'
p7
aF4.590409994125366
aatp8
Rp9
.ccollections
OrderedDict
p0
((lp1
(lp2
S'state'
p3
aI0
aa(lp4
S'distance'
p5
aF135.0443344116211
aa(lp6
S'timestamp'
p7
aF4.591374158859253
aatp8
Rp9
.ccollections
OrderedDict
p0
((lp1
(lp2
S'state'
p3
aI0
aa(lp4
S'distance'
p5
aF135.0443344116211
aa(lp6
S'timestamp'
p7
aF4.600496053695679
aatp8
Rp9
.ccollections
OrderedDict
p0
((lp1
(lp2
S'state'
p3
aI0
aa(lp4
S'distance'
p5
aF135.0443344116211
aa(lp6
S'timestamp'
p7
aF4.601647138595581
aatp8
Rp9
.ccollections
OrderedDict
p0
((lp1
(lp2
S'state'
p3
aI0
aa(lp4
S'distance'
p5
aF135.0443344116211
aa(lp6
S'timestamp'
p7
aF4.610774040222168
aatp8
Rp9
.ccollections
OrderedDict
p0
((lp1
(lp2
S'state'
p3
aI0
aa(lp4
S'distance'
p5
aF135.0443344116211
aa(lp6
S'timestamp'
p7
aF4.611062049865723
aatp8
Rp9
.ccollections
OrderedDict
p0
((lp1
(lp2
S'state'
p3
aI0
aa(lp4
S'distance'
p5
aF135.0443344116211
aa(lp6
S'timestamp'
p7
aF4.620763063430786
aatp8
Rp9
.ccollections
OrderedDict
p0
((lp1
(lp2
S'state'
p3
aI0
aa(lp4
S'distance'
p5
aF135.0443344116211
aa(lp6
S'timestamp'
p7
aF4.630680084228516
aatp8
Rp9
.ccollections
OrderedDict
p0
((lp1
(lp2
S'state'
p3
aI0
aa(lp4
S'distance'
p5
aF135.0443344116211
aa(lp6
S'timestamp'
p7
aF4.631000995635986
aatp8
Rp9
.ccollections
OrderedDict
p0
((lp1
(lp2
S'state'
p3
aI0
aa(lp4
S'distance'
p5
aF135.0443344116211
aa(lp6
S'timestamp'
p7
aF4.631976127624512
aatp8
Rp9
.ccollections
OrderedDict
p0
((lp1
(lp2
S'state'
p3
aI0
aa(lp4
S'distance'
p5
aF135.0443344116211
aa(lp6
S'timestamp'
p7
aF4.640689134597778
aatp8
Rp9
.ccollections
OrderedDict
p0
((lp1
(lp2
S'state'
p3
aI0
aa(lp4
S'distance'
p5
aF135.0443344116211
aa(lp6
S'timestamp'
p7
aF4.641003131866455
aatp8
Rp9
.ccollections
OrderedDict
p0
((lp1
(lp2
S'state'
p3
aI0
aa(lp4
S'distance'
p5
aF135.0443344116211
aa(lp6
S'timestamp'
p7
aF4.660750150680542
aatp8
Rp9
.ccollections
OrderedDict
p0
((lp1
(lp2
S'state'
p3
aI0
aa(lp4
S'distance'
p5
aF135.0443344116211
aa(lp6
S'timestamp'
p7
aF4.661206007003784
aatp8
Rp9
.ccollections
OrderedDict
p0
((lp1
(lp2
S'state'
p3
aI0
aa(lp4
S'distance'
p5
aF135.0443344116211
aa(lp6
S'timestamp'
p7
aF4.661750078201294
aatp8
Rp9
.ccollections
OrderedDict
p0
((lp1
(lp2
S'state'
p3
aI0
aa(lp4
S'distance'
p5
aF135.0443344116211
aa(lp6
S'timestamp'
p7
aF4.662773132324219
aatp8
Rp9
.ccollections
OrderedDict
p0
((lp1
(lp2
S'state'
p3
aI0
aa(lp4
S'distance'
p5
aF135.0443344116211
aa(lp6
S'timestamp'
p7
aF4.670619010925293
aatp8
Rp9
.ccollections
OrderedDict
p0
((lp1
(lp2
S'state'
p3
aI0
aa(lp4
S'distance'
p5
aF135.0443344116211
aa(lp6
S'timestamp'
p7
aF4.67121696472168
aatp8
Rp9
.ccollections
OrderedDict
p0
((lp1
(lp2
S'state'
p3
aI0
aa(lp4
S'distance'
p5
aF135.0443344116211
aa(lp6
S'timestamp'
p7
aF4.6807451248168945
aatp8
Rp9
.ccollections
OrderedDict
p0
((lp1
(lp2
S'state'
p3
aI0
aa(lp4
S'distance'
p5
aF135.0443344116211
aa(lp6
S'timestamp'
p7
aF4.681240081787109
aatp8
Rp9
.ccollections
OrderedDict
p0
((lp1
(lp2
S'state'
p3
aI0
aa(lp4
S'distance'
p5
aF135.0443344116211
aa(lp6
S'timestamp'
p7
aF4.690447092056274
aatp8
Rp9
.ccollections
OrderedDict
p0
((lp1
(lp2
S'state'
p3
aI0
aa(lp4
S'distance'
p5
aF135.0443344116211
aa(lp6
S'timestamp'
p7
aF4.691442012786865
aatp8
Rp9
.ccollections
OrderedDict
p0
((lp1
(lp2
S'state'
p3
aI0
aa(lp4
S'distance'
p5
aF135.0443344116211
aa(lp6
S'timestamp'
p7
aF4.70058012008667
aatp8
Rp9
.ccollections
OrderedDict
p0
((lp1
(lp2
S'state'
p3
aI0
aa(lp4
S'distance'
p5
aF135.0443344116211
aa(lp6
S'timestamp'
p7
aF4.710582971572876
aatp8
Rp9
.ccollections
OrderedDict
p0
((lp1
(lp2
S'state'
p3
aI0
aa(lp4
S'distance'
p5
aF135.0443344116211
aa(lp6
S'timestamp'
p7
aF4.711151123046875
aatp8
Rp9
.ccollections
OrderedDict
p0
((lp1
(lp2
S'state'
p3
aI400
aa(lp4
S'distance'
p5
aF135.0443344116211
aa(lp6
S'timestamp'
p7
aF4.7117321491241455
aatp8
Rp9
.ccollections
OrderedDict
p0
((lp1
(lp2
S'state'
p3
aI400
aa(lp4
S'distance'
p5
aF135.0443344116211
aa(lp6
S'timestamp'
p7
aF4.720515966415405
aatp8
Rp9
.ccollections
OrderedDict
p0
((lp1
(lp2
S'state'
p3
aI400
aa(lp4
S'distance'
p5
aF135.0443344116211
aa(lp6
S'timestamp'
p7
aF4.721434116363525
aatp8
Rp9
.ccollections
OrderedDict
p0
((lp1
(lp2
S'state'
p3
aI400
aa(lp4
S'distance'
p5
aF135.0443344116211
aa(lp6
S'timestamp'
p7
aF4.730955123901367
aatp8
Rp9
.ccollections
OrderedDict
p0
((lp1
(lp2
S'state'
p3
aI400
aa(lp4
S'distance'
p5
aF135.0443344116211
aa(lp6
S'timestamp'
p7
aF4.731627941131592
aatp8
Rp9
.ccollections
OrderedDict
p0
((lp1
(lp2
S'state'
p3
aI400
aa(lp4
S'distance'
p5
aF135.0443344116211
aa(lp6
S'timestamp'
p7
aF4.751094102859497
aatp8
Rp9
.ccollections
OrderedDict
p0
((lp1
(lp2
S'state'
p3
aI400
aa(lp4
S'distance'
p5
aF135.0443344116211
aa(lp6
S'timestamp'
p7
aF4.752472162246704
aatp8
Rp9
.ccollections
OrderedDict
p0
((lp1
(lp2
S'state'
p3
aI400
aa(lp4
S'distance'
p5
aF135.0443344116211
aa(lp6
S'timestamp'
p7
aF4.753185033798218
aatp8
Rp9
.ccollections
OrderedDict
p0
((lp1
(lp2
S'state'
p3
aI400
aa(lp4
S'distance'
p5
aF135.0443344116211
aa(lp6
S'timestamp'
p7
aF4.754538059234619
aatp8
Rp9
.ccollections
OrderedDict
p0
((lp1
(lp2
S'state'
p3
aI400
aa(lp4
S'distance'
p5
aF135.0443344116211
aa(lp6
S'timestamp'
p7
aF4.760833024978638
aatp8
Rp9
.ccollections
OrderedDict
p0
((lp1
(lp2
S'state'
p3
aI400
aa(lp4
S'distance'
p5
aF135.0443344116211
aa(lp6
S'timestamp'
p7
aF4.760992050170898
aatp8
Rp9
.ccollections
OrderedDict
p0
((lp1
(lp2
S'state'
p3
aI400
aa(lp4
S'distance'
p5
aF135.0443344116211
aa(lp6
S'timestamp'
p7
aF4.771018028259277
aatp8
Rp9
.ccollections
OrderedDict
p0
((lp1
(lp2
S'state'
p3
aI400
aa(lp4
S'distance'
p5
aF135.0443344116211
aa(lp6
S'timestamp'
p7
aF4.771350145339966
aatp8
Rp9
.ccollections
OrderedDict
p0
((lp1
(lp2
S'state'
p3
aI400
aa(lp4
S'distance'
p5
aF135.0443344116211
aa(lp6
S'timestamp'
p7
aF4.780854940414429
aatp8
Rp9
.ccollections
OrderedDict
p0
((lp1
(lp2
S'state'
p3
aI400
aa(lp4
S'distance'
p5
aF135.0443344116211
aa(lp6
S'timestamp'
p7
aF4.7810540199279785
aatp8
Rp9
.ccollections
OrderedDict
p0
((lp1
(lp2
S'state'
p3
aI400
aa(lp4
S'distance'
p5
aF135.0443344116211
aa(lp6
S'timestamp'
p7
aF4.790432929992676
aatp8
Rp9
.ccollections
OrderedDict
p0
((lp1
(lp2
S'state'
p3
aI400
aa(lp4
S'distance'
p5
aF135.0443344116211
aa(lp6
S'timestamp'
p7
aF4.791311979293823
aatp8
Rp9
.ccollections
OrderedDict
p0
((lp1
(lp2
S'state'
p3
aI400
aa(lp4
S'distance'
p5
aF135.0443344116211
aa(lp6
S'timestamp'
p7
aF4.8007590770721436
aatp8
Rp9
.ccollections
OrderedDict
p0
((lp1
(lp2
S'state'
p3
aI400
aa(lp4
S'distance'
p5
aF135.0443344116211
aa(lp6
S'timestamp'
p7
aF4.801375150680542
aatp8
Rp9
.ccollections
OrderedDict
p0
((lp1
(lp2
S'state'
p3
aI400
aa(lp4
S'distance'
p5
aF135.0443344116211
aa(lp6
S'timestamp'
p7
aF4.810953140258789
aatp8
Rp9
.ccollections
OrderedDict
p0
((lp1
(lp2
S'state'
p3
aI400
aa(lp4
S'distance'
p5
aF135.0443344116211
aa(lp6
S'timestamp'
p7
aF4.811463117599487
aatp8
Rp9
.ccollections
OrderedDict
p0
((lp1
(lp2
S'state'
p3
aI400
aa(lp4
S'distance'
p5
aF135.0443344116211
aa(lp6
S'timestamp'
p7
aF4.822113037109375
aatp8
Rp9
.ccollections
OrderedDict
p0
((lp1
(lp2
S'state'
p3
aI400
aa(lp4
S'distance'
p5
aF135.0443344116211
aa(lp6
S'timestamp'
p7
aF4.822283983230591
aatp8
Rp9
.ccollections
OrderedDict
p0
((lp1
(lp2
S'state'
p3
aI400
aa(lp4
S'distance'
p5
aF135.0443344116211
aa(lp6
S'timestamp'
p7
aF4.830601930618286
aatp8
Rp9
.ccollections
OrderedDict
p0
((lp1
(lp2
S'state'
p3
aI400
aa(lp4
S'distance'
p5
aF135.0443344116211
aa(lp6
S'timestamp'
p7
aF4.831465005874634
aatp8
Rp9
.ccollections
OrderedDict
p0
((lp1
(lp2
S'state'
p3
aI400
aa(lp4
S'distance'
p5
aF135.0443344116211
aa(lp6
S'timestamp'
p7
aF4.840862989425659
aatp8
Rp9
.ccollections
OrderedDict
p0
((lp1
(lp2
S'state'
p3
aI400
aa(lp4
S'distance'
p5
aF135.0443344116211
aa(lp6
S'timestamp'
p7
aF4.841097116470337
aatp8
Rp9
.ccollections
OrderedDict
p0
((lp1
(lp2
S'state'
p3
aI400
aa(lp4
S'distance'
p5
aF135.0443344116211
aa(lp6
S'timestamp'
p7
aF4.850876092910767
aatp8
Rp9
.ccollections
OrderedDict
p0
((lp1
(lp2
S'state'
p3
aI400
aa(lp4
S'distance'
p5
aF135.0443344116211
aa(lp6
S'timestamp'
p7
aF4.851081132888794
aatp8
Rp9
.ccollections
OrderedDict
p0
((lp1
(lp2
S'state'
p3
aI400
aa(lp4
S'distance'
p5
aF135.0443344116211
aa(lp6
S'timestamp'
p7
aF4.861032962799072
aatp8
Rp9
.ccollections
OrderedDict
p0
((lp1
(lp2
S'state'
p3
aI400
aa(lp4
S'distance'
p5
aF135.0443344116211
aa(lp6
S'timestamp'
p7
aF4.861154079437256
aatp8
Rp9
.ccollections
OrderedDict
p0
((lp1
(lp2
S'state'
p3
aI400
aa(lp4
S'distance'
p5
aF135.0443344116211
aa(lp6
S'timestamp'
p7
aF4.870912075042725
aatp8
Rp9
.ccollections
OrderedDict
p0
((lp1
(lp2
S'state'
p3
aI400
aa(lp4
S'distance'
p5
aF135.0443344116211
aa(lp6
S'timestamp'
p7
aF4.871169090270996
aatp8
Rp9
.ccollections
OrderedDict
p0
((lp1
(lp2
S'state'
p3
aI400
aa(lp4
S'distance'
p5
aF135.0443344116211
aa(lp6
S'timestamp'
p7
aF4.880625009536743
aatp8
Rp9
.ccollections
OrderedDict
p0
((lp1
(lp2
S'state'
p3
aI400
aa(lp4
S'distance'
p5
aF135.0443344116211
aa(lp6
S'timestamp'
p7
aF4.881415128707886
aatp8
Rp9
.ccollections
OrderedDict
p0
((lp1
(lp2
S'state'
p3
aI400
aa(lp4
S'distance'
p5
aF135.0443344116211
aa(lp6
S'timestamp'
p7
aF4.891008138656616
aatp8
Rp9
.ccollections
OrderedDict
p0
((lp1
(lp2
S'state'
p3
aI400
aa(lp4
S'distance'
p5
aF135.0443344116211
aa(lp6
S'timestamp'
p7
aF4.891170024871826
aatp8
Rp9
.ccollections
OrderedDict
p0
((lp1
(lp2
S'state'
p3
aI400
aa(lp4
S'distance'
p5
aF135.0443344116211
aa(lp6
S'timestamp'
p7
aF4.900774002075195
aatp8
Rp9
.ccollections
OrderedDict
p0
((lp1
(lp2
S'state'
p3
aI400
aa(lp4
S'distance'
p5
aF135.0443344116211
aa(lp6
S'timestamp'
p7
aF4.901461124420166
aatp8
Rp9
.ccollections
OrderedDict
p0
((lp1
(lp2
S'state'
p3
aI400
aa(lp4
S'distance'
p5
aF135.0443344116211
aa(lp6
S'timestamp'
p7
aF4.910694122314453
aatp8
Rp9
.ccollections
OrderedDict
p0
((lp1
(lp2
S'state'
p3
aI400
aa(lp4
S'distance'
p5
aF135.0443344116211
aa(lp6
S'timestamp'
p7
aF4.911193132400513
aatp8
Rp9
.ccollections
OrderedDict
p0
((lp1
(lp2
S'state'
p3
aI400
aa(lp4
S'distance'
p5
aF135.0443344116211
aa(lp6
S'timestamp'
p7
aF4.920508146286011
aatp8
Rp9
.ccollections
OrderedDict
p0
((lp1
(lp2
S'state'
p3
aI400
aa(lp4
S'distance'
p5
aF135.0443344116211
aa(lp6
S'timestamp'
p7
aF4.921487092971802
aatp8
Rp9
.ccollections
OrderedDict
p0
((lp1
(lp2
S'state'
p3
aI400
aa(lp4
S'distance'
p5
aF135.0443344116211
aa(lp6
S'timestamp'
p7
aF4.930563926696777
aatp8
Rp9
.ccollections
OrderedDict
p0
((lp1
(lp2
S'state'
p3
aI400
aa(lp4
S'distance'
p5
aF135.0443344116211
aa(lp6
S'timestamp'
p7
aF4.9314000606536865
aatp8
Rp9
.ccollections
OrderedDict
p0
((lp1
(lp2
S'state'
p3
aI400
aa(lp4
S'distance'
p5
aF135.0443344116211
aa(lp6
S'timestamp'
p7
aF4.940803050994873
aatp8
Rp9
.ccollections
OrderedDict
p0
((lp1
(lp2
S'state'
p3
aI400
aa(lp4
S'distance'
p5
aF135.0443344116211
aa(lp6
S'timestamp'
p7
aF4.941267967224121
aatp8
Rp9
.ccollections
OrderedDict
p0
((lp1
(lp2
S'state'
p3
aI400
aa(lp4
S'distance'
p5
aF135.0443344116211
aa(lp6
S'timestamp'
p7
aF4.950672149658203
aatp8
Rp9
.ccollections
OrderedDict
p0
((lp1
(lp2
S'state'
p3
aI400
aa(lp4
S'distance'
p5
aF135.0443344116211
aa(lp6
S'timestamp'
p7
aF4.951308012008667
aatp8
Rp9
.ccollections
OrderedDict
p0
((lp1
(lp2
S'state'
p3
aI400
aa(lp4
S'distance'
p5
aF135.0443344116211
aa(lp6
S'timestamp'
p7
aF4.960797071456909
aatp8
Rp9
.ccollections
OrderedDict
p0
((lp1
(lp2
S'state'
p3
aI400
aa(lp4
S'distance'
p5
aF135.0443344116211
aa(lp6
S'timestamp'
p7
aF4.9612040519714355
aatp8
Rp9
.ccollections
OrderedDict
p0
((lp1
(lp2
S'state'
p3
aI400
aa(lp4
S'distance'
p5
aF135.0443344116211
aa(lp6
S'timestamp'
p7
aF4.970711946487427
aatp8
Rp9
.ccollections
OrderedDict
p0
((lp1
(lp2
S'state'
p3
aI400
aa(lp4
S'distance'
p5
aF135.0443344116211
aa(lp6
S'timestamp'
p7
aF4.97117805480957
aatp8
Rp9
.ccollections
OrderedDict
p0
((lp1
(lp2
S'state'
p3
aI400
aa(lp4
S'distance'
p5
aF135.0443344116211
aa(lp6
S'timestamp'
p7
aF4.980556011199951
aatp8
Rp9
.ccollections
OrderedDict
p0
((lp1
(lp2
S'state'
p3
aI400
aa(lp4
S'distance'
p5
aF135.0443344116211
aa(lp6
S'timestamp'
p7
aF4.981474161148071
aatp8
Rp9
.ccollections
OrderedDict
p0
((lp1
(lp2
S'state'
p3
aI400
aa(lp4
S'distance'
p5
aF135.0443344116211
aa(lp6
S'timestamp'
p7
aF4.990458965301514
aatp8
Rp9
.ccollections
OrderedDict
p0
((lp1
(lp2
S'state'
p3
aI400
aa(lp4
S'distance'
p5
aF135.0443344116211
aa(lp6
S'timestamp'
p7
aF4.991444110870361
aatp8
Rp9
.ccollections
OrderedDict
p0
((lp1
(lp2
S'state'
p3
aI400
aa(lp4
S'distance'
p5
aF135.0443344116211
aa(lp6
S'timestamp'
p7
aF5.000646114349365
aatp8
Rp9
.ccollections
OrderedDict
p0
((lp1
(lp2
S'state'
p3
aI400
aa(lp4
S'distance'
p5
aF135.0443344116211
aa(lp6
S'timestamp'
p7
aF5.00180196762085
aatp8
Rp9
.ccollections
OrderedDict
p0
((lp1
(lp2
S'state'
p3
aI400
aa(lp4
S'distance'
p5
aF135.0443344116211
aa(lp6
S'timestamp'
p7
aF5.010669946670532
aatp8
Rp9
.ccollections
OrderedDict
p0
((lp1
(lp2
S'state'
p3
aI400
aa(lp4
S'distance'
p5
aF135.0443344116211
aa(lp6
S'timestamp'
p7
aF5.011717081069946
aatp8
Rp9
.ccollections
OrderedDict
p0
((lp1
(lp2
S'state'
p3
aI400
aa(lp4
S'distance'
p5
aF135.0443344116211
aa(lp6
S'timestamp'
p7
aF5.020884990692139
aatp8
Rp9
.ccollections
OrderedDict
p0
((lp1
(lp2
S'state'
p3
aI400
aa(lp4
S'distance'
p5
aF135.0443344116211
aa(lp6
S'timestamp'
p7
aF5.021094083786011
aatp8
Rp9
.ccollections
OrderedDict
p0
((lp1
(lp2
S'state'
p3
aI400
aa(lp4
S'distance'
p5
aF135.0443344116211
aa(lp6
S'timestamp'
p7
aF5.030894041061401
aatp8
Rp9
.ccollections
OrderedDict
p0
((lp1
(lp2
S'state'
p3
aI400
aa(lp4
S'distance'
p5
aF135.0443344116211
aa(lp6
S'timestamp'
p7
aF5.031103134155273
aatp8
Rp9
.ccollections
OrderedDict
p0
((lp1
(lp2
S'state'
p3
aI400
aa(lp4
S'distance'
p5
aF135.0443344116211
aa(lp6
S'timestamp'
p7
aF5.0407750606536865
aatp8
Rp9
.ccollections
OrderedDict
p0
((lp1
(lp2
S'state'
p3
aI400
aa(lp4
S'distance'
p5
aF135.0443344116211
aa(lp6
S'timestamp'
p7
aF5.041144132614136
aatp8
Rp9
.ccollections
OrderedDict
p0
((lp1
(lp2
S'state'
p3
aI400
aa(lp4
S'distance'
p5
aF135.0443344116211
aa(lp6
S'timestamp'
p7
aF5.050737142562866
aatp8
Rp9
.ccollections
OrderedDict
p0
((lp1
(lp2
S'state'
p3
aI400
aa(lp4
S'distance'
p5
aF135.0443344116211
aa(lp6
S'timestamp'
p7
aF5.051177978515625
aatp8
Rp9
.ccollections
OrderedDict
p0
((lp1
(lp2
S'state'
p3
aI400
aa(lp4
S'distance'
p5
aF135.0443344116211
aa(lp6
S'timestamp'
p7
aF5.0606369972229
aatp8
Rp9
.ccollections
OrderedDict
p0
((lp1
(lp2
S'state'
p3
aI400
aa(lp4
S'distance'
p5
aF135.0443344116211
aa(lp6
S'timestamp'
p7
aF5.061491966247559
aatp8
Rp9
.ccollections
OrderedDict
p0
((lp1
(lp2
S'state'
p3
aI400
aa(lp4
S'distance'
p5
aF135.0443344116211
aa(lp6
S'timestamp'
p7
aF5.070636034011841
aatp8
Rp9
.ccollections
OrderedDict
p0
((lp1
(lp2
S'state'
p3
aI400
aa(lp4
S'distance'
p5
aF135.0443344116211
aa(lp6
S'timestamp'
p7
aF5.081025123596191
aatp8
Rp9
.ccollections
OrderedDict
p0
((lp1
(lp2
S'state'
p3
aI400
aa(lp4
S'distance'
p5
aF135.0443344116211
aa(lp6
S'timestamp'
p7
aF5.081187963485718
aatp8
Rp9
.ccollections
OrderedDict
p0
((lp1
(lp2
S'state'
p3
aI400
aa(lp4
S'distance'
p5
aF135.0443344116211
aa(lp6
S'timestamp'
p7
aF5.081973075866699
aatp8
Rp9
.ccollections
OrderedDict
p0
((lp1
(lp2
S'state'
p3
aI400
aa(lp4
S'distance'
p5
aF135.0443344116211
aa(lp6
S'timestamp'
p7
aF5.090578079223633
aatp8
Rp9
.ccollections
OrderedDict
p0
((lp1
(lp2
S'state'
p3
aI400
aa(lp4
S'distance'
p5
aF135.0443344116211
aa(lp6
S'timestamp'
p7
aF5.091804027557373
aatp8
Rp9
.ccollections
OrderedDict
p0
((lp1
(lp2
S'state'
p3
aI400
aa(lp4
S'distance'
p5
aF135.0443344116211
aa(lp6
S'timestamp'
p7
aF5.100672960281372
aatp8
Rp9
.ccollections
OrderedDict
p0
((lp1
(lp2
S'state'
p3
aI400
aa(lp4
S'distance'
p5
aF135.0443344116211
aa(lp6
S'timestamp'
p7
aF5.10132098197937
aatp8
Rp9
.ccollections
OrderedDict
p0
((lp1
(lp2
S'state'
p3
aI400
aa(lp4
S'distance'
p5
aF135.0443344116211
aa(lp6
S'timestamp'
p7
aF5.110576152801514
aatp8
Rp9
.ccollections
OrderedDict
p0
((lp1
(lp2
S'state'
p3
aI400
aa(lp4
S'distance'
p5
aF135.0443344116211
aa(lp6
S'timestamp'
p7
aF5.111768007278442
aatp8
Rp9
.ccollections
OrderedDict
p0
((lp1
(lp2
S'state'
p3
aI400
aa(lp4
S'distance'
p5
aF135.0443344116211
aa(lp6
S'timestamp'
p7
aF5.12083101272583
aatp8
Rp9
.ccollections
OrderedDict
p0
((lp1
(lp2
S'state'
p3
aI400
aa(lp4
S'distance'
p5
aF135.0443344116211
aa(lp6
S'timestamp'
p7
aF5.12128210067749
aatp8
Rp9
.ccollections
OrderedDict
p0
((lp1
(lp2
S'state'
p3
aI400
aa(lp4
S'distance'
p5
aF135.0443344116211
aa(lp6
S'timestamp'
p7
aF5.1308300495147705
aatp8
Rp9
.ccollections
OrderedDict
p0
((lp1
(lp2
S'state'
p3
aI400
aa(lp4
S'distance'
p5
aF135.0443344116211
aa(lp6
S'timestamp'
p7
aF5.131298065185547
aatp8
Rp9
.ccollections
OrderedDict
p0
((lp1
(lp2
S'state'
p3
aI400
aa(lp4
S'distance'
p5
aF135.0443344116211
aa(lp6
S'timestamp'
p7
aF5.140846014022827
aatp8
Rp9
.ccollections
OrderedDict
p0
((lp1
(lp2
S'state'
p3
aI400
aa(lp4
S'distance'
p5
aF135.0443344116211
aa(lp6
S'timestamp'
p7
aF5.142560958862305
aatp8
Rp9
.ccollections
OrderedDict
p0
((lp1
(lp2
S'state'
p3
aI400
aa(lp4
S'distance'
p5
aF135.0443344116211
aa(lp6
S'timestamp'
p7
aF5.150613069534302
aatp8
Rp9
.ccollections
OrderedDict
p0
((lp1
(lp2
S'state'
p3
aI400
aa(lp4
S'distance'
p5
aF135.0443344116211
aa(lp6
S'timestamp'
p7
aF5.15175199508667
aatp8
Rp9
.ccollections
OrderedDict
p0
((lp1
(lp2
S'state'
p3
aI400
aa(lp4
S'distance'
p5
aF135.0443344116211
aa(lp6
S'timestamp'
p7
aF5.160552978515625
aatp8
Rp9
.ccollections
OrderedDict
p0
((lp1
(lp2
S'state'
p3
aI400
aa(lp4
S'distance'
p5
aF135.0443344116211
aa(lp6
S'timestamp'
p7
aF5.161793947219849
aatp8
Rp9
.ccollections
OrderedDict
p0
((lp1
(lp2
S'state'
p3
aI400
aa(lp4
S'distance'
p5
aF135.0443344116211
aa(lp6
S'timestamp'
p7
aF5.17066502571106
aatp8
Rp9
.ccollections
OrderedDict
p0
((lp1
(lp2
S'state'
p3
aI400
aa(lp4
S'distance'
p5
aF135.0443344116211
aa(lp6
S'timestamp'
p7
aF5.171802997589111
aatp8
Rp9
.ccollections
OrderedDict
p0
((lp1
(lp2
S'state'
p3
aI400
aa(lp4
S'distance'
p5
aF135.0443344116211
aa(lp6
S'timestamp'
p7
aF5.180675029754639
aatp8
Rp9
.ccollections
OrderedDict
p0
((lp1
(lp2
S'state'
p3
aI400
aa(lp4
S'distance'
p5
aF135.0443344116211
aa(lp6
S'timestamp'
p7
aF5.181890964508057
aatp8
Rp9
.ccollections
OrderedDict
p0
((lp1
(lp2
S'state'
p3
aI400
aa(lp4
S'distance'
p5
aF135.0443344116211
aa(lp6
S'timestamp'
p7
aF5.190658092498779
aatp8
Rp9
.ccollections
OrderedDict
p0
((lp1
(lp2
S'state'
p3
aI400
aa(lp4
S'distance'
p5
aF135.0443344116211
aa(lp6
S'timestamp'
p7
aF5.191755056381226
aatp8
Rp9
.ccollections
OrderedDict
p0
((lp1
(lp2
S'state'
p3
aI400
aa(lp4
S'distance'
p5
aF135.0443344116211
aa(lp6
S'timestamp'
p7
aF5.200860977172852
aatp8
Rp9
.ccollections
OrderedDict
p0
((lp1
(lp2
S'state'
p3
aI400
aa(lp4
S'distance'
p5
aF135.0443344116211
aa(lp6
S'timestamp'
p7
aF5.201728105545044
aatp8
Rp9
.ccollections
OrderedDict
p0
((lp1
(lp2
S'state'
p3
aI400
aa(lp4
S'distance'
p5
aF135.0443344116211
aa(lp6
S'timestamp'
p7
aF5.210808038711548
aatp8
Rp9
.ccollections
OrderedDict
p0
((lp1
(lp2
S'state'
p3
aI400
aa(lp4
S'distance'
p5
aF135.0443344116211
aa(lp6
S'timestamp'
p7
aF5.2117040157318115
aatp8
Rp9
.ccollections
OrderedDict
p0
((lp1
(lp2
S'state'
p3
aI400
aa(lp4
S'distance'
p5
aF135.0443344116211
aa(lp6
S'timestamp'
p7
aF5.220792055130005
aatp8
Rp9
.ccollections
OrderedDict
p0
((lp1
(lp2
S'state'
p3
aI400
aa(lp4
S'distance'
p5
aF135.0443344116211
aa(lp6
S'timestamp'
p7
aF5.221218109130859
aatp8
Rp9
.ccollections
OrderedDict
p0
((lp1
(lp2
S'state'
p3
aI400
aa(lp4
S'distance'
p5
aF135.0443344116211
aa(lp6
S'timestamp'
p7
aF5.230590105056763
aatp8
Rp9
.ccollections
OrderedDict
p0
((lp1
(lp2
S'state'
p3
aI400
aa(lp4
S'distance'
p5
aF135.0443344116211
aa(lp6
S'timestamp'
p7
aF5.231542110443115
aatp8
Rp9
.ccollections
OrderedDict
p0
((lp1
(lp2
S'state'
p3
aI400
aa(lp4
S'distance'
p5
aF135.0443344116211
aa(lp6
S'timestamp'
p7
aF5.240782022476196
aatp8
Rp9
.ccollections
OrderedDict
p0
((lp1
(lp2
S'state'
p3
aI400
aa(lp4
S'distance'
p5
aF135.0443344116211
aa(lp6
S'timestamp'
p7
aF5.241366147994995
aatp8
Rp9
.ccollections
OrderedDict
p0
((lp1
(lp2
S'state'
p3
aI400
aa(lp4
S'distance'
p5
aF135.0443344116211
aa(lp6
S'timestamp'
p7
aF5.250828981399536
aatp8
Rp9
.ccollections
OrderedDict
p0
((lp1
(lp2
S'state'
p3
aI400
aa(lp4
S'distance'
p5
aF135.0443344116211
aa(lp6
S'timestamp'
p7
aF5.251347064971924
aatp8
Rp9
.ccollections
OrderedDict
p0
((lp1
(lp2
S'state'
p3
aI400
aa(lp4
S'distance'
p5
aF135.0443344116211
aa(lp6
S'timestamp'
p7
aF5.260878086090088
aatp8
Rp9
.ccollections
OrderedDict
p0
((lp1
(lp2
S'state'
p3
aI400
aa(lp4
S'distance'
p5
aF135.0443344116211
aa(lp6
S'timestamp'
p7
aF5.261955976486206
aatp8
Rp9
.ccollections
OrderedDict
p0
((lp1
(lp2
S'state'
p3
aI400
aa(lp4
S'distance'
p5
aF135.0443344116211
aa(lp6
S'timestamp'
p7
aF5.28089714050293
aatp8
Rp9
.ccollections
OrderedDict
p0
((lp1
(lp2
S'state'
p3
aI400
aa(lp4
S'distance'
p5
aF135.0443344116211
aa(lp6
S'timestamp'
p7
aF5.281950950622559
aatp8
Rp9
.ccollections
OrderedDict
p0
((lp1
(lp2
S'state'
p3
aI400
aa(lp4
S'distance'
p5
aF135.0443344116211
aa(lp6
S'timestamp'
p7
aF5.282257080078125
aatp8
Rp9
.ccollections
OrderedDict
p0
((lp1
(lp2
S'state'
p3
aI400
aa(lp4
S'distance'
p5
aF135.0443344116211
aa(lp6
S'timestamp'
p7
aF5.283225059509277
aatp8
Rp9
.ccollections
OrderedDict
p0
((lp1
(lp2
S'state'
p3
aI400
aa(lp4
S'distance'
p5
aF135.0443344116211
aa(lp6
S'timestamp'
p7
aF5.2906200885772705
aatp8
Rp9
.ccollections
OrderedDict
p0
((lp1
(lp2
S'state'
p3
aI400
aa(lp4
S'distance'
p5
aF135.0443344116211
aa(lp6
S'timestamp'
p7
aF5.291787147521973
aatp8
Rp9
.ccollections
OrderedDict
p0
((lp1
(lp2
S'state'
p3
aI400
aa(lp4
S'distance'
p5
aF135.0443344116211
aa(lp6
S'timestamp'
p7
aF5.300642013549805
aatp8
Rp9
.ccollections
OrderedDict
p0
((lp1
(lp2
S'state'
p3
aI400
aa(lp4
S'distance'
p5
aF135.0443344116211
aa(lp6
S'timestamp'
p7
aF5.3019750118255615
aatp8
Rp9
.ccollections
OrderedDict
p0
((lp1
(lp2
S'state'
p3
aI400
aa(lp4
S'distance'
p5
aF135.0443344116211
aa(lp6
S'timestamp'
p7
aF5.310564994812012
aatp8
Rp9
.ccollections
OrderedDict
p0
((lp1
(lp2
S'state'
p3
aI400
aa(lp4
S'distance'
p5
aF135.0443344116211
aa(lp6
S'timestamp'
p7
aF5.311779022216797
aatp8
Rp9
.ccollections
OrderedDict
p0
((lp1
(lp2
S'state'
p3
aI400
aa(lp4
S'distance'
p5
aF135.0443344116211
aa(lp6
S'timestamp'
p7
aF5.320785999298096
aatp8
Rp9
.ccollections
OrderedDict
p0
((lp1
(lp2
S'state'
p3
aI400
aa(lp4
S'distance'
p5
aF135.0443344116211
aa(lp6
S'timestamp'
p7
aF5.321771144866943
aatp8
Rp9
.ccollections
OrderedDict
p0
((lp1
(lp2
S'state'
p3
aI400
aa(lp4
S'distance'
p5
aF135.0443344116211
aa(lp6
S'timestamp'
p7
aF5.3307881355285645
aatp8
Rp9
.ccollections
OrderedDict
p0
((lp1
(lp2
S'state'
p3
aI400
aa(lp4
S'distance'
p5
aF135.0443344116211
aa(lp6
S'timestamp'
p7
aF5.331707000732422
aatp8
Rp9
.ccollections
OrderedDict
p0
((lp1
(lp2
S'state'
p3
aI400
aa(lp4
S'distance'
p5
aF135.0443344116211
aa(lp6
S'timestamp'
p7
aF5.341405153274536
aatp8
Rp9
.ccollections
OrderedDict
p0
((lp1
(lp2
S'state'
p3
aI400
aa(lp4
S'distance'
p5
aF135.0443344116211
aa(lp6
S'timestamp'
p7
aF5.342041015625
aatp8
Rp9
.ccollections
OrderedDict
p0
((lp1
(lp2
S'state'
p3
aI400
aa(lp4
S'distance'
p5
aF135.0443344116211
aa(lp6
S'timestamp'
p7
aF5.350784063339233
aatp8
Rp9
.ccollections
OrderedDict
p0
((lp1
(lp2
S'state'
p3
aI400
aa(lp4
S'distance'
p5
aF135.0443344116211
aa(lp6
S'timestamp'
p7
aF5.351225137710571
aatp8
Rp9
.ccollections
OrderedDict
p0
((lp1
(lp2
S'state'
p3
aI400
aa(lp4
S'distance'
p5
aF135.0443344116211
aa(lp6
S'timestamp'
p7
aF5.360804080963135
aatp8
Rp9
.ccollections
OrderedDict
p0
((lp1
(lp2
S'state'
p3
aI400
aa(lp4
S'distance'
p5
aF135.0443344116211
aa(lp6
S'timestamp'
p7
aF5.36195707321167
aatp8
Rp9
.ccollections
OrderedDict
p0
((lp1
(lp2
S'state'
p3
aI400
aa(lp4
S'distance'
p5
aF135.0443344116211
aa(lp6
S'timestamp'
p7
aF5.371093034744263
aatp8
Rp9
.ccollections
OrderedDict
p0
((lp1
(lp2
S'state'
p3
aI400
aa(lp4
S'distance'
p5
aF135.0443344116211
aa(lp6
S'timestamp'
p7
aF5.371201038360596
aatp8
Rp9
.ccollections
OrderedDict
p0
((lp1
(lp2
S'state'
p3
aI400
aa(lp4
S'distance'
p5
aF135.0443344116211
aa(lp6
S'timestamp'
p7
aF5.380859136581421
aatp8
Rp9
.ccollections
OrderedDict
p0
((lp1
(lp2
S'state'
p3
aI400
aa(lp4
S'distance'
p5
aF135.0443344116211
aa(lp6
S'timestamp'
p7
aF5.382101058959961
aatp8
Rp9
.ccollections
OrderedDict
p0
((lp1
(lp2
S'state'
p3
aI0
aa(lp4
S'distance'
p5
aF135.0443344116211
aa(lp6
S'timestamp'
p7
aF5.3911590576171875
aatp8
Rp9
.ccollections
OrderedDict
p0
((lp1
(lp2
S'state'
p3
aI0
aa(lp4
S'distance'
p5
aF33.75897693634033
aa(lp6
S'timestamp'
p7
aF5.951494932174683
aatp8
Rp9
.ccollections
OrderedDict
p0
((lp1
(lp2
S'state'
p3
aI0
aa(lp4
S'distance'
p5
aF33.75897693634033
aa(lp6
S'timestamp'
p7
aF5.961219072341919
aatp8
Rp9
.ccollections
OrderedDict
p0
((lp1
(lp2
S'state'
p3
aI0
aa(lp4
S'distance'
p5
aF33.75897693634033
aa(lp6
S'timestamp'
p7
aF5.961337089538574
aatp8
Rp9
.ccollections
OrderedDict
p0
((lp1
(lp2
S'state'
p3
aI0
aa(lp4
S'distance'
p5
aF33.75897693634033
aa(lp6
S'timestamp'
p7
aF5.97084903717041
aatp8
Rp9
.ccollections
OrderedDict
p0
((lp1
(lp2
S'state'
p3
aI0
aa(lp4
S'distance'
p5
aF33.75897693634033
aa(lp6
S'timestamp'
p7
aF5.971637964248657
aatp8
Rp9
.ccollections
OrderedDict
p0
((lp1
(lp2
S'state'
p3
aI0
aa(lp4
S'distance'
p5
aF33.75897693634033
aa(lp6
S'timestamp'
p7
aF5.980947017669678
aatp8
Rp9
.ccollections
OrderedDict
p0
((lp1
(lp2
S'state'
p3
aI0
aa(lp4
S'distance'
p5
aF33.75897693634033
aa(lp6
S'timestamp'
p7
aF5.981661081314087
aatp8
Rp9
.ccollections
OrderedDict
p0
((lp1
(lp2
S'state'
p3
aI0
aa(lp4
S'distance'
p5
aF33.75897693634033
aa(lp6
S'timestamp'
p7
aF5.9924399852752686
aatp8
Rp9
.ccollections
OrderedDict
p0
((lp1
(lp2
S'state'
p3
aI0
aa(lp4
S'distance'
p5
aF33.75897693634033
aa(lp6
S'timestamp'
p7
aF5.992547035217285
aatp8
Rp9
.ccollections
OrderedDict
p0
((lp1
(lp2
S'state'
p3
aI0
aa(lp4
S'distance'
p5
aF33.75897693634033
aa(lp6
S'timestamp'
p7
aF6.000991106033325
aatp8
Rp9
.ccollections
OrderedDict
p0
((lp1
(lp2
S'state'
p3
aI0
aa(lp4
S'distance'
p5
aF33.75897693634033
aa(lp6
S'timestamp'
p7
aF6.00164008140564
aatp8
Rp9
.ccollections
OrderedDict
p0
((lp1
(lp2
S'state'
p3
aI0
aa(lp4
S'distance'
p5
aF33.75897693634033
aa(lp6
S'timestamp'
p7
aF6.012640953063965
aatp8
Rp9
.ccollections
OrderedDict
p0
((lp1
(lp2
S'state'
p3
aI0
aa(lp4
S'distance'
p5
aF33.75897693634033
aa(lp6
S'timestamp'
p7
aF6.013957977294922
aatp8
Rp9
.ccollections
OrderedDict
p0
((lp1
(lp2
S'state'
p3
aI0
aa(lp4
S'distance'
p5
aF33.75897693634033
aa(lp6
S'timestamp'
p7
aF6.023442983627319
aatp8
Rp9
.ccollections
OrderedDict
p0
((lp1
(lp2
S'state'
p3
aI0
aa(lp4
S'distance'
p5
aF33.75897693634033
aa(lp6
S'timestamp'
p7
aF6.0243611335754395
aatp8
Rp9
.ccollections
OrderedDict
p0
((lp1
(lp2
S'state'
p3
aI0
aa(lp4
S'distance'
p5
aF33.75897693634033
aa(lp6
S'timestamp'
p7
aF6.031000137329102
aatp8
Rp9
.ccollections
OrderedDict
p0
((lp1
(lp2
S'state'
p3
aI0
aa(lp4
S'distance'
p5
aF33.75897693634033
aa(lp6
S'timestamp'
p7
aF6.031641960144043
aatp8
Rp9
.ccollections
OrderedDict
p0
((lp1
(lp2
S'state'
p3
aI0
aa(lp4
S'distance'
p5
aF33.75897693634033
aa(lp6
S'timestamp'
p7
aF6.041018962860107
aatp8
Rp9
.ccollections
OrderedDict
p0
((lp1
(lp2
S'state'
p3
aI0
aa(lp4
S'distance'
p5
aF33.75897693634033
aa(lp6
S'timestamp'
p7
aF6.042601108551025
aatp8
Rp9
.ccollections
OrderedDict
p0
((lp1
(lp2
S'state'
p3
aI0
aa(lp4
S'distance'
p5
aF33.75897693634033
aa(lp6
S'timestamp'
p7
aF6.051206111907959
aatp8
Rp9
.ccollections
OrderedDict
p0
((lp1
(lp2
S'state'
p3
aI0
aa(lp4
S'distance'
p5
aF33.75897693634033
aa(lp6
S'timestamp'
p7
aF6.052035093307495
aatp8
Rp9
.ccollections
OrderedDict
p0
((lp1
(lp2
S'state'
p3
aI0
aa(lp4
S'distance'
p5
aF33.75897693634033
aa(lp6
S'timestamp'
p7
aF6.061280965805054
aatp8
Rp9
.ccollections
OrderedDict
p0
((lp1
(lp2
S'state'
p3
aI0
aa(lp4
S'distance'
p5
aF33.75897693634033
aa(lp6
S'timestamp'
p7
aF6.0625550746917725
aatp8
Rp9
.ccollections
OrderedDict
p0
((lp1
(lp2
S'state'
p3
aI0
aa(lp4
S'distance'
p5
aF33.75897693634033
aa(lp6
S'timestamp'
p7
aF6.070966958999634
aatp8
Rp9
.ccollections
OrderedDict
p0
((lp1
(lp2
S'state'
p3
aI0
aa(lp4
S'distance'
p5
aF33.75897693634033
aa(lp6
S'timestamp'
p7
aF6.071339130401611
aatp8
Rp9
.ccollections
OrderedDict
p0
((lp1
(lp2
S'state'
p3
aI0
aa(lp4
S'distance'
p5
aF33.75897693634033
aa(lp6
S'timestamp'
p7
aF6.081248044967651
aatp8
Rp9
.ccollections
OrderedDict
p0
((lp1
(lp2
S'state'
p3
aI0
aa(lp4
S'distance'
p5
aF33.75897693634033
aa(lp6
S'timestamp'
p7
aF6.081419944763184
aatp8
Rp9
.ccollections
OrderedDict
p0
((lp1
(lp2
S'state'
p3
aI0
aa(lp4
S'distance'
p5
aF33.75897693634033
aa(lp6
S'timestamp'
p7
aF6.091213941574097
aatp8
Rp9
.ccollections
OrderedDict
p0
((lp1
(lp2
S'state'
p3
aI0
aa(lp4
S'distance'
p5
aF33.75897693634033
aa(lp6
S'timestamp'
p7
aF6.091367959976196
aatp8
Rp9
.ccollections
OrderedDict
p0
((lp1
(lp2
S'state'
p3
aI0
aa(lp4
S'distance'
p5
aF33.75897693634033
aa(lp6
S'timestamp'
p7
aF6.10096001625061
aatp8
Rp9
.ccollections
OrderedDict
p0
((lp1
(lp2
S'state'
p3
aI0
aa(lp4
S'distance'
p5
aF33.75897693634033
aa(lp6
S'timestamp'
p7
aF6.1016669273376465
aatp8
Rp9
.ccollections
OrderedDict
p0
((lp1
(lp2
S'state'
p3
aI0
aa(lp4
S'distance'
p5
aF33.75897693634033
aa(lp6
S'timestamp'
p7
aF6.111026048660278
aatp8
Rp9
.ccollections
OrderedDict
p0
((lp1
(lp2
S'state'
p3
aI0
aa(lp4
S'distance'
p5
aF33.75897693634033
aa(lp6
S'timestamp'
p7
aF6.111820936203003
aatp8
Rp9
.ccollections
OrderedDict
p0
((lp1
(lp2
S'state'
p3
aI0
aa(lp4
S'distance'
p5
aF33.75897693634033
aa(lp6
S'timestamp'
p7
aF6.1209001541137695
aatp8
Rp9
.ccollections
OrderedDict
p0
((lp1
(lp2
S'state'
p3
aI0
aa(lp4
S'distance'
p5
aF33.75897693634033
aa(lp6
S'timestamp'
p7
aF6.122138977050781
aatp8
Rp9
.ccollections
OrderedDict
p0
((lp1
(lp2
S'state'
p3
aI0
aa(lp4
S'distance'
p5
aF33.75897693634033
aa(lp6
S'timestamp'
p7
aF6.1311211585998535
aatp8
Rp9
.ccollections
OrderedDict
p0
((lp1
(lp2
S'state'
p3
aI0
aa(lp4
S'distance'
p5
aF33.75897693634033
aa(lp6
S'timestamp'
p7
aF6.132070064544678
aatp8
Rp9
.ccollections
OrderedDict
p0
((lp1
(lp2
S'state'
p3
aI0
aa(lp4
S'distance'
p5
aF33.75897693634033
aa(lp6
S'timestamp'
p7
aF6.141531944274902
aatp8
Rp9
.ccollections
OrderedDict
p0
((lp1
(lp2
S'state'
p3
aI0
aa(lp4
S'distance'
p5
aF33.75897693634033
aa(lp6
S'timestamp'
p7
aF6.141726970672607
aatp8
Rp9
.ccollections
OrderedDict
p0
((lp1
(lp2
S'state'
p3
aI0
aa(lp4
S'distance'
p5
aF33.75897693634033
aa(lp6
S'timestamp'
p7
aF6.1512451171875
aatp8
Rp9
.ccollections
OrderedDict
p0
((lp1
(lp2
S'state'
p3
aI0
aa(lp4
S'distance'
p5
aF33.75897693634033
aa(lp6
S'timestamp'
p7
aF6.1513800621032715
aatp8
Rp9
.ccollections
OrderedDict
p0
((lp1
(lp2
S'state'
p3
aI0
aa(lp4
S'distance'
p5
aF33.75897693634033
aa(lp6
S'timestamp'
p7
aF6.161175966262817
aatp8
Rp9
.ccollections
OrderedDict
p0
((lp1
(lp2
S'state'
p3
aI0
aa(lp4
S'distance'
p5
aF33.75897693634033
aa(lp6
S'timestamp'
p7
aF6.16231894493103
aatp8
Rp9
.ccollections
OrderedDict
p0
((lp1
(lp2
S'state'
p3
aI0
aa(lp4
S'distance'
p5
aF33.75897693634033
aa(lp6
S'timestamp'
p7
aF6.170843124389648
aatp8
Rp9
.ccollections
OrderedDict
p0
((lp1
(lp2
S'state'
p3
aI0
aa(lp4
S'distance'
p5
aF33.75897693634033
aa(lp6
S'timestamp'
p7
aF6.172414064407349
aatp8
Rp9
.ccollections
OrderedDict
p0
((lp1
(lp2
S'state'
p3
aI0
aa(lp4
S'distance'
p5
aF33.75897693634033
aa(lp6
S'timestamp'
p7
aF6.18091893196106
aatp8
Rp9
.ccollections
OrderedDict
p0
((lp1
(lp2
S'state'
p3
aI0
aa(lp4
S'distance'
p5
aF33.75897693634033
aa(lp6
S'timestamp'
p7
aF6.19099497795105
aatp8
Rp9
.ccollections
OrderedDict
p0
((lp1
(lp2
S'state'
p3
aI0
aa(lp4
S'distance'
p5
aF33.75897693634033
aa(lp6
S'timestamp'
p7
aF6.191367149353027
aatp8
Rp9
.ccollections
OrderedDict
p0
((lp1
(lp2
S'state'
p3
aI0
aa(lp4
S'distance'
p5
aF33.75897693634033
aa(lp6
S'timestamp'
p7
aF6.192815065383911
aatp8
Rp9
.ccollections
OrderedDict
p0
((lp1
(lp2
S'state'
p3
aI0
aa(lp4
S'distance'
p5
aF33.75897693634033
aa(lp6
S'timestamp'
p7
aF6.200865030288696
aatp8
Rp9
.ccollections
OrderedDict
p0
((lp1
(lp2
S'state'
p3
aI0
aa(lp4
S'distance'
p5
aF33.75897693634033
aa(lp6
S'timestamp'
p7
aF6.201463937759399
aatp8
Rp9
.ccollections
OrderedDict
p0
((lp1
(lp2
S'state'
p3
aI0
aa(lp4
S'distance'
p5
aF33.75897693634033
aa(lp6
S'timestamp'
p7
aF6.211050033569336
aatp8
Rp9
.ccollections
OrderedDict
p0
((lp1
(lp2
S'state'
p3
aI0
aa(lp4
S'distance'
p5
aF33.75897693634033
aa(lp6
S'timestamp'
p7
aF6.211786985397339
aatp8
Rp9
.ccollections
OrderedDict
p0
((lp1
(lp2
S'state'
p3
aI0
aa(lp4
S'distance'
p5
aF33.75897693634033
aa(lp6
S'timestamp'
p7
aF6.22088098526001
aatp8
Rp9
.ccollections
OrderedDict
p0
((lp1
(lp2
S'state'
p3
aI0
aa(lp4
S'distance'
p5
aF33.75897693634033
aa(lp6
S'timestamp'
p7
aF6.2224440574646
aatp8
Rp9
.ccollections
OrderedDict
p0
((lp1
(lp2
S'state'
p3
aI0
aa(lp4
S'distance'
p5
aF33.75897693634033
aa(lp6
S'timestamp'
p7
aF6.230765104293823
aatp8
Rp9
.ccollections
OrderedDict
p0
((lp1
(lp2
S'state'
p3
aI0
aa(lp4
S'distance'
p5
aF33.75897693634033
aa(lp6
S'timestamp'
p7
aF6.232367038726807
aatp8
Rp9
.ccollections
OrderedDict
p0
((lp1
(lp2
S'state'
p3
aI0
aa(lp4
S'distance'
p5
aF33.75897693634033
aa(lp6
S'timestamp'
p7
aF6.240978002548218
aatp8
Rp9
.ccollections
OrderedDict
p0
((lp1
(lp2
S'state'
p3
aI0
aa(lp4
S'distance'
p5
aF33.75897693634033
aa(lp6
S'timestamp'
p7
aF6.242372035980225
aatp8
Rp9
.ccollections
OrderedDict
p0
((lp1
(lp2
S'state'
p3
aI0
aa(lp4
S'distance'
p5
aF33.75897693634033
aa(lp6
S'timestamp'
p7
aF6.251611948013306
aatp8
Rp9
.ccollections
OrderedDict
p0
((lp1
(lp2
S'state'
p3
aI0
aa(lp4
S'distance'
p5
aF33.75897693634033
aa(lp6
S'timestamp'
p7
aF6.251878976821899
aatp8
Rp9
.ccollections
OrderedDict
p0
((lp1
(lp2
S'state'
p3
aI0
aa(lp4
S'distance'
p5
aF33.75897693634033
aa(lp6
S'timestamp'
p7
aF6.261089086532593
aatp8
Rp9
.ccollections
OrderedDict
p0
((lp1
(lp2
S'state'
p3
aI0
aa(lp4
S'distance'
p5
aF33.75897693634033
aa(lp6
S'timestamp'
p7
aF6.2622809410095215
aatp8
Rp9
.ccollections
OrderedDict
p0
((lp1
(lp2
S'state'
p3
aI0
aa(lp4
S'distance'
p5
aF33.75897693634033
aa(lp6
S'timestamp'
p7
aF6.271193981170654
aatp8
Rp9
.ccollections
OrderedDict
p0
((lp1
(lp2
S'state'
p3
aI0
aa(lp4
S'distance'
p5
aF33.75897693634033
aa(lp6
S'timestamp'
p7
aF6.271355152130127
aatp8
Rp9
.ccollections
OrderedDict
p0
((lp1
(lp2
S'state'
p3
aI0
aa(lp4
S'distance'
p5
aF33.75897693634033
aa(lp6
S'timestamp'
p7
aF6.280991077423096
aatp8
Rp9
.ccollections
OrderedDict
p0
((lp1
(lp2
S'state'
p3
aI0
aa(lp4
S'distance'
p5
aF33.75897693634033
aa(lp6
S'timestamp'
p7
aF6.281713962554932
aatp8
Rp9
.ccollections
OrderedDict
p0
((lp1
(lp2
S'state'
p3
aI0
aa(lp4
S'distance'
p5
aF33.75897693634033
aa(lp6
S'timestamp'
p7
aF6.290863037109375
aatp8
Rp9
.ccollections
OrderedDict
p0
((lp1
(lp2
S'state'
p3
aI0
aa(lp4
S'distance'
p5
aF33.75897693634033
aa(lp6
S'timestamp'
p7
aF6.291720151901245
aatp8
Rp9
.ccollections
OrderedDict
p0
((lp1
(lp2
S'state'
p3
aI0
aa(lp4
S'distance'
p5
aF33.75897693634033
aa(lp6
S'timestamp'
p7
aF6.301008939743042
aatp8
Rp9
.ccollections
OrderedDict
p0
((lp1
(lp2
S'state'
p3
aI0
aa(lp4
S'distance'
p5
aF33.75897693634033
aa(lp6
S'timestamp'
p7
aF6.3016369342803955
aatp8
Rp9
.ccollections
OrderedDict
p0
((lp1
(lp2
S'state'
p3
aI0
aa(lp4
S'distance'
p5
aF33.75897693634033
aa(lp6
S'timestamp'
p7
aF6.311347007751465
aatp8
Rp9
.ccollections
OrderedDict
p0
((lp1
(lp2
S'state'
p3
aI0
aa(lp4
S'distance'
p5
aF33.75897693634033
aa(lp6
S'timestamp'
p7
aF6.311774015426636
aatp8
Rp9
.ccollections
OrderedDict
p0
((lp1
(lp2
S'state'
p3
aI0
aa(lp4
S'distance'
p5
aF33.75897693634033
aa(lp6
S'timestamp'
p7
aF6.321000099182129
aatp8
Rp9
.ccollections
OrderedDict
p0
((lp1
(lp2
S'state'
p3
aI0
aa(lp4
S'distance'
p5
aF33.75897693634033
aa(lp6
S'timestamp'
p7
aF6.321479082107544
aatp8
Rp9
.ccollections
OrderedDict
p0
((lp1
(lp2
S'state'
p3
aI0
aa(lp4
S'distance'
p5
aF33.75897693634033
aa(lp6
S'timestamp'
p7
aF6.3310229778289795
aatp8
Rp9
.ccollections
OrderedDict
p0
((lp1
(lp2
S'state'
p3
aI0
aa(lp4
S'distance'
p5
aF33.75897693634033
aa(lp6
S'timestamp'
p7
aF6.331840991973877
aatp8
Rp9
.ccollections
OrderedDict
p0
((lp1
(lp2
S'state'
p3
aI0
aa(lp4
S'distance'
p5
aF33.75897693634033
aa(lp6
S'timestamp'
p7
aF6.350872039794922
aatp8
Rp9
.ccollections
OrderedDict
p0
((lp1
(lp2
S'state'
p3
aI0
aa(lp4
S'distance'
p5
aF33.75897693634033
aa(lp6
S'timestamp'
p7
aF6.35129714012146
aatp8
Rp9
.ccollections
OrderedDict
p0
((lp1
(lp2
S'state'
p3
aI0
aa(lp4
S'distance'
p5
aF33.75897693634033
aa(lp6
S'timestamp'
p7
aF6.352493047714233
aatp8
Rp9
.ccollections
OrderedDict
p0
((lp1
(lp2
S'state'
p3
aI0
aa(lp4
S'distance'
p5
aF33.75897693634033
aa(lp6
S'timestamp'
p7
aF6.353791952133179
aatp8
Rp9
.ccollections
OrderedDict
p0
((lp1
(lp2
S'state'
p3
aI0
aa(lp4
S'distance'
p5
aF33.75897693634033
aa(lp6
S'timestamp'
p7
aF6.361004114151001
aatp8
Rp9
.ccollections
OrderedDict
p0
((lp1
(lp2
S'state'
p3
aI0
aa(lp4
S'distance'
p5
aF33.75897693634033
aa(lp6
S'timestamp'
p7
aF6.362014055252075
aatp8
Rp9
.ccollections
OrderedDict
p0
((lp1
(lp2
S'state'
p3
aI0
aa(lp4
S'distance'
p5
aF33.75897693634033
aa(lp6
S'timestamp'
p7
aF6.370972156524658
aatp8
Rp9
.ccollections
OrderedDict
p0
((lp1
(lp2
S'state'
p3
aI0
aa(lp4
S'distance'
p5
aF33.75897693634033
aa(lp6
S'timestamp'
p7
aF6.371953964233398
aatp8
Rp9
.ccollections
OrderedDict
p0
((lp1
(lp2
S'state'
p3
aI0
aa(lp4
S'distance'
p5
aF33.75897693634033
aa(lp6
S'timestamp'
p7
aF6.381232976913452
aatp8
Rp9
.ccollections
OrderedDict
p0
((lp1
(lp2
S'state'
p3
aI0
aa(lp4
S'distance'
p5
aF33.75897693634033
aa(lp6
S'timestamp'
p7
aF6.381999969482422
aatp8
Rp9
.ccollections
OrderedDict
p0
((lp1
(lp2
S'state'
p3
aI0
aa(lp4
S'distance'
p5
aF33.75897693634033
aa(lp6
S'timestamp'
p7
aF6.39094614982605
aatp8
Rp9
.ccollections
OrderedDict
p0
((lp1
(lp2
S'state'
p3
aI0
aa(lp4
S'distance'
p5
aF33.75897693634033
aa(lp6
S'timestamp'
p7
aF6.391701936721802
aatp8
Rp9
.ccollections
OrderedDict
p0
((lp1
(lp2
S'state'
p3
aI0
aa(lp4
S'distance'
p5
aF33.75897693634033
aa(lp6
S'timestamp'
p7
aF6.401193141937256
aatp8
Rp9
.ccollections
OrderedDict
p0
((lp1
(lp2
S'state'
p3
aI0
aa(lp4
S'distance'
p5
aF33.75897693634033
aa(lp6
S'timestamp'
p7
aF6.401757001876831
aatp8
Rp9
.ccollections
OrderedDict
p0
((lp1
(lp2
S'state'
p3
aI0
aa(lp4
S'distance'
p5
aF33.75897693634033
aa(lp6
S'timestamp'
p7
aF6.411159992218018
aatp8
Rp9
.ccollections
OrderedDict
p0
((lp1
(lp2
S'state'
p3
aI0
aa(lp4
S'distance'
p5
aF33.75897693634033
aa(lp6
S'timestamp'
p7
aF6.4118311405181885
aatp8
Rp9
.ccollections
OrderedDict
p0
((lp1
(lp2
S'state'
p3
aI0
aa(lp4
S'distance'
p5
aF33.75897693634033
aa(lp6
S'timestamp'
p7
aF6.421119928359985
aatp8
Rp9
.ccollections
OrderedDict
p0
((lp1
(lp2
S'state'
p3
aI0
aa(lp4
S'distance'
p5
aF33.75897693634033
aa(lp6
S'timestamp'
p7
aF6.42163610458374
aatp8
Rp9
.ccollections
OrderedDict
p0
((lp1
(lp2
S'state'
p3
aI0
aa(lp4
S'distance'
p5
aF33.75897693634033
aa(lp6
S'timestamp'
p7
aF6.431146144866943
aatp8
Rp9
.ccollections
OrderedDict
p0
((lp1
(lp2
S'state'
p3
aI0
aa(lp4
S'distance'
p5
aF33.75897693634033
aa(lp6
S'timestamp'
p7
aF6.431681156158447
aatp8
Rp9
.ccollections
OrderedDict
p0
((lp1
(lp2
S'state'
p3
aI0
aa(lp4
S'distance'
p5
aF33.75897693634033
aa(lp6
S'timestamp'
p7
aF6.441170930862427
aatp8
Rp9
.ccollections
OrderedDict
p0
((lp1
(lp2
S'state'
p3
aI0
aa(lp4
S'distance'
p5
aF33.75897693634033
aa(lp6
S'timestamp'
p7
aF6.441924095153809
aatp8
Rp9
.ccollections
OrderedDict
p0
((lp1
(lp2
S'state'
p3
aI0
aa(lp4
S'distance'
p5
aF33.75897693634033
aa(lp6
S'timestamp'
p7
aF6.451157093048096
aatp8
Rp9
.ccollections
OrderedDict
p0
((lp1
(lp2
S'state'
p3
aI0
aa(lp4
S'distance'
p5
aF33.75897693634033
aa(lp6
S'timestamp'
p7
aF6.4516520500183105
aatp8
Rp9
.ccollections
OrderedDict
p0
((lp1
(lp2
S'state'
p3
aI0
aa(lp4
S'distance'
p5
aF33.75897693634033
aa(lp6
S'timestamp'
p7
aF6.4609620571136475
aatp8
Rp9
.ccollections
OrderedDict
p0
((lp1
(lp2
S'state'
p3
aI0
aa(lp4
S'distance'
p5
aF33.75897693634033
aa(lp6
S'timestamp'
p7
aF6.461889982223511
aatp8
Rp9
.ccollections
OrderedDict
p0
((lp1
(lp2
S'state'
p3
aI0
aa(lp4
S'distance'
p5
aF33.75897693634033
aa(lp6
S'timestamp'
p7
aF6.471002101898193
aatp8
Rp9
.ccollections
OrderedDict
p0
((lp1
(lp2
S'state'
p3
aI0
aa(lp4
S'distance'
p5
aF33.75897693634033
aa(lp6
S'timestamp'
p7
aF6.471830129623413
aatp8
Rp9
.ccollections
OrderedDict
p0
((lp1
(lp2
S'state'
p3
aI0
aa(lp4
S'distance'
p5
aF33.75897693634033
aa(lp6
S'timestamp'
p7
aF6.481110095977783
aatp8
Rp9
.ccollections
OrderedDict
p0
((lp1
(lp2
S'state'
p3
aI0
aa(lp4
S'distance'
p5
aF33.75897693634033
aa(lp6
S'timestamp'
p7
aF6.482249975204468
aatp8
Rp9
.ccollections
OrderedDict
p0
((lp1
(lp2
S'state'
p3
aI0
aa(lp4
S'distance'
p5
aF33.75897693634033
aa(lp6
S'timestamp'
p7
aF6.491107940673828
aatp8
Rp9
.ccollections
OrderedDict
p0
((lp1
(lp2
S'state'
p3
aI0
aa(lp4
S'distance'
p5
aF33.75897693634033
aa(lp6
S'timestamp'
p7
aF6.491847038269043
aatp8
Rp9
.ccollections
OrderedDict
p0
((lp1
(lp2
S'state'
p3
aI0
aa(lp4
S'distance'
p5
aF33.75897693634033
aa(lp6
S'timestamp'
p7
aF6.501631021499634
aatp8
Rp9
.ccollections
OrderedDict
p0
((lp1
(lp2
S'state'
p3
aI0
aa(lp4
S'distance'
p5
aF33.75897693634033
aa(lp6
S'timestamp'
p7
aF6.502457141876221
aatp8
Rp9
.ccollections
OrderedDict
p0
((lp1
(lp2
S'state'
p3
aI0
aa(lp4
S'distance'
p5
aF33.75897693634033
aa(lp6
S'timestamp'
p7
aF6.511225938796997
aatp8
Rp9
.ccollections
OrderedDict
p0
((lp1
(lp2
S'state'
p3
aI0
aa(lp4
S'distance'
p5
aF33.75897693634033
aa(lp6
S'timestamp'
p7
aF6.511790990829468
aatp8
Rp9
.ccollections
OrderedDict
p0
((lp1
(lp2
S'state'
p3
aI0
aa(lp4
S'distance'
p5
aF33.75897693634033
aa(lp6
S'timestamp'
p7
aF6.521160125732422
aatp8
Rp9
.ccollections
OrderedDict
p0
((lp1
(lp2
S'state'
p3
aI0
aa(lp4
S'distance'
p5
aF33.75897693634033
aa(lp6
S'timestamp'
p7
aF6.521857023239136
aatp8
Rp9
.ccollections
OrderedDict
p0
((lp1
(lp2
S'state'
p3
aI0
aa(lp4
S'distance'
p5
aF33.75897693634033
aa(lp6
S'timestamp'
p7
aF6.531254053115845
aatp8
Rp9
.ccollections
OrderedDict
p0
((lp1
(lp2
S'state'
p3
aI0
aa(lp4
S'distance'
p5
aF33.75897693634033
aa(lp6
S'timestamp'
p7
aF6.531877040863037
aatp8
Rp9
.ccollections
OrderedDict
p0
((lp1
(lp2
S'state'
p3
aI0
aa(lp4
S'distance'
p5
aF33.75897693634033
aa(lp6
S'timestamp'
p7
aF6.541636943817139
aatp8
Rp9
.ccollections
OrderedDict
p0
((lp1
(lp2
S'state'
p3
aI0
aa(lp4
S'distance'
p5
aF33.75897693634033
aa(lp6
S'timestamp'
p7
aF6.542366981506348
aatp8
Rp9
.ccollections
OrderedDict
p0
((lp1
(lp2
S'state'
p3
aI0
aa(lp4
S'distance'
p5
aF33.75897693634033
aa(lp6
S'timestamp'
p7
aF6.55094313621521
aatp8
Rp9
.ccollections
OrderedDict
p0
((lp1
(lp2
S'state'
p3
aI0
aa(lp4
S'distance'
p5
aF33.75897693634033
aa(lp6
S'timestamp'
p7
aF6.561017990112305
aatp8
Rp9
.ccollections
OrderedDict
p0
((lp1
(lp2
S'state'
p3
aI0
aa(lp4
S'distance'
p5
aF33.75897693634033
aa(lp6
S'timestamp'
p7
aF6.564418077468872
aatp8
Rp9
.ccollections
OrderedDict
p0
((lp1
(lp2
S'state'
p3
aI0
aa(lp4
S'distance'
p5
aF33.75897693634033
aa(lp6
S'timestamp'
p7
aF6.564587116241455
aatp8
Rp9
.ccollections
OrderedDict
p0
((lp1
(lp2
S'state'
p3
aI0
aa(lp4
S'distance'
p5
aF33.75897693634033
aa(lp6
S'timestamp'
p7
aF6.571234941482544
aatp8
Rp9
.ccollections
OrderedDict
p0
((lp1
(lp2
S'state'
p3
aI0
aa(lp4
S'distance'
p5
aF33.75897693634033
aa(lp6
S'timestamp'
p7
aF6.572005987167358
aatp8
Rp9
.ccollections
OrderedDict
p0
((lp1
(lp2
S'state'
p3
aI0
aa(lp4
S'distance'
p5
aF33.75897693634033
aa(lp6
S'timestamp'
p7
aF6.581263065338135
aatp8
Rp9
.ccollections
OrderedDict
p0
((lp1
(lp2
S'state'
p3
aI0
aa(lp4
S'distance'
p5
aF33.75897693634033
aa(lp6
S'timestamp'
p7
aF6.582067012786865
aatp8
Rp9
.ccollections
OrderedDict
p0
((lp1
(lp2
S'state'
p3
aI0
aa(lp4
S'distance'
p5
aF33.75897693634033
aa(lp6
S'timestamp'
p7
aF6.5911900997161865
aatp8
Rp9
.ccollections
OrderedDict
p0
((lp1
(lp2
S'state'
p3
aI0
aa(lp4
S'distance'
p5
aF33.75897693634033
aa(lp6
S'timestamp'
p7
aF6.592184066772461
aatp8
Rp9
.ccollections
OrderedDict
p0
((lp1
(lp2
S'state'
p3
aI0
aa(lp4
S'distance'
p5
aF33.75897693634033
aa(lp6
S'timestamp'
p7
aF6.601599931716919
aatp8
Rp9
.ccollections
OrderedDict
p0
((lp1
(lp2
S'state'
p3
aI0
aa(lp4
S'distance'
p5
aF33.75897693634033
aa(lp6
S'timestamp'
p7
aF6.601845026016235
aatp8
Rp9
.ccollections
OrderedDict
p0
((lp1
(lp2
S'state'
p3
aI0
aa(lp4
S'distance'
p5
aF33.75897693634033
aa(lp6
S'timestamp'
p7
aF6.61127495765686
aatp8
Rp9
.ccollections
OrderedDict
p0
((lp1
(lp2
S'state'
p3
aI0
aa(lp4
S'distance'
p5
aF33.75897693634033
aa(lp6
S'timestamp'
p7
aF6.612049102783203
aatp8
Rp9
.ccollections
OrderedDict
p0
((lp1
(lp2
S'state'
p3
aI0
aa(lp4
S'distance'
p5
aF33.75897693634033
aa(lp6
S'timestamp'
p7
aF6.622209072113037
aatp8
Rp9
.ccollections
OrderedDict
p0
((lp1
(lp2
S'state'
p3
aI0
aa(lp4
S'distance'
p5
aF33.75897693634033
aa(lp6
S'timestamp'
p7
aF6.62272310256958
aatp8
Rp9
.ccollections
OrderedDict
p0
((lp1
(lp2
S'state'
p3
aI0
aa(lp4
S'distance'
p5
aF33.75897693634033
aa(lp6
S'timestamp'
p7
aF6.63116192817688
aatp8
Rp9
.ccollections
OrderedDict
p0
((lp1
(lp2
S'state'
p3
aI0
aa(lp4
S'distance'
p5
aF33.75897693634033
aa(lp6
S'timestamp'
p7
aF6.631554126739502
aatp8
Rp9
.ccollections
OrderedDict
p0
((lp1
(lp2
S'state'
p3
aI0
aa(lp4
S'distance'
p5
aF33.75897693634033
aa(lp6
S'timestamp'
p7
aF6.64115309715271
aatp8
Rp9
.ccollections
OrderedDict
p0
((lp1
(lp2
S'state'
p3
aI0
aa(lp4
S'distance'
p5
aF33.75897693634033
aa(lp6
S'timestamp'
p7
aF6.641638994216919
aatp8
Rp9
.ccollections
OrderedDict
p0
((lp1
(lp2
S'state'
p3
aI0
aa(lp4
S'distance'
p5
aF33.75897693634033
aa(lp6
S'timestamp'
p7
aF6.650936126708984
aatp8
Rp9
.ccollections
OrderedDict
p0
((lp1
(lp2
S'state'
p3
aI0
aa(lp4
S'distance'
p5
aF33.75897693634033
aa(lp6
S'timestamp'
p7
aF6.6518800258636475
aatp8
Rp9
.ccollections
OrderedDict
p0
((lp1
(lp2
S'state'
p3
aI0
aa(lp4
S'distance'
p5
aF33.75897693634033
aa(lp6
S'timestamp'
p7
aF6.66121506690979
aatp8
Rp9
.ccollections
OrderedDict
p0
((lp1
(lp2
S'state'
p3
aI0
aa(lp4
S'distance'
p5
aF33.75897693634033
aa(lp6
S'timestamp'
p7
aF6.661800146102905
aatp8
Rp9
.ccollections
OrderedDict
p0
((lp1
(lp2
S'state'
p3
aI0
aa(lp4
S'distance'
p5
aF33.75897693634033
aa(lp6
S'timestamp'
p7
aF6.671222925186157
aatp8
Rp9
.ccollections
OrderedDict
p0
((lp1
(lp2
S'state'
p3
aI0
aa(lp4
S'distance'
p5
aF33.75897693634033
aa(lp6
S'timestamp'
p7
aF6.671842098236084
aatp8
Rp9
.ccollections
OrderedDict
p0
((lp1
(lp2
S'state'
p3
aI0
aa(lp4
S'distance'
p5
aF33.75897693634033
aa(lp6
S'timestamp'
p7
aF6.6812660694122314
aatp8
Rp9
.ccollections
OrderedDict
p0
((lp1
(lp2
S'state'
p3
aI0
aa(lp4
S'distance'
p5
aF33.75897693634033
aa(lp6
S'timestamp'
p7
aF6.681901931762695
aatp8
Rp9
.ccollections
OrderedDict
p0
((lp1
(lp2
S'state'
p3
aI0
aa(lp4
S'distance'
p5
aF33.75897693634033
aa(lp6
S'timestamp'
p7
aF6.6912009716033936
aatp8
Rp9
.ccollections
OrderedDict
p0
((lp1
(lp2
S'state'
p3
aI0
aa(lp4
S'distance'
p5
aF33.75897693634033
aa(lp6
S'timestamp'
p7
aF6.691725015640259
aatp8
Rp9
.ccollections
OrderedDict
p0
((lp1
(lp2
S'state'
p3
aI0
aa(lp4
S'distance'
p5
aF33.75897693634033
aa(lp6
S'timestamp'
p7
aF6.701221942901611
aatp8
Rp9
.ccollections
OrderedDict
p0
((lp1
(lp2
S'state'
p3
aI0
aa(lp4
S'distance'
p5
aF33.75897693634033
aa(lp6
S'timestamp'
p7
aF6.702826976776123
aatp8
Rp9
.ccollections
OrderedDict
p0
((lp1
(lp2
S'state'
p3
aI0
aa(lp4
S'distance'
p5
aF33.75897693634033
aa(lp6
S'timestamp'
p7
aF6.711249113082886
aatp8
Rp9
.ccollections
OrderedDict
p0
((lp1
(lp2
S'state'
p3
aI0
aa(lp4
S'distance'
p5
aF33.75897693634033
aa(lp6
S'timestamp'
p7
aF6.711789131164551
aatp8
Rp9
.ccollections
OrderedDict
p0
((lp1
(lp2
S'state'
p3
aI0
aa(lp4
S'distance'
p5
aF33.75897693634033
aa(lp6
S'timestamp'
p7
aF6.721168041229248
aatp8
Rp9
.ccollections
OrderedDict
p0
((lp1
(lp2
S'state'
p3
aI0
aa(lp4
S'distance'
p5
aF33.75897693634033
aa(lp6
S'timestamp'
p7
aF6.722272157669067
aatp8
Rp9
.ccollections
OrderedDict
p0
((lp1
(lp2
S'state'
p3
aI0
aa(lp4
S'distance'
p5
aF33.75897693634033
aa(lp6
S'timestamp'
p7
aF6.731229066848755
aatp8
Rp9
.ccollections
OrderedDict
p0
((lp1
(lp2
S'state'
p3
aI0
aa(lp4
S'distance'
p5
aF33.75897693634033
aa(lp6
S'timestamp'
p7
aF6.731694936752319
aatp8
Rp9
.ccollections
OrderedDict
p0
((lp1
(lp2
S'state'
p3
aI0
aa(lp4
S'distance'
p5
aF33.75897693634033
aa(lp6
S'timestamp'
p7
aF6.741089105606079
aatp8
Rp9
.ccollections
OrderedDict
p0
((lp1
(lp2
S'state'
p3
aI0
aa(lp4
S'distance'
p5
aF33.75897693634033
aa(lp6
S'timestamp'
p7
aF6.741917133331299
aatp8
Rp9
.ccollections
OrderedDict
p0
((lp1
(lp2
S'state'
p3
aI0
aa(lp4
S'distance'
p5
aF33.75897693634033
aa(lp6
S'timestamp'
p7
aF6.751197099685669
aatp8
Rp9
.ccollections
OrderedDict
p0
((lp1
(lp2
S'state'
p3
aI0
aa(lp4
S'distance'
p5
aF33.75897693634033
aa(lp6
S'timestamp'
p7
aF6.75192403793335
aatp8
Rp9
.ccollections
OrderedDict
p0
((lp1
(lp2
S'state'
p3
aI0
aa(lp4
S'distance'
p5
aF33.75897693634033
aa(lp6
S'timestamp'
p7
aF6.761965990066528
aatp8
Rp9
.ccollections
OrderedDict
p0
((lp1
(lp2
S'state'
p3
aI0
aa(lp4
S'distance'
p5
aF33.75897693634033
aa(lp6
S'timestamp'
p7
aF6.762244939804077
aatp8
Rp9
.ccollections
OrderedDict
p0
((lp1
(lp2
S'state'
p3
aI0
aa(lp4
S'distance'
p5
aF33.75897693634033
aa(lp6
S'timestamp'
p7
aF6.771263122558594
aatp8
Rp9
.ccollections
OrderedDict
p0
((lp1
(lp2
S'state'
p3
aI0
aa(lp4
S'distance'
p5
aF33.75897693634033
aa(lp6
S'timestamp'
p7
aF6.771939992904663
aatp8
Rp9
.ccollections
OrderedDict
p0
((lp1
(lp2
S'state'
p3
aI0
aa(lp4
S'distance'
p5
aF33.75897693634033
aa(lp6
S'timestamp'
p7
aF6.780986070632935
aatp8
Rp9
.ccollections
OrderedDict
p0
((lp1
(lp2
S'state'
p3
aI0
aa(lp4
S'distance'
p5
aF33.75897693634033
aa(lp6
S'timestamp'
p7
aF6.78193211555481
aatp8
Rp9
.ccollections
OrderedDict
p0
((lp1
(lp2
S'state'
p3
aI0
aa(lp4
S'distance'
p5
aF33.75897693634033
aa(lp6
S'timestamp'
p7
aF6.7909791469573975
aatp8
Rp9
.ccollections
OrderedDict
p0
((lp1
(lp2
S'state'
p3
aI0
aa(lp4
S'distance'
p5
aF33.75897693634033
aa(lp6
S'timestamp'
p7
aF6.791888952255249
aatp8
Rp9
.ccollections
OrderedDict
p0
((lp1
(lp2
S'state'
p3
aI0
aa(lp4
S'distance'
p5
aF33.75897693634033
aa(lp6
S'timestamp'
p7
aF6.801099061965942
aatp8
Rp9
.ccollections
OrderedDict
p0
((lp1
(lp2
S'state'
p3
aI0
aa(lp4
S'distance'
p5
aF33.75897693634033
aa(lp6
S'timestamp'
p7
aF6.801835060119629
aatp8
Rp9
.ccollections
OrderedDict
p0
((lp1
(lp2
S'state'
p3
aI0
aa(lp4
S'distance'
p5
aF33.75897693634033
aa(lp6
S'timestamp'
p7
aF6.811493158340454
aatp8
Rp9
.ccollections
OrderedDict
p0
((lp1
(lp2
S'state'
p3
aI0
aa(lp4
S'distance'
p5
aF33.75897693634033
aa(lp6
S'timestamp'
p7
aF6.811784029006958
aatp8
Rp9
.ccollections
OrderedDict
p0
((lp1
(lp2
S'state'
p3
aI0
aa(lp4
S'distance'
p5
aF33.75897693634033
aa(lp6
S'timestamp'
p7
aF6.821624040603638
aatp8
Rp9
.ccollections
OrderedDict
p0
((lp1
(lp2
S'state'
p3
aI0
aa(lp4
S'distance'
p5
aF33.75897693634033
aa(lp6
S'timestamp'
p7
aF6.82235312461853
aatp8
Rp9
.ccollections
OrderedDict
p0
((lp1
(lp2
S'state'
p3
aI0
aa(lp4
S'distance'
p5
aF33.75897693634033
aa(lp6
S'timestamp'
p7
aF6.830991983413696
aatp8
Rp9
.ccollections
OrderedDict
p0
((lp1
(lp2
S'state'
p3
aI0
aa(lp4
S'distance'
p5
aF33.75897693634033
aa(lp6
S'timestamp'
p7
aF6.83194899559021
aatp8
Rp9
.ccollections
OrderedDict
p0
((lp1
(lp2
S'state'
p3
aI0
aa(lp4
S'distance'
p5
aF33.75897693634033
aa(lp6
S'timestamp'
p7
aF6.841230154037476
aatp8
Rp9
.ccollections
OrderedDict
p0
((lp1
(lp2
S'state'
p3
aI0
aa(lp4
S'distance'
p5
aF33.75897693634033
aa(lp6
S'timestamp'
p7
aF6.841943025588989
aatp8
Rp9
.ccollections
OrderedDict
p0
((lp1
(lp2
S'state'
p3
aI0
aa(lp4
S'distance'
p5
aF33.75897693634033
aa(lp6
S'timestamp'
p7
aF6.851228952407837
aatp8
Rp9
.ccollections
OrderedDict
p0
((lp1
(lp2
S'state'
p3
aI0
aa(lp4
S'distance'
p5
aF33.75897693634033
aa(lp6
S'timestamp'
p7
aF6.862931966781616
aatp8
Rp9
.ccollections
OrderedDict
p0
((lp1
(lp2
S'state'
p3
aI0
aa(lp4
S'distance'
p5
aF33.75897693634033
aa(lp6
S'timestamp'
p7
aF6.863032102584839
aatp8
Rp9
.ccollections
OrderedDict
p0
((lp1
(lp2
S'state'
p3
aI0
aa(lp4
S'distance'
p5
aF33.75897693634033
aa(lp6
S'timestamp'
p7
aF6.864370107650757
aatp8
Rp9
.ccollections
OrderedDict
p0
((lp1
(lp2
S'state'
p3
aI0
aa(lp4
S'distance'
p5
aF33.75897693634033
aa(lp6
S'timestamp'
p7
aF6.871217966079712
aatp8
Rp9
.ccollections
OrderedDict
p0
((lp1
(lp2
S'state'
p3
aI0
aa(lp4
S'distance'
p5
aF33.75897693634033
aa(lp6
S'timestamp'
p7
aF6.871809005737305
aatp8
Rp9
.ccollections
OrderedDict
p0
((lp1
(lp2
S'state'
p3
aI0
aa(lp4
S'distance'
p5
aF33.75897693634033
aa(lp6
S'timestamp'
p7
aF6.881739139556885
aatp8
Rp9
.ccollections
OrderedDict
p0
((lp1
(lp2
S'state'
p3
aI0
aa(lp4
S'distance'
p5
aF33.75897693634033
aa(lp6
S'timestamp'
p7
aF6.881941080093384
aatp8
Rp9
.ccollections
OrderedDict
p0
((lp1
(lp2
S'state'
p3
aI0
aa(lp4
S'distance'
p5
aF33.75897693634033
aa(lp6
S'timestamp'
p7
aF6.891459941864014
aatp8
Rp9
.ccollections
OrderedDict
p0
((lp1
(lp2
S'state'
p3
aI0
aa(lp4
S'distance'
p5
aF33.75897693634033
aa(lp6
S'timestamp'
p7
aF6.891685962677002
aatp8
Rp9
.ccollections
OrderedDict
p0
((lp1
(lp2
S'state'
p3
aI0
aa(lp4
S'distance'
p5
aF33.75897693634033
aa(lp6
S'timestamp'
p7
aF6.901396036148071
aatp8
Rp9
.ccollections
OrderedDict
p0
((lp1
(lp2
S'state'
p3
aI0
aa(lp4
S'distance'
p5
aF33.75897693634033
aa(lp6
S'timestamp'
p7
aF6.9024670124053955
aatp8
Rp9
.ccollections
OrderedDict
p0
((lp1
(lp2
S'state'
p3
aI0
aa(lp4
S'distance'
p5
aF33.75897693634033
aa(lp6
S'timestamp'
p7
aF6.91106104850769
aatp8
Rp9
.ccollections
OrderedDict
p0
((lp1
(lp2
S'state'
p3
aI0
aa(lp4
S'distance'
p5
aF33.75897693634033
aa(lp6
S'timestamp'
p7
aF6.912204027175903
aatp8
Rp9
.ccollections
OrderedDict
p0
((lp1
(lp2
S'state'
p3
aI0
aa(lp4
S'distance'
p5
aF33.75897693634033
aa(lp6
S'timestamp'
p7
aF6.921231985092163
aatp8
Rp9
.ccollections
OrderedDict
p0
((lp1
(lp2
S'state'
p3
aI0
aa(lp4
S'distance'
p5
aF33.75897693634033
aa(lp6
S'timestamp'
p7
aF6.931026935577393
aatp8
Rp9
.ccollections
OrderedDict
p0
((lp1
(lp2
S'state'
p3
aI0
aa(lp4
S'distance'
p5
aF33.75897693634033
aa(lp6
S'timestamp'
p7
aF6.93199896812439
aatp8
Rp9
.ccollections
OrderedDict
p0
((lp1
(lp2
S'state'
p3
aI0
aa(lp4
S'distance'
p5
aF33.75897693634033
aa(lp6
S'timestamp'
p7
aF6.932260036468506
aatp8
Rp9
.ccollections
OrderedDict
p0
((lp1
(lp2
S'state'
p3
aI0
aa(lp4
S'distance'
p5
aF33.75897693634033
aa(lp6
S'timestamp'
p7
aF6.941744089126587
aatp8
Rp9
.ccollections
OrderedDict
p0
((lp1
(lp2
S'state'
p3
aI0
aa(lp4
S'distance'
p5
aF33.75897693634033
aa(lp6
S'timestamp'
p7
aF6.9426491260528564
aatp8
Rp9
.ccollections
OrderedDict
p0
((lp1
(lp2
S'state'
p3
aI0
aa(lp4
S'distance'
p5
aF33.75897693634033
aa(lp6
S'timestamp'
p7
aF6.951188087463379
aatp8
Rp9
.ccollections
OrderedDict
p0
((lp1
(lp2
S'state'
p3
aI0
aa(lp4
S'distance'
p5
aF33.75897693634033
aa(lp6
S'timestamp'
p7
aF6.951671123504639
aatp8
Rp9
.ccollections
OrderedDict
p0
((lp1
(lp2
S'state'
p3
aI0
aa(lp4
S'distance'
p5
aF33.75897693634033
aa(lp6
S'timestamp'
p7
aF6.9612250328063965
aatp8
Rp9
.ccollections
OrderedDict
p0
((lp1
(lp2
S'state'
p3
aI0
aa(lp4
S'distance'
p5
aF33.75897693634033
aa(lp6
S'timestamp'
p7
aF6.961954116821289
aatp8
Rp9
.ccollections
OrderedDict
p0
((lp1
(lp2
S'state'
p3
aI0
aa(lp4
S'distance'
p5
aF33.75897693634033
aa(lp6
S'timestamp'
p7
aF6.971562147140503
aatp8
Rp9
.ccollections
OrderedDict
p0
((lp1
(lp2
S'state'
p3
aI0
aa(lp4
S'distance'
p5
aF33.75897693634033
aa(lp6
S'timestamp'
p7
aF6.971818923950195
aatp8
Rp9
.ccollections
OrderedDict
p0
((lp1
(lp2
S'state'
p3
aI0
aa(lp4
S'distance'
p5
aF33.75897693634033
aa(lp6
S'timestamp'
p7
aF6.983483076095581
aatp8
Rp9
.ccollections
OrderedDict
p0
((lp1
(lp2
S'state'
p3
aI0
aa(lp4
S'distance'
p5
aF33.75897693634033
aa(lp6
S'timestamp'
p7
aF6.98407506942749
aatp8
Rp9
.ccollections
OrderedDict
p0
((lp1
(lp2
S'state'
p3
aI0
aa(lp4
S'distance'
p5
aF33.75897693634033
aa(lp6
S'timestamp'
p7
aF6.9913060665130615
aatp8
Rp9
.ccollections
OrderedDict
p0
((lp1
(lp2
S'state'
p3
aI0
aa(lp4
S'distance'
p5
aF33.75897693634033
aa(lp6
S'timestamp'
p7
aF6.991762161254883
aatp8
Rp9
.ccollections
OrderedDict
p0
((lp1
(lp2
S'state'
p3
aI0
aa(lp4
S'distance'
p5
aF33.75897693634033
aa(lp6
S'timestamp'
p7
aF7.001495122909546
aatp8
Rp9
.ccollections
OrderedDict
p0
((lp1
(lp2
S'state'
p3
aI0
aa(lp4
S'distance'
p5
aF33.75897693634033
aa(lp6
S'timestamp'
p7
aF7.001644134521484
aatp8
Rp9
.ccollections
OrderedDict
p0
((lp1
(lp2
S'state'
p3
aI0
aa(lp4
S'distance'
p5
aF33.75897693634033
aa(lp6
S'timestamp'
p7
aF7.011274099349976
aatp8
Rp9
.ccollections
OrderedDict
p0
((lp1
(lp2
S'state'
p3
aI0
aa(lp4
S'distance'
p5
aF33.75897693634033
aa(lp6
S'timestamp'
p7
aF7.012485027313232
aatp8
Rp9
.ccollections
OrderedDict
p0
((lp1
(lp2
S'state'
p3
aI0
aa(lp4
S'distance'
p5
aF33.75897693634033
aa(lp6
S'timestamp'
p7
aF7.021266937255859
aatp8
Rp9
.ccollections
OrderedDict
p0
((lp1
(lp2
S'state'
p3
aI0
aa(lp4
S'distance'
p5
aF33.75897693634033
aa(lp6
S'timestamp'
p7
aF7.021829128265381
aatp8
Rp9
.ccollections
OrderedDict
p0
((lp1
(lp2
S'state'
p3
aI0
aa(lp4
S'distance'
p5
aF33.75897693634033
aa(lp6
S'timestamp'
p7
aF7.031310081481934
aatp8
Rp9
.ccollections
OrderedDict
p0
((lp1
(lp2
S'state'
p3
aI0
aa(lp4
S'distance'
p5
aF33.75897693634033
aa(lp6
S'timestamp'
p7
aF7.032248020172119
aatp8
Rp9
.ccollections
OrderedDict
p0
((lp1
(lp2
S'state'
p3
aI0
aa(lp4
S'distance'
p5
aF33.75897693634033
aa(lp6
S'timestamp'
p7
aF7.04134202003479
aatp8
Rp9
.ccollections
OrderedDict
p0
((lp1
(lp2
S'state'
p3
aI0
aa(lp4
S'distance'
p5
aF33.75897693634033
aa(lp6
S'timestamp'
p7
aF7.041916131973267
aatp8
Rp9
.ccollections
OrderedDict
p0
((lp1
(lp2
S'state'
p3
aI0
aa(lp4
S'distance'
p5
aF33.75897693634033
aa(lp6
S'timestamp'
p7
aF7.051171064376831
aatp8
Rp9
.ccollections
OrderedDict
p0
((lp1
(lp2
S'state'
p3
aI0
aa(lp4
S'distance'
p5
aF33.75897693634033
aa(lp6
S'timestamp'
p7
aF7.052495956420898
aatp8
Rp9
.ccollections
OrderedDict
p0
((lp1
(lp2
S'state'
p3
aI0
aa(lp4
S'distance'
p5
aF33.75897693634033
aa(lp6
S'timestamp'
p7
aF7.063390016555786
aatp8
Rp9
.ccollections
OrderedDict
p0
((lp1
(lp2
S'state'
p3
aI0
aa(lp4
S'distance'
p5
aF33.75897693634033
aa(lp6
S'timestamp'
p7
aF7.063647985458374
aatp8
Rp9
.ccollections
OrderedDict
p0
((lp1
(lp2
S'state'
p3
aI0
aa(lp4
S'distance'
p5
aF33.75897693634033
aa(lp6
S'timestamp'
p7
aF7.071166038513184
aatp8
Rp9
.ccollections
OrderedDict
p0
((lp1
(lp2
S'state'
p3
aI0
aa(lp4
S'distance'
p5
aF33.75897693634033
aa(lp6
S'timestamp'
p7
aF7.07179594039917
aatp8
Rp9
.ccollections
OrderedDict
p0
((lp1
(lp2
S'state'
p3
aI0
aa(lp4
S'distance'
p5
aF33.75897693634033
aa(lp6
S'timestamp'
p7
aF7.0815770626068115
aatp8
Rp9
.ccollections
OrderedDict
p0
((lp1
(lp2
S'state'
p3
aI0
aa(lp4
S'distance'
p5
aF33.75897693634033
aa(lp6
S'timestamp'
p7
aF7.081961154937744
aatp8
Rp9
.ccollections
OrderedDict
p0
((lp1
(lp2
S'state'
p3
aI0
aa(lp4
S'distance'
p5
aF33.75897693634033
aa(lp6
S'timestamp'
p7
aF7.091302156448364
aatp8
Rp9
.ccollections
OrderedDict
p0
((lp1
(lp2
S'state'
p3
aI0
aa(lp4
S'distance'
p5
aF33.75897693634033
aa(lp6
S'timestamp'
p7
aF7.092339038848877
aatp8
Rp9
.ccollections
OrderedDict
p0
((lp1
(lp2
S'state'
p3
aI0
aa(lp4
S'distance'
p5
aF33.75897693634033
aa(lp6
S'timestamp'
p7
aF7.102273941040039
aatp8
Rp9
.ccollections
OrderedDict
p0
((lp1
(lp2
S'state'
p3
aI0
aa(lp4
S'distance'
p5
aF33.75897693634033
aa(lp6
S'timestamp'
p7
aF7.10586404800415
aatp8
Rp9
.ccollections
OrderedDict
p0
((lp1
(lp2
S'state'
p3
aI0
aa(lp4
S'distance'
p5
aF33.75897693634033
aa(lp6
S'timestamp'
p7
aF7.1111791133880615
aatp8
Rp9
.ccollections
OrderedDict
p0
((lp1
(lp2
S'state'
p3
aI0
aa(lp4
S'distance'
p5
aF33.75897693634033
aa(lp6
S'timestamp'
p7
aF7.1120359897613525
aatp8
Rp9
.ccollections
OrderedDict
p0
((lp1
(lp2
S'state'
p3
aI0
aa(lp4
S'distance'
p5
aF33.75897693634033
aa(lp6
S'timestamp'
p7
aF7.1217710971832275
aatp8
Rp9
.ccollections
OrderedDict
p0
((lp1
(lp2
S'state'
p3
aI0
aa(lp4
S'distance'
p5
aF33.75897693634033
aa(lp6
S'timestamp'
p7
aF7.121899127960205
aatp8
Rp9
.ccollections
OrderedDict
p0
((lp1
(lp2
S'state'
p3
aI0
aa(lp4
S'distance'
p5
aF33.75897693634033
aa(lp6
S'timestamp'
p7
aF7.131334066390991
aatp8
Rp9
.ccollections
OrderedDict
p0
((lp1
(lp2
S'state'
p3
aI0
aa(lp4
S'distance'
p5
aF33.75897693634033
aa(lp6
S'timestamp'
p7
aF7.131963014602661
aatp8
Rp9
.ccollections
OrderedDict
p0
((lp1
(lp2
S'state'
p3
aI0
aa(lp4
S'distance'
p5
aF33.75897693634033
aa(lp6
S'timestamp'
p7
aF7.141440153121948
aatp8
Rp9
.ccollections
OrderedDict
p0
((lp1
(lp2
S'state'
p3
aI0
aa(lp4
S'distance'
p5
aF33.75897693634033
aa(lp6
S'timestamp'
p7
aF7.142157077789307
aatp8
Rp9
.ccollections
OrderedDict
p0
((lp1
(lp2
S'state'
p3
aI0
aa(lp4
S'distance'
p5
aF33.75897693634033
aa(lp6
S'timestamp'
p7
aF7.151073932647705
aatp8
Rp9
.ccollections
OrderedDict
p0
((lp1
(lp2
S'state'
p3
aI0
aa(lp4
S'distance'
p5
aF33.75897693634033
aa(lp6
S'timestamp'
p7
aF7.152667999267578
aatp8
Rp9
.ccollections
OrderedDict
p0
((lp1
(lp2
S'state'
p3
aI0
aa(lp4
S'distance'
p5
aF33.75897693634033
aa(lp6
S'timestamp'
p7
aF7.161173105239868
aatp8
Rp9
.ccollections
OrderedDict
p0
((lp1
(lp2
S'state'
p3
aI0
aa(lp4
S'distance'
p5
aF33.75897693634033
aa(lp6
S'timestamp'
p7
aF7.162529945373535
aatp8
Rp9
.ccollections
OrderedDict
p0
((lp1
(lp2
S'state'
p3
aI0
aa(lp4
S'distance'
p5
aF33.75897693634033
aa(lp6
S'timestamp'
p7
aF7.171828985214233
aatp8
Rp9
.ccollections
OrderedDict
p0
((lp1
(lp2
S'state'
p3
aI0
aa(lp4
S'distance'
p5
aF33.75897693634033
aa(lp6
S'timestamp'
p7
aF7.172229051589966
aatp8
Rp9
.ccollections
OrderedDict
p0
((lp1
(lp2
S'state'
p3
aI0
aa(lp4
S'distance'
p5
aF33.75897693634033
aa(lp6
S'timestamp'
p7
aF7.181681156158447
aatp8
Rp9
.ccollections
OrderedDict
p0
((lp1
(lp2
S'state'
p3
aI0
aa(lp4
S'distance'
p5
aF33.75897693634033
aa(lp6
S'timestamp'
p7
aF7.181764125823975
aatp8
Rp9
.ccollections
OrderedDict
p0
((lp1
(lp2
S'state'
p3
aI0
aa(lp4
S'distance'
p5
aF33.75897693634033
aa(lp6
S'timestamp'
p7
aF7.19129204750061
aatp8
Rp9
.ccollections
OrderedDict
p0
((lp1
(lp2
S'state'
p3
aI0
aa(lp4
S'distance'
p5
aF33.75897693634033
aa(lp6
S'timestamp'
p7
aF7.1921961307525635
aatp8
Rp9
.ccollections
OrderedDict
p0
((lp1
(lp2
S'state'
p3
aI0
aa(lp4
S'distance'
p5
aF33.75897693634033
aa(lp6
S'timestamp'
p7
aF7.201718091964722
aatp8
Rp9
.ccollections
OrderedDict
p0
((lp1
(lp2
S'state'
p3
aI0
aa(lp4
S'distance'
p5
aF33.75897693634033
aa(lp6
S'timestamp'
p7
aF7.201893091201782
aatp8
Rp9
.ccollections
OrderedDict
p0
((lp1
(lp2
S'state'
p3
aI0
aa(lp4
S'distance'
p5
aF33.75897693634033
aa(lp6
S'timestamp'
p7
aF7.211795091629028
aatp8
Rp9
.ccollections
OrderedDict
p0
((lp1
(lp2
S'state'
p3
aI0
aa(lp4
S'distance'
p5
aF33.75897693634033
aa(lp6
S'timestamp'
p7
aF7.212001085281372
aatp8
Rp9
.ccollections
OrderedDict
p0
((lp1
(lp2
S'state'
p3
aI0
aa(lp4
S'distance'
p5
aF33.75897693634033
aa(lp6
S'timestamp'
p7
aF7.226737022399902
aatp8
Rp9
.ccollections
OrderedDict
p0
((lp1
(lp2
S'state'
p3
aI0
aa(lp4
S'distance'
p5
aF33.75897693634033
aa(lp6
S'timestamp'
p7
aF7.229886054992676
aatp8
Rp9
.ccollections
OrderedDict
p0
((lp1
(lp2
S'state'
p3
aI0
aa(lp4
S'distance'
p5
aF33.75897693634033
aa(lp6
S'timestamp'
p7
aF7.232851028442383
aatp8
Rp9
.ccollections
OrderedDict
p0
((lp1
(lp2
S'state'
p3
aI0
aa(lp4
S'distance'
p5
aF33.75897693634033
aa(lp6
S'timestamp'
p7
aF7.233083009719849
aatp8
Rp9
.ccollections
OrderedDict
p0
((lp1
(lp2
S'state'
p3
aI0
aa(lp4
S'distance'
p5
aF33.75897693634033
aa(lp6
S'timestamp'
p7
aF7.241608142852783
aatp8
Rp9
.ccollections
OrderedDict
p0
((lp1
(lp2
S'state'
p3
aI0
aa(lp4
S'distance'
p5
aF33.75897693634033
aa(lp6
S'timestamp'
p7
aF7.241963148117065
aatp8
Rp9
.ccollections
OrderedDict
p0
((lp1
(lp2
S'state'
p3
aI0
aa(lp4
S'distance'
p5
aF33.75897693634033
aa(lp6
S'timestamp'
p7
aF7.251371145248413
aatp8
Rp9
.ccollections
OrderedDict
p0
((lp1
(lp2
S'state'
p3
aI0
aa(lp4
S'distance'
p5
aF33.75897693634033
aa(lp6
S'timestamp'
p7
aF7.252326965332031
aatp8
Rp9
.ccollections
OrderedDict
p0
((lp1
(lp2
S'state'
p3
aI0
aa(lp4
S'distance'
p5
aF33.75897693634033
aa(lp6
S'timestamp'
p7
aF7.2612879276275635
aatp8
Rp9
.ccollections
OrderedDict
p0
((lp1
(lp2
S'state'
p3
aI0
aa(lp4
S'distance'
p5
aF33.75897693634033
aa(lp6
S'timestamp'
p7
aF7.261728048324585
aatp8
Rp9
.ccollections
OrderedDict
p0
((lp1
(lp2
S'state'
p3
aI0
aa(lp4
S'distance'
p5
aF33.75897693634033
aa(lp6
S'timestamp'
p7
aF7.271162033081055
aatp8
Rp9
.ccollections
OrderedDict
p0
((lp1
(lp2
S'state'
p3
aI0
aa(lp4
S'distance'
p5
aF33.75897693634033
aa(lp6
S'timestamp'
p7
aF7.27195405960083
aatp8
Rp9
.ccollections
OrderedDict
p0
((lp1
(lp2
S'state'
p3
aI0
aa(lp4
S'distance'
p5
aF33.75897693634033
aa(lp6
S'timestamp'
p7
aF7.2817089557647705
aatp8
Rp9
.ccollections
OrderedDict
p0
((lp1
(lp2
S'state'
p3
aI0
aa(lp4
S'distance'
p5
aF33.75897693634033
aa(lp6
S'timestamp'
p7
aF7.281908988952637
aatp8
Rp9
.ccollections
OrderedDict
p0
((lp1
(lp2
S'state'
p3
aI0
aa(lp4
S'distance'
p5
aF33.75897693634033
aa(lp6
S'timestamp'
p7
aF7.291306972503662
aatp8
Rp9
.ccollections
OrderedDict
p0
((lp1
(lp2
S'state'
p3
aI0
aa(lp4
S'distance'
p5
aF33.75897693634033
aa(lp6
S'timestamp'
p7
aF7.301635980606079
aatp8
Rp9
.ccollections
OrderedDict
p0
((lp1
(lp2
S'state'
p3
aI0
aa(lp4
S'distance'
p5
aF33.75897693634033
aa(lp6
S'timestamp'
p7
aF7.302410125732422
aatp8
Rp9
.ccollections
OrderedDict
p0
((lp1
(lp2
S'state'
p3
aI0
aa(lp4
S'distance'
p5
aF33.75897693634033
aa(lp6
S'timestamp'
p7
aF7.304005146026611
aatp8
Rp9
.ccollections
OrderedDict
p0
((lp1
(lp2
S'state'
p3
aI0
aa(lp4
S'distance'
p5
aF33.75897693634033
aa(lp6
S'timestamp'
p7
aF7.311337947845459
aatp8
Rp9
.ccollections
OrderedDict
p0
((lp1
(lp2
S'state'
p3
aI0
aa(lp4
S'distance'
p5
aF33.75897693634033
aa(lp6
S'timestamp'
p7
aF7.312680006027222
aatp8
Rp9
.ccollections
OrderedDict
p0
((lp1
(lp2
S'state'
p3
aI0
aa(lp4
S'distance'
p5
aF33.75897693634033
aa(lp6
S'timestamp'
p7
aF7.321820974349976
aatp8
Rp9
.ccollections
OrderedDict
p0
((lp1
(lp2
S'state'
p3
aI0
aa(lp4
S'distance'
p5
aF33.75897693634033
aa(lp6
S'timestamp'
p7
aF7.32254695892334
aatp8
Rp9
.ccollections
OrderedDict
p0
((lp1
(lp2
S'state'
p3
aI0
aa(lp4
S'distance'
p5
aF33.75897693634033
aa(lp6
S'timestamp'
p7
aF7.331329107284546
aatp8
Rp9
.ccollections
OrderedDict
p0
((lp1
(lp2
S'state'
p3
aI0
aa(lp4
S'distance'
p5
aF33.75897693634033
aa(lp6
S'timestamp'
p7
aF7.332031965255737
aatp8
Rp9
.ccollections
OrderedDict
p0
((lp1
(lp2
S'state'
p3
aI0
aa(lp4
S'distance'
p5
aF33.75897693634033
aa(lp6
S'timestamp'
p7
aF7.341200113296509
aatp8
Rp9
.ccollections
OrderedDict
p0
((lp1
(lp2
S'state'
p3
aI0
aa(lp4
S'distance'
p5
aF33.75897693634033
aa(lp6
S'timestamp'
p7
aF7.342571973800659
aatp8
Rp9
.ccollections
OrderedDict
p0
((lp1
(lp2
S'state'
p3
aI0
aa(lp4
S'distance'
p5
aF33.75897693634033
aa(lp6
S'timestamp'
p7
aF7.3511810302734375
aatp8
Rp9
.ccollections
OrderedDict
p0
((lp1
(lp2
S'state'
p3
aI0
aa(lp4
S'distance'
p5
aF33.75897693634033
aa(lp6
S'timestamp'
p7
aF7.352427959442139
aatp8
Rp9
.ccollections
OrderedDict
p0
((lp1
(lp2
S'state'
p3
aI0
aa(lp4
S'distance'
p5
aF33.75897693634033
aa(lp6
S'timestamp'
p7
aF7.36188006401062
aatp8
Rp9
.ccollections
OrderedDict
p0
((lp1
(lp2
S'state'
p3
aI0
aa(lp4
S'distance'
p5
aF33.75897693634033
aa(lp6
S'timestamp'
p7
aF7.3620569705963135
aatp8
Rp9
.ccollections
OrderedDict
p0
((lp1
(lp2
S'state'
p3
aI0
aa(lp4
S'distance'
p5
aF33.75897693634033
aa(lp6
S'timestamp'
p7
aF7.371340036392212
aatp8
Rp9
.ccollections
OrderedDict
p0
((lp1
(lp2
S'state'
p3
aI0
aa(lp4
S'distance'
p5
aF33.75897693634033
aa(lp6
S'timestamp'
p7
aF7.372028112411499
aatp8
Rp9
.ccollections
OrderedDict
p0
((lp1
(lp2
S'state'
p3
aI0
aa(lp4
S'distance'
p5
aF33.75897693634033
aa(lp6
S'timestamp'
p7
aF7.381209135055542
aatp8
Rp9
.ccollections
OrderedDict
p0
((lp1
(lp2
S'state'
p3
aI0
aa(lp4
S'distance'
p5
aF33.75897693634033
aa(lp6
S'timestamp'
p7
aF7.38261604309082
aatp8
Rp9
.ccollections
OrderedDict
p0
((lp1
(lp2
S'state'
p3
aI0
aa(lp4
S'distance'
p5
aF33.75897693634033
aa(lp6
S'timestamp'
p7
aF7.39118504524231
aatp8
Rp9
.ccollections
OrderedDict
p0
((lp1
(lp2
S'state'
p3
aI0
aa(lp4
S'distance'
p5
aF33.75897693634033
aa(lp6
S'timestamp'
p7
aF7.3920581340789795
aatp8
Rp9
.ccollections
OrderedDict
p0
((lp1
(lp2
S'state'
p3
aI0
aa(lp4
S'distance'
p5
aF33.75897693634033
aa(lp6
S'timestamp'
p7
aF7.401169061660767
aatp8
Rp9
.ccollections
OrderedDict
p0
((lp1
(lp2
S'state'
p3
aI0
aa(lp4
S'distance'
p5
aF33.75897693634033
aa(lp6
S'timestamp'
p7
aF7.402801990509033
aatp8
Rp9
.ccollections
OrderedDict
p0
((lp1
(lp2
S'state'
p3
aI0
aa(lp4
S'distance'
p5
aF33.75897693634033
aa(lp6
S'timestamp'
p7
aF7.411677122116089
aatp8
Rp9
.ccollections
OrderedDict
p0
((lp1
(lp2
S'state'
p3
aI0
aa(lp4
S'distance'
p5
aF33.75897693634033
aa(lp6
S'timestamp'
p7
aF7.411922931671143
aatp8
Rp9
.ccollections
OrderedDict
p0
((lp1
(lp2
S'state'
p3
aI0
aa(lp4
S'distance'
p5
aF33.75897693634033
aa(lp6
S'timestamp'
p7
aF7.421705961227417
aatp8
Rp9
.ccollections
OrderedDict
p0
((lp1
(lp2
S'state'
p3
aI0
aa(lp4
S'distance'
p5
aF33.75897693634033
aa(lp6
S'timestamp'
p7
aF7.42193603515625
aatp8
Rp9
.ccollections
OrderedDict
p0
((lp1
(lp2
S'state'
p3
aI0
aa(lp4
S'distance'
p5
aF33.75897693634033
aa(lp6
S'timestamp'
p7
aF7.4312310218811035
aatp8
Rp9
.ccollections
OrderedDict
p0
((lp1
(lp2
S'state'
p3
aI0
aa(lp4
S'distance'
p5
aF33.75897693634033
aa(lp6
S'timestamp'
p7
aF7.432031154632568
aatp8
Rp9
.ccollections
OrderedDict
p0
((lp1
(lp2
S'state'
p3
aI0
aa(lp4
S'distance'
p5
aF33.75897693634033
aa(lp6
S'timestamp'
p7
aF7.441220998764038
aatp8
Rp9
.ccollections
OrderedDict
p0
((lp1
(lp2
S'state'
p3
aI0
aa(lp4
S'distance'
p5
aF33.75897693634033
aa(lp6
S'timestamp'
p7
aF7.442032098770142
aatp8
Rp9
.ccollections
OrderedDict
p0
((lp1
(lp2
S'state'
p3
aI0
aa(lp4
S'distance'
p5
aF33.75897693634033
aa(lp6
S'timestamp'
p7
aF7.451374053955078
aatp8
Rp9
.ccollections
OrderedDict
p0
((lp1
(lp2
S'state'
p3
aI0
aa(lp4
S'distance'
p5
aF33.75897693634033
aa(lp6
S'timestamp'
p7
aF7.45231294631958
aatp8
Rp9
.ccollections
OrderedDict
p0
((lp1
(lp2
S'state'
p3
aI0
aa(lp4
S'distance'
p5
aF33.75897693634033
aa(lp6
S'timestamp'
p7
aF7.461699962615967
aatp8
Rp9
.ccollections
OrderedDict
p0
((lp1
(lp2
S'state'
p3
aI0
aa(lp4
S'distance'
p5
aF33.75897693634033
aa(lp6
S'timestamp'
p7
aF7.461935043334961
aatp8
Rp9
.ccollections
OrderedDict
p0
((lp1
(lp2
S'state'
p3
aI0
aa(lp4
S'distance'
p5
aF33.75897693634033
aa(lp6
S'timestamp'
p7
aF7.471395969390869
aatp8
Rp9
.ccollections
OrderedDict
p0
((lp1
(lp2
S'state'
p3
aI0
aa(lp4
S'distance'
p5
aF33.75897693634033
aa(lp6
S'timestamp'
p7
aF7.471951961517334
aatp8
Rp9
.ccollections
OrderedDict
p0
((lp1
(lp2
S'state'
p3
aI0
aa(lp4
S'distance'
p5
aF33.75897693634033
aa(lp6
S'timestamp'
p7
aF7.481343984603882
aatp8
Rp9
.ccollections
OrderedDict
p0
((lp1
(lp2
S'state'
p3
aI0
aa(lp4
S'distance'
p5
aF33.75897693634033
aa(lp6
S'timestamp'
p7
aF7.482731103897095
aatp8
Rp9
.ccollections
OrderedDict
p0
((lp1
(lp2
S'state'
p3
aI0
aa(lp4
S'distance'
p5
aF33.75897693634033
aa(lp6
S'timestamp'
p7
aF7.491371154785156
aatp8
Rp9
.ccollections
OrderedDict
p0
((lp1
(lp2
S'state'
p3
aI0
aa(lp4
S'distance'
p5
aF33.75897693634033
aa(lp6
S'timestamp'
p7
aF7.4923529624938965
aatp8
Rp9
.ccollections
OrderedDict
p0
((lp1
(lp2
S'state'
p3
aI0
aa(lp4
S'distance'
p5
aF33.75897693634033
aa(lp6
S'timestamp'
p7
aF7.501765012741089
aatp8
Rp9
.ccollections
OrderedDict
p0
((lp1
(lp2
S'state'
p3
aI0
aa(lp4
S'distance'
p5
aF33.75897693634033
aa(lp6
S'timestamp'
p7
aF7.504333972930908
aatp8
Rp9
.ccollections
OrderedDict
p0
((lp1
(lp2
S'state'
p3
aI0
aa(lp4
S'distance'
p5
aF33.75897693634033
aa(lp6
S'timestamp'
p7
aF7.511407136917114
aatp8
Rp9
.ccollections
OrderedDict
p0
((lp1
(lp2
S'state'
p3
aI0
aa(lp4
S'distance'
p5
aF33.75897693634033
aa(lp6
S'timestamp'
p7
aF7.512027025222778
aatp8
Rp9
.ccollections
OrderedDict
p0
((lp1
(lp2
S'state'
p3
aI0
aa(lp4
S'distance'
p5
aF33.75897693634033
aa(lp6
S'timestamp'
p7
aF7.521942138671875
aatp8
Rp9
.ccollections
OrderedDict
p0
((lp1
(lp2
S'state'
p3
aI0
aa(lp4
S'distance'
p5
aF33.75897693634033
aa(lp6
S'timestamp'
p7
aF7.5221171379089355
aatp8
Rp9
.ccollections
OrderedDict
p0
((lp1
(lp2
S'state'
p3
aI0
aa(lp4
S'distance'
p5
aF33.75897693634033
aa(lp6
S'timestamp'
p7
aF7.531394004821777
aatp8
Rp9
.ccollections
OrderedDict
p0
((lp1
(lp2
S'state'
p3
aI0
aa(lp4
S'distance'
p5
aF33.75897693634033
aa(lp6
S'timestamp'
p7
aF7.532472133636475
aatp8
Rp9
.ccollections
OrderedDict
p0
((lp1
(lp2
S'state'
p3
aI0
aa(lp4
S'distance'
p5
aF33.75897693634033
aa(lp6
S'timestamp'
p7
aF7.541712045669556
aatp8
Rp9
.ccollections
OrderedDict
p0
((lp1
(lp2
S'state'
p3
aI0
aa(lp4
S'distance'
p5
aF33.75897693634033
aa(lp6
S'timestamp'
p7
aF7.541940927505493
aatp8
Rp9
.ccollections
OrderedDict
p0
((lp1
(lp2
S'state'
p3
aI0
aa(lp4
S'distance'
p5
aF33.75897693634033
aa(lp6
S'timestamp'
p7
aF7.552181959152222
aatp8
Rp9
.ccollections
OrderedDict
p0
((lp1
(lp2
S'state'
p3
aI0
aa(lp4
S'distance'
p5
aF33.75897693634033
aa(lp6
S'timestamp'
p7
aF7.552260160446167
aatp8
Rp9
.ccollections
OrderedDict
p0
((lp1
(lp2
S'state'
p3
aI0
aa(lp4
S'distance'
p5
aF33.75897693634033
aa(lp6
S'timestamp'
p7
aF7.561349153518677
aatp8
Rp9
.ccollections
OrderedDict
p0
((lp1
(lp2
S'state'
p3
aI0
aa(lp4
S'distance'
p5
aF33.75897693634033
aa(lp6
S'timestamp'
p7
aF7.562067985534668
aatp8
Rp9
.ccollections
OrderedDict
p0
((lp1
(lp2
S'state'
p3
aI0
aa(lp4
S'distance'
p5
aF33.75897693634033
aa(lp6
S'timestamp'
p7
aF7.571367979049683
aatp8
Rp9
.ccollections
OrderedDict
p0
((lp1
(lp2
S'state'
p3
aI0
aa(lp4
S'distance'
p5
aF33.75897693634033
aa(lp6
S'timestamp'
p7
aF7.57217001914978
aatp8
Rp9
.ccollections
OrderedDict
p0
((lp1
(lp2
S'state'
p3
aI0
aa(lp4
S'distance'
p5
aF33.75897693634033
aa(lp6
S'timestamp'
p7
aF7.581423044204712
aatp8
Rp9
.ccollections
OrderedDict
p0
((lp1
(lp2
S'state'
p3
aI0
aa(lp4
S'distance'
p5
aF33.75897693634033
aa(lp6
S'timestamp'
p7
aF7.582282066345215
aatp8
Rp9
.ccollections
OrderedDict
p0
((lp1
(lp2
S'state'
p3
aI0
aa(lp4
S'distance'
p5
aF33.75897693634033
aa(lp6
S'timestamp'
p7
aF7.591222047805786
aatp8
Rp9
.ccollections
OrderedDict
p0
((lp1
(lp2
S'state'
p3
aI0
aa(lp4
S'distance'
p5
aF33.75897693634033
aa(lp6
S'timestamp'
p7
aF7.592388153076172
aatp8
Rp9
.ccollections
OrderedDict
p0
((lp1
(lp2
S'state'
p3
aI0
aa(lp4
S'distance'
p5
aF33.75897693634033
aa(lp6
S'timestamp'
p7
aF7.601257085800171
aatp8
Rp9
.ccollections
OrderedDict
p0
((lp1
(lp2
S'state'
p3
aI0
aa(lp4
S'distance'
p5
aF33.75897693634033
aa(lp6
S'timestamp'
p7
aF7.60189414024353
aatp8
Rp9
.ccollections
OrderedDict
p0
((lp1
(lp2
S'state'
p3
aI0
aa(lp4
S'distance'
p5
aF33.75897693634033
aa(lp6
S'timestamp'
p7
aF7.611377954483032
aatp8
Rp9
.ccollections
OrderedDict
p0
((lp1
(lp2
S'state'
p3
aI0
aa(lp4
S'distance'
p5
aF33.75897693634033
aa(lp6
S'timestamp'
p7
aF7.612071990966797
aatp8
Rp9
.ccollections
OrderedDict
p0
((lp1
(lp2
S'state'
p3
aI0
aa(lp4
S'distance'
p5
aF33.75897693634033
aa(lp6
S'timestamp'
p7
aF7.621441125869751
aatp8
Rp9
.ccollections
OrderedDict
p0
((lp1
(lp2
S'state'
p3
aI0
aa(lp4
S'distance'
p5
aF33.75897693634033
aa(lp6
S'timestamp'
p7
aF7.622395038604736
aatp8
Rp9
.ccollections
OrderedDict
p0
((lp1
(lp2
S'state'
p3
aI0
aa(lp4
S'distance'
p5
aF33.75897693634033
aa(lp6
S'timestamp'
p7
aF7.632094144821167
aatp8
Rp9
.ccollections
OrderedDict
p0
((lp1
(lp2
S'state'
p3
aI0
aa(lp4
S'distance'
p5
aF33.75897693634033
aa(lp6
S'timestamp'
p7
aF7.632544994354248
aatp8
Rp9
.ccollections
OrderedDict
p0
((lp1
(lp2
S'state'
p3
aI0
aa(lp4
S'distance'
p5
aF33.75897693634033
aa(lp6
S'timestamp'
p7
aF7.641813039779663
aatp8
Rp9
.ccollections
OrderedDict
p0
((lp1
(lp2
S'state'
p3
aI0
aa(lp4
S'distance'
p5
aF33.75897693634033
aa(lp6
S'timestamp'
p7
aF7.642636060714722
aatp8
Rp9
.ccollections
OrderedDict
p0
((lp1
(lp2
S'state'
p3
aI0
aa(lp4
S'distance'
p5
aF33.75897693634033
aa(lp6
S'timestamp'
p7
aF7.651219129562378
aatp8
Rp9
.ccollections
OrderedDict
p0
((lp1
(lp2
S'state'
p3
aI0
aa(lp4
S'distance'
p5
aF33.75897693634033
aa(lp6
S'timestamp'
p7
aF7.652184009552002
aatp8
Rp9
.ccollections
OrderedDict
p0
((lp1
(lp2
S'state'
p3
aI0
aa(lp4
S'distance'
p5
aF33.75897693634033
aa(lp6
S'timestamp'
p7
aF7.661355972290039
aatp8
Rp9
.ccollections
OrderedDict
p0
((lp1
(lp2
S'state'
p3
aI0
aa(lp4
S'distance'
p5
aF33.75897693634033
aa(lp6
S'timestamp'
p7
aF7.671529054641724
aatp8
Rp9
.ccollections
OrderedDict
p0
((lp1
(lp2
S'state'
p3
aI0
aa(lp4
S'distance'
p5
aF33.75897693634033
aa(lp6
S'timestamp'
p7
aF7.671698093414307
aatp8
Rp9
.ccollections
OrderedDict
p0
((lp1
(lp2
S'state'
p3
aI0
aa(lp4
S'distance'
p5
aF33.75897693634033
aa(lp6
S'timestamp'
p7
aF7.672774076461792
aatp8
Rp9
.ccollections
OrderedDict
p0
((lp1
(lp2
S'state'
p3
aI0
aa(lp4
S'distance'
p5
aF33.75897693634033
aa(lp6
S'timestamp'
p7
aF7.681254148483276
aatp8
Rp9
.ccollections
OrderedDict
p0
((lp1
(lp2
S'state'
p3
aI0
aa(lp4
S'distance'
p5
aF33.75897693634033
aa(lp6
S'timestamp'
p7
aF7.682902097702026
aatp8
Rp9
.ccollections
OrderedDict
p0
((lp1
(lp2
S'state'
p3
aI0
aa(lp4
S'distance'
p5
aF33.75897693634033
aa(lp6
S'timestamp'
p7
aF7.6912291049957275
aatp8
Rp9
.ccollections
OrderedDict
p0
((lp1
(lp2
S'state'
p3
aI0
aa(lp4
S'distance'
p5
aF33.75897693634033
aa(lp6
S'timestamp'
p7
aF7.692275047302246
aatp8
Rp9
.ccollections
OrderedDict
p0
((lp1
(lp2
S'state'
p3
aI0
aa(lp4
S'distance'
p5
aF33.75897693634033
aa(lp6
S'timestamp'
p7
aF7.701668977737427
aatp8
Rp9
.ccollections
OrderedDict
p0
((lp1
(lp2
S'state'
p3
aI0
aa(lp4
S'distance'
p5
aF33.75897693634033
aa(lp6
S'timestamp'
p7
aF7.701992988586426
aatp8
Rp9
.ccollections
OrderedDict
p0
((lp1
(lp2
S'state'
p3
aI0
aa(lp4
S'distance'
p5
aF33.75897693634033
aa(lp6
S'timestamp'
p7
aF7.711342096328735
aatp8
Rp9
.ccollections
OrderedDict
p0
((lp1
(lp2
S'state'
p3
aI0
aa(lp4
S'distance'
p5
aF33.75897693634033
aa(lp6
S'timestamp'
p7
aF7.7120349407196045
aatp8
Rp9
.ccollections
OrderedDict
p0
((lp1
(lp2
S'state'
p3
aI0
aa(lp4
S'distance'
p5
aF33.75897693634033
aa(lp6
S'timestamp'
p7
aF7.721267938613892
aatp8
Rp9
.ccollections
OrderedDict
p0
((lp1
(lp2
S'state'
p3
aI0
aa(lp4
S'distance'
p5
aF33.75897693634033
aa(lp6
S'timestamp'
p7
aF7.722615003585815
aatp8
Rp9
.ccollections
OrderedDict
p0
((lp1
(lp2
S'state'
p3
aI0
aa(lp4
S'distance'
p5
aF33.75897693634033
aa(lp6
S'timestamp'
p7
aF7.731904983520508
aatp8
Rp9
.ccollections
OrderedDict
p0
((lp1
(lp2
S'state'
p3
aI0
aa(lp4
S'distance'
p5
aF33.75897693634033
aa(lp6
S'timestamp'
p7
aF7.732110977172852
aatp8
Rp9
.ccollections
OrderedDict
p0
((lp1
(lp2
S'state'
p3
aI0
aa(lp4
S'distance'
p5
aF33.75897693634033
aa(lp6
S'timestamp'
p7
aF7.741960048675537
aatp8
Rp9
.ccollections
OrderedDict
p0
((lp1
(lp2
S'state'
p3
aI0
aa(lp4
S'distance'
p5
aF33.75897693634033
aa(lp6
S'timestamp'
p7
aF7.742126941680908
aatp8
Rp9
.ccollections
OrderedDict
p0
((lp1
(lp2
S'state'
p3
aI0
aa(lp4
S'distance'
p5
aF33.75897693634033
aa(lp6
S'timestamp'
p7
aF7.751306056976318
aatp8
Rp9
.ccollections
OrderedDict
p0
((lp1
(lp2
S'state'
p3
aI0
aa(lp4
S'distance'
p5
aF33.75897693634033
aa(lp6
S'timestamp'
p7
aF7.761538982391357
aatp8
Rp9
.ccollections
OrderedDict
p0
((lp1
(lp2
S'state'
p3
aI0
aa(lp4
S'distance'
p5
aF33.75897693634033
aa(lp6
S'timestamp'
p7
aF7.76166296005249
aatp8
Rp9
.ccollections
OrderedDict
p0
((lp1
(lp2
S'state'
p3
aI0
aa(lp4
S'distance'
p5
aF33.75897693634033
aa(lp6
S'timestamp'
p7
aF7.763002157211304
aatp8
Rp9
.ccollections
OrderedDict
p0
((lp1
(lp2
S'state'
p3
aI0
aa(lp4
S'distance'
p5
aF33.75897693634033
aa(lp6
S'timestamp'
p7
aF7.771423101425171
aatp8
Rp9
.ccollections
OrderedDict
p0
((lp1
(lp2
S'state'
p3
aI0
aa(lp4
S'distance'
p5
aF33.75897693634033
aa(lp6
S'timestamp'
p7
aF7.771981954574585
aatp8
Rp9
.ccollections
OrderedDict
p0
((lp1
(lp2
S'state'
p3
aI0
aa(lp4
S'distance'
p5
aF33.75897693634033
aa(lp6
S'timestamp'
p7
aF7.781671047210693
aatp8
Rp9
.ccollections
OrderedDict
p0
((lp1
(lp2
S'state'
p3
aI0
aa(lp4
S'distance'
p5
aF33.75897693634033
aa(lp6
S'timestamp'
p7
aF7.781975030899048
aatp8
Rp9
.ccollections
OrderedDict
p0
((lp1
(lp2
S'state'
p3
aI0
aa(lp4
S'distance'
p5
aF33.75897693634033
aa(lp6
S'timestamp'
p7
aF7.791402101516724
aatp8
Rp9
.ccollections
OrderedDict
p0
((lp1
(lp2
S'state'
p3
aI0
aa(lp4
S'distance'
p5
aF33.75897693634033
aa(lp6
S'timestamp'
p7
aF7.792087078094482
aatp8
Rp9
.ccollections
OrderedDict
p0
((lp1
(lp2
S'state'
p3
aI0
aa(lp4
S'distance'
p5
aF33.75897693634033
aa(lp6
S'timestamp'
p7
aF7.801249980926514
aatp8
Rp9
.ccollections
OrderedDict
p0
((lp1
(lp2
S'state'
p3
aI0
aa(lp4
S'distance'
p5
aF33.75897693634033
aa(lp6
S'timestamp'
p7
aF7.802289009094238
aatp8
Rp9
.ccollections
OrderedDict
p0
((lp1
(lp2
S'state'
p3
aI0
aa(lp4
S'distance'
p5
aF33.75897693634033
aa(lp6
S'timestamp'
p7
aF7.8117029666900635
aatp8
Rp9
.ccollections
OrderedDict
p0
((lp1
(lp2
S'state'
p3
aI0
aa(lp4
S'distance'
p5
aF33.75897693634033
aa(lp6
S'timestamp'
p7
aF7.81221604347229
aatp8
Rp9
.ccollections
OrderedDict
p0
((lp1
(lp2
S'state'
p3
aI0
aa(lp4
S'distance'
p5
aF33.75897693634033
aa(lp6
S'timestamp'
p7
aF7.831799030303955
aatp8
Rp9
.ccollections
OrderedDict
p0
((lp1
(lp2
S'state'
p3
aI0
aa(lp4
S'distance'
p5
aF33.75897693634033
aa(lp6
S'timestamp'
p7
aF7.83340311050415
aatp8
Rp9
.ccollections
OrderedDict
p0
((lp1
(lp2
S'state'
p3
aI0
aa(lp4
S'distance'
p5
aF33.75897693634033
aa(lp6
S'timestamp'
p7
aF7.834360122680664
aatp8
Rp9
.ccollections
OrderedDict
p0
((lp1
(lp2
S'state'
p3
aI0
aa(lp4
S'distance'
p5
aF33.75897693634033
aa(lp6
S'timestamp'
p7
aF7.83451509475708
aatp8
Rp9
.ccollections
OrderedDict
p0
((lp1
(lp2
S'state'
p3
aI0
aa(lp4
S'distance'
p5
aF33.75897693634033
aa(lp6
S'timestamp'
p7
aF7.842019081115723
aatp8
Rp9
.ccollections
OrderedDict
p0
((lp1
(lp2
S'state'
p3
aI0
aa(lp4
S'distance'
p5
aF33.75897693634033
aa(lp6
S'timestamp'
p7
aF7.842313051223755
aatp8
Rp9
.ccollections
OrderedDict
p0
((lp1
(lp2
S'state'
p3
aI0
aa(lp4
S'distance'
p5
aF33.75897693634033
aa(lp6
S'timestamp'
p7
aF7.851804971694946
aatp8
Rp9
.ccollections
OrderedDict
p0
((lp1
(lp2
S'state'
p3
aI0
aa(lp4
S'distance'
p5
aF33.75897693634033
aa(lp6
S'timestamp'
p7
aF7.85211706161499
aatp8
Rp9
.ccollections
OrderedDict
p0
((lp1
(lp2
S'state'
p3
aI0
aa(lp4
S'distance'
p5
aF33.75897693634033
aa(lp6
S'timestamp'
p7
aF7.861828088760376
aatp8
Rp9
.ccollections
OrderedDict
p0
((lp1
(lp2
S'state'
p3
aI0
aa(lp4
S'distance'
p5
aF33.75897693634033
aa(lp6
S'timestamp'
p7
aF7.862411975860596
aatp8
Rp9
.ccollections
OrderedDict
p0
((lp1
(lp2
S'state'
p3
aI0
aa(lp4
S'distance'
p5
aF33.75897693634033
aa(lp6
S'timestamp'
p7
aF7.8713531494140625
aatp8
Rp9
.ccollections
OrderedDict
p0
((lp1
(lp2
S'state'
p3
aI0
aa(lp4
S'distance'
p5
aF33.75897693634033
aa(lp6
S'timestamp'
p7
aF7.871925115585327
aatp8
Rp9
.ccollections
OrderedDict
p0
((lp1
(lp2
S'state'
p3
aI0
aa(lp4
S'distance'
p5
aF33.75897693634033
aa(lp6
S'timestamp'
p7
aF7.881263017654419
aatp8
Rp9
.ccollections
OrderedDict
p0
((lp1
(lp2
S'state'
p3
aI0
aa(lp4
S'distance'
p5
aF33.75897693634033
aa(lp6
S'timestamp'
p7
aF7.881870985031128
aatp8
Rp9
.ccollections
OrderedDict
p0
((lp1
(lp2
S'state'
p3
aI0
aa(lp4
S'distance'
p5
aF33.75897693634033
aa(lp6
S'timestamp'
p7
aF7.891229152679443
aatp8
Rp9
.ccollections
OrderedDict
p0
((lp1
(lp2
S'state'
p3
aI0
aa(lp4
S'distance'
p5
aF33.75897693634033
aa(lp6
S'timestamp'
p7
aF7.8928000926971436
aatp8
Rp9
.ccollections
OrderedDict
p0
((lp1
(lp2
S'state'
p3
aI0
aa(lp4
S'distance'
p5
aF33.75897693634033
aa(lp6
S'timestamp'
p7
aF7.901405096054077
aatp8
Rp9
.ccollections
OrderedDict
p0
((lp1
(lp2
S'state'
p3
aI0
aa(lp4
S'distance'
p5
aF33.75897693634033
aa(lp6
S'timestamp'
p7
aF7.902195930480957
aatp8
Rp9
.ccollections
OrderedDict
p0
((lp1
(lp2
S'state'
p3
aI0
aa(lp4
S'distance'
p5
aF33.75897693634033
aa(lp6
S'timestamp'
p7
aF7.911417007446289
aatp8
Rp9
.ccollections
OrderedDict
p0
((lp1
(lp2
S'state'
p3
aI0
aa(lp4
S'distance'
p5
aF33.75897693634033
aa(lp6
S'timestamp'
p7
aF7.911962985992432
aatp8
Rp9
.ccollections
OrderedDict
p0
((lp1
(lp2
S'state'
p3
aI0
aa(lp4
S'distance'
p5
aF33.75897693634033
aa(lp6
S'timestamp'
p7
aF7.921986103057861
aatp8
Rp9
.ccollections
OrderedDict
p0
((lp1
(lp2
S'state'
p3
aI0
aa(lp4
S'distance'
p5
aF33.75897693634033
aa(lp6
S'timestamp'
p7
aF7.922126054763794
aatp8
Rp9
.ccollections
OrderedDict
p0
((lp1
(lp2
S'state'
p3
aI0
aa(lp4
S'distance'
p5
aF33.75897693634033
aa(lp6
S'timestamp'
p7
aF7.931977033615112
aatp8
Rp9
.ccollections
OrderedDict
p0
((lp1
(lp2
S'state'
p3
aI0
aa(lp4
S'distance'
p5
aF33.75897693634033
aa(lp6
S'timestamp'
p7
aF7.9321300983428955
aatp8
Rp9
.ccollections
OrderedDict
p0
((lp1
(lp2
S'state'
p3
aI0
aa(lp4
S'distance'
p5
aF33.75897693634033
aa(lp6
S'timestamp'
p7
aF7.941981077194214
aatp8
Rp9
.ccollections
OrderedDict
p0
((lp1
(lp2
S'state'
p3
aI0
aa(lp4
S'distance'
p5
aF33.75897693634033
aa(lp6
S'timestamp'
p7
aF7.942217111587524
aatp8
Rp9
.ccollections
OrderedDict
p0
((lp1
(lp2
S'state'
p3
aI0
aa(lp4
S'distance'
p5
aF33.75897693634033
aa(lp6
S'timestamp'
p7
aF7.951305150985718
aatp8
Rp9
.ccollections
OrderedDict
p0
((lp1
(lp2
S'state'
p3
aI0
aa(lp4
S'distance'
p5
aF33.75897693634033
aa(lp6
S'timestamp'
p7
aF7.952342987060547
aatp8
Rp9
.ccollections
OrderedDict
p0
((lp1
(lp2
S'state'
p3
aI0
aa(lp4
S'distance'
p5
aF33.75897693634033
aa(lp6
S'timestamp'
p7
aF7.961421012878418
aatp8
Rp9
.ccollections
OrderedDict
p0
((lp1
(lp2
S'state'
p3
aI0
aa(lp4
S'distance'
p5
aF33.75897693634033
aa(lp6
S'timestamp'
p7
aF7.9619140625
aatp8
Rp9
.ccollections
OrderedDict
p0
((lp1
(lp2
S'state'
p3
aI0
aa(lp4
S'distance'
p5
aF33.75897693634033
aa(lp6
S'timestamp'
p7
aF7.971418142318726
aatp8
Rp9
.ccollections
OrderedDict
p0
((lp1
(lp2
S'state'
p3
aI0
aa(lp4
S'distance'
p5
aF33.75897693634033
aa(lp6
S'timestamp'
p7
aF7.9721291065216064
aatp8
Rp9
.ccollections
OrderedDict
p0
((lp1
(lp2
S'state'
p3
aI0
aa(lp4
S'distance'
p5
aF33.75897693634033
aa(lp6
S'timestamp'
p7
aF7.981467008590698
aatp8
Rp9
.ccollections
OrderedDict
p0
((lp1
(lp2
S'state'
p3
aI0
aa(lp4
S'distance'
p5
aF33.75897693634033
aa(lp6
S'timestamp'
p7
aF7.982115983963013
aatp8
Rp9
.ccollections
OrderedDict
p0
((lp1
(lp2
S'state'
p3
aI0
aa(lp4
S'distance'
p5
aF33.75897693634033
aa(lp6
S'timestamp'
p7
aF7.991263151168823
aatp8
Rp9
.ccollections
OrderedDict
p0
((lp1
(lp2
S'state'
p3
aI0
aa(lp4
S'distance'
p5
aF33.75897693634033
aa(lp6
S'timestamp'
p7
aF7.991862058639526
aatp8
Rp9
.ccollections
OrderedDict
p0
((lp1
(lp2
S'state'
p3
aI0
aa(lp4
S'distance'
p5
aF33.75897693634033
aa(lp6
S'timestamp'
p7
aF8.001888036727905
aatp8
Rp9
.ccollections
OrderedDict
p0
((lp1
(lp2
S'state'
p3
aI0
aa(lp4
S'distance'
p5
aF33.75897693634033
aa(lp6
S'timestamp'
p7
aF8.002110004425049
aatp8
Rp9
.