ccollections
OrderedDict
p0
((lp1
(lp2
S'state'
p3
aI0
aa(lp4
S'distance'
p5
aF370.6368179321289
aa(lp6
S'timestamp'
p7
aF0.0012059211730957031
aatp8
Rp9
.ccollections
OrderedDict
p0
((lp1
(lp2
S'state'
p3
aI0
aa(lp4
S'distance'
p5
aF370.6368179321289
aa(lp6
S'timestamp'
p7
aF0.0019690990447998047
aatp8
Rp9
.ccollections
OrderedDict
p0
((lp1
(lp2
S'state'
p3
aI0
aa(lp4
S'distance'
p5
aF370.6368179321289
aa(lp6
S'timestamp'
p7
aF0.011217117309570312
aatp8
Rp9
.ccollections
OrderedDict
p0
((lp1
(lp2
S'state'
p3
aI0
aa(lp4
S'distance'
p5
aF370.6368179321289
aa(lp6
S'timestamp'
p7
aF0.011792898178100586
aatp8
Rp9
.ccollections
OrderedDict
p0
((lp1
(lp2
S'state'
p3
aI0
aa(lp4
S'distance'
p5
aF370.6368179321289
aa(lp6
S'timestamp'
p7
aF0.021718978881835938
aatp8
Rp9
.ccollections
OrderedDict
p0
((lp1
(lp2
S'state'
p3
aI0
aa(lp4
S'distance'
p5
aF370.6368179321289
aa(lp6
S'timestamp'
p7
aF0.02221393585205078
aatp8
Rp9
.ccollections
OrderedDict
p0
((lp1
(lp2
S'state'
p3
aI0
aa(lp4
S'distance'
p5
aF370.6368179321289
aa(lp6
S'timestamp'
p7
aF0.0341029167175293
aatp8
Rp9
.ccollections
OrderedDict
p0
((lp1
(lp2
S'state'
p3
aI0
aa(lp4
S'distance'
p5
aF370.6368179321289
aa(lp6
S'timestamp'
p7
aF0.034193992614746094
aatp8
Rp9
.ccollections
OrderedDict
p0
((lp1
(lp2
S'state'
p3
aI0
aa(lp4
S'distance'
p5
aF370.6368179321289
aa(lp6
S'timestamp'
p7
aF0.04232001304626465
aatp8
Rp9
.ccollections
OrderedDict
p0
((lp1
(lp2
S'state'
p3
aI0
aa(lp4
S'distance'
p5
aF370.6368179321289
aa(lp6
S'timestamp'
p7
aF0.04287910461425781
aatp8
Rp9
.ccollections
OrderedDict
p0
((lp1
(lp2
S'state'
p3
aI0
aa(lp4
S'distance'
p5
aF370.6368179321289
aa(lp6
S'timestamp'
p7
aF0.061131954193115234
aatp8
Rp9
.ccollections
OrderedDict
p0
((lp1
(lp2
S'state'
p3
aI0
aa(lp4
S'distance'
p5
aF370.6368179321289
aa(lp6
S'timestamp'
p7
aF0.0617070198059082
aatp8
Rp9
.ccollections
OrderedDict
p0
((lp1
(lp2
S'state'
p3
aI0
aa(lp4
S'distance'
p5
aF370.6368179321289
aa(lp6
S'timestamp'
p7
aF0.06250905990600586
aatp8
Rp9
.ccollections
OrderedDict
p0
((lp1
(lp2
S'state'
p3
aI0
aa(lp4
S'distance'
p5
aF370.6368179321289
aa(lp6
S'timestamp'
p7
aF0.0625910758972168
aatp8
Rp9
.ccollections
OrderedDict
p0
((lp1
(lp2
S'state'
p3
aI0
aa(lp4
S'distance'
p5
aF370.6368179321289
aa(lp6
S'timestamp'
p7
aF0.08093905448913574
aatp8
Rp9
.ccollections
OrderedDict
p0
((lp1
(lp2
S'state'
p3
aI0
aa(lp4
S'distance'
p5
aF370.6368179321289
aa(lp6
S'timestamp'
p7
aF0.08204007148742676
aatp8
Rp9
.ccollections
OrderedDict
p0
((lp1
(lp2
S'state'
p3
aI0
aa(lp4
S'distance'
p5
aF370.6368179321289
aa(lp6
S'timestamp'
p7
aF0.08211803436279297
aatp8
Rp9
.ccollections
OrderedDict
p0
((lp1
(lp2
S'state'
p3
aI0
aa(lp4
S'distance'
p5
aF370.6368179321289
aa(lp6
S'timestamp'
p7
aF0.0911719799041748
aatp8
Rp9
.ccollections
OrderedDict
p0
((lp1
(lp2
S'state'
p3
aI0
aa(lp4
S'distance'
p5
aF370.6368179321289
aa(lp6
S'timestamp'
p7
aF0.09281802177429199
aatp8
Rp9
.ccollections
OrderedDict
p0
((lp1
(lp2
S'state'
p3
aI0
aa(lp4
S'distance'
p5
aF370.6368179321289
aa(lp6
S'timestamp'
p7
aF0.09289789199829102
aatp8
Rp9
.ccollections
OrderedDict
p0
((lp1
(lp2
S'state'
p3
aI0
aa(lp4
S'distance'
p5
aF370.6368179321289
aa(lp6
S'timestamp'
p7
aF0.1011199951171875
aatp8
Rp9
.ccollections
OrderedDict
p0
((lp1
(lp2
S'state'
p3
aI0
aa(lp4
S'distance'
p5
aF370.6368179321289
aa(lp6
S'timestamp'
p7
aF0.111846923828125
aatp8
Rp9
.ccollections
OrderedDict
p0
((lp1
(lp2
S'state'
p3
aI0
aa(lp4
S'distance'
p5
aF370.6368179321289
aa(lp6
S'timestamp'
p7
aF0.11321592330932617
aatp8
Rp9
.ccollections
OrderedDict
p0
((lp1
(lp2
S'state'
p3
aI0
aa(lp4
S'distance'
p5
aF370.6368179321289
aa(lp6
S'timestamp'
p7
aF0.11345410346984863
aatp8
Rp9
.ccollections
OrderedDict
p0
((lp1
(lp2
S'state'
p3
aI0
aa(lp4
S'distance'
p5
aF370.6368179321289
aa(lp6
S'timestamp'
p7
aF0.12112689018249512
aatp8
Rp9
.ccollections
OrderedDict
p0
((lp1
(lp2
S'state'
p3
aI0
aa(lp4
S'distance'
p5
aF370.6368179321289
aa(lp6
S'timestamp'
p7
aF0.12188911437988281
aatp8
Rp9
.ccollections
OrderedDict
p0
((lp1
(lp2
S'state'
p3
aI0
aa(lp4
S'distance'
p5
aF370.6368179321289
aa(lp6
S'timestamp'
p7
aF0.13122105598449707
aatp8
Rp9
.ccollections
OrderedDict
p0
((lp1
(lp2
S'state'
p3
aI0
aa(lp4
S'distance'
p5
aF370.6368179321289
aa(lp6
S'timestamp'
p7
aF0.13185501098632812
aatp8
Rp9
.ccollections
OrderedDict
p0
((lp1
(lp2
S'state'
p3
aI0
aa(lp4
S'distance'
p5
aF370.6368179321289
aa(lp6
S'timestamp'
p7
aF0.1411149501800537
aatp8
Rp9
.ccollections
OrderedDict
p0
((lp1
(lp2
S'state'
p3
aI0
aa(lp4
S'distance'
p5
aF370.6368179321289
aa(lp6
S'timestamp'
p7
aF0.1423180103302002
aatp8
Rp9
.ccollections
OrderedDict
p0
((lp1
(lp2
S'state'
p3
aI0
aa(lp4
S'distance'
p5
aF370.6368179321289
aa(lp6
S'timestamp'
p7
aF0.1511979103088379
aatp8
Rp9
.ccollections
OrderedDict
p0
((lp1
(lp2
S'state'
p3
aI0
aa(lp4
S'distance'
p5
aF370.6368179321289
aa(lp6
S'timestamp'
p7
aF0.15199804306030273
aatp8
Rp9
.ccollections
OrderedDict
p0
((lp1
(lp2
S'state'
p3
aI0
aa(lp4
S'distance'
p5
aF370.6368179321289
aa(lp6
S'timestamp'
p7
aF0.19103288650512695
aatp8
Rp9
.ccollections
OrderedDict
p0
((lp1
(lp2
S'state'
p3
aI0
aa(lp4
S'distance'
p5
aF370.6368179321289
aa(lp6
S'timestamp'
p7
aF0.1917409896850586
aatp8
Rp9
.ccollections
OrderedDict
p0
((lp1
(lp2
S'state'
p3
aI0
aa(lp4
S'distance'
p5
aF370.6368179321289
aa(lp6
S'timestamp'
p7
aF0.1931149959564209
aatp8
Rp9
.ccollections
OrderedDict
p0
((lp1
(lp2
S'state'
p3
aI0
aa(lp4
S'distance'
p5
aF370.6368179321289
aa(lp6
S'timestamp'
p7
aF0.19406700134277344
aatp8
Rp9
.ccollections
OrderedDict
p0
((lp1
(lp2
S'state'
p3
aI0
aa(lp4
S'distance'
p5
aF370.6368179321289
aa(lp6
S'timestamp'
p7
aF0.2009749412536621
aatp8
Rp9
.ccollections
OrderedDict
p0
((lp1
(lp2
S'state'
p3
aI0
aa(lp4
S'distance'
p5
aF370.6368179321289
aa(lp6
S'timestamp'
p7
aF0.2112259864807129
aatp8
Rp9
.ccollections
OrderedDict
p0
((lp1
(lp2
S'state'
p3
aI0
aa(lp4
S'distance'
p5
aF370.6368179321289
aa(lp6
S'timestamp'
p7
aF0.2113649845123291
aatp8
Rp9
.ccollections
OrderedDict
p0
((lp1
(lp2
S'state'
p3
aI0
aa(lp4
S'distance'
p5
aF370.6368179321289
aa(lp6
S'timestamp'
p7
aF0.2124040126800537
aatp8
Rp9
.ccollections
OrderedDict
p0
((lp1
(lp2
S'state'
p3
aI0
aa(lp4
S'distance'
p5
aF370.6368179321289
aa(lp6
S'timestamp'
p7
aF0.21287298202514648
aatp8
Rp9
.ccollections
OrderedDict
p0
((lp1
(lp2
S'state'
p3
aI0
aa(lp4
S'distance'
p5
aF370.6368179321289
aa(lp6
S'timestamp'
p7
aF0.22123503684997559
aatp8
Rp9
.ccollections
OrderedDict
p0
((lp1
(lp2
S'state'
p3
aI0
aa(lp4
S'distance'
p5
aF370.6368179321289
aa(lp6
S'timestamp'
p7
aF0.2214219570159912
aatp8
Rp9
.ccollections
OrderedDict
p0
((lp1
(lp2
S'state'
p3
aI0
aa(lp4
S'distance'
p5
aF370.6368179321289
aa(lp6
S'timestamp'
p7
aF0.22243499755859375
aatp8
Rp9
.ccollections
OrderedDict
p0
((lp1
(lp2
S'state'
p3
aI0
aa(lp4
S'distance'
p5
aF370.6368179321289
aa(lp6
S'timestamp'
p7
aF0.22384190559387207
aatp8
Rp9
.ccollections
OrderedDict
p0
((lp1
(lp2
S'state'
p3
aI0
aa(lp4
S'distance'
p5
aF370.6368179321289
aa(lp6
S'timestamp'
p7
aF0.25206995010375977
aatp8
Rp9
.ccollections
OrderedDict
p0
((lp1
(lp2
S'state'
p3
aI0
aa(lp4
S'distance'
p5
aF370.6368179321289
aa(lp6
S'timestamp'
p7
aF0.25275111198425293
aatp8
Rp9
.ccollections
OrderedDict
p0
((lp1
(lp2
S'state'
p3
aI0
aa(lp4
S'distance'
p5
aF370.6368179321289
aa(lp6
S'timestamp'
p7
aF0.2541530132293701
aatp8
Rp9
.ccollections
OrderedDict
p0
((lp1
(lp2
S'state'
p3
aI0
aa(lp4
S'distance'
p5
aF370.6368179321289
aa(lp6
S'timestamp'
p7
aF0.2546389102935791
aatp8
Rp9
.ccollections
OrderedDict
p0
((lp1
(lp2
S'state'
p3
aI0
aa(lp4
S'distance'
p5
aF370.6368179321289
aa(lp6
S'timestamp'
p7
aF0.2711920738220215
aatp8
Rp9
.ccollections
OrderedDict
p0
((lp1
(lp2
S'state'
p3
aI0
aa(lp4
S'distance'
p5
aF370.6368179321289
aa(lp6
S'timestamp'
p7
aF0.2716960906982422
aatp8
Rp9
.ccollections
OrderedDict
p0
((lp1
(lp2
S'state'
p3
aI0
aa(lp4
S'distance'
p5
aF370.6368179321289
aa(lp6
S'timestamp'
p7
aF0.2727088928222656
aatp8
Rp9
.ccollections
OrderedDict
p0
((lp1
(lp2
S'state'
p3
aI0
aa(lp4
S'distance'
p5
aF370.6368179321289
aa(lp6
S'timestamp'
p7
aF0.27327489852905273
aatp8
Rp9
.ccollections
OrderedDict
p0
((lp1
(lp2
S'state'
p3
aI0
aa(lp4
S'distance'
p5
aF370.6368179321289
aa(lp6
S'timestamp'
p7
aF0.281235933303833
aatp8
Rp9
.ccollections
OrderedDict
p0
((lp1
(lp2
S'state'
p3
aI0
aa(lp4
S'distance'
p5
aF370.6368179321289
aa(lp6
S'timestamp'
p7
aF0.2813870906829834
aatp8
Rp9
.ccollections
OrderedDict
p0
((lp1
(lp2
S'state'
p3
aI0
aa(lp4
S'distance'
p5
aF370.6368179321289
aa(lp6
S'timestamp'
p7
aF0.2821938991546631
aatp8
Rp9
.ccollections
OrderedDict
p0
((lp1
(lp2
S'state'
p3
aI0
aa(lp4
S'distance'
p5
aF370.6368179321289
aa(lp6
S'timestamp'
p7
aF0.2912580966949463
aatp8
Rp9
.ccollections
OrderedDict
p0
((lp1
(lp2
S'state'
p3
aI0
aa(lp4
S'distance'
p5
aF370.6368179321289
aa(lp6
S'timestamp'
p7
aF0.29153990745544434
aatp8
Rp9
.ccollections
OrderedDict
p0
((lp1
(lp2
S'state'
p3
aI0
aa(lp4
S'distance'
p5
aF370.6368179321289
aa(lp6
S'timestamp'
p7
aF0.29257988929748535
aatp8
Rp9
.ccollections
OrderedDict
p0
((lp1
(lp2
S'state'
p3
aI0
aa(lp4
S'distance'
p5
aF370.6368179321289
aa(lp6
S'timestamp'
p7
aF0.2927238941192627
aatp8
Rp9
.ccollections
OrderedDict
p0
((lp1
(lp2
S'state'
p3
aI0
aa(lp4
S'distance'
p5
aF370.6368179321289
aa(lp6
S'timestamp'
p7
aF0.3011319637298584
aatp8
Rp9
.ccollections
OrderedDict
p0
((lp1
(lp2
S'state'
p3
aI0
aa(lp4
S'distance'
p5
aF370.6368179321289
aa(lp6
S'timestamp'
p7
aF0.301861047744751
aatp8
Rp9
.ccollections
OrderedDict
p0
((lp1
(lp2
S'state'
p3
aI0
aa(lp4
S'distance'
p5
aF370.6368179321289
aa(lp6
S'timestamp'
p7
aF0.3213040828704834
aatp8
Rp9
.ccollections
OrderedDict
p0
((lp1
(lp2
S'state'
p3
aI0
aa(lp4
S'distance'
p5
aF370.6368179321289
aa(lp6
S'timestamp'
p7
aF0.3220639228820801
aatp8
Rp9
.ccollections
OrderedDict
p0
((lp1
(lp2
S'state'
p3
aI0
aa(lp4
S'distance'
p5
aF370.6368179321289
aa(lp6
S'timestamp'
p7
aF0.32242608070373535
aatp8
Rp9
.ccollections
OrderedDict
p0
((lp1
(lp2
S'state'
p3
aI0
aa(lp4
S'distance'
p5
aF370.6368179321289
aa(lp6
S'timestamp'
p7
aF0.3233671188354492
aatp8
Rp9
.ccollections
OrderedDict
p0
((lp1
(lp2
S'state'
p3
aI0
aa(lp4
S'distance'
p5
aF370.6368179321289
aa(lp6
S'timestamp'
p7
aF0.3610091209411621
aatp8
Rp9
.ccollections
OrderedDict
p0
((lp1
(lp2
S'state'
p3
aI0
aa(lp4
S'distance'
p5
aF370.6368179321289
aa(lp6
S'timestamp'
p7
aF0.3620920181274414
aatp8
Rp9
.ccollections
OrderedDict
p0
((lp1
(lp2
S'state'
p3
aI0
aa(lp4
S'distance'
p5
aF370.6368179321289
aa(lp6
S'timestamp'
p7
aF0.3622279167175293
aatp8
Rp9
.ccollections
OrderedDict
p0
((lp1
(lp2
S'state'
p3
aI0
aa(lp4
S'distance'
p5
aF370.6368179321289
aa(lp6
S'timestamp'
p7
aF0.3623011112213135
aatp8
Rp9
.ccollections
OrderedDict
p0
((lp1
(lp2
S'state'
p3
aI0
aa(lp4
S'distance'
p5
aF370.6368179321289
aa(lp6
S'timestamp'
p7
aF0.3811318874359131
aatp8
Rp9
.ccollections
OrderedDict
p0
((lp1
(lp2
S'state'
p3
aI0
aa(lp4
S'distance'
p5
aF370.6368179321289
aa(lp6
S'timestamp'
p7
aF0.38184404373168945
aatp8
Rp9
.ccollections
OrderedDict
p0
((lp1
(lp2
S'state'
p3
aI0
aa(lp4
S'distance'
p5
aF370.6368179321289
aa(lp6
S'timestamp'
p7
aF0.3819859027862549
aatp8
Rp9
.ccollections
OrderedDict
p0
((lp1
(lp2
S'state'
p3
aI0
aa(lp4
S'distance'
p5
aF370.6368179321289
aa(lp6
S'timestamp'
p7
aF0.384382963180542
aatp8
Rp9
.ccollections
OrderedDict
p0
((lp1
(lp2
S'state'
p3
aI0
aa(lp4
S'distance'
p5
aF370.6368179321289
aa(lp6
S'timestamp'
p7
aF0.3910861015319824
aatp8
Rp9
.ccollections
OrderedDict
p0
((lp1
(lp2
S'state'
p3
aI0
aa(lp4
S'distance'
p5
aF370.6368179321289
aa(lp6
S'timestamp'
p7
aF0.39282703399658203
aatp8
Rp9
.ccollections
OrderedDict
p0
((lp1
(lp2
S'state'
p3
aI0
aa(lp4
S'distance'
p5
aF370.6368179321289
aa(lp6
S'timestamp'
p7
aF0.3937699794769287
aatp8
Rp9
.ccollections
OrderedDict
p0
((lp1
(lp2
S'state'
p3
aI0
aa(lp4
S'distance'
p5
aF370.6368179321289
aa(lp6
S'timestamp'
p7
aF0.3947479724884033
aatp8
Rp9
.ccollections
OrderedDict
p0
((lp1
(lp2
S'state'
p3
aI0
aa(lp4
S'distance'
p5
aF370.6368179321289
aa(lp6
S'timestamp'
p7
aF0.4010789394378662
aatp8
Rp9
.ccollections
OrderedDict
p0
((lp1
(lp2
S'state'
p3
aI0
aa(lp4
S'distance'
p5
aF370.6368179321289
aa(lp6
S'timestamp'
p7
aF0.40212392807006836
aatp8
Rp9
.ccollections
OrderedDict
p0
((lp1
(lp2
S'state'
p3
aI0
aa(lp4
S'distance'
p5
aF370.6368179321289
aa(lp6
S'timestamp'
p7
aF0.403609037399292
aatp8
Rp9
.ccollections
OrderedDict
p0
((lp1
(lp2
S'state'
p3
aI0
aa(lp4
S'distance'
p5
aF370.6368179321289
aa(lp6
S'timestamp'
p7
aF0.40389299392700195
aatp8
Rp9
.ccollections
OrderedDict
p0
((lp1
(lp2
S'state'
p3
aI0
aa(lp4
S'distance'
p5
aF370.6368179321289
aa(lp6
S'timestamp'
p7
aF0.41140294075012207
aatp8
Rp9
.ccollections
OrderedDict
p0
((lp1
(lp2
S'state'
p3
aI0
aa(lp4
S'distance'
p5
aF370.6368179321289
aa(lp6
S'timestamp'
p7
aF0.411923885345459
aatp8
Rp9
.ccollections
OrderedDict
p0
((lp1
(lp2
S'state'
p3
aI0
aa(lp4
S'distance'
p5
aF370.6368179321289
aa(lp6
S'timestamp'
p7
aF0.4221971035003662
aatp8
Rp9
.ccollections
OrderedDict
p0
((lp1
(lp2
S'state'
p3
aI0
aa(lp4
S'distance'
p5
aF370.6368179321289
aa(lp6
S'timestamp'
p7
aF0.42234206199645996
aatp8
Rp9
.ccollections
OrderedDict
p0
((lp1
(lp2
S'state'
p3
aI0
aa(lp4
S'distance'
p5
aF370.6368179321289
aa(lp6
S'timestamp'
p7
aF0.4311940670013428
aatp8
Rp9
.ccollections
OrderedDict
p0
((lp1
(lp2
S'state'
p3
aI0
aa(lp4
S'distance'
p5
aF370.6368179321289
aa(lp6
S'timestamp'
p7
aF0.4336740970611572
aatp8
Rp9
.ccollections
OrderedDict
p0
((lp1
(lp2
S'state'
p3
aI0
aa(lp4
S'distance'
p5
aF370.6368179321289
aa(lp6
S'timestamp'
p7
aF0.44160008430480957
aatp8
Rp9
.ccollections
OrderedDict
p0
((lp1
(lp2
S'state'
p3
aI0
aa(lp4
S'distance'
p5
aF370.6368179321289
aa(lp6
S'timestamp'
p7
aF0.45126891136169434
aatp8
Rp9
.ccollections
OrderedDict
p0
((lp1
(lp2
S'state'
p3
aI0
aa(lp4
S'distance'
p5
aF370.6368179321289
aa(lp6
S'timestamp'
p7
aF0.4515950679779053
aatp8
Rp9
.ccollections
OrderedDict
p0
((lp1
(lp2
S'state'
p3
aI0
aa(lp4
S'distance'
p5
aF370.6368179321289
aa(lp6
S'timestamp'
p7
aF0.45220398902893066
aatp8
Rp9
.ccollections
OrderedDict
p0
((lp1
(lp2
S'state'
p3
aI0
aa(lp4
S'distance'
p5
aF370.6368179321289
aa(lp6
S'timestamp'
p7
aF0.47217607498168945
aatp8
Rp9
.ccollections
OrderedDict
p0
((lp1
(lp2
S'state'
p3
aI0
aa(lp4
S'distance'
p5
aF370.6368179321289
aa(lp6
S'timestamp'
p7
aF0.47237300872802734
aatp8
Rp9
.ccollections
OrderedDict
p0
((lp1
(lp2
S'state'
p3
aI0
aa(lp4
S'distance'
p5
aF370.6368179321289
aa(lp6
S'timestamp'
p7
aF0.4725809097290039
aatp8
Rp9
.ccollections
OrderedDict
p0
((lp1
(lp2
S'state'
p3
aI0
aa(lp4
S'distance'
p5
aF370.6368179321289
aa(lp6
S'timestamp'
p7
aF0.47279906272888184
aatp8
Rp9
.ccollections
OrderedDict
p0
((lp1
(lp2
S'state'
p3
aI0
aa(lp4
S'distance'
p5
aF370.6368179321289
aa(lp6
S'timestamp'
p7
aF0.5008668899536133
aatp8
Rp9
.ccollections
OrderedDict
p0
((lp1
(lp2
S'state'
p3
aI0
aa(lp4
S'distance'
p5
aF370.6368179321289
aa(lp6
S'timestamp'
p7
aF0.5017650127410889
aatp8
Rp9
.ccollections
OrderedDict
p0
((lp1
(lp2
S'state'
p3
aI0
aa(lp4
S'distance'
p5
aF370.6368179321289
aa(lp6
S'timestamp'
p7
aF0.501845121383667
aatp8
Rp9
.ccollections
OrderedDict
p0
((lp1
(lp2
S'state'
p3
aI0
aa(lp4
S'distance'
p5
aF370.6368179321289
aa(lp6
S'timestamp'
p7
aF0.5025649070739746
aatp8
Rp9
.ccollections
OrderedDict
p0
((lp1
(lp2
S'state'
p3
aI0
aa(lp4
S'distance'
p5
aF370.6368179321289
aa(lp6
S'timestamp'
p7
aF0.5110950469970703
aatp8
Rp9
.ccollections
OrderedDict
p0
((lp1
(lp2
S'state'
p3
aI0
aa(lp4
S'distance'
p5
aF370.6368179321289
aa(lp6
S'timestamp'
p7
aF0.5114889144897461
aatp8
Rp9
.ccollections
OrderedDict
p0
((lp1
(lp2
S'state'
p3
aI0
aa(lp4
S'distance'
p5
aF370.6368179321289
aa(lp6
S'timestamp'
p7
aF0.5129671096801758
aatp8
Rp9
.ccollections
OrderedDict
p0
((lp1
(lp2
S'state'
p3
aI0
aa(lp4
S'distance'
p5
aF370.6368179321289
aa(lp6
S'timestamp'
p7
aF0.5137228965759277
aatp8
Rp9
.ccollections
OrderedDict
p0
((lp1
(lp2
S'state'
p3
aI0
aa(lp4
S'distance'
p5
aF370.6368179321289
aa(lp6
S'timestamp'
p7
aF0.5217249393463135
aatp8
Rp9
.ccollections
OrderedDict
p0
((lp1
(lp2
S'state'
p3
aI0
aa(lp4
S'distance'
p5
aF370.6368179321289
aa(lp6
S'timestamp'
p7
aF0.5218069553375244
aatp8
Rp9
.ccollections
OrderedDict
p0
((lp1
(lp2
S'state'
p3
aI0
aa(lp4
S'distance'
p5
aF370.6368179321289
aa(lp6
S'timestamp'
p7
aF0.5710680484771729
aatp8
Rp9
.ccollections
OrderedDict
p0
((lp1
(lp2
S'state'
p3
aI0
aa(lp4
S'distance'
p5
aF370.6368179321289
aa(lp6
S'timestamp'
p7
aF0.5713748931884766
aatp8
Rp9
.ccollections
OrderedDict
p0
((lp1
(lp2
S'state'
p3
aI0
aa(lp4
S'distance'
p5
aF370.6368179321289
aa(lp6
S'timestamp'
p7
aF0.5732688903808594
aatp8
Rp9
.ccollections
OrderedDict
p0
((lp1
(lp2
S'state'
p3
aI0
aa(lp4
S'distance'
p5
aF370.6368179321289
aa(lp6
S'timestamp'
p7
aF0.5738570690155029
aatp8
Rp9
.ccollections
OrderedDict
p0
((lp1
(lp2
S'state'
p3
aI0
aa(lp4
S'distance'
p5
aF370.6368179321289
aa(lp6
S'timestamp'
p7
aF0.5812211036682129
aatp8
Rp9
.ccollections
OrderedDict
p0
((lp1
(lp2
S'state'
p3
aI0
aa(lp4
S'distance'
p5
aF370.6368179321289
aa(lp6
S'timestamp'
p7
aF0.5819799900054932
aatp8
Rp9
.ccollections
OrderedDict
p0
((lp1
(lp2
S'state'
p3
aI0
aa(lp4
S'distance'
p5
aF370.6368179321289
aa(lp6
S'timestamp'
p7
aF0.5820860862731934
aatp8
Rp9
.ccollections
OrderedDict
p0
((lp1
(lp2
S'state'
p3
aI0
aa(lp4
S'distance'
p5
aF370.6368179321289
aa(lp6
S'timestamp'
p7
aF0.582690954208374
aatp8
Rp9
.ccollections
OrderedDict
p0
((lp1
(lp2
S'state'
p3
aI0
aa(lp4
S'distance'
p5
aF370.6368179321289
aa(lp6
S'timestamp'
p7
aF0.592055082321167
aatp8
Rp9
.ccollections
OrderedDict
p0
((lp1
(lp2
S'state'
p3
aI0
aa(lp4
S'distance'
p5
aF370.6368179321289
aa(lp6
S'timestamp'
p7
aF0.5922670364379883
aatp8
Rp9
.ccollections
OrderedDict
p0
((lp1
(lp2
S'state'
p3
aI0
aa(lp4
S'distance'
p5
aF370.6368179321289
aa(lp6
S'timestamp'
p7
aF0.5923399925231934
aatp8
Rp9
.ccollections
OrderedDict
p0
((lp1
(lp2
S'state'
p3
aI0
aa(lp4
S'distance'
p5
aF370.6368179321289
aa(lp6
S'timestamp'
p7
aF0.5924079418182373
aatp8
Rp9
.ccollections
OrderedDict
p0
((lp1
(lp2
S'state'
p3
aI0
aa(lp4
S'distance'
p5
aF370.6368179321289
aa(lp6
S'timestamp'
p7
aF0.6117920875549316
aatp8
Rp9
.ccollections
OrderedDict
p0
((lp1
(lp2
S'state'
p3
aI0
aa(lp4
S'distance'
p5
aF370.6368179321289
aa(lp6
S'timestamp'
p7
aF0.6120669841766357
aatp8
Rp9
.ccollections
OrderedDict
p0
((lp1
(lp2
S'state'
p3
aI0
aa(lp4
S'distance'
p5
aF370.6368179321289
aa(lp6
S'timestamp'
p7
aF0.6133790016174316
aatp8
Rp9
.ccollections
OrderedDict
p0
((lp1
(lp2
S'state'
p3
aI0
aa(lp4
S'distance'
p5
aF370.6368179321289
aa(lp6
S'timestamp'
p7
aF0.6142609119415283
aatp8
Rp9
.ccollections
OrderedDict
p0
((lp1
(lp2
S'state'
p3
aI0
aa(lp4
S'distance'
p5
aF370.6368179321289
aa(lp6
S'timestamp'
p7
aF0.6321489810943604
aatp8
Rp9
.ccollections
OrderedDict
p0
((lp1
(lp2
S'state'
p3
aI0
aa(lp4
S'distance'
p5
aF370.6368179321289
aa(lp6
S'timestamp'
p7
aF0.6329400539398193
aatp8
Rp9
.ccollections
OrderedDict
p0
((lp1
(lp2
S'state'
p3
aI0
aa(lp4
S'distance'
p5
aF370.6368179321289
aa(lp6
S'timestamp'
p7
aF0.6332409381866455
aatp8
Rp9
.ccollections
OrderedDict
p0
((lp1
(lp2
S'state'
p3
aI0
aa(lp4
S'distance'
p5
aF370.6368179321289
aa(lp6
S'timestamp'
p7
aF0.633918046951294
aatp8
Rp9
.ccollections
OrderedDict
p0
((lp1
(lp2
S'state'
p3
aI0
aa(lp4
S'distance'
p5
aF370.6368179321289
aa(lp6
S'timestamp'
p7
aF0.6410610675811768
aatp8
Rp9
.ccollections
OrderedDict
p0
((lp1
(lp2
S'state'
p3
aI0
aa(lp4
S'distance'
p5
aF370.6368179321289
aa(lp6
S'timestamp'
p7
aF0.6413040161132812
aatp8
Rp9
.ccollections
OrderedDict
p0
((lp1
(lp2
S'state'
p3
aI0
aa(lp4
S'distance'
p5
aF370.6368179321289
aa(lp6
S'timestamp'
p7
aF0.6421849727630615
aatp8
Rp9
.ccollections
OrderedDict
p0
((lp1
(lp2
S'state'
p3
aI0
aa(lp4
S'distance'
p5
aF370.6368179321289
aa(lp6
S'timestamp'
p7
aF0.6422619819641113
aatp8
Rp9
.ccollections
OrderedDict
p0
((lp1
(lp2
S'state'
p3
aI0
aa(lp4
S'distance'
p5
aF370.6368179321289
aa(lp6
S'timestamp'
p7
aF0.6510720252990723
aatp8
Rp9
.ccollections
OrderedDict
p0
((lp1
(lp2
S'state'
p3
aI0
aa(lp4
S'distance'
p5
aF370.6368179321289
aa(lp6
S'timestamp'
p7
aF0.6519320011138916
aatp8
Rp9
.ccollections
OrderedDict
p0
((lp1
(lp2
S'state'
p3
aI0
aa(lp4
S'distance'
p5
aF370.6368179321289
aa(lp6
S'timestamp'
p7
aF0.661592960357666
aatp8
Rp9
.ccollections
OrderedDict
p0
((lp1
(lp2
S'state'
p3
aI0
aa(lp4
S'distance'
p5
aF370.6368179321289
aa(lp6
S'timestamp'
p7
aF0.6616730690002441
aatp8
Rp9
.ccollections
OrderedDict
p0
((lp1
(lp2
S'state'
p3
aI0
aa(lp4
S'distance'
p5
aF370.6368179321289
aa(lp6
S'timestamp'
p7
aF0.6713480949401855
aatp8
Rp9
.ccollections
OrderedDict
p0
((lp1
(lp2
S'state'
p3
aI0
aa(lp4
S'distance'
p5
aF370.6368179321289
aa(lp6
S'timestamp'
p7
aF0.6714680194854736
aatp8
Rp9
.ccollections
OrderedDict
p0
((lp1
(lp2
S'state'
p3
aI0
aa(lp4
S'distance'
p5
aF370.6368179321289
aa(lp6
S'timestamp'
p7
aF0.6913330554962158
aatp8
Rp9
.ccollections
OrderedDict
p0
((lp1
(lp2
S'state'
p3
aI0
aa(lp4
S'distance'
p5
aF370.6368179321289
aa(lp6
S'timestamp'
p7
aF0.6916790008544922
aatp8
Rp9
.ccollections
OrderedDict
p0
((lp1
(lp2
S'state'
p3
aI0
aa(lp4
S'distance'
p5
aF370.6368179321289
aa(lp6
S'timestamp'
p7
aF0.6922810077667236
aatp8
Rp9
.ccollections
OrderedDict
p0
((lp1
(lp2
S'state'
p3
aI0
aa(lp4
S'distance'
p5
aF370.6368179321289
aa(lp6
S'timestamp'
p7
aF0.6932449340820312
aatp8
Rp9
.ccollections
OrderedDict
p0
((lp1
(lp2
S'state'
p3
aI0
aa(lp4
S'distance'
p5
aF370.6368179321289
aa(lp6
S'timestamp'
p7
aF0.70100998878479
aatp8
Rp9
.ccollections
OrderedDict
p0
((lp1
(lp2
S'state'
p3
aI0
aa(lp4
S'distance'
p5
aF370.6368179321289
aa(lp6
S'timestamp'
p7
aF0.7018599510192871
aatp8
Rp9
.ccollections
OrderedDict
p0
((lp1
(lp2
S'state'
p3
aI0
aa(lp4
S'distance'
p5
aF370.6368179321289
aa(lp6
S'timestamp'
p7
aF0.7216949462890625
aatp8
Rp9
.ccollections
OrderedDict
p0
((lp1
(lp2
S'state'
p3
aI0
aa(lp4
S'distance'
p5
aF370.6368179321289
aa(lp6
S'timestamp'
p7
aF0.7227680683135986
aatp8
Rp9
.ccollections
OrderedDict
p0
((lp1
(lp2
S'state'
p3
aI0
aa(lp4
S'distance'
p5
aF370.6368179321289
aa(lp6
S'timestamp'
p7
aF0.722912073135376
aatp8
Rp9
.ccollections
OrderedDict
p0
((lp1
(lp2
S'state'
p3
aI0
aa(lp4
S'distance'
p5
aF370.6368179321289
aa(lp6
S'timestamp'
p7
aF0.7239189147949219
aatp8
Rp9
.ccollections
OrderedDict
p0
((lp1
(lp2
S'state'
p3
aI0
aa(lp4
S'distance'
p5
aF370.6368179321289
aa(lp6
S'timestamp'
p7
aF0.7310340404510498
aatp8
Rp9
.ccollections
OrderedDict
p0
((lp1
(lp2
S'state'
p3
aI0
aa(lp4
S'distance'
p5
aF370.6368179321289
aa(lp6
S'timestamp'
p7
aF0.7316710948944092
aatp8
Rp9
.ccollections
OrderedDict
p0
((lp1
(lp2
S'state'
p3
aI0
aa(lp4
S'distance'
p5
aF370.6368179321289
aa(lp6
S'timestamp'
p7
aF0.7409970760345459
aatp8
Rp9
.ccollections
OrderedDict
p0
((lp1
(lp2
S'state'
p3
aI0
aa(lp4
S'distance'
p5
aF370.6368179321289
aa(lp6
S'timestamp'
p7
aF0.7419641017913818
aatp8
Rp9
.ccollections
OrderedDict
p0
((lp1
(lp2
S'state'
p3
aI0
aa(lp4
S'distance'
p5
aF370.6368179321289
aa(lp6
S'timestamp'
p7
aF0.7517039775848389
aatp8
Rp9
.ccollections
OrderedDict
p0
((lp1
(lp2
S'state'
p3
aI0
aa(lp4
S'distance'
p5
aF370.6368179321289
aa(lp6
S'timestamp'
p7
aF0.7523329257965088
aatp8
Rp9
.ccollections
OrderedDict
p0
((lp1
(lp2
S'state'
p3
aI0
aa(lp4
S'distance'
p5
aF370.6368179321289
aa(lp6
S'timestamp'
p7
aF0.7717039585113525
aatp8
Rp9
.ccollections
OrderedDict
p0
((lp1
(lp2
S'state'
p3
aI0
aa(lp4
S'distance'
p5
aF370.6368179321289
aa(lp6
S'timestamp'
p7
aF0.7722599506378174
aatp8
Rp9
.ccollections
OrderedDict
p0
((lp1
(lp2
S'state'
p3
aI0
aa(lp4
S'distance'
p5
aF370.6368179321289
aa(lp6
S'timestamp'
p7
aF0.7723369598388672
aatp8
Rp9
.ccollections
OrderedDict
p0
((lp1
(lp2
S'state'
p3
aI0
aa(lp4
S'distance'
p5
aF370.6368179321289
aa(lp6
S'timestamp'
p7
aF0.7724709510803223
aatp8
Rp9
.ccollections
OrderedDict
p0
((lp1
(lp2
S'state'
p3
aI0
aa(lp4
S'distance'
p5
aF370.6368179321289
aa(lp6
S'timestamp'
p7
aF0.7816140651702881
aatp8
Rp9
.ccollections
OrderedDict
p0
((lp1
(lp2
S'state'
p3
aI0
aa(lp4
S'distance'
p5
aF370.6368179321289
aa(lp6
S'timestamp'
p7
aF0.7816939353942871
aatp8
Rp9
.ccollections
OrderedDict
p0
((lp1
(lp2
S'state'
p3
aI0
aa(lp4
S'distance'
p5
aF370.6368179321289
aa(lp6
S'timestamp'
p7
aF0.7915189266204834
aatp8
Rp9
.ccollections
OrderedDict
p0
((lp1
(lp2
S'state'
p3
aI0
aa(lp4
S'distance'
p5
aF370.6368179321289
aa(lp6
S'timestamp'
p7
aF0.7919061183929443
aatp8
Rp9
.ccollections
OrderedDict
p0
((lp1
(lp2
S'state'
p3
aI0
aa(lp4
S'distance'
p5
aF370.6368179321289
aa(lp6
S'timestamp'
p7
aF0.8115909099578857
aatp8
Rp9
.ccollections
OrderedDict
p0
((lp1
(lp2
S'state'
p3
aI0
aa(lp4
S'distance'
p5
aF370.6368179321289
aa(lp6
S'timestamp'
p7
aF0.8117930889129639
aatp8
Rp9
.ccollections
OrderedDict
p0
((lp1
(lp2
S'state'
p3
aI0
aa(lp4
S'distance'
p5
aF370.6368179321289
aa(lp6
S'timestamp'
p7
aF0.8123118877410889
aatp8
Rp9
.ccollections
OrderedDict
p0
((lp1
(lp2
S'state'
p3
aI0
aa(lp4
S'distance'
p5
aF370.6368179321289
aa(lp6
S'timestamp'
p7
aF0.8139081001281738
aatp8
Rp9
.ccollections
OrderedDict
p0
((lp1
(lp2
S'state'
p3
aI0
aa(lp4
S'distance'
p5
aF370.6368179321289
aa(lp6
S'timestamp'
p7
aF0.8309400081634521
aatp8
Rp9
.ccollections
OrderedDict
p0
((lp1
(lp2
S'state'
p3
aI0
aa(lp4
S'distance'
p5
aF370.6368179321289
aa(lp6
S'timestamp'
p7
aF0.8317511081695557
aatp8
Rp9
.ccollections
OrderedDict
p0
((lp1
(lp2
S'state'
p3
aI0
aa(lp4
S'distance'
p5
aF370.6368179321289
aa(lp6
S'timestamp'
p7
aF0.8336551189422607
aatp8
Rp9
.ccollections
OrderedDict
p0
((lp1
(lp2
S'state'
p3
aI0
aa(lp4
S'distance'
p5
aF370.6368179321289
aa(lp6
S'timestamp'
p7
aF0.8340399265289307
aatp8
Rp9
.ccollections
OrderedDict
p0
((lp1
(lp2
S'state'
p3
aI0
aa(lp4
S'distance'
p5
aF370.6368179321289
aa(lp6
S'timestamp'
p7
aF0.8512330055236816
aatp8
Rp9
.ccollections
OrderedDict
p0
((lp1
(lp2
S'state'
p3
aI0
aa(lp4
S'distance'
p5
aF370.6368179321289
aa(lp6
S'timestamp'
p7
aF0.8516139984130859
aatp8
Rp9
.ccollections
OrderedDict
p0
((lp1
(lp2
S'state'
p3
aI0
aa(lp4
S'distance'
p5
aF370.6368179321289
aa(lp6
S'timestamp'
p7
aF0.8611950874328613
aatp8
Rp9
.ccollections
OrderedDict
p0
((lp1
(lp2
S'state'
p3
aI0
aa(lp4
S'distance'
p5
aF370.6368179321289
aa(lp6
S'timestamp'
p7
aF0.8621718883514404
aatp8
Rp9
.ccollections
OrderedDict
p0
((lp1
(lp2
S'state'
p3
aI0
aa(lp4
S'distance'
p5
aF370.6368179321289
aa(lp6
S'timestamp'
p7
aF0.8622949123382568
aatp8
Rp9
.ccollections
OrderedDict
p0
((lp1
(lp2
S'state'
p3
aI0
aa(lp4
S'distance'
p5
aF370.6368179321289
aa(lp6
S'timestamp'
p7
aF0.8635740280151367
aatp8
Rp9
.ccollections
OrderedDict
p0
((lp1
(lp2
S'state'
p3
aI0
aa(lp4
S'distance'
p5
aF370.6368179321289
aa(lp6
S'timestamp'
p7
aF0.8717761039733887
aatp8
Rp9
.ccollections
OrderedDict
p0
((lp1
(lp2
S'state'
p3
aI0
aa(lp4
S'distance'
p5
aF370.6368179321289
aa(lp6
S'timestamp'
p7
aF0.8723199367523193
aatp8
Rp9
.ccollections
OrderedDict
p0
((lp1
(lp2
S'state'
p3
aI0
aa(lp4
S'distance'
p5
aF370.6368179321289
aa(lp6
S'timestamp'
p7
aF0.8807060718536377
aatp8
Rp9
.ccollections
OrderedDict
p0
((lp1
(lp2
S'state'
p3
aI0
aa(lp4
S'distance'
p5
aF370.6368179321289
aa(lp6
S'timestamp'
p7
aF0.8813889026641846
aatp8
Rp9
.ccollections
OrderedDict
p0
((lp1
(lp2
S'state'
p3
aI0
aa(lp4
S'distance'
p5
aF370.6368179321289
aa(lp6
S'timestamp'
p7
aF0.8910651206970215
aatp8
Rp9
.ccollections
OrderedDict
p0
((lp1
(lp2
S'state'
p3
aI0
aa(lp4
S'distance'
p5
aF370.6368179321289
aa(lp6
S'timestamp'
p7
aF0.8912498950958252
aatp8
Rp9
.ccollections
OrderedDict
p0
((lp1
(lp2
S'state'
p3
aI0
aa(lp4
S'distance'
p5
aF370.6368179321289
aa(lp6
S'timestamp'
p7
aF0.9109458923339844
aatp8
Rp9
.ccollections
OrderedDict
p0
((lp1
(lp2
S'state'
p3
aI0
aa(lp4
S'distance'
p5
aF370.6368179321289
aa(lp6
S'timestamp'
p7
aF0.9112350940704346
aatp8
Rp9
.ccollections
OrderedDict
p0
((lp1
(lp2
S'state'
p3
aI0
aa(lp4
S'distance'
p5
aF370.6368179321289
aa(lp6
S'timestamp'
p7
aF0.9119820594787598
aatp8
Rp9
.ccollections
OrderedDict
p0
((lp1
(lp2
S'state'
p3
aI0
aa(lp4
S'distance'
p5
aF370.6368179321289
aa(lp6
S'timestamp'
p7
aF0.9122920036315918
aatp8
Rp9
.ccollections
OrderedDict
p0
((lp1
(lp2
S'state'
p3
aI0
aa(lp4
S'distance'
p5
aF370.6368179321289
aa(lp6
S'timestamp'
p7
aF0.9209299087524414
aatp8
Rp9
.ccollections
OrderedDict
p0
((lp1
(lp2
S'state'
p3
aI0
aa(lp4
S'distance'
p5
aF370.6368179321289
aa(lp6
S'timestamp'
p7
aF0.9212310314178467
aatp8
Rp9
.ccollections
OrderedDict
p0
((lp1
(lp2
S'state'
p3
aI0
aa(lp4
S'distance'
p5
aF370.6368179321289
aa(lp6
S'timestamp'
p7
aF0.9307889938354492
aatp8
Rp9
.ccollections
OrderedDict
p0
((lp1
(lp2
S'state'
p3
aI0
aa(lp4
S'distance'
p5
aF370.6368179321289
aa(lp6
S'timestamp'
p7
aF0.9313271045684814
aatp8
Rp9
.ccollections
OrderedDict
p0
((lp1
(lp2
S'state'
p3
aI0
aa(lp4
S'distance'
p5
aF370.6368179321289
aa(lp6
S'timestamp'
p7
aF0.9410650730133057
aatp8
Rp9
.ccollections
OrderedDict
p0
((lp1
(lp2
S'state'
p3
aI0
aa(lp4
S'distance'
p5
aF370.6368179321289
aa(lp6
S'timestamp'
p7
aF0.9413819313049316
aatp8
Rp9
.ccollections
OrderedDict
p0
((lp1
(lp2
S'state'
p3
aI0
aa(lp4
S'distance'
p5
aF370.6368179321289
aa(lp6
S'timestamp'
p7
aF0.951077938079834
aatp8
Rp9
.ccollections
OrderedDict
p0
((lp1
(lp2
S'state'
p3
aI0
aa(lp4
S'distance'
p5
aF370.6368179321289
aa(lp6
S'timestamp'
p7
aF0.9515070915222168
aatp8
Rp9
.ccollections
OrderedDict
p0
((lp1
(lp2
S'state'
p3
aI0
aa(lp4
S'distance'
p5
aF370.6368179321289
aa(lp6
S'timestamp'
p7
aF0.9610180854797363
aatp8
Rp9
.ccollections
OrderedDict
p0
((lp1
(lp2
S'state'
p3
aI0
aa(lp4
S'distance'
p5
aF370.6368179321289
aa(lp6
S'timestamp'
p7
aF0.9614439010620117
aatp8
Rp9
.ccollections
OrderedDict
p0
((lp1
(lp2
S'state'
p3
aI0
aa(lp4
S'distance'
p5
aF370.6368179321289
aa(lp6
S'timestamp'
p7
aF0.971390962600708
aatp8
Rp9
.ccollections
OrderedDict
p0
((lp1
(lp2
S'state'
p3
aI0
aa(lp4
S'distance'
p5
aF370.6368179321289
aa(lp6
S'timestamp'
p7
aF0.981144905090332
aatp8
Rp9
.ccollections
OrderedDict
p0
((lp1
(lp2
S'state'
p3
aI0
aa(lp4
S'distance'
p5
aF370.6368179321289
aa(lp6
S'timestamp'
p7
aF0.9817330837249756
aatp8
Rp9
.ccollections
OrderedDict
p0
((lp1
(lp2
S'state'
p3
aI0
aa(lp4
S'distance'
p5
aF370.6368179321289
aa(lp6
S'timestamp'
p7
aF0.9831690788269043
aatp8
Rp9
.ccollections
OrderedDict
p0
((lp1
(lp2
S'state'
p3
aI0
aa(lp4
S'distance'
p5
aF370.6368179321289
aa(lp6
S'timestamp'
p7
aF1.0016701221466064
aatp8
Rp9
.ccollections
OrderedDict
p0
((lp1
(lp2
S'state'
p3
aI0
aa(lp4
S'distance'
p5
aF370.6368179321289
aa(lp6
S'timestamp'
p7
aF1.0019450187683105
aatp8
Rp9
.ccollections
OrderedDict
p0
((lp1
(lp2
S'state'
p3
aI0
aa(lp4
S'distance'
p5
aF370.6368179321289
aa(lp6
S'timestamp'
p7
aF1.0029559135437012
aatp8
Rp9
.ccollections
OrderedDict
p0
((lp1
(lp2
S'state'
p3
aI0
aa(lp4
S'distance'
p5
aF370.6368179321289
aa(lp6
S'timestamp'
p7
aF1.0033020973205566
aatp8
Rp9
.ccollections
OrderedDict
p0
((lp1
(lp2
S'state'
p3
aI0
aa(lp4
S'distance'
p5
aF370.6368179321289
aa(lp6
S'timestamp'
p7
aF1.011214017868042
aatp8
Rp9
.ccollections
OrderedDict
p0
((lp1
(lp2
S'state'
p3
aI0
aa(lp4
S'distance'
p5
aF370.6368179321289
aa(lp6
S'timestamp'
p7
aF1.0120840072631836
aatp8
Rp9
.ccollections
OrderedDict
p0
((lp1
(lp2
S'state'
p3
aI0
aa(lp4
S'distance'
p5
aF370.6368179321289
aa(lp6
S'timestamp'
p7
aF1.0215771198272705
aatp8
Rp9
.ccollections
OrderedDict
p0
((lp1
(lp2
S'state'
p3
aI0
aa(lp4
S'distance'
p5
aF370.6368179321289
aa(lp6
S'timestamp'
p7
aF1.021730899810791
aatp8
Rp9
.ccollections
OrderedDict
p0
((lp1
(lp2
S'state'
p3
aI0
aa(lp4
S'distance'
p5
aF370.6368179321289
aa(lp6
S'timestamp'
p7
aF1.031630039215088
aatp8
Rp9
.ccollections
OrderedDict
p0
((lp1
(lp2
S'state'
p3
aI0
aa(lp4
S'distance'
p5
aF370.6368179321289
aa(lp6
S'timestamp'
p7
aF1.0317609310150146
aatp8
Rp9
.ccollections
OrderedDict
p0
((lp1
(lp2
S'state'
p3
aI0
aa(lp4
S'distance'
p5
aF370.6368179321289
aa(lp6
S'timestamp'
p7
aF1.0415740013122559
aatp8
Rp9
.ccollections
OrderedDict
p0
((lp1
(lp2
S'state'
p3
aI0
aa(lp4
S'distance'
p5
aF370.6368179321289
aa(lp6
S'timestamp'
p7
aF1.041754961013794
aatp8
Rp9
.ccollections
OrderedDict
p0
((lp1
(lp2
S'state'
p3
aI0
aa(lp4
S'distance'
p5
aF370.6368179321289
aa(lp6
S'timestamp'
p7
aF1.051508903503418
aatp8
Rp9
.ccollections
OrderedDict
p0
((lp1
(lp2
S'state'
p3
aI0
aa(lp4
S'distance'
p5
aF370.6368179321289
aa(lp6
S'timestamp'
p7
aF1.0522849559783936
aatp8
Rp9
.ccollections
OrderedDict
p0
((lp1
(lp2
S'state'
p3
aI0
aa(lp4
S'distance'
p5
aF370.6368179321289
aa(lp6
S'timestamp'
p7
aF1.0612380504608154
aatp8
Rp9
.ccollections
OrderedDict
p0
((lp1
(lp2
S'state'
p3
aI0
aa(lp4
S'distance'
p5
aF370.6368179321289
aa(lp6
S'timestamp'
p7
aF1.0613949298858643
aatp8
Rp9
.ccollections
OrderedDict
p0
((lp1
(lp2
S'state'
p3
aI0
aa(lp4
S'distance'
p5
aF370.6368179321289
aa(lp6
S'timestamp'
p7
aF1.0710079669952393
aatp8
Rp9
.ccollections
OrderedDict
p0
((lp1
(lp2
S'state'
p3
aI0
aa(lp4
S'distance'
p5
aF370.6368179321289
aa(lp6
S'timestamp'
p7
aF1.1013250350952148
aatp8
Rp9
.ccollections
OrderedDict
p0
((lp1
(lp2
S'state'
p3
aI0
aa(lp4
S'distance'
p5
aF370.6368179321289
aa(lp6
S'timestamp'
p7
aF1.101452112197876
aatp8
Rp9
.ccollections
OrderedDict
p0
((lp1
(lp2
S'state'
p3
aI0
aa(lp4
S'distance'
p5
aF370.6368179321289
aa(lp6
S'timestamp'
p7
aF1.1019039154052734
aatp8
Rp9
.ccollections
OrderedDict
p0
((lp1
(lp2
S'state'
p3
aI0
aa(lp4
S'distance'
p5
aF370.6368179321289
aa(lp6
S'timestamp'
p7
aF1.1021969318389893
aatp8
Rp9
.ccollections
OrderedDict
p0
((lp1
(lp2
S'state'
p3
aI0
aa(lp4
S'distance'
p5
aF370.6368179321289
aa(lp6
S'timestamp'
p7
aF1.1114299297332764
aatp8
Rp9
.ccollections
OrderedDict
p0
((lp1
(lp2
S'state'
p3
aI0
aa(lp4
S'distance'
p5
aF370.6368179321289
aa(lp6
S'timestamp'
p7
aF1.1115119457244873
aatp8
Rp9
.ccollections
OrderedDict
p0
((lp1
(lp2
S'state'
p3
aI0
aa(lp4
S'distance'
p5
aF370.6368179321289
aa(lp6
S'timestamp'
p7
aF1.1138761043548584
aatp8
Rp9
.ccollections
OrderedDict
p0
((lp1
(lp2
S'state'
p3
aI0
aa(lp4
S'distance'
p5
aF370.6368179321289
aa(lp6
S'timestamp'
p7
aF1.1139459609985352
aatp8
Rp9
.ccollections
OrderedDict
p0
((lp1
(lp2
S'state'
p3
aI0
aa(lp4
S'distance'
p5
aF370.6368179321289
aa(lp6
S'timestamp'
p7
aF1.1208078861236572
aatp8
Rp9
.ccollections
OrderedDict
p0
((lp1
(lp2
S'state'
p3
aI0
aa(lp4
S'distance'
p5
aF370.6368179321289
aa(lp6
S'timestamp'
p7
aF1.122257947921753
aatp8
Rp9
.ccollections
OrderedDict
p0
((lp1
(lp2
S'state'
p3
aI0
aa(lp4
S'distance'
p5
aF370.6368179321289
aa(lp6
S'timestamp'
p7
aF1.123147964477539
aatp8
Rp9
.ccollections
OrderedDict
p0
((lp1
(lp2
S'state'
p3
aI0
aa(lp4
S'distance'
p5
aF370.6368179321289
aa(lp6
S'timestamp'
p7
aF1.1312129497528076
aatp8
Rp9
.ccollections
OrderedDict
p0
((lp1
(lp2
S'state'
p3
aI0
aa(lp4
S'distance'
p5
aF370.6368179321289
aa(lp6
S'timestamp'
p7
aF1.1314480304718018
aatp8
Rp9
.ccollections
OrderedDict
p0
((lp1
(lp2
S'state'
p3
aI0
aa(lp4
S'distance'
p5
aF370.6368179321289
aa(lp6
S'timestamp'
p7
aF1.15122389793396
aatp8
Rp9
.ccollections
OrderedDict
p0
((lp1
(lp2
S'state'
p3
aI0
aa(lp4
S'distance'
p5
aF370.6368179321289
aa(lp6
S'timestamp'
p7
aF1.1517159938812256
aatp8
Rp9
.ccollections
OrderedDict
p0
((lp1
(lp2
S'state'
p3
aI0
aa(lp4
S'distance'
p5
aF370.6368179321289
aa(lp6
S'timestamp'
p7
aF1.1518909931182861
aatp8
Rp9
.ccollections
OrderedDict
p0
((lp1
(lp2
S'state'
p3
aI0
aa(lp4
S'distance'
p5
aF370.6368179321289
aa(lp6
S'timestamp'
p7
aF1.1522479057312012
aatp8
Rp9
.ccollections
OrderedDict
p0
((lp1
(lp2
S'state'
p3
aI0
aa(lp4
S'distance'
p5
aF370.6368179321289
aa(lp6
S'timestamp'
p7
aF1.161120891571045
aatp8
Rp9
.ccollections
OrderedDict
p0
((lp1
(lp2
S'state'
p3
aI0
aa(lp4
S'distance'
p5
aF370.6368179321289
aa(lp6
S'timestamp'
p7
aF1.1707820892333984
aatp8
Rp9
.ccollections
OrderedDict
p0
((lp1
(lp2
S'state'
p3
aI0
aa(lp4
S'distance'
p5
aF370.6368179321289
aa(lp6
S'timestamp'
p7
aF1.1716790199279785
aatp8
Rp9
.ccollections
OrderedDict
p0
((lp1
(lp2
S'state'
p3
aI0
aa(lp4
S'distance'
p5
aF370.6368179321289
aa(lp6
S'timestamp'
p7
aF1.1717970371246338
aatp8
Rp9
.ccollections
OrderedDict
p0
((lp1
(lp2
S'state'
p3
aI0
aa(lp4
S'distance'
p5
aF370.6368179321289
aa(lp6
S'timestamp'
p7
aF1.1810410022735596
aatp8
Rp9
.ccollections
OrderedDict
p0
((lp1
(lp2
S'state'
p3
aI0
aa(lp4
S'distance'
p5
aF370.6368179321289
aa(lp6
S'timestamp'
p7
aF1.181852102279663
aatp8
Rp9
.ccollections
OrderedDict
p0
((lp1
(lp2
S'state'
p3
aI0
aa(lp4
S'distance'
p5
aF370.6368179321289
aa(lp6
S'timestamp'
p7
aF1.2013700008392334
aatp8
Rp9
.ccollections
OrderedDict
p0
((lp1
(lp2
S'state'
p3
aI0
aa(lp4
S'distance'
p5
aF370.6368179321289
aa(lp6
S'timestamp'
p7
aF1.2030119895935059
aatp8
Rp9
.ccollections
OrderedDict
p0
((lp1
(lp2
S'state'
p3
aI0
aa(lp4
S'distance'
p5
aF370.6368179321289
aa(lp6
S'timestamp'
p7
aF1.203197956085205
aatp8
Rp9
.ccollections
OrderedDict
p0
((lp1
(lp2
S'state'
p3
aI0
aa(lp4
S'distance'
p5
aF370.6368179321289
aa(lp6
S'timestamp'
p7
aF1.2033400535583496
aatp8
Rp9
.ccollections
OrderedDict
p0
((lp1
(lp2
S'state'
p3
aI0
aa(lp4
S'distance'
p5
aF370.6368179321289
aa(lp6
S'timestamp'
p7
aF1.2135610580444336
aatp8
Rp9
.ccollections
OrderedDict
p0
((lp1
(lp2
S'state'
p3
aI0
aa(lp4
S'distance'
p5
aF370.6368179321289
aa(lp6
S'timestamp'
p7
aF1.213789939880371
aatp8
Rp9
.ccollections
OrderedDict
p0
((lp1
(lp2
S'state'
p3
aI0
aa(lp4
S'distance'
p5
aF370.6368179321289
aa(lp6
S'timestamp'
p7
aF1.2209360599517822
aatp8
Rp9
.ccollections
OrderedDict
p0
((lp1
(lp2
S'state'
p3
aI0
aa(lp4
S'distance'
p5
aF370.6368179321289
aa(lp6
S'timestamp'
p7
aF1.2215619087219238
aatp8
Rp9
.ccollections
OrderedDict
p0
((lp1
(lp2
S'state'
p3
aI0
aa(lp4
S'distance'
p5
aF370.6368179321289
aa(lp6
S'timestamp'
p7
aF1.242042064666748
aatp8
Rp9
.ccollections
OrderedDict
p0
((lp1
(lp2
S'state'
p3
aI0
aa(lp4
S'distance'
p5
aF370.6368179321289
aa(lp6
S'timestamp'
p7
aF1.2428019046783447
aatp8
Rp9
.ccollections
OrderedDict
p0
((lp1
(lp2
S'state'
p3
aI0
aa(lp4
S'distance'
p5
aF370.6368179321289
aa(lp6
S'timestamp'
p7
aF1.243035078048706
aatp8
Rp9
.ccollections
OrderedDict
p0
((lp1
(lp2
S'state'
p3
aI0
aa(lp4
S'distance'
p5
aF370.6368179321289
aa(lp6
S'timestamp'
p7
aF1.2431669235229492
aatp8
Rp9
.ccollections
OrderedDict
p0
((lp1
(lp2
S'state'
p3
aI0
aa(lp4
S'distance'
p5
aF370.6368179321289
aa(lp6
S'timestamp'
p7
aF1.2513329982757568
aatp8
Rp9
.ccollections
OrderedDict
p0
((lp1
(lp2
S'state'
p3
aI0
aa(lp4
S'distance'
p5
aF370.6368179321289
aa(lp6
S'timestamp'
p7
aF1.251410961151123
aatp8
Rp9
.ccollections
OrderedDict
p0
((lp1
(lp2
S'state'
p3
aI0
aa(lp4
S'distance'
p5
aF370.6368179321289
aa(lp6
S'timestamp'
p7
aF1.2614669799804688
aatp8
Rp9
.ccollections
OrderedDict
p0
((lp1
(lp2
S'state'
p3
aI0
aa(lp4
S'distance'
p5
aF370.6368179321289
aa(lp6
S'timestamp'
p7
aF1.2615940570831299
aatp8
Rp9
.ccollections
OrderedDict
p0
((lp1
(lp2
S'state'
p3
aI0
aa(lp4
S'distance'
p5
aF370.6368179321289
aa(lp6
S'timestamp'
p7
aF1.2716219425201416
aatp8
Rp9
.ccollections
OrderedDict
p0
((lp1
(lp2
S'state'
p3
aI0
aa(lp4
S'distance'
p5
aF370.6368179321289
aa(lp6
S'timestamp'
p7
aF1.2716970443725586
aatp8
Rp9
.ccollections
OrderedDict
p0
((lp1
(lp2
S'state'
p3
aI0
aa(lp4
S'distance'
p5
aF370.6368179321289
aa(lp6
S'timestamp'
p7
aF1.2809898853302002
aatp8
Rp9
.ccollections
OrderedDict
p0
((lp1
(lp2
S'state'
p3
aI0
aa(lp4
S'distance'
p5
aF370.6368179321289
aa(lp6
S'timestamp'
p7
aF1.2820780277252197
aatp8
Rp9
.ccollections
OrderedDict
p0
((lp1
(lp2
S'state'
p3
aI0
aa(lp4
S'distance'
p5
aF370.6368179321289
aa(lp6
S'timestamp'
p7
aF1.2908189296722412
aatp8
Rp9
.ccollections
OrderedDict
p0
((lp1
(lp2
S'state'
p3
aI0
aa(lp4
S'distance'
p5
aF370.6368179321289
aa(lp6
S'timestamp'
p7
aF1.291585922241211
aatp8
Rp9
.ccollections
OrderedDict
p0
((lp1
(lp2
S'state'
p3
aI0
aa(lp4
S'distance'
p5
aF370.6368179321289
aa(lp6
S'timestamp'
p7
aF1.3009250164031982
aatp8
Rp9
.ccollections
OrderedDict
p0
((lp1
(lp2
S'state'
p3
aI0
aa(lp4
S'distance'
p5
aF370.6368179321289
aa(lp6
S'timestamp'
p7
aF1.3126161098480225
aatp8
Rp9
.ccollections
OrderedDict
p0
((lp1
(lp2
S'state'
p3
aI0
aa(lp4
S'distance'
p5
aF370.6368179321289
aa(lp6
S'timestamp'
p7
aF1.3130240440368652
aatp8
Rp9
.ccollections
OrderedDict
p0
((lp1
(lp2
S'state'
p3
aI0
aa(lp4
S'distance'
p5
aF370.6368179321289
aa(lp6
S'timestamp'
p7
aF1.3133840560913086
aatp8
Rp9
.ccollections
OrderedDict
p0
((lp1
(lp2
S'state'
p3
aI0
aa(lp4
S'distance'
p5
aF370.6368179321289
aa(lp6
S'timestamp'
p7
aF1.3215489387512207
aatp8
Rp9
.ccollections
OrderedDict
p0
((lp1
(lp2
S'state'
p3
aI0
aa(lp4
S'distance'
p5
aF370.6368179321289
aa(lp6
S'timestamp'
p7
aF1.3220329284667969
aatp8
Rp9
.ccollections
OrderedDict
p0
((lp1
(lp2
S'state'
p3
aI0
aa(lp4
S'distance'
p5
aF370.6368179321289
aa(lp6
S'timestamp'
p7
aF1.3309049606323242
aatp8
Rp9
.ccollections
OrderedDict
p0
((lp1
(lp2
S'state'
p3
aI0
aa(lp4
S'distance'
p5
aF370.6368179321289
aa(lp6
S'timestamp'
p7
aF1.3314929008483887
aatp8
Rp9
.ccollections
OrderedDict
p0
((lp1
(lp2
S'state'
p3
aI0
aa(lp4
S'distance'
p5
aF370.6368179321289
aa(lp6
S'timestamp'
p7
aF1.341015100479126
aatp8
Rp9
.ccollections
OrderedDict
p0
((lp1
(lp2
S'state'
p3
aI0
aa(lp4
S'distance'
p5
aF370.6368179321289
aa(lp6
S'timestamp'
p7
aF1.341705083847046
aatp8
Rp9
.ccollections
OrderedDict
p0
((lp1
(lp2
S'state'
p3
aI400
aa(lp4
S'distance'
p5
aF370.6368179321289
aa(lp6
S'timestamp'
p7
aF1.3519179821014404
aatp8
Rp9
.ccollections
OrderedDict
p0
((lp1
(lp2
S'state'
p3
aI400
aa(lp4
S'distance'
p5
aF370.6368179321289
aa(lp6
S'timestamp'
p7
aF1.3520190715789795
aatp8
Rp9
.ccollections
OrderedDict
p0
((lp1
(lp2
S'state'
p3
aI400
aa(lp4
S'distance'
p5
aF370.6368179321289
aa(lp6
S'timestamp'
p7
aF1.3608810901641846
aatp8
Rp9
.ccollections
OrderedDict
p0
((lp1
(lp2
S'state'
p3
aI400
aa(lp4
S'distance'
p5
aF370.6368179321289
aa(lp6
S'timestamp'
p7
aF1.3637559413909912
aatp8
Rp9
.ccollections
OrderedDict
p0
((lp1
(lp2
S'state'
p3
aI400
aa(lp4
S'distance'
p5
aF370.6368179321289
aa(lp6
S'timestamp'
p7
aF1.3712348937988281
aatp8
Rp9
.ccollections
OrderedDict
p0
((lp1
(lp2
S'state'
p3
aI400
aa(lp4
S'distance'
p5
aF370.6368179321289
aa(lp6
S'timestamp'
p7
aF1.3714830875396729
aatp8
Rp9
.ccollections
OrderedDict
p0
((lp1
(lp2
S'state'
p3
aI400
aa(lp4
S'distance'
p5
aF370.6368179321289
aa(lp6
S'timestamp'
p7
aF1.395745038986206
aatp8
Rp9
.ccollections
OrderedDict
p0
((lp1
(lp2
S'state'
p3
aI400
aa(lp4
S'distance'
p5
aF370.6368179321289
aa(lp6
S'timestamp'
p7
aF1.3958640098571777
aatp8
Rp9
.ccollections
OrderedDict
p0
((lp1
(lp2
S'state'
p3
aI400
aa(lp4
S'distance'
p5
aF370.6368179321289
aa(lp6
S'timestamp'
p7
aF1.395967960357666
aatp8
Rp9
.ccollections
OrderedDict
p0
((lp1
(lp2
S'state'
p3
aI400
aa(lp4
S'distance'
p5
aF370.6368179321289
aa(lp6
S'timestamp'
p7
aF1.396056890487671
aatp8
Rp9
.ccollections
OrderedDict
p0
((lp1
(lp2
S'state'
p3
aI400
aa(lp4
S'distance'
p5
aF370.6368179321289
aa(lp6
S'timestamp'
p7
aF1.401412010192871
aatp8
Rp9
.ccollections
OrderedDict
p0
((lp1
(lp2
S'state'
p3
aI400
aa(lp4
S'distance'
p5
aF370.6368179321289
aa(lp6
S'timestamp'
p7
aF1.40224289894104
aatp8
Rp9
.ccollections
OrderedDict
p0
((lp1
(lp2
S'state'
p3
aI400
aa(lp4
S'distance'
p5
aF370.6368179321289
aa(lp6
S'timestamp'
p7
aF1.4111390113830566
aatp8
Rp9
.ccollections
OrderedDict
p0
((lp1
(lp2
S'state'
p3
aI400
aa(lp4
S'distance'
p5
aF370.6368179321289
aa(lp6
S'timestamp'
p7
aF1.411703109741211
aatp8
Rp9
.ccollections
OrderedDict
p0
((lp1
(lp2
S'state'
p3
aI400
aa(lp4
S'distance'
p5
aF370.6368179321289
aa(lp6
S'timestamp'
p7
aF1.4217920303344727
aatp8
Rp9
.ccollections
OrderedDict
p0
((lp1
(lp2
S'state'
p3
aI400
aa(lp4
S'distance'
p5
aF370.6368179321289
aa(lp6
S'timestamp'
p7
aF1.4227380752563477
aatp8
Rp9
.ccollections
OrderedDict
p0
((lp1
(lp2
S'state'
p3
aI400
aa(lp4
S'distance'
p5
aF370.6368179321289
aa(lp6
S'timestamp'
p7
aF1.4308090209960938
aatp8
Rp9
.ccollections
OrderedDict
p0
((lp1
(lp2
S'state'
p3
aI400
aa(lp4
S'distance'
p5
aF370.6368179321289
aa(lp6
S'timestamp'
p7
aF1.431541919708252
aatp8
Rp9
.ccollections
OrderedDict
p0
((lp1
(lp2
S'state'
p3
aI400
aa(lp4
S'distance'
p5
aF370.6368179321289
aa(lp6
S'timestamp'
p7
aF1.4514141082763672
aatp8
Rp9
.ccollections
OrderedDict
p0
((lp1
(lp2
S'state'
p3
aI400
aa(lp4
S'distance'
p5
aF370.6368179321289
aa(lp6
S'timestamp'
p7
aF1.451704978942871
aatp8
Rp9
.ccollections
OrderedDict
p0
((lp1
(lp2
S'state'
p3
aI400
aa(lp4
S'distance'
p5
aF370.6368179321289
aa(lp6
S'timestamp'
p7
aF1.452599048614502
aatp8
Rp9
.ccollections
OrderedDict
p0
((lp1
(lp2
S'state'
p3
aI400
aa(lp4
S'distance'
p5
aF370.6368179321289
aa(lp6
S'timestamp'
p7
aF1.4530611038208008
aatp8
Rp9
.ccollections
OrderedDict
p0
((lp1
(lp2
S'state'
p3
aI400
aa(lp4
S'distance'
p5
aF370.6368179321289
aa(lp6
S'timestamp'
p7
aF1.4622890949249268
aatp8
Rp9
.ccollections
OrderedDict
p0
((lp1
(lp2
S'state'
p3
aI400
aa(lp4
S'distance'
p5
aF370.6368179321289
aa(lp6
S'timestamp'
p7
aF1.4624059200286865
aatp8
Rp9
.ccollections
OrderedDict
p0
((lp1
(lp2
S'state'
p3
aI400
aa(lp4
S'distance'
p5
aF370.6368179321289
aa(lp6
S'timestamp'
p7
aF1.4750831127166748
aatp8
Rp9
.ccollections
OrderedDict
p0
((lp1
(lp2
S'state'
p3
aI400
aa(lp4
S'distance'
p5
aF370.6368179321289
aa(lp6
S'timestamp'
p7
aF1.4758710861206055
aatp8
Rp9
.ccollections
OrderedDict
p0
((lp1
(lp2
S'state'
p3
aI400
aa(lp4
S'distance'
p5
aF370.6368179321289
aa(lp6
S'timestamp'
p7
aF1.4813060760498047
aatp8
Rp9
.ccollections
OrderedDict
p0
((lp1
(lp2
S'state'
p3
aI400
aa(lp4
S'distance'
p5
aF370.6368179321289
aa(lp6
S'timestamp'
p7
aF1.4815449714660645
aatp8
Rp9
.ccollections
OrderedDict
p0
((lp1
(lp2
S'state'
p3
aI400
aa(lp4
S'distance'
p5
aF370.6368179321289
aa(lp6
S'timestamp'
p7
aF1.4910309314727783
aatp8
Rp9
.ccollections
OrderedDict
p0
((lp1
(lp2
S'state'
p3
aI400
aa(lp4
S'distance'
p5
aF370.6368179321289
aa(lp6
S'timestamp'
p7
aF1.4912219047546387
aatp8
Rp9
.ccollections
OrderedDict
p0
((lp1
(lp2
S'state'
p3
aI400
aa(lp4
S'distance'
p5
aF370.6368179321289
aa(lp6
S'timestamp'
p7
aF1.5112268924713135
aatp8
Rp9
.ccollections
OrderedDict
p0
((lp1
(lp2
S'state'
p3
aI400
aa(lp4
S'distance'
p5
aF370.6368179321289
aa(lp6
S'timestamp'
p7
aF1.511518955230713
aatp8
Rp9
.ccollections
OrderedDict
p0
((lp1
(lp2
S'state'
p3
aI400
aa(lp4
S'distance'
p5
aF370.6368179321289
aa(lp6
S'timestamp'
p7
aF1.5125010013580322
aatp8
Rp9
.ccollections
OrderedDict
p0
((lp1
(lp2
S'state'
p3
aI400
aa(lp4
S'distance'
p5
aF370.6368179321289
aa(lp6
S'timestamp'
p7
aF1.514936923980713
aatp8
Rp9
.ccollections
OrderedDict
p0
((lp1
(lp2
S'state'
p3
aI400
aa(lp4
S'distance'
p5
aF370.6368179321289
aa(lp6
S'timestamp'
p7
aF1.5216259956359863
aatp8
Rp9
.ccollections
OrderedDict
p0
((lp1
(lp2
S'state'
p3
aI400
aa(lp4
S'distance'
p5
aF370.6368179321289
aa(lp6
S'timestamp'
p7
aF1.5216960906982422
aatp8
Rp9
.ccollections
OrderedDict
p0
((lp1
(lp2
S'state'
p3
aI400
aa(lp4
S'distance'
p5
aF370.6368179321289
aa(lp6
S'timestamp'
p7
aF1.5313611030578613
aatp8
Rp9
.ccollections
OrderedDict
p0
((lp1
(lp2
S'state'
p3
aI400
aa(lp4
S'distance'
p5
aF370.6368179321289
aa(lp6
S'timestamp'
p7
aF1.5315489768981934
aatp8
Rp9
.ccollections
OrderedDict
p0
((lp1
(lp2
S'state'
p3
aI400
aa(lp4
S'distance'
p5
aF370.6368179321289
aa(lp6
S'timestamp'
p7
aF1.541079044342041
aatp8
Rp9
.ccollections
OrderedDict
p0
((lp1
(lp2
S'state'
p3
aI400
aa(lp4
S'distance'
p5
aF370.6368179321289
aa(lp6
S'timestamp'
p7
aF1.5418739318847656
aatp8
Rp9
.ccollections
OrderedDict
p0
((lp1
(lp2
S'state'
p3
aI400
aa(lp4
S'distance'
p5
aF370.6368179321289
aa(lp6
S'timestamp'
p7
aF1.550955057144165
aatp8
Rp9
.ccollections
OrderedDict
p0
((lp1
(lp2
S'state'
p3
aI400
aa(lp4
S'distance'
p5
aF370.6368179321289
aa(lp6
S'timestamp'
p7
aF1.551279067993164
aatp8
Rp9
.ccollections
OrderedDict
p0
((lp1
(lp2
S'state'
p3
aI400
aa(lp4
S'distance'
p5
aF370.6368179321289
aa(lp6
S'timestamp'
p7
aF1.561532974243164
aatp8
Rp9
.ccollections
OrderedDict
p0
((lp1
(lp2
S'state'
p3
aI400
aa(lp4
S'distance'
p5
aF370.6368179321289
aa(lp6
S'timestamp'
p7
aF1.5618140697479248
aatp8
Rp9
.ccollections
OrderedDict
p0
((lp1
(lp2
S'state'
p3
aI400
aa(lp4
S'distance'
p5
aF370.6368179321289
aa(lp6
S'timestamp'
p7
aF1.5721039772033691
aatp8
Rp9
.ccollections
OrderedDict
p0
((lp1
(lp2
S'state'
p3
aI400
aa(lp4
S'distance'
p5
aF370.6368179321289
aa(lp6
S'timestamp'
p7
aF1.5721900463104248
aatp8
Rp9
.ccollections
OrderedDict
p0
((lp1
(lp2
S'state'
p3
aI400
aa(lp4
S'distance'
p5
aF370.6368179321289
aa(lp6
S'timestamp'
p7
aF1.5809290409088135
aatp8
Rp9
.ccollections
OrderedDict
p0
((lp1
(lp2
S'state'
p3
aI400
aa(lp4
S'distance'
p5
aF370.6368179321289
aa(lp6
S'timestamp'
p7
aF1.5816740989685059
aatp8
Rp9
.ccollections
OrderedDict
p0
((lp1
(lp2
S'state'
p3
aI400
aa(lp4
S'distance'
p5
aF370.6368179321289
aa(lp6
S'timestamp'
p7
aF1.6014249324798584
aatp8
Rp9
.ccollections
OrderedDict
p0
((lp1
(lp2
S'state'
p3
aI400
aa(lp4
S'distance'
p5
aF370.6368179321289
aa(lp6
S'timestamp'
p7
aF1.6015050411224365
aatp8
Rp9
.ccollections
OrderedDict
p0
((lp1
(lp2
S'state'
p3
aI400
aa(lp4
S'distance'
p5
aF370.6368179321289
aa(lp6
S'timestamp'
p7
aF1.6029329299926758
aatp8
Rp9
.ccollections
OrderedDict
p0
((lp1
(lp2
S'state'
p3
aI400
aa(lp4
S'distance'
p5
aF370.6368179321289
aa(lp6
S'timestamp'
p7
aF1.6108551025390625
aatp8
Rp9
.ccollections
OrderedDict
p0
((lp1
(lp2
S'state'
p3
aI400
aa(lp4
S'distance'
p5
aF370.6368179321289
aa(lp6
S'timestamp'
p7
aF1.611741065979004
aatp8
Rp9
.ccollections
OrderedDict
p0
((lp1
(lp2
S'state'
p3
aI400
aa(lp4
S'distance'
p5
aF370.6368179321289
aa(lp6
S'timestamp'
p7
aF1.6127080917358398
aatp8
Rp9
.ccollections
OrderedDict
p0
((lp1
(lp2
S'state'
p3
aI400
aa(lp4
S'distance'
p5
aF370.6368179321289
aa(lp6
S'timestamp'
p7
aF1.621419906616211
aatp8
Rp9
.ccollections
OrderedDict
p0
((lp1
(lp2
S'state'
p3
aI400
aa(lp4
S'distance'
p5
aF370.6368179321289
aa(lp6
S'timestamp'
p7
aF1.6214990615844727
aatp8
Rp9
.ccollections
OrderedDict
p0
((lp1
(lp2
S'state'
p3
aI400
aa(lp4
S'distance'
p5
aF370.6368179321289
aa(lp6
S'timestamp'
p7
aF1.631531000137329
aatp8
Rp9
.ccollections
OrderedDict
p0
((lp1
(lp2
S'state'
p3
aI400
aa(lp4
S'distance'
p5
aF370.6368179321289
aa(lp6
S'timestamp'
p7
aF1.6316239833831787
aatp8
Rp9
.ccollections
OrderedDict
p0
((lp1
(lp2
S'state'
p3
aI400
aa(lp4
S'distance'
p5
aF370.6368179321289
aa(lp6
S'timestamp'
p7
aF1.640834093093872
aatp8
Rp9
.ccollections
OrderedDict
p0
((lp1
(lp2
S'state'
p3
aI400
aa(lp4
S'distance'
p5
aF370.6368179321289
aa(lp6
S'timestamp'
p7
aF1.6427600383758545
aatp8
Rp9
.ccollections
OrderedDict
p0
((lp1
(lp2
S'state'
p3
aI400
aa(lp4
S'distance'
p5
aF370.6368179321289
aa(lp6
S'timestamp'
p7
aF1.651047945022583
aatp8
Rp9
.ccollections
OrderedDict
p0
((lp1
(lp2
S'state'
p3
aI400
aa(lp4
S'distance'
p5
aF370.6368179321289
aa(lp6
S'timestamp'
p7
aF1.6522259712219238
aatp8
Rp9
.ccollections
OrderedDict
p0
((lp1
(lp2
S'state'
p3
aI400
aa(lp4
S'distance'
p5
aF370.6368179321289
aa(lp6
S'timestamp'
p7
aF1.6612820625305176
aatp8
Rp9
.ccollections
OrderedDict
p0
((lp1
(lp2
S'state'
p3
aI400
aa(lp4
S'distance'
p5
aF370.6368179321289
aa(lp6
S'timestamp'
p7
aF1.6614670753479004
aatp8
Rp9
.ccollections
OrderedDict
p0
((lp1
(lp2
S'state'
p3
aI400
aa(lp4
S'distance'
p5
aF370.6368179321289
aa(lp6
S'timestamp'
p7
aF1.6712689399719238
aatp8
Rp9
.ccollections
OrderedDict
p0
((lp1
(lp2
S'state'
p3
aI400
aa(lp4
S'distance'
p5
aF370.6368179321289
aa(lp6
S'timestamp'
p7
aF1.6720819473266602
aatp8
Rp9
.ccollections
OrderedDict
p0
((lp1
(lp2
S'state'
p3
aI400
aa(lp4
S'distance'
p5
aF370.6368179321289
aa(lp6
S'timestamp'
p7
aF1.6812479496002197
aatp8
Rp9
.ccollections
OrderedDict
p0
((lp1
(lp2
S'state'
p3
aI400
aa(lp4
S'distance'
p5
aF370.6368179321289
aa(lp6
S'timestamp'
p7
aF1.6815540790557861
aatp8
Rp9
.ccollections
OrderedDict
p0
((lp1
(lp2
S'state'
p3
aI400
aa(lp4
S'distance'
p5
aF370.6368179321289
aa(lp6
S'timestamp'
p7
aF1.6909260749816895
aatp8
Rp9
.ccollections
OrderedDict
p0
((lp1
(lp2
S'state'
p3
aI400
aa(lp4
S'distance'
p5
aF370.6368179321289
aa(lp6
S'timestamp'
p7
aF1.6923580169677734
aatp8
Rp9
.ccollections
OrderedDict
p0
((lp1
(lp2
S'state'
p3
aI400
aa(lp4
S'distance'
p5
aF370.6368179321289
aa(lp6
S'timestamp'
p7
aF1.7109498977661133
aatp8
Rp9
.ccollections
OrderedDict
p0
((lp1
(lp2
S'state'
p3
aI400
aa(lp4
S'distance'
p5
aF370.6368179321289
aa(lp6
S'timestamp'
p7
aF1.711435079574585
aatp8
Rp9
.ccollections
OrderedDict
p0
((lp1
(lp2
S'state'
p3
aI400
aa(lp4
S'distance'
p5
aF370.6368179321289
aa(lp6
S'timestamp'
p7
aF1.712372064590454
aatp8
Rp9
.ccollections
OrderedDict
p0
((lp1
(lp2
S'state'
p3
aI400
aa(lp4
S'distance'
p5
aF370.6368179321289
aa(lp6
S'timestamp'
p7
aF1.7125639915466309
aatp8
Rp9
.ccollections
OrderedDict
p0
((lp1
(lp2
S'state'
p3
aI400
aa(lp4
S'distance'
p5
aF370.6368179321289
aa(lp6
S'timestamp'
p7
aF1.720839023590088
aatp8
Rp9
.ccollections
OrderedDict
p0
((lp1
(lp2
S'state'
p3
aI400
aa(lp4
S'distance'
p5
aF370.6368179321289
aa(lp6
S'timestamp'
p7
aF1.7212839126586914
aatp8
Rp9
.ccollections
OrderedDict
p0
((lp1
(lp2
S'state'
p3
aI400
aa(lp4
S'distance'
p5
aF370.6368179321289
aa(lp6
S'timestamp'
p7
aF1.7309439182281494
aatp8
Rp9
.ccollections
OrderedDict
p0
((lp1
(lp2
S'state'
p3
aI400
aa(lp4
S'distance'
p5
aF370.6368179321289
aa(lp6
S'timestamp'
p7
aF1.7313320636749268
aatp8
Rp9
.ccollections
OrderedDict
p0
((lp1
(lp2
S'state'
p3
aI400
aa(lp4
S'distance'
p5
aF370.6368179321289
aa(lp6
S'timestamp'
p7
aF1.7510340213775635
aatp8
Rp9
.ccollections
OrderedDict
p0
((lp1
(lp2
S'state'
p3
aI400
aa(lp4
S'distance'
p5
aF370.6368179321289
aa(lp6
S'timestamp'
p7
aF1.7511610984802246
aatp8
Rp9
.ccollections
OrderedDict
p0
((lp1
(lp2
S'state'
p3
aI400
aa(lp4
S'distance'
p5
aF370.6368179321289
aa(lp6
S'timestamp'
p7
aF1.7523601055145264
aatp8
Rp9
.ccollections
OrderedDict
p0
((lp1
(lp2
S'state'
p3
aI400
aa(lp4
S'distance'
p5
aF370.6368179321289
aa(lp6
S'timestamp'
p7
aF1.7527389526367188
aatp8
Rp9
.ccollections
OrderedDict
p0
((lp1
(lp2
S'state'
p3
aI400
aa(lp4
S'distance'
p5
aF370.6368179321289
aa(lp6
S'timestamp'
p7
aF1.7608790397644043
aatp8
Rp9
.ccollections
OrderedDict
p0
((lp1
(lp2
S'state'
p3
aI400
aa(lp4
S'distance'
p5
aF370.6368179321289
aa(lp6
S'timestamp'
p7
aF1.7611210346221924
aatp8
Rp9
.ccollections
OrderedDict
p0
((lp1
(lp2
S'state'
p3
aI400
aa(lp4
S'distance'
p5
aF370.6368179321289
aa(lp6
S'timestamp'
p7
aF1.7709269523620605
aatp8
Rp9
.ccollections
OrderedDict
p0
((lp1
(lp2
S'state'
p3
aI400
aa(lp4
S'distance'
p5
aF370.6368179321289
aa(lp6
S'timestamp'
p7
aF1.7713990211486816
aatp8
Rp9
.ccollections
OrderedDict
p0
((lp1
(lp2
S'state'
p3
aI400
aa(lp4
S'distance'
p5
aF370.6368179321289
aa(lp6
S'timestamp'
p7
aF1.7807888984680176
aatp8
Rp9
.ccollections
OrderedDict
p0
((lp1
(lp2
S'state'
p3
aI400
aa(lp4
S'distance'
p5
aF370.6368179321289
aa(lp6
S'timestamp'
p7
aF1.7814650535583496
aatp8
Rp9
.ccollections
OrderedDict
p0
((lp1
(lp2
S'state'
p3
aI400
aa(lp4
S'distance'
p5
aF370.6368179321289
aa(lp6
S'timestamp'
p7
aF1.7907190322875977
aatp8
Rp9
.ccollections
OrderedDict
p0
((lp1
(lp2
S'state'
p3
aI400
aa(lp4
S'distance'
p5
aF370.6368179321289
aa(lp6
S'timestamp'
p7
aF1.791443109512329
aatp8
Rp9
.ccollections
OrderedDict
p0
((lp1
(lp2
S'state'
p3
aI400
aa(lp4
S'distance'
p5
aF370.6368179321289
aa(lp6
S'timestamp'
p7
aF1.8009018898010254
aatp8
Rp9
.ccollections
OrderedDict
p0
((lp1
(lp2
S'state'
p3
aI400
aa(lp4
S'distance'
p5
aF370.6368179321289
aa(lp6
S'timestamp'
p7
aF1.801151990890503
aatp8
Rp9
.ccollections
OrderedDict
p0
((lp1
(lp2
S'state'
p3
aI400
aa(lp4
S'distance'
p5
aF370.6368179321289
aa(lp6
S'timestamp'
p7
aF1.8121058940887451
aatp8
Rp9
.ccollections
OrderedDict
p0
((lp1
(lp2
S'state'
p3
aI400
aa(lp4
S'distance'
p5
aF370.6368179321289
aa(lp6
S'timestamp'
p7
aF1.8126959800720215
aatp8
Rp9
.ccollections
OrderedDict
p0
((lp1
(lp2
S'state'
p3
aI400
aa(lp4
S'distance'
p5
aF370.6368179321289
aa(lp6
S'timestamp'
p7
aF1.83064603805542
aatp8
Rp9
.ccollections
OrderedDict
p0
((lp1
(lp2
S'state'
p3
aI400
aa(lp4
S'distance'
p5
aF370.6368179321289
aa(lp6
S'timestamp'
p7
aF1.8314108848571777
aatp8
Rp9
.ccollections
OrderedDict
p0
((lp1
(lp2
S'state'
p3
aI400
aa(lp4
S'distance'
p5
aF370.6368179321289
aa(lp6
S'timestamp'
p7
aF1.8316800594329834
aatp8
Rp9
.ccollections
OrderedDict
p0
((lp1
(lp2
S'state'
p3
aI400
aa(lp4
S'distance'
p5
aF370.6368179321289
aa(lp6
S'timestamp'
p7
aF1.8325440883636475
aatp8
Rp9
.ccollections
OrderedDict
p0
((lp1
(lp2
S'state'
p3
aI400
aa(lp4
S'distance'
p5
aF370.6368179321289
aa(lp6
S'timestamp'
p7
aF1.8525350093841553
aatp8
Rp9
.ccollections
OrderedDict
p0
((lp1
(lp2
S'state'
p3
aI400
aa(lp4
S'distance'
p5
aF370.6368179321289
aa(lp6
S'timestamp'
p7
aF1.852741003036499
aatp8
Rp9
.ccollections
OrderedDict
p0
((lp1
(lp2
S'state'
p3
aI400
aa(lp4
S'distance'
p5
aF370.6368179321289
aa(lp6
S'timestamp'
p7
aF1.8537158966064453
aatp8
Rp9
.ccollections
OrderedDict
p0
((lp1
(lp2
S'state'
p3
aI400
aa(lp4
S'distance'
p5
aF370.6368179321289
aa(lp6
S'timestamp'
p7
aF1.8539719581604004
aatp8
Rp9
.ccollections
OrderedDict
p0
((lp1
(lp2
S'state'
p3
aI400
aa(lp4
S'distance'
p5
aF370.6368179321289
aa(lp6
S'timestamp'
p7
aF1.860826015472412
aatp8
Rp9
.ccollections
OrderedDict
p0
((lp1
(lp2
S'state'
p3
aI400
aa(lp4
S'distance'
p5
aF370.6368179321289
aa(lp6
S'timestamp'
p7
aF1.8612539768218994
aatp8
Rp9
.ccollections
OrderedDict
p0
((lp1
(lp2
S'state'
p3
aI400
aa(lp4
S'distance'
p5
aF370.6368179321289
aa(lp6
S'timestamp'
p7
aF1.8707759380340576
aatp8
Rp9
.ccollections
OrderedDict
p0
((lp1
(lp2
S'state'
p3
aI400
aa(lp4
S'distance'
p5
aF370.6368179321289
aa(lp6
S'timestamp'
p7
aF1.8713150024414062
aatp8
Rp9
.ccollections
OrderedDict
p0
((lp1
(lp2
S'state'
p3
aI400
aa(lp4
S'distance'
p5
aF370.6368179321289
aa(lp6
S'timestamp'
p7
aF1.880836009979248
aatp8
Rp9
.ccollections
OrderedDict
p0
((lp1
(lp2
S'state'
p3
aI400
aa(lp4
S'distance'
p5
aF370.6368179321289
aa(lp6
S'timestamp'
p7
aF1.8815889358520508
aatp8
Rp9
.ccollections
OrderedDict
p0
((lp1
(lp2
S'state'
p3
aI400
aa(lp4
S'distance'
p5
aF370.6368179321289
aa(lp6
S'timestamp'
p7
aF1.8908429145812988
aatp8
Rp9
.ccollections
OrderedDict
p0
((lp1
(lp2
S'state'
p3
aI400
aa(lp4
S'distance'
p5
aF370.6368179321289
aa(lp6
S'timestamp'
p7
aF1.9111990928649902
aatp8
Rp9
.ccollections
OrderedDict
p0
((lp1
(lp2
S'state'
p3
aI400
aa(lp4
S'distance'
p5
aF370.6368179321289
aa(lp6
S'timestamp'
p7
aF1.9113669395446777
aatp8
Rp9
.ccollections
OrderedDict
p0
((lp1
(lp2
S'state'
p3
aI400
aa(lp4
S'distance'
p5
aF370.6368179321289
aa(lp6
S'timestamp'
p7
aF1.911633014678955
aatp8
Rp9
.ccollections
OrderedDict
p0
((lp1
(lp2
S'state'
p3
aI400
aa(lp4
S'distance'
p5
aF370.6368179321289
aa(lp6
S'timestamp'
p7
aF1.9120979309082031
aatp8
Rp9
.ccollections
OrderedDict
p0
((lp1
(lp2
S'state'
p3
aI400
aa(lp4
S'distance'
p5
aF370.6368179321289
aa(lp6
S'timestamp'
p7
aF1.9211969375610352
aatp8
Rp9
.ccollections
OrderedDict
p0
((lp1
(lp2
S'state'
p3
aI400
aa(lp4
S'distance'
p5
aF370.6368179321289
aa(lp6
S'timestamp'
p7
aF1.922032117843628
aatp8
Rp9
.ccollections
OrderedDict
p0
((lp1
(lp2
S'state'
p3
aI400
aa(lp4
S'distance'
p5
aF370.6368179321289
aa(lp6
S'timestamp'
p7
aF1.92274808883667
aatp8
Rp9
.ccollections
OrderedDict
p0
((lp1
(lp2
S'state'
p3
aI400
aa(lp4
S'distance'
p5
aF370.6368179321289
aa(lp6
S'timestamp'
p7
aF1.9309558868408203
aatp8
Rp9
.ccollections
OrderedDict
p0
((lp1
(lp2
S'state'
p3
aI400
aa(lp4
S'distance'
p5
aF370.6368179321289
aa(lp6
S'timestamp'
p7
aF1.93135404586792
aatp8
Rp9
.ccollections
OrderedDict
p0
((lp1
(lp2
S'state'
p3
aI400
aa(lp4
S'distance'
p5
aF370.6368179321289
aa(lp6
S'timestamp'
p7
aF1.9407799243927002
aatp8
Rp9
.ccollections
OrderedDict
p0
((lp1
(lp2
S'state'
p3
aI400
aa(lp4
S'distance'
p5
aF370.6368179321289
aa(lp6
S'timestamp'
p7
aF1.9415740966796875
aatp8
Rp9
.ccollections
OrderedDict
p0
((lp1
(lp2
S'state'
p3
aI400
aa(lp4
S'distance'
p5
aF370.6368179321289
aa(lp6
S'timestamp'
p7
aF1.9513239860534668
aatp8
Rp9
.ccollections
OrderedDict
p0
((lp1
(lp2
S'state'
p3
aI400
aa(lp4
S'distance'
p5
aF370.6368179321289
aa(lp6
S'timestamp'
p7
aF1.9515609741210938
aatp8
Rp9
.ccollections
OrderedDict
p0
((lp1
(lp2
S'state'
p3
aI400
aa(lp4
S'distance'
p5
aF370.6368179321289
aa(lp6
S'timestamp'
p7
aF1.961388111114502
aatp8
Rp9
.ccollections
OrderedDict
p0
((lp1
(lp2
S'state'
p3
aI400
aa(lp4
S'distance'
p5
aF370.6368179321289
aa(lp6
S'timestamp'
p7
aF1.9614698886871338
aatp8
Rp9
.ccollections
OrderedDict
p0
((lp1
(lp2
S'state'
p3
aI400
aa(lp4
S'distance'
p5
aF370.6368179321289
aa(lp6
S'timestamp'
p7
aF1.971215009689331
aatp8
Rp9
.ccollections
OrderedDict
p0
((lp1
(lp2
S'state'
p3
aI400
aa(lp4
S'distance'
p5
aF370.6368179321289
aa(lp6
S'timestamp'
p7
aF1.9717400074005127
aatp8
Rp9
.ccollections
OrderedDict
p0
((lp1
(lp2
S'state'
p3
aI400
aa(lp4
S'distance'
p5
aF370.6368179321289
aa(lp6
S'timestamp'
p7
aF1.9807569980621338
aatp8
Rp9
.ccollections
OrderedDict
p0
((lp1
(lp2
S'state'
p3
aI400
aa(lp4
S'distance'
p5
aF370.6368179321289
aa(lp6
S'timestamp'
p7
aF1.9816360473632812
aatp8
Rp9
.ccollections
OrderedDict
p0
((lp1
(lp2
S'state'
p3
aI400
aa(lp4
S'distance'
p5
aF370.6368179321289
aa(lp6
S'timestamp'
p7
aF1.9914569854736328
aatp8
Rp9
.ccollections
OrderedDict
p0
((lp1
(lp2
S'state'
p3
aI400
aa(lp4
S'distance'
p5
aF370.6368179321289
aa(lp6
S'timestamp'
p7
aF1.9916670322418213
aatp8
Rp9
.ccollections
OrderedDict
p0
((lp1
(lp2
S'state'
p3
aI400
aa(lp4
S'distance'
p5
aF370.6368179321289
aa(lp6
S'timestamp'
p7
aF2.0013439655303955
aatp8
Rp9
.ccollections
OrderedDict
p0
((lp1
(lp2
S'state'
p3
aI400
aa(lp4
S'distance'
p5
aF370.6368179321289
aa(lp6
S'timestamp'
p7
aF2.0014259815216064
aatp8
Rp9
.ccollections
OrderedDict
p0
((lp1
(lp2
S'state'
p3
aI400
aa(lp4
S'distance'
p5
aF370.6368179321289
aa(lp6
S'timestamp'
p7
aF2.011353015899658
aatp8
Rp9
.ccollections
OrderedDict
p0
((lp1
(lp2
S'state'
p3
aI400
aa(lp4
S'distance'
p5
aF370.6368179321289
aa(lp6
S'timestamp'
p7
aF2.0115599632263184
aatp8
Rp9
.ccollections
OrderedDict
p0
((lp1
(lp2
S'state'
p3
aI400
aa(lp4
S'distance'
p5
aF370.6368179321289
aa(lp6
S'timestamp'
p7
aF2.0206620693206787
aatp8
Rp9
.ccollections
OrderedDict
p0
((lp1
(lp2
S'state'
p3
aI400
aa(lp4
S'distance'
p5
aF370.6368179321289
aa(lp6
S'timestamp'
p7
aF2.0213730335235596
aatp8
Rp9
.ccollections
OrderedDict
p0
((lp1
(lp2
S'state'
p3
aI400
aa(lp4
S'distance'
p5
aF370.6368179321289
aa(lp6
S'timestamp'
p7
aF2.0308289527893066
aatp8
Rp9
.ccollections
OrderedDict
p0
((lp1
(lp2
S'state'
p3
aI400
aa(lp4
S'distance'
p5
aF370.6368179321289
aa(lp6
S'timestamp'
p7
aF2.0316989421844482
aatp8
Rp9
.ccollections
OrderedDict
p0
((lp1
(lp2
S'state'
p3
aI400
aa(lp4
S'distance'
p5
aF370.6368179321289
aa(lp6
S'timestamp'
p7
aF2.0408120155334473
aatp8
Rp9
.ccollections
OrderedDict
p0
((lp1
(lp2
S'state'
p3
aI400
aa(lp4
S'distance'
p5
aF370.6368179321289
aa(lp6
S'timestamp'
p7
aF2.041553020477295
aatp8
Rp9
.ccollections
OrderedDict
p0
((lp1
(lp2
S'state'
p3
aI400
aa(lp4
S'distance'
p5
aF370.6368179321289
aa(lp6
S'timestamp'
p7
aF2.0510919094085693
aatp8
Rp9
.ccollections
OrderedDict
p0
((lp1
(lp2
S'state'
p3
aI400
aa(lp4
S'distance'
p5
aF370.6368179321289
aa(lp6
S'timestamp'
p7
aF2.0516369342803955
aatp8
Rp9
.ccollections
OrderedDict
p0
((lp1
(lp2
S'state'
p3
aI400
aa(lp4
S'distance'
p5
aF370.6368179321289
aa(lp6
S'timestamp'
p7
aF2.060683012008667
aatp8
Rp9
.ccollections
OrderedDict
p0
((lp1
(lp2
S'state'
p3
aI400
aa(lp4
S'distance'
p5
aF370.6368179321289
aa(lp6
S'timestamp'
p7
aF2.061522960662842
aatp8
Rp9
.ccollections
OrderedDict
p0
((lp1
(lp2
S'state'
p3
aI400
aa(lp4
S'distance'
p5
aF370.6368179321289
aa(lp6
S'timestamp'
p7
aF2.0712380409240723
aatp8
Rp9
.ccollections
OrderedDict
p0
((lp1
(lp2
S'state'
p3
aI400
aa(lp4
S'distance'
p5
aF370.6368179321289
aa(lp6
S'timestamp'
p7
aF2.0718231201171875
aatp8
Rp9
.ccollections
OrderedDict
p0
((lp1
(lp2
S'state'
p3
aI400
aa(lp4
S'distance'
p5
aF370.6368179321289
aa(lp6
S'timestamp'
p7
aF2.080949068069458
aatp8
Rp9
.ccollections
OrderedDict
p0
((lp1
(lp2
S'state'
p3
aI400
aa(lp4
S'distance'
p5
aF370.6368179321289
aa(lp6
S'timestamp'
p7
aF2.081278085708618
aatp8
Rp9
.ccollections
OrderedDict
p0
((lp1
(lp2
S'state'
p3
aI400
aa(lp4
S'distance'
p5
aF370.6368179321289
aa(lp6
S'timestamp'
p7
aF2.0907320976257324
aatp8
Rp9
.ccollections
OrderedDict
p0
((lp1
(lp2
S'state'
p3
aI400
aa(lp4
S'distance'
p5
aF370.6368179321289
aa(lp6
S'timestamp'
p7
aF2.0920441150665283
aatp8
Rp9
.ccollections
OrderedDict
p0
((lp1
(lp2
S'state'
p3
aI400
aa(lp4
S'distance'
p5
aF370.6368179321289
aa(lp6
S'timestamp'
p7
aF2.101146936416626
aatp8
Rp9
.ccollections
OrderedDict
p0
((lp1
(lp2
S'state'
p3
aI400
aa(lp4
S'distance'
p5
aF370.6368179321289
aa(lp6
S'timestamp'
p7
aF2.1017000675201416
aatp8
Rp9
.ccollections
OrderedDict
p0
((lp1
(lp2
S'state'
p3
aI400
aa(lp4
S'distance'
p5
aF370.6368179321289
aa(lp6
S'timestamp'
p7
aF2.1111791133880615
aatp8
Rp9
.ccollections
OrderedDict
p0
((lp1
(lp2
S'state'
p3
aI400
aa(lp4
S'distance'
p5
aF370.6368179321289
aa(lp6
S'timestamp'
p7
aF2.11183500289917
aatp8
Rp9
.ccollections
OrderedDict
p0
((lp1
(lp2
S'state'
p3
aI400
aa(lp4
S'distance'
p5
aF370.6368179321289
aa(lp6
S'timestamp'
p7
aF2.121385097503662
aatp8
Rp9
.ccollections
OrderedDict
p0
((lp1
(lp2
S'state'
p3
aI400
aa(lp4
S'distance'
p5
aF370.6368179321289
aa(lp6
S'timestamp'
p7
aF2.121464967727661
aatp8
Rp9
.ccollections
OrderedDict
p0
((lp1
(lp2
S'state'
p3
aI400
aa(lp4
S'distance'
p5
aF370.6368179321289
aa(lp6
S'timestamp'
p7
aF2.1312201023101807
aatp8
Rp9
.ccollections
OrderedDict
p0
((lp1
(lp2
S'state'
p3
aI400
aa(lp4
S'distance'
p5
aF370.6368179321289
aa(lp6
S'timestamp'
p7
aF2.131635904312134
aatp8
Rp9
.ccollections
OrderedDict
p0
((lp1
(lp2
S'state'
p3
aI400
aa(lp4
S'distance'
p5
aF370.6368179321289
aa(lp6
S'timestamp'
p7
aF2.1418380737304688
aatp8
Rp9
.ccollections
OrderedDict
p0
((lp1
(lp2
S'state'
p3
aI400
aa(lp4
S'distance'
p5
aF370.6368179321289
aa(lp6
S'timestamp'
p7
aF2.1419339179992676
aatp8
Rp9
.ccollections
OrderedDict
p0
((lp1
(lp2
S'state'
p3
aI400
aa(lp4
S'distance'
p5
aF370.6368179321289
aa(lp6
S'timestamp'
p7
aF2.151038885116577
aatp8
Rp9
.ccollections
OrderedDict
p0
((lp1
(lp2
S'state'
p3
aI400
aa(lp4
S'distance'
p5
aF370.6368179321289
aa(lp6
S'timestamp'
p7
aF2.1513900756835938
aatp8
Rp9
.ccollections
OrderedDict
p0
((lp1
(lp2
S'state'
p3
aI400
aa(lp4
S'distance'
p5
aF370.6368179321289
aa(lp6
S'timestamp'
p7
aF2.1608409881591797
aatp8
Rp9
.ccollections
OrderedDict
p0
((lp1
(lp2
S'state'
p3
aI400
aa(lp4
S'distance'
p5
aF370.6368179321289
aa(lp6
S'timestamp'
p7
aF2.161525011062622
aatp8
Rp9
.ccollections
OrderedDict
p0
((lp1
(lp2
S'state'
p3
aI400
aa(lp4
S'distance'
p5
aF370.6368179321289
aa(lp6
S'timestamp'
p7
aF2.1713030338287354
aatp8
Rp9
.ccollections
OrderedDict
p0
((lp1
(lp2
S'state'
p3
aI400
aa(lp4
S'distance'
p5
aF370.6368179321289
aa(lp6
S'timestamp'
p7
aF2.171895980834961
aatp8
Rp9
.ccollections
OrderedDict
p0
((lp1
(lp2
S'state'
p3
aI400
aa(lp4
S'distance'
p5
aF370.6368179321289
aa(lp6
S'timestamp'
p7
aF2.181051015853882
aatp8
Rp9
.ccollections
OrderedDict
p0
((lp1
(lp2
S'state'
p3
aI400
aa(lp4
S'distance'
p5
aF370.6368179321289
aa(lp6
S'timestamp'
p7
aF2.1814188957214355
aatp8
Rp9
.ccollections
OrderedDict
p0
((lp1
(lp2
S'state'
p3
aI400
aa(lp4
S'distance'
p5
aF370.6368179321289
aa(lp6
S'timestamp'
p7
aF2.200800895690918
aatp8
Rp9
.ccollections
OrderedDict
p0
((lp1
(lp2
S'state'
p3
aI400
aa(lp4
S'distance'
p5
aF370.6368179321289
aa(lp6
S'timestamp'
p7
aF2.2011990547180176
aatp8
Rp9
.ccollections
OrderedDict
p0
((lp1
(lp2
S'state'
p3
aI400
aa(lp4
S'distance'
p5
aF370.6368179321289
aa(lp6
S'timestamp'
p7
aF2.202003002166748
aatp8
Rp9
.ccollections
OrderedDict
p0
((lp1
(lp2
S'state'
p3
aI400
aa(lp4
S'distance'
p5
aF370.6368179321289
aa(lp6
S'timestamp'
p7
aF2.202083110809326
aatp8
Rp9
.ccollections
OrderedDict
p0
((lp1
(lp2
S'state'
p3
aI400
aa(lp4
S'distance'
p5
aF370.6368179321289
aa(lp6
S'timestamp'
p7
aF2.211172103881836
aatp8
Rp9
.ccollections
OrderedDict
p0
((lp1
(lp2
S'state'
p3
aI400
aa(lp4
S'distance'
p5
aF370.6368179321289
aa(lp6
S'timestamp'
p7
aF2.211980104446411
aatp8
Rp9
.ccollections
OrderedDict
p0
((lp1
(lp2
S'state'
p3
aI400
aa(lp4
S'distance'
p5
aF370.6368179321289
aa(lp6
S'timestamp'
p7
aF2.2211310863494873
aatp8
Rp9
.ccollections
OrderedDict
p0
((lp1
(lp2
S'state'
p3
aI400
aa(lp4
S'distance'
p5
aF370.6368179321289
aa(lp6
S'timestamp'
p7
aF2.221359968185425
aatp8
Rp9
.ccollections
OrderedDict
p0
((lp1
(lp2
S'state'
p3
aI400
aa(lp4
S'distance'
p5
aF370.6368179321289
aa(lp6
S'timestamp'
p7
aF2.2305870056152344
aatp8
Rp9
.ccollections
OrderedDict
p0
((lp1
(lp2
S'state'
p3
aI400
aa(lp4
S'distance'
p5
aF370.6368179321289
aa(lp6
S'timestamp'
p7
aF2.2312119007110596
aatp8
Rp9
.ccollections
OrderedDict
p0
((lp1
(lp2
S'state'
p3
aI400
aa(lp4
S'distance'
p5
aF370.6368179321289
aa(lp6
S'timestamp'
p7
aF2.2411420345306396
aatp8
Rp9
.ccollections
OrderedDict
p0
((lp1
(lp2
S'state'
p3
aI400
aa(lp4
S'distance'
p5
aF370.6368179321289
aa(lp6
S'timestamp'
p7
aF2.2420620918273926
aatp8
Rp9
.ccollections
OrderedDict
p0
((lp1
(lp2
S'state'
p3
aI400
aa(lp4
S'distance'
p5
aF370.6368179321289
aa(lp6
S'timestamp'
p7
aF2.250870943069458
aatp8
Rp9
.ccollections
OrderedDict
p0
((lp1
(lp2
S'state'
p3
aI400
aa(lp4
S'distance'
p5
aF370.6368179321289
aa(lp6
S'timestamp'
p7
aF2.2515931129455566
aatp8
Rp9
.ccollections
OrderedDict
p0
((lp1
(lp2
S'state'
p3
aI400
aa(lp4
S'distance'
p5
aF370.6368179321289
aa(lp6
S'timestamp'
p7
aF2.2614729404449463
aatp8
Rp9
.ccollections
OrderedDict
p0
((lp1
(lp2
S'state'
p3
aI400
aa(lp4
S'distance'
p5
aF370.6368179321289
aa(lp6
S'timestamp'
p7
aF2.261554002761841
aatp8
Rp9
.ccollections
OrderedDict
p0
((lp1
(lp2
S'state'
p3
aI400
aa(lp4
S'distance'
p5
aF370.6368179321289
aa(lp6
S'timestamp'
p7
aF2.2708470821380615
aatp8
Rp9
.ccollections
OrderedDict
p0
((lp1
(lp2
S'state'
p3
aI400
aa(lp4
S'distance'
p5
aF370.6368179321289
aa(lp6
S'timestamp'
p7
aF2.271172046661377
aatp8
Rp9
.ccollections
OrderedDict
p0
((lp1
(lp2
S'state'
p3
aI0
aa(lp4
S'distance'
p5
aF370.6368179321289
aa(lp6
S'timestamp'
p7
aF2.2810819149017334
aatp8
Rp9
.ccollections
OrderedDict
p0
((lp1
(lp2
S'state'
p3
aI0
aa(lp4
S'distance'
p5
aF265.83824920654297
aa(lp6
S'timestamp'
p7
aF2.8413150310516357
aatp8
Rp9
.ccollections
OrderedDict
p0
((lp1
(lp2
S'state'
p3
aI0
aa(lp4
S'distance'
p5
aF265.83824920654297
aa(lp6
S'timestamp'
p7
aF2.8513081073760986
aatp8
Rp9
.ccollections
OrderedDict
p0
((lp1
(lp2
S'state'
p3
aI0
aa(lp4
S'distance'
p5
aF265.83824920654297
aa(lp6
S'timestamp'
p7
aF2.8521769046783447
aatp8
Rp9
.ccollections
OrderedDict
p0
((lp1
(lp2
S'state'
p3
aI0
aa(lp4
S'distance'
p5
aF265.83824920654297
aa(lp6
S'timestamp'
p7
aF2.852854013442993
aatp8
Rp9
.ccollections
OrderedDict
p0
((lp1
(lp2
S'state'
p3
aI0
aa(lp4
S'distance'
p5
aF265.83824920654297
aa(lp6
S'timestamp'
p7
aF2.8608500957489014
aatp8
Rp9
.ccollections
OrderedDict
p0
((lp1
(lp2
S'state'
p3
aI0
aa(lp4
S'distance'
p5
aF265.83824920654297
aa(lp6
S'timestamp'
p7
aF2.861103057861328
aatp8
Rp9
.ccollections
OrderedDict
p0
((lp1
(lp2
S'state'
p3
aI0
aa(lp4
S'distance'
p5
aF265.83824920654297
aa(lp6
S'timestamp'
p7
aF2.880841016769409
aatp8
Rp9
.ccollections
OrderedDict
p0
((lp1
(lp2
S'state'
p3
aI0
aa(lp4
S'distance'
p5
aF265.83824920654297
aa(lp6
S'timestamp'
p7
aF2.8809990882873535
aatp8
Rp9
.ccollections
OrderedDict
p0
((lp1
(lp2
S'state'
p3
aI0
aa(lp4
S'distance'
p5
aF265.83824920654297
aa(lp6
S'timestamp'
p7
aF2.8820409774780273
aatp8
Rp9
.ccollections
OrderedDict
p0
((lp1
(lp2
S'state'
p3
aI0
aa(lp4
S'distance'
p5
aF265.83824920654297
aa(lp6
S'timestamp'
p7
aF2.8835549354553223
aatp8
Rp9
.ccollections
OrderedDict
p0
((lp1
(lp2
S'state'
p3
aI0
aa(lp4
S'distance'
p5
aF265.83824920654297
aa(lp6
S'timestamp'
p7
aF2.8908181190490723
aatp8
Rp9
.ccollections
OrderedDict
p0
((lp1
(lp2
S'state'
p3
aI0
aa(lp4
S'distance'
p5
aF265.83824920654297
aa(lp6
S'timestamp'
p7
aF2.891666889190674
aatp8
Rp9
.ccollections
OrderedDict
p0
((lp1
(lp2
S'state'
p3
aI0
aa(lp4
S'distance'
p5
aF265.83824920654297
aa(lp6
S'timestamp'
p7
aF2.9008090496063232
aatp8
Rp9
.ccollections
OrderedDict
p0
((lp1
(lp2
S'state'
p3
aI0
aa(lp4
S'distance'
p5
aF265.83824920654297
aa(lp6
S'timestamp'
p7
aF2.901297092437744
aatp8
Rp9
.ccollections
OrderedDict
p0
((lp1
(lp2
S'state'
p3
aI0
aa(lp4
S'distance'
p5
aF265.83824920654297
aa(lp6
S'timestamp'
p7
aF2.910737991333008
aatp8
Rp9
.ccollections
OrderedDict
p0
((lp1
(lp2
S'state'
p3
aI0
aa(lp4
S'distance'
p5
aF265.83824920654297
aa(lp6
S'timestamp'
p7
aF2.9112770557403564
aatp8
Rp9
.ccollections
OrderedDict
p0
((lp1
(lp2
S'state'
p3
aI0
aa(lp4
S'distance'
p5
aF265.83824920654297
aa(lp6
S'timestamp'
p7
aF2.920905113220215
aatp8
Rp9
.ccollections
OrderedDict
p0
((lp1
(lp2
S'state'
p3
aI0
aa(lp4
S'distance'
p5
aF265.83824920654297
aa(lp6
S'timestamp'
p7
aF2.920996904373169
aatp8
Rp9
.ccollections
OrderedDict
p0
((lp1
(lp2
S'state'
p3
aI0
aa(lp4
S'distance'
p5
aF265.83824920654297
aa(lp6
S'timestamp'
p7
aF2.940824031829834
aatp8
Rp9
.ccollections
OrderedDict
p0
((lp1
(lp2
S'state'
p3
aI0
aa(lp4
S'distance'
p5
aF265.83824920654297
aa(lp6
S'timestamp'
p7
aF2.941771984100342
aatp8
Rp9
.ccollections
OrderedDict
p0
((lp1
(lp2
S'state'
p3
aI0
aa(lp4
S'distance'
p5
aF265.83824920654297
aa(lp6
S'timestamp'
p7
aF2.9422719478607178
aatp8
Rp9
.ccollections
OrderedDict
p0
((lp1
(lp2
S'state'
p3
aI0
aa(lp4
S'distance'
p5
aF265.83824920654297
aa(lp6
S'timestamp'
p7
aF2.9440040588378906
aatp8
Rp9
.ccollections
OrderedDict
p0
((lp1
(lp2
S'state'
p3
aI0
aa(lp4
S'distance'
p5
aF265.83824920654297
aa(lp6
S'timestamp'
p7
aF2.9607739448547363
aatp8
Rp9
.ccollections
OrderedDict
p0
((lp1
(lp2
S'state'
p3
aI0
aa(lp4
S'distance'
p5
aF265.83824920654297
aa(lp6
S'timestamp'
p7
aF2.9612228870391846
aatp8
Rp9
.ccollections
OrderedDict
p0
((lp1
(lp2
S'state'
p3
aI0
aa(lp4
S'distance'
p5
aF265.83824920654297
aa(lp6
S'timestamp'
p7
aF2.962230920791626
aatp8
Rp9
.ccollections
OrderedDict
p0
((lp1
(lp2
S'state'
p3
aI0
aa(lp4
S'distance'
p5
aF265.83824920654297
aa(lp6
S'timestamp'
p7
aF2.9628100395202637
aatp8
Rp9
.ccollections
OrderedDict
p0
((lp1
(lp2
S'state'
p3
aI0
aa(lp4
S'distance'
p5
aF265.83824920654297
aa(lp6
S'timestamp'
p7
aF2.97062611579895
aatp8
Rp9
.ccollections
OrderedDict
p0
((lp1
(lp2
S'state'
p3
aI0
aa(lp4
S'distance'
p5
aF265.83824920654297
aa(lp6
S'timestamp'
p7
aF2.970931053161621
aatp8
Rp9
.ccollections
OrderedDict
p0
((lp1
(lp2
S'state'
p3
aI0
aa(lp4
S'distance'
p5
aF265.83824920654297
aa(lp6
S'timestamp'
p7
aF2.981019973754883
aatp8
Rp9
.ccollections
OrderedDict
p0
((lp1
(lp2
S'state'
p3
aI0
aa(lp4
S'distance'
p5
aF265.83824920654297
aa(lp6
S'timestamp'
p7
aF2.981113910675049
aatp8
Rp9
.ccollections
OrderedDict
p0
((lp1
(lp2
S'state'
p3
aI0
aa(lp4
S'distance'
p5
aF265.83824920654297
aa(lp6
S'timestamp'
p7
aF3.030703067779541
aatp8
Rp9
.ccollections
OrderedDict
p0
((lp1
(lp2
S'state'
p3
aI0
aa(lp4
S'distance'
p5
aF265.83824920654297
aa(lp6
S'timestamp'
p7
aF3.031291961669922
aatp8
Rp9
.ccollections
OrderedDict
p0
((lp1
(lp2
S'state'
p3
aI0
aa(lp4
S'distance'
p5
aF265.83824920654297
aa(lp6
S'timestamp'
p7
aF3.0328691005706787
aatp8
Rp9
.ccollections
OrderedDict
p0
((lp1
(lp2
S'state'
p3
aI0
aa(lp4
S'distance'
p5
aF265.83824920654297
aa(lp6
S'timestamp'
p7
aF3.0336050987243652
aatp8
Rp9
.ccollections
OrderedDict
p0
((lp1
(lp2
S'state'
p3
aI0
aa(lp4
S'distance'
p5
aF265.83824920654297
aa(lp6
S'timestamp'
p7
aF3.041243076324463
aatp8
Rp9
.ccollections
OrderedDict
p0
((lp1
(lp2
S'state'
p3
aI0
aa(lp4
S'distance'
p5
aF265.83824920654297
aa(lp6
S'timestamp'
p7
aF3.05082106590271
aatp8
Rp9
.ccollections
OrderedDict
p0
((lp1
(lp2
S'state'
p3
aI0
aa(lp4
S'distance'
p5
aF265.83824920654297
aa(lp6
S'timestamp'
p7
aF3.0517051219940186
aatp8
Rp9
.ccollections
OrderedDict
p0
((lp1
(lp2
S'state'
p3
aI0
aa(lp4
S'distance'
p5
aF265.83824920654297
aa(lp6
S'timestamp'
p7
aF3.0526280403137207
aatp8
Rp9
.ccollections
OrderedDict
p0
((lp1
(lp2
S'state'
p3
aI0
aa(lp4
S'distance'
p5
aF265.83824920654297
aa(lp6
S'timestamp'
p7
aF3.0536739826202393
aatp8
Rp9
.ccollections
OrderedDict
p0
((lp1
(lp2
S'state'
p3
aI0
aa(lp4
S'distance'
p5
aF265.83824920654297
aa(lp6
S'timestamp'
p7
aF3.060821056365967
aatp8
Rp9
.ccollections
OrderedDict
p0
((lp1
(lp2
S'state'
p3
aI0
aa(lp4
S'distance'
p5
aF265.83824920654297
aa(lp6
S'timestamp'
p7
aF3.0612881183624268
aatp8
Rp9
.ccollections
OrderedDict
p0
((lp1
(lp2
S'state'
p3
aI0
aa(lp4
S'distance'
p5
aF265.83824920654297
aa(lp6
S'timestamp'
p7
aF3.062804937362671
aatp8
Rp9
.ccollections
OrderedDict
p0
((lp1
(lp2
S'state'
p3
aI0
aa(lp4
S'distance'
p5
aF265.83824920654297
aa(lp6
S'timestamp'
p7
aF3.063823938369751
aatp8
Rp9
.ccollections
OrderedDict
p0
((lp1
(lp2
S'state'
p3
aI0
aa(lp4
S'distance'
p5
aF265.83824920654297
aa(lp6
S'timestamp'
p7
aF3.0905590057373047
aatp8
Rp9
.ccollections
OrderedDict
p0
((lp1
(lp2
S'state'
p3
aI0
aa(lp4
S'distance'
p5
aF265.83824920654297
aa(lp6
S'timestamp'
p7
aF3.0918540954589844
aatp8
Rp9
.ccollections
OrderedDict
p0
((lp1
(lp2
S'state'
p3
aI0
aa(lp4
S'distance'
p5
aF265.83824920654297
aa(lp6
S'timestamp'
p7
aF3.0919299125671387
aatp8
Rp9
.ccollections
OrderedDict
p0
((lp1
(lp2
S'state'
p3
aI0
aa(lp4
S'distance'
p5
aF265.83824920654297
aa(lp6
S'timestamp'
p7
aF3.0920000076293945
aatp8
Rp9
.ccollections
OrderedDict
p0
((lp1
(lp2
S'state'
p3
aI0
aa(lp4
S'distance'
p5
aF265.83824920654297
aa(lp6
S'timestamp'
p7
aF3.1013450622558594
aatp8
Rp9
.ccollections
OrderedDict
p0
((lp1
(lp2
S'state'
p3
aI0
aa(lp4
S'distance'
p5
aF265.83824920654297
aa(lp6
S'timestamp'
p7
aF3.101839065551758
aatp8
Rp9
.ccollections
OrderedDict
p0
((lp1
(lp2
S'state'
p3
aI0
aa(lp4
S'distance'
p5
aF265.83824920654297
aa(lp6
S'timestamp'
p7
aF3.10223388671875
aatp8
Rp9
.ccollections
OrderedDict
p0
((lp1
(lp2
S'state'
p3
aI0
aa(lp4
S'distance'
p5
aF265.83824920654297
aa(lp6
S'timestamp'
p7
aF3.1112658977508545
aatp8
Rp9
.ccollections
OrderedDict
p0
((lp1
(lp2
S'state'
p3
aI0
aa(lp4
S'distance'
p5
aF265.83824920654297
aa(lp6
S'timestamp'
p7
aF3.111409902572632
aatp8
Rp9
.ccollections
OrderedDict
p0
((lp1
(lp2
S'state'
p3
aI0
aa(lp4
S'distance'
p5
aF265.83824920654297
aa(lp6
S'timestamp'
p7
aF3.1120779514312744
aatp8
Rp9
.ccollections
OrderedDict
p0
((lp1
(lp2
S'state'
p3
aI0
aa(lp4
S'distance'
p5
aF265.83824920654297
aa(lp6
S'timestamp'
p7
aF3.1129519939422607
aatp8
Rp9
.ccollections
OrderedDict
p0
((lp1
(lp2
S'state'
p3
aI0
aa(lp4
S'distance'
p5
aF265.83824920654297
aa(lp6
S'timestamp'
p7
aF3.1209399700164795
aatp8
Rp9
.ccollections
OrderedDict
p0
((lp1
(lp2
S'state'
p3
aI0
aa(lp4
S'distance'
p5
aF265.83824920654297
aa(lp6
S'timestamp'
p7
aF3.1219279766082764
aatp8
Rp9
.ccollections
OrderedDict
p0
((lp1
(lp2
S'state'
p3
aI0
aa(lp4
S'distance'
p5
aF265.83824920654297
aa(lp6
S'timestamp'
p7
aF3.122001886367798
aatp8
Rp9
.ccollections
OrderedDict
p0
((lp1
(lp2
S'state'
p3
aI0
aa(lp4
S'distance'
p5
aF265.83824920654297
aa(lp6
S'timestamp'
p7
aF3.1229350566864014
aatp8
Rp9
.ccollections
OrderedDict
p0
((lp1
(lp2
S'state'
p3
aI0
aa(lp4
S'distance'
p5
aF265.83824920654297
aa(lp6
S'timestamp'
p7
aF3.1312689781188965
aatp8
Rp9
.ccollections
OrderedDict
p0
((lp1
(lp2
S'state'
p3
aI0
aa(lp4
S'distance'
p5
aF265.83824920654297
aa(lp6
S'timestamp'
p7
aF3.13252592086792
aatp8
Rp9
.ccollections
OrderedDict
p0
((lp1
(lp2
S'state'
p3
aI0
aa(lp4
S'distance'
p5
aF265.83824920654297
aa(lp6
S'timestamp'
p7
aF3.1407411098480225
aatp8
Rp9
.ccollections
OrderedDict
p0
((lp1
(lp2
S'state'
p3
aI0
aa(lp4
S'distance'
p5
aF265.83824920654297
aa(lp6
S'timestamp'
p7
aF3.141390085220337
aatp8
Rp9
.ccollections
OrderedDict
p0
((lp1
(lp2
S'state'
p3
aI0
aa(lp4
S'distance'
p5
aF265.83824920654297
aa(lp6
S'timestamp'
p7
aF3.1511359214782715
aatp8
Rp9
.ccollections
OrderedDict
p0
((lp1
(lp2
S'state'
p3
aI0
aa(lp4
S'distance'
p5
aF265.83824920654297
aa(lp6
S'timestamp'
p7
aF3.151214122772217
aatp8
Rp9
.ccollections
OrderedDict
p0
((lp1
(lp2
S'state'
p3
aI0
aa(lp4
S'distance'
p5
aF265.83824920654297
aa(lp6
S'timestamp'
p7
aF3.161073923110962
aatp8
Rp9
.ccollections
OrderedDict
p0
((lp1
(lp2
S'state'
p3
aI0
aa(lp4
S'distance'
p5
aF265.83824920654297
aa(lp6
S'timestamp'
p7
aF3.161684036254883
aatp8
Rp9
.ccollections
OrderedDict
p0
((lp1
(lp2
S'state'
p3
aI0
aa(lp4
S'distance'
p5
aF265.83824920654297
aa(lp6
S'timestamp'
p7
aF3.170780897140503
aatp8
Rp9
.ccollections
OrderedDict
p0
((lp1
(lp2
S'state'
p3
aI0
aa(lp4
S'distance'
p5
aF265.83824920654297
aa(lp6
S'timestamp'
p7
aF3.1716859340667725
aatp8
Rp9
.ccollections
OrderedDict
p0
((lp1
(lp2
S'state'
p3
aI0
aa(lp4
S'distance'
p5
aF265.83824920654297
aa(lp6
S'timestamp'
p7
aF3.180629014968872
aatp8
Rp9
.ccollections
OrderedDict
p0
((lp1
(lp2
S'state'
p3
aI0
aa(lp4
S'distance'
p5
aF265.83824920654297
aa(lp6
S'timestamp'
p7
aF3.181260108947754
aatp8
Rp9
.ccollections
OrderedDict
p0
((lp1
(lp2
S'state'
p3
aI0
aa(lp4
S'distance'
p5
aF265.83824920654297
aa(lp6
S'timestamp'
p7
aF3.190869092941284
aatp8
Rp9
.ccollections
OrderedDict
p0
((lp1
(lp2
S'state'
p3
aI0
aa(lp4
S'distance'
p5
aF265.83824920654297
aa(lp6
S'timestamp'
p7
aF3.191575050354004
aatp8
Rp9
.ccollections
OrderedDict
p0
((lp1
(lp2
S'state'
p3
aI0
aa(lp4
S'distance'
p5
aF265.83824920654297
aa(lp6
S'timestamp'
p7
aF3.201225996017456
aatp8
Rp9
.ccollections
OrderedDict
p0
((lp1
(lp2
S'state'
p3
aI0
aa(lp4
S'distance'
p5
aF265.83824920654297
aa(lp6
S'timestamp'
p7
aF3.2013280391693115
aatp8
Rp9
.ccollections
OrderedDict
p0
((lp1
(lp2
S'state'
p3
aI0
aa(lp4
S'distance'
p5
aF265.83824920654297
aa(lp6
S'timestamp'
p7
aF3.2111330032348633
aatp8
Rp9
.ccollections
OrderedDict
p0
((lp1
(lp2
S'state'
p3
aI0
aa(lp4
S'distance'
p5
aF265.83824920654297
aa(lp6
S'timestamp'
p7
aF3.2113819122314453
aatp8
Rp9
.ccollections
OrderedDict
p0
((lp1
(lp2
S'state'
p3
aI0
aa(lp4
S'distance'
p5
aF265.83824920654297
aa(lp6
S'timestamp'
p7
aF3.220715045928955
aatp8
Rp9
.ccollections
OrderedDict
p0
((lp1
(lp2
S'state'
p3
aI0
aa(lp4
S'distance'
p5
aF265.83824920654297
aa(lp6
S'timestamp'
p7
aF3.221282958984375
aatp8
Rp9
.ccollections
OrderedDict
p0
((lp1
(lp2
S'state'
p3
aI0
aa(lp4
S'distance'
p5
aF265.83824920654297
aa(lp6
S'timestamp'
p7
aF3.231473922729492
aatp8
Rp9
.ccollections
OrderedDict
p0
((lp1
(lp2
S'state'
p3
aI0
aa(lp4
S'distance'
p5
aF265.83824920654297
aa(lp6
S'timestamp'
p7
aF3.232445001602173
aatp8
Rp9
.ccollections
OrderedDict
p0
((lp1
(lp2
S'state'
p3
aI0
aa(lp4
S'distance'
p5
aF265.83824920654297
aa(lp6
S'timestamp'
p7
aF3.25162410736084
aatp8
Rp9
.ccollections
OrderedDict
p0
((lp1
(lp2
S'state'
p3
aI0
aa(lp4
S'distance'
p5
aF265.83824920654297
aa(lp6
S'timestamp'
p7
aF3.251702070236206
aatp8
Rp9
.ccollections
OrderedDict
p0
((lp1
(lp2
S'state'
p3
aI0
aa(lp4
S'distance'
p5
aF265.83824920654297
aa(lp6
S'timestamp'
p7
aF3.253103017807007
aatp8
Rp9
.ccollections
OrderedDict
p0
((lp1
(lp2
S'state'
p3
aI0
aa(lp4
S'distance'
p5
aF265.83824920654297
aa(lp6
S'timestamp'
p7
aF3.253777027130127
aatp8
Rp9
.ccollections
OrderedDict
p0
((lp1
(lp2
S'state'
p3
aI0
aa(lp4
S'distance'
p5
aF265.83824920654297
aa(lp6
S'timestamp'
p7
aF3.260468006134033
aatp8
Rp9
.ccollections
OrderedDict
p0
((lp1
(lp2
S'state'
p3
aI0
aa(lp4
S'distance'
p5
aF265.83824920654297
aa(lp6
S'timestamp'
p7
aF3.260931968688965
aatp8
Rp9
.ccollections
OrderedDict
p0
((lp1
(lp2
S'state'
p3
aI0
aa(lp4
S'distance'
p5
aF265.83824920654297
aa(lp6
S'timestamp'
p7
aF3.2705259323120117
aatp8
Rp9
.ccollections
OrderedDict
p0
((lp1
(lp2
S'state'
p3
aI0
aa(lp4
S'distance'
p5
aF265.83824920654297
aa(lp6
S'timestamp'
p7
aF3.271198034286499
aatp8
Rp9
.ccollections
OrderedDict
p0
((lp1
(lp2
S'state'
p3
aI0
aa(lp4
S'distance'
p5
aF265.83824920654297
aa(lp6
S'timestamp'
p7
aF3.2805681228637695
aatp8
Rp9
.ccollections
OrderedDict
p0
((lp1
(lp2
S'state'
p3
aI0
aa(lp4
S'distance'
p5
aF265.83824920654297
aa(lp6
S'timestamp'
p7
aF3.281240940093994
aatp8
Rp9
.ccollections
OrderedDict
p0
((lp1
(lp2
S'state'
p3
aI0
aa(lp4
S'distance'
p5
aF265.83824920654297
aa(lp6
S'timestamp'
p7
aF3.2910830974578857
aatp8
Rp9
.ccollections
OrderedDict
p0
((lp1
(lp2
S'state'
p3
aI0
aa(lp4
S'distance'
p5
aF265.83824920654297
aa(lp6
S'timestamp'
p7
aF3.2917370796203613
aatp8
Rp9
.ccollections
OrderedDict
p0
((lp1
(lp2
S'state'
p3
aI0
aa(lp4
S'distance'
p5
aF265.83824920654297
aa(lp6
S'timestamp'
p7
aF3.3006420135498047
aatp8
Rp9
.ccollections
OrderedDict
p0
((lp1
(lp2
S'state'
p3
aI0
aa(lp4
S'distance'
p5
aF265.83824920654297
aa(lp6
S'timestamp'
p7
aF3.31154203414917
aatp8
Rp9
.ccollections
OrderedDict
p0
((lp1
(lp2
S'state'
p3
aI0
aa(lp4
S'distance'
p5
aF265.83824920654297
aa(lp6
S'timestamp'
p7
aF3.3116819858551025
aatp8
Rp9
.ccollections
OrderedDict
p0
((lp1
(lp2
S'state'
p3
aI0
aa(lp4
S'distance'
p5
aF265.83824920654297
aa(lp6
S'timestamp'
p7
aF3.3118419647216797
aatp8
Rp9
.ccollections
OrderedDict
p0
((lp1
(lp2
S'state'
p3
aI0
aa(lp4
S'distance'
p5
aF265.83824920654297
aa(lp6
S'timestamp'
p7
aF3.320585012435913
aatp8
Rp9
.ccollections
OrderedDict
p0
((lp1
(lp2
S'state'
p3
aI0
aa(lp4
S'distance'
p5
aF265.83824920654297
aa(lp6
S'timestamp'
p7
aF3.3212900161743164
aatp8
Rp9
.ccollections
OrderedDict
p0
((lp1
(lp2
S'state'
p3
aI0
aa(lp4
S'distance'
p5
aF265.83824920654297
aa(lp6
S'timestamp'
p7
aF3.330662965774536
aatp8
Rp9
.ccollections
OrderedDict
p0
((lp1
(lp2
S'state'
p3
aI0
aa(lp4
S'distance'
p5
aF265.83824920654297
aa(lp6
S'timestamp'
p7
aF3.331362009048462
aatp8
Rp9
.ccollections
OrderedDict
p0
((lp1
(lp2
S'state'
p3
aI0
aa(lp4
S'distance'
p5
aF265.83824920654297
aa(lp6
S'timestamp'
p7
aF3.3406789302825928
aatp8
Rp9
.ccollections
OrderedDict
p0
((lp1
(lp2
S'state'
p3
aI0
aa(lp4
S'distance'
p5
aF265.83824920654297
aa(lp6
S'timestamp'
p7
aF3.3415989875793457
aatp8
Rp9
.ccollections
OrderedDict
p0
((lp1
(lp2
S'state'
p3
aI0
aa(lp4
S'distance'
p5
aF265.83824920654297
aa(lp6
S'timestamp'
p7
aF3.351362943649292
aatp8
Rp9
.ccollections
OrderedDict
p0
((lp1
(lp2
S'state'
p3
aI0
aa(lp4
S'distance'
p5
aF265.83824920654297
aa(lp6
S'timestamp'
p7
aF3.351624011993408
aatp8
Rp9
.ccollections
OrderedDict
p0
((lp1
(lp2
S'state'
p3
aI0
aa(lp4
S'distance'
p5
aF265.83824920654297
aa(lp6
S'timestamp'
p7
aF3.360780954360962
aatp8
Rp9
.ccollections
OrderedDict
p0
((lp1
(lp2
S'state'
p3
aI0
aa(lp4
S'distance'
p5
aF265.83824920654297
aa(lp6
S'timestamp'
p7
aF3.361459970474243
aatp8
Rp9
.ccollections
OrderedDict
p0
((lp1
(lp2
S'state'
p3
aI0
aa(lp4
S'distance'
p5
aF265.83824920654297
aa(lp6
S'timestamp'
p7
aF3.370594024658203
aatp8
Rp9
.ccollections
OrderedDict
p0
((lp1
(lp2
S'state'
p3
aI0
aa(lp4
S'distance'
p5
aF265.83824920654297
aa(lp6
S'timestamp'
p7
aF3.37143611907959
aatp8
Rp9
.ccollections
OrderedDict
p0
((lp1
(lp2
S'state'
p3
aI0
aa(lp4
S'distance'
p5
aF265.83824920654297
aa(lp6
S'timestamp'
p7
aF3.380645990371704
aatp8
Rp9
.ccollections
OrderedDict
p0
((lp1
(lp2
S'state'
p3
aI0
aa(lp4
S'distance'
p5
aF265.83824920654297
aa(lp6
S'timestamp'
p7
aF3.381598949432373
aatp8
Rp9
.ccollections
OrderedDict
p0
((lp1
(lp2
S'state'
p3
aI0
aa(lp4
S'distance'
p5
aF265.83824920654297
aa(lp6
S'timestamp'
p7
aF3.3906099796295166
aatp8
Rp9
.ccollections
OrderedDict
p0
((lp1
(lp2
S'state'
p3
aI0
aa(lp4
S'distance'
p5
aF265.83824920654297
aa(lp6
S'timestamp'
p7
aF3.3911080360412598
aatp8
Rp9
.ccollections
OrderedDict
p0
((lp1
(lp2
S'state'
p3
aI0
aa(lp4
S'distance'
p5
aF265.83824920654297
aa(lp6
S'timestamp'
p7
aF3.4008119106292725
aatp8
Rp9
.ccollections
OrderedDict
p0
((lp1
(lp2
S'state'
p3
aI0
aa(lp4
S'distance'
p5
aF265.83824920654297
aa(lp6
S'timestamp'
p7
aF3.4010961055755615
aatp8
Rp9
.ccollections
OrderedDict
p0
((lp1
(lp2
S'state'
p3
aI0
aa(lp4
S'distance'
p5
aF265.83824920654297
aa(lp6
S'timestamp'
p7
aF3.411189079284668
aatp8
Rp9
.ccollections
OrderedDict
p0
((lp1
(lp2
S'state'
p3
aI0
aa(lp4
S'distance'
p5
aF265.83824920654297
aa(lp6
S'timestamp'
p7
aF3.411271095275879
aatp8
Rp9
.ccollections
OrderedDict
p0
((lp1
(lp2
S'state'
p3
aI0
aa(lp4
S'distance'
p5
aF265.83824920654297
aa(lp6
S'timestamp'
p7
aF3.420522928237915
aatp8
Rp9
.ccollections
OrderedDict
p0
((lp1
(lp2
S'state'
p3
aI400
aa(lp4
S'distance'
p5
aF265.83824920654297
aa(lp6
S'timestamp'
p7
aF3.4213480949401855
aatp8
Rp9
.ccollections
OrderedDict
p0
((lp1
(lp2
S'state'
p3
aI400
aa(lp4
S'distance'
p5
aF265.83824920654297
aa(lp6
S'timestamp'
p7
aF3.4419898986816406
aatp8
Rp9
.ccollections
OrderedDict
p0
((lp1
(lp2
S'state'
p3
aI400
aa(lp4
S'distance'
p5
aF265.83824920654297
aa(lp6
S'timestamp'
p7
aF3.4422008991241455
aatp8
Rp9
.ccollections
OrderedDict
p0
((lp1
(lp2
S'state'
p3
aI400
aa(lp4
S'distance'
p5
aF265.83824920654297
aa(lp6
S'timestamp'
p7
aF3.442657947540283
aatp8
Rp9
.ccollections
OrderedDict
p0
((lp1
(lp2
S'state'
p3
aI400
aa(lp4
S'distance'
p5
aF265.83824920654297
aa(lp6
S'timestamp'
p7
aF3.442754030227661
aatp8
Rp9
.ccollections
OrderedDict
p0
((lp1
(lp2
S'state'
p3
aI400
aa(lp4
S'distance'
p5
aF265.83824920654297
aa(lp6
S'timestamp'
p7
aF3.460832118988037
aatp8
Rp9
.ccollections
OrderedDict
p0
((lp1
(lp2
S'state'
p3
aI400
aa(lp4
S'distance'
p5
aF265.83824920654297
aa(lp6
S'timestamp'
p7
aF3.4713919162750244
aatp8
Rp9
.ccollections
OrderedDict
p0
((lp1
(lp2
S'state'
p3
aI400
aa(lp4
S'distance'
p5
aF265.83824920654297
aa(lp6
S'timestamp'
p7
aF3.4716548919677734
aatp8
Rp9
.ccollections
OrderedDict
p0
((lp1
(lp2
S'state'
p3
aI400
aa(lp4
S'distance'
p5
aF265.83824920654297
aa(lp6
S'timestamp'
p7
aF3.4729321002960205
aatp8
Rp9
.ccollections
OrderedDict
p0
((lp1
(lp2
S'state'
p3
aI400
aa(lp4
S'distance'
p5
aF265.83824920654297
aa(lp6
S'timestamp'
p7
aF3.473957061767578
aatp8
Rp9
.ccollections
OrderedDict
p0
((lp1
(lp2
S'state'
p3
aI400
aa(lp4
S'distance'
p5
aF265.83824920654297
aa(lp6
S'timestamp'
p7
aF3.480609893798828
aatp8
Rp9
.ccollections
OrderedDict
p0
((lp1
(lp2
S'state'
p3
aI400
aa(lp4
S'distance'
p5
aF265.83824920654297
aa(lp6
S'timestamp'
p7
aF3.481282949447632
aatp8
Rp9
.ccollections
OrderedDict
p0
((lp1
(lp2
S'state'
p3
aI400
aa(lp4
S'distance'
p5
aF265.83824920654297
aa(lp6
S'timestamp'
p7
aF3.4817910194396973
aatp8
Rp9
.ccollections
OrderedDict
p0
((lp1
(lp2
S'state'
p3
aI400
aa(lp4
S'distance'
p5
aF265.83824920654297
aa(lp6
S'timestamp'
p7
aF3.4908080101013184
aatp8
Rp9
.ccollections
OrderedDict
p0
((lp1
(lp2
S'state'
p3
aI400
aa(lp4
S'distance'
p5
aF265.83824920654297
aa(lp6
S'timestamp'
p7
aF3.4914309978485107
aatp8
Rp9
.ccollections
OrderedDict
p0
((lp1
(lp2
S'state'
p3
aI400
aa(lp4
S'distance'
p5
aF265.83824920654297
aa(lp6
S'timestamp'
p7
aF3.500533103942871
aatp8
Rp9
.ccollections
OrderedDict
p0
((lp1
(lp2
S'state'
p3
aI400
aa(lp4
S'distance'
p5
aF265.83824920654297
aa(lp6
S'timestamp'
p7
aF3.5205249786376953
aatp8
Rp9
.ccollections
OrderedDict
p0
((lp1
(lp2
S'state'
p3
aI400
aa(lp4
S'distance'
p5
aF265.83824920654297
aa(lp6
S'timestamp'
p7
aF3.5217299461364746
aatp8
Rp9
.ccollections
OrderedDict
p0
((lp1
(lp2
S'state'
p3
aI400
aa(lp4
S'distance'
p5
aF265.83824920654297
aa(lp6
S'timestamp'
p7
aF3.541327953338623
aatp8
Rp9
.ccollections
OrderedDict
p0
((lp1
(lp2
S'state'
p3
aI400
aa(lp4
S'distance'
p5
aF265.83824920654297
aa(lp6
S'timestamp'
p7
aF3.541506052017212
aatp8
Rp9
.ccollections
OrderedDict
p0
((lp1
(lp2
S'state'
p3
aI400
aa(lp4
S'distance'
p5
aF265.83824920654297
aa(lp6
S'timestamp'
p7
aF3.541923999786377
aatp8
Rp9
.ccollections
OrderedDict
p0
((lp1
(lp2
S'state'
p3
aI400
aa(lp4
S'distance'
p5
aF265.83824920654297
aa(lp6
S'timestamp'
p7
aF3.5434510707855225
aatp8
Rp9
.ccollections
OrderedDict
p0
((lp1
(lp2
S'state'
p3
aI400
aa(lp4
S'distance'
p5
aF265.83824920654297
aa(lp6
S'timestamp'
p7
aF3.550740957260132
aatp8
Rp9
.ccollections
OrderedDict
p0
((lp1
(lp2
S'state'
p3
aI400
aa(lp4
S'distance'
p5
aF265.83824920654297
aa(lp6
S'timestamp'
p7
aF3.5518369674682617
aatp8
Rp9
.ccollections
OrderedDict
p0
((lp1
(lp2
S'state'
p3
aI400
aa(lp4
S'distance'
p5
aF265.83824920654297
aa(lp6
S'timestamp'
p7
aF3.551996946334839
aatp8
Rp9
.ccollections
OrderedDict
p0
((lp1
(lp2
S'state'
p3
aI400
aa(lp4
S'distance'
p5
aF265.83824920654297
aa(lp6
S'timestamp'
p7
aF3.5528030395507812
aatp8
Rp9
.ccollections
OrderedDict
p0
((lp1
(lp2
S'state'
p3
aI400
aa(lp4
S'distance'
p5
aF265.83824920654297
aa(lp6
S'timestamp'
p7
aF3.5610649585723877
aatp8
Rp9
.ccollections
OrderedDict
p0
((lp1
(lp2
S'state'
p3
aI400
aa(lp4
S'distance'
p5
aF265.83824920654297
aa(lp6
S'timestamp'
p7
aF3.5615220069885254
aatp8
Rp9
.ccollections
OrderedDict
p0
((lp1
(lp2
S'state'
p3
aI400
aa(lp4
S'distance'
p5
aF265.83824920654297
aa(lp6
S'timestamp'
p7
aF3.561819076538086
aatp8
Rp9
.ccollections
OrderedDict
p0
((lp1
(lp2
S'state'
p3
aI400
aa(lp4
S'distance'
p5
aF265.83824920654297
aa(lp6
S'timestamp'
p7
aF3.5708019733428955
aatp8
Rp9
.ccollections
OrderedDict
p0
((lp1
(lp2
S'state'
p3
aI400
aa(lp4
S'distance'
p5
aF265.83824920654297
aa(lp6
S'timestamp'
p7
aF3.5709939002990723
aatp8
Rp9
.ccollections
OrderedDict
p0
((lp1
(lp2
S'state'
p3
aI400
aa(lp4
S'distance'
p5
aF265.83824920654297
aa(lp6
S'timestamp'
p7
aF3.580704927444458
aatp8
Rp9
.ccollections
OrderedDict
p0
((lp1
(lp2
S'state'
p3
aI400
aa(lp4
S'distance'
p5
aF265.83824920654297
aa(lp6
S'timestamp'
p7
aF3.581552028656006
aatp8
Rp9
.ccollections
OrderedDict
p0
((lp1
(lp2
S'state'
p3
aI400
aa(lp4
S'distance'
p5
aF265.83824920654297
aa(lp6
S'timestamp'
p7
aF3.590670108795166
aatp8
Rp9
.ccollections
OrderedDict
p0
((lp1
(lp2
S'state'
p3
aI400
aa(lp4
S'distance'
p5
aF265.83824920654297
aa(lp6
S'timestamp'
p7
aF3.5917060375213623
aatp8
Rp9
.ccollections
OrderedDict
p0
((lp1
(lp2
S'state'
p3
aI400
aa(lp4
S'distance'
p5
aF265.83824920654297
aa(lp6
S'timestamp'
p7
aF3.6009979248046875
aatp8
Rp9
.ccollections
OrderedDict
p0
((lp1
(lp2
S'state'
p3
aI400
aa(lp4
S'distance'
p5
aF265.83824920654297
aa(lp6
S'timestamp'
p7
aF3.601069927215576
aatp8
Rp9
.ccollections
OrderedDict
p0
((lp1
(lp2
S'state'
p3
aI400
aa(lp4
S'distance'
p5
aF265.83824920654297
aa(lp6
S'timestamp'
p7
aF3.61088490486145
aatp8
Rp9
.ccollections
OrderedDict
p0
((lp1
(lp2
S'state'
p3
aI400
aa(lp4
S'distance'
p5
aF265.83824920654297
aa(lp6
S'timestamp'
p7
aF3.61217999458313
aatp8
Rp9
.ccollections
OrderedDict
p0
((lp1
(lp2
S'state'
p3
aI400
aa(lp4
S'distance'
p5
aF265.83824920654297
aa(lp6
S'timestamp'
p7
aF3.620929002761841
aatp8
Rp9
.ccollections
OrderedDict
p0
((lp1
(lp2
S'state'
p3
aI400
aa(lp4
S'distance'
p5
aF265.83824920654297
aa(lp6
S'timestamp'
p7
aF3.6312270164489746
aatp8
Rp9
.ccollections
OrderedDict
p0
((lp1
(lp2
S'state'
p3
aI400
aa(lp4
S'distance'
p5
aF265.83824920654297
aa(lp6
S'timestamp'
p7
aF3.6316580772399902
aatp8
Rp9
.ccollections
OrderedDict
p0
((lp1
(lp2
S'state'
p3
aI400
aa(lp4
S'distance'
p5
aF265.83824920654297
aa(lp6
S'timestamp'
p7
aF3.633413076400757
aatp8
Rp9
.ccollections
OrderedDict
p0
((lp1
(lp2
S'state'
p3
aI400
aa(lp4
S'distance'
p5
aF265.83824920654297
aa(lp6
S'timestamp'
p7
aF3.6412460803985596
aatp8
Rp9
.ccollections
OrderedDict
p0
((lp1
(lp2
S'state'
p3
aI400
aa(lp4
S'distance'
p5
aF265.83824920654297
aa(lp6
S'timestamp'
p7
aF3.641324996948242
aatp8
Rp9
.ccollections
OrderedDict
p0
((lp1
(lp2
S'state'
p3
aI400
aa(lp4
S'distance'
p5
aF265.83824920654297
aa(lp6
S'timestamp'
p7
aF3.66269588470459
aatp8
Rp9
.ccollections
OrderedDict
p0
((lp1
(lp2
S'state'
p3
aI400
aa(lp4
S'distance'
p5
aF265.83824920654297
aa(lp6
S'timestamp'
p7
aF3.6628429889678955
aatp8
Rp9
.ccollections
OrderedDict
p0
((lp1
(lp2
S'state'
p3
aI400
aa(lp4
S'distance'
p5
aF265.83824920654297
aa(lp6
S'timestamp'
p7
aF3.663032054901123
aatp8
Rp9
.ccollections
OrderedDict
p0
((lp1
(lp2
S'state'
p3
aI400
aa(lp4
S'distance'
p5
aF265.83824920654297
aa(lp6
S'timestamp'
p7
aF3.663145065307617
aatp8
Rp9
.ccollections
OrderedDict
p0
((lp1
(lp2
S'state'
p3
aI400
aa(lp4
S'distance'
p5
aF265.83824920654297
aa(lp6
S'timestamp'
p7
aF3.6810450553894043
aatp8
Rp9
.ccollections
OrderedDict
p0
((lp1
(lp2
S'state'
p3
aI400
aa(lp4
S'distance'
p5
aF265.83824920654297
aa(lp6
S'timestamp'
p7
aF3.6812660694122314
aatp8
Rp9
.ccollections
OrderedDict
p0
((lp1
(lp2
S'state'
p3
aI400
aa(lp4
S'distance'
p5
aF265.83824920654297
aa(lp6
S'timestamp'
p7
aF3.681885004043579
aatp8
Rp9
.ccollections
OrderedDict
p0
((lp1
(lp2
S'state'
p3
aI400
aa(lp4
S'distance'
p5
aF265.83824920654297
aa(lp6
S'timestamp'
p7
aF3.6828548908233643
aatp8
Rp9
.ccollections
OrderedDict
p0
((lp1
(lp2
S'state'
p3
aI400
aa(lp4
S'distance'
p5
aF265.83824920654297
aa(lp6
S'timestamp'
p7
aF3.691329002380371
aatp8
Rp9
.ccollections
OrderedDict
p0
((lp1
(lp2
S'state'
p3
aI400
aa(lp4
S'distance'
p5
aF265.83824920654297
aa(lp6
S'timestamp'
p7
aF3.6915318965911865
aatp8
Rp9
.ccollections
OrderedDict
p0
((lp1
(lp2
S'state'
p3
aI400
aa(lp4
S'distance'
p5
aF265.83824920654297
aa(lp6
S'timestamp'
p7
aF3.7010209560394287
aatp8
Rp9
.ccollections
OrderedDict
p0
((lp1
(lp2
S'state'
p3
aI400
aa(lp4
S'distance'
p5
aF265.83824920654297
aa(lp6
S'timestamp'
p7
aF3.701097011566162
aatp8
Rp9
.ccollections
OrderedDict
p0
((lp1
(lp2
S'state'
p3
aI400
aa(lp4
S'distance'
p5
aF265.83824920654297
aa(lp6
S'timestamp'
p7
aF3.7114360332489014
aatp8
Rp9
.ccollections
OrderedDict
p0
((lp1
(lp2
S'state'
p3
aI400
aa(lp4
S'distance'
p5
aF265.83824920654297
aa(lp6
S'timestamp'
p7
aF3.7115819454193115
aatp8
Rp9
.ccollections
OrderedDict
p0
((lp1
(lp2
S'state'
p3
aI400
aa(lp4
S'distance'
p5
aF265.83824920654297
aa(lp6
S'timestamp'
p7
aF3.72091007232666
aatp8
Rp9
.ccollections
OrderedDict
p0
((lp1
(lp2
S'state'
p3
aI400
aa(lp4
S'distance'
p5
aF265.83824920654297
aa(lp6
S'timestamp'
p7
aF3.7213120460510254
aatp8
Rp9
.ccollections
OrderedDict
p0
((lp1
(lp2
S'state'
p3
aI400
aa(lp4
S'distance'
p5
aF265.83824920654297
aa(lp6
S'timestamp'
p7
aF3.7310149669647217
aatp8
Rp9
.ccollections
OrderedDict
p0
((lp1
(lp2
S'state'
p3
aI400
aa(lp4
S'distance'
p5
aF265.83824920654297
aa(lp6
S'timestamp'
p7
aF3.7317581176757812
aatp8
Rp9
.ccollections
OrderedDict
p0
((lp1
(lp2
S'state'
p3
aI400
aa(lp4
S'distance'
p5
aF265.83824920654297
aa(lp6
S'timestamp'
p7
aF3.7413740158081055
aatp8
Rp9
.ccollections
OrderedDict
p0
((lp1
(lp2
S'state'
p3
aI400
aa(lp4
S'distance'
p5
aF265.83824920654297
aa(lp6
S'timestamp'
p7
aF3.7414538860321045
aatp8
Rp9
.ccollections
OrderedDict
p0
((lp1
(lp2
S'state'
p3
aI400
aa(lp4
S'distance'
p5
aF265.83824920654297
aa(lp6
S'timestamp'
p7
aF3.7511351108551025
aatp8
Rp9
.ccollections
OrderedDict
p0
((lp1
(lp2
S'state'
p3
aI400
aa(lp4
S'distance'
p5
aF265.83824920654297
aa(lp6
S'timestamp'
p7
aF3.7515199184417725
aatp8
Rp9
.ccollections
OrderedDict
p0
((lp1
(lp2
S'state'
p3
aI400
aa(lp4
S'distance'
p5
aF265.83824920654297
aa(lp6
S'timestamp'
p7
aF3.761152982711792
aatp8
Rp9
.ccollections
OrderedDict
p0
((lp1
(lp2
S'state'
p3
aI400
aa(lp4
S'distance'
p5
aF265.83824920654297
aa(lp6
S'timestamp'
p7
aF3.7613890171051025
aatp8
Rp9
.ccollections
OrderedDict
p0
((lp1
(lp2
S'state'
p3
aI400
aa(lp4
S'distance'
p5
aF265.83824920654297
aa(lp6
S'timestamp'
p7
aF3.7707810401916504
aatp8
Rp9
.ccollections
OrderedDict
p0
((lp1
(lp2
S'state'
p3
aI400
aa(lp4
S'distance'
p5
aF265.83824920654297
aa(lp6
S'timestamp'
p7
aF3.7715060710906982
aatp8
Rp9
.ccollections
OrderedDict
p0
((lp1
(lp2
S'state'
p3
aI400
aa(lp4
S'distance'
p5
aF265.83824920654297
aa(lp6
S'timestamp'
p7
aF3.7805728912353516
aatp8
Rp9
.ccollections
OrderedDict
p0
((lp1
(lp2
S'state'
p3
aI400
aa(lp4
S'distance'
p5
aF265.83824920654297
aa(lp6
S'timestamp'
p7
aF3.781407117843628
aatp8
Rp9
.ccollections
OrderedDict
p0
((lp1
(lp2
S'state'
p3
aI400
aa(lp4
S'distance'
p5
aF265.83824920654297
aa(lp6
S'timestamp'
p7
aF3.7913401126861572
aatp8
Rp9
.ccollections
OrderedDict
p0
((lp1
(lp2
S'state'
p3
aI400
aa(lp4
S'distance'
p5
aF265.83824920654297
aa(lp6
S'timestamp'
p7
aF3.791783094406128
aatp8
Rp9
.ccollections
OrderedDict
p0
((lp1
(lp2
S'state'
p3
aI400
aa(lp4
S'distance'
p5
aF265.83824920654297
aa(lp6
S'timestamp'
p7
aF3.800920009613037
aatp8
Rp9
.ccollections
OrderedDict
p0
((lp1
(lp2
S'state'
p3
aI400
aa(lp4
S'distance'
p5
aF265.83824920654297
aa(lp6
S'timestamp'
p7
aF3.8013041019439697
aatp8
Rp9
.ccollections
OrderedDict
p0
((lp1
(lp2
S'state'
p3
aI400
aa(lp4
S'distance'
p5
aF265.83824920654297
aa(lp6
S'timestamp'
p7
aF3.820904016494751
aatp8
Rp9
.ccollections
OrderedDict
p0
((lp1
(lp2
S'state'
p3
aI400
aa(lp4
S'distance'
p5
aF265.83824920654297
aa(lp6
S'timestamp'
p7
aF3.8210089206695557
aatp8
Rp9
.ccollections
OrderedDict
p0
((lp1
(lp2
S'state'
p3
aI400
aa(lp4
S'distance'
p5
aF265.83824920654297
aa(lp6
S'timestamp'
p7
aF3.8225739002227783
aatp8
Rp9
.ccollections
OrderedDict
p0
((lp1
(lp2
S'state'
p3
aI400
aa(lp4
S'distance'
p5
aF265.83824920654297
aa(lp6
S'timestamp'
p7
aF3.822761058807373
aatp8
Rp9
.ccollections
OrderedDict
p0
((lp1
(lp2
S'state'
p3
aI400
aa(lp4
S'distance'
p5
aF265.83824920654297
aa(lp6
S'timestamp'
p7
aF3.8322360515594482
aatp8
Rp9
.ccollections
OrderedDict
p0
((lp1
(lp2
S'state'
p3
aI400
aa(lp4
S'distance'
p5
aF265.83824920654297
aa(lp6
S'timestamp'
p7
aF3.833184003829956
aatp8
Rp9
.ccollections
OrderedDict
p0
((lp1
(lp2
S'state'
p3
aI400
aa(lp4
S'distance'
p5
aF265.83824920654297
aa(lp6
S'timestamp'
p7
aF3.841625928878784
aatp8
Rp9
.ccollections
OrderedDict
p0
((lp1
(lp2
S'state'
p3
aI400
aa(lp4
S'distance'
p5
aF265.83824920654297
aa(lp6
S'timestamp'
p7
aF3.8426010608673096
aatp8
Rp9
.ccollections
OrderedDict
p0
((lp1
(lp2
S'state'
p3
aI400
aa(lp4
S'distance'
p5
aF265.83824920654297
aa(lp6
S'timestamp'
p7
aF3.8606069087982178
aatp8
Rp9
.ccollections
OrderedDict
p0
((lp1
(lp2
S'state'
p3
aI400
aa(lp4
S'distance'
p5
aF265.83824920654297
aa(lp6
S'timestamp'
p7
aF3.8617639541625977
aatp8
Rp9
.ccollections
OrderedDict
p0
((lp1
(lp2
S'state'
p3
aI400
aa(lp4
S'distance'
p5
aF265.83824920654297
aa(lp6
S'timestamp'
p7
aF3.861867904663086
aatp8
Rp9
.ccollections
OrderedDict
p0
((lp1
(lp2
S'state'
p3
aI400
aa(lp4
S'distance'
p5
aF265.83824920654297
aa(lp6
S'timestamp'
p7
aF3.870537042617798
aatp8
Rp9
.ccollections
OrderedDict
p0
((lp1
(lp2
S'state'
p3
aI400
aa(lp4
S'distance'
p5
aF265.83824920654297
aa(lp6
S'timestamp'
p7
aF3.8719561100006104
aatp8
Rp9
.ccollections
OrderedDict
p0
((lp1
(lp2
S'state'
p3
aI400
aa(lp4
S'distance'
p5
aF265.83824920654297
aa(lp6
S'timestamp'
p7
aF3.872188091278076
aatp8
Rp9
.ccollections
OrderedDict
p0
((lp1
(lp2
S'state'
p3
aI400
aa(lp4
S'distance'
p5
aF265.83824920654297
aa(lp6
S'timestamp'
p7
aF3.8805999755859375
aatp8
Rp9
.ccollections
OrderedDict
p0
((lp1
(lp2
S'state'
p3
aI400
aa(lp4
S'distance'
p5
aF265.83824920654297
aa(lp6
S'timestamp'
p7
aF3.8810338973999023
aatp8
Rp9
.ccollections
OrderedDict
p0
((lp1
(lp2
S'state'
p3
aI400
aa(lp4
S'distance'
p5
aF265.83824920654297
aa(lp6
S'timestamp'
p7
aF3.900589942932129
aatp8
Rp9
.ccollections
OrderedDict
p0
((lp1
(lp2
S'state'
p3
aI400
aa(lp4
S'distance'
p5
aF265.83824920654297
aa(lp6
S'timestamp'
p7
aF3.9015920162200928
aatp8
Rp9
.ccollections
OrderedDict
p0
((lp1
(lp2
S'state'
p3
aI400
aa(lp4
S'distance'
p5
aF265.83824920654297
aa(lp6
S'timestamp'
p7
aF3.9017550945281982
aatp8
Rp9
.ccollections
OrderedDict
p0
((lp1
(lp2
S'state'
p3
aI400
aa(lp4
S'distance'
p5
aF265.83824920654297
aa(lp6
S'timestamp'
p7
aF3.901832103729248
aatp8
Rp9
.ccollections
OrderedDict
p0
((lp1
(lp2
S'state'
p3
aI400
aa(lp4
S'distance'
p5
aF265.83824920654297
aa(lp6
S'timestamp'
p7
aF3.9104559421539307
aatp8
Rp9
.ccollections
OrderedDict
p0
((lp1
(lp2
S'state'
p3
aI400
aa(lp4
S'distance'
p5
aF265.83824920654297
aa(lp6
S'timestamp'
p7
aF3.920628070831299
aatp8
Rp9
.ccollections
OrderedDict
p0
((lp1
(lp2
S'state'
p3
aI400
aa(lp4
S'distance'
p5
aF265.83824920654297
aa(lp6
S'timestamp'
p7
aF3.9207351207733154
aatp8
Rp9
.ccollections
OrderedDict
p0
((lp1
(lp2
S'state'
p3
aI400
aa(lp4
S'distance'
p5
aF265.83824920654297
aa(lp6
S'timestamp'
p7
aF3.9213480949401855
aatp8
Rp9
.ccollections
OrderedDict
p0
((lp1
(lp2
S'state'
p3
aI400
aa(lp4
S'distance'
p5
aF265.83824920654297
aa(lp6
S'timestamp'
p7
aF3.930490016937256
aatp8
Rp9
.ccollections
OrderedDict
p0
((lp1
(lp2
S'state'
p3
aI400
aa(lp4
S'distance'
p5
aF265.83824920654297
aa(lp6
S'timestamp'
p7
aF3.9310901165008545
aatp8
Rp9
.ccollections
OrderedDict
p0
((lp1
(lp2
S'state'
p3
aI400
aa(lp4
S'distance'
p5
aF265.83824920654297
aa(lp6
S'timestamp'
p7
aF3.940764904022217
aatp8
Rp9
.ccollections
OrderedDict
p0
((lp1
(lp2
S'state'
p3
aI400
aa(lp4
S'distance'
p5
aF265.83824920654297
aa(lp6
S'timestamp'
p7
aF3.9408891201019287
aatp8
Rp9
.ccollections
OrderedDict
p0
((lp1
(lp2
S'state'
p3
aI400
aa(lp4
S'distance'
p5
aF265.83824920654297
aa(lp6
S'timestamp'
p7
aF3.9507648944854736
aatp8
Rp9
.ccollections
OrderedDict
p0
((lp1
(lp2
S'state'
p3
aI400
aa(lp4
S'distance'
p5
aF265.83824920654297
aa(lp6
S'timestamp'
p7
aF3.951630115509033
aatp8
Rp9
.ccollections
OrderedDict
p0
((lp1
(lp2
S'state'
p3
aI400
aa(lp4
S'distance'
p5
aF265.83824920654297
aa(lp6
S'timestamp'
p7
aF3.9607150554656982
aatp8
Rp9
.ccollections
OrderedDict
p0
((lp1
(lp2
S'state'
p3
aI400
aa(lp4
S'distance'
p5
aF265.83824920654297
aa(lp6
S'timestamp'
p7
aF3.960797071456909
aatp8
Rp9
.ccollections
OrderedDict
p0
((lp1
(lp2
S'state'
p3
aI400
aa(lp4
S'distance'
p5
aF265.83824920654297
aa(lp6
S'timestamp'
p7
aF3.98068904876709
aatp8
Rp9
.ccollections
OrderedDict
p0
((lp1
(lp2
S'state'
p3
aI400
aa(lp4
S'distance'
p5
aF265.83824920654297
aa(lp6
S'timestamp'
p7
aF3.9810030460357666
aatp8
Rp9
.ccollections
OrderedDict
p0
((lp1
(lp2
S'state'
p3
aI400
aa(lp4
S'distance'
p5
aF265.83824920654297
aa(lp6
S'timestamp'
p7
aF3.9826860427856445
aatp8
Rp9
.ccollections
OrderedDict
p0
((lp1
(lp2
S'state'
p3
aI400
aa(lp4
S'distance'
p5
aF265.83824920654297
aa(lp6
S'timestamp'
p7
aF3.9836630821228027
aatp8
Rp9
.ccollections
OrderedDict
p0
((lp1
(lp2
S'state'
p3
aI400
aa(lp4
S'distance'
p5
aF265.83824920654297
aa(lp6
S'timestamp'
p7
aF3.9906420707702637
aatp8
Rp9
.ccollections
OrderedDict
p0
((lp1
(lp2
S'state'
p3
aI400
aa(lp4
S'distance'
p5
aF265.83824920654297
aa(lp6
S'timestamp'
p7
aF4.000864028930664
aatp8
Rp9
.ccollections
OrderedDict
p0
((lp1
(lp2
S'state'
p3
aI400
aa(lp4
S'distance'
p5
aF265.83824920654297
aa(lp6
S'timestamp'
p7
aF4.001100063323975
aatp8
Rp9
.ccollections
OrderedDict
p0
((lp1
(lp2
S'state'
p3
aI400
aa(lp4
S'distance'
p5
aF265.83824920654297
aa(lp6
S'timestamp'
p7
aF4.001622915267944
aatp8
Rp9
.ccollections
OrderedDict
p0
((lp1
(lp2
S'state'
p3
aI400
aa(lp4
S'distance'
p5
aF265.83824920654297
aa(lp6
S'timestamp'
p7
aF4.010759115219116
aatp8
Rp9
.ccollections
OrderedDict
p0
((lp1
(lp2
S'state'
p3
aI400
aa(lp4
S'distance'
p5
aF265.83824920654297
aa(lp6
S'timestamp'
p7
aF4.011054992675781
aatp8
Rp9
.ccollections
OrderedDict
p0
((lp1
(lp2
S'state'
p3
aI400
aa(lp4
S'distance'
p5
aF265.83824920654297
aa(lp6
S'timestamp'
p7
aF4.0206639766693115
aatp8
Rp9
.ccollections
OrderedDict
p0
((lp1
(lp2
S'state'
p3
aI400
aa(lp4
S'distance'
p5
aF265.83824920654297
aa(lp6
S'timestamp'
p7
aF4.02136492729187
aatp8
Rp9
.ccollections
OrderedDict
p0
((lp1
(lp2
S'state'
p3
aI400
aa(lp4
S'distance'
p5
aF265.83824920654297
aa(lp6
S'timestamp'
p7
aF4.030498027801514
aatp8
Rp9
.ccollections
OrderedDict
p0
((lp1
(lp2
S'state'
p3
aI400
aa(lp4
S'distance'
p5
aF265.83824920654297
aa(lp6
S'timestamp'
p7
aF4.031172037124634
aatp8
Rp9
.ccollections
OrderedDict
p0
((lp1
(lp2
S'state'
p3
aI400
aa(lp4
S'distance'
p5
aF265.83824920654297
aa(lp6
S'timestamp'
p7
aF4.061036109924316
aatp8
Rp9
.ccollections
OrderedDict
p0
((lp1
(lp2
S'state'
p3
aI400
aa(lp4
S'distance'
p5
aF265.83824920654297
aa(lp6
S'timestamp'
p7
aF4.061469078063965
aatp8
Rp9
.ccollections
OrderedDict
p0
((lp1
(lp2
S'state'
p3
aI400
aa(lp4
S'distance'
p5
aF265.83824920654297
aa(lp6
S'timestamp'
p7
aF4.062046051025391
aatp8
Rp9
.ccollections
OrderedDict
p0
((lp1
(lp2
S'state'
p3
aI400
aa(lp4
S'distance'
p5
aF265.83824920654297
aa(lp6
S'timestamp'
p7
aF4.062215089797974
aatp8
Rp9
.ccollections
OrderedDict
p0
((lp1
(lp2
S'state'
p3
aI400
aa(lp4
S'distance'
p5
aF265.83824920654297
aa(lp6
S'timestamp'
p7
aF4.073211908340454
aatp8
Rp9
.ccollections
OrderedDict
p0
((lp1
(lp2
S'state'
p3
aI400
aa(lp4
S'distance'
p5
aF265.83824920654297
aa(lp6
S'timestamp'
p7
aF4.073762893676758
aatp8
Rp9
.ccollections
OrderedDict
p0
((lp1
(lp2
S'state'
p3
aI400
aa(lp4
S'distance'
p5
aF265.83824920654297
aa(lp6
S'timestamp'
p7
aF4.075424909591675
aatp8
Rp9
.ccollections
OrderedDict
p0
((lp1
(lp2
S'state'
p3
aI400
aa(lp4
S'distance'
p5
aF265.83824920654297
aa(lp6
S'timestamp'
p7
aF4.076539039611816
aatp8
Rp9
.ccollections
OrderedDict
p0
((lp1
(lp2
S'state'
p3
aI400
aa(lp4
S'distance'
p5
aF265.83824920654297
aa(lp6
S'timestamp'
p7
aF4.08050799369812
aatp8
Rp9
.ccollections
OrderedDict
p0
((lp1
(lp2
S'state'
p3
aI0
aa(lp4
S'distance'
p5
aF265.83824920654297
aa(lp6
S'timestamp'
p7
aF4.081690073013306
aatp8
Rp9
.ccollections
OrderedDict
p0
((lp1
(lp2
S'state'
p3
aI0
aa(lp4
S'distance'
p5
aF167.12252044677734
aa(lp6
S'timestamp'
p7
aF4.652143955230713
aatp8
Rp9
.ccollections
OrderedDict
p0
((lp1
(lp2
S'state'
p3
aI0
aa(lp4
S'distance'
p5
aF167.12252044677734
aa(lp6
S'timestamp'
p7
aF4.654525995254517
aatp8
Rp9
.ccollections
OrderedDict
p0
((lp1
(lp2
S'state'
p3
aI0
aa(lp4
S'distance'
p5
aF167.12252044677734
aa(lp6
S'timestamp'
p7
aF4.660435914993286
aatp8
Rp9
.ccollections
OrderedDict
p0
((lp1
(lp2
S'state'
p3
aI0
aa(lp4
S'distance'
p5
aF167.12252044677734
aa(lp6
S'timestamp'
p7
aF4.660743951797485
aatp8
Rp9
.ccollections
OrderedDict
p0
((lp1
(lp2
S'state'
p3
aI0
aa(lp4
S'distance'
p5
aF167.12252044677734
aa(lp6
S'timestamp'
p7
aF4.670489072799683
aatp8
Rp9
.ccollections
OrderedDict
p0
((lp1
(lp2
S'state'
p3
aI0
aa(lp4
S'distance'
p5
aF167.12252044677734
aa(lp6
S'timestamp'
p7
aF4.670927047729492
aatp8
Rp9
.ccollections
OrderedDict
p0
((lp1
(lp2
S'state'
p3
aI0
aa(lp4
S'distance'
p5
aF167.12252044677734
aa(lp6
S'timestamp'
p7
aF4.680531978607178
aatp8
Rp9
.ccollections
OrderedDict
p0
((lp1
(lp2
S'state'
p3
aI0
aa(lp4
S'distance'
p5
aF167.12252044677734
aa(lp6
S'timestamp'
p7
aF4.681554079055786
aatp8
Rp9
.ccollections
OrderedDict
p0
((lp1
(lp2
S'state'
p3
aI0
aa(lp4
S'distance'
p5
aF167.12252044677734
aa(lp6
S'timestamp'
p7
aF4.701047897338867
aatp8
Rp9
.ccollections
OrderedDict
p0
((lp1
(lp2
S'state'
p3
aI0
aa(lp4
S'distance'
p5
aF167.12252044677734
aa(lp6
S'timestamp'
p7
aF4.701172113418579
aatp8
Rp9
.ccollections
OrderedDict
p0
((lp1
(lp2
S'state'
p3
aI0
aa(lp4
S'distance'
p5
aF167.12252044677734
aa(lp6
S'timestamp'
p7
aF4.701385021209717
aatp8
Rp9
.ccollections
OrderedDict
p0
((lp1
(lp2
S'state'
p3
aI0
aa(lp4
S'distance'
p5
aF167.12252044677734
aa(lp6
S'timestamp'
p7
aF4.720515966415405
aatp8
Rp9
.ccollections
OrderedDict
p0
((lp1
(lp2
S'state'
p3
aI0
aa(lp4
S'distance'
p5
aF167.12252044677734
aa(lp6
S'timestamp'
p7
aF4.72094988822937
aatp8
Rp9
.ccollections
OrderedDict
p0
((lp1
(lp2
S'state'
p3
aI0
aa(lp4
S'distance'
p5
aF167.12252044677734
aa(lp6
S'timestamp'
p7
aF4.721807956695557
aatp8
Rp9
.ccollections
OrderedDict
p0
((lp1
(lp2
S'state'
p3
aI0
aa(lp4
S'distance'
p5
aF167.12252044677734
aa(lp6
S'timestamp'
p7
aF4.722713947296143
aatp8
Rp9
.ccollections
OrderedDict
p0
((lp1
(lp2
S'state'
p3
aI0
aa(lp4
S'distance'
p5
aF167.12252044677734
aa(lp6
S'timestamp'
p7
aF4.73074197769165
aatp8
Rp9
.ccollections
OrderedDict
p0
((lp1
(lp2
S'state'
p3
aI0
aa(lp4
S'distance'
p5
aF167.12252044677734
aa(lp6
S'timestamp'
p7
aF4.7310121059417725
aatp8
Rp9
.ccollections
OrderedDict
p0
((lp1
(lp2
S'state'
p3
aI0
aa(lp4
S'distance'
p5
aF167.12252044677734
aa(lp6
S'timestamp'
p7
aF4.731487989425659
aatp8
Rp9
.ccollections
OrderedDict
p0
((lp1
(lp2
S'state'
p3
aI0
aa(lp4
S'distance'
p5
aF167.12252044677734
aa(lp6
S'timestamp'
p7
aF4.740430116653442
aatp8
Rp9
.ccollections
OrderedDict
p0
((lp1
(lp2
S'state'
p3
aI0
aa(lp4
S'distance'
p5
aF167.12252044677734
aa(lp6
S'timestamp'
p7
aF4.741164922714233
aatp8
Rp9
.ccollections
OrderedDict
p0
((lp1
(lp2
S'state'
p3
aI0
aa(lp4
S'distance'
p5
aF167.12252044677734
aa(lp6
S'timestamp'
p7
aF4.751327991485596
aatp8
Rp9
.ccollections
OrderedDict
p0
((lp1
(lp2
S'state'
p3
aI0
aa(lp4
S'distance'
p5
aF167.12252044677734
aa(lp6
S'timestamp'
p7
aF4.7514050006866455
aatp8
Rp9
.ccollections
OrderedDict
p0
((lp1
(lp2
S'state'
p3
aI0
aa(lp4
S'distance'
p5
aF167.12252044677734
aa(lp6
S'timestamp'
p7
aF4.770656108856201
aatp8
Rp9
.ccollections
OrderedDict
p0
((lp1
(lp2
S'state'
p3
aI0
aa(lp4
S'distance'
p5
aF167.12252044677734
aa(lp6
S'timestamp'
p7
aF4.772037982940674
aatp8
Rp9
.ccollections
OrderedDict
p0
((lp1
(lp2
S'state'
p3
aI0
aa(lp4
S'distance'
p5
aF167.12252044677734
aa(lp6
S'timestamp'
p7
aF4.772258043289185
aatp8
Rp9
.ccollections
OrderedDict
p0
((lp1
(lp2
S'state'
p3
aI0
aa(lp4
S'distance'
p5
aF167.12252044677734
aa(lp6
S'timestamp'
p7
aF4.77311110496521
aatp8
Rp9
.ccollections
OrderedDict
p0
((lp1
(lp2
S'state'
p3
aI0
aa(lp4
S'distance'
p5
aF167.12252044677734
aa(lp6
S'timestamp'
p7
aF4.790832042694092
aatp8
Rp9
.ccollections
OrderedDict
p0
((lp1
(lp2
S'state'
p3
aI0
aa(lp4
S'distance'
p5
aF167.12252044677734
aa(lp6
S'timestamp'
p7
aF4.791050910949707
aatp8
Rp9
.ccollections
OrderedDict
p0
((lp1
(lp2
S'state'
p3
aI0
aa(lp4
S'distance'
p5
aF167.12252044677734
aa(lp6
S'timestamp'
p7
aF4.791335105895996
aatp8
Rp9
.ccollections
OrderedDict
p0
((lp1
(lp2
S'state'
p3
aI0
aa(lp4
S'distance'
p5
aF167.12252044677734
aa(lp6
S'timestamp'
p7
aF4.793657064437866
aatp8
Rp9
.ccollections
OrderedDict
p0
((lp1
(lp2
S'state'
p3
aI0
aa(lp4
S'distance'
p5
aF167.12252044677734
aa(lp6
S'timestamp'
p7
aF4.800633907318115
aatp8
Rp9
.ccollections
OrderedDict
p0
((lp1
(lp2
S'state'
p3
aI0
aa(lp4
S'distance'
p5
aF167.12252044677734
aa(lp6
S'timestamp'
p7
aF4.811177015304565
aatp8
Rp9
.ccollections
OrderedDict
p0
((lp1
(lp2
S'state'
p3
aI0
aa(lp4
S'distance'
p5
aF167.12252044677734
aa(lp6
S'timestamp'
p7
aF4.812527894973755
aatp8
Rp9
.ccollections
OrderedDict
p0
((lp1
(lp2
S'state'
p3
aI0
aa(lp4
S'distance'
p5
aF167.12252044677734
aa(lp6
S'timestamp'
p7
aF4.81297492980957
aatp8
Rp9
.ccollections
OrderedDict
p0
((lp1
(lp2
S'state'
p3
aI0
aa(lp4
S'distance'
p5
aF167.12252044677734
aa(lp6
S'timestamp'
p7
aF4.820945978164673
aatp8
Rp9
.ccollections
OrderedDict
p0
((lp1
(lp2
S'state'
p3
aI0
aa(lp4
S'distance'
p5
aF167.12252044677734
aa(lp6
S'timestamp'
p7
aF4.822235107421875
aatp8
Rp9
.ccollections
OrderedDict
p0
((lp1
(lp2
S'state'
p3
aI0
aa(lp4
S'distance'
p5
aF167.12252044677734
aa(lp6
S'timestamp'
p7
aF4.831110000610352
aatp8
Rp9
.ccollections
OrderedDict
p0
((lp1
(lp2
S'state'
p3
aI0
aa(lp4
S'distance'
p5
aF167.12252044677734
aa(lp6
S'timestamp'
p7
aF4.831193923950195
aatp8
Rp9
.ccollections
OrderedDict
p0
((lp1
(lp2
S'state'
p3
aI0
aa(lp4
S'distance'
p5
aF167.12252044677734
aa(lp6
S'timestamp'
p7
aF4.841173887252808
aatp8
Rp9
.ccollections
OrderedDict
p0
((lp1
(lp2
S'state'
p3
aI0
aa(lp4
S'distance'
p5
aF167.12252044677734
aa(lp6
S'timestamp'
p7
aF4.841280937194824
aatp8
Rp9
.ccollections
OrderedDict
p0
((lp1
(lp2
S'state'
p3
aI0
aa(lp4
S'distance'
p5
aF167.12252044677734
aa(lp6
S'timestamp'
p7
aF4.851063966751099
aatp8
Rp9
.ccollections
OrderedDict
p0
((lp1
(lp2
S'state'
p3
aI0
aa(lp4
S'distance'
p5
aF167.12252044677734
aa(lp6
S'timestamp'
p7
aF4.851145029067993
aatp8
Rp9
.ccollections
OrderedDict
p0
((lp1
(lp2
S'state'
p3
aI0
aa(lp4
S'distance'
p5
aF167.12252044677734
aa(lp6
S'timestamp'
p7
aF4.861188888549805
aatp8
Rp9
.ccollections
OrderedDict
p0
((lp1
(lp2
S'state'
p3
aI0
aa(lp4
S'distance'
p5
aF167.12252044677734
aa(lp6
S'timestamp'
p7
aF4.861793041229248
aatp8
Rp9
.ccollections
OrderedDict
p0
((lp1
(lp2
S'state'
p3
aI0
aa(lp4
S'distance'
p5
aF167.12252044677734
aa(lp6
S'timestamp'
p7
aF4.880924940109253
aatp8
Rp9
.ccollections
OrderedDict
p0
((lp1
(lp2
S'state'
p3
aI0
aa(lp4
S'distance'
p5
aF167.12252044677734
aa(lp6
S'timestamp'
p7
aF4.880997896194458
aatp8
Rp9
.ccollections
OrderedDict
p0
((lp1
(lp2
S'state'
p3
aI0
aa(lp4
S'distance'
p5
aF167.12252044677734
aa(lp6
S'timestamp'
p7
aF4.882458925247192
aatp8
Rp9
.ccollections
OrderedDict
p0
((lp1
(lp2
S'state'
p3
aI0
aa(lp4
S'distance'
p5
aF167.12252044677734
aa(lp6
S'timestamp'
p7
aF4.883737087249756
aatp8
Rp9
.ccollections
OrderedDict
p0
((lp1
(lp2
S'state'
p3
aI0
aa(lp4
S'distance'
p5
aF167.12252044677734
aa(lp6
S'timestamp'
p7
aF4.89089298248291
aatp8
Rp9
.ccollections
OrderedDict
p0
((lp1
(lp2
S'state'
p3
aI0
aa(lp4
S'distance'
p5
aF167.12252044677734
aa(lp6
S'timestamp'
p7
aF4.900629043579102
aatp8
Rp9
.ccollections
OrderedDict
p0
((lp1
(lp2
S'state'
p3
aI0
aa(lp4
S'distance'
p5
aF167.12252044677734
aa(lp6
S'timestamp'
p7
aF4.901160955429077
aatp8
Rp9
.ccollections
OrderedDict
p0
((lp1
(lp2
S'state'
p3
aI0
aa(lp4
S'distance'
p5
aF167.12252044677734
aa(lp6
S'timestamp'
p7
aF4.902225017547607
aatp8
Rp9
.ccollections
OrderedDict
p0
((lp1
(lp2
S'state'
p3
aI0
aa(lp4
S'distance'
p5
aF167.12252044677734
aa(lp6
S'timestamp'
p7
aF4.91090989112854
aatp8
Rp9
.ccollections
OrderedDict
p0
((lp1
(lp2
S'state'
p3
aI0
aa(lp4
S'distance'
p5
aF167.12252044677734
aa(lp6
S'timestamp'
p7
aF4.911350965499878
aatp8
Rp9
.ccollections
OrderedDict
p0
((lp1
(lp2
S'state'
p3
aI0
aa(lp4
S'distance'
p5
aF167.12252044677734
aa(lp6
S'timestamp'
p7
aF4.921080112457275
aatp8
Rp9
.ccollections
OrderedDict
p0
((lp1
(lp2
S'state'
p3
aI0
aa(lp4
S'distance'
p5
aF167.12252044677734
aa(lp6
S'timestamp'
p7
aF4.921168088912964
aatp8
Rp9
.ccollections
OrderedDict
p0
((lp1
(lp2
S'state'
p3
aI0
aa(lp4
S'distance'
p5
aF167.12252044677734
aa(lp6
S'timestamp'
p7
aF4.931119918823242
aatp8
Rp9
.ccollections
OrderedDict
p0
((lp1
(lp2
S'state'
p3
aI0
aa(lp4
S'distance'
p5
aF167.12252044677734
aa(lp6
S'timestamp'
p7
aF4.941420078277588
aatp8
Rp9
.ccollections
OrderedDict
p0
((lp1
(lp2
S'state'
p3
aI0
aa(lp4
S'distance'
p5
aF167.12252044677734
aa(lp6
S'timestamp'
p7
aF4.942307949066162
aatp8
Rp9
.ccollections
OrderedDict
p0
((lp1
(lp2
S'state'
p3
aI0
aa(lp4
S'distance'
p5
aF167.12252044677734
aa(lp6
S'timestamp'
p7
aF4.942923069000244
aatp8
Rp9
.ccollections
OrderedDict
p0
((lp1
(lp2
S'state'
p3
aI0
aa(lp4
S'distance'
p5
aF167.12252044677734
aa(lp6
S'timestamp'
p7
aF4.96144700050354
aatp8
Rp9
.ccollections
OrderedDict
p0
((lp1
(lp2
S'state'
p3
aI0
aa(lp4
S'distance'
p5
aF167.12252044677734
aa(lp6
S'timestamp'
p7
aF4.961586952209473
aatp8
Rp9
.ccollections
OrderedDict
p0
((lp1
(lp2
S'state'
p3
aI0
aa(lp4
S'distance'
p5
aF167.12252044677734
aa(lp6
S'timestamp'
p7
aF4.96166205406189
aatp8
Rp9
.ccollections
OrderedDict
p0
((lp1
(lp2
S'state'
p3
aI0
aa(lp4
S'distance'
p5
aF167.12252044677734
aa(lp6
S'timestamp'
p7
aF4.961802005767822
aatp8
Rp9
.ccollections
OrderedDict
p0
((lp1
(lp2
S'state'
p3
aI0
aa(lp4
S'distance'
p5
aF167.12252044677734
aa(lp6
S'timestamp'
p7
aF4.970891952514648
aatp8
Rp9
.ccollections
OrderedDict
p0
((lp1
(lp2
S'state'
p3
aI0
aa(lp4
S'distance'
p5
aF167.12252044677734
aa(lp6
S'timestamp'
p7
aF4.980431079864502
aatp8
Rp9
.ccollections
OrderedDict
p0
((lp1
(lp2
S'state'
p3
aI0
aa(lp4
S'distance'
p5
aF167.12252044677734
aa(lp6
S'timestamp'
p7
aF4.981376886367798
aatp8
Rp9
.ccollections
OrderedDict
p0
((lp1
(lp2
S'state'
p3
aI0
aa(lp4
S'distance'
p5
aF167.12252044677734
aa(lp6
S'timestamp'
p7
aF4.981571912765503
aatp8
Rp9
.ccollections
OrderedDict
p0
((lp1
(lp2
S'state'
p3
aI0
aa(lp4
S'distance'
p5
aF167.12252044677734
aa(lp6
S'timestamp'
p7
aF4.9903929233551025
aatp8
Rp9
.ccollections
OrderedDict
p0
((lp1
(lp2
S'state'
p3
aI0
aa(lp4
S'distance'
p5
aF167.12252044677734
aa(lp6
S'timestamp'
p7
aF4.991254091262817
aatp8
Rp9
.ccollections
OrderedDict
p0
((lp1
(lp2
S'state'
p3
aI0
aa(lp4
S'distance'
p5
aF167.12252044677734
aa(lp6
S'timestamp'
p7
aF5.000576019287109
aatp8
Rp9
.ccollections
OrderedDict
p0
((lp1
(lp2
S'state'
p3
aI0
aa(lp4
S'distance'
p5
aF167.12252044677734
aa(lp6
S'timestamp'
p7
aF5.001198053359985
aatp8
Rp9
.ccollections
OrderedDict
p0
((lp1
(lp2
S'state'
p3
aI0
aa(lp4
S'distance'
p5
aF167.12252044677734
aa(lp6
S'timestamp'
p7
aF5.010947942733765
aatp8
Rp9
.ccollections
OrderedDict
p0
((lp1
(lp2
S'state'
p3
aI0
aa(lp4
S'distance'
p5
aF167.12252044677734
aa(lp6
S'timestamp'
p7
aF5.011059045791626
aatp8
Rp9
.ccollections
OrderedDict
p0
((lp1
(lp2
S'state'
p3
aI0
aa(lp4
S'distance'
p5
aF167.12252044677734
aa(lp6
S'timestamp'
p7
aF5.020419120788574
aatp8
Rp9
.ccollections
OrderedDict
p0
((lp1
(lp2
S'state'
p3
aI0
aa(lp4
S'distance'
p5
aF167.12252044677734
aa(lp6
S'timestamp'
p7
aF5.020997047424316
aatp8
Rp9
.ccollections
OrderedDict
p0
((lp1
(lp2
S'state'
p3
aI0
aa(lp4
S'distance'
p5
aF167.12252044677734
aa(lp6
S'timestamp'
p7
aF5.031253099441528
aatp8
Rp9
.ccollections
OrderedDict
p0
((lp1
(lp2
S'state'
p3
aI0
aa(lp4
S'distance'
p5
aF167.12252044677734
aa(lp6
S'timestamp'
p7
aF5.031374931335449
aatp8
Rp9
.ccollections
OrderedDict
p0
((lp1
(lp2
S'state'
p3
aI0
aa(lp4
S'distance'
p5
aF167.12252044677734
aa(lp6
S'timestamp'
p7
aF5.04120397567749
aatp8
Rp9
.ccollections
OrderedDict
p0
((lp1
(lp2
S'state'
p3
aI0
aa(lp4
S'distance'
p5
aF167.12252044677734
aa(lp6
S'timestamp'
p7
aF5.041275978088379
aatp8
Rp9
.ccollections
OrderedDict
p0
((lp1
(lp2
S'state'
p3
aI0
aa(lp4
S'distance'
p5
aF167.12252044677734
aa(lp6
S'timestamp'
p7
aF5.05103611946106
aatp8
Rp9
.ccollections
OrderedDict
p0
((lp1
(lp2
S'state'
p3
aI0
aa(lp4
S'distance'
p5
aF167.12252044677734
aa(lp6
S'timestamp'
p7
aF5.051119089126587
aatp8
Rp9
.ccollections
OrderedDict
p0
((lp1
(lp2
S'state'
p3
aI0
aa(lp4
S'distance'
p5
aF167.12252044677734
aa(lp6
S'timestamp'
p7
aF5.06157112121582
aatp8
Rp9
.ccollections
OrderedDict
p0
((lp1
(lp2
S'state'
p3
aI0
aa(lp4
S'distance'
p5
aF167.12252044677734
aa(lp6
S'timestamp'
p7
aF5.061646938323975
aatp8
Rp9
.ccollections
OrderedDict
p0
((lp1
(lp2
S'state'
p3
aI0
aa(lp4
S'distance'
p5
aF167.12252044677734
aa(lp6
S'timestamp'
p7
aF5.071329116821289
aatp8
Rp9
.ccollections
OrderedDict
p0
((lp1
(lp2
S'state'
p3
aI0
aa(lp4
S'distance'
p5
aF167.12252044677734
aa(lp6
S'timestamp'
p7
aF5.0714170932769775
aatp8
Rp9
.ccollections
OrderedDict
p0
((lp1
(lp2
S'state'
p3
aI0
aa(lp4
S'distance'
p5
aF167.12252044677734
aa(lp6
S'timestamp'
p7
aF5.080955982208252
aatp8
Rp9
.ccollections
OrderedDict
p0
((lp1
(lp2
S'state'
p3
aI0
aa(lp4
S'distance'
p5
aF167.12252044677734
aa(lp6
S'timestamp'
p7
aF5.081033945083618
aatp8
Rp9
.ccollections
OrderedDict
p0
((lp1
(lp2
S'state'
p3
aI0
aa(lp4
S'distance'
p5
aF167.12252044677734
aa(lp6
S'timestamp'
p7
aF5.101418972015381
aatp8
Rp9
.ccollections
OrderedDict
p0
((lp1
(lp2
S'state'
p3
aI0
aa(lp4
S'distance'
p5
aF167.12252044677734
aa(lp6
S'timestamp'
p7
aF5.101607084274292
aatp8
Rp9
.ccollections
OrderedDict
p0
((lp1
(lp2
S'state'
p3
aI0
aa(lp4
S'distance'
p5
aF167.12252044677734
aa(lp6
S'timestamp'
p7
aF5.1023900508880615
aatp8
Rp9
.ccollections
OrderedDict
p0
((lp1
(lp2
S'state'
p3
aI0
aa(lp4
S'distance'
p5
aF167.12252044677734
aa(lp6
S'timestamp'
p7
aF5.1110999584198
aatp8
Rp9
.ccollections
OrderedDict
p0
((lp1
(lp2
S'state'
p3
aI0
aa(lp4
S'distance'
p5
aF167.12252044677734
aa(lp6
S'timestamp'
p7
aF5.1111791133880615
aatp8
Rp9
.ccollections
OrderedDict
p0
((lp1
(lp2
S'state'
p3
aI0
aa(lp4
S'distance'
p5
aF167.12252044677734
aa(lp6
S'timestamp'
p7
aF5.12063193321228
aatp8
Rp9
.ccollections
OrderedDict
p0
((lp1
(lp2
S'state'
p3
aI0
aa(lp4
S'distance'
p5
aF167.12252044677734
aa(lp6
S'timestamp'
p7
aF5.130887031555176
aatp8
Rp9
.ccollections
OrderedDict
p0
((lp1
(lp2
S'state'
p3
aI0
aa(lp4
S'distance'
p5
aF167.12252044677734
aa(lp6
S'timestamp'
p7
aF5.130992889404297
aatp8
Rp9
.ccollections
OrderedDict
p0
((lp1
(lp2
S'state'
p3
aI0
aa(lp4
S'distance'
p5
aF167.12252044677734
aa(lp6
S'timestamp'
p7
aF5.132508039474487
aatp8
Rp9
.ccollections
OrderedDict
p0
((lp1
(lp2
S'state'
p3
aI0
aa(lp4
S'distance'
p5
aF167.12252044677734
aa(lp6
S'timestamp'
p7
aF5.133591890335083
aatp8
Rp9
.ccollections
OrderedDict
p0
((lp1
(lp2
S'state'
p3
aI0
aa(lp4
S'distance'
p5
aF167.12252044677734
aa(lp6
S'timestamp'
p7
aF5.1405980587005615
aatp8
Rp9
.ccollections
OrderedDict
p0
((lp1
(lp2
S'state'
p3
aI0
aa(lp4
S'distance'
p5
aF167.12252044677734
aa(lp6
S'timestamp'
p7
aF5.160598039627075
aatp8
Rp9
.ccollections
OrderedDict
p0
((lp1
(lp2
S'state'
p3
aI0
aa(lp4
S'distance'
p5
aF167.12252044677734
aa(lp6
S'timestamp'
p7
aF5.161941051483154
aatp8
Rp9
.ccollections
OrderedDict
p0
((lp1
(lp2
S'state'
p3
aI0
aa(lp4
S'distance'
p5
aF167.12252044677734
aa(lp6
S'timestamp'
p7
aF5.163305044174194
aatp8
Rp9
.ccollections
OrderedDict
p0
((lp1
(lp2
S'state'
p3
aI0
aa(lp4
S'distance'
p5
aF167.12252044677734
aa(lp6
S'timestamp'
p7
aF5.163412094116211
aatp8
Rp9
.ccollections
OrderedDict
p0
((lp1
(lp2
S'state'
p3
aI0
aa(lp4
S'distance'
p5
aF167.12252044677734
aa(lp6
S'timestamp'
p7
aF5.170618057250977
aatp8
Rp9
.ccollections
OrderedDict
p0
((lp1
(lp2
S'state'
p3
aI0
aa(lp4
S'distance'
p5
aF167.12252044677734
aa(lp6
S'timestamp'
p7
aF5.171228885650635
aatp8
Rp9
.ccollections
OrderedDict
p0
((lp1
(lp2
S'state'
p3
aI0
aa(lp4
S'distance'
p5
aF167.12252044677734
aa(lp6
S'timestamp'
p7
aF5.171381950378418
aatp8
Rp9
.ccollections
OrderedDict
p0
((lp1
(lp2
S'state'
p3
aI0
aa(lp4
S'distance'
p5
aF167.12252044677734
aa(lp6
S'timestamp'
p7
aF5.191184043884277
aatp8
Rp9
.ccollections
OrderedDict
p0
((lp1
(lp2
S'state'
p3
aI0
aa(lp4
S'distance'
p5
aF167.12252044677734
aa(lp6
S'timestamp'
p7
aF5.191329002380371
aatp8
Rp9
.ccollections
OrderedDict
p0
((lp1
(lp2
S'state'
p3
aI0
aa(lp4
S'distance'
p5
aF167.12252044677734
aa(lp6
S'timestamp'
p7
aF5.1924519538879395
aatp8
Rp9
.ccollections
OrderedDict
p0
((lp1
(lp2
S'state'
p3
aI0
aa(lp4
S'distance'
p5
aF167.12252044677734
aa(lp6
S'timestamp'
p7
aF5.200263977050781
aatp8
Rp9
.ccollections
OrderedDict
p0
((lp1
(lp2
S'state'
p3
aI0
aa(lp4
S'distance'
p5
aF167.12252044677734
aa(lp6
S'timestamp'
p7
aF5.200951099395752
aatp8
Rp9
.ccollections
OrderedDict
p0
((lp1
(lp2
S'state'
p3
aI0
aa(lp4
S'distance'
p5
aF167.12252044677734
aa(lp6
S'timestamp'
p7
aF5.20190691947937
aatp8
Rp9
.ccollections
OrderedDict
p0
((lp1
(lp2
S'state'
p3
aI400
aa(lp4
S'distance'
p5
aF167.12252044677734
aa(lp6
S'timestamp'
p7
aF5.211388111114502
aatp8
Rp9
.ccollections
OrderedDict
p0
((lp1
(lp2
S'state'
p3
aI400
aa(lp4
S'distance'
p5
aF167.12252044677734
aa(lp6
S'timestamp'
p7
aF5.211517095565796
aatp8
Rp9
.ccollections
OrderedDict
p0
((lp1
(lp2
S'state'
p3
aI400
aa(lp4
S'distance'
p5
aF167.12252044677734
aa(lp6
S'timestamp'
p7
aF5.221153020858765
aatp8
Rp9
.ccollections
OrderedDict
p0
((lp1
(lp2
S'state'
p3
aI400
aa(lp4
S'distance'
p5
aF167.12252044677734
aa(lp6
S'timestamp'
p7
aF5.221230983734131
aatp8
Rp9
.ccollections
OrderedDict
p0
((lp1
(lp2
S'state'
p3
aI400
aa(lp4
S'distance'
p5
aF167.12252044677734
aa(lp6
S'timestamp'
p7
aF5.230686902999878
aatp8
Rp9
.ccollections
OrderedDict
p0
((lp1
(lp2
S'state'
p3
aI400
aa(lp4
S'distance'
p5
aF167.12252044677734
aa(lp6
S'timestamp'
p7
aF5.231580018997192
aatp8
Rp9
.ccollections
OrderedDict
p0
((lp1
(lp2
S'state'
p3
aI400
aa(lp4
S'distance'
p5
aF167.12252044677734
aa(lp6
S'timestamp'
p7
aF5.246061086654663
aatp8
Rp9
.ccollections
OrderedDict
p0
((lp1
(lp2
S'state'
p3
aI400
aa(lp4
S'distance'
p5
aF167.12252044677734
aa(lp6
S'timestamp'
p7
aF5.246423006057739
aatp8
Rp9
.ccollections
OrderedDict
p0
((lp1
(lp2
S'state'
p3
aI400
aa(lp4
S'distance'
p5
aF167.12252044677734
aa(lp6
S'timestamp'
p7
aF5.252662897109985
aatp8
Rp9
.ccollections
OrderedDict
p0
((lp1
(lp2
S'state'
p3
aI400
aa(lp4
S'distance'
p5
aF167.12252044677734
aa(lp6
S'timestamp'
p7
aF5.252933025360107
aatp8
Rp9
.ccollections
OrderedDict
p0
((lp1
(lp2
S'state'
p3
aI400
aa(lp4
S'distance'
p5
aF167.12252044677734
aa(lp6
S'timestamp'
p7
aF5.2611939907073975
aatp8
Rp9
.ccollections
OrderedDict
p0
((lp1
(lp2
S'state'
p3
aI400
aa(lp4
S'distance'
p5
aF167.12252044677734
aa(lp6
S'timestamp'
p7
aF5.261280059814453
aatp8
Rp9
.ccollections
OrderedDict
p0
((lp1
(lp2
S'state'
p3
aI400
aa(lp4
S'distance'
p5
aF167.12252044677734
aa(lp6
S'timestamp'
p7
aF5.271395921707153
aatp8
Rp9
.ccollections
OrderedDict
p0
((lp1
(lp2
S'state'
p3
aI400
aa(lp4
S'distance'
p5
aF167.12252044677734
aa(lp6
S'timestamp'
p7
aF5.271544933319092
aatp8
Rp9
.ccollections
OrderedDict
p0
((lp1
(lp2
S'state'
p3
aI400
aa(lp4
S'distance'
p5
aF167.12252044677734
aa(lp6
S'timestamp'
p7
aF5.280951976776123
aatp8
Rp9
.ccollections
OrderedDict
p0
((lp1
(lp2
S'state'
p3
aI400
aa(lp4
S'distance'
p5
aF167.12252044677734
aa(lp6
S'timestamp'
p7
aF5.281033992767334
aatp8
Rp9
.ccollections
OrderedDict
p0
((lp1
(lp2
S'state'
p3
aI400
aa(lp4
S'distance'
p5
aF167.12252044677734
aa(lp6
S'timestamp'
p7
aF5.290838003158569
aatp8
Rp9
.ccollections
OrderedDict
p0
((lp1
(lp2
S'state'
p3
aI400
aa(lp4
S'distance'
p5
aF167.12252044677734
aa(lp6
S'timestamp'
p7
aF5.291358947753906
aatp8
Rp9
.ccollections
OrderedDict
p0
((lp1
(lp2
S'state'
p3
aI400
aa(lp4
S'distance'
p5
aF167.12252044677734
aa(lp6
S'timestamp'
p7
aF5.300235986709595
aatp8
Rp9
.ccollections
OrderedDict
p0
((lp1
(lp2
S'state'
p3
aI400
aa(lp4
S'distance'
p5
aF167.12252044677734
aa(lp6
S'timestamp'
p7
aF5.300883054733276
aatp8
Rp9
.ccollections
OrderedDict
p0
((lp1
(lp2
S'state'
p3
aI400
aa(lp4
S'distance'
p5
aF167.12252044677734
aa(lp6
S'timestamp'
p7
aF5.310539960861206
aatp8
Rp9
.ccollections
OrderedDict
p0
((lp1
(lp2
S'state'
p3
aI400
aa(lp4
S'distance'
p5
aF167.12252044677734
aa(lp6
S'timestamp'
p7
aF5.320841073989868
aatp8
Rp9
.ccollections
OrderedDict
p0
((lp1
(lp2
S'state'
p3
aI400
aa(lp4
S'distance'
p5
aF167.12252044677734
aa(lp6
S'timestamp'
p7
aF5.320945978164673
aatp8
Rp9
.ccollections
OrderedDict
p0
((lp1
(lp2
S'state'
p3
aI400
aa(lp4
S'distance'
p5
aF167.12252044677734
aa(lp6
S'timestamp'
p7
aF5.3211400508880615
aatp8
Rp9
.ccollections
OrderedDict
p0
((lp1
(lp2
S'state'
p3
aI400
aa(lp4
S'distance'
p5
aF167.12252044677734
aa(lp6
S'timestamp'
p7
aF5.33080792427063
aatp8
Rp9
.ccollections
OrderedDict
p0
((lp1
(lp2
S'state'
p3
aI400
aa(lp4
S'distance'
p5
aF167.12252044677734
aa(lp6
S'timestamp'
p7
aF5.3312530517578125
aatp8
Rp9
.ccollections
OrderedDict
p0
((lp1
(lp2
S'state'
p3
aI400
aa(lp4
S'distance'
p5
aF167.12252044677734
aa(lp6
S'timestamp'
p7
aF5.341134071350098
aatp8
Rp9
.ccollections
OrderedDict
p0
((lp1
(lp2
S'state'
p3
aI400
aa(lp4
S'distance'
p5
aF167.12252044677734
aa(lp6
S'timestamp'
p7
aF5.341216087341309
aatp8
Rp9
.ccollections
OrderedDict
p0
((lp1
(lp2
S'state'
p3
aI400
aa(lp4
S'distance'
p5
aF167.12252044677734
aa(lp6
S'timestamp'
p7
aF5.351417064666748
aatp8
Rp9
.ccollections
OrderedDict
p0
((lp1
(lp2
S'state'
p3
aI400
aa(lp4
S'distance'
p5
aF167.12252044677734
aa(lp6
S'timestamp'
p7
aF5.351743936538696
aatp8
Rp9
.ccollections
OrderedDict
p0
((lp1
(lp2
S'state'
p3
aI400
aa(lp4
S'distance'
p5
aF167.12252044677734
aa(lp6
S'timestamp'
p7
aF5.360300064086914
aatp8
Rp9
.ccollections
OrderedDict
p0
((lp1
(lp2
S'state'
p3
aI400
aa(lp4
S'distance'
p5
aF167.12252044677734
aa(lp6
S'timestamp'
p7
aF5.361001968383789
aatp8
Rp9
.ccollections
OrderedDict
p0
((lp1
(lp2
S'state'
p3
aI400
aa(lp4
S'distance'
p5
aF167.12252044677734
aa(lp6
S'timestamp'
p7
aF5.37089991569519
aatp8
Rp9
.ccollections
OrderedDict
p0
((lp1
(lp2
S'state'
p3
aI400
aa(lp4
S'distance'
p5
aF167.12252044677734
aa(lp6
S'timestamp'
p7
aF5.371315956115723
aatp8
Rp9
.ccollections
OrderedDict
p0
((lp1
(lp2
S'state'
p3
aI400
aa(lp4
S'distance'
p5
aF167.12252044677734
aa(lp6
S'timestamp'
p7
aF5.380549907684326
aatp8
Rp9
.ccollections
OrderedDict
p0
((lp1
(lp2
S'state'
p3
aI400
aa(lp4
S'distance'
p5
aF167.12252044677734
aa(lp6
S'timestamp'
p7
aF5.380924940109253
aatp8
Rp9
.ccollections
OrderedDict
p0
((lp1
(lp2
S'state'
p3
aI400
aa(lp4
S'distance'
p5
aF167.12252044677734
aa(lp6
S'timestamp'
p7
aF5.391287088394165
aatp8
Rp9
.ccollections
OrderedDict
p0
((lp1
(lp2
S'state'
p3
aI400
aa(lp4
S'distance'
p5
aF167.12252044677734
aa(lp6
S'timestamp'
p7
aF5.3914830684661865
aatp8
Rp9
.ccollections
OrderedDict
p0
((lp1
(lp2
S'state'
p3
aI400
aa(lp4
S'distance'
p5
aF167.12252044677734
aa(lp6
S'timestamp'
p7
aF5.400943040847778
aatp8
Rp9
.ccollections
OrderedDict
p0
((lp1
(lp2
S'state'
p3
aI400
aa(lp4
S'distance'
p5
aF167.12252044677734
aa(lp6
S'timestamp'
p7
aF5.401393890380859
aatp8
Rp9
.ccollections
OrderedDict
p0
((lp1
(lp2
S'state'
p3
aI400
aa(lp4
S'distance'
p5
aF167.12252044677734
aa(lp6
S'timestamp'
p7
aF5.410268068313599
aatp8
Rp9
.ccollections
OrderedDict
p0
((lp1
(lp2
S'state'
p3
aI400
aa(lp4
S'distance'
p5
aF167.12252044677734
aa(lp6
S'timestamp'
p7
aF5.411015033721924
aatp8
Rp9
.ccollections
OrderedDict
p0
((lp1
(lp2
S'state'
p3
aI400
aa(lp4
S'distance'
p5
aF167.12252044677734
aa(lp6
S'timestamp'
p7
aF5.430450916290283
aatp8
Rp9
.ccollections
OrderedDict
p0
((lp1
(lp2
S'state'
p3
aI400
aa(lp4
S'distance'
p5
aF167.12252044677734
aa(lp6
S'timestamp'
p7
aF5.432145118713379
aatp8
Rp9
.ccollections
OrderedDict
p0
((lp1
(lp2
S'state'
p3
aI400
aa(lp4
S'distance'
p5
aF167.12252044677734
aa(lp6
S'timestamp'
p7
aF5.432288885116577
aatp8
Rp9
.ccollections
OrderedDict
p0
((lp1
(lp2
S'state'
p3
aI400
aa(lp4
S'distance'
p5
aF167.12252044677734
aa(lp6
S'timestamp'
p7
aF5.432415962219238
aatp8
Rp9
.ccollections
OrderedDict
p0
((lp1
(lp2
S'state'
p3
aI400
aa(lp4
S'distance'
p5
aF167.12252044677734
aa(lp6
S'timestamp'
p7
aF5.440773010253906
aatp8
Rp9
.ccollections
OrderedDict
p0
((lp1
(lp2
S'state'
p3
aI400
aa(lp4
S'distance'
p5
aF167.12252044677734
aa(lp6
S'timestamp'
p7
aF5.451011896133423
aatp8
Rp9
.ccollections
OrderedDict
p0
((lp1
(lp2
S'state'
p3
aI400
aa(lp4
S'distance'
p5
aF167.12252044677734
aa(lp6
S'timestamp'
p7
aF5.451111078262329
aatp8
Rp9
.ccollections
OrderedDict
p0
((lp1
(lp2
S'state'
p3
aI400
aa(lp4
S'distance'
p5
aF167.12252044677734
aa(lp6
S'timestamp'
p7
aF5.451224088668823
aatp8
Rp9
.ccollections
OrderedDict
p0
((lp1
(lp2
S'state'
p3
aI400
aa(lp4
S'distance'
p5
aF167.12252044677734
aa(lp6
S'timestamp'
p7
aF5.461076974868774
aatp8
Rp9
.ccollections
OrderedDict
p0
((lp1
(lp2
S'state'
p3
aI400
aa(lp4
S'distance'
p5
aF167.12252044677734
aa(lp6
S'timestamp'
p7
aF5.461179971694946
aatp8
Rp9
.ccollections
OrderedDict
p0
((lp1
(lp2
S'state'
p3
aI400
aa(lp4
S'distance'
p5
aF167.12252044677734
aa(lp6
S'timestamp'
p7
aF5.470562934875488
aatp8
Rp9
.ccollections
OrderedDict
p0
((lp1
(lp2
S'state'
p3
aI400
aa(lp4
S'distance'
p5
aF167.12252044677734
aa(lp6
S'timestamp'
p7
aF5.471699953079224
aatp8
Rp9
.ccollections
OrderedDict
p0
((lp1
(lp2
S'state'
p3
aI400
aa(lp4
S'distance'
p5
aF167.12252044677734
aa(lp6
S'timestamp'
p7
aF5.480905055999756
aatp8
Rp9
.ccollections
OrderedDict
p0
((lp1
(lp2
S'state'
p3
aI400
aa(lp4
S'distance'
p5
aF167.12252044677734
aa(lp6
S'timestamp'
p7
aF5.481081008911133
aatp8
Rp9
.ccollections
OrderedDict
p0
((lp1
(lp2
S'state'
p3
aI400
aa(lp4
S'distance'
p5
aF167.12252044677734
aa(lp6
S'timestamp'
p7
aF5.490278959274292
aatp8
Rp9
.ccollections
OrderedDict
p0
((lp1
(lp2
S'state'
p3
aI400
aa(lp4
S'distance'
p5
aF167.12252044677734
aa(lp6
S'timestamp'
p7
aF5.491326093673706
aatp8
Rp9
.ccollections
OrderedDict
p0
((lp1
(lp2
S'state'
p3
aI400
aa(lp4
S'distance'
p5
aF167.12252044677734
aa(lp6
S'timestamp'
p7
aF5.501358985900879
aatp8
Rp9
.ccollections
OrderedDict
p0
((lp1
(lp2
S'state'
p3
aI400
aa(lp4
S'distance'
p5
aF167.12252044677734
aa(lp6
S'timestamp'
p7
aF5.5014379024505615
aatp8
Rp9
.ccollections
OrderedDict
p0
((lp1
(lp2
S'state'
p3
aI400
aa(lp4
S'distance'
p5
aF167.12252044677734
aa(lp6
S'timestamp'
p7
aF5.511325120925903
aatp8
Rp9
.ccollections
OrderedDict
p0
((lp1
(lp2
S'state'
p3
aI400
aa(lp4
S'distance'
p5
aF167.12252044677734
aa(lp6
S'timestamp'
p7
aF5.511866092681885
aatp8
Rp9
.ccollections
OrderedDict
p0
((lp1
(lp2
S'state'
p3
aI400
aa(lp4
S'distance'
p5
aF167.12252044677734
aa(lp6
S'timestamp'
p7
aF5.530388116836548
aatp8
Rp9
.ccollections
OrderedDict
p0
((lp1
(lp2
S'state'
p3
aI400
aa(lp4
S'distance'
p5
aF167.12252044677734
aa(lp6
S'timestamp'
p7
aF5.531485080718994
aatp8
Rp9
.ccollections
OrderedDict
p0
((lp1
(lp2
S'state'
p3
aI400
aa(lp4
S'distance'
p5
aF167.12252044677734
aa(lp6
S'timestamp'
p7
aF5.531569957733154
aatp8
Rp9
.ccollections
OrderedDict
p0
((lp1
(lp2
S'state'
p3
aI400
aa(lp4
S'distance'
p5
aF167.12252044677734
aa(lp6
S'timestamp'
p7
aF5.531686067581177
aatp8
Rp9
.ccollections
OrderedDict
p0
((lp1
(lp2
S'state'
p3
aI400
aa(lp4
S'distance'
p5
aF167.12252044677734
aa(lp6
S'timestamp'
p7
aF5.540647029876709
aatp8
Rp9
.ccollections
OrderedDict
p0
((lp1
(lp2
S'state'
p3
aI400
aa(lp4
S'distance'
p5
aF167.12252044677734
aa(lp6
S'timestamp'
p7
aF5.551296949386597
aatp8
Rp9
.ccollections
OrderedDict
p0
((lp1
(lp2
S'state'
p3
aI400
aa(lp4
S'distance'
p5
aF167.12252044677734
aa(lp6
S'timestamp'
p7
aF5.552012920379639
aatp8
Rp9
.ccollections
OrderedDict
p0
((lp1
(lp2
S'state'
p3
aI400
aa(lp4
S'distance'
p5
aF167.12252044677734
aa(lp6
S'timestamp'
p7
aF5.552155017852783
aatp8
Rp9
.ccollections
OrderedDict
p0
((lp1
(lp2
S'state'
p3
aI400
aa(lp4
S'distance'
p5
aF167.12252044677734
aa(lp6
S'timestamp'
p7
aF5.5607709884643555
aatp8
Rp9
.ccollections
OrderedDict
p0
((lp1
(lp2
S'state'
p3
aI400
aa(lp4
S'distance'
p5
aF167.12252044677734
aa(lp6
S'timestamp'
p7
aF5.5611279010772705
aatp8
Rp9
.ccollections
OrderedDict
p0
((lp1
(lp2
S'state'
p3
aI400
aa(lp4
S'distance'
p5
aF167.12252044677734
aa(lp6
S'timestamp'
p7
aF5.570872068405151
aatp8
Rp9
.ccollections
OrderedDict
p0
((lp1
(lp2
S'state'
p3
aI400
aa(lp4
S'distance'
p5
aF167.12252044677734
aa(lp6
S'timestamp'
p7
aF5.571141958236694
aatp8
Rp9
.ccollections
OrderedDict
p0
((lp1
(lp2
S'state'
p3
aI400
aa(lp4
S'distance'
p5
aF167.12252044677734
aa(lp6
S'timestamp'
p7
aF5.580827951431274
aatp8
Rp9
.ccollections
OrderedDict
p0
((lp1
(lp2
S'state'
p3
aI400
aa(lp4
S'distance'
p5
aF167.12252044677734
aa(lp6
S'timestamp'
p7
aF5.581204891204834
aatp8
Rp9
.ccollections
OrderedDict
p0
((lp1
(lp2
S'state'
p3
aI400
aa(lp4
S'distance'
p5
aF167.12252044677734
aa(lp6
S'timestamp'
p7
aF5.591125965118408
aatp8
Rp9
.ccollections
OrderedDict
p0
((lp1
(lp2
S'state'
p3
aI400
aa(lp4
S'distance'
p5
aF167.12252044677734
aa(lp6
S'timestamp'
p7
aF5.591275930404663
aatp8
Rp9
.ccollections
OrderedDict
p0
((lp1
(lp2
S'state'
p3
aI400
aa(lp4
S'distance'
p5
aF167.12252044677734
aa(lp6
S'timestamp'
p7
aF5.601150989532471
aatp8
Rp9
.ccollections
OrderedDict
p0
((lp1
(lp2
S'state'
p3
aI400
aa(lp4
S'distance'
p5
aF167.12252044677734
aa(lp6
S'timestamp'
p7
aF5.601265907287598
aatp8
Rp9
.ccollections
OrderedDict
p0
((lp1
(lp2
S'state'
p3
aI400
aa(lp4
S'distance'
p5
aF167.12252044677734
aa(lp6
S'timestamp'
p7
aF5.611047983169556
aatp8
Rp9
.ccollections
OrderedDict
p0
((lp1
(lp2
S'state'
p3
aI400
aa(lp4
S'distance'
p5
aF167.12252044677734
aa(lp6
S'timestamp'
p7
aF5.611130952835083
aatp8
Rp9
.ccollections
OrderedDict
p0
((lp1
(lp2
S'state'
p3
aI400
aa(lp4
S'distance'
p5
aF167.12252044677734
aa(lp6
S'timestamp'
p7
aF5.620954990386963
aatp8
Rp9
.ccollections
OrderedDict
p0
((lp1
(lp2
S'state'
p3
aI400
aa(lp4
S'distance'
p5
aF167.12252044677734
aa(lp6
S'timestamp'
p7
aF5.621035099029541
aatp8
Rp9
.ccollections
OrderedDict
p0
((lp1
(lp2
S'state'
p3
aI400
aa(lp4
S'distance'
p5
aF167.12252044677734
aa(lp6
S'timestamp'
p7
aF5.63126802444458
aatp8
Rp9
.ccollections
OrderedDict
p0
((lp1
(lp2
S'state'
p3
aI400
aa(lp4
S'distance'
p5
aF167.12252044677734
aa(lp6
S'timestamp'
p7
aF5.631408929824829
aatp8
Rp9
.ccollections
OrderedDict
p0
((lp1
(lp2
S'state'
p3
aI400
aa(lp4
S'distance'
p5
aF167.12252044677734
aa(lp6
S'timestamp'
p7
aF5.640532970428467
aatp8
Rp9
.ccollections
OrderedDict
p0
((lp1
(lp2
S'state'
p3
aI400
aa(lp4
S'distance'
p5
aF167.12252044677734
aa(lp6
S'timestamp'
p7
aF5.641171932220459
aatp8
Rp9
.ccollections
OrderedDict
p0
((lp1
(lp2
S'state'
p3
aI400
aa(lp4
S'distance'
p5
aF167.12252044677734
aa(lp6
S'timestamp'
p7
aF5.650924921035767
aatp8
Rp9
.ccollections
OrderedDict
p0
((lp1
(lp2
S'state'
p3
aI400
aa(lp4
S'distance'
p5
aF167.12252044677734
aa(lp6
S'timestamp'
p7
aF5.6518659591674805
aatp8
Rp9
.ccollections
OrderedDict
p0
((lp1
(lp2
S'state'
p3
aI400
aa(lp4
S'distance'
p5
aF167.12252044677734
aa(lp6
S'timestamp'
p7
aF5.670561075210571
aatp8
Rp9
.ccollections
OrderedDict
p0
((lp1
(lp2
S'state'
p3
aI400
aa(lp4
S'distance'
p5
aF167.12252044677734
aa(lp6
S'timestamp'
p7
aF5.670751094818115
aatp8
Rp9
.ccollections
OrderedDict
p0
((lp1
(lp2
S'state'
p3
aI400
aa(lp4
S'distance'
p5
aF167.12252044677734
aa(lp6
S'timestamp'
p7
aF5.673485040664673
aatp8
Rp9
.ccollections
OrderedDict
p0
((lp1
(lp2
S'state'
p3
aI400
aa(lp4
S'distance'
p5
aF167.12252044677734
aa(lp6
S'timestamp'
p7
aF5.673562049865723
aatp8
Rp9
.ccollections
OrderedDict
p0
((lp1
(lp2
S'state'
p3
aI400
aa(lp4
S'distance'
p5
aF167.12252044677734
aa(lp6
S'timestamp'
p7
aF5.690382957458496
aatp8
Rp9
.ccollections
OrderedDict
p0
((lp1
(lp2
S'state'
p3
aI400
aa(lp4
S'distance'
p5
aF167.12252044677734
aa(lp6
S'timestamp'
p7
aF5.6914589405059814
aatp8
Rp9
.ccollections
OrderedDict
p0
((lp1
(lp2
S'state'
p3
aI400
aa(lp4
S'distance'
p5
aF167.12252044677734
aa(lp6
S'timestamp'
p7
aF5.69165301322937
aatp8
Rp9
.ccollections
OrderedDict
p0
((lp1
(lp2
S'state'
p3
aI400
aa(lp4
S'distance'
p5
aF167.12252044677734
aa(lp6
S'timestamp'
p7
aF5.691860914230347
aatp8
Rp9
.ccollections
OrderedDict
p0
((lp1
(lp2
S'state'
p3
aI400
aa(lp4
S'distance'
p5
aF167.12252044677734
aa(lp6
S'timestamp'
p7
aF5.701034069061279
aatp8
Rp9
.ccollections
OrderedDict
p0
((lp1
(lp2
S'state'
p3
aI400
aa(lp4
S'distance'
p5
aF167.12252044677734
aa(lp6
S'timestamp'
p7
aF5.710495948791504
aatp8
Rp9
.ccollections
OrderedDict
p0
((lp1
(lp2
S'state'
p3
aI400
aa(lp4
S'distance'
p5
aF167.12252044677734
aa(lp6
S'timestamp'
p7
aF5.710849046707153
aatp8
Rp9
.ccollections
OrderedDict
p0
((lp1
(lp2
S'state'
p3
aI400
aa(lp4
S'distance'
p5
aF167.12252044677734
aa(lp6
S'timestamp'
p7
aF5.711390018463135
aatp8
Rp9
.ccollections
OrderedDict
p0
((lp1
(lp2
S'state'
p3
aI400
aa(lp4
S'distance'
p5
aF167.12252044677734
aa(lp6
S'timestamp'
p7
aF5.7210609912872314
aatp8
Rp9
.ccollections
OrderedDict
p0
((lp1
(lp2
S'state'
p3
aI400
aa(lp4
S'distance'
p5
aF167.12252044677734
aa(lp6
S'timestamp'
p7
aF5.721138000488281
aatp8
Rp9
.ccollections
OrderedDict
p0
((lp1
(lp2
S'state'
p3
aI400
aa(lp4
S'distance'
p5
aF167.12252044677734
aa(lp6
S'timestamp'
p7
aF5.73022198677063
aatp8
Rp9
.ccollections
OrderedDict
p0
((lp1
(lp2
S'state'
p3
aI400
aa(lp4
S'distance'
p5
aF167.12252044677734
aa(lp6
S'timestamp'
p7
aF5.731060028076172
aatp8
Rp9
.ccollections
OrderedDict
p0
((lp1
(lp2
S'state'
p3
aI400
aa(lp4
S'distance'
p5
aF167.12252044677734
aa(lp6
S'timestamp'
p7
aF5.740402936935425
aatp8
Rp9
.ccollections
OrderedDict
p0
((lp1
(lp2
S'state'
p3
aI400
aa(lp4
S'distance'
p5
aF167.12252044677734
aa(lp6
S'timestamp'
p7
aF5.741827964782715
aatp8
Rp9
.ccollections
OrderedDict
p0
((lp1
(lp2
S'state'
p3
aI400
aa(lp4
S'distance'
p5
aF167.12252044677734
aa(lp6
S'timestamp'
p7
aF5.750327110290527
aatp8
Rp9
.ccollections
OrderedDict
p0
((lp1
(lp2
S'state'
p3
aI400
aa(lp4
S'distance'
p5
aF167.12252044677734
aa(lp6
S'timestamp'
p7
aF5.75151801109314
aatp8
Rp9
.ccollections
OrderedDict
p0
((lp1
(lp2
S'state'
p3
aI400
aa(lp4
S'distance'
p5
aF167.12252044677734
aa(lp6
S'timestamp'
p7
aF5.760948896408081
aatp8
Rp9
.ccollections
OrderedDict
p0
((lp1
(lp2
S'state'
p3
aI400
aa(lp4
S'distance'
p5
aF167.12252044677734
aa(lp6
S'timestamp'
p7
aF5.761023044586182
aatp8
Rp9
.ccollections
OrderedDict
p0
((lp1
(lp2
S'state'
p3
aI400
aa(lp4
S'distance'
p5
aF167.12252044677734
aa(lp6
S'timestamp'
p7
aF5.77090311050415
aatp8
Rp9
.ccollections
OrderedDict
p0
((lp1
(lp2
S'state'
p3
aI400
aa(lp4
S'distance'
p5
aF167.12252044677734
aa(lp6
S'timestamp'
p7
aF5.771028995513916
aatp8
Rp9
.ccollections
OrderedDict
p0
((lp1
(lp2
S'state'
p3
aI400
aa(lp4
S'distance'
p5
aF167.12252044677734
aa(lp6
S'timestamp'
p7
aF5.780220031738281
aatp8
Rp9
.ccollections
OrderedDict
p0
((lp1
(lp2
S'state'
p3
aI400
aa(lp4
S'distance'
p5
aF167.12252044677734
aa(lp6
S'timestamp'
p7
aF5.780921936035156
aatp8
Rp9
.ccollections
OrderedDict
p0
((lp1
(lp2
S'state'
p3
aI400
aa(lp4
S'distance'
p5
aF167.12252044677734
aa(lp6
S'timestamp'
p7
aF5.79040002822876
aatp8
Rp9
.ccollections
OrderedDict
p0
((lp1
(lp2
S'state'
p3
aI400
aa(lp4
S'distance'
p5
aF167.12252044677734
aa(lp6
S'timestamp'
p7
aF5.791071891784668
aatp8
Rp9
.ccollections
OrderedDict
p0
((lp1
(lp2
S'state'
p3
aI400
aa(lp4
S'distance'
p5
aF167.12252044677734
aa(lp6
S'timestamp'
p7
aF5.810353994369507
aatp8
Rp9
.ccollections
OrderedDict
p0
((lp1
(lp2
S'state'
p3
aI400
aa(lp4
S'distance'
p5
aF167.12252044677734
aa(lp6
S'timestamp'
p7
aF5.810621976852417
aatp8
Rp9
.ccollections
OrderedDict
p0
((lp1
(lp2
S'state'
p3
aI400
aa(lp4
S'distance'
p5
aF167.12252044677734
aa(lp6
S'timestamp'
p7
aF5.813193082809448
aatp8
Rp9
.ccollections
OrderedDict
p0
((lp1
(lp2
S'state'
p3
aI400
aa(lp4
S'distance'
p5
aF167.12252044677734
aa(lp6
S'timestamp'
p7
aF5.813317060470581
aatp8
Rp9
.ccollections
OrderedDict
p0
((lp1
(lp2
S'state'
p3
aI400
aa(lp4
S'distance'
p5
aF167.12252044677734
aa(lp6
S'timestamp'
p7
aF5.821115016937256
aatp8
Rp9
.ccollections
OrderedDict
p0
((lp1
(lp2
S'state'
p3
aI400
aa(lp4
S'distance'
p5
aF167.12252044677734
aa(lp6
S'timestamp'
p7
aF5.831099987030029
aatp8
Rp9
.ccollections
OrderedDict
p0
((lp1
(lp2
S'state'
p3
aI400
aa(lp4
S'distance'
p5
aF167.12252044677734
aa(lp6
S'timestamp'
p7
aF5.831254959106445
aatp8
Rp9
.ccollections
OrderedDict
p0
((lp1
(lp2
S'state'
p3
aI400
aa(lp4
S'distance'
p5
aF167.12252044677734
aa(lp6
S'timestamp'
p7
aF5.831907033920288
aatp8
Rp9
.ccollections
OrderedDict
p0
((lp1
(lp2
S'state'
p3
aI400
aa(lp4
S'distance'
p5
aF167.12252044677734
aa(lp6
S'timestamp'
p7
aF5.840895891189575
aatp8
Rp9
.ccollections
OrderedDict
p0
((lp1
(lp2
S'state'
p3
aI400
aa(lp4
S'distance'
p5
aF167.12252044677734
aa(lp6
S'timestamp'
p7
aF5.8504250049591064
aatp8
Rp9
.ccollections
OrderedDict
p0
((lp1
(lp2
S'state'
p3
aI400
aa(lp4
S'distance'
p5
aF167.12252044677734
aa(lp6
S'timestamp'
p7
aF5.850766897201538
aatp8
Rp9
.ccollections
OrderedDict
p0
((lp1
(lp2
S'state'
p3
aI400
aa(lp4
S'distance'
p5
aF167.12252044677734
aa(lp6
S'timestamp'
p7
aF5.852905988693237
aatp8
Rp9
.ccollections
OrderedDict
p0
((lp1
(lp2
S'state'
p3
aI400
aa(lp4
S'distance'
p5
aF167.12252044677734
aa(lp6
S'timestamp'
p7
aF5.860223054885864
aatp8
Rp9
.ccollections
OrderedDict
p0
((lp1
(lp2
S'state'
p3
aI400
aa(lp4
S'distance'
p5
aF167.12252044677734
aa(lp6
S'timestamp'
p7
aF5.871233940124512
aatp8
Rp9
.ccollections
OrderedDict
p0
((lp1
(lp2
S'state'
p3
aI400
aa(lp4
S'distance'
p5
aF167.12252044677734
aa(lp6
S'timestamp'
p7
aF5.872309923171997
aatp8
Rp9
.ccollections
OrderedDict
p0
((lp1
(lp2
S'state'
p3
aI400
aa(lp4
S'distance'
p5
aF167.12252044677734
aa(lp6
S'timestamp'
p7
aF5.87285590171814
aatp8
Rp9
.ccollections
OrderedDict
p0
((lp1
(lp2
S'state'
p3
aI400
aa(lp4
S'distance'
p5
aF167.12252044677734
aa(lp6
S'timestamp'
p7
aF5.880474090576172
aatp8
Rp9
.ccollections
OrderedDict
p0
((lp1
(lp2
S'state'
p3
aI400
aa(lp4
S'distance'
p5
aF167.12252044677734
aa(lp6
S'timestamp'
p7
aF5.880908012390137
aatp8
Rp9
.ccollections
OrderedDict
p0
((lp1
(lp2
S'state'
p3
aI400
aa(lp4
S'distance'
p5
aF167.12252044677734
aa(lp6
S'timestamp'
p7
aF5.890858888626099
aatp8
Rp9
.ccollections
OrderedDict
p0
((lp1
(lp2
S'state'
p3
aI0
aa(lp4
S'distance'
p5
aF167.12252044677734
aa(lp6
S'timestamp'
p7
aF5.891072988510132
aatp8
Rp9
.ccollections
OrderedDict
p0
((lp1
(lp2
S'state'
p3
aI0
aa(lp4
S'distance'
p5
aF72.1685562133789
aa(lp6
S'timestamp'
p7
aF6.451463937759399
aatp8
Rp9
.ccollections
OrderedDict
p0
((lp1
(lp2
S'state'
p3
aI0
aa(lp4
S'distance'
p5
aF72.1685562133789
aa(lp6
S'timestamp'
p7
aF6.451594114303589
aatp8
Rp9
.ccollections
OrderedDict
p0
((lp1
(lp2
S'state'
p3
aI0
aa(lp4
S'distance'
p5
aF72.1685562133789
aa(lp6
S'timestamp'
p7
aF6.460364103317261
aatp8
Rp9
.ccollections
OrderedDict
p0
((lp1
(lp2
S'state'
p3
aI0
aa(lp4
S'distance'
p5
aF72.1685562133789
aa(lp6
S'timestamp'
p7
aF6.460836887359619
aatp8
Rp9
.ccollections
OrderedDict
p0
((lp1
(lp2
S'state'
p3
aI0
aa(lp4
S'distance'
p5
aF72.1685562133789
aa(lp6
S'timestamp'
p7
aF6.470509052276611
aatp8
Rp9
.ccollections
OrderedDict
p0
((lp1
(lp2
S'state'
p3
aI0
aa(lp4
S'distance'
p5
aF72.1685562133789
aa(lp6
S'timestamp'
p7
aF6.472944974899292
aatp8
Rp9
.ccollections
OrderedDict
p0
((lp1
(lp2
S'state'
p3
aI0
aa(lp4
S'distance'
p5
aF72.1685562133789
aa(lp6
S'timestamp'
p7
aF6.481817007064819
aatp8
Rp9
.ccollections
OrderedDict
p0
((lp1
(lp2
S'state'
p3
aI0
aa(lp4
S'distance'
p5
aF72.1685562133789
aa(lp6
S'timestamp'
p7
aF6.483202934265137
aatp8
Rp9
.ccollections
OrderedDict
p0
((lp1
(lp2
S'state'
p3
aI0
aa(lp4
S'distance'
p5
aF72.1685562133789
aa(lp6
S'timestamp'
p7
aF6.491286993026733
aatp8
Rp9
.ccollections
OrderedDict
p0
((lp1
(lp2
S'state'
p3
aI0
aa(lp4
S'distance'
p5
aF72.1685562133789
aa(lp6
S'timestamp'
p7
aF6.491539001464844
aatp8
Rp9
.ccollections
OrderedDict
p0
((lp1
(lp2
S'state'
p3
aI0
aa(lp4
S'distance'
p5
aF72.1685562133789
aa(lp6
S'timestamp'
p7
aF6.500258922576904
aatp8
Rp9
.ccollections
OrderedDict
p0
((lp1
(lp2
S'state'
p3
aI0
aa(lp4
S'distance'
p5
aF72.1685562133789
aa(lp6
S'timestamp'
p7
aF6.501418113708496
aatp8
Rp9
.ccollections
OrderedDict
p0
((lp1
(lp2
S'state'
p3
aI0
aa(lp4
S'distance'
p5
aF72.1685562133789
aa(lp6
S'timestamp'
p7
aF6.511312007904053
aatp8
Rp9
.ccollections
OrderedDict
p0
((lp1
(lp2
S'state'
p3
aI0
aa(lp4
S'distance'
p5
aF72.1685562133789
aa(lp6
S'timestamp'
p7
aF6.5113890171051025
aatp8
Rp9
.ccollections
OrderedDict
p0
((lp1
(lp2
S'state'
p3
aI0
aa(lp4
S'distance'
p5
aF72.1685562133789
aa(lp6
S'timestamp'
p7
aF6.520148038864136
aatp8
Rp9
.ccollections
OrderedDict
p0
((lp1
(lp2
S'state'
p3
aI0
aa(lp4
S'distance'
p5
aF72.1685562133789
aa(lp6
S'timestamp'
p7
aF6.521013975143433
aatp8
Rp9
.ccollections
OrderedDict
p0
((lp1
(lp2
S'state'
p3
aI0
aa(lp4
S'distance'
p5
aF72.1685562133789
aa(lp6
S'timestamp'
p7
aF6.530751943588257
aatp8
Rp9
.ccollections
OrderedDict
p0
((lp1
(lp2
S'state'
p3
aI0
aa(lp4
S'distance'
p5
aF72.1685562133789
aa(lp6
S'timestamp'
p7
aF6.530829906463623
aatp8
Rp9
.ccollections
OrderedDict
p0
((lp1
(lp2
S'state'
p3
aI0
aa(lp4
S'distance'
p5
aF72.1685562133789
aa(lp6
S'timestamp'
p7
aF6.540838956832886
aatp8
Rp9
.ccollections
OrderedDict
p0
((lp1
(lp2
S'state'
p3
aI0
aa(lp4
S'distance'
p5
aF72.1685562133789
aa(lp6
S'timestamp'
p7
aF6.540941953659058
aatp8
Rp9
.ccollections
OrderedDict
p0
((lp1
(lp2
S'state'
p3
aI0
aa(lp4
S'distance'
p5
aF72.1685562133789
aa(lp6
S'timestamp'
p7
aF6.550615072250366
aatp8
Rp9
.ccollections
OrderedDict
p0
((lp1
(lp2
S'state'
p3
aI0
aa(lp4
S'distance'
p5
aF72.1685562133789
aa(lp6
S'timestamp'
p7
aF6.551821947097778
aatp8
Rp9
.ccollections
OrderedDict
p0
((lp1
(lp2
S'state'
p3
aI0
aa(lp4
S'distance'
p5
aF72.1685562133789
aa(lp6
S'timestamp'
p7
aF6.560450077056885
aatp8
Rp9
.ccollections
OrderedDict
p0
((lp1
(lp2
S'state'
p3
aI0
aa(lp4
S'distance'
p5
aF72.1685562133789
aa(lp6
S'timestamp'
p7
aF6.560678958892822
aatp8
Rp9
.ccollections
OrderedDict
p0
((lp1
(lp2
S'state'
p3
aI0
aa(lp4
S'distance'
p5
aF72.1685562133789
aa(lp6
S'timestamp'
p7
aF6.5708088874816895
aatp8
Rp9
.ccollections
OrderedDict
p0
((lp1
(lp2
S'state'
p3
aI0
aa(lp4
S'distance'
p5
aF72.1685562133789
aa(lp6
S'timestamp'
p7
aF6.570892095565796
aatp8
Rp9
.ccollections
OrderedDict
p0
((lp1
(lp2
S'state'
p3
aI0
aa(lp4
S'distance'
p5
aF72.1685562133789
aa(lp6
S'timestamp'
p7
aF6.580435037612915
aatp8
Rp9
.ccollections
OrderedDict
p0
((lp1
(lp2
S'state'
p3
aI0
aa(lp4
S'distance'
p5
aF72.1685562133789
aa(lp6
S'timestamp'
p7
aF6.581110954284668
aatp8
Rp9
.ccollections
OrderedDict
p0
((lp1
(lp2
S'state'
p3
aI0
aa(lp4
S'distance'
p5
aF72.1685562133789
aa(lp6
S'timestamp'
p7
aF6.590317964553833
aatp8
Rp9
.ccollections
OrderedDict
p0
((lp1
(lp2
S'state'
p3
aI0
aa(lp4
S'distance'
p5
aF72.1685562133789
aa(lp6
S'timestamp'
p7
aF6.591089963912964
aatp8
Rp9
.ccollections
OrderedDict
p0
((lp1
(lp2
S'state'
p3
aI0
aa(lp4
S'distance'
p5
aF72.1685562133789
aa(lp6
S'timestamp'
p7
aF6.600099086761475
aatp8
Rp9
.ccollections
OrderedDict
p0
((lp1
(lp2
S'state'
p3
aI0
aa(lp4
S'distance'
p5
aF72.1685562133789
aa(lp6
S'timestamp'
p7
aF6.6009681224823
aatp8
Rp9
.ccollections
OrderedDict
p0
((lp1
(lp2
S'state'
p3
aI0
aa(lp4
S'distance'
p5
aF72.1685562133789
aa(lp6
S'timestamp'
p7
aF6.610450029373169
aatp8
Rp9
.ccollections
OrderedDict
p0
((lp1
(lp2
S'state'
p3
aI0
aa(lp4
S'distance'
p5
aF72.1685562133789
aa(lp6
S'timestamp'
p7
aF6.611116886138916
aatp8
Rp9
.ccollections
OrderedDict
p0
((lp1
(lp2
S'state'
p3
aI0
aa(lp4
S'distance'
p5
aF72.1685562133789
aa(lp6
S'timestamp'
p7
aF6.620944023132324
aatp8
Rp9
.ccollections
OrderedDict
p0
((lp1
(lp2
S'state'
p3
aI0
aa(lp4
S'distance'
p5
aF72.1685562133789
aa(lp6
S'timestamp'
p7
aF6.622042894363403
aatp8
Rp9
.ccollections
OrderedDict
p0
((lp1
(lp2
S'state'
p3
aI0
aa(lp4
S'distance'
p5
aF72.1685562133789
aa(lp6
S'timestamp'
p7
aF6.641619920730591
aatp8
Rp9
.ccollections
OrderedDict
p0
((lp1
(lp2
S'state'
p3
aI0
aa(lp4
S'distance'
p5
aF72.1685562133789
aa(lp6
S'timestamp'
p7
aF6.641768932342529
aatp8
Rp9
.ccollections
OrderedDict
p0
((lp1
(lp2
S'state'
p3
aI0
aa(lp4
S'distance'
p5
aF72.1685562133789
aa(lp6
S'timestamp'
p7
aF6.642225027084351
aatp8
Rp9
.ccollections
OrderedDict
p0
((lp1
(lp2
S'state'
p3
aI0
aa(lp4
S'distance'
p5
aF72.1685562133789
aa(lp6
S'timestamp'
p7
aF6.642817974090576
aatp8
Rp9
.ccollections
OrderedDict
p0
((lp1
(lp2
S'state'
p3
aI0
aa(lp4
S'distance'
p5
aF72.1685562133789
aa(lp6
S'timestamp'
p7
aF6.650119066238403
aatp8
Rp9
.ccollections
OrderedDict
p0
((lp1
(lp2
S'state'
p3
aI0
aa(lp4
S'distance'
p5
aF72.1685562133789
aa(lp6
S'timestamp'
p7
aF6.651138067245483
aatp8
Rp9
.ccollections
OrderedDict
p0
((lp1
(lp2
S'state'
p3
aI0
aa(lp4
S'distance'
p5
aF72.1685562133789
aa(lp6
S'timestamp'
p7
aF6.66188907623291
aatp8
Rp9
.ccollections
OrderedDict
p0
((lp1
(lp2
S'state'
p3
aI0
aa(lp4
S'distance'
p5
aF72.1685562133789
aa(lp6
S'timestamp'
p7
aF6.661988019943237
aatp8
Rp9
.ccollections
OrderedDict
p0
((lp1
(lp2
S'state'
p3
aI0
aa(lp4
S'distance'
p5
aF72.1685562133789
aa(lp6
S'timestamp'
p7
aF6.67112398147583
aatp8
Rp9
.ccollections
OrderedDict
p0
((lp1
(lp2
S'state'
p3
aI0
aa(lp4
S'distance'
p5
aF72.1685562133789
aa(lp6
S'timestamp'
p7
aF6.671436071395874
aatp8
Rp9
.ccollections
OrderedDict
p0
((lp1
(lp2
S'state'
p3
aI0
aa(lp4
S'distance'
p5
aF72.1685562133789
aa(lp6
S'timestamp'
p7
aF6.680737018585205
aatp8
Rp9
.ccollections
OrderedDict
p0
((lp1
(lp2
S'state'
p3
aI0
aa(lp4
S'distance'
p5
aF72.1685562133789
aa(lp6
S'timestamp'
p7
aF6.6819069385528564
aatp8
Rp9
.ccollections
OrderedDict
p0
((lp1
(lp2
S'state'
p3
aI0
aa(lp4
S'distance'
p5
aF72.1685562133789
aa(lp6
S'timestamp'
p7
aF6.690710067749023
aatp8
Rp9
.ccollections
OrderedDict
p0
((lp1
(lp2
S'state'
p3
aI0
aa(lp4
S'distance'
p5
aF72.1685562133789
aa(lp6
S'timestamp'
p7
aF6.691000938415527
aatp8
Rp9
.ccollections
OrderedDict
p0
((lp1
(lp2
S'state'
p3
aI0
aa(lp4
S'distance'
p5
aF72.1685562133789
aa(lp6
S'timestamp'
p7
aF6.700166940689087
aatp8
Rp9
.ccollections
OrderedDict
p0
((lp1
(lp2
S'state'
p3
aI0
aa(lp4
S'distance'
p5
aF72.1685562133789
aa(lp6
S'timestamp'
p7
aF6.701127052307129
aatp8
Rp9
.ccollections
OrderedDict
p0
((lp1
(lp2
S'state'
p3
aI0
aa(lp4
S'distance'
p5
aF72.1685562133789
aa(lp6
S'timestamp'
p7
aF6.71016001701355
aatp8
Rp9
.ccollections
OrderedDict
p0
((lp1
(lp2
S'state'
p3
aI0
aa(lp4
S'distance'
p5
aF72.1685562133789
aa(lp6
S'timestamp'
p7
aF6.711252927780151
aatp8
Rp9
.ccollections
OrderedDict
p0
((lp1
(lp2
S'state'
p3
aI0
aa(lp4
S'distance'
p5
aF72.1685562133789
aa(lp6
S'timestamp'
p7
aF6.72083592414856
aatp8
Rp9
.ccollections
OrderedDict
p0
((lp1
(lp2
S'state'
p3
aI0
aa(lp4
S'distance'
p5
aF72.1685562133789
aa(lp6
S'timestamp'
p7
aF6.72091007232666
aatp8
Rp9
.ccollections
OrderedDict
p0
((lp1
(lp2
S'state'
p3
aI0
aa(lp4
S'distance'
p5
aF72.1685562133789
aa(lp6
S'timestamp'
p7
aF6.730817079544067
aatp8
Rp9
.ccollections
OrderedDict
p0
((lp1
(lp2
S'state'
p3
aI0
aa(lp4
S'distance'
p5
aF72.1685562133789
aa(lp6
S'timestamp'
p7
aF6.730889081954956
aatp8
Rp9
.ccollections
OrderedDict
p0
((lp1
(lp2
S'state'
p3
aI0
aa(lp4
S'distance'
p5
aF72.1685562133789
aa(lp6
S'timestamp'
p7
aF6.740777969360352
aatp8
Rp9
.ccollections
OrderedDict
p0
((lp1
(lp2
S'state'
p3
aI0
aa(lp4
S'distance'
p5
aF72.1685562133789
aa(lp6
S'timestamp'
p7
aF6.740854024887085
aatp8
Rp9
.ccollections
OrderedDict
p0
((lp1
(lp2
S'state'
p3
aI0
aa(lp4
S'distance'
p5
aF72.1685562133789
aa(lp6
S'timestamp'
p7
aF6.750622034072876
aatp8
Rp9
.ccollections
OrderedDict
p0
((lp1
(lp2
S'state'
p3
aI0
aa(lp4
S'distance'
p5
aF72.1685562133789
aa(lp6
S'timestamp'
p7
aF6.751090049743652
aatp8
Rp9
.ccollections
OrderedDict
p0
((lp1
(lp2
S'state'
p3
aI0
aa(lp4
S'distance'
p5
aF72.1685562133789
aa(lp6
S'timestamp'
p7
aF6.760615110397339
aatp8
Rp9
.ccollections
OrderedDict
p0
((lp1
(lp2
S'state'
p3
aI0
aa(lp4
S'distance'
p5
aF72.1685562133789
aa(lp6
S'timestamp'
p7
aF6.760692119598389
aatp8
Rp9
.ccollections
OrderedDict
p0
((lp1
(lp2
S'state'
p3
aI0
aa(lp4
S'distance'
p5
aF72.1685562133789
aa(lp6
S'timestamp'
p7
aF6.770066022872925
aatp8
Rp9
.ccollections
OrderedDict
p0
((lp1
(lp2
S'state'
p3
aI0
aa(lp4
S'distance'
p5
aF72.1685562133789
aa(lp6
S'timestamp'
p7
aF6.770654916763306
aatp8
Rp9
.ccollections
OrderedDict
p0
((lp1
(lp2
S'state'
p3
aI0
aa(lp4
S'distance'
p5
aF72.1685562133789
aa(lp6
S'timestamp'
p7
aF6.780097961425781
aatp8
Rp9
.ccollections
OrderedDict
p0
((lp1
(lp2
S'state'
p3
aI0
aa(lp4
S'distance'
p5
aF72.1685562133789
aa(lp6
S'timestamp'
p7
aF6.780961990356445
aatp8
Rp9
.ccollections
OrderedDict
p0
((lp1
(lp2
S'state'
p3
aI0
aa(lp4
S'distance'
p5
aF72.1685562133789
aa(lp6
S'timestamp'
p7
aF6.79079008102417
aatp8
Rp9
.ccollections
OrderedDict
p0
((lp1
(lp2
S'state'
p3
aI0
aa(lp4
S'distance'
p5
aF72.1685562133789
aa(lp6
S'timestamp'
p7
aF6.790935039520264
aatp8
Rp9
.ccollections
OrderedDict
p0
((lp1
(lp2
S'state'
p3
aI0
aa(lp4
S'distance'
p5
aF72.1685562133789
aa(lp6
S'timestamp'
p7
aF6.8003809452056885
aatp8
Rp9
.ccollections
OrderedDict
p0
((lp1
(lp2
S'state'
p3
aI0
aa(lp4
S'distance'
p5
aF72.1685562133789
aa(lp6
S'timestamp'
p7
aF6.801002025604248
aatp8
Rp9
.ccollections
OrderedDict
p0
((lp1
(lp2
S'state'
p3
aI0
aa(lp4
S'distance'
p5
aF72.1685562133789
aa(lp6
S'timestamp'
p7
aF6.810250997543335
aatp8
Rp9
.ccollections
OrderedDict
p0
((lp1
(lp2
S'state'
p3
aI0
aa(lp4
S'distance'
p5
aF72.1685562133789
aa(lp6
S'timestamp'
p7
aF6.811008930206299
aatp8
Rp9
.ccollections
OrderedDict
p0
((lp1
(lp2
S'state'
p3
aI0
aa(lp4
S'distance'
p5
aF72.1685562133789
aa(lp6
S'timestamp'
p7
aF6.820574998855591
aatp8
Rp9
.ccollections
OrderedDict
p0
((lp1
(lp2
S'state'
p3
aI0
aa(lp4
S'distance'
p5
aF72.1685562133789
aa(lp6
S'timestamp'
p7
aF6.8210530281066895
aatp8
Rp9
.ccollections
OrderedDict
p0
((lp1
(lp2
S'state'
p3
aI0
aa(lp4
S'distance'
p5
aF72.1685562133789
aa(lp6
S'timestamp'
p7
aF6.830219030380249
aatp8
Rp9
.ccollections
OrderedDict
p0
((lp1
(lp2
S'state'
p3
aI0
aa(lp4
S'distance'
p5
aF72.1685562133789
aa(lp6
S'timestamp'
p7
aF6.831845998764038
aatp8
Rp9
.ccollections
OrderedDict
p0
((lp1
(lp2
S'state'
p3
aI0
aa(lp4
S'distance'
p5
aF72.1685562133789
aa(lp6
S'timestamp'
p7
aF6.842807054519653
aatp8
Rp9
.ccollections
OrderedDict
p0
((lp1
(lp2
S'state'
p3
aI0
aa(lp4
S'distance'
p5
aF72.1685562133789
aa(lp6
S'timestamp'
p7
aF6.842888116836548
aatp8
Rp9
.ccollections
OrderedDict
p0
((lp1
(lp2
S'state'
p3
aI0
aa(lp4
S'distance'
p5
aF72.1685562133789
aa(lp6
S'timestamp'
p7
aF6.850580930709839
aatp8
Rp9
.ccollections
OrderedDict
p0
((lp1
(lp2
S'state'
p3
aI0
aa(lp4
S'distance'
p5
aF72.1685562133789
aa(lp6
S'timestamp'
p7
aF6.850899934768677
aatp8
Rp9
.ccollections
OrderedDict
p0
((lp1
(lp2
S'state'
p3
aI0
aa(lp4
S'distance'
p5
aF72.1685562133789
aa(lp6
S'timestamp'
p7
aF6.860672950744629
aatp8
Rp9
.ccollections
OrderedDict
p0
((lp1
(lp2
S'state'
p3
aI0
aa(lp4
S'distance'
p5
aF72.1685562133789
aa(lp6
S'timestamp'
p7
aF6.860750913619995
aatp8
Rp9
.ccollections
OrderedDict
p0
((lp1
(lp2
S'state'
p3
aI0
aa(lp4
S'distance'
p5
aF72.1685562133789
aa(lp6
S'timestamp'
p7
aF6.870852947235107
aatp8
Rp9
.ccollections
OrderedDict
p0
((lp1
(lp2
S'state'
p3
aI0
aa(lp4
S'distance'
p5
aF72.1685562133789
aa(lp6
S'timestamp'
p7
aF6.871438980102539
aatp8
Rp9
.ccollections
OrderedDict
p0
((lp1
(lp2
S'state'
p3
aI0
aa(lp4
S'distance'
p5
aF72.1685562133789
aa(lp6
S'timestamp'
p7
aF6.880630016326904
aatp8
Rp9
.ccollections
OrderedDict
p0
((lp1
(lp2
S'state'
p3
aI0
aa(lp4
S'distance'
p5
aF72.1685562133789
aa(lp6
S'timestamp'
p7
aF6.881114959716797
aatp8
Rp9
.ccollections
OrderedDict
p0
((lp1
(lp2
S'state'
p3
aI0
aa(lp4
S'distance'
p5
aF72.1685562133789
aa(lp6
S'timestamp'
p7
aF6.890726089477539
aatp8
Rp9
.ccollections
OrderedDict
p0
((lp1
(lp2
S'state'
p3
aI0
aa(lp4
S'distance'
p5
aF72.1685562133789
aa(lp6
S'timestamp'
p7
aF6.890799045562744
aatp8
Rp9
.ccollections
OrderedDict
p0
((lp1
(lp2
S'state'
p3
aI0
aa(lp4
S'distance'
p5
aF72.1685562133789
aa(lp6
S'timestamp'
p7
aF6.900989055633545
aatp8
Rp9
.ccollections
OrderedDict
p0
((lp1
(lp2
S'state'
p3
aI0
aa(lp4
S'distance'
p5
aF72.1685562133789
aa(lp6
S'timestamp'
p7
aF6.901066064834595
aatp8
Rp9
.ccollections
OrderedDict
p0
((lp1
(lp2
S'state'
p3
aI0
aa(lp4
S'distance'
p5
aF72.1685562133789
aa(lp6
S'timestamp'
p7
aF6.910254001617432
aatp8
Rp9
.ccollections
OrderedDict
p0
((lp1
(lp2
S'state'
p3
aI0
aa(lp4
S'distance'
p5
aF72.1685562133789
aa(lp6
S'timestamp'
p7
aF6.911164045333862
aatp8
Rp9
.ccollections
OrderedDict
p0
((lp1
(lp2
S'state'
p3
aI0
aa(lp4
S'distance'
p5
aF72.1685562133789
aa(lp6
S'timestamp'
p7
aF6.968714952468872
aatp8
Rp9
.ccollections
OrderedDict
p0
((lp1
(lp2
S'state'
p3
aI0
aa(lp4
S'distance'
p5
aF72.1685562133789
aa(lp6
S'timestamp'
p7
aF6.969095945358276
aatp8
Rp9
.ccollections
OrderedDict
p0
((lp1
(lp2
S'state'
p3
aI0
aa(lp4
S'distance'
p5
aF72.1685562133789
aa(lp6
S'timestamp'
p7
aF6.969597101211548
aatp8
Rp9
.ccollections
OrderedDict
p0
((lp1
(lp2
S'state'
p3
aI0
aa(lp4
S'distance'
p5
aF72.1685562133789
aa(lp6
S'timestamp'
p7
aF6.969974994659424
aatp8
Rp9
.ccollections
OrderedDict
p0
((lp1
(lp2
S'state'
p3
aI0
aa(lp4
S'distance'
p5
aF72.1685562133789
aa(lp6
S'timestamp'
p7
aF6.970180034637451
aatp8
Rp9
.ccollections
OrderedDict
p0
((lp1
(lp2
S'state'
p3
aI0
aa(lp4
S'distance'
p5
aF72.1685562133789
aa(lp6
S'timestamp'
p7
aF6.972089052200317
aatp8
Rp9
.ccollections
OrderedDict
p0
((lp1
(lp2
S'state'
p3
aI0
aa(lp4
S'distance'
p5
aF72.1685562133789
aa(lp6
S'timestamp'
p7
aF6.973897933959961
aatp8
Rp9
.ccollections
OrderedDict
p0
((lp1
(lp2
S'state'
p3
aI0
aa(lp4
S'distance'
p5
aF72.1685562133789
aa(lp6
S'timestamp'
p7
aF6.975145101547241
aatp8
Rp9
.ccollections
OrderedDict
p0
((lp1
(lp2
S'state'
p3
aI0
aa(lp4
S'distance'
p5
aF72.1685562133789
aa(lp6
S'timestamp'
p7
aF6.975320100784302
aatp8
Rp9
.ccollections
OrderedDict
p0
((lp1
(lp2
S'state'
p3
aI0
aa(lp4
S'distance'
p5
aF72.1685562133789
aa(lp6
S'timestamp'
p7
aF6.977513074874878
aatp8
Rp9
.ccollections
OrderedDict
p0
((lp1
(lp2
S'state'
p3
aI0
aa(lp4
S'distance'
p5
aF72.1685562133789
aa(lp6
S'timestamp'
p7
aF6.977869987487793
aatp8
Rp9
.ccollections
OrderedDict
p0
((lp1
(lp2
S'state'
p3
aI0
aa(lp4
S'distance'
p5
aF72.1685562133789
aa(lp6
S'timestamp'
p7
aF6.9783830642700195
aatp8
Rp9
.ccollections
OrderedDict
p0
((lp1
(lp2
S'state'
p3
aI0
aa(lp4
S'distance'
p5
aF72.1685562133789
aa(lp6
S'timestamp'
p7
aF6.980618000030518
aatp8
Rp9
.ccollections
OrderedDict
p0
((lp1
(lp2
S'state'
p3
aI0
aa(lp4
S'distance'
p5
aF72.1685562133789
aa(lp6
S'timestamp'
p7
aF6.981484889984131
aatp8
Rp9
.ccollections
OrderedDict
p0
((lp1
(lp2
S'state'
p3
aI0
aa(lp4
S'distance'
p5
aF72.1685562133789
aa(lp6
S'timestamp'
p7
aF6.990863084793091
aatp8
Rp9
.ccollections
OrderedDict
p0
((lp1
(lp2
S'state'
p3
aI0
aa(lp4
S'distance'
p5
aF72.1685562133789
aa(lp6
S'timestamp'
p7
aF6.991123914718628
aatp8
Rp9
.ccollections
OrderedDict
p0
((lp1
(lp2
S'state'
p3
aI0
aa(lp4
S'distance'
p5
aF72.1685562133789
aa(lp6
S'timestamp'
p7
aF7.000143051147461
aatp8
Rp9
.ccollections
OrderedDict
p0
((lp1
(lp2
S'state'
p3
aI0
aa(lp4
S'distance'
p5
aF72.1685562133789
aa(lp6
S'timestamp'
p7
aF7.000684022903442
aatp8
Rp9
.ccollections
OrderedDict
p0
((lp1
(lp2
S'state'
p3
aI0
aa(lp4
S'distance'
p5
aF72.1685562133789
aa(lp6
S'timestamp'
p7
aF7.01217794418335
aatp8
Rp9
.ccollections
OrderedDict
p0
((lp1
(lp2
S'state'
p3
aI0
aa(lp4
S'distance'
p5
aF72.1685562133789
aa(lp6
S'timestamp'
p7
aF7.012480974197388
aatp8
Rp9
.ccollections
OrderedDict
p0
((lp1
(lp2
S'state'
p3
aI0
aa(lp4
S'distance'
p5
aF72.1685562133789
aa(lp6
S'timestamp'
p7
aF7.020212888717651
aatp8
Rp9
.ccollections
OrderedDict
p0
((lp1
(lp2
S'state'
p3
aI0
aa(lp4
S'distance'
p5
aF72.1685562133789
aa(lp6
S'timestamp'
p7
aF7.020948886871338
aatp8
Rp9
.ccollections
OrderedDict
p0
((lp1
(lp2
S'state'
p3
aI0
aa(lp4
S'distance'
p5
aF72.1685562133789
aa(lp6
S'timestamp'
p7
aF7.030802965164185
aatp8
Rp9
.ccollections
OrderedDict
p0
((lp1
(lp2
S'state'
p3
aI0
aa(lp4
S'distance'
p5
aF72.1685562133789
aa(lp6
S'timestamp'
p7
aF7.030878067016602
aatp8
Rp9
.ccollections
OrderedDict
p0
((lp1
(lp2
S'state'
p3
aI0
aa(lp4
S'distance'
p5
aF72.1685562133789
aa(lp6
S'timestamp'
p7
aF7.04052996635437
aatp8
Rp9
.ccollections
OrderedDict
p0
((lp1
(lp2
S'state'
p3
aI0
aa(lp4
S'distance'
p5
aF72.1685562133789
aa(lp6
S'timestamp'
p7
aF7.040930986404419
aatp8
Rp9
.ccollections
OrderedDict
p0
((lp1
(lp2
S'state'
p3
aI0
aa(lp4
S'distance'
p5
aF72.1685562133789
aa(lp6
S'timestamp'
p7
aF7.050817012786865
aatp8
Rp9
.ccollections
OrderedDict
p0
((lp1
(lp2
S'state'
p3
aI0
aa(lp4
S'distance'
p5
aF72.1685562133789
aa(lp6
S'timestamp'
p7
aF7.050950050354004
aatp8
Rp9
.ccollections
OrderedDict
p0
((lp1
(lp2
S'state'
p3
aI0
aa(lp4
S'distance'
p5
aF72.1685562133789
aa(lp6
S'timestamp'
p7
aF7.060689926147461
aatp8
Rp9
.ccollections
OrderedDict
p0
((lp1
(lp2
S'state'
p3
aI0
aa(lp4
S'distance'
p5
aF72.1685562133789
aa(lp6
S'timestamp'
p7
aF7.060766935348511
aatp8
Rp9
.ccollections
OrderedDict
p0
((lp1
(lp2
S'state'
p3
aI0
aa(lp4
S'distance'
p5
aF72.1685562133789
aa(lp6
S'timestamp'
p7
aF7.070607900619507
aatp8
Rp9
.ccollections
OrderedDict
p0
((lp1
(lp2
S'state'
p3
aI0
aa(lp4
S'distance'
p5
aF72.1685562133789
aa(lp6
S'timestamp'
p7
aF7.071055889129639
aatp8
Rp9
.ccollections
OrderedDict
p0
((lp1
(lp2
S'state'
p3
aI0
aa(lp4
S'distance'
p5
aF72.1685562133789
aa(lp6
S'timestamp'
p7
aF7.080872058868408
aatp8
Rp9
.ccollections
OrderedDict
p0
((lp1
(lp2
S'state'
p3
aI0
aa(lp4
S'distance'
p5
aF72.1685562133789
aa(lp6
S'timestamp'
p7
aF7.081301927566528
aatp8
Rp9
.ccollections
OrderedDict
p0
((lp1
(lp2
S'state'
p3
aI0
aa(lp4
S'distance'
p5
aF72.1685562133789
aa(lp6
S'timestamp'
p7
aF7.089930057525635
aatp8
Rp9
.ccollections
OrderedDict
p0
((lp1
(lp2
S'state'
p3
aI0
aa(lp4
S'distance'
p5
aF72.1685562133789
aa(lp6
S'timestamp'
p7
aF7.090631008148193
aatp8
Rp9
.ccollections
OrderedDict
p0
((lp1
(lp2
S'state'
p3
aI0
aa(lp4
S'distance'
p5
aF72.1685562133789
aa(lp6
S'timestamp'
p7
aF7.100701093673706
aatp8
Rp9
.ccollections
OrderedDict
p0
((lp1
(lp2
S'state'
p3
aI0
aa(lp4
S'distance'
p5
aF72.1685562133789
aa(lp6
S'timestamp'
p7
aF7.100778102874756
aatp8
Rp9
.ccollections
OrderedDict
p0
((lp1
(lp2
S'state'
p3
aI0
aa(lp4
S'distance'
p5
aF72.1685562133789
aa(lp6
S'timestamp'
p7
aF7.11089301109314
aatp8
Rp9
.ccollections
OrderedDict
p0
((lp1
(lp2
S'state'
p3
aI0
aa(lp4
S'distance'
p5
aF72.1685562133789
aa(lp6
S'timestamp'
p7
aF7.111005067825317
aatp8
Rp9
.ccollections
OrderedDict
p0
((lp1
(lp2
S'state'
p3
aI0
aa(lp4
S'distance'
p5
aF72.1685562133789
aa(lp6
S'timestamp'
p7
aF7.1208579540252686
aatp8
Rp9
.ccollections
OrderedDict
p0
((lp1
(lp2
S'state'
p3
aI0
aa(lp4
S'distance'
p5
aF72.1685562133789
aa(lp6
S'timestamp'
p7
aF7.120978116989136
aatp8
Rp9
.ccollections
OrderedDict
p0
((lp1
(lp2
S'state'
p3
aI0
aa(lp4
S'distance'
p5
aF72.1685562133789
aa(lp6
S'timestamp'
p7
aF7.1306679248809814
aatp8
Rp9
.ccollections
OrderedDict
p0
((lp1
(lp2
S'state'
p3
aI0
aa(lp4
S'distance'
p5
aF72.1685562133789
aa(lp6
S'timestamp'
p7
aF7.131139039993286
aatp8
Rp9
.ccollections
OrderedDict
p0
((lp1
(lp2
S'state'
p3
aI0
aa(lp4
S'distance'
p5
aF72.1685562133789
aa(lp6
S'timestamp'
p7
aF7.140718936920166
aatp8
Rp9
.ccollections
OrderedDict
p0
((lp1
(lp2
S'state'
p3
aI0
aa(lp4
S'distance'
p5
aF72.1685562133789
aa(lp6
S'timestamp'
p7
aF7.141010999679565
aatp8
Rp9
.ccollections
OrderedDict
p0
((lp1
(lp2
S'state'
p3
aI0
aa(lp4
S'distance'
p5
aF72.1685562133789
aa(lp6
S'timestamp'
p7
aF7.15120792388916
aatp8
Rp9
.ccollections
OrderedDict
p0
((lp1
(lp2
S'state'
p3
aI0
aa(lp4
S'distance'
p5
aF72.1685562133789
aa(lp6
S'timestamp'
p7
aF7.151285886764526
aatp8
Rp9
.ccollections
OrderedDict
p0
((lp1
(lp2
S'state'
p3
aI0
aa(lp4
S'distance'
p5
aF72.1685562133789
aa(lp6
S'timestamp'
p7
aF7.160239934921265
aatp8
Rp9
.ccollections
OrderedDict
p0
((lp1
(lp2
S'state'
p3
aI0
aa(lp4
S'distance'
p5
aF72.1685562133789
aa(lp6
S'timestamp'
p7
aF7.160857915878296
aatp8
Rp9
.ccollections
OrderedDict
p0
((lp1
(lp2
S'state'
p3
aI0
aa(lp4
S'distance'
p5
aF72.1685562133789
aa(lp6
S'timestamp'
p7
aF7.170459032058716
aatp8
Rp9
.ccollections
OrderedDict
p0
((lp1
(lp2
S'state'
p3
aI0
aa(lp4
S'distance'
p5
aF72.1685562133789
aa(lp6
S'timestamp'
p7
aF7.170634031295776
aatp8
Rp9
.ccollections
OrderedDict
p0
((lp1
(lp2
S'state'
p3
aI0
aa(lp4
S'distance'
p5
aF72.1685562133789
aa(lp6
S'timestamp'
p7
aF7.180262088775635
aatp8
Rp9
.ccollections
OrderedDict
p0
((lp1
(lp2
S'state'
p3
aI0
aa(lp4
S'distance'
p5
aF72.1685562133789
aa(lp6
S'timestamp'
p7
aF7.181368112564087
aatp8
Rp9
.ccollections
OrderedDict
p0
((lp1
(lp2
S'state'
p3
aI0
aa(lp4
S'distance'
p5
aF72.1685562133789
aa(lp6
S'timestamp'
p7
aF7.1902101039886475
aatp8
Rp9
.ccollections
OrderedDict
p0
((lp1
(lp2
S'state'
p3
aI0
aa(lp4
S'distance'
p5
aF72.1685562133789
aa(lp6
S'timestamp'
p7
aF7.190893888473511
aatp8
Rp9
.ccollections
OrderedDict
p0
((lp1
(lp2
S'state'
p3
aI0
aa(lp4
S'distance'
p5
aF72.1685562133789
aa(lp6
S'timestamp'
p7
aF7.1999969482421875
aatp8
Rp9
.ccollections
OrderedDict
p0
((lp1
(lp2
S'state'
p3
aI0
aa(lp4
S'distance'
p5
aF72.1685562133789
aa(lp6
S'timestamp'
p7
aF7.201344013214111
aatp8
Rp9
.ccollections
OrderedDict
p0
((lp1
(lp2
S'state'
p3
aI0
aa(lp4
S'distance'
p5
aF72.1685562133789
aa(lp6
S'timestamp'
p7
aF7.210045099258423
aatp8
Rp9
.ccollections
OrderedDict
p0
((lp1
(lp2
S'state'
p3
aI0
aa(lp4
S'distance'
p5
aF72.1685562133789
aa(lp6
S'timestamp'
p7
aF7.210917949676514
aatp8
Rp9
.ccollections
OrderedDict
p0
((lp1
(lp2
S'state'
p3
aI0
aa(lp4
S'distance'
p5
aF72.1685562133789
aa(lp6
S'timestamp'
p7
aF7.221298933029175
aatp8
Rp9
.ccollections
OrderedDict
p0
((lp1
(lp2
S'state'
p3
aI0
aa(lp4
S'distance'
p5
aF72.1685562133789
aa(lp6
S'timestamp'
p7
aF7.221714019775391
aatp8
Rp9
.ccollections
OrderedDict
p0
((lp1
(lp2
S'state'
p3
aI0
aa(lp4
S'distance'
p5
aF72.1685562133789
aa(lp6
S'timestamp'
p7
aF7.230648040771484
aatp8
Rp9
.ccollections
OrderedDict
p0
((lp1
(lp2
S'state'
p3
aI0
aa(lp4
S'distance'
p5
aF72.1685562133789
aa(lp6
S'timestamp'
p7
aF7.231173992156982
aatp8
Rp9
.ccollections
OrderedDict
p0
((lp1
(lp2
S'state'
p3
aI0
aa(lp4
S'distance'
p5
aF72.1685562133789
aa(lp6
S'timestamp'
p7
aF7.241525888442993
aatp8
Rp9
.ccollections
OrderedDict
p0
((lp1
(lp2
S'state'
p3
aI0
aa(lp4
S'distance'
p5
aF72.1685562133789
aa(lp6
S'timestamp'
p7
aF7.241713047027588
aatp8
Rp9
.ccollections
OrderedDict
p0
((lp1
(lp2
S'state'
p3
aI0
aa(lp4
S'distance'
p5
aF72.1685562133789
aa(lp6
S'timestamp'
p7
aF7.250436067581177
aatp8
Rp9
.ccollections
OrderedDict
p0
((lp1
(lp2
S'state'
p3
aI0
aa(lp4
S'distance'
p5
aF72.1685562133789
aa(lp6
S'timestamp'
p7
aF7.250566005706787
aatp8
Rp9
.ccollections
OrderedDict
p0
((lp1
(lp2
S'state'
p3
aI0
aa(lp4
S'distance'
p5
aF72.1685562133789
aa(lp6
S'timestamp'
p7
aF7.260193109512329
aatp8
Rp9
.ccollections
OrderedDict
p0
((lp1
(lp2
S'state'
p3
aI0
aa(lp4
S'distance'
p5
aF72.1685562133789
aa(lp6
S'timestamp'
p7
aF7.261028051376343
aatp8
Rp9
.ccollections
OrderedDict
p0
((lp1
(lp2
S'state'
p3
aI0
aa(lp4
S'distance'
p5
aF72.1685562133789
aa(lp6
S'timestamp'
p7
aF7.270747900009155
aatp8
Rp9
.ccollections
OrderedDict
p0
((lp1
(lp2
S'state'
p3
aI0
aa(lp4
S'distance'
p5
aF72.1685562133789
aa(lp6
S'timestamp'
p7
aF7.270827054977417
aatp8
Rp9
.ccollections
OrderedDict
p0
((lp1
(lp2
S'state'
p3
aI0
aa(lp4
S'distance'
p5
aF72.1685562133789
aa(lp6
S'timestamp'
p7
aF7.2806079387664795
aatp8
Rp9
.ccollections
OrderedDict
p0
((lp1
(lp2
S'state'
p3
aI0
aa(lp4
S'distance'
p5
aF72.1685562133789
aa(lp6
S'timestamp'
p7
aF7.280766010284424
aatp8
Rp9
.ccollections
OrderedDict
p0
((lp1
(lp2
S'state'
p3
aI0
aa(lp4
S'distance'
p5
aF72.1685562133789
aa(lp6
S'timestamp'
p7
aF7.290086030960083
aatp8
Rp9
.ccollections
OrderedDict
p0
((lp1
(lp2
S'state'
p3
aI0
aa(lp4
S'distance'
p5
aF72.1685562133789
aa(lp6
S'timestamp'
p7
aF7.310578107833862
aatp8
Rp9
.ccollections
OrderedDict
p0
((lp1
(lp2
S'state'
p3
aI0
aa(lp4
S'distance'
p5
aF72.1685562133789
aa(lp6
S'timestamp'
p7
aF7.3113250732421875
aatp8
Rp9
.ccollections
OrderedDict
p0
((lp1
(lp2
S'state'
p3
aI0
aa(lp4
S'distance'
p5
aF72.1685562133789
aa(lp6
S'timestamp'
p7
aF7.313220977783203
aatp8
Rp9
.ccollections
OrderedDict
p0
((lp1
(lp2
S'state'
p3
aI0
aa(lp4
S'distance'
p5
aF72.1685562133789
aa(lp6
S'timestamp'
p7
aF7.313306093215942
aatp8
Rp9
.ccollections
OrderedDict
p0
((lp1
(lp2
S'state'
p3
aI0
aa(lp4
S'distance'
p5
aF72.1685562133789
aa(lp6
S'timestamp'
p7
aF7.320537090301514
aatp8
Rp9
.ccollections
OrderedDict
p0
((lp1
(lp2
S'state'
p3
aI0
aa(lp4
S'distance'
p5
aF72.1685562133789
aa(lp6
S'timestamp'
p7
aF7.321343898773193
aatp8
Rp9
.ccollections
OrderedDict
p0
((lp1
(lp2
S'state'
p3
aI0
aa(lp4
S'distance'
p5
aF72.1685562133789
aa(lp6
S'timestamp'
p7
aF7.321542978286743
aatp8
Rp9
.ccollections
OrderedDict
p0
((lp1
(lp2
S'state'
p3
aI0
aa(lp4
S'distance'
p5
aF72.1685562133789
aa(lp6
S'timestamp'
p7
aF7.329966068267822
aatp8
Rp9
.ccollections
OrderedDict
p0
((lp1
(lp2
S'state'
p3
aI0
aa(lp4
S'distance'
p5
aF72.1685562133789
aa(lp6
S'timestamp'
p7
aF7.330673933029175
aatp8
Rp9
.ccollections
OrderedDict
p0
((lp1
(lp2
S'state'
p3
aI0
aa(lp4
S'distance'
p5
aF72.1685562133789
aa(lp6
S'timestamp'
p7
aF7.339922904968262
aatp8
Rp9
.ccollections
OrderedDict
p0
((lp1
(lp2
S'state'
p3
aI0
aa(lp4
S'distance'
p5
aF72.1685562133789
aa(lp6
S'timestamp'
p7
aF7.340584993362427
aatp8
Rp9
.ccollections
OrderedDict
p0
((lp1
(lp2
S'state'
p3
aI0
aa(lp4
S'distance'
p5
aF72.1685562133789
aa(lp6
S'timestamp'
p7
aF7.3500730991363525
aatp8
Rp9
.ccollections
OrderedDict
p0
((lp1
(lp2
S'state'
p3
aI0
aa(lp4
S'distance'
p5
aF72.1685562133789
aa(lp6
S'timestamp'
p7
aF7.350563049316406
aatp8
Rp9
.ccollections
OrderedDict
p0
((lp1
(lp2
S'state'
p3
aI0
aa(lp4
S'distance'
p5
aF72.1685562133789
aa(lp6
S'timestamp'
p7
aF7.360224962234497
aatp8
Rp9
.ccollections
OrderedDict
p0
((lp1
(lp2
S'state'
p3
aI0
aa(lp4
S'distance'
p5
aF72.1685562133789
aa(lp6
S'timestamp'
p7
aF7.360964059829712
aatp8
Rp9
.ccollections
OrderedDict
p0
((lp1
(lp2
S'state'
p3
aI0
aa(lp4
S'distance'
p5
aF72.1685562133789
aa(lp6
S'timestamp'
p7
aF7.3800599575042725
aatp8
Rp9
.ccollections
OrderedDict
p0
((lp1
(lp2
S'state'
p3
aI0
aa(lp4
S'distance'
p5
aF72.1685562133789
aa(lp6
S'timestamp'
p7
aF7.381308078765869
aatp8
Rp9
.ccollections
OrderedDict
p0
((lp1
(lp2
S'state'
p3
aI0
aa(lp4
S'distance'
p5
aF72.1685562133789
aa(lp6
S'timestamp'
p7
aF7.381644010543823
aatp8
Rp9
.ccollections
OrderedDict
p0
((lp1
(lp2
S'state'
p3
aI0
aa(lp4
S'distance'
p5
aF72.1685562133789
aa(lp6
S'timestamp'
p7
aF7.381756067276001
aatp8
Rp9
.ccollections
OrderedDict
p0
((lp1
(lp2
S'state'
p3
aI0
aa(lp4
S'distance'
p5
aF72.1685562133789
aa(lp6
S'timestamp'
p7
aF7.390225887298584
aatp8
Rp9
.ccollections
OrderedDict
p0
((lp1
(lp2
S'state'
p3
aI0
aa(lp4
S'distance'
p5
aF72.1685562133789
aa(lp6
S'timestamp'
p7
aF7.400187969207764
aatp8
Rp9
.ccollections
OrderedDict
p0
((lp1
(lp2
S'state'
p3
aI0
aa(lp4
S'distance'
p5
aF72.1685562133789
aa(lp6
S'timestamp'
p7
aF7.40037202835083
aatp8
Rp9
.ccollections
OrderedDict
p0
((lp1
(lp2
S'state'
p3
aI0
aa(lp4
S'distance'
p5
aF72.1685562133789
aa(lp6
S'timestamp'
p7
aF7.401268005371094
aatp8
Rp9
.ccollections
OrderedDict
p0
((lp1
(lp2
S'state'
p3
aI0
aa(lp4
S'distance'
p5
aF72.1685562133789
aa(lp6
S'timestamp'
p7
aF7.410200119018555
aatp8
Rp9
.ccollections
OrderedDict
p0
((lp1
(lp2
S'state'
p3
aI0
aa(lp4
S'distance'
p5
aF72.1685562133789
aa(lp6
S'timestamp'
p7
aF7.411645889282227
aatp8
Rp9
.ccollections
OrderedDict
p0
((lp1
(lp2
S'state'
p3
aI0
aa(lp4
S'distance'
p5
aF72.1685562133789
aa(lp6
S'timestamp'
p7
aF7.420172929763794
aatp8
Rp9
.ccollections
OrderedDict
p0
((lp1
(lp2
S'state'
p3
aI0
aa(lp4
S'distance'
p5
aF72.1685562133789
aa(lp6
S'timestamp'
p7
aF7.420687913894653
aatp8
Rp9
.ccollections
OrderedDict
p0
((lp1
(lp2
S'state'
p3
aI0
aa(lp4
S'distance'
p5
aF72.1685562133789
aa(lp6
S'timestamp'
p7
aF7.43001389503479
aatp8
Rp9
.ccollections
OrderedDict
p0
((lp1
(lp2
S'state'
p3
aI0
aa(lp4
S'distance'
p5
aF72.1685562133789
aa(lp6
S'timestamp'
p7
aF7.430711984634399
aatp8
Rp9
.ccollections
OrderedDict
p0
((lp1
(lp2
S'state'
p3
aI0
aa(lp4
S'distance'
p5
aF72.1685562133789
aa(lp6
S'timestamp'
p7
aF7.440351963043213
aatp8
Rp9
.ccollections
OrderedDict
p0
((lp1
(lp2
S'state'
p3
aI0
aa(lp4
S'distance'
p5
aF72.1685562133789
aa(lp6
S'timestamp'
p7
aF7.440505027770996
aatp8
Rp9
.ccollections
OrderedDict
p0
((lp1
(lp2
S'state'
p3
aI0
aa(lp4
S'distance'
p5
aF72.1685562133789
aa(lp6
S'timestamp'
p7
aF7.450192928314209
aatp8
Rp9
.ccollections
OrderedDict
p0
((lp1
(lp2
S'state'
p3
aI0
aa(lp4
S'distance'
p5
aF72.1685562133789
aa(lp6
S'timestamp'
p7
aF7.450791120529175
aatp8
Rp9
.ccollections
OrderedDict
p0
((lp1
(lp2
S'state'
p3
aI0
aa(lp4
S'distance'
p5
aF72.1685562133789
aa(lp6
S'timestamp'
p7
aF7.460720062255859
aatp8
Rp9
.ccollections
OrderedDict
p0
((lp1
(lp2
S'state'
p3
aI0
aa(lp4
S'distance'
p5
aF72.1685562133789
aa(lp6
S'timestamp'
p7
aF7.46114706993103
aatp8
Rp9
.ccollections
OrderedDict
p0
((lp1
(lp2
S'state'
p3
aI0
aa(lp4
S'distance'
p5
aF72.1685562133789
aa(lp6
S'timestamp'
p7
aF7.470139980316162
aatp8
Rp9
.ccollections
OrderedDict
p0
((lp1
(lp2
S'state'
p3
aI0
aa(lp4
S'distance'
p5
aF72.1685562133789
aa(lp6
S'timestamp'
p7
aF7.470779895782471
aatp8
Rp9
.ccollections
OrderedDict
p0
((lp1
(lp2
S'state'
p3
aI0
aa(lp4
S'distance'
p5
aF72.1685562133789
aa(lp6
S'timestamp'
p7
aF7.480642080307007
aatp8
Rp9
.ccollections
OrderedDict
p0
((lp1
(lp2
S'state'
p3
aI0
aa(lp4
S'distance'
p5
aF72.1685562133789
aa(lp6
S'timestamp'
p7
aF7.480745077133179
aatp8
Rp9
.ccollections
OrderedDict
p0
((lp1
(lp2
S'state'
p3
aI0
aa(lp4
S'distance'
p5
aF72.1685562133789
aa(lp6
S'timestamp'
p7
aF7.490072965621948
aatp8
Rp9
.ccollections
OrderedDict
p0
((lp1
(lp2
S'state'
p3
aI0
aa(lp4
S'distance'
p5
aF72.1685562133789
aa(lp6
S'timestamp'
p7
aF7.490854978561401
aatp8
Rp9
.ccollections
OrderedDict
p0
((lp1
(lp2
S'state'
p3
aI0
aa(lp4
S'distance'
p5
aF72.1685562133789
aa(lp6
S'timestamp'
p7
aF7.500165939331055
aatp8
Rp9
.ccollections
OrderedDict
p0
((lp1
(lp2
S'state'
p3
aI0
aa(lp4
S'distance'
p5
aF72.1685562133789
aa(lp6
S'timestamp'
p7
aF7.500761985778809
aatp8
Rp9
.ccollections
OrderedDict
p0
((lp1
(lp2
S'state'
p3
aI0
aa(lp4
S'distance'
p5
aF72.1685562133789
aa(lp6
S'timestamp'
p7
aF7.51033091545105
aatp8
Rp9
.ccollections
OrderedDict
p0
((lp1
(lp2
S'state'
p3
aI0
aa(lp4
S'distance'
p5
aF72.1685562133789
aa(lp6
S'timestamp'
p7
aF7.510509967803955
aatp8
Rp9
.ccollections
OrderedDict
p0
((lp1
(lp2
S'state'
p3
aI0
aa(lp4
S'distance'
p5
aF72.1685562133789
aa(lp6
S'timestamp'
p7
aF7.520144939422607
aatp8
Rp9
.ccollections
OrderedDict
p0
((lp1
(lp2
S'state'
p3
aI0
aa(lp4
S'distance'
p5
aF72.1685562133789
aa(lp6
S'timestamp'
p7
aF7.520482063293457
aatp8
Rp9
.ccollections
OrderedDict
p0
((lp1
(lp2
S'state'
p3
aI0
aa(lp4
S'distance'
p5
aF72.1685562133789
aa(lp6
S'timestamp'
p7
aF7.530123949050903
aatp8
Rp9
.ccollections
OrderedDict
p0
((lp1
(lp2
S'state'
p3
aI0
aa(lp4
S'distance'
p5
aF72.1685562133789
aa(lp6
S'timestamp'
p7
aF7.531069040298462
aatp8
Rp9
.ccollections
OrderedDict
p0
((lp1
(lp2
S'state'
p3
aI0
aa(lp4
S'distance'
p5
aF72.1685562133789
aa(lp6
S'timestamp'
p7
aF7.5402350425720215
aatp8
Rp9
.ccollections
OrderedDict
p0
((lp1
(lp2
S'state'
p3
aI0
aa(lp4
S'distance'
p5
aF72.1685562133789
aa(lp6
S'timestamp'
p7
aF7.540616989135742
aatp8
Rp9
.ccollections
OrderedDict
p0
((lp1
(lp2
S'state'
p3
aI0
aa(lp4
S'distance'
p5
aF72.1685562133789
aa(lp6
S'timestamp'
p7
aF7.550215005874634
aatp8
Rp9
.ccollections
OrderedDict
p0
((lp1
(lp2
S'state'
p3
aI0
aa(lp4
S'distance'
p5
aF72.1685562133789
aa(lp6
S'timestamp'
p7
aF7.550509929656982
aatp8
Rp9
.ccollections
OrderedDict
p0
((lp1
(lp2
S'state'
p3
aI0
aa(lp4
S'distance'
p5
aF72.1685562133789
aa(lp6
S'timestamp'
p7
aF7.560074090957642
aatp8
Rp9
.ccollections
OrderedDict
p0
((lp1
(lp2
S'state'
p3
aI0
aa(lp4
S'distance'
p5
aF72.1685562133789
aa(lp6
S'timestamp'
p7
aF7.560503959655762
aatp8
Rp9
.ccollections
OrderedDict
p0
((lp1
(lp2
S'state'
p3
aI0
aa(lp4
S'distance'
p5
aF72.1685562133789
aa(lp6
S'timestamp'
p7
aF7.570528030395508
aatp8
Rp9
.ccollections
OrderedDict
p0
((lp1
(lp2
S'state'
p3
aI0
aa(lp4
S'distance'
p5
aF72.1685562133789
aa(lp6
S'timestamp'
p7
aF7.5709168910980225
aatp8
Rp9
.ccollections
OrderedDict
p0
((lp1
(lp2
S'state'
p3
aI0
aa(lp4
S'distance'
p5
aF72.1685562133789
aa(lp6
S'timestamp'
p7
aF7.580189943313599
aatp8
Rp9
.ccollections
OrderedDict
p0
((lp1
(lp2
S'state'
p3
aI0
aa(lp4
S'distance'
p5
aF72.1685562133789
aa(lp6
S'timestamp'
p7
aF7.580501079559326
aatp8
Rp9
.ccollections
OrderedDict
p0
((lp1
(lp2
S'state'
p3
aI0
aa(lp4
S'distance'
p5
aF72.1685562133789
aa(lp6
S'timestamp'
p7
aF7.590415000915527
aatp8
Rp9
.ccollections
OrderedDict
p0
((lp1
(lp2
S'state'
p3
aI0
aa(lp4
S'distance'
p5
aF72.1685562133789
aa(lp6
S'timestamp'
p7
aF7.59057092666626
aatp8
Rp9
.ccollections
OrderedDict
p0
((lp1
(lp2
S'state'
p3
aI0
aa(lp4
S'distance'
p5
aF72.1685562133789
aa(lp6
S'timestamp'
p7
aF7.600593090057373
aatp8
Rp9
.ccollections
OrderedDict
p0
((lp1
(lp2
S'state'
p3
aI0
aa(lp4
S'distance'
p5
aF72.1685562133789
aa(lp6
S'timestamp'
p7
aF7.600990056991577
aatp8
Rp9
.ccollections
OrderedDict
p0
((lp1
(lp2
S'state'
p3
aI0
aa(lp4
S'distance'
p5
aF72.1685562133789
aa(lp6
S'timestamp'
p7
aF7.610433101654053
aatp8
Rp9
.ccollections
OrderedDict
p0
((lp1
(lp2
S'state'
p3
aI0
aa(lp4
S'distance'
p5
aF72.1685562133789
aa(lp6
S'timestamp'
p7
aF7.610559940338135
aatp8
Rp9
.ccollections
OrderedDict
p0
((lp1
(lp2
S'state'
p3
aI0
aa(lp4
S'distance'
p5
aF72.1685562133789
aa(lp6
S'timestamp'
p7
aF7.6201488971710205
aatp8
Rp9
.ccollections
OrderedDict
p0
((lp1
(lp2
S'state'
p3
aI0
aa(lp4
S'distance'
p5
aF72.1685562133789
aa(lp6
S'timestamp'
p7
aF7.620805978775024
aatp8
Rp9
.ccollections
OrderedDict
p0
((lp1
(lp2
S'state'
p3
aI0
aa(lp4
S'distance'
p5
aF72.1685562133789
aa(lp6
S'timestamp'
p7
aF7.630345106124878
aatp8
Rp9
.ccollections
OrderedDict
p0
((lp1
(lp2
S'state'
p3
aI0
aa(lp4
S'distance'
p5
aF72.1685562133789
aa(lp6
S'timestamp'
p7
aF7.630814075469971
aatp8
Rp9
.ccollections
OrderedDict
p0
((lp1
(lp2
S'state'
p3
aI0
aa(lp4
S'distance'
p5
aF72.1685562133789
aa(lp6
S'timestamp'
p7
aF7.640314102172852
aatp8
Rp9
.ccollections
OrderedDict
p0
((lp1
(lp2
S'state'
p3
aI0
aa(lp4
S'distance'
p5
aF72.1685562133789
aa(lp6
S'timestamp'
p7
aF7.640494108200073
aatp8
Rp9
.ccollections
OrderedDict
p0
((lp1
(lp2
S'state'
p3
aI0
aa(lp4
S'distance'
p5
aF72.1685562133789
aa(lp6
S'timestamp'
p7
aF7.650271892547607
aatp8
Rp9
.ccollections
OrderedDict
p0
((lp1
(lp2
S'state'
p3
aI0
aa(lp4
S'distance'
p5
aF72.1685562133789
aa(lp6
S'timestamp'
p7
aF7.651535987854004
aatp8
Rp9
.ccollections
OrderedDict
p0
((lp1
(lp2
S'state'
p3
aI0
aa(lp4
S'distance'
p5
aF72.1685562133789
aa(lp6
S'timestamp'
p7
aF7.660862922668457
aatp8
Rp9
.ccollections
OrderedDict
p0
((lp1
(lp2
S'state'
p3
aI0
aa(lp4
S'distance'
p5
aF72.1685562133789
aa(lp6
S'timestamp'
p7
aF7.660944938659668
aatp8
Rp9
.ccollections
OrderedDict
p0
((lp1
(lp2
S'state'
p3
aI0
aa(lp4
S'distance'
p5
aF72.1685562133789
aa(lp6
S'timestamp'
p7
aF7.670448064804077
aatp8
Rp9
.ccollections
OrderedDict
p0
((lp1
(lp2
S'state'
p3
aI0
aa(lp4
S'distance'
p5
aF72.1685562133789
aa(lp6
S'timestamp'
p7
aF7.670911073684692
aatp8
Rp9
.ccollections
OrderedDict
p0
((lp1
(lp2
S'state'
p3
aI0
aa(lp4
S'distance'
p5
aF72.1685562133789
aa(lp6
S'timestamp'
p7
aF7.680438041687012
aatp8
Rp9
.ccollections
OrderedDict
p0
((lp1
(lp2
S'state'
p3
aI0
aa(lp4
S'distance'
p5
aF72.1685562133789
aa(lp6
S'timestamp'
p7
aF7.68067193031311
aatp8
Rp9
.ccollections
OrderedDict
p0
((lp1
(lp2
S'state'
p3
aI0
aa(lp4
S'distance'
p5
aF72.1685562133789
aa(lp6
S'timestamp'
p7
aF7.689902067184448
aatp8
Rp9
.ccollections
OrderedDict
p0
((lp1
(lp2
S'state'
p3
aI0
aa(lp4
S'distance'
p5
aF72.1685562133789
aa(lp6
S'timestamp'
p7
aF7.690680980682373
aatp8
Rp9
.ccollections
OrderedDict
p0
((lp1
(lp2
S'state'
p3
aI0
aa(lp4
S'distance'
p5
aF72.1685562133789
aa(lp6
S'timestamp'
p7
aF7.705045938491821
aatp8
Rp9
.ccollections
OrderedDict
p0
((lp1
(lp2
S'state'
p3
aI0
aa(lp4
S'distance'
p5
aF72.1685562133789
aa(lp6
S'timestamp'
p7
aF7.706911087036133
aatp8
Rp9
.ccollections
OrderedDict
p0
((lp1
(lp2
S'state'
p3
aI0
aa(lp4
S'distance'
p5
aF72.1685562133789
aa(lp6
S'timestamp'
p7
aF7.710103988647461
aatp8
Rp9
.ccollections
OrderedDict
p0
((lp1
(lp2
S'state'
p3
aI0
aa(lp4
S'distance'
p5
aF72.1685562133789
aa(lp6
S'timestamp'
p7
aF7.710742950439453
aatp8
Rp9
.ccollections
OrderedDict
p0
((lp1
(lp2
S'state'
p3
aI0
aa(lp4
S'distance'
p5
aF72.1685562133789
aa(lp6
S'timestamp'
p7
aF7.720901966094971
aatp8
Rp9
.ccollections
OrderedDict
p0
((lp1
(lp2
S'state'
p3
aI0
aa(lp4
S'distance'
p5
aF72.1685562133789
aa(lp6
S'timestamp'
p7
aF7.720983982086182
aatp8
Rp9
.ccollections
OrderedDict
p0
((lp1
(lp2
S'state'
p3
aI0
aa(lp4
S'distance'
p5
aF72.1685562133789
aa(lp6
S'timestamp'
p7
aF7.73025107383728
aatp8
Rp9
.ccollections
OrderedDict
p0
((lp1
(lp2
S'state'
p3
aI0
aa(lp4
S'distance'
p5
aF72.1685562133789
aa(lp6
S'timestamp'
p7
aF7.731161117553711
aatp8
Rp9
.ccollections
OrderedDict
p0
((lp1
(lp2
S'state'
p3
aI0
aa(lp4
S'distance'
p5
aF72.1685562133789
aa(lp6
S'timestamp'
p7
aF7.74031400680542
aatp8
Rp9
.ccollections
OrderedDict
p0
((lp1
(lp2
S'state'
p3
aI0
aa(lp4
S'distance'
p5
aF72.1685562133789
aa(lp6
S'timestamp'
p7
aF7.740494012832642
aatp8
Rp9
.ccollections
OrderedDict
p0
((lp1
(lp2
S'state'
p3
aI0
aa(lp4
S'distance'
p5
aF72.1685562133789
aa(lp6
S'timestamp'
p7
aF7.750212907791138
aatp8
Rp9
.ccollections
OrderedDict
p0
((lp1
(lp2
S'state'
p3
aI0
aa(lp4
S'distance'
p5
aF72.1685562133789
aa(lp6
S'timestamp'
p7
aF7.7508769035339355
aatp8
Rp9
.ccollections
OrderedDict
p0
((lp1
(lp2
S'state'
p3
aI0
aa(lp4
S'distance'
p5
aF72.1685562133789
aa(lp6
S'timestamp'
p7
aF7.760946989059448
aatp8
Rp9
.ccollections
OrderedDict
p0
((lp1
(lp2
S'state'
p3
aI0
aa(lp4
S'distance'
p5
aF72.1685562133789
aa(lp6
S'timestamp'
p7
aF7.761023044586182
aatp8
Rp9
.ccollections
OrderedDict
p0
((lp1
(lp2
S'state'
p3
aI0
aa(lp4
S'distance'
p5
aF72.1685562133789
aa(lp6
S'timestamp'
p7
aF7.7703258991241455
aatp8
Rp9
.ccollections
OrderedDict
p0
((lp1
(lp2
S'state'
p3
aI0
aa(lp4
S'distance'
p5
aF72.1685562133789
aa(lp6
S'timestamp'
p7
aF7.770931959152222
aatp8
Rp9
.ccollections
OrderedDict
p0
((lp1
(lp2
S'state'
p3
aI0
aa(lp4
S'distance'
p5
aF72.1685562133789
aa(lp6
S'timestamp'
p7
aF7.780240058898926
aatp8
Rp9
.ccollections
OrderedDict
p0
((lp1
(lp2
S'state'
p3
aI0
aa(lp4
S'distance'
p5
aF72.1685562133789
aa(lp6
S'timestamp'
p7
aF7.78035306930542
aatp8
Rp9
.ccollections
OrderedDict
p0
((lp1
(lp2
S'state'
p3
aI0
aa(lp4
S'distance'
p5
aF72.1685562133789
aa(lp6
S'timestamp'
p7
aF7.790164947509766
aatp8
Rp9
.ccollections
OrderedDict
p0
((lp1
(lp2
S'state'
p3
aI0
aa(lp4
S'distance'
p5
aF72.1685562133789
aa(lp6
S'timestamp'
p7
aF7.7908101081848145
aatp8
Rp9
.ccollections
OrderedDict
p0
((lp1
(lp2
S'state'
p3
aI0
aa(lp4
S'distance'
p5
aF72.1685562133789
aa(lp6
S'timestamp'
p7
aF7.80032205581665
aatp8
Rp9
.ccollections
OrderedDict
p0
((lp1
(lp2
S'state'
p3
aI0
aa(lp4
S'distance'
p5
aF72.1685562133789
aa(lp6
S'timestamp'
p7
aF7.801065921783447
aatp8
Rp9
.ccollections
OrderedDict
p0
((lp1
(lp2
S'state'
p3
aI0
aa(lp4
S'distance'
p5
aF72.1685562133789
aa(lp6
S'timestamp'
p7
aF7.810746908187866
aatp8
Rp9
.ccollections
OrderedDict
p0
((lp1
(lp2
S'state'
p3
aI0
aa(lp4
S'distance'
p5
aF72.1685562133789
aa(lp6
S'timestamp'
p7
aF7.821063995361328
aatp8
Rp9
.ccollections
OrderedDict
p0
((lp1
(lp2
S'state'
p3
aI0
aa(lp4
S'distance'
p5
aF72.1685562133789
aa(lp6
S'timestamp'
p7
aF7.823560953140259
aatp8
Rp9
.ccollections
OrderedDict
p0
((lp1
(lp2
S'state'
p3
aI0
aa(lp4
S'distance'
p5
aF72.1685562133789
aa(lp6
S'timestamp'
p7
aF7.823998928070068
aatp8
Rp9
.ccollections
OrderedDict
p0
((lp1
(lp2
S'state'
p3
aI0
aa(lp4
S'distance'
p5
aF72.1685562133789
aa(lp6
S'timestamp'
p7
aF7.84036111831665
aatp8
Rp9
.ccollections
OrderedDict
p0
((lp1
(lp2
S'state'
p3
aI0
aa(lp4
S'distance'
p5
aF72.1685562133789
aa(lp6
S'timestamp'
p7
aF7.840784072875977
aatp8
Rp9
.ccollections
OrderedDict
p0
((lp1
(lp2
S'state'
p3
aI0
aa(lp4
S'distance'
p5
aF72.1685562133789
aa(lp6
S'timestamp'
p7
aF7.843106985092163
aatp8
Rp9
.ccollections
OrderedDict
p0
((lp1
(lp2
S'state'
p3
aI0
aa(lp4
S'distance'
p5
aF72.1685562133789
aa(lp6
S'timestamp'
p7
aF7.84370493888855
aatp8
Rp9
.ccollections
OrderedDict
p0
((lp1
(lp2
S'state'
p3
aI0
aa(lp4
S'distance'
p5
aF72.1685562133789
aa(lp6
S'timestamp'
p7
aF7.850136995315552
aatp8
Rp9
.ccollections
OrderedDict
p0
((lp1
(lp2
S'state'
p3
aI0
aa(lp4
S'distance'
p5
aF72.1685562133789
aa(lp6
S'timestamp'
p7
aF7.8600170612335205
aatp8
Rp9
.ccollections
OrderedDict
p0
((lp1
(lp2
S'state'
p3
aI0
aa(lp4
S'distance'
p5
aF72.1685562133789
aa(lp6
S'timestamp'
p7
aF7.860296010971069
aatp8
Rp9
.ccollections
OrderedDict
p0
((lp1
(lp2
S'state'
p3
aI0
aa(lp4
S'distance'
p5
aF72.1685562133789
aa(lp6
S'timestamp'
p7
aF7.860914945602417
aatp8
Rp9
.ccollections
OrderedDict
p0
((lp1
(lp2
S'state'
p3
aI0
aa(lp4
S'distance'
p5
aF72.1685562133789
aa(lp6
S'timestamp'
p7
aF7.870054006576538
aatp8
Rp9
.ccollections
OrderedDict
p0
((lp1
(lp2
S'state'
p3
aI0
aa(lp4
S'distance'
p5
aF72.1685562133789
aa(lp6
S'timestamp'
p7
aF7.870429992675781
aatp8
Rp9
.ccollections
OrderedDict
p0
((lp1
(lp2
S'state'
p3
aI0
aa(lp4
S'distance'
p5
aF72.1685562133789
aa(lp6
S'timestamp'
p7
aF7.8801140785217285
aatp8
Rp9
.ccollections
OrderedDict
p0
((lp1
(lp2
S'state'
p3
aI0
aa(lp4
S'distance'
p5
aF72.1685562133789
aa(lp6
S'timestamp'
p7
aF7.88039493560791
aatp8
Rp9
.ccollections
OrderedDict
p0
((lp1
(lp2
S'state'
p3
aI0
aa(lp4
S'distance'
p5
aF72.1685562133789
aa(lp6
S'timestamp'
p7
aF7.890187978744507
aatp8
Rp9
.ccollections
OrderedDict
p0
((lp1
(lp2
S'state'
p3
aI0
aa(lp4
S'distance'
p5
aF72.1685562133789
aa(lp6
S'timestamp'
p7
aF7.891182899475098
aatp8
Rp9
.ccollections
OrderedDict
p0
((lp1
(lp2
S'state'
p3
aI0
aa(lp4
S'distance'
p5
aF72.1685562133789
aa(lp6
S'timestamp'
p7
aF7.90092396736145
aatp8
Rp9
.ccollections
OrderedDict
p0
((lp1
(lp2
S'state'
p3
aI0
aa(lp4
S'distance'
p5
aF72.1685562133789
aa(lp6
S'timestamp'
p7
aF7.901003122329712
aatp8
Rp9
.ccollections
OrderedDict
p0
((lp1
(lp2
S'state'
p3
aI0
aa(lp4
S'distance'
p5
aF72.1685562133789
aa(lp6
S'timestamp'
p7
aF7.910237073898315
aatp8
Rp9
.ccollections
OrderedDict
p0
((lp1
(lp2
S'state'
p3
aI0
aa(lp4
S'distance'
p5
aF72.1685562133789
aa(lp6
S'timestamp'
p7
aF7.910820960998535
aatp8
Rp9
.ccollections
OrderedDict
p0
((lp1
(lp2
S'state'
p3
aI0
aa(lp4
S'distance'
p5
aF72.1685562133789
aa(lp6
S'timestamp'
p7
aF7.920731067657471
aatp8
Rp9
.ccollections
OrderedDict
p0
((lp1
(lp2
S'state'
p3
aI0
aa(lp4
S'distance'
p5
aF72.1685562133789
aa(lp6
S'timestamp'
p7
aF7.920839071273804
aatp8
Rp9
.ccollections
OrderedDict
p0
((lp1
(lp2
S'state'
p3
aI0
aa(lp4
S'distance'
p5
aF72.1685562133789
aa(lp6
S'timestamp'
p7
aF7.93078088760376
aatp8
Rp9
.ccollections
OrderedDict
p0
((lp1
(lp2
S'state'
p3
aI0
aa(lp4
S'distance'
p5
aF72.1685562133789
aa(lp6
S'timestamp'
p7
aF7.930929899215698
aatp8
Rp9
.ccollections
OrderedDict
p0
((lp1
(lp2
S'state'
p3
aI0
aa(lp4
S'distance'
p5
aF72.1685562133789
aa(lp6
S'timestamp'
p7
aF7.940989017486572
aatp8
Rp9
.ccollections
OrderedDict
p0
((lp1
(lp2
S'state'
p3
aI0
aa(lp4
S'distance'
p5
aF72.1685562133789
aa(lp6
S'timestamp'
p7
aF7.941061019897461
aatp8
Rp9
.ccollections
OrderedDict
p0
((lp1
(lp2
S'state'
p3
aI0
aa(lp4
S'distance'
p5
aF72.1685562133789
aa(lp6
S'timestamp'
p7
aF7.950719118118286
aatp8
Rp9
.ccollections
OrderedDict
p0
((lp1
(lp2
S'state'
p3
aI0
aa(lp4
S'distance'
p5
aF72.1685562133789
aa(lp6
S'timestamp'
p7
aF7.950799942016602
aatp8
Rp9
.ccollections
OrderedDict
p0
((lp1
(lp2
S'state'
p3
aI0
aa(lp4
S'distance'
p5
aF72.1685562133789
aa(lp6
S'timestamp'
p7
aF7.9608869552612305
aatp8
Rp9
.ccollections
OrderedDict
p0
((lp1
(lp2
S'state'
p3
aI0
aa(lp4
S'distance'
p5
aF72.1685562133789
aa(lp6
S'timestamp'
p7
aF7.9609949588775635
aatp8
Rp9
.ccollections
OrderedDict
p0
((lp1
(lp2
S'state'
p3
aI0
aa(lp4
S'distance'
p5
aF72.1685562133789
aa(lp6
S'timestamp'
p7
aF7.970906972885132
aatp8
Rp9
.ccollections
OrderedDict
p0
((lp1
(lp2
S'state'
p3
aI0
aa(lp4
S'distance'
p5
aF72.1685562133789
aa(lp6
S'timestamp'
p7
aF7.971272945404053
aatp8
Rp9
.ccollections
OrderedDict
p0
((lp1
(lp2
S'state'
p3
aI0
aa(lp4
S'distance'
p5
aF72.1685562133789
aa(lp6
S'timestamp'
p7
aF7.980182886123657
aatp8
Rp9
.ccollections
OrderedDict
p0
((lp1
(lp2
S'state'
p3
aI0
aa(lp4
S'distance'
p5
aF72.1685562133789
aa(lp6
S'timestamp'
p7
aF7.980823040008545
aatp8
Rp9
.ccollections
OrderedDict
p0
((lp1
(lp2
S'state'
p3
aI0
aa(lp4
S'distance'
p5
aF72.1685562133789
aa(lp6
S'timestamp'
p7
aF7.9902379512786865
aatp8
Rp9
.ccollections
OrderedDict
p0
((lp1
(lp2
S'state'
p3
aI0
aa(lp4
S'distance'
p5
aF72.1685562133789
aa(lp6
S'timestamp'
p7
aF7.990561008453369
aatp8
Rp9
.ccollections
OrderedDict
p0
((lp1
(lp2
S'state'
p3
aI0
aa(lp4
S'distance'
p5
aF72.1685562133789
aa(lp6
S'timestamp'
p7
aF8.000288963317871
aatp8
Rp9
.ccollections
OrderedDict
p0
((lp1
(lp2
S'state'
p3
aI0
aa(lp4
S'distance'
p5
aF72.1685562133789
aa(lp6
S'timestamp'
p7
aF8.000843048095703
aatp8
Rp9
.