ccollections
OrderedDict
p0
((lp1
(lp2
S'state'
p3
aI0
aa(lp4
S'distance'
p5
aF370.81797790527344
aa(lp6
S'timestamp'
p7
aF0.0002129077911376953
aatp8
Rp9
.ccollections
OrderedDict
p0
((lp1
(lp2
S'state'
p3
aI0
aa(lp4
S'distance'
p5
aF370.81797790527344
aa(lp6
S'timestamp'
p7
aF0.0006418228149414062
aatp8
Rp9
.ccollections
OrderedDict
p0
((lp1
(lp2
S'state'
p3
aI0
aa(lp4
S'distance'
p5
aF370.81797790527344
aa(lp6
S'timestamp'
p7
aF0.010806798934936523
aatp8
Rp9
.ccollections
OrderedDict
p0
((lp1
(lp2
S'state'
p3
aI0
aa(lp4
S'distance'
p5
aF370.81797790527344
aa(lp6
S'timestamp'
p7
aF0.010907888412475586
aatp8
Rp9
.ccollections
OrderedDict
p0
((lp1
(lp2
S'state'
p3
aI0
aa(lp4
S'distance'
p5
aF370.81797790527344
aa(lp6
S'timestamp'
p7
aF0.020767927169799805
aatp8
Rp9
.ccollections
OrderedDict
p0
((lp1
(lp2
S'state'
p3
aI0
aa(lp4
S'distance'
p5
aF370.81797790527344
aa(lp6
S'timestamp'
p7
aF0.020872831344604492
aatp8
Rp9
.ccollections
OrderedDict
p0
((lp1
(lp2
S'state'
p3
aI0
aa(lp4
S'distance'
p5
aF370.81797790527344
aa(lp6
S'timestamp'
p7
aF0.03184390068054199
aatp8
Rp9
.ccollections
OrderedDict
p0
((lp1
(lp2
S'state'
p3
aI0
aa(lp4
S'distance'
p5
aF370.81797790527344
aa(lp6
S'timestamp'
p7
aF0.03220796585083008
aatp8
Rp9
.ccollections
OrderedDict
p0
((lp1
(lp2
S'state'
p3
aI0
aa(lp4
S'distance'
p5
aF370.81797790527344
aa(lp6
S'timestamp'
p7
aF0.04063081741333008
aatp8
Rp9
.ccollections
OrderedDict
p0
((lp1
(lp2
S'state'
p3
aI0
aa(lp4
S'distance'
p5
aF370.81797790527344
aa(lp6
S'timestamp'
p7
aF0.04103684425354004
aatp8
Rp9
.ccollections
OrderedDict
p0
((lp1
(lp2
S'state'
p3
aI0
aa(lp4
S'distance'
p5
aF370.81797790527344
aa(lp6
S'timestamp'
p7
aF0.05028700828552246
aatp8
Rp9
.ccollections
OrderedDict
p0
((lp1
(lp2
S'state'
p3
aI0
aa(lp4
S'distance'
p5
aF370.81797790527344
aa(lp6
S'timestamp'
p7
aF0.050511837005615234
aatp8
Rp9
.ccollections
OrderedDict
p0
((lp1
(lp2
S'state'
p3
aI0
aa(lp4
S'distance'
p5
aF370.81797790527344
aa(lp6
S'timestamp'
p7
aF0.060098886489868164
aatp8
Rp9
.ccollections
OrderedDict
p0
((lp1
(lp2
S'state'
p3
aI0
aa(lp4
S'distance'
p5
aF370.81797790527344
aa(lp6
S'timestamp'
p7
aF0.060530900955200195
aatp8
Rp9
.ccollections
OrderedDict
p0
((lp1
(lp2
S'state'
p3
aI0
aa(lp4
S'distance'
p5
aF370.81797790527344
aa(lp6
S'timestamp'
p7
aF0.07031083106994629
aatp8
Rp9
.ccollections
OrderedDict
p0
((lp1
(lp2
S'state'
p3
aI0
aa(lp4
S'distance'
p5
aF370.81797790527344
aa(lp6
S'timestamp'
p7
aF0.07074093818664551
aatp8
Rp9
.ccollections
OrderedDict
p0
((lp1
(lp2
S'state'
p3
aI0
aa(lp4
S'distance'
p5
aF370.81797790527344
aa(lp6
S'timestamp'
p7
aF0.1105499267578125
aatp8
Rp9
.ccollections
OrderedDict
p0
((lp1
(lp2
S'state'
p3
aI0
aa(lp4
S'distance'
p5
aF370.81797790527344
aa(lp6
S'timestamp'
p7
aF0.11063098907470703
aatp8
Rp9
.ccollections
OrderedDict
p0
((lp1
(lp2
S'state'
p3
aI0
aa(lp4
S'distance'
p5
aF370.81797790527344
aa(lp6
S'timestamp'
p7
aF0.11214590072631836
aatp8
Rp9
.ccollections
OrderedDict
p0
((lp1
(lp2
S'state'
p3
aI0
aa(lp4
S'distance'
p5
aF370.81797790527344
aa(lp6
S'timestamp'
p7
aF0.12022900581359863
aatp8
Rp9
.ccollections
OrderedDict
p0
((lp1
(lp2
S'state'
p3
aI0
aa(lp4
S'distance'
p5
aF370.81797790527344
aa(lp6
S'timestamp'
p7
aF0.12129497528076172
aatp8
Rp9
.ccollections
OrderedDict
p0
((lp1
(lp2
S'state'
p3
aI0
aa(lp4
S'distance'
p5
aF370.81797790527344
aa(lp6
S'timestamp'
p7
aF0.12141180038452148
aatp8
Rp9
.ccollections
OrderedDict
p0
((lp1
(lp2
S'state'
p3
aI0
aa(lp4
S'distance'
p5
aF370.81797790527344
aa(lp6
S'timestamp'
p7
aF0.1225738525390625
aatp8
Rp9
.ccollections
OrderedDict
p0
((lp1
(lp2
S'state'
p3
aI0
aa(lp4
S'distance'
p5
aF370.81797790527344
aa(lp6
S'timestamp'
p7
aF0.13031697273254395
aatp8
Rp9
.ccollections
OrderedDict
p0
((lp1
(lp2
S'state'
p3
aI0
aa(lp4
S'distance'
p5
aF370.81797790527344
aa(lp6
S'timestamp'
p7
aF0.13072681427001953
aatp8
Rp9
.ccollections
OrderedDict
p0
((lp1
(lp2
S'state'
p3
aI0
aa(lp4
S'distance'
p5
aF370.81797790527344
aa(lp6
S'timestamp'
p7
aF0.13165879249572754
aatp8
Rp9
.ccollections
OrderedDict
p0
((lp1
(lp2
S'state'
p3
aI0
aa(lp4
S'distance'
p5
aF370.81797790527344
aa(lp6
S'timestamp'
p7
aF0.1325228214263916
aatp8
Rp9
.ccollections
OrderedDict
p0
((lp1
(lp2
S'state'
p3
aI0
aa(lp4
S'distance'
p5
aF370.81797790527344
aa(lp6
S'timestamp'
p7
aF0.14032888412475586
aatp8
Rp9
.ccollections
OrderedDict
p0
((lp1
(lp2
S'state'
p3
aI0
aa(lp4
S'distance'
p5
aF370.81797790527344
aa(lp6
S'timestamp'
p7
aF0.14099884033203125
aatp8
Rp9
.ccollections
OrderedDict
p0
((lp1
(lp2
S'state'
p3
aI0
aa(lp4
S'distance'
p5
aF370.81797790527344
aa(lp6
S'timestamp'
p7
aF0.1417548656463623
aatp8
Rp9
.ccollections
OrderedDict
p0
((lp1
(lp2
S'state'
p3
aI0
aa(lp4
S'distance'
p5
aF370.81797790527344
aa(lp6
S'timestamp'
p7
aF0.1512010097503662
aatp8
Rp9
.ccollections
OrderedDict
p0
((lp1
(lp2
S'state'
p3
aI0
aa(lp4
S'distance'
p5
aF370.81797790527344
aa(lp6
S'timestamp'
p7
aF0.1512739658355713
aatp8
Rp9
.ccollections
OrderedDict
p0
((lp1
(lp2
S'state'
p3
aI0
aa(lp4
S'distance'
p5
aF370.81797790527344
aa(lp6
S'timestamp'
p7
aF0.16030192375183105
aatp8
Rp9
.ccollections
OrderedDict
p0
((lp1
(lp2
S'state'
p3
aI0
aa(lp4
S'distance'
p5
aF370.81797790527344
aa(lp6
S'timestamp'
p7
aF0.1607048511505127
aatp8
Rp9
.ccollections
OrderedDict
p0
((lp1
(lp2
S'state'
p3
aI0
aa(lp4
S'distance'
p5
aF370.81797790527344
aa(lp6
S'timestamp'
p7
aF0.1803138256072998
aatp8
Rp9
.ccollections
OrderedDict
p0
((lp1
(lp2
S'state'
p3
aI0
aa(lp4
S'distance'
p5
aF370.81797790527344
aa(lp6
S'timestamp'
p7
aF0.18150782585144043
aatp8
Rp9
.ccollections
OrderedDict
p0
((lp1
(lp2
S'state'
p3
aI0
aa(lp4
S'distance'
p5
aF370.81797790527344
aa(lp6
S'timestamp'
p7
aF0.1824498176574707
aatp8
Rp9
.ccollections
OrderedDict
p0
((lp1
(lp2
S'state'
p3
aI0
aa(lp4
S'distance'
p5
aF370.81797790527344
aa(lp6
S'timestamp'
p7
aF0.18251991271972656
aatp8
Rp9
.ccollections
OrderedDict
p0
((lp1
(lp2
S'state'
p3
aI0
aa(lp4
S'distance'
p5
aF370.81797790527344
aa(lp6
S'timestamp'
p7
aF0.19034695625305176
aatp8
Rp9
.ccollections
OrderedDict
p0
((lp1
(lp2
S'state'
p3
aI0
aa(lp4
S'distance'
p5
aF370.81797790527344
aa(lp6
S'timestamp'
p7
aF0.19072484970092773
aatp8
Rp9
.ccollections
OrderedDict
p0
((lp1
(lp2
S'state'
p3
aI0
aa(lp4
S'distance'
p5
aF370.81797790527344
aa(lp6
S'timestamp'
p7
aF0.20091700553894043
aatp8
Rp9
.ccollections
OrderedDict
p0
((lp1
(lp2
S'state'
p3
aI0
aa(lp4
S'distance'
p5
aF370.81797790527344
aa(lp6
S'timestamp'
p7
aF0.20099592208862305
aatp8
Rp9
.ccollections
OrderedDict
p0
((lp1
(lp2
S'state'
p3
aI0
aa(lp4
S'distance'
p5
aF370.81797790527344
aa(lp6
S'timestamp'
p7
aF0.21053481101989746
aatp8
Rp9
.ccollections
OrderedDict
p0
((lp1
(lp2
S'state'
p3
aI0
aa(lp4
S'distance'
p5
aF370.81797790527344
aa(lp6
S'timestamp'
p7
aF0.21111392974853516
aatp8
Rp9
.ccollections
OrderedDict
p0
((lp1
(lp2
S'state'
p3
aI0
aa(lp4
S'distance'
p5
aF370.81797790527344
aa(lp6
S'timestamp'
p7
aF0.2202589511871338
aatp8
Rp9
.ccollections
OrderedDict
p0
((lp1
(lp2
S'state'
p3
aI0
aa(lp4
S'distance'
p5
aF370.81797790527344
aa(lp6
S'timestamp'
p7
aF0.22077584266662598
aatp8
Rp9
.ccollections
OrderedDict
p0
((lp1
(lp2
S'state'
p3
aI0
aa(lp4
S'distance'
p5
aF370.81797790527344
aa(lp6
S'timestamp'
p7
aF0.23089385032653809
aatp8
Rp9
.ccollections
OrderedDict
p0
((lp1
(lp2
S'state'
p3
aI0
aa(lp4
S'distance'
p5
aF370.81797790527344
aa(lp6
S'timestamp'
p7
aF0.23102283477783203
aatp8
Rp9
.ccollections
OrderedDict
p0
((lp1
(lp2
S'state'
p3
aI0
aa(lp4
S'distance'
p5
aF370.81797790527344
aa(lp6
S'timestamp'
p7
aF0.24080491065979004
aatp8
Rp9
.ccollections
OrderedDict
p0
((lp1
(lp2
S'state'
p3
aI0
aa(lp4
S'distance'
p5
aF370.81797790527344
aa(lp6
S'timestamp'
p7
aF0.24088382720947266
aatp8
Rp9
.ccollections
OrderedDict
p0
((lp1
(lp2
S'state'
p3
aI0
aa(lp4
S'distance'
p5
aF370.81797790527344
aa(lp6
S'timestamp'
p7
aF0.25093698501586914
aatp8
Rp9
.ccollections
OrderedDict
p0
((lp1
(lp2
S'state'
p3
aI0
aa(lp4
S'distance'
p5
aF370.81797790527344
aa(lp6
S'timestamp'
p7
aF0.25101184844970703
aatp8
Rp9
.ccollections
OrderedDict
p0
((lp1
(lp2
S'state'
p3
aI0
aa(lp4
S'distance'
p5
aF370.81797790527344
aa(lp6
S'timestamp'
p7
aF0.2608499526977539
aatp8
Rp9
.ccollections
OrderedDict
p0
((lp1
(lp2
S'state'
p3
aI0
aa(lp4
S'distance'
p5
aF370.81797790527344
aa(lp6
S'timestamp'
p7
aF0.26104187965393066
aatp8
Rp9
.ccollections
OrderedDict
p0
((lp1
(lp2
S'state'
p3
aI0
aa(lp4
S'distance'
p5
aF370.81797790527344
aa(lp6
S'timestamp'
p7
aF0.27023983001708984
aatp8
Rp9
.ccollections
OrderedDict
p0
((lp1
(lp2
S'state'
p3
aI0
aa(lp4
S'distance'
p5
aF370.81797790527344
aa(lp6
S'timestamp'
p7
aF0.2705659866333008
aatp8
Rp9
.ccollections
OrderedDict
p0
((lp1
(lp2
S'state'
p3
aI0
aa(lp4
S'distance'
p5
aF370.81797790527344
aa(lp6
S'timestamp'
p7
aF0.28089094161987305
aatp8
Rp9
.ccollections
OrderedDict
p0
((lp1
(lp2
S'state'
p3
aI0
aa(lp4
S'distance'
p5
aF370.81797790527344
aa(lp6
S'timestamp'
p7
aF0.281505823135376
aatp8
Rp9
.ccollections
OrderedDict
p0
((lp1
(lp2
S'state'
p3
aI0
aa(lp4
S'distance'
p5
aF370.81797790527344
aa(lp6
S'timestamp'
p7
aF0.29099297523498535
aatp8
Rp9
.ccollections
OrderedDict
p0
((lp1
(lp2
S'state'
p3
aI0
aa(lp4
S'distance'
p5
aF370.81797790527344
aa(lp6
S'timestamp'
p7
aF0.2914128303527832
aatp8
Rp9
.ccollections
OrderedDict
p0
((lp1
(lp2
S'state'
p3
aI0
aa(lp4
S'distance'
p5
aF370.81797790527344
aa(lp6
S'timestamp'
p7
aF0.30106186866760254
aatp8
Rp9
.ccollections
OrderedDict
p0
((lp1
(lp2
S'state'
p3
aI0
aa(lp4
S'distance'
p5
aF370.81797790527344
aa(lp6
S'timestamp'
p7
aF0.30167388916015625
aatp8
Rp9
.ccollections
OrderedDict
p0
((lp1
(lp2
S'state'
p3
aI0
aa(lp4
S'distance'
p5
aF370.81797790527344
aa(lp6
S'timestamp'
p7
aF0.3103067874908447
aatp8
Rp9
.ccollections
OrderedDict
p0
((lp1
(lp2
S'state'
p3
aI0
aa(lp4
S'distance'
p5
aF370.81797790527344
aa(lp6
S'timestamp'
p7
aF0.32089686393737793
aatp8
Rp9
.ccollections
OrderedDict
p0
((lp1
(lp2
S'state'
p3
aI0
aa(lp4
S'distance'
p5
aF370.81797790527344
aa(lp6
S'timestamp'
p7
aF0.3209798336029053
aatp8
Rp9
.ccollections
OrderedDict
p0
((lp1
(lp2
S'state'
p3
aI0
aa(lp4
S'distance'
p5
aF370.81797790527344
aa(lp6
S'timestamp'
p7
aF0.32274889945983887
aatp8
Rp9
.ccollections
OrderedDict
p0
((lp1
(lp2
S'state'
p3
aI0
aa(lp4
S'distance'
p5
aF370.81797790527344
aa(lp6
S'timestamp'
p7
aF0.3308417797088623
aatp8
Rp9
.ccollections
OrderedDict
p0
((lp1
(lp2
S'state'
p3
aI0
aa(lp4
S'distance'
p5
aF370.81797790527344
aa(lp6
S'timestamp'
p7
aF0.3309199810028076
aatp8
Rp9
.ccollections
OrderedDict
p0
((lp1
(lp2
S'state'
p3
aI0
aa(lp4
S'distance'
p5
aF370.81797790527344
aa(lp6
S'timestamp'
p7
aF0.34141087532043457
aatp8
Rp9
.ccollections
OrderedDict
p0
((lp1
(lp2
S'state'
p3
aI0
aa(lp4
S'distance'
p5
aF370.81797790527344
aa(lp6
S'timestamp'
p7
aF0.3417048454284668
aatp8
Rp9
.ccollections
OrderedDict
p0
((lp1
(lp2
S'state'
p3
aI0
aa(lp4
S'distance'
p5
aF370.81797790527344
aa(lp6
S'timestamp'
p7
aF0.3508739471435547
aatp8
Rp9
.ccollections
OrderedDict
p0
((lp1
(lp2
S'state'
p3
aI0
aa(lp4
S'distance'
p5
aF370.81797790527344
aa(lp6
S'timestamp'
p7
aF0.3509488105773926
aatp8
Rp9
.ccollections
OrderedDict
p0
((lp1
(lp2
S'state'
p3
aI0
aa(lp4
S'distance'
p5
aF370.81797790527344
aa(lp6
S'timestamp'
p7
aF0.3609609603881836
aatp8
Rp9
.ccollections
OrderedDict
p0
((lp1
(lp2
S'state'
p3
aI0
aa(lp4
S'distance'
p5
aF370.81797790527344
aa(lp6
S'timestamp'
p7
aF0.36104297637939453
aatp8
Rp9
.ccollections
OrderedDict
p0
((lp1
(lp2
S'state'
p3
aI0
aa(lp4
S'distance'
p5
aF370.81797790527344
aa(lp6
S'timestamp'
p7
aF0.3705790042877197
aatp8
Rp9
.ccollections
OrderedDict
p0
((lp1
(lp2
S'state'
p3
aI0
aa(lp4
S'distance'
p5
aF370.81797790527344
aa(lp6
S'timestamp'
p7
aF0.37082982063293457
aatp8
Rp9
.ccollections
OrderedDict
p0
((lp1
(lp2
S'state'
p3
aI0
aa(lp4
S'distance'
p5
aF370.81797790527344
aa(lp6
S'timestamp'
p7
aF0.38135600090026855
aatp8
Rp9
.ccollections
OrderedDict
p0
((lp1
(lp2
S'state'
p3
aI0
aa(lp4
S'distance'
p5
aF370.81797790527344
aa(lp6
S'timestamp'
p7
aF0.38153886795043945
aatp8
Rp9
.ccollections
OrderedDict
p0
((lp1
(lp2
S'state'
p3
aI0
aa(lp4
S'distance'
p5
aF370.81797790527344
aa(lp6
S'timestamp'
p7
aF0.3904550075531006
aatp8
Rp9
.ccollections
OrderedDict
p0
((lp1
(lp2
S'state'
p3
aI0
aa(lp4
S'distance'
p5
aF370.81797790527344
aa(lp6
S'timestamp'
p7
aF0.39057493209838867
aatp8
Rp9
.ccollections
OrderedDict
p0
((lp1
(lp2
S'state'
p3
aI0
aa(lp4
S'distance'
p5
aF370.81797790527344
aa(lp6
S'timestamp'
p7
aF0.40038180351257324
aatp8
Rp9
.ccollections
OrderedDict
p0
((lp1
(lp2
S'state'
p3
aI0
aa(lp4
S'distance'
p5
aF370.81797790527344
aa(lp6
S'timestamp'
p7
aF0.40108799934387207
aatp8
Rp9
.ccollections
OrderedDict
p0
((lp1
(lp2
S'state'
p3
aI0
aa(lp4
S'distance'
p5
aF370.81797790527344
aa(lp6
S'timestamp'
p7
aF0.4110538959503174
aatp8
Rp9
.ccollections
OrderedDict
p0
((lp1
(lp2
S'state'
p3
aI0
aa(lp4
S'distance'
p5
aF370.81797790527344
aa(lp6
S'timestamp'
p7
aF0.41113781929016113
aatp8
Rp9
.ccollections
OrderedDict
p0
((lp1
(lp2
S'state'
p3
aI0
aa(lp4
S'distance'
p5
aF370.81797790527344
aa(lp6
S'timestamp'
p7
aF0.42095494270324707
aatp8
Rp9
.ccollections
OrderedDict
p0
((lp1
(lp2
S'state'
p3
aI0
aa(lp4
S'distance'
p5
aF370.81797790527344
aa(lp6
S'timestamp'
p7
aF0.4223918914794922
aatp8
Rp9
.ccollections
OrderedDict
p0
((lp1
(lp2
S'state'
p3
aI0
aa(lp4
S'distance'
p5
aF370.81797790527344
aa(lp6
S'timestamp'
p7
aF0.44085097312927246
aatp8
Rp9
.ccollections
OrderedDict
p0
((lp1
(lp2
S'state'
p3
aI0
aa(lp4
S'distance'
p5
aF370.81797790527344
aa(lp6
S'timestamp'
p7
aF0.44092392921447754
aatp8
Rp9
.ccollections
OrderedDict
p0
((lp1
(lp2
S'state'
p3
aI0
aa(lp4
S'distance'
p5
aF370.81797790527344
aa(lp6
S'timestamp'
p7
aF0.4426248073577881
aatp8
Rp9
.ccollections
OrderedDict
p0
((lp1
(lp2
S'state'
p3
aI0
aa(lp4
S'distance'
p5
aF370.81797790527344
aa(lp6
S'timestamp'
p7
aF0.44320178031921387
aatp8
Rp9
.ccollections
OrderedDict
p0
((lp1
(lp2
S'state'
p3
aI0
aa(lp4
S'distance'
p5
aF370.81797790527344
aa(lp6
S'timestamp'
p7
aF0.45090579986572266
aatp8
Rp9
.ccollections
OrderedDict
p0
((lp1
(lp2
S'state'
p3
aI0
aa(lp4
S'distance'
p5
aF370.81797790527344
aa(lp6
S'timestamp'
p7
aF0.45098400115966797
aatp8
Rp9
.ccollections
OrderedDict
p0
((lp1
(lp2
S'state'
p3
aI0
aa(lp4
S'distance'
p5
aF370.81797790527344
aa(lp6
S'timestamp'
p7
aF0.4611029624938965
aatp8
Rp9
.ccollections
OrderedDict
p0
((lp1
(lp2
S'state'
p3
aI0
aa(lp4
S'distance'
p5
aF370.81797790527344
aa(lp6
S'timestamp'
p7
aF0.4617137908935547
aatp8
Rp9
.ccollections
OrderedDict
p0
((lp1
(lp2
S'state'
p3
aI0
aa(lp4
S'distance'
p5
aF370.81797790527344
aa(lp6
S'timestamp'
p7
aF0.4707179069519043
aatp8
Rp9
.ccollections
OrderedDict
p0
((lp1
(lp2
S'state'
p3
aI0
aa(lp4
S'distance'
p5
aF370.81797790527344
aa(lp6
S'timestamp'
p7
aF0.47079896926879883
aatp8
Rp9
.ccollections
OrderedDict
p0
((lp1
(lp2
S'state'
p3
aI0
aa(lp4
S'distance'
p5
aF370.81797790527344
aa(lp6
S'timestamp'
p7
aF0.4803149700164795
aatp8
Rp9
.ccollections
OrderedDict
p0
((lp1
(lp2
S'state'
p3
aI0
aa(lp4
S'distance'
p5
aF370.81797790527344
aa(lp6
S'timestamp'
p7
aF0.48099279403686523
aatp8
Rp9
.ccollections
OrderedDict
p0
((lp1
(lp2
S'state'
p3
aI0
aa(lp4
S'distance'
p5
aF370.81797790527344
aa(lp6
S'timestamp'
p7
aF0.4908769130706787
aatp8
Rp9
.ccollections
OrderedDict
p0
((lp1
(lp2
S'state'
p3
aI0
aa(lp4
S'distance'
p5
aF370.81797790527344
aa(lp6
S'timestamp'
p7
aF0.4909508228302002
aatp8
Rp9
.ccollections
OrderedDict
p0
((lp1
(lp2
S'state'
p3
aI0
aa(lp4
S'distance'
p5
aF370.81797790527344
aa(lp6
S'timestamp'
p7
aF0.5006849765777588
aatp8
Rp9
.ccollections
OrderedDict
p0
((lp1
(lp2
S'state'
p3
aI0
aa(lp4
S'distance'
p5
aF370.81797790527344
aa(lp6
S'timestamp'
p7
aF0.5008418560028076
aatp8
Rp9
.ccollections
OrderedDict
p0
((lp1
(lp2
S'state'
p3
aI0
aa(lp4
S'distance'
p5
aF370.81797790527344
aa(lp6
S'timestamp'
p7
aF0.5106759071350098
aatp8
Rp9
.ccollections
OrderedDict
p0
((lp1
(lp2
S'state'
p3
aI0
aa(lp4
S'distance'
p5
aF370.81797790527344
aa(lp6
S'timestamp'
p7
aF0.5114579200744629
aatp8
Rp9
.ccollections
OrderedDict
p0
((lp1
(lp2
S'state'
p3
aI0
aa(lp4
S'distance'
p5
aF370.81797790527344
aa(lp6
S'timestamp'
p7
aF0.5206108093261719
aatp8
Rp9
.ccollections
OrderedDict
p0
((lp1
(lp2
S'state'
p3
aI0
aa(lp4
S'distance'
p5
aF370.81797790527344
aa(lp6
S'timestamp'
p7
aF0.5208189487457275
aatp8
Rp9
.ccollections
OrderedDict
p0
((lp1
(lp2
S'state'
p3
aI0
aa(lp4
S'distance'
p5
aF370.81797790527344
aa(lp6
S'timestamp'
p7
aF0.5306558609008789
aatp8
Rp9
.ccollections
OrderedDict
p0
((lp1
(lp2
S'state'
p3
aI0
aa(lp4
S'distance'
p5
aF370.81797790527344
aa(lp6
S'timestamp'
p7
aF0.5310258865356445
aatp8
Rp9
.ccollections
OrderedDict
p0
((lp1
(lp2
S'state'
p3
aI0
aa(lp4
S'distance'
p5
aF370.81797790527344
aa(lp6
S'timestamp'
p7
aF0.540334939956665
aatp8
Rp9
.ccollections
OrderedDict
p0
((lp1
(lp2
S'state'
p3
aI0
aa(lp4
S'distance'
p5
aF370.81797790527344
aa(lp6
S'timestamp'
p7
aF0.5411748886108398
aatp8
Rp9
.ccollections
OrderedDict
p0
((lp1
(lp2
S'state'
p3
aI0
aa(lp4
S'distance'
p5
aF370.81797790527344
aa(lp6
S'timestamp'
p7
aF0.5507199764251709
aatp8
Rp9
.ccollections
OrderedDict
p0
((lp1
(lp2
S'state'
p3
aI0
aa(lp4
S'distance'
p5
aF370.81797790527344
aa(lp6
S'timestamp'
p7
aF0.5515868663787842
aatp8
Rp9
.ccollections
OrderedDict
p0
((lp1
(lp2
S'state'
p3
aI0
aa(lp4
S'distance'
p5
aF370.81797790527344
aa(lp6
S'timestamp'
p7
aF0.560675859451294
aatp8
Rp9
.ccollections
OrderedDict
p0
((lp1
(lp2
S'state'
p3
aI0
aa(lp4
S'distance'
p5
aF370.81797790527344
aa(lp6
S'timestamp'
p7
aF0.5611228942871094
aatp8
Rp9
.ccollections
OrderedDict
p0
((lp1
(lp2
S'state'
p3
aI0
aa(lp4
S'distance'
p5
aF370.81797790527344
aa(lp6
S'timestamp'
p7
aF0.5705599784851074
aatp8
Rp9
.ccollections
OrderedDict
p0
((lp1
(lp2
S'state'
p3
aI0
aa(lp4
S'distance'
p5
aF370.81797790527344
aa(lp6
S'timestamp'
p7
aF0.5709228515625
aatp8
Rp9
.ccollections
OrderedDict
p0
((lp1
(lp2
S'state'
p3
aI0
aa(lp4
S'distance'
p5
aF370.81797790527344
aa(lp6
S'timestamp'
p7
aF0.5807127952575684
aatp8
Rp9
.ccollections
OrderedDict
p0
((lp1
(lp2
S'state'
p3
aI0
aa(lp4
S'distance'
p5
aF370.81797790527344
aa(lp6
S'timestamp'
p7
aF0.5812859535217285
aatp8
Rp9
.ccollections
OrderedDict
p0
((lp1
(lp2
S'state'
p3
aI0
aa(lp4
S'distance'
p5
aF370.81797790527344
aa(lp6
S'timestamp'
p7
aF0.5910069942474365
aatp8
Rp9
.ccollections
OrderedDict
p0
((lp1
(lp2
S'state'
p3
aI0
aa(lp4
S'distance'
p5
aF370.81797790527344
aa(lp6
S'timestamp'
p7
aF0.5911719799041748
aatp8
Rp9
.ccollections
OrderedDict
p0
((lp1
(lp2
S'state'
p3
aI0
aa(lp4
S'distance'
p5
aF370.81797790527344
aa(lp6
S'timestamp'
p7
aF0.60052490234375
aatp8
Rp9
.ccollections
OrderedDict
p0
((lp1
(lp2
S'state'
p3
aI0
aa(lp4
S'distance'
p5
aF370.81797790527344
aa(lp6
S'timestamp'
p7
aF0.6008617877960205
aatp8
Rp9
.ccollections
OrderedDict
p0
((lp1
(lp2
S'state'
p3
aI0
aa(lp4
S'distance'
p5
aF370.81797790527344
aa(lp6
S'timestamp'
p7
aF0.6107449531555176
aatp8
Rp9
.ccollections
OrderedDict
p0
((lp1
(lp2
S'state'
p3
aI0
aa(lp4
S'distance'
p5
aF370.81797790527344
aa(lp6
S'timestamp'
p7
aF0.6126527786254883
aatp8
Rp9
.ccollections
OrderedDict
p0
((lp1
(lp2
S'state'
p3
aI0
aa(lp4
S'distance'
p5
aF370.81797790527344
aa(lp6
S'timestamp'
p7
aF0.6403508186340332
aatp8
Rp9
.ccollections
OrderedDict
p0
((lp1
(lp2
S'state'
p3
aI0
aa(lp4
S'distance'
p5
aF370.81797790527344
aa(lp6
S'timestamp'
p7
aF0.6405289173126221
aatp8
Rp9
.ccollections
OrderedDict
p0
((lp1
(lp2
S'state'
p3
aI0
aa(lp4
S'distance'
p5
aF370.81797790527344
aa(lp6
S'timestamp'
p7
aF0.6409749984741211
aatp8
Rp9
.ccollections
OrderedDict
p0
((lp1
(lp2
S'state'
p3
aI0
aa(lp4
S'distance'
p5
aF370.81797790527344
aa(lp6
S'timestamp'
p7
aF0.6415998935699463
aatp8
Rp9
.ccollections
OrderedDict
p0
((lp1
(lp2
S'state'
p3
aI0
aa(lp4
S'distance'
p5
aF370.81797790527344
aa(lp6
S'timestamp'
p7
aF0.6509590148925781
aatp8
Rp9
.ccollections
OrderedDict
p0
((lp1
(lp2
S'state'
p3
aI0
aa(lp4
S'distance'
p5
aF370.81797790527344
aa(lp6
S'timestamp'
p7
aF0.6510748863220215
aatp8
Rp9
.ccollections
OrderedDict
p0
((lp1
(lp2
S'state'
p3
aI0
aa(lp4
S'distance'
p5
aF370.81797790527344
aa(lp6
S'timestamp'
p7
aF0.6518449783325195
aatp8
Rp9
.ccollections
OrderedDict
p0
((lp1
(lp2
S'state'
p3
aI0
aa(lp4
S'distance'
p5
aF370.81797790527344
aa(lp6
S'timestamp'
p7
aF0.6522808074951172
aatp8
Rp9
.ccollections
OrderedDict
p0
((lp1
(lp2
S'state'
p3
aI0
aa(lp4
S'distance'
p5
aF370.81797790527344
aa(lp6
S'timestamp'
p7
aF0.6608119010925293
aatp8
Rp9
.ccollections
OrderedDict
p0
((lp1
(lp2
S'state'
p3
aI0
aa(lp4
S'distance'
p5
aF370.81797790527344
aa(lp6
S'timestamp'
p7
aF0.6614768505096436
aatp8
Rp9
.ccollections
OrderedDict
p0
((lp1
(lp2
S'state'
p3
aI0
aa(lp4
S'distance'
p5
aF370.81797790527344
aa(lp6
S'timestamp'
p7
aF0.6707677841186523
aatp8
Rp9
.ccollections
OrderedDict
p0
((lp1
(lp2
S'state'
p3
aI0
aa(lp4
S'distance'
p5
aF370.81797790527344
aa(lp6
S'timestamp'
p7
aF0.6708889007568359
aatp8
Rp9
.ccollections
OrderedDict
p0
((lp1
(lp2
S'state'
p3
aI0
aa(lp4
S'distance'
p5
aF370.81797790527344
aa(lp6
S'timestamp'
p7
aF0.6808898448944092
aatp8
Rp9
.ccollections
OrderedDict
p0
((lp1
(lp2
S'state'
p3
aI0
aa(lp4
S'distance'
p5
aF370.81797790527344
aa(lp6
S'timestamp'
p7
aF0.6809678077697754
aatp8
Rp9
.ccollections
OrderedDict
p0
((lp1
(lp2
S'state'
p3
aI0
aa(lp4
S'distance'
p5
aF370.81797790527344
aa(lp6
S'timestamp'
p7
aF0.6908409595489502
aatp8
Rp9
.ccollections
OrderedDict
p0
((lp1
(lp2
S'state'
p3
aI0
aa(lp4
S'distance'
p5
aF370.81797790527344
aa(lp6
S'timestamp'
p7
aF0.6909217834472656
aatp8
Rp9
.ccollections
OrderedDict
p0
((lp1
(lp2
S'state'
p3
aI0
aa(lp4
S'distance'
p5
aF370.81797790527344
aa(lp6
S'timestamp'
p7
aF0.7209978103637695
aatp8
Rp9
.ccollections
OrderedDict
p0
((lp1
(lp2
S'state'
p3
aI0
aa(lp4
S'distance'
p5
aF370.81797790527344
aa(lp6
S'timestamp'
p7
aF0.7211399078369141
aatp8
Rp9
.ccollections
OrderedDict
p0
((lp1
(lp2
S'state'
p3
aI0
aa(lp4
S'distance'
p5
aF370.81797790527344
aa(lp6
S'timestamp'
p7
aF0.7213888168334961
aatp8
Rp9
.ccollections
OrderedDict
p0
((lp1
(lp2
S'state'
p3
aI0
aa(lp4
S'distance'
p5
aF370.81797790527344
aa(lp6
S'timestamp'
p7
aF0.7215869426727295
aatp8
Rp9
.ccollections
OrderedDict
p0
((lp1
(lp2
S'state'
p3
aI0
aa(lp4
S'distance'
p5
aF370.81797790527344
aa(lp6
S'timestamp'
p7
aF0.7411739826202393
aatp8
Rp9
.ccollections
OrderedDict
p0
((lp1
(lp2
S'state'
p3
aI0
aa(lp4
S'distance'
p5
aF370.81797790527344
aa(lp6
S'timestamp'
p7
aF0.7415750026702881
aatp8
Rp9
.ccollections
OrderedDict
p0
((lp1
(lp2
S'state'
p3
aI0
aa(lp4
S'distance'
p5
aF370.81797790527344
aa(lp6
S'timestamp'
p7
aF0.7424018383026123
aatp8
Rp9
.ccollections
OrderedDict
p0
((lp1
(lp2
S'state'
p3
aI0
aa(lp4
S'distance'
p5
aF370.81797790527344
aa(lp6
S'timestamp'
p7
aF0.7513589859008789
aatp8
Rp9
.ccollections
OrderedDict
p0
((lp1
(lp2
S'state'
p3
aI0
aa(lp4
S'distance'
p5
aF370.81797790527344
aa(lp6
S'timestamp'
p7
aF0.7514638900756836
aatp8
Rp9
.ccollections
OrderedDict
p0
((lp1
(lp2
S'state'
p3
aI0
aa(lp4
S'distance'
p5
aF370.81797790527344
aa(lp6
S'timestamp'
p7
aF0.7515788078308105
aatp8
Rp9
.ccollections
OrderedDict
p0
((lp1
(lp2
S'state'
p3
aI0
aa(lp4
S'distance'
p5
aF370.81797790527344
aa(lp6
S'timestamp'
p7
aF0.7522749900817871
aatp8
Rp9
.ccollections
OrderedDict
p0
((lp1
(lp2
S'state'
p3
aI0
aa(lp4
S'distance'
p5
aF370.81797790527344
aa(lp6
S'timestamp'
p7
aF0.7609479427337646
aatp8
Rp9
.ccollections
OrderedDict
p0
((lp1
(lp2
S'state'
p3
aI0
aa(lp4
S'distance'
p5
aF370.81797790527344
aa(lp6
S'timestamp'
p7
aF0.7618818283081055
aatp8
Rp9
.ccollections
OrderedDict
p0
((lp1
(lp2
S'state'
p3
aI0
aa(lp4
S'distance'
p5
aF370.81797790527344
aa(lp6
S'timestamp'
p7
aF0.7634468078613281
aatp8
Rp9
.ccollections
OrderedDict
p0
((lp1
(lp2
S'state'
p3
aI0
aa(lp4
S'distance'
p5
aF370.81797790527344
aa(lp6
S'timestamp'
p7
aF0.7812879085540771
aatp8
Rp9
.ccollections
OrderedDict
p0
((lp1
(lp2
S'state'
p3
aI0
aa(lp4
S'distance'
p5
aF370.81797790527344
aa(lp6
S'timestamp'
p7
aF0.781425952911377
aatp8
Rp9
.ccollections
OrderedDict
p0
((lp1
(lp2
S'state'
p3
aI0
aa(lp4
S'distance'
p5
aF370.81797790527344
aa(lp6
S'timestamp'
p7
aF0.790808916091919
aatp8
Rp9
.ccollections
OrderedDict
p0
((lp1
(lp2
S'state'
p3
aI0
aa(lp4
S'distance'
p5
aF370.81797790527344
aa(lp6
S'timestamp'
p7
aF0.7908849716186523
aatp8
Rp9
.ccollections
OrderedDict
p0
((lp1
(lp2
S'state'
p3
aI0
aa(lp4
S'distance'
p5
aF370.81797790527344
aa(lp6
S'timestamp'
p7
aF0.7923679351806641
aatp8
Rp9
.ccollections
OrderedDict
p0
((lp1
(lp2
S'state'
p3
aI0
aa(lp4
S'distance'
p5
aF370.81797790527344
aa(lp6
S'timestamp'
p7
aF0.7931108474731445
aatp8
Rp9
.ccollections
OrderedDict
p0
((lp1
(lp2
S'state'
p3
aI0
aa(lp4
S'distance'
p5
aF370.81797790527344
aa(lp6
S'timestamp'
p7
aF0.8016698360443115
aatp8
Rp9
.ccollections
OrderedDict
p0
((lp1
(lp2
S'state'
p3
aI0
aa(lp4
S'distance'
p5
aF370.81797790527344
aa(lp6
S'timestamp'
p7
aF0.8019218444824219
aatp8
Rp9
.ccollections
OrderedDict
p0
((lp1
(lp2
S'state'
p3
aI0
aa(lp4
S'distance'
p5
aF370.81797790527344
aa(lp6
S'timestamp'
p7
aF0.8109908103942871
aatp8
Rp9
.ccollections
OrderedDict
p0
((lp1
(lp2
S'state'
p3
aI0
aa(lp4
S'distance'
p5
aF370.81797790527344
aa(lp6
S'timestamp'
p7
aF0.8110690116882324
aatp8
Rp9
.ccollections
OrderedDict
p0
((lp1
(lp2
S'state'
p3
aI0
aa(lp4
S'distance'
p5
aF370.81797790527344
aa(lp6
S'timestamp'
p7
aF0.8309869766235352
aatp8
Rp9
.ccollections
OrderedDict
p0
((lp1
(lp2
S'state'
p3
aI0
aa(lp4
S'distance'
p5
aF370.81797790527344
aa(lp6
S'timestamp'
p7
aF0.8311049938201904
aatp8
Rp9
.ccollections
OrderedDict
p0
((lp1
(lp2
S'state'
p3
aI0
aa(lp4
S'distance'
p5
aF370.81797790527344
aa(lp6
S'timestamp'
p7
aF0.8312158584594727
aatp8
Rp9
.ccollections
OrderedDict
p0
((lp1
(lp2
S'state'
p3
aI0
aa(lp4
S'distance'
p5
aF370.81797790527344
aa(lp6
S'timestamp'
p7
aF0.831650972366333
aatp8
Rp9
.ccollections
OrderedDict
p0
((lp1
(lp2
S'state'
p3
aI0
aa(lp4
S'distance'
p5
aF370.81797790527344
aa(lp6
S'timestamp'
p7
aF0.8409228324890137
aatp8
Rp9
.ccollections
OrderedDict
p0
((lp1
(lp2
S'state'
p3
aI0
aa(lp4
S'distance'
p5
aF370.81797790527344
aa(lp6
S'timestamp'
p7
aF0.8410007953643799
aatp8
Rp9
.ccollections
OrderedDict
p0
((lp1
(lp2
S'state'
p3
aI0
aa(lp4
S'distance'
p5
aF370.81797790527344
aa(lp6
S'timestamp'
p7
aF0.8602938652038574
aatp8
Rp9
.ccollections
OrderedDict
p0
((lp1
(lp2
S'state'
p3
aI0
aa(lp4
S'distance'
p5
aF370.81797790527344
aa(lp6
S'timestamp'
p7
aF0.8609528541564941
aatp8
Rp9
.ccollections
OrderedDict
p0
((lp1
(lp2
S'state'
p3
aI0
aa(lp4
S'distance'
p5
aF370.81797790527344
aa(lp6
S'timestamp'
p7
aF0.8620448112487793
aatp8
Rp9
.ccollections
OrderedDict
p0
((lp1
(lp2
S'state'
p3
aI0
aa(lp4
S'distance'
p5
aF370.81797790527344
aa(lp6
S'timestamp'
p7
aF0.8621230125427246
aatp8
Rp9
.ccollections
OrderedDict
p0
((lp1
(lp2
S'state'
p3
aI0
aa(lp4
S'distance'
p5
aF370.81797790527344
aa(lp6
S'timestamp'
p7
aF0.8704969882965088
aatp8
Rp9
.ccollections
OrderedDict
p0
((lp1
(lp2
S'state'
p3
aI0
aa(lp4
S'distance'
p5
aF370.81797790527344
aa(lp6
S'timestamp'
p7
aF0.871060848236084
aatp8
Rp9
.ccollections
OrderedDict
p0
((lp1
(lp2
S'state'
p3
aI0
aa(lp4
S'distance'
p5
aF370.81797790527344
aa(lp6
S'timestamp'
p7
aF0.8801958560943604
aatp8
Rp9
.ccollections
OrderedDict
p0
((lp1
(lp2
S'state'
p3
aI0
aa(lp4
S'distance'
p5
aF370.81797790527344
aa(lp6
S'timestamp'
p7
aF0.8805677890777588
aatp8
Rp9
.ccollections
OrderedDict
p0
((lp1
(lp2
S'state'
p3
aI0
aa(lp4
S'distance'
p5
aF370.81797790527344
aa(lp6
S'timestamp'
p7
aF0.8907589912414551
aatp8
Rp9
.ccollections
OrderedDict
p0
((lp1
(lp2
S'state'
p3
aI0
aa(lp4
S'distance'
p5
aF370.81797790527344
aa(lp6
S'timestamp'
p7
aF0.8909318447113037
aatp8
Rp9
.ccollections
OrderedDict
p0
((lp1
(lp2
S'state'
p3
aI0
aa(lp4
S'distance'
p5
aF370.81797790527344
aa(lp6
S'timestamp'
p7
aF0.9009737968444824
aatp8
Rp9
.ccollections
OrderedDict
p0
((lp1
(lp2
S'state'
p3
aI0
aa(lp4
S'distance'
p5
aF370.81797790527344
aa(lp6
S'timestamp'
p7
aF0.9011569023132324
aatp8
Rp9
.ccollections
OrderedDict
p0
((lp1
(lp2
S'state'
p3
aI0
aa(lp4
S'distance'
p5
aF370.81797790527344
aa(lp6
S'timestamp'
p7
aF0.9107468128204346
aatp8
Rp9
.ccollections
OrderedDict
p0
((lp1
(lp2
S'state'
p3
aI0
aa(lp4
S'distance'
p5
aF370.81797790527344
aa(lp6
S'timestamp'
p7
aF0.9108288288116455
aatp8
Rp9
.ccollections
OrderedDict
p0
((lp1
(lp2
S'state'
p3
aI0
aa(lp4
S'distance'
p5
aF370.81797790527344
aa(lp6
S'timestamp'
p7
aF0.9207189083099365
aatp8
Rp9
.ccollections
OrderedDict
p0
((lp1
(lp2
S'state'
p3
aI0
aa(lp4
S'distance'
p5
aF370.81797790527344
aa(lp6
S'timestamp'
p7
aF0.9209489822387695
aatp8
Rp9
.ccollections
OrderedDict
p0
((lp1
(lp2
S'state'
p3
aI0
aa(lp4
S'distance'
p5
aF370.81797790527344
aa(lp6
S'timestamp'
p7
aF0.9310348033905029
aatp8
Rp9
.ccollections
OrderedDict
p0
((lp1
(lp2
S'state'
p3
aI0
aa(lp4
S'distance'
p5
aF370.81797790527344
aa(lp6
S'timestamp'
p7
aF0.931114912033081
aatp8
Rp9
.ccollections
OrderedDict
p0
((lp1
(lp2
S'state'
p3
aI0
aa(lp4
S'distance'
p5
aF370.81797790527344
aa(lp6
S'timestamp'
p7
aF0.94073486328125
aatp8
Rp9
.ccollections
OrderedDict
p0
((lp1
(lp2
S'state'
p3
aI0
aa(lp4
S'distance'
p5
aF370.81797790527344
aa(lp6
S'timestamp'
p7
aF0.9503250122070312
aatp8
Rp9
.ccollections
OrderedDict
p0
((lp1
(lp2
S'state'
p3
aI0
aa(lp4
S'distance'
p5
aF370.81797790527344
aa(lp6
S'timestamp'
p7
aF0.9506449699401855
aatp8
Rp9
.ccollections
OrderedDict
p0
((lp1
(lp2
S'state'
p3
aI0
aa(lp4
S'distance'
p5
aF370.81797790527344
aa(lp6
S'timestamp'
p7
aF0.9511349201202393
aatp8
Rp9
.ccollections
OrderedDict
p0
((lp1
(lp2
S'state'
p3
aI0
aa(lp4
S'distance'
p5
aF370.81797790527344
aa(lp6
S'timestamp'
p7
aF0.960798978805542
aatp8
Rp9
.ccollections
OrderedDict
p0
((lp1
(lp2
S'state'
p3
aI0
aa(lp4
S'distance'
p5
aF370.81797790527344
aa(lp6
S'timestamp'
p7
aF0.960899829864502
aatp8
Rp9
.ccollections
OrderedDict
p0
((lp1
(lp2
S'state'
p3
aI0
aa(lp4
S'distance'
p5
aF370.81797790527344
aa(lp6
S'timestamp'
p7
aF0.9710719585418701
aatp8
Rp9
.ccollections
OrderedDict
p0
((lp1
(lp2
S'state'
p3
aI0
aa(lp4
S'distance'
p5
aF370.81797790527344
aa(lp6
S'timestamp'
p7
aF0.9711759090423584
aatp8
Rp9
.ccollections
OrderedDict
p0
((lp1
(lp2
S'state'
p3
aI0
aa(lp4
S'distance'
p5
aF370.81797790527344
aa(lp6
S'timestamp'
p7
aF0.9908068180084229
aatp8
Rp9
.ccollections
OrderedDict
p0
((lp1
(lp2
S'state'
p3
aI0
aa(lp4
S'distance'
p5
aF370.81797790527344
aa(lp6
S'timestamp'
p7
aF0.9908859729766846
aatp8
Rp9
.ccollections
OrderedDict
p0
((lp1
(lp2
S'state'
p3
aI0
aa(lp4
S'distance'
p5
aF370.81797790527344
aa(lp6
S'timestamp'
p7
aF0.9919178485870361
aatp8
Rp9
.ccollections
OrderedDict
p0
((lp1
(lp2
S'state'
p3
aI0
aa(lp4
S'distance'
p5
aF370.81797790527344
aa(lp6
S'timestamp'
p7
aF0.9919998645782471
aatp8
Rp9
.ccollections
OrderedDict
p0
((lp1
(lp2
S'state'
p3
aI0
aa(lp4
S'distance'
p5
aF370.81797790527344
aa(lp6
S'timestamp'
p7
aF1.0005149841308594
aatp8
Rp9
.ccollections
OrderedDict
p0
((lp1
(lp2
S'state'
p3
aI0
aa(lp4
S'distance'
p5
aF370.81797790527344
aa(lp6
S'timestamp'
p7
aF1.001215934753418
aatp8
Rp9
.ccollections
OrderedDict
p0
((lp1
(lp2
S'state'
p3
aI0
aa(lp4
S'distance'
p5
aF370.81797790527344
aa(lp6
S'timestamp'
p7
aF1.0109717845916748
aatp8
Rp9
.ccollections
OrderedDict
p0
((lp1
(lp2
S'state'
p3
aI0
aa(lp4
S'distance'
p5
aF370.81797790527344
aa(lp6
S'timestamp'
p7
aF1.0110499858856201
aatp8
Rp9
.ccollections
OrderedDict
p0
((lp1
(lp2
S'state'
p3
aI0
aa(lp4
S'distance'
p5
aF370.81797790527344
aa(lp6
S'timestamp'
p7
aF1.020650863647461
aatp8
Rp9
.ccollections
OrderedDict
p0
((lp1
(lp2
S'state'
p3
aI0
aa(lp4
S'distance'
p5
aF370.81797790527344
aa(lp6
S'timestamp'
p7
aF1.0218567848205566
aatp8
Rp9
.ccollections
OrderedDict
p0
((lp1
(lp2
S'state'
p3
aI0
aa(lp4
S'distance'
p5
aF370.81797790527344
aa(lp6
S'timestamp'
p7
aF1.030871868133545
aatp8
Rp9
.ccollections
OrderedDict
p0
((lp1
(lp2
S'state'
p3
aI0
aa(lp4
S'distance'
p5
aF370.81797790527344
aa(lp6
S'timestamp'
p7
aF1.0309779644012451
aatp8
Rp9
.ccollections
OrderedDict
p0
((lp1
(lp2
S'state'
p3
aI0
aa(lp4
S'distance'
p5
aF370.81797790527344
aa(lp6
S'timestamp'
p7
aF1.0406608581542969
aatp8
Rp9
.ccollections
OrderedDict
p0
((lp1
(lp2
S'state'
p3
aI0
aa(lp4
S'distance'
p5
aF370.81797790527344
aa(lp6
S'timestamp'
p7
aF1.040738821029663
aatp8
Rp9
.ccollections
OrderedDict
p0
((lp1
(lp2
S'state'
p3
aI0
aa(lp4
S'distance'
p5
aF370.81797790527344
aa(lp6
S'timestamp'
p7
aF1.0506420135498047
aatp8
Rp9
.ccollections
OrderedDict
p0
((lp1
(lp2
S'state'
p3
aI0
aa(lp4
S'distance'
p5
aF370.81797790527344
aa(lp6
S'timestamp'
p7
aF1.0620408058166504
aatp8
Rp9
.ccollections
OrderedDict
p0
((lp1
(lp2
S'state'
p3
aI0
aa(lp4
S'distance'
p5
aF370.81797790527344
aa(lp6
S'timestamp'
p7
aF1.0622529983520508
aatp8
Rp9
.ccollections
OrderedDict
p0
((lp1
(lp2
S'state'
p3
aI0
aa(lp4
S'distance'
p5
aF370.81797790527344
aa(lp6
S'timestamp'
p7
aF1.0625319480895996
aatp8
Rp9
.ccollections
OrderedDict
p0
((lp1
(lp2
S'state'
p3
aI0
aa(lp4
S'distance'
p5
aF370.81797790527344
aa(lp6
S'timestamp'
p7
aF1.070565938949585
aatp8
Rp9
.ccollections
OrderedDict
p0
((lp1
(lp2
S'state'
p3
aI0
aa(lp4
S'distance'
p5
aF370.81797790527344
aa(lp6
S'timestamp'
p7
aF1.0906448364257812
aatp8
Rp9
.ccollections
OrderedDict
p0
((lp1
(lp2
S'state'
p3
aI0
aa(lp4
S'distance'
p5
aF370.81797790527344
aa(lp6
S'timestamp'
p7
aF1.090946912765503
aatp8
Rp9
.ccollections
OrderedDict
p0
((lp1
(lp2
S'state'
p3
aI0
aa(lp4
S'distance'
p5
aF370.81797790527344
aa(lp6
S'timestamp'
p7
aF1.091033935546875
aatp8
Rp9
.ccollections
OrderedDict
p0
((lp1
(lp2
S'state'
p3
aI0
aa(lp4
S'distance'
p5
aF370.81797790527344
aa(lp6
S'timestamp'
p7
aF1.0915069580078125
aatp8
Rp9
.ccollections
OrderedDict
p0
((lp1
(lp2
S'state'
p3
aI0
aa(lp4
S'distance'
p5
aF370.81797790527344
aa(lp6
S'timestamp'
p7
aF1.1007578372955322
aatp8
Rp9
.ccollections
OrderedDict
p0
((lp1
(lp2
S'state'
p3
aI0
aa(lp4
S'distance'
p5
aF370.81797790527344
aa(lp6
S'timestamp'
p7
aF1.103276014328003
aatp8
Rp9
.ccollections
OrderedDict
p0
((lp1
(lp2
S'state'
p3
aI0
aa(lp4
S'distance'
p5
aF370.81797790527344
aa(lp6
S'timestamp'
p7
aF1.1035358905792236
aatp8
Rp9
.ccollections
OrderedDict
p0
((lp1
(lp2
S'state'
p3
aI0
aa(lp4
S'distance'
p5
aF370.81797790527344
aa(lp6
S'timestamp'
p7
aF1.1108319759368896
aatp8
Rp9
.ccollections
OrderedDict
p0
((lp1
(lp2
S'state'
p3
aI0
aa(lp4
S'distance'
p5
aF370.81797790527344
aa(lp6
S'timestamp'
p7
aF1.1109588146209717
aatp8
Rp9
.ccollections
OrderedDict
p0
((lp1
(lp2
S'state'
p3
aI0
aa(lp4
S'distance'
p5
aF370.81797790527344
aa(lp6
S'timestamp'
p7
aF1.1508698463439941
aatp8
Rp9
.ccollections
OrderedDict
p0
((lp1
(lp2
S'state'
p3
aI0
aa(lp4
S'distance'
p5
aF370.81797790527344
aa(lp6
S'timestamp'
p7
aF1.150972843170166
aatp8
Rp9
.ccollections
OrderedDict
p0
((lp1
(lp2
S'state'
p3
aI0
aa(lp4
S'distance'
p5
aF370.81797790527344
aa(lp6
S'timestamp'
p7
aF1.1521098613739014
aatp8
Rp9
.ccollections
OrderedDict
p0
((lp1
(lp2
S'state'
p3
aI0
aa(lp4
S'distance'
p5
aF370.81797790527344
aa(lp6
S'timestamp'
p7
aF1.1530559062957764
aatp8
Rp9
.ccollections
OrderedDict
p0
((lp1
(lp2
S'state'
p3
aI0
aa(lp4
S'distance'
p5
aF370.81797790527344
aa(lp6
S'timestamp'
p7
aF1.1604437828063965
aatp8
Rp9
.ccollections
OrderedDict
p0
((lp1
(lp2
S'state'
p3
aI0
aa(lp4
S'distance'
p5
aF370.81797790527344
aa(lp6
S'timestamp'
p7
aF1.1607389450073242
aatp8
Rp9
.ccollections
OrderedDict
p0
((lp1
(lp2
S'state'
p3
aI0
aa(lp4
S'distance'
p5
aF370.81797790527344
aa(lp6
S'timestamp'
p7
aF1.1611378192901611
aatp8
Rp9
.ccollections
OrderedDict
p0
((lp1
(lp2
S'state'
p3
aI0
aa(lp4
S'distance'
p5
aF370.81797790527344
aa(lp6
S'timestamp'
p7
aF1.1624457836151123
aatp8
Rp9
.ccollections
OrderedDict
p0
((lp1
(lp2
S'state'
p3
aI0
aa(lp4
S'distance'
p5
aF370.81797790527344
aa(lp6
S'timestamp'
p7
aF1.1710269451141357
aatp8
Rp9
.ccollections
OrderedDict
p0
((lp1
(lp2
S'state'
p3
aI0
aa(lp4
S'distance'
p5
aF370.81797790527344
aa(lp6
S'timestamp'
p7
aF1.171151876449585
aatp8
Rp9
.ccollections
OrderedDict
p0
((lp1
(lp2
S'state'
p3
aI0
aa(lp4
S'distance'
p5
aF370.81797790527344
aa(lp6
S'timestamp'
p7
aF1.171355962753296
aatp8
Rp9
.ccollections
OrderedDict
p0
((lp1
(lp2
S'state'
p3
aI0
aa(lp4
S'distance'
p5
aF370.81797790527344
aa(lp6
S'timestamp'
p7
aF1.1714777946472168
aatp8
Rp9
.ccollections
OrderedDict
p0
((lp1
(lp2
S'state'
p3
aI0
aa(lp4
S'distance'
p5
aF370.81797790527344
aa(lp6
S'timestamp'
p7
aF1.1813619136810303
aatp8
Rp9
.ccollections
OrderedDict
p0
((lp1
(lp2
S'state'
p3
aI0
aa(lp4
S'distance'
p5
aF370.81797790527344
aa(lp6
S'timestamp'
p7
aF1.1814429759979248
aatp8
Rp9
.ccollections
OrderedDict
p0
((lp1
(lp2
S'state'
p3
aI0
aa(lp4
S'distance'
p5
aF370.81797790527344
aa(lp6
S'timestamp'
p7
aF1.190593957901001
aatp8
Rp9
.ccollections
OrderedDict
p0
((lp1
(lp2
S'state'
p3
aI0
aa(lp4
S'distance'
p5
aF370.81797790527344
aa(lp6
S'timestamp'
p7
aF1.2009389400482178
aatp8
Rp9
.ccollections
OrderedDict
p0
((lp1
(lp2
S'state'
p3
aI0
aa(lp4
S'distance'
p5
aF370.81797790527344
aa(lp6
S'timestamp'
p7
aF1.201352834701538
aatp8
Rp9
.ccollections
OrderedDict
p0
((lp1
(lp2
S'state'
p3
aI0
aa(lp4
S'distance'
p5
aF370.81797790527344
aa(lp6
S'timestamp'
p7
aF1.2014789581298828
aatp8
Rp9
.ccollections
OrderedDict
p0
((lp1
(lp2
S'state'
p3
aI0
aa(lp4
S'distance'
p5
aF370.81797790527344
aa(lp6
S'timestamp'
p7
aF1.211427927017212
aatp8
Rp9
.ccollections
OrderedDict
p0
((lp1
(lp2
S'state'
p3
aI0
aa(lp4
S'distance'
p5
aF370.81797790527344
aa(lp6
S'timestamp'
p7
aF1.2121667861938477
aatp8
Rp9
.ccollections
OrderedDict
p0
((lp1
(lp2
S'state'
p3
aI0
aa(lp4
S'distance'
p5
aF370.81797790527344
aa(lp6
S'timestamp'
p7
aF1.2218079566955566
aatp8
Rp9
.ccollections
OrderedDict
p0
((lp1
(lp2
S'state'
p3
aI0
aa(lp4
S'distance'
p5
aF370.81797790527344
aa(lp6
S'timestamp'
p7
aF1.2225799560546875
aatp8
Rp9
.ccollections
OrderedDict
p0
((lp1
(lp2
S'state'
p3
aI0
aa(lp4
S'distance'
p5
aF370.81797790527344
aa(lp6
S'timestamp'
p7
aF1.2308878898620605
aatp8
Rp9
.ccollections
OrderedDict
p0
((lp1
(lp2
S'state'
p3
aI0
aa(lp4
S'distance'
p5
aF370.81797790527344
aa(lp6
S'timestamp'
p7
aF1.2313778400421143
aatp8
Rp9
.ccollections
OrderedDict
p0
((lp1
(lp2
S'state'
p3
aI0
aa(lp4
S'distance'
p5
aF370.81797790527344
aa(lp6
S'timestamp'
p7
aF1.24092698097229
aatp8
Rp9
.ccollections
OrderedDict
p0
((lp1
(lp2
S'state'
p3
aI0
aa(lp4
S'distance'
p5
aF370.81797790527344
aa(lp6
S'timestamp'
p7
aF1.2410387992858887
aatp8
Rp9
.ccollections
OrderedDict
p0
((lp1
(lp2
S'state'
p3
aI0
aa(lp4
S'distance'
p5
aF370.81797790527344
aa(lp6
S'timestamp'
p7
aF1.250321865081787
aatp8
Rp9
.ccollections
OrderedDict
p0
((lp1
(lp2
S'state'
p3
aI0
aa(lp4
S'distance'
p5
aF370.81797790527344
aa(lp6
S'timestamp'
p7
aF1.2504727840423584
aatp8
Rp9
.ccollections
OrderedDict
p0
((lp1
(lp2
S'state'
p3
aI0
aa(lp4
S'distance'
p5
aF370.81797790527344
aa(lp6
S'timestamp'
p7
aF1.2706398963928223
aatp8
Rp9
.ccollections
OrderedDict
p0
((lp1
(lp2
S'state'
p3
aI0
aa(lp4
S'distance'
p5
aF370.81797790527344
aa(lp6
S'timestamp'
p7
aF1.2711029052734375
aatp8
Rp9
.ccollections
OrderedDict
p0
((lp1
(lp2
S'state'
p3
aI0
aa(lp4
S'distance'
p5
aF370.81797790527344
aa(lp6
S'timestamp'
p7
aF1.281221866607666
aatp8
Rp9
.ccollections
OrderedDict
p0
((lp1
(lp2
S'state'
p3
aI0
aa(lp4
S'distance'
p5
aF370.81797790527344
aa(lp6
S'timestamp'
p7
aF1.281425952911377
aatp8
Rp9
.ccollections
OrderedDict
p0
((lp1
(lp2
S'state'
p3
aI0
aa(lp4
S'distance'
p5
aF370.81797790527344
aa(lp6
S'timestamp'
p7
aF1.2815988063812256
aatp8
Rp9
.ccollections
OrderedDict
p0
((lp1
(lp2
S'state'
p3
aI0
aa(lp4
S'distance'
p5
aF370.81797790527344
aa(lp6
S'timestamp'
p7
aF1.2821757793426514
aatp8
Rp9
.ccollections
OrderedDict
p0
((lp1
(lp2
S'state'
p3
aI0
aa(lp4
S'distance'
p5
aF370.81797790527344
aa(lp6
S'timestamp'
p7
aF1.290860891342163
aatp8
Rp9
.ccollections
OrderedDict
p0
((lp1
(lp2
S'state'
p3
aI0
aa(lp4
S'distance'
p5
aF370.81797790527344
aa(lp6
S'timestamp'
p7
aF1.290942907333374
aatp8
Rp9
.ccollections
OrderedDict
p0
((lp1
(lp2
S'state'
p3
aI0
aa(lp4
S'distance'
p5
aF370.81797790527344
aa(lp6
S'timestamp'
p7
aF1.3006739616394043
aatp8
Rp9
.ccollections
OrderedDict
p0
((lp1
(lp2
S'state'
p3
aI0
aa(lp4
S'distance'
p5
aF370.81797790527344
aa(lp6
S'timestamp'
p7
aF1.3017728328704834
aatp8
Rp9
.ccollections
OrderedDict
p0
((lp1
(lp2
S'state'
p3
aI0
aa(lp4
S'distance'
p5
aF370.81797790527344
aa(lp6
S'timestamp'
p7
aF1.3109159469604492
aatp8
Rp9
.ccollections
OrderedDict
p0
((lp1
(lp2
S'state'
p3
aI0
aa(lp4
S'distance'
p5
aF370.81797790527344
aa(lp6
S'timestamp'
p7
aF1.3109970092773438
aatp8
Rp9
.ccollections
OrderedDict
p0
((lp1
(lp2
S'state'
p3
aI0
aa(lp4
S'distance'
p5
aF370.81797790527344
aa(lp6
S'timestamp'
p7
aF1.3209178447723389
aatp8
Rp9
.ccollections
OrderedDict
p0
((lp1
(lp2
S'state'
p3
aI0
aa(lp4
S'distance'
p5
aF370.81797790527344
aa(lp6
S'timestamp'
p7
aF1.3216888904571533
aatp8
Rp9
.ccollections
OrderedDict
p0
((lp1
(lp2
S'state'
p3
aI0
aa(lp4
S'distance'
p5
aF370.81797790527344
aa(lp6
S'timestamp'
p7
aF1.3414108753204346
aatp8
Rp9
.ccollections
OrderedDict
p0
((lp1
(lp2
S'state'
p3
aI0
aa(lp4
S'distance'
p5
aF370.81797790527344
aa(lp6
S'timestamp'
p7
aF1.3418970108032227
aatp8
Rp9
.ccollections
OrderedDict
p0
((lp1
(lp2
S'state'
p3
aI0
aa(lp4
S'distance'
p5
aF370.81797790527344
aa(lp6
S'timestamp'
p7
aF1.3420259952545166
aatp8
Rp9
.ccollections
OrderedDict
p0
((lp1
(lp2
S'state'
p3
aI0
aa(lp4
S'distance'
p5
aF370.81797790527344
aa(lp6
S'timestamp'
p7
aF1.3421947956085205
aatp8
Rp9
.ccollections
OrderedDict
p0
((lp1
(lp2
S'state'
p3
aI0
aa(lp4
S'distance'
p5
aF370.81797790527344
aa(lp6
S'timestamp'
p7
aF1.3509588241577148
aatp8
Rp9
.ccollections
OrderedDict
p0
((lp1
(lp2
S'state'
p3
aI0
aa(lp4
S'distance'
p5
aF370.81797790527344
aa(lp6
S'timestamp'
p7
aF1.3510358333587646
aatp8
Rp9
.ccollections
OrderedDict
p0
((lp1
(lp2
S'state'
p3
aI0
aa(lp4
S'distance'
p5
aF370.81797790527344
aa(lp6
S'timestamp'
p7
aF1.3608739376068115
aatp8
Rp9
.ccollections
OrderedDict
p0
((lp1
(lp2
S'state'
p3
aI0
aa(lp4
S'distance'
p5
aF370.81797790527344
aa(lp6
S'timestamp'
p7
aF1.3609488010406494
aatp8
Rp9
.ccollections
OrderedDict
p0
((lp1
(lp2
S'state'
p3
aI0
aa(lp4
S'distance'
p5
aF370.81797790527344
aa(lp6
S'timestamp'
p7
aF1.3706247806549072
aatp8
Rp9
.ccollections
OrderedDict
p0
((lp1
(lp2
S'state'
p3
aI0
aa(lp4
S'distance'
p5
aF370.81797790527344
aa(lp6
S'timestamp'
p7
aF1.3707048892974854
aatp8
Rp9
.ccollections
OrderedDict
p0
((lp1
(lp2
S'state'
p3
aI0
aa(lp4
S'distance'
p5
aF370.81797790527344
aa(lp6
S'timestamp'
p7
aF1.380537986755371
aatp8
Rp9
.ccollections
OrderedDict
p0
((lp1
(lp2
S'state'
p3
aI0
aa(lp4
S'distance'
p5
aF370.81797790527344
aa(lp6
S'timestamp'
p7
aF1.381868839263916
aatp8
Rp9
.ccollections
OrderedDict
p0
((lp1
(lp2
S'state'
p3
aI0
aa(lp4
S'distance'
p5
aF370.81797790527344
aa(lp6
S'timestamp'
p7
aF1.3908519744873047
aatp8
Rp9
.ccollections
OrderedDict
p0
((lp1
(lp2
S'state'
p3
aI0
aa(lp4
S'distance'
p5
aF370.81797790527344
aa(lp6
S'timestamp'
p7
aF1.3909268379211426
aatp8
Rp9
.ccollections
OrderedDict
p0
((lp1
(lp2
S'state'
p3
aI0
aa(lp4
S'distance'
p5
aF370.81797790527344
aa(lp6
S'timestamp'
p7
aF1.4008870124816895
aatp8
Rp9
.ccollections
OrderedDict
p0
((lp1
(lp2
S'state'
p3
aI0
aa(lp4
S'distance'
p5
aF370.81797790527344
aa(lp6
S'timestamp'
p7
aF1.4009699821472168
aatp8
Rp9
.ccollections
OrderedDict
p0
((lp1
(lp2
S'state'
p3
aI0
aa(lp4
S'distance'
p5
aF370.81797790527344
aa(lp6
S'timestamp'
p7
aF1.4106409549713135
aatp8
Rp9
.ccollections
OrderedDict
p0
((lp1
(lp2
S'state'
p3
aI0
aa(lp4
S'distance'
p5
aF370.81797790527344
aa(lp6
S'timestamp'
p7
aF1.411017894744873
aatp8
Rp9
.ccollections
OrderedDict
p0
((lp1
(lp2
S'state'
p3
aI0
aa(lp4
S'distance'
p5
aF370.81797790527344
aa(lp6
S'timestamp'
p7
aF1.4201757907867432
aatp8
Rp9
.ccollections
OrderedDict
p0
((lp1
(lp2
S'state'
p3
aI0
aa(lp4
S'distance'
p5
aF370.81797790527344
aa(lp6
S'timestamp'
p7
aF1.420684814453125
aatp8
Rp9
.ccollections
OrderedDict
p0
((lp1
(lp2
S'state'
p3
aI0
aa(lp4
S'distance'
p5
aF370.81797790527344
aa(lp6
S'timestamp'
p7
aF1.430574893951416
aatp8
Rp9
.ccollections
OrderedDict
p0
((lp1
(lp2
S'state'
p3
aI0
aa(lp4
S'distance'
p5
aF370.81797790527344
aa(lp6
S'timestamp'
p7
aF1.4315249919891357
aatp8
Rp9
.ccollections
OrderedDict
p0
((lp1
(lp2
S'state'
p3
aI0
aa(lp4
S'distance'
p5
aF370.81797790527344
aa(lp6
S'timestamp'
p7
aF1.440652847290039
aatp8
Rp9
.ccollections
OrderedDict
p0
((lp1
(lp2
S'state'
p3
aI0
aa(lp4
S'distance'
p5
aF370.81797790527344
aa(lp6
S'timestamp'
p7
aF1.4407968521118164
aatp8
Rp9
.ccollections
OrderedDict
p0
((lp1
(lp2
S'state'
p3
aI0
aa(lp4
S'distance'
p5
aF370.81797790527344
aa(lp6
S'timestamp'
p7
aF1.4508788585662842
aatp8
Rp9
.ccollections
OrderedDict
p0
((lp1
(lp2
S'state'
p3
aI0
aa(lp4
S'distance'
p5
aF370.81797790527344
aa(lp6
S'timestamp'
p7
aF1.4509639739990234
aatp8
Rp9
.ccollections
OrderedDict
p0
((lp1
(lp2
S'state'
p3
aI0
aa(lp4
S'distance'
p5
aF370.81797790527344
aa(lp6
S'timestamp'
p7
aF1.460946798324585
aatp8
Rp9
.ccollections
OrderedDict
p0
((lp1
(lp2
S'state'
p3
aI0
aa(lp4
S'distance'
p5
aF370.81797790527344
aa(lp6
S'timestamp'
p7
aF1.4610888957977295
aatp8
Rp9
.ccollections
OrderedDict
p0
((lp1
(lp2
S'state'
p3
aI0
aa(lp4
S'distance'
p5
aF370.81797790527344
aa(lp6
S'timestamp'
p7
aF1.4706099033355713
aatp8
Rp9
.ccollections
OrderedDict
p0
((lp1
(lp2
S'state'
p3
aI0
aa(lp4
S'distance'
p5
aF370.81797790527344
aa(lp6
S'timestamp'
p7
aF1.4711599349975586
aatp8
Rp9
.ccollections
OrderedDict
p0
((lp1
(lp2
S'state'
p3
aI0
aa(lp4
S'distance'
p5
aF370.81797790527344
aa(lp6
S'timestamp'
p7
aF1.480841875076294
aatp8
Rp9
.ccollections
OrderedDict
p0
((lp1
(lp2
S'state'
p3
aI0
aa(lp4
S'distance'
p5
aF370.81797790527344
aa(lp6
S'timestamp'
p7
aF1.4809198379516602
aatp8
Rp9
.ccollections
OrderedDict
p0
((lp1
(lp2
S'state'
p3
aI0
aa(lp4
S'distance'
p5
aF370.81797790527344
aa(lp6
S'timestamp'
p7
aF1.490769863128662
aatp8
Rp9
.ccollections
OrderedDict
p0
((lp1
(lp2
S'state'
p3
aI0
aa(lp4
S'distance'
p5
aF370.81797790527344
aa(lp6
S'timestamp'
p7
aF1.500349998474121
aatp8
Rp9
.ccollections
OrderedDict
p0
((lp1
(lp2
S'state'
p3
aI0
aa(lp4
S'distance'
p5
aF370.81797790527344
aa(lp6
S'timestamp'
p7
aF1.500432014465332
aatp8
Rp9
.ccollections
OrderedDict
p0
((lp1
(lp2
S'state'
p3
aI0
aa(lp4
S'distance'
p5
aF370.81797790527344
aa(lp6
S'timestamp'
p7
aF1.5010998249053955
aatp8
Rp9
.ccollections
OrderedDict
p0
((lp1
(lp2
S'state'
p3
aI0
aa(lp4
S'distance'
p5
aF370.81797790527344
aa(lp6
S'timestamp'
p7
aF1.5108239650726318
aatp8
Rp9
.ccollections
OrderedDict
p0
((lp1
(lp2
S'state'
p3
aI0
aa(lp4
S'distance'
p5
aF370.81797790527344
aa(lp6
S'timestamp'
p7
aF1.5115289688110352
aatp8
Rp9
.ccollections
OrderedDict
p0
((lp1
(lp2
S'state'
p3
aI0
aa(lp4
S'distance'
p5
aF370.81797790527344
aa(lp6
S'timestamp'
p7
aF1.5206398963928223
aatp8
Rp9
.ccollections
OrderedDict
p0
((lp1
(lp2
S'state'
p3
aI0
aa(lp4
S'distance'
p5
aF370.81797790527344
aa(lp6
S'timestamp'
p7
aF1.5208539962768555
aatp8
Rp9
.ccollections
OrderedDict
p0
((lp1
(lp2
S'state'
p3
aI0
aa(lp4
S'distance'
p5
aF370.81797790527344
aa(lp6
S'timestamp'
p7
aF1.5311429500579834
aatp8
Rp9
.ccollections
OrderedDict
p0
((lp1
(lp2
S'state'
p3
aI0
aa(lp4
S'distance'
p5
aF370.81797790527344
aa(lp6
S'timestamp'
p7
aF1.5312728881835938
aatp8
Rp9
.ccollections
OrderedDict
p0
((lp1
(lp2
S'state'
p3
aI0
aa(lp4
S'distance'
p5
aF370.81797790527344
aa(lp6
S'timestamp'
p7
aF1.5409739017486572
aatp8
Rp9
.ccollections
OrderedDict
p0
((lp1
(lp2
S'state'
p3
aI0
aa(lp4
S'distance'
p5
aF370.81797790527344
aa(lp6
S'timestamp'
p7
aF1.5416619777679443
aatp8
Rp9
.ccollections
OrderedDict
p0
((lp1
(lp2
S'state'
p3
aI0
aa(lp4
S'distance'
p5
aF370.81797790527344
aa(lp6
S'timestamp'
p7
aF1.5509037971496582
aatp8
Rp9
.ccollections
OrderedDict
p0
((lp1
(lp2
S'state'
p3
aI0
aa(lp4
S'distance'
p5
aF370.81797790527344
aa(lp6
S'timestamp'
p7
aF1.550980806350708
aatp8
Rp9
.ccollections
OrderedDict
p0
((lp1
(lp2
S'state'
p3
aI0
aa(lp4
S'distance'
p5
aF370.81797790527344
aa(lp6
S'timestamp'
p7
aF1.5606420040130615
aatp8
Rp9
.ccollections
OrderedDict
p0
((lp1
(lp2
S'state'
p3
aI0
aa(lp4
S'distance'
p5
aF370.81797790527344
aa(lp6
S'timestamp'
p7
aF1.5609209537506104
aatp8
Rp9
.ccollections
OrderedDict
p0
((lp1
(lp2
S'state'
p3
aI0
aa(lp4
S'distance'
p5
aF370.81797790527344
aa(lp6
S'timestamp'
p7
aF1.5708239078521729
aatp8
Rp9
.ccollections
OrderedDict
p0
((lp1
(lp2
S'state'
p3
aI0
aa(lp4
S'distance'
p5
aF370.81797790527344
aa(lp6
S'timestamp'
p7
aF1.5708978176116943
aatp8
Rp9
.ccollections
OrderedDict
p0
((lp1
(lp2
S'state'
p3
aI0
aa(lp4
S'distance'
p5
aF370.81797790527344
aa(lp6
S'timestamp'
p7
aF1.5840568542480469
aatp8
Rp9
.ccollections
OrderedDict
p0
((lp1
(lp2
S'state'
p3
aI0
aa(lp4
S'distance'
p5
aF370.81797790527344
aa(lp6
S'timestamp'
p7
aF1.584716796875
aatp8
Rp9
.ccollections
OrderedDict
p0
((lp1
(lp2
S'state'
p3
aI0
aa(lp4
S'distance'
p5
aF370.81797790527344
aa(lp6
S'timestamp'
p7
aF1.5907127857208252
aatp8
Rp9
.ccollections
OrderedDict
p0
((lp1
(lp2
S'state'
p3
aI0
aa(lp4
S'distance'
p5
aF370.81797790527344
aa(lp6
S'timestamp'
p7
aF1.590918779373169
aatp8
Rp9
.ccollections
OrderedDict
p0
((lp1
(lp2
S'state'
p3
aI0
aa(lp4
S'distance'
p5
aF370.81797790527344
aa(lp6
S'timestamp'
p7
aF1.6007449626922607
aatp8
Rp9
.ccollections
OrderedDict
p0
((lp1
(lp2
S'state'
p3
aI0
aa(lp4
S'distance'
p5
aF370.81797790527344
aa(lp6
S'timestamp'
p7
aF1.6008219718933105
aatp8
Rp9
.ccollections
OrderedDict
p0
((lp1
(lp2
S'state'
p3
aI0
aa(lp4
S'distance'
p5
aF370.81797790527344
aa(lp6
S'timestamp'
p7
aF1.610792875289917
aatp8
Rp9
.ccollections
OrderedDict
p0
((lp1
(lp2
S'state'
p3
aI0
aa(lp4
S'distance'
p5
aF370.81797790527344
aa(lp6
S'timestamp'
p7
aF1.6108708381652832
aatp8
Rp9
.ccollections
OrderedDict
p0
((lp1
(lp2
S'state'
p3
aI0
aa(lp4
S'distance'
p5
aF370.81797790527344
aa(lp6
S'timestamp'
p7
aF1.6204259395599365
aatp8
Rp9
.ccollections
OrderedDict
p0
((lp1
(lp2
S'state'
p3
aI0
aa(lp4
S'distance'
p5
aF370.81797790527344
aa(lp6
S'timestamp'
p7
aF1.6208159923553467
aatp8
Rp9
.ccollections
OrderedDict
p0
((lp1
(lp2
S'state'
p3
aI0
aa(lp4
S'distance'
p5
aF370.81797790527344
aa(lp6
S'timestamp'
p7
aF1.6307268142700195
aatp8
Rp9
.ccollections
OrderedDict
p0
((lp1
(lp2
S'state'
p3
aI0
aa(lp4
S'distance'
p5
aF370.81797790527344
aa(lp6
S'timestamp'
p7
aF1.6308989524841309
aatp8
Rp9
.ccollections
OrderedDict
p0
((lp1
(lp2
S'state'
p3
aI0
aa(lp4
S'distance'
p5
aF370.81797790527344
aa(lp6
S'timestamp'
p7
aF1.6406397819519043
aatp8
Rp9
.ccollections
OrderedDict
p0
((lp1
(lp2
S'state'
p3
aI0
aa(lp4
S'distance'
p5
aF370.81797790527344
aa(lp6
S'timestamp'
p7
aF1.641150951385498
aatp8
Rp9
.ccollections
OrderedDict
p0
((lp1
(lp2
S'state'
p3
aI0
aa(lp4
S'distance'
p5
aF370.81797790527344
aa(lp6
S'timestamp'
p7
aF1.650803804397583
aatp8
Rp9
.ccollections
OrderedDict
p0
((lp1
(lp2
S'state'
p3
aI0
aa(lp4
S'distance'
p5
aF370.81797790527344
aa(lp6
S'timestamp'
p7
aF1.6508820056915283
aatp8
Rp9
.ccollections
OrderedDict
p0
((lp1
(lp2
S'state'
p3
aI0
aa(lp4
S'distance'
p5
aF370.81797790527344
aa(lp6
S'timestamp'
p7
aF1.660761833190918
aatp8
Rp9
.ccollections
OrderedDict
p0
((lp1
(lp2
S'state'
p3
aI0
aa(lp4
S'distance'
p5
aF370.81797790527344
aa(lp6
S'timestamp'
p7
aF1.6620049476623535
aatp8
Rp9
.ccollections
OrderedDict
p0
((lp1
(lp2
S'state'
p3
aI0
aa(lp4
S'distance'
p5
aF370.81797790527344
aa(lp6
S'timestamp'
p7
aF1.6708428859710693
aatp8
Rp9
.ccollections
OrderedDict
p0
((lp1
(lp2
S'state'
p3
aI0
aa(lp4
S'distance'
p5
aF370.81797790527344
aa(lp6
S'timestamp'
p7
aF1.6709249019622803
aatp8
Rp9
.ccollections
OrderedDict
p0
((lp1
(lp2
S'state'
p3
aI0
aa(lp4
S'distance'
p5
aF370.81797790527344
aa(lp6
S'timestamp'
p7
aF1.6807568073272705
aatp8
Rp9
.ccollections
OrderedDict
p0
((lp1
(lp2
S'state'
p3
aI0
aa(lp4
S'distance'
p5
aF370.81797790527344
aa(lp6
S'timestamp'
p7
aF1.6808578968048096
aatp8
Rp9
.ccollections
OrderedDict
p0
((lp1
(lp2
S'state'
p3
aI0
aa(lp4
S'distance'
p5
aF370.81797790527344
aa(lp6
S'timestamp'
p7
aF1.6908187866210938
aatp8
Rp9
.ccollections
OrderedDict
p0
((lp1
(lp2
S'state'
p3
aI0
aa(lp4
S'distance'
p5
aF370.81797790527344
aa(lp6
S'timestamp'
p7
aF1.690891981124878
aatp8
Rp9
.ccollections
OrderedDict
p0
((lp1
(lp2
S'state'
p3
aI0
aa(lp4
S'distance'
p5
aF370.81797790527344
aa(lp6
S'timestamp'
p7
aF1.7001218795776367
aatp8
Rp9
.ccollections
OrderedDict
p0
((lp1
(lp2
S'state'
p3
aI0
aa(lp4
S'distance'
p5
aF370.81797790527344
aa(lp6
S'timestamp'
p7
aF1.7005767822265625
aatp8
Rp9
.ccollections
OrderedDict
p0
((lp1
(lp2
S'state'
p3
aI0
aa(lp4
S'distance'
p5
aF370.81797790527344
aa(lp6
S'timestamp'
p7
aF1.7113289833068848
aatp8
Rp9
.ccollections
OrderedDict
p0
((lp1
(lp2
S'state'
p3
aI0
aa(lp4
S'distance'
p5
aF370.81797790527344
aa(lp6
S'timestamp'
p7
aF1.7117419242858887
aatp8
Rp9
.ccollections
OrderedDict
p0
((lp1
(lp2
S'state'
p3
aI0
aa(lp4
S'distance'
p5
aF370.81797790527344
aa(lp6
S'timestamp'
p7
aF1.7205238342285156
aatp8
Rp9
.ccollections
OrderedDict
p0
((lp1
(lp2
S'state'
p3
aI0
aa(lp4
S'distance'
p5
aF370.81797790527344
aa(lp6
S'timestamp'
p7
aF1.7210779190063477
aatp8
Rp9
.ccollections
OrderedDict
p0
((lp1
(lp2
S'state'
p3
aI0
aa(lp4
S'distance'
p5
aF370.81797790527344
aa(lp6
S'timestamp'
p7
aF1.7303779125213623
aatp8
Rp9
.ccollections
OrderedDict
p0
((lp1
(lp2
S'state'
p3
aI0
aa(lp4
S'distance'
p5
aF370.81797790527344
aa(lp6
S'timestamp'
p7
aF1.7407588958740234
aatp8
Rp9
.ccollections
OrderedDict
p0
((lp1
(lp2
S'state'
p3
aI0
aa(lp4
S'distance'
p5
aF370.81797790527344
aa(lp6
S'timestamp'
p7
aF1.7409448623657227
aatp8
Rp9
.ccollections
OrderedDict
p0
((lp1
(lp2
S'state'
p3
aI0
aa(lp4
S'distance'
p5
aF370.81797790527344
aa(lp6
S'timestamp'
p7
aF1.7423429489135742
aatp8
Rp9
.ccollections
OrderedDict
p0
((lp1
(lp2
S'state'
p3
aI0
aa(lp4
S'distance'
p5
aF370.81797790527344
aa(lp6
S'timestamp'
p7
aF1.7503979206085205
aatp8
Rp9
.ccollections
OrderedDict
p0
((lp1
(lp2
S'state'
p3
aI0
aa(lp4
S'distance'
p5
aF370.81797790527344
aa(lp6
S'timestamp'
p7
aF1.7509629726409912
aatp8
Rp9
.ccollections
OrderedDict
p0
((lp1
(lp2
S'state'
p3
aI0
aa(lp4
S'distance'
p5
aF370.81797790527344
aa(lp6
S'timestamp'
p7
aF1.7608098983764648
aatp8
Rp9
.ccollections
OrderedDict
p0
((lp1
(lp2
S'state'
p3
aI0
aa(lp4
S'distance'
p5
aF370.81797790527344
aa(lp6
S'timestamp'
p7
aF1.760895013809204
aatp8
Rp9
.ccollections
OrderedDict
p0
((lp1
(lp2
S'state'
p3
aI0
aa(lp4
S'distance'
p5
aF370.81797790527344
aa(lp6
S'timestamp'
p7
aF1.7704989910125732
aatp8
Rp9
.ccollections
OrderedDict
p0
((lp1
(lp2
S'state'
p3
aI0
aa(lp4
S'distance'
p5
aF370.81797790527344
aa(lp6
S'timestamp'
p7
aF1.7711098194122314
aatp8
Rp9
.ccollections
OrderedDict
p0
((lp1
(lp2
S'state'
p3
aI0
aa(lp4
S'distance'
p5
aF370.81797790527344
aa(lp6
S'timestamp'
p7
aF1.7805678844451904
aatp8
Rp9
.ccollections
OrderedDict
p0
((lp1
(lp2
S'state'
p3
aI0
aa(lp4
S'distance'
p5
aF370.81797790527344
aa(lp6
S'timestamp'
p7
aF1.7807679176330566
aatp8
Rp9
.ccollections
OrderedDict
p0
((lp1
(lp2
S'state'
p3
aI400
aa(lp4
S'distance'
p5
aF370.81797790527344
aa(lp6
S'timestamp'
p7
aF1.7906877994537354
aatp8
Rp9
.ccollections
OrderedDict
p0
((lp1
(lp2
S'state'
p3
aI400
aa(lp4
S'distance'
p5
aF370.81797790527344
aa(lp6
S'timestamp'
p7
aF1.790773868560791
aatp8
Rp9
.ccollections
OrderedDict
p0
((lp1
(lp2
S'state'
p3
aI400
aa(lp4
S'distance'
p5
aF370.81797790527344
aa(lp6
S'timestamp'
p7
aF1.8022828102111816
aatp8
Rp9
.ccollections
OrderedDict
p0
((lp1
(lp2
S'state'
p3
aI400
aa(lp4
S'distance'
p5
aF370.81797790527344
aa(lp6
S'timestamp'
p7
aF1.8024959564208984
aatp8
Rp9
.ccollections
OrderedDict
p0
((lp1
(lp2
S'state'
p3
aI400
aa(lp4
S'distance'
p5
aF370.81797790527344
aa(lp6
S'timestamp'
p7
aF1.8110699653625488
aatp8
Rp9
.ccollections
OrderedDict
p0
((lp1
(lp2
S'state'
p3
aI400
aa(lp4
S'distance'
p5
aF370.81797790527344
aa(lp6
S'timestamp'
p7
aF1.8112819194793701
aatp8
Rp9
.ccollections
OrderedDict
p0
((lp1
(lp2
S'state'
p3
aI400
aa(lp4
S'distance'
p5
aF370.81797790527344
aa(lp6
S'timestamp'
p7
aF1.8226678371429443
aatp8
Rp9
.ccollections
OrderedDict
p0
((lp1
(lp2
S'state'
p3
aI400
aa(lp4
S'distance'
p5
aF370.81797790527344
aa(lp6
S'timestamp'
p7
aF1.8227717876434326
aatp8
Rp9
.ccollections
OrderedDict
p0
((lp1
(lp2
S'state'
p3
aI400
aa(lp4
S'distance'
p5
aF370.81797790527344
aa(lp6
S'timestamp'
p7
aF1.833244800567627
aatp8
Rp9
.ccollections
OrderedDict
p0
((lp1
(lp2
S'state'
p3
aI400
aa(lp4
S'distance'
p5
aF370.81797790527344
aa(lp6
S'timestamp'
p7
aF1.8335278034210205
aatp8
Rp9
.ccollections
OrderedDict
p0
((lp1
(lp2
S'state'
p3
aI400
aa(lp4
S'distance'
p5
aF370.81797790527344
aa(lp6
S'timestamp'
p7
aF1.8503317832946777
aatp8
Rp9
.ccollections
OrderedDict
p0
((lp1
(lp2
S'state'
p3
aI400
aa(lp4
S'distance'
p5
aF370.81797790527344
aa(lp6
S'timestamp'
p7
aF1.851012945175171
aatp8
Rp9
.ccollections
OrderedDict
p0
((lp1
(lp2
S'state'
p3
aI400
aa(lp4
S'distance'
p5
aF370.81797790527344
aa(lp6
S'timestamp'
p7
aF1.8513588905334473
aatp8
Rp9
.ccollections
OrderedDict
p0
((lp1
(lp2
S'state'
p3
aI400
aa(lp4
S'distance'
p5
aF370.81797790527344
aa(lp6
S'timestamp'
p7
aF1.8610749244689941
aatp8
Rp9
.ccollections
OrderedDict
p0
((lp1
(lp2
S'state'
p3
aI400
aa(lp4
S'distance'
p5
aF370.81797790527344
aa(lp6
S'timestamp'
p7
aF1.8622667789459229
aatp8
Rp9
.ccollections
OrderedDict
p0
((lp1
(lp2
S'state'
p3
aI400
aa(lp4
S'distance'
p5
aF370.81797790527344
aa(lp6
S'timestamp'
p7
aF1.8628168106079102
aatp8
Rp9
.ccollections
OrderedDict
p0
((lp1
(lp2
S'state'
p3
aI400
aa(lp4
S'distance'
p5
aF370.81797790527344
aa(lp6
S'timestamp'
p7
aF1.8807919025421143
aatp8
Rp9
.ccollections
OrderedDict
p0
((lp1
(lp2
S'state'
p3
aI400
aa(lp4
S'distance'
p5
aF370.81797790527344
aa(lp6
S'timestamp'
p7
aF1.8824429512023926
aatp8
Rp9
.ccollections
OrderedDict
p0
((lp1
(lp2
S'state'
p3
aI400
aa(lp4
S'distance'
p5
aF370.81797790527344
aa(lp6
S'timestamp'
p7
aF1.8825199604034424
aatp8
Rp9
.ccollections
OrderedDict
p0
((lp1
(lp2
S'state'
p3
aI400
aa(lp4
S'distance'
p5
aF370.81797790527344
aa(lp6
S'timestamp'
p7
aF1.8825879096984863
aatp8
Rp9
.ccollections
OrderedDict
p0
((lp1
(lp2
S'state'
p3
aI400
aa(lp4
S'distance'
p5
aF370.81797790527344
aa(lp6
S'timestamp'
p7
aF1.89060378074646
aatp8
Rp9
.ccollections
OrderedDict
p0
((lp1
(lp2
S'state'
p3
aI400
aa(lp4
S'distance'
p5
aF370.81797790527344
aa(lp6
S'timestamp'
p7
aF1.890913963317871
aatp8
Rp9
.ccollections
OrderedDict
p0
((lp1
(lp2
S'state'
p3
aI400
aa(lp4
S'distance'
p5
aF370.81797790527344
aa(lp6
S'timestamp'
p7
aF1.9005730152130127
aatp8
Rp9
.ccollections
OrderedDict
p0
((lp1
(lp2
S'state'
p3
aI400
aa(lp4
S'distance'
p5
aF370.81797790527344
aa(lp6
S'timestamp'
p7
aF1.9019458293914795
aatp8
Rp9
.ccollections
OrderedDict
p0
((lp1
(lp2
S'state'
p3
aI400
aa(lp4
S'distance'
p5
aF370.81797790527344
aa(lp6
S'timestamp'
p7
aF1.910290002822876
aatp8
Rp9
.ccollections
OrderedDict
p0
((lp1
(lp2
S'state'
p3
aI400
aa(lp4
S'distance'
p5
aF370.81797790527344
aa(lp6
S'timestamp'
p7
aF1.9108779430389404
aatp8
Rp9
.ccollections
OrderedDict
p0
((lp1
(lp2
S'state'
p3
aI400
aa(lp4
S'distance'
p5
aF370.81797790527344
aa(lp6
S'timestamp'
p7
aF1.920536994934082
aatp8
Rp9
.ccollections
OrderedDict
p0
((lp1
(lp2
S'state'
p3
aI400
aa(lp4
S'distance'
p5
aF370.81797790527344
aa(lp6
S'timestamp'
p7
aF1.921118974685669
aatp8
Rp9
.ccollections
OrderedDict
p0
((lp1
(lp2
S'state'
p3
aI400
aa(lp4
S'distance'
p5
aF370.81797790527344
aa(lp6
S'timestamp'
p7
aF1.9304678440093994
aatp8
Rp9
.ccollections
OrderedDict
p0
((lp1
(lp2
S'state'
p3
aI400
aa(lp4
S'distance'
p5
aF370.81797790527344
aa(lp6
S'timestamp'
p7
aF1.9311678409576416
aatp8
Rp9
.ccollections
OrderedDict
p0
((lp1
(lp2
S'state'
p3
aI400
aa(lp4
S'distance'
p5
aF370.81797790527344
aa(lp6
S'timestamp'
p7
aF1.940201997756958
aatp8
Rp9
.ccollections
OrderedDict
p0
((lp1
(lp2
S'state'
p3
aI400
aa(lp4
S'distance'
p5
aF370.81797790527344
aa(lp6
S'timestamp'
p7
aF1.9407169818878174
aatp8
Rp9
.ccollections
OrderedDict
p0
((lp1
(lp2
S'state'
p3
aI400
aa(lp4
S'distance'
p5
aF370.81797790527344
aa(lp6
S'timestamp'
p7
aF1.9503920078277588
aatp8
Rp9
.ccollections
OrderedDict
p0
((lp1
(lp2
S'state'
p3
aI400
aa(lp4
S'distance'
p5
aF370.81797790527344
aa(lp6
S'timestamp'
p7
aF1.9507830142974854
aatp8
Rp9
.ccollections
OrderedDict
p0
((lp1
(lp2
S'state'
p3
aI400
aa(lp4
S'distance'
p5
aF370.81797790527344
aa(lp6
S'timestamp'
p7
aF1.9605839252471924
aatp8
Rp9
.ccollections
OrderedDict
p0
((lp1
(lp2
S'state'
p3
aI400
aa(lp4
S'distance'
p5
aF370.81797790527344
aa(lp6
S'timestamp'
p7
aF1.9613869190216064
aatp8
Rp9
.ccollections
OrderedDict
p0
((lp1
(lp2
S'state'
p3
aI400
aa(lp4
S'distance'
p5
aF370.81797790527344
aa(lp6
S'timestamp'
p7
aF1.9709038734436035
aatp8
Rp9
.ccollections
OrderedDict
p0
((lp1
(lp2
S'state'
p3
aI400
aa(lp4
S'distance'
p5
aF370.81797790527344
aa(lp6
S'timestamp'
p7
aF1.9709789752960205
aatp8
Rp9
.ccollections
OrderedDict
p0
((lp1
(lp2
S'state'
p3
aI400
aa(lp4
S'distance'
p5
aF370.81797790527344
aa(lp6
S'timestamp'
p7
aF1.9807648658752441
aatp8
Rp9
.ccollections
OrderedDict
p0
((lp1
(lp2
S'state'
p3
aI400
aa(lp4
S'distance'
p5
aF370.81797790527344
aa(lp6
S'timestamp'
p7
aF1.9809048175811768
aatp8
Rp9
.ccollections
OrderedDict
p0
((lp1
(lp2
S'state'
p3
aI400
aa(lp4
S'distance'
p5
aF370.81797790527344
aa(lp6
S'timestamp'
p7
aF1.9907419681549072
aatp8
Rp9
.ccollections
OrderedDict
p0
((lp1
(lp2
S'state'
p3
aI400
aa(lp4
S'distance'
p5
aF370.81797790527344
aa(lp6
S'timestamp'
p7
aF1.990818977355957
aatp8
Rp9
.ccollections
OrderedDict
p0
((lp1
(lp2
S'state'
p3
aI400
aa(lp4
S'distance'
p5
aF370.81797790527344
aa(lp6
S'timestamp'
p7
aF2.0006728172302246
aatp8
Rp9
.ccollections
OrderedDict
p0
((lp1
(lp2
S'state'
p3
aI400
aa(lp4
S'distance'
p5
aF370.81797790527344
aa(lp6
S'timestamp'
p7
aF2.000746965408325
aatp8
Rp9
.ccollections
OrderedDict
p0
((lp1
(lp2
S'state'
p3
aI400
aa(lp4
S'distance'
p5
aF370.81797790527344
aa(lp6
S'timestamp'
p7
aF2.010715961456299
aatp8
Rp9
.ccollections
OrderedDict
p0
((lp1
(lp2
S'state'
p3
aI400
aa(lp4
S'distance'
p5
aF370.81797790527344
aa(lp6
S'timestamp'
p7
aF2.0107948780059814
aatp8
Rp9
.ccollections
OrderedDict
p0
((lp1
(lp2
S'state'
p3
aI400
aa(lp4
S'distance'
p5
aF370.81797790527344
aa(lp6
S'timestamp'
p7
aF2.0208029747009277
aatp8
Rp9
.ccollections
OrderedDict
p0
((lp1
(lp2
S'state'
p3
aI400
aa(lp4
S'distance'
p5
aF370.81797790527344
aa(lp6
S'timestamp'
p7
aF2.020900011062622
aatp8
Rp9
.ccollections
OrderedDict
p0
((lp1
(lp2
S'state'
p3
aI400
aa(lp4
S'distance'
p5
aF370.81797790527344
aa(lp6
S'timestamp'
p7
aF2.030824899673462
aatp8
Rp9
.ccollections
OrderedDict
p0
((lp1
(lp2
S'state'
p3
aI400
aa(lp4
S'distance'
p5
aF370.81797790527344
aa(lp6
S'timestamp'
p7
aF2.0309059619903564
aatp8
Rp9
.ccollections
OrderedDict
p0
((lp1
(lp2
S'state'
p3
aI400
aa(lp4
S'distance'
p5
aF370.81797790527344
aa(lp6
S'timestamp'
p7
aF2.0408008098602295
aatp8
Rp9
.ccollections
OrderedDict
p0
((lp1
(lp2
S'state'
p3
aI400
aa(lp4
S'distance'
p5
aF370.81797790527344
aa(lp6
S'timestamp'
p7
aF2.040879964828491
aatp8
Rp9
.ccollections
OrderedDict
p0
((lp1
(lp2
S'state'
p3
aI400
aa(lp4
S'distance'
p5
aF370.81797790527344
aa(lp6
S'timestamp'
p7
aF2.0502779483795166
aatp8
Rp9
.ccollections
OrderedDict
p0
((lp1
(lp2
S'state'
p3
aI400
aa(lp4
S'distance'
p5
aF370.81797790527344
aa(lp6
S'timestamp'
p7
aF2.0511138439178467
aatp8
Rp9
.ccollections
OrderedDict
p0
((lp1
(lp2
S'state'
p3
aI400
aa(lp4
S'distance'
p5
aF370.81797790527344
aa(lp6
S'timestamp'
p7
aF2.0603039264678955
aatp8
Rp9
.ccollections
OrderedDict
p0
((lp1
(lp2
S'state'
p3
aI400
aa(lp4
S'distance'
p5
aF370.81797790527344
aa(lp6
S'timestamp'
p7
aF2.060757875442505
aatp8
Rp9
.ccollections
OrderedDict
p0
((lp1
(lp2
S'state'
p3
aI400
aa(lp4
S'distance'
p5
aF370.81797790527344
aa(lp6
S'timestamp'
p7
aF2.0707409381866455
aatp8
Rp9
.ccollections
OrderedDict
p0
((lp1
(lp2
S'state'
p3
aI400
aa(lp4
S'distance'
p5
aF370.81797790527344
aa(lp6
S'timestamp'
p7
aF2.0708179473876953
aatp8
Rp9
.ccollections
OrderedDict
p0
((lp1
(lp2
S'state'
p3
aI400
aa(lp4
S'distance'
p5
aF370.81797790527344
aa(lp6
S'timestamp'
p7
aF2.080826997756958
aatp8
Rp9
.ccollections
OrderedDict
p0
((lp1
(lp2
S'state'
p3
aI400
aa(lp4
S'distance'
p5
aF370.81797790527344
aa(lp6
S'timestamp'
p7
aF2.080901861190796
aatp8
Rp9
.ccollections
OrderedDict
p0
((lp1
(lp2
S'state'
p3
aI400
aa(lp4
S'distance'
p5
aF370.81797790527344
aa(lp6
S'timestamp'
p7
aF2.0902860164642334
aatp8
Rp9
.ccollections
OrderedDict
p0
((lp1
(lp2
S'state'
p3
aI400
aa(lp4
S'distance'
p5
aF370.81797790527344
aa(lp6
S'timestamp'
p7
aF2.091059923171997
aatp8
Rp9
.ccollections
OrderedDict
p0
((lp1
(lp2
S'state'
p3
aI400
aa(lp4
S'distance'
p5
aF370.81797790527344
aa(lp6
S'timestamp'
p7
aF2.100705862045288
aatp8
Rp9
.ccollections
OrderedDict
p0
((lp1
(lp2
S'state'
p3
aI400
aa(lp4
S'distance'
p5
aF370.81797790527344
aa(lp6
S'timestamp'
p7
aF2.100890874862671
aatp8
Rp9
.ccollections
OrderedDict
p0
((lp1
(lp2
S'state'
p3
aI400
aa(lp4
S'distance'
p5
aF370.81797790527344
aa(lp6
S'timestamp'
p7
aF2.1107819080352783
aatp8
Rp9
.ccollections
OrderedDict
p0
((lp1
(lp2
S'state'
p3
aI400
aa(lp4
S'distance'
p5
aF370.81797790527344
aa(lp6
S'timestamp'
p7
aF2.1108548641204834
aatp8
Rp9
.ccollections
OrderedDict
p0
((lp1
(lp2
S'state'
p3
aI400
aa(lp4
S'distance'
p5
aF370.81797790527344
aa(lp6
S'timestamp'
p7
aF2.1205859184265137
aatp8
Rp9
.ccollections
OrderedDict
p0
((lp1
(lp2
S'state'
p3
aI400
aa(lp4
S'distance'
p5
aF370.81797790527344
aa(lp6
S'timestamp'
p7
aF2.121013879776001
aatp8
Rp9
.ccollections
OrderedDict
p0
((lp1
(lp2
S'state'
p3
aI400
aa(lp4
S'distance'
p5
aF370.81797790527344
aa(lp6
S'timestamp'
p7
aF2.1305058002471924
aatp8
Rp9
.ccollections
OrderedDict
p0
((lp1
(lp2
S'state'
p3
aI400
aa(lp4
S'distance'
p5
aF370.81797790527344
aa(lp6
S'timestamp'
p7
aF2.1309947967529297
aatp8
Rp9
.ccollections
OrderedDict
p0
((lp1
(lp2
S'state'
p3
aI400
aa(lp4
S'distance'
p5
aF370.81797790527344
aa(lp6
S'timestamp'
p7
aF2.1409788131713867
aatp8
Rp9
.ccollections
OrderedDict
p0
((lp1
(lp2
S'state'
p3
aI400
aa(lp4
S'distance'
p5
aF370.81797790527344
aa(lp6
S'timestamp'
p7
aF2.141544818878174
aatp8
Rp9
.ccollections
OrderedDict
p0
((lp1
(lp2
S'state'
p3
aI400
aa(lp4
S'distance'
p5
aF370.81797790527344
aa(lp6
S'timestamp'
p7
aF2.1507458686828613
aatp8
Rp9
.ccollections
OrderedDict
p0
((lp1
(lp2
S'state'
p3
aI400
aa(lp4
S'distance'
p5
aF370.81797790527344
aa(lp6
S'timestamp'
p7
aF2.150906801223755
aatp8
Rp9
.ccollections
OrderedDict
p0
((lp1
(lp2
S'state'
p3
aI400
aa(lp4
S'distance'
p5
aF370.81797790527344
aa(lp6
S'timestamp'
p7
aF2.16058087348938
aatp8
Rp9
.ccollections
OrderedDict
p0
((lp1
(lp2
S'state'
p3
aI400
aa(lp4
S'distance'
p5
aF370.81797790527344
aa(lp6
S'timestamp'
p7
aF2.1609699726104736
aatp8
Rp9
.ccollections
OrderedDict
p0
((lp1
(lp2
S'state'
p3
aI400
aa(lp4
S'distance'
p5
aF370.81797790527344
aa(lp6
S'timestamp'
p7
aF2.1706838607788086
aatp8
Rp9
.ccollections
OrderedDict
p0
((lp1
(lp2
S'state'
p3
aI400
aa(lp4
S'distance'
p5
aF370.81797790527344
aa(lp6
S'timestamp'
p7
aF2.1707639694213867
aatp8
Rp9
.ccollections
OrderedDict
p0
((lp1
(lp2
S'state'
p3
aI400
aa(lp4
S'distance'
p5
aF370.81797790527344
aa(lp6
S'timestamp'
p7
aF2.1808598041534424
aatp8
Rp9
.ccollections
OrderedDict
p0
((lp1
(lp2
S'state'
p3
aI400
aa(lp4
S'distance'
p5
aF370.81797790527344
aa(lp6
S'timestamp'
p7
aF2.1810619831085205
aatp8
Rp9
.ccollections
OrderedDict
p0
((lp1
(lp2
S'state'
p3
aI400
aa(lp4
S'distance'
p5
aF370.81797790527344
aa(lp6
S'timestamp'
p7
aF2.1908249855041504
aatp8
Rp9
.ccollections
OrderedDict
p0
((lp1
(lp2
S'state'
p3
aI400
aa(lp4
S'distance'
p5
aF370.81797790527344
aa(lp6
S'timestamp'
p7
aF2.1908998489379883
aatp8
Rp9
.ccollections
OrderedDict
p0
((lp1
(lp2
S'state'
p3
aI400
aa(lp4
S'distance'
p5
aF370.81797790527344
aa(lp6
S'timestamp'
p7
aF2.200774908065796
aatp8
Rp9
.ccollections
OrderedDict
p0
((lp1
(lp2
S'state'
p3
aI400
aa(lp4
S'distance'
p5
aF370.81797790527344
aa(lp6
S'timestamp'
p7
aF2.2008538246154785
aatp8
Rp9
.ccollections
OrderedDict
p0
((lp1
(lp2
S'state'
p3
aI400
aa(lp4
S'distance'
p5
aF370.81797790527344
aa(lp6
S'timestamp'
p7
aF2.210886001586914
aatp8
Rp9
.ccollections
OrderedDict
p0
((lp1
(lp2
S'state'
p3
aI400
aa(lp4
S'distance'
p5
aF370.81797790527344
aa(lp6
S'timestamp'
p7
aF2.2109639644622803
aatp8
Rp9
.ccollections
OrderedDict
p0
((lp1
(lp2
S'state'
p3
aI400
aa(lp4
S'distance'
p5
aF370.81797790527344
aa(lp6
S'timestamp'
p7
aF2.2213079929351807
aatp8
Rp9
.ccollections
OrderedDict
p0
((lp1
(lp2
S'state'
p3
aI400
aa(lp4
S'distance'
p5
aF370.81797790527344
aa(lp6
S'timestamp'
p7
aF2.221381902694702
aatp8
Rp9
.ccollections
OrderedDict
p0
((lp1
(lp2
S'state'
p3
aI400
aa(lp4
S'distance'
p5
aF370.81797790527344
aa(lp6
S'timestamp'
p7
aF2.2307159900665283
aatp8
Rp9
.ccollections
OrderedDict
p0
((lp1
(lp2
S'state'
p3
aI400
aa(lp4
S'distance'
p5
aF370.81797790527344
aa(lp6
S'timestamp'
p7
aF2.2307918071746826
aatp8
Rp9
.ccollections
OrderedDict
p0
((lp1
(lp2
S'state'
p3
aI400
aa(lp4
S'distance'
p5
aF370.81797790527344
aa(lp6
S'timestamp'
p7
aF2.250826835632324
aatp8
Rp9
.ccollections
OrderedDict
p0
((lp1
(lp2
S'state'
p3
aI400
aa(lp4
S'distance'
p5
aF370.81797790527344
aa(lp6
S'timestamp'
p7
aF2.2518579959869385
aatp8
Rp9
.ccollections
OrderedDict
p0
((lp1
(lp2
S'state'
p3
aI400
aa(lp4
S'distance'
p5
aF370.81797790527344
aa(lp6
S'timestamp'
p7
aF2.2519848346710205
aatp8
Rp9
.ccollections
OrderedDict
p0
((lp1
(lp2
S'state'
p3
aI400
aa(lp4
S'distance'
p5
aF370.81797790527344
aa(lp6
S'timestamp'
p7
aF2.253215789794922
aatp8
Rp9
.ccollections
OrderedDict
p0
((lp1
(lp2
S'state'
p3
aI400
aa(lp4
S'distance'
p5
aF370.81797790527344
aa(lp6
S'timestamp'
p7
aF2.2605879306793213
aatp8
Rp9
.ccollections
OrderedDict
p0
((lp1
(lp2
S'state'
p3
aI400
aa(lp4
S'distance'
p5
aF370.81797790527344
aa(lp6
S'timestamp'
p7
aF2.261667013168335
aatp8
Rp9
.ccollections
OrderedDict
p0
((lp1
(lp2
S'state'
p3
aI400
aa(lp4
S'distance'
p5
aF370.81797790527344
aa(lp6
S'timestamp'
p7
aF2.2707200050354004
aatp8
Rp9
.ccollections
OrderedDict
p0
((lp1
(lp2
S'state'
p3
aI400
aa(lp4
S'distance'
p5
aF370.81797790527344
aa(lp6
S'timestamp'
p7
aF2.2707979679107666
aatp8
Rp9
.ccollections
OrderedDict
p0
((lp1
(lp2
S'state'
p3
aI400
aa(lp4
S'distance'
p5
aF370.81797790527344
aa(lp6
S'timestamp'
p7
aF2.280878782272339
aatp8
Rp9
.ccollections
OrderedDict
p0
((lp1
(lp2
S'state'
p3
aI400
aa(lp4
S'distance'
p5
aF370.81797790527344
aa(lp6
S'timestamp'
p7
aF2.2809507846832275
aatp8
Rp9
.ccollections
OrderedDict
p0
((lp1
(lp2
S'state'
p3
aI400
aa(lp4
S'distance'
p5
aF370.81797790527344
aa(lp6
S'timestamp'
p7
aF2.290818929672241
aatp8
Rp9
.ccollections
OrderedDict
p0
((lp1
(lp2
S'state'
p3
aI400
aa(lp4
S'distance'
p5
aF370.81797790527344
aa(lp6
S'timestamp'
p7
aF2.2909228801727295
aatp8
Rp9
.ccollections
OrderedDict
p0
((lp1
(lp2
S'state'
p3
aI400
aa(lp4
S'distance'
p5
aF370.81797790527344
aa(lp6
S'timestamp'
p7
aF2.3008668422698975
aatp8
Rp9
.ccollections
OrderedDict
p0
((lp1
(lp2
S'state'
p3
aI400
aa(lp4
S'distance'
p5
aF370.81797790527344
aa(lp6
S'timestamp'
p7
aF2.3015289306640625
aatp8
Rp9
.ccollections
OrderedDict
p0
((lp1
(lp2
S'state'
p3
aI400
aa(lp4
S'distance'
p5
aF370.81797790527344
aa(lp6
S'timestamp'
p7
aF2.3106839656829834
aatp8
Rp9
.ccollections
OrderedDict
p0
((lp1
(lp2
S'state'
p3
aI400
aa(lp4
S'distance'
p5
aF370.81797790527344
aa(lp6
S'timestamp'
p7
aF2.311046838760376
aatp8
Rp9
.ccollections
OrderedDict
p0
((lp1
(lp2
S'state'
p3
aI400
aa(lp4
S'distance'
p5
aF370.81797790527344
aa(lp6
S'timestamp'
p7
aF2.3204798698425293
aatp8
Rp9
.ccollections
OrderedDict
p0
((lp1
(lp2
S'state'
p3
aI400
aa(lp4
S'distance'
p5
aF370.81797790527344
aa(lp6
S'timestamp'
p7
aF2.3210599422454834
aatp8
Rp9
.ccollections
OrderedDict
p0
((lp1
(lp2
S'state'
p3
aI400
aa(lp4
S'distance'
p5
aF370.81797790527344
aa(lp6
S'timestamp'
p7
aF2.3303918838500977
aatp8
Rp9
.ccollections
OrderedDict
p0
((lp1
(lp2
S'state'
p3
aI400
aa(lp4
S'distance'
p5
aF370.81797790527344
aa(lp6
S'timestamp'
p7
aF2.33103084564209
aatp8
Rp9
.ccollections
OrderedDict
p0
((lp1
(lp2
S'state'
p3
aI400
aa(lp4
S'distance'
p5
aF370.81797790527344
aa(lp6
S'timestamp'
p7
aF2.3412017822265625
aatp8
Rp9
.ccollections
OrderedDict
p0
((lp1
(lp2
S'state'
p3
aI400
aa(lp4
S'distance'
p5
aF370.81797790527344
aa(lp6
S'timestamp'
p7
aF2.341277837753296
aatp8
Rp9
.ccollections
OrderedDict
p0
((lp1
(lp2
S'state'
p3
aI400
aa(lp4
S'distance'
p5
aF370.81797790527344
aa(lp6
S'timestamp'
p7
aF2.3505969047546387
aatp8
Rp9
.ccollections
OrderedDict
p0
((lp1
(lp2
S'state'
p3
aI400
aa(lp4
S'distance'
p5
aF370.81797790527344
aa(lp6
S'timestamp'
p7
aF2.3507819175720215
aatp8
Rp9
.ccollections
OrderedDict
p0
((lp1
(lp2
S'state'
p3
aI400
aa(lp4
S'distance'
p5
aF370.81797790527344
aa(lp6
S'timestamp'
p7
aF2.360713005065918
aatp8
Rp9
.ccollections
OrderedDict
p0
((lp1
(lp2
S'state'
p3
aI400
aa(lp4
S'distance'
p5
aF370.81797790527344
aa(lp6
S'timestamp'
p7
aF2.3609628677368164
aatp8
Rp9
.ccollections
OrderedDict
p0
((lp1
(lp2
S'state'
p3
aI400
aa(lp4
S'distance'
p5
aF370.81797790527344
aa(lp6
S'timestamp'
p7
aF2.3709018230438232
aatp8
Rp9
.ccollections
OrderedDict
p0
((lp1
(lp2
S'state'
p3
aI400
aa(lp4
S'distance'
p5
aF370.81797790527344
aa(lp6
S'timestamp'
p7
aF2.3709747791290283
aatp8
Rp9
.ccollections
OrderedDict
p0
((lp1
(lp2
S'state'
p3
aI400
aa(lp4
S'distance'
p5
aF370.81797790527344
aa(lp6
S'timestamp'
p7
aF2.380530834197998
aatp8
Rp9
.ccollections
OrderedDict
p0
((lp1
(lp2
S'state'
p3
aI400
aa(lp4
S'distance'
p5
aF370.81797790527344
aa(lp6
S'timestamp'
p7
aF2.3808798789978027
aatp8
Rp9
.ccollections
OrderedDict
p0
((lp1
(lp2
S'state'
p3
aI400
aa(lp4
S'distance'
p5
aF370.81797790527344
aa(lp6
S'timestamp'
p7
aF2.390388011932373
aatp8
Rp9
.ccollections
OrderedDict
p0
((lp1
(lp2
S'state'
p3
aI400
aa(lp4
S'distance'
p5
aF370.81797790527344
aa(lp6
S'timestamp'
p7
aF2.3907668590545654
aatp8
Rp9
.ccollections
OrderedDict
p0
((lp1
(lp2
S'state'
p3
aI400
aa(lp4
S'distance'
p5
aF370.81797790527344
aa(lp6
S'timestamp'
p7
aF2.4004528522491455
aatp8
Rp9
.ccollections
OrderedDict
p0
((lp1
(lp2
S'state'
p3
aI400
aa(lp4
S'distance'
p5
aF370.81797790527344
aa(lp6
S'timestamp'
p7
aF2.4009017944335938
aatp8
Rp9
.ccollections
OrderedDict
p0
((lp1
(lp2
S'state'
p3
aI400
aa(lp4
S'distance'
p5
aF370.81797790527344
aa(lp6
S'timestamp'
p7
aF2.411404848098755
aatp8
Rp9
.ccollections
OrderedDict
p0
((lp1
(lp2
S'state'
p3
aI400
aa(lp4
S'distance'
p5
aF370.81797790527344
aa(lp6
S'timestamp'
p7
aF2.4115798473358154
aatp8
Rp9
.ccollections
OrderedDict
p0
((lp1
(lp2
S'state'
p3
aI400
aa(lp4
S'distance'
p5
aF370.81797790527344
aa(lp6
S'timestamp'
p7
aF2.4209468364715576
aatp8
Rp9
.ccollections
OrderedDict
p0
((lp1
(lp2
S'state'
p3
aI400
aa(lp4
S'distance'
p5
aF370.81797790527344
aa(lp6
S'timestamp'
p7
aF2.423172950744629
aatp8
Rp9
.ccollections
OrderedDict
p0
((lp1
(lp2
S'state'
p3
aI400
aa(lp4
S'distance'
p5
aF370.81797790527344
aa(lp6
S'timestamp'
p7
aF2.430921792984009
aatp8
Rp9
.ccollections
OrderedDict
p0
((lp1
(lp2
S'state'
p3
aI400
aa(lp4
S'distance'
p5
aF370.81797790527344
aa(lp6
S'timestamp'
p7
aF2.4315078258514404
aatp8
Rp9
.ccollections
OrderedDict
p0
((lp1
(lp2
S'state'
p3
aI400
aa(lp4
S'distance'
p5
aF370.81797790527344
aa(lp6
S'timestamp'
p7
aF2.4404618740081787
aatp8
Rp9
.ccollections
OrderedDict
p0
((lp1
(lp2
S'state'
p3
aI400
aa(lp4
S'distance'
p5
aF370.81797790527344
aa(lp6
S'timestamp'
p7
aF2.4409048557281494
aatp8
Rp9
.ccollections
OrderedDict
p0
((lp1
(lp2
S'state'
p3
aI400
aa(lp4
S'distance'
p5
aF370.81797790527344
aa(lp6
S'timestamp'
p7
aF2.4501969814300537
aatp8
Rp9
.ccollections
OrderedDict
p0
((lp1
(lp2
S'state'
p3
aI400
aa(lp4
S'distance'
p5
aF370.81797790527344
aa(lp6
S'timestamp'
p7
aF2.450924873352051
aatp8
Rp9
.ccollections
OrderedDict
p0
((lp1
(lp2
S'state'
p3
aI400
aa(lp4
S'distance'
p5
aF370.81797790527344
aa(lp6
S'timestamp'
p7
aF2.4609169960021973
aatp8
Rp9
.ccollections
OrderedDict
p0
((lp1
(lp2
S'state'
p3
aI0
aa(lp4
S'distance'
p5
aF370.81797790527344
aa(lp6
S'timestamp'
p7
aF2.46132493019104
aatp8
Rp9
.ccollections
OrderedDict
p0
((lp1
(lp2
S'state'
p3
aI0
aa(lp4
S'distance'
p5
aF267.82654571533203
aa(lp6
S'timestamp'
p7
aF3.021070957183838
aatp8
Rp9
.ccollections
OrderedDict
p0
((lp1
(lp2
S'state'
p3
aI0
aa(lp4
S'distance'
p5
aF267.82654571533203
aa(lp6
S'timestamp'
p7
aF3.030897855758667
aatp8
Rp9
.ccollections
OrderedDict
p0
((lp1
(lp2
S'state'
p3
aI0
aa(lp4
S'distance'
p5
aF267.82654571533203
aa(lp6
S'timestamp'
p7
aF3.0310049057006836
aatp8
Rp9
.ccollections
OrderedDict
p0
((lp1
(lp2
S'state'
p3
aI0
aa(lp4
S'distance'
p5
aF267.82654571533203
aa(lp6
S'timestamp'
p7
aF3.0414178371429443
aatp8
Rp9
.ccollections
OrderedDict
p0
((lp1
(lp2
S'state'
p3
aI0
aa(lp4
S'distance'
p5
aF267.82654571533203
aa(lp6
S'timestamp'
p7
aF3.0416629314422607
aatp8
Rp9
.ccollections
OrderedDict
p0
((lp1
(lp2
S'state'
p3
aI0
aa(lp4
S'distance'
p5
aF267.82654571533203
aa(lp6
S'timestamp'
p7
aF3.0602657794952393
aatp8
Rp9
.ccollections
OrderedDict
p0
((lp1
(lp2
S'state'
p3
aI0
aa(lp4
S'distance'
p5
aF267.82654571533203
aa(lp6
S'timestamp'
p7
aF3.0603818893432617
aatp8
Rp9
.ccollections
OrderedDict
p0
((lp1
(lp2
S'state'
p3
aI0
aa(lp4
S'distance'
p5
aF267.82654571533203
aa(lp6
S'timestamp'
p7
aF3.0613768100738525
aatp8
Rp9
.ccollections
OrderedDict
p0
((lp1
(lp2
S'state'
p3
aI0
aa(lp4
S'distance'
p5
aF267.82654571533203
aa(lp6
S'timestamp'
p7
aF3.0625669956207275
aatp8
Rp9
.ccollections
OrderedDict
p0
((lp1
(lp2
S'state'
p3
aI0
aa(lp4
S'distance'
p5
aF267.82654571533203
aa(lp6
S'timestamp'
p7
aF3.0708608627319336
aatp8
Rp9
.ccollections
OrderedDict
p0
((lp1
(lp2
S'state'
p3
aI0
aa(lp4
S'distance'
p5
aF267.82654571533203
aa(lp6
S'timestamp'
p7
aF3.071096897125244
aatp8
Rp9
.ccollections
OrderedDict
p0
((lp1
(lp2
S'state'
p3
aI0
aa(lp4
S'distance'
p5
aF267.82654571533203
aa(lp6
S'timestamp'
p7
aF3.081063985824585
aatp8
Rp9
.ccollections
OrderedDict
p0
((lp1
(lp2
S'state'
p3
aI0
aa(lp4
S'distance'
p5
aF267.82654571533203
aa(lp6
S'timestamp'
p7
aF3.0811409950256348
aatp8
Rp9
.ccollections
OrderedDict
p0
((lp1
(lp2
S'state'
p3
aI0
aa(lp4
S'distance'
p5
aF267.82654571533203
aa(lp6
S'timestamp'
p7
aF3.0911548137664795
aatp8
Rp9
.ccollections
OrderedDict
p0
((lp1
(lp2
S'state'
p3
aI0
aa(lp4
S'distance'
p5
aF267.82654571533203
aa(lp6
S'timestamp'
p7
aF3.0912909507751465
aatp8
Rp9
.ccollections
OrderedDict
p0
((lp1
(lp2
S'state'
p3
aI0
aa(lp4
S'distance'
p5
aF267.82654571533203
aa(lp6
S'timestamp'
p7
aF3.110301971435547
aatp8
Rp9
.ccollections
OrderedDict
p0
((lp1
(lp2
S'state'
p3
aI0
aa(lp4
S'distance'
p5
aF267.82654571533203
aa(lp6
S'timestamp'
p7
aF3.1104238033294678
aatp8
Rp9
.ccollections
OrderedDict
p0
((lp1
(lp2
S'state'
p3
aI0
aa(lp4
S'distance'
p5
aF267.82654571533203
aa(lp6
S'timestamp'
p7
aF3.1111807823181152
aatp8
Rp9
.ccollections
OrderedDict
p0
((lp1
(lp2
S'state'
p3
aI0
aa(lp4
S'distance'
p5
aF267.82654571533203
aa(lp6
S'timestamp'
p7
aF3.111315965652466
aatp8
Rp9
.ccollections
OrderedDict
p0
((lp1
(lp2
S'state'
p3
aI0
aa(lp4
S'distance'
p5
aF267.82654571533203
aa(lp6
S'timestamp'
p7
aF3.120431900024414
aatp8
Rp9
.ccollections
OrderedDict
p0
((lp1
(lp2
S'state'
p3
aI0
aa(lp4
S'distance'
p5
aF267.82654571533203
aa(lp6
S'timestamp'
p7
aF3.1214418411254883
aatp8
Rp9
.ccollections
OrderedDict
p0
((lp1
(lp2
S'state'
p3
aI0
aa(lp4
S'distance'
p5
aF267.82654571533203
aa(lp6
S'timestamp'
p7
aF3.140270948410034
aatp8
Rp9
.ccollections
OrderedDict
p0
((lp1
(lp2
S'state'
p3
aI0
aa(lp4
S'distance'
p5
aF267.82654571533203
aa(lp6
S'timestamp'
p7
aF3.140803813934326
aatp8
Rp9
.ccollections
OrderedDict
p0
((lp1
(lp2
S'state'
p3
aI0
aa(lp4
S'distance'
p5
aF267.82654571533203
aa(lp6
S'timestamp'
p7
aF3.1423068046569824
aatp8
Rp9
.ccollections
OrderedDict
p0
((lp1
(lp2
S'state'
p3
aI0
aa(lp4
S'distance'
p5
aF267.82654571533203
aa(lp6
S'timestamp'
p7
aF3.1430728435516357
aatp8
Rp9
.ccollections
OrderedDict
p0
((lp1
(lp2
S'state'
p3
aI0
aa(lp4
S'distance'
p5
aF267.82654571533203
aa(lp6
S'timestamp'
p7
aF3.150261878967285
aatp8
Rp9
.ccollections
OrderedDict
p0
((lp1
(lp2
S'state'
p3
aI0
aa(lp4
S'distance'
p5
aF267.82654571533203
aa(lp6
S'timestamp'
p7
aF3.1508657932281494
aatp8
Rp9
.ccollections
OrderedDict
p0
((lp1
(lp2
S'state'
p3
aI0
aa(lp4
S'distance'
p5
aF267.82654571533203
aa(lp6
S'timestamp'
p7
aF3.160773992538452
aatp8
Rp9
.ccollections
OrderedDict
p0
((lp1
(lp2
S'state'
p3
aI0
aa(lp4
S'distance'
p5
aF267.82654571533203
aa(lp6
S'timestamp'
p7
aF3.16084885597229
aatp8
Rp9
.ccollections
OrderedDict
p0
((lp1
(lp2
S'state'
p3
aI0
aa(lp4
S'distance'
p5
aF267.82654571533203
aa(lp6
S'timestamp'
p7
aF3.1701889038085938
aatp8
Rp9
.ccollections
OrderedDict
p0
((lp1
(lp2
S'state'
p3
aI0
aa(lp4
S'distance'
p5
aF267.82654571533203
aa(lp6
S'timestamp'
p7
aF3.170663833618164
aatp8
Rp9
.ccollections
OrderedDict
p0
((lp1
(lp2
S'state'
p3
aI0
aa(lp4
S'distance'
p5
aF267.82654571533203
aa(lp6
S'timestamp'
p7
aF3.180051803588867
aatp8
Rp9
.ccollections
OrderedDict
p0
((lp1
(lp2
S'state'
p3
aI0
aa(lp4
S'distance'
p5
aF267.82654571533203
aa(lp6
S'timestamp'
p7
aF3.1804039478302
aatp8
Rp9
.ccollections
OrderedDict
p0
((lp1
(lp2
S'state'
p3
aI0
aa(lp4
S'distance'
p5
aF267.82654571533203
aa(lp6
S'timestamp'
p7
aF3.190260887145996
aatp8
Rp9
.ccollections
OrderedDict
p0
((lp1
(lp2
S'state'
p3
aI0
aa(lp4
S'distance'
p5
aF267.82654571533203
aa(lp6
S'timestamp'
p7
aF3.191161870956421
aatp8
Rp9
.ccollections
OrderedDict
p0
((lp1
(lp2
S'state'
p3
aI0
aa(lp4
S'distance'
p5
aF267.82654571533203
aa(lp6
S'timestamp'
p7
aF3.2102909088134766
aatp8
Rp9
.ccollections
OrderedDict
p0
((lp1
(lp2
S'state'
p3
aI0
aa(lp4
S'distance'
p5
aF267.82654571533203
aa(lp6
S'timestamp'
p7
aF3.210631847381592
aatp8
Rp9
.ccollections
OrderedDict
p0
((lp1
(lp2
S'state'
p3
aI0
aa(lp4
S'distance'
p5
aF267.82654571533203
aa(lp6
S'timestamp'
p7
aF3.2135348320007324
aatp8
Rp9
.ccollections
OrderedDict
p0
((lp1
(lp2
S'state'
p3
aI0
aa(lp4
S'distance'
p5
aF267.82654571533203
aa(lp6
S'timestamp'
p7
aF3.2136638164520264
aatp8
Rp9
.ccollections
OrderedDict
p0
((lp1
(lp2
S'state'
p3
aI0
aa(lp4
S'distance'
p5
aF267.82654571533203
aa(lp6
S'timestamp'
p7
aF3.2203409671783447
aatp8
Rp9
.ccollections
OrderedDict
p0
((lp1
(lp2
S'state'
p3
aI0
aa(lp4
S'distance'
p5
aF267.82654571533203
aa(lp6
S'timestamp'
p7
aF3.2207658290863037
aatp8
Rp9
.ccollections
OrderedDict
p0
((lp1
(lp2
S'state'
p3
aI0
aa(lp4
S'distance'
p5
aF267.82654571533203
aa(lp6
S'timestamp'
p7
aF3.230764865875244
aatp8
Rp9
.ccollections
OrderedDict
p0
((lp1
(lp2
S'state'
p3
aI0
aa(lp4
S'distance'
p5
aF267.82654571533203
aa(lp6
S'timestamp'
p7
aF3.2308437824249268
aatp8
Rp9
.ccollections
OrderedDict
p0
((lp1
(lp2
S'state'
p3
aI0
aa(lp4
S'distance'
p5
aF267.82654571533203
aa(lp6
S'timestamp'
p7
aF3.2401068210601807
aatp8
Rp9
.ccollections
OrderedDict
p0
((lp1
(lp2
S'state'
p3
aI0
aa(lp4
S'distance'
p5
aF267.82654571533203
aa(lp6
S'timestamp'
p7
aF3.2408318519592285
aatp8
Rp9
.ccollections
OrderedDict
p0
((lp1
(lp2
S'state'
p3
aI0
aa(lp4
S'distance'
p5
aF267.82654571533203
aa(lp6
S'timestamp'
p7
aF3.2501919269561768
aatp8
Rp9
.ccollections
OrderedDict
p0
((lp1
(lp2
S'state'
p3
aI0
aa(lp4
S'distance'
p5
aF267.82654571533203
aa(lp6
S'timestamp'
p7
aF3.250943899154663
aatp8
Rp9
.ccollections
OrderedDict
p0
((lp1
(lp2
S'state'
p3
aI0
aa(lp4
S'distance'
p5
aF267.82654571533203
aa(lp6
S'timestamp'
p7
aF3.2702689170837402
aatp8
Rp9
.ccollections
OrderedDict
p0
((lp1
(lp2
S'state'
p3
aI0
aa(lp4
S'distance'
p5
aF267.82654571533203
aa(lp6
S'timestamp'
p7
aF3.2712810039520264
aatp8
Rp9
.ccollections
OrderedDict
p0
((lp1
(lp2
S'state'
p3
aI0
aa(lp4
S'distance'
p5
aF267.82654571533203
aa(lp6
S'timestamp'
p7
aF3.271401882171631
aatp8
Rp9
.ccollections
OrderedDict
p0
((lp1
(lp2
S'state'
p3
aI0
aa(lp4
S'distance'
p5
aF267.82654571533203
aa(lp6
S'timestamp'
p7
aF3.271951913833618
aatp8
Rp9
.ccollections
OrderedDict
p0
((lp1
(lp2
S'state'
p3
aI0
aa(lp4
S'distance'
p5
aF267.82654571533203
aa(lp6
S'timestamp'
p7
aF3.2803428173065186
aatp8
Rp9
.ccollections
OrderedDict
p0
((lp1
(lp2
S'state'
p3
aI0
aa(lp4
S'distance'
p5
aF267.82654571533203
aa(lp6
S'timestamp'
p7
aF3.2805159091949463
aatp8
Rp9
.ccollections
OrderedDict
p0
((lp1
(lp2
S'state'
p3
aI0
aa(lp4
S'distance'
p5
aF267.82654571533203
aa(lp6
S'timestamp'
p7
aF3.290172815322876
aatp8
Rp9
.ccollections
OrderedDict
p0
((lp1
(lp2
S'state'
p3
aI0
aa(lp4
S'distance'
p5
aF267.82654571533203
aa(lp6
S'timestamp'
p7
aF3.300283908843994
aatp8
Rp9
.ccollections
OrderedDict
p0
((lp1
(lp2
S'state'
p3
aI0
aa(lp4
S'distance'
p5
aF267.82654571533203
aa(lp6
S'timestamp'
p7
aF3.3102738857269287
aatp8
Rp9
.ccollections
OrderedDict
p0
((lp1
(lp2
S'state'
p3
aI0
aa(lp4
S'distance'
p5
aF267.82654571533203
aa(lp6
S'timestamp'
p7
aF3.3107378482818604
aatp8
Rp9
.ccollections
OrderedDict
p0
((lp1
(lp2
S'state'
p3
aI0
aa(lp4
S'distance'
p5
aF267.82654571533203
aa(lp6
S'timestamp'
p7
aF3.3113348484039307
aatp8
Rp9
.ccollections
OrderedDict
p0
((lp1
(lp2
S'state'
p3
aI0
aa(lp4
S'distance'
p5
aF267.82654571533203
aa(lp6
S'timestamp'
p7
aF3.3118817806243896
aatp8
Rp9
.ccollections
OrderedDict
p0
((lp1
(lp2
S'state'
p3
aI0
aa(lp4
S'distance'
p5
aF267.82654571533203
aa(lp6
S'timestamp'
p7
aF3.3209848403930664
aatp8
Rp9
.ccollections
OrderedDict
p0
((lp1
(lp2
S'state'
p3
aI0
aa(lp4
S'distance'
p5
aF267.82654571533203
aa(lp6
S'timestamp'
p7
aF3.321065902709961
aatp8
Rp9
.ccollections
OrderedDict
p0
((lp1
(lp2
S'state'
p3
aI0
aa(lp4
S'distance'
p5
aF267.82654571533203
aa(lp6
S'timestamp'
p7
aF3.330213785171509
aatp8
Rp9
.ccollections
OrderedDict
p0
((lp1
(lp2
S'state'
p3
aI0
aa(lp4
S'distance'
p5
aF267.82654571533203
aa(lp6
S'timestamp'
p7
aF3.3308467864990234
aatp8
Rp9
.ccollections
OrderedDict
p0
((lp1
(lp2
S'state'
p3
aI0
aa(lp4
S'distance'
p5
aF267.82654571533203
aa(lp6
S'timestamp'
p7
aF3.340298891067505
aatp8
Rp9
.ccollections
OrderedDict
p0
((lp1
(lp2
S'state'
p3
aI0
aa(lp4
S'distance'
p5
aF267.82654571533203
aa(lp6
S'timestamp'
p7
aF3.3409698009490967
aatp8
Rp9
.ccollections
OrderedDict
p0
((lp1
(lp2
S'state'
p3
aI0
aa(lp4
S'distance'
p5
aF267.82654571533203
aa(lp6
S'timestamp'
p7
aF3.360257863998413
aatp8
Rp9
.ccollections
OrderedDict
p0
((lp1
(lp2
S'state'
p3
aI0
aa(lp4
S'distance'
p5
aF267.82654571533203
aa(lp6
S'timestamp'
p7
aF3.361135959625244
aatp8
Rp9
.ccollections
OrderedDict
p0
((lp1
(lp2
S'state'
p3
aI0
aa(lp4
S'distance'
p5
aF267.82654571533203
aa(lp6
S'timestamp'
p7
aF3.362363815307617
aatp8
Rp9
.ccollections
OrderedDict
p0
((lp1
(lp2
S'state'
p3
aI0
aa(lp4
S'distance'
p5
aF267.82654571533203
aa(lp6
S'timestamp'
p7
aF3.3624379634857178
aatp8
Rp9
.ccollections
OrderedDict
p0
((lp1
(lp2
S'state'
p3
aI0
aa(lp4
S'distance'
p5
aF267.82654571533203
aa(lp6
S'timestamp'
p7
aF3.3706448078155518
aatp8
Rp9
.ccollections
OrderedDict
p0
((lp1
(lp2
S'state'
p3
aI0
aa(lp4
S'distance'
p5
aF267.82654571533203
aa(lp6
S'timestamp'
p7
aF3.3710479736328125
aatp8
Rp9
.ccollections
OrderedDict
p0
((lp1
(lp2
S'state'
p3
aI0
aa(lp4
S'distance'
p5
aF267.82654571533203
aa(lp6
S'timestamp'
p7
aF3.381359815597534
aatp8
Rp9
.ccollections
OrderedDict
p0
((lp1
(lp2
S'state'
p3
aI0
aa(lp4
S'distance'
p5
aF267.82654571533203
aa(lp6
S'timestamp'
p7
aF3.3817319869995117
aatp8
Rp9
.ccollections
OrderedDict
p0
((lp1
(lp2
S'state'
p3
aI0
aa(lp4
S'distance'
p5
aF267.82654571533203
aa(lp6
S'timestamp'
p7
aF3.3901679515838623
aatp8
Rp9
.ccollections
OrderedDict
p0
((lp1
(lp2
S'state'
p3
aI0
aa(lp4
S'distance'
p5
aF267.82654571533203
aa(lp6
S'timestamp'
p7
aF3.3908979892730713
aatp8
Rp9
.ccollections
OrderedDict
p0
((lp1
(lp2
S'state'
p3
aI0
aa(lp4
S'distance'
p5
aF267.82654571533203
aa(lp6
S'timestamp'
p7
aF3.400258779525757
aatp8
Rp9
.ccollections
OrderedDict
p0
((lp1
(lp2
S'state'
p3
aI0
aa(lp4
S'distance'
p5
aF267.82654571533203
aa(lp6
S'timestamp'
p7
aF3.4005818367004395
aatp8
Rp9
.ccollections
OrderedDict
p0
((lp1
(lp2
S'state'
p3
aI0
aa(lp4
S'distance'
p5
aF267.82654571533203
aa(lp6
S'timestamp'
p7
aF3.4105989933013916
aatp8
Rp9
.ccollections
OrderedDict
p0
((lp1
(lp2
S'state'
p3
aI0
aa(lp4
S'distance'
p5
aF267.82654571533203
aa(lp6
S'timestamp'
p7
aF3.410745859146118
aatp8
Rp9
.ccollections
OrderedDict
p0
((lp1
(lp2
S'state'
p3
aI0
aa(lp4
S'distance'
p5
aF267.82654571533203
aa(lp6
S'timestamp'
p7
aF3.4200429916381836
aatp8
Rp9
.ccollections
OrderedDict
p0
((lp1
(lp2
S'state'
p3
aI0
aa(lp4
S'distance'
p5
aF267.82654571533203
aa(lp6
S'timestamp'
p7
aF3.4206669330596924
aatp8
Rp9
.ccollections
OrderedDict
p0
((lp1
(lp2
S'state'
p3
aI0
aa(lp4
S'distance'
p5
aF267.82654571533203
aa(lp6
S'timestamp'
p7
aF3.4304518699645996
aatp8
Rp9
.ccollections
OrderedDict
p0
((lp1
(lp2
S'state'
p3
aI0
aa(lp4
S'distance'
p5
aF267.82654571533203
aa(lp6
S'timestamp'
p7
aF3.430607795715332
aatp8
Rp9
.ccollections
OrderedDict
p0
((lp1
(lp2
S'state'
p3
aI0
aa(lp4
S'distance'
p5
aF267.82654571533203
aa(lp6
S'timestamp'
p7
aF3.4403328895568848
aatp8
Rp9
.ccollections
OrderedDict
p0
((lp1
(lp2
S'state'
p3
aI0
aa(lp4
S'distance'
p5
aF267.82654571533203
aa(lp6
S'timestamp'
p7
aF3.4409987926483154
aatp8
Rp9
.ccollections
OrderedDict
p0
((lp1
(lp2
S'state'
p3
aI0
aa(lp4
S'distance'
p5
aF267.82654571533203
aa(lp6
S'timestamp'
p7
aF3.4512369632720947
aatp8
Rp9
.ccollections
OrderedDict
p0
((lp1
(lp2
S'state'
p3
aI0
aa(lp4
S'distance'
p5
aF267.82654571533203
aa(lp6
S'timestamp'
p7
aF3.451349973678589
aatp8
Rp9
.ccollections
OrderedDict
p0
((lp1
(lp2
S'state'
p3
aI0
aa(lp4
S'distance'
p5
aF267.82654571533203
aa(lp6
S'timestamp'
p7
aF3.4601268768310547
aatp8
Rp9
.ccollections
OrderedDict
p0
((lp1
(lp2
S'state'
p3
aI0
aa(lp4
S'distance'
p5
aF267.82654571533203
aa(lp6
S'timestamp'
p7
aF3.4612438678741455
aatp8
Rp9
.ccollections
OrderedDict
p0
((lp1
(lp2
S'state'
p3
aI0
aa(lp4
S'distance'
p5
aF267.82654571533203
aa(lp6
S'timestamp'
p7
aF3.470183849334717
aatp8
Rp9
.ccollections
OrderedDict
p0
((lp1
(lp2
S'state'
p3
aI0
aa(lp4
S'distance'
p5
aF267.82654571533203
aa(lp6
S'timestamp'
p7
aF3.4713408946990967
aatp8
Rp9
.ccollections
OrderedDict
p0
((lp1
(lp2
S'state'
p3
aI0
aa(lp4
S'distance'
p5
aF267.82654571533203
aa(lp6
S'timestamp'
p7
aF3.480247974395752
aatp8
Rp9
.ccollections
OrderedDict
p0
((lp1
(lp2
S'state'
p3
aI0
aa(lp4
S'distance'
p5
aF267.82654571533203
aa(lp6
S'timestamp'
p7
aF3.480756998062134
aatp8
Rp9
.ccollections
OrderedDict
p0
((lp1
(lp2
S'state'
p3
aI0
aa(lp4
S'distance'
p5
aF267.82654571533203
aa(lp6
S'timestamp'
p7
aF3.5140068531036377
aatp8
Rp9
.ccollections
OrderedDict
p0
((lp1
(lp2
S'state'
p3
aI0
aa(lp4
S'distance'
p5
aF267.82654571533203
aa(lp6
S'timestamp'
p7
aF3.5142929553985596
aatp8
Rp9
.ccollections
OrderedDict
p0
((lp1
(lp2
S'state'
p3
aI0
aa(lp4
S'distance'
p5
aF267.82654571533203
aa(lp6
S'timestamp'
p7
aF3.514434814453125
aatp8
Rp9
.ccollections
OrderedDict
p0
((lp1
(lp2
S'state'
p3
aI0
aa(lp4
S'distance'
p5
aF267.82654571533203
aa(lp6
S'timestamp'
p7
aF3.5146420001983643
aatp8
Rp9
.ccollections
OrderedDict
p0
((lp1
(lp2
S'state'
p3
aI0
aa(lp4
S'distance'
p5
aF267.82654571533203
aa(lp6
S'timestamp'
p7
aF3.5201809406280518
aatp8
Rp9
.ccollections
OrderedDict
p0
((lp1
(lp2
S'state'
p3
aI0
aa(lp4
S'distance'
p5
aF267.82654571533203
aa(lp6
S'timestamp'
p7
aF3.5209219455718994
aatp8
Rp9
.ccollections
OrderedDict
p0
((lp1
(lp2
S'state'
p3
aI0
aa(lp4
S'distance'
p5
aF267.82654571533203
aa(lp6
S'timestamp'
p7
aF3.5209968090057373
aatp8
Rp9
.ccollections
OrderedDict
p0
((lp1
(lp2
S'state'
p3
aI0
aa(lp4
S'distance'
p5
aF267.82654571533203
aa(lp6
S'timestamp'
p7
aF3.5216429233551025
aatp8
Rp9
.ccollections
OrderedDict
p0
((lp1
(lp2
S'state'
p3
aI0
aa(lp4
S'distance'
p5
aF267.82654571533203
aa(lp6
S'timestamp'
p7
aF3.5302748680114746
aatp8
Rp9
.ccollections
OrderedDict
p0
((lp1
(lp2
S'state'
p3
aI0
aa(lp4
S'distance'
p5
aF267.82654571533203
aa(lp6
S'timestamp'
p7
aF3.530998945236206
aatp8
Rp9
.ccollections
OrderedDict
p0
((lp1
(lp2
S'state'
p3
aI400
aa(lp4
S'distance'
p5
aF267.82654571533203
aa(lp6
S'timestamp'
p7
aF3.541684865951538
aatp8
Rp9
.ccollections
OrderedDict
p0
((lp1
(lp2
S'state'
p3
aI400
aa(lp4
S'distance'
p5
aF267.82654571533203
aa(lp6
S'timestamp'
p7
aF3.541806936264038
aatp8
Rp9
.ccollections
OrderedDict
p0
((lp1
(lp2
S'state'
p3
aI400
aa(lp4
S'distance'
p5
aF267.82654571533203
aa(lp6
S'timestamp'
p7
aF3.560771942138672
aatp8
Rp9
.ccollections
OrderedDict
p0
((lp1
(lp2
S'state'
p3
aI400
aa(lp4
S'distance'
p5
aF267.82654571533203
aa(lp6
S'timestamp'
p7
aF3.5617058277130127
aatp8
Rp9
.ccollections
OrderedDict
p0
((lp1
(lp2
S'state'
p3
aI400
aa(lp4
S'distance'
p5
aF267.82654571533203
aa(lp6
S'timestamp'
p7
aF3.563567876815796
aatp8
Rp9
.ccollections
OrderedDict
p0
((lp1
(lp2
S'state'
p3
aI400
aa(lp4
S'distance'
p5
aF267.82654571533203
aa(lp6
S'timestamp'
p7
aF3.5642027854919434
aatp8
Rp9
.ccollections
OrderedDict
p0
((lp1
(lp2
S'state'
p3
aI400
aa(lp4
S'distance'
p5
aF267.82654571533203
aa(lp6
S'timestamp'
p7
aF3.5817008018493652
aatp8
Rp9
.ccollections
OrderedDict
p0
((lp1
(lp2
S'state'
p3
aI400
aa(lp4
S'distance'
p5
aF267.82654571533203
aa(lp6
S'timestamp'
p7
aF3.582343816757202
aatp8
Rp9
.ccollections
OrderedDict
p0
((lp1
(lp2
S'state'
p3
aI400
aa(lp4
S'distance'
p5
aF267.82654571533203
aa(lp6
S'timestamp'
p7
aF3.5841708183288574
aatp8
Rp9
.ccollections
OrderedDict
p0
((lp1
(lp2
S'state'
p3
aI400
aa(lp4
S'distance'
p5
aF267.82654571533203
aa(lp6
S'timestamp'
p7
aF3.5847389698028564
aatp8
Rp9
.ccollections
OrderedDict
p0
((lp1
(lp2
S'state'
p3
aI400
aa(lp4
S'distance'
p5
aF267.82654571533203
aa(lp6
S'timestamp'
p7
aF3.6002519130706787
aatp8
Rp9
.ccollections
OrderedDict
p0
((lp1
(lp2
S'state'
p3
aI400
aa(lp4
S'distance'
p5
aF267.82654571533203
aa(lp6
S'timestamp'
p7
aF3.6003618240356445
aatp8
Rp9
.ccollections
OrderedDict
p0
((lp1
(lp2
S'state'
p3
aI400
aa(lp4
S'distance'
p5
aF267.82654571533203
aa(lp6
S'timestamp'
p7
aF3.6017439365386963
aatp8
Rp9
.ccollections
OrderedDict
p0
((lp1
(lp2
S'state'
p3
aI400
aa(lp4
S'distance'
p5
aF267.82654571533203
aa(lp6
S'timestamp'
p7
aF3.6019070148468018
aatp8
Rp9
.ccollections
OrderedDict
p0
((lp1
(lp2
S'state'
p3
aI400
aa(lp4
S'distance'
p5
aF267.82654571533203
aa(lp6
S'timestamp'
p7
aF3.6121678352355957
aatp8
Rp9
.ccollections
OrderedDict
p0
((lp1
(lp2
S'state'
p3
aI400
aa(lp4
S'distance'
p5
aF267.82654571533203
aa(lp6
S'timestamp'
p7
aF3.612362861633301
aatp8
Rp9
.ccollections
OrderedDict
p0
((lp1
(lp2
S'state'
p3
aI400
aa(lp4
S'distance'
p5
aF267.82654571533203
aa(lp6
S'timestamp'
p7
aF3.620512008666992
aatp8
Rp9
.ccollections
OrderedDict
p0
((lp1
(lp2
S'state'
p3
aI400
aa(lp4
S'distance'
p5
aF267.82654571533203
aa(lp6
S'timestamp'
p7
aF3.6230177879333496
aatp8
Rp9
.ccollections
OrderedDict
p0
((lp1
(lp2
S'state'
p3
aI400
aa(lp4
S'distance'
p5
aF267.82654571533203
aa(lp6
S'timestamp'
p7
aF3.6304538249969482
aatp8
Rp9
.ccollections
OrderedDict
p0
((lp1
(lp2
S'state'
p3
aI400
aa(lp4
S'distance'
p5
aF267.82654571533203
aa(lp6
S'timestamp'
p7
aF3.6312289237976074
aatp8
Rp9
.ccollections
OrderedDict
p0
((lp1
(lp2
S'state'
p3
aI400
aa(lp4
S'distance'
p5
aF267.82654571533203
aa(lp6
S'timestamp'
p7
aF3.6605749130249023
aatp8
Rp9
.ccollections
OrderedDict
p0
((lp1
(lp2
S'state'
p3
aI400
aa(lp4
S'distance'
p5
aF267.82654571533203
aa(lp6
S'timestamp'
p7
aF3.660874843597412
aatp8
Rp9
.ccollections
OrderedDict
p0
((lp1
(lp2
S'state'
p3
aI400
aa(lp4
S'distance'
p5
aF267.82654571533203
aa(lp6
S'timestamp'
p7
aF3.6615238189697266
aatp8
Rp9
.ccollections
OrderedDict
p0
((lp1
(lp2
S'state'
p3
aI400
aa(lp4
S'distance'
p5
aF267.82654571533203
aa(lp6
S'timestamp'
p7
aF3.661918878555298
aatp8
Rp9
.ccollections
OrderedDict
p0
((lp1
(lp2
S'state'
p3
aI400
aa(lp4
S'distance'
p5
aF267.82654571533203
aa(lp6
S'timestamp'
p7
aF3.671060800552368
aatp8
Rp9
.ccollections
OrderedDict
p0
((lp1
(lp2
S'state'
p3
aI400
aa(lp4
S'distance'
p5
aF267.82654571533203
aa(lp6
S'timestamp'
p7
aF3.6711349487304688
aatp8
Rp9
.ccollections
OrderedDict
p0
((lp1
(lp2
S'state'
p3
aI400
aa(lp4
S'distance'
p5
aF267.82654571533203
aa(lp6
S'timestamp'
p7
aF3.6723339557647705
aatp8
Rp9
.ccollections
OrderedDict
p0
((lp1
(lp2
S'state'
p3
aI400
aa(lp4
S'distance'
p5
aF267.82654571533203
aa(lp6
S'timestamp'
p7
aF3.6729609966278076
aatp8
Rp9
.ccollections
OrderedDict
p0
((lp1
(lp2
S'state'
p3
aI400
aa(lp4
S'distance'
p5
aF267.82654571533203
aa(lp6
S'timestamp'
p7
aF3.680708885192871
aatp8
Rp9
.ccollections
OrderedDict
p0
((lp1
(lp2
S'state'
p3
aI400
aa(lp4
S'distance'
p5
aF267.82654571533203
aa(lp6
S'timestamp'
p7
aF3.681097984313965
aatp8
Rp9
.ccollections
OrderedDict
p0
((lp1
(lp2
S'state'
p3
aI400
aa(lp4
S'distance'
p5
aF267.82654571533203
aa(lp6
S'timestamp'
p7
aF3.690086841583252
aatp8
Rp9
.ccollections
OrderedDict
p0
((lp1
(lp2
S'state'
p3
aI400
aa(lp4
S'distance'
p5
aF267.82654571533203
aa(lp6
S'timestamp'
p7
aF3.690964937210083
aatp8
Rp9
.ccollections
OrderedDict
p0
((lp1
(lp2
S'state'
p3
aI400
aa(lp4
S'distance'
p5
aF267.82654571533203
aa(lp6
S'timestamp'
p7
aF3.71077299118042
aatp8
Rp9
.ccollections
OrderedDict
p0
((lp1
(lp2
S'state'
p3
aI400
aa(lp4
S'distance'
p5
aF267.82654571533203
aa(lp6
S'timestamp'
p7
aF3.710852861404419
aatp8
Rp9
.ccollections
OrderedDict
p0
((lp1
(lp2
S'state'
p3
aI400
aa(lp4
S'distance'
p5
aF267.82654571533203
aa(lp6
S'timestamp'
p7
aF3.7114667892456055
aatp8
Rp9
.ccollections
OrderedDict
p0
((lp1
(lp2
S'state'
p3
aI400
aa(lp4
S'distance'
p5
aF267.82654571533203
aa(lp6
S'timestamp'
p7
aF3.71258282661438
aatp8
Rp9
.ccollections
OrderedDict
p0
((lp1
(lp2
S'state'
p3
aI400
aa(lp4
S'distance'
p5
aF267.82654571533203
aa(lp6
S'timestamp'
p7
aF3.7415568828582764
aatp8
Rp9
.ccollections
OrderedDict
p0
((lp1
(lp2
S'state'
p3
aI400
aa(lp4
S'distance'
p5
aF267.82654571533203
aa(lp6
S'timestamp'
p7
aF3.7428359985351562
aatp8
Rp9
.ccollections
OrderedDict
p0
((lp1
(lp2
S'state'
p3
aI400
aa(lp4
S'distance'
p5
aF267.82654571533203
aa(lp6
S'timestamp'
p7
aF3.743212938308716
aatp8
Rp9
.ccollections
OrderedDict
p0
((lp1
(lp2
S'state'
p3
aI400
aa(lp4
S'distance'
p5
aF267.82654571533203
aa(lp6
S'timestamp'
p7
aF3.7433488368988037
aatp8
Rp9
.ccollections
OrderedDict
p0
((lp1
(lp2
S'state'
p3
aI400
aa(lp4
S'distance'
p5
aF267.82654571533203
aa(lp6
S'timestamp'
p7
aF3.7502899169921875
aatp8
Rp9
.ccollections
OrderedDict
p0
((lp1
(lp2
S'state'
p3
aI400
aa(lp4
S'distance'
p5
aF267.82654571533203
aa(lp6
S'timestamp'
p7
aF3.750945806503296
aatp8
Rp9
.ccollections
OrderedDict
p0
((lp1
(lp2
S'state'
p3
aI400
aa(lp4
S'distance'
p5
aF267.82654571533203
aa(lp6
S'timestamp'
p7
aF3.752412796020508
aatp8
Rp9
.ccollections
OrderedDict
p0
((lp1
(lp2
S'state'
p3
aI400
aa(lp4
S'distance'
p5
aF267.82654571533203
aa(lp6
S'timestamp'
p7
aF3.7526040077209473
aatp8
Rp9
.ccollections
OrderedDict
p0
((lp1
(lp2
S'state'
p3
aI400
aa(lp4
S'distance'
p5
aF267.82654571533203
aa(lp6
S'timestamp'
p7
aF3.760734796524048
aatp8
Rp9
.ccollections
OrderedDict
p0
((lp1
(lp2
S'state'
p3
aI400
aa(lp4
S'distance'
p5
aF267.82654571533203
aa(lp6
S'timestamp'
p7
aF3.7608158588409424
aatp8
Rp9
.ccollections
OrderedDict
p0
((lp1
(lp2
S'state'
p3
aI400
aa(lp4
S'distance'
p5
aF267.82654571533203
aa(lp6
S'timestamp'
p7
aF3.7706298828125
aatp8
Rp9
.ccollections
OrderedDict
p0
((lp1
(lp2
S'state'
p3
aI400
aa(lp4
S'distance'
p5
aF267.82654571533203
aa(lp6
S'timestamp'
p7
aF3.7710628509521484
aatp8
Rp9
.ccollections
OrderedDict
p0
((lp1
(lp2
S'state'
p3
aI400
aa(lp4
S'distance'
p5
aF267.82654571533203
aa(lp6
S'timestamp'
p7
aF3.780228853225708
aatp8
Rp9
.ccollections
OrderedDict
p0
((lp1
(lp2
S'state'
p3
aI400
aa(lp4
S'distance'
p5
aF267.82654571533203
aa(lp6
S'timestamp'
p7
aF3.7812600135803223
aatp8
Rp9
.ccollections
OrderedDict
p0
((lp1
(lp2
S'state'
p3
aI400
aa(lp4
S'distance'
p5
aF267.82654571533203
aa(lp6
S'timestamp'
p7
aF3.7902748584747314
aatp8
Rp9
.ccollections
OrderedDict
p0
((lp1
(lp2
S'state'
p3
aI400
aa(lp4
S'distance'
p5
aF267.82654571533203
aa(lp6
S'timestamp'
p7
aF3.7909348011016846
aatp8
Rp9
.ccollections
OrderedDict
p0
((lp1
(lp2
S'state'
p3
aI400
aa(lp4
S'distance'
p5
aF267.82654571533203
aa(lp6
S'timestamp'
p7
aF3.800740957260132
aatp8
Rp9
.ccollections
OrderedDict
p0
((lp1
(lp2
S'state'
p3
aI400
aa(lp4
S'distance'
p5
aF267.82654571533203
aa(lp6
S'timestamp'
p7
aF3.8008217811584473
aatp8
Rp9
.ccollections
OrderedDict
p0
((lp1
(lp2
S'state'
p3
aI400
aa(lp4
S'distance'
p5
aF267.82654571533203
aa(lp6
S'timestamp'
p7
aF3.8102569580078125
aatp8
Rp9
.ccollections
OrderedDict
p0
((lp1
(lp2
S'state'
p3
aI400
aa(lp4
S'distance'
p5
aF267.82654571533203
aa(lp6
S'timestamp'
p7
aF3.811232805252075
aatp8
Rp9
.ccollections
OrderedDict
p0
((lp1
(lp2
S'state'
p3
aI400
aa(lp4
S'distance'
p5
aF267.82654571533203
aa(lp6
S'timestamp'
p7
aF3.8200018405914307
aatp8
Rp9
.ccollections
OrderedDict
p0
((lp1
(lp2
S'state'
p3
aI400
aa(lp4
S'distance'
p5
aF267.82654571533203
aa(lp6
S'timestamp'
p7
aF3.821027994155884
aatp8
Rp9
.ccollections
OrderedDict
p0
((lp1
(lp2
S'state'
p3
aI400
aa(lp4
S'distance'
p5
aF267.82654571533203
aa(lp6
S'timestamp'
p7
aF3.830664873123169
aatp8
Rp9
.ccollections
OrderedDict
p0
((lp1
(lp2
S'state'
p3
aI400
aa(lp4
S'distance'
p5
aF267.82654571533203
aa(lp6
S'timestamp'
p7
aF3.831058979034424
aatp8
Rp9
.ccollections
OrderedDict
p0
((lp1
(lp2
S'state'
p3
aI400
aa(lp4
S'distance'
p5
aF267.82654571533203
aa(lp6
S'timestamp'
p7
aF3.8407158851623535
aatp8
Rp9
.ccollections
OrderedDict
p0
((lp1
(lp2
S'state'
p3
aI400
aa(lp4
S'distance'
p5
aF267.82654571533203
aa(lp6
S'timestamp'
p7
aF3.8407959938049316
aatp8
Rp9
.ccollections
OrderedDict
p0
((lp1
(lp2
S'state'
p3
aI400
aa(lp4
S'distance'
p5
aF267.82654571533203
aa(lp6
S'timestamp'
p7
aF3.8501739501953125
aatp8
Rp9
.ccollections
OrderedDict
p0
((lp1
(lp2
S'state'
p3
aI400
aa(lp4
S'distance'
p5
aF267.82654571533203
aa(lp6
S'timestamp'
p7
aF3.851073980331421
aatp8
Rp9
.ccollections
OrderedDict
p0
((lp1
(lp2
S'state'
p3
aI400
aa(lp4
S'distance'
p5
aF267.82654571533203
aa(lp6
S'timestamp'
p7
aF3.8600668907165527
aatp8
Rp9
.ccollections
OrderedDict
p0
((lp1
(lp2
S'state'
p3
aI400
aa(lp4
S'distance'
p5
aF267.82654571533203
aa(lp6
S'timestamp'
p7
aF3.8613648414611816
aatp8
Rp9
.ccollections
OrderedDict
p0
((lp1
(lp2
S'state'
p3
aI400
aa(lp4
S'distance'
p5
aF267.82654571533203
aa(lp6
S'timestamp'
p7
aF3.870384931564331
aatp8
Rp9
.ccollections
OrderedDict
p0
((lp1
(lp2
S'state'
p3
aI400
aa(lp4
S'distance'
p5
aF267.82654571533203
aa(lp6
S'timestamp'
p7
aF3.8705339431762695
aatp8
Rp9
.ccollections
OrderedDict
p0
((lp1
(lp2
S'state'
p3
aI400
aa(lp4
S'distance'
p5
aF267.82654571533203
aa(lp6
S'timestamp'
p7
aF3.890486001968384
aatp8
Rp9
.ccollections
OrderedDict
p0
((lp1
(lp2
S'state'
p3
aI400
aa(lp4
S'distance'
p5
aF267.82654571533203
aa(lp6
S'timestamp'
p7
aF3.8915648460388184
aatp8
Rp9
.ccollections
OrderedDict
p0
((lp1
(lp2
S'state'
p3
aI400
aa(lp4
S'distance'
p5
aF267.82654571533203
aa(lp6
S'timestamp'
p7
aF3.891950845718384
aatp8
Rp9
.ccollections
OrderedDict
p0
((lp1
(lp2
S'state'
p3
aI400
aa(lp4
S'distance'
p5
aF267.82654571533203
aa(lp6
S'timestamp'
p7
aF3.8921358585357666
aatp8
Rp9
.ccollections
OrderedDict
p0
((lp1
(lp2
S'state'
p3
aI400
aa(lp4
S'distance'
p5
aF267.82654571533203
aa(lp6
S'timestamp'
p7
aF3.9009859561920166
aatp8
Rp9
.ccollections
OrderedDict
p0
((lp1
(lp2
S'state'
p3
aI400
aa(lp4
S'distance'
p5
aF267.82654571533203
aa(lp6
S'timestamp'
p7
aF3.9014809131622314
aatp8
Rp9
.ccollections
OrderedDict
p0
((lp1
(lp2
S'state'
p3
aI400
aa(lp4
S'distance'
p5
aF267.82654571533203
aa(lp6
S'timestamp'
p7
aF3.910233974456787
aatp8
Rp9
.ccollections
OrderedDict
p0
((lp1
(lp2
S'state'
p3
aI400
aa(lp4
S'distance'
p5
aF267.82654571533203
aa(lp6
S'timestamp'
p7
aF3.9108970165252686
aatp8
Rp9
.ccollections
OrderedDict
p0
((lp1
(lp2
S'state'
p3
aI400
aa(lp4
S'distance'
p5
aF267.82654571533203
aa(lp6
S'timestamp'
p7
aF3.920344829559326
aatp8
Rp9
.ccollections
OrderedDict
p0
((lp1
(lp2
S'state'
p3
aI400
aa(lp4
S'distance'
p5
aF267.82654571533203
aa(lp6
S'timestamp'
p7
aF3.921055793762207
aatp8
Rp9
.ccollections
OrderedDict
p0
((lp1
(lp2
S'state'
p3
aI400
aa(lp4
S'distance'
p5
aF267.82654571533203
aa(lp6
S'timestamp'
p7
aF3.9310247898101807
aatp8
Rp9
.ccollections
OrderedDict
p0
((lp1
(lp2
S'state'
p3
aI400
aa(lp4
S'distance'
p5
aF267.82654571533203
aa(lp6
S'timestamp'
p7
aF3.9311108589172363
aatp8
Rp9
.ccollections
OrderedDict
p0
((lp1
(lp2
S'state'
p3
aI400
aa(lp4
S'distance'
p5
aF267.82654571533203
aa(lp6
S'timestamp'
p7
aF3.940001964569092
aatp8
Rp9
.ccollections
OrderedDict
p0
((lp1
(lp2
S'state'
p3
aI400
aa(lp4
S'distance'
p5
aF267.82654571533203
aa(lp6
S'timestamp'
p7
aF3.940910816192627
aatp8
Rp9
.ccollections
OrderedDict
p0
((lp1
(lp2
S'state'
p3
aI400
aa(lp4
S'distance'
p5
aF267.82654571533203
aa(lp6
S'timestamp'
p7
aF3.950734853744507
aatp8
Rp9
.ccollections
OrderedDict
p0
((lp1
(lp2
S'state'
p3
aI400
aa(lp4
S'distance'
p5
aF267.82654571533203
aa(lp6
S'timestamp'
p7
aF3.9508488178253174
aatp8
Rp9
.ccollections
OrderedDict
p0
((lp1
(lp2
S'state'
p3
aI400
aa(lp4
S'distance'
p5
aF267.82654571533203
aa(lp6
S'timestamp'
p7
aF3.9601268768310547
aatp8
Rp9
.ccollections
OrderedDict
p0
((lp1
(lp2
S'state'
p3
aI400
aa(lp4
S'distance'
p5
aF267.82654571533203
aa(lp6
S'timestamp'
p7
aF3.961122989654541
aatp8
Rp9
.ccollections
OrderedDict
p0
((lp1
(lp2
S'state'
p3
aI400
aa(lp4
S'distance'
p5
aF267.82654571533203
aa(lp6
S'timestamp'
p7
aF3.970850944519043
aatp8
Rp9
.ccollections
OrderedDict
p0
((lp1
(lp2
S'state'
p3
aI400
aa(lp4
S'distance'
p5
aF267.82654571533203
aa(lp6
S'timestamp'
p7
aF3.9709298610687256
aatp8
Rp9
.ccollections
OrderedDict
p0
((lp1
(lp2
S'state'
p3
aI400
aa(lp4
S'distance'
p5
aF267.82654571533203
aa(lp6
S'timestamp'
p7
aF3.980268955230713
aatp8
Rp9
.ccollections
OrderedDict
p0
((lp1
(lp2
S'state'
p3
aI400
aa(lp4
S'distance'
p5
aF267.82654571533203
aa(lp6
S'timestamp'
p7
aF3.981644868850708
aatp8
Rp9
.ccollections
OrderedDict
p0
((lp1
(lp2
S'state'
p3
aI400
aa(lp4
S'distance'
p5
aF267.82654571533203
aa(lp6
S'timestamp'
p7
aF3.990316867828369
aatp8
Rp9
.ccollections
OrderedDict
p0
((lp1
(lp2
S'state'
p3
aI400
aa(lp4
S'distance'
p5
aF267.82654571533203
aa(lp6
S'timestamp'
p7
aF3.992661952972412
aatp8
Rp9
.ccollections
OrderedDict
p0
((lp1
(lp2
S'state'
p3
aI400
aa(lp4
S'distance'
p5
aF267.82654571533203
aa(lp6
S'timestamp'
p7
aF4.000485897064209
aatp8
Rp9
.ccollections
OrderedDict
p0
((lp1
(lp2
S'state'
p3
aI400
aa(lp4
S'distance'
p5
aF267.82654571533203
aa(lp6
S'timestamp'
p7
aF4.001264810562134
aatp8
Rp9
.ccollections
OrderedDict
p0
((lp1
(lp2
S'state'
p3
aI400
aa(lp4
S'distance'
p5
aF267.82654571533203
aa(lp6
S'timestamp'
p7
aF4.010119915008545
aatp8
Rp9
.ccollections
OrderedDict
p0
((lp1
(lp2
S'state'
p3
aI400
aa(lp4
S'distance'
p5
aF267.82654571533203
aa(lp6
S'timestamp'
p7
aF4.010999917984009
aatp8
Rp9
.ccollections
OrderedDict
p0
((lp1
(lp2
S'state'
p3
aI400
aa(lp4
S'distance'
p5
aF267.82654571533203
aa(lp6
S'timestamp'
p7
aF4.020354986190796
aatp8
Rp9
.ccollections
OrderedDict
p0
((lp1
(lp2
S'state'
p3
aI400
aa(lp4
S'distance'
p5
aF267.82654571533203
aa(lp6
S'timestamp'
p7
aF4.021251916885376
aatp8
Rp9
.ccollections
OrderedDict
p0
((lp1
(lp2
S'state'
p3
aI400
aa(lp4
S'distance'
p5
aF267.82654571533203
aa(lp6
S'timestamp'
p7
aF4.031436920166016
aatp8
Rp9
.ccollections
OrderedDict
p0
((lp1
(lp2
S'state'
p3
aI400
aa(lp4
S'distance'
p5
aF267.82654571533203
aa(lp6
S'timestamp'
p7
aF4.031662940979004
aatp8
Rp9
.ccollections
OrderedDict
p0
((lp1
(lp2
S'state'
p3
aI400
aa(lp4
S'distance'
p5
aF267.82654571533203
aa(lp6
S'timestamp'
p7
aF4.040318012237549
aatp8
Rp9
.ccollections
OrderedDict
p0
((lp1
(lp2
S'state'
p3
aI400
aa(lp4
S'distance'
p5
aF267.82654571533203
aa(lp6
S'timestamp'
p7
aF4.040995836257935
aatp8
Rp9
.ccollections
OrderedDict
p0
((lp1
(lp2
S'state'
p3
aI400
aa(lp4
S'distance'
p5
aF267.82654571533203
aa(lp6
S'timestamp'
p7
aF4.050493001937866
aatp8
Rp9
.ccollections
OrderedDict
p0
((lp1
(lp2
S'state'
p3
aI400
aa(lp4
S'distance'
p5
aF267.82654571533203
aa(lp6
S'timestamp'
p7
aF4.050701856613159
aatp8
Rp9
.ccollections
OrderedDict
p0
((lp1
(lp2
S'state'
p3
aI400
aa(lp4
S'distance'
p5
aF267.82654571533203
aa(lp6
S'timestamp'
p7
aF4.060057878494263
aatp8
Rp9
.ccollections
OrderedDict
p0
((lp1
(lp2
S'state'
p3
aI400
aa(lp4
S'distance'
p5
aF267.82654571533203
aa(lp6
S'timestamp'
p7
aF4.06115198135376
aatp8
Rp9
.ccollections
OrderedDict
p0
((lp1
(lp2
S'state'
p3
aI400
aa(lp4
S'distance'
p5
aF267.82654571533203
aa(lp6
S'timestamp'
p7
aF4.070326805114746
aatp8
Rp9
.ccollections
OrderedDict
p0
((lp1
(lp2
S'state'
p3
aI400
aa(lp4
S'distance'
p5
aF267.82654571533203
aa(lp6
S'timestamp'
p7
aF4.070468902587891
aatp8
Rp9
.ccollections
OrderedDict
p0
((lp1
(lp2
S'state'
p3
aI400
aa(lp4
S'distance'
p5
aF267.82654571533203
aa(lp6
S'timestamp'
p7
aF4.0805699825286865
aatp8
Rp9
.ccollections
OrderedDict
p0
((lp1
(lp2
S'state'
p3
aI400
aa(lp4
S'distance'
p5
aF267.82654571533203
aa(lp6
S'timestamp'
p7
aF4.080811977386475
aatp8
Rp9
.ccollections
OrderedDict
p0
((lp1
(lp2
S'state'
p3
aI400
aa(lp4
S'distance'
p5
aF267.82654571533203
aa(lp6
S'timestamp'
p7
aF4.10202693939209
aatp8
Rp9
.ccollections
OrderedDict
p0
((lp1
(lp2
S'state'
p3
aI400
aa(lp4
S'distance'
p5
aF267.82654571533203
aa(lp6
S'timestamp'
p7
aF4.102380990982056
aatp8
Rp9
.ccollections
OrderedDict
p0
((lp1
(lp2
S'state'
p3
aI400
aa(lp4
S'distance'
p5
aF267.82654571533203
aa(lp6
S'timestamp'
p7
aF4.10279393196106
aatp8
Rp9
.ccollections
OrderedDict
p0
((lp1
(lp2
S'state'
p3
aI400
aa(lp4
S'distance'
p5
aF267.82654571533203
aa(lp6
S'timestamp'
p7
aF4.103578805923462
aatp8
Rp9
.ccollections
OrderedDict
p0
((lp1
(lp2
S'state'
p3
aI400
aa(lp4
S'distance'
p5
aF267.82654571533203
aa(lp6
S'timestamp'
p7
aF4.110574007034302
aatp8
Rp9
.ccollections
OrderedDict
p0
((lp1
(lp2
S'state'
p3
aI400
aa(lp4
S'distance'
p5
aF267.82654571533203
aa(lp6
S'timestamp'
p7
aF4.110755920410156
aatp8
Rp9
.ccollections
OrderedDict
p0
((lp1
(lp2
S'state'
p3
aI400
aa(lp4
S'distance'
p5
aF267.82654571533203
aa(lp6
S'timestamp'
p7
aF4.120059013366699
aatp8
Rp9
.ccollections
OrderedDict
p0
((lp1
(lp2
S'state'
p3
aI400
aa(lp4
S'distance'
p5
aF267.82654571533203
aa(lp6
S'timestamp'
p7
aF4.120935916900635
aatp8
Rp9
.ccollections
OrderedDict
p0
((lp1
(lp2
S'state'
p3
aI400
aa(lp4
S'distance'
p5
aF267.82654571533203
aa(lp6
S'timestamp'
p7
aF4.131020784378052
aatp8
Rp9
.ccollections
OrderedDict
p0
((lp1
(lp2
S'state'
p3
aI400
aa(lp4
S'distance'
p5
aF267.82654571533203
aa(lp6
S'timestamp'
p7
aF4.131150960922241
aatp8
Rp9
.ccollections
OrderedDict
p0
((lp1
(lp2
S'state'
p3
aI400
aa(lp4
S'distance'
p5
aF267.82654571533203
aa(lp6
S'timestamp'
p7
aF4.140111923217773
aatp8
Rp9
.ccollections
OrderedDict
p0
((lp1
(lp2
S'state'
p3
aI400
aa(lp4
S'distance'
p5
aF267.82654571533203
aa(lp6
S'timestamp'
p7
aF4.140674829483032
aatp8
Rp9
.ccollections
OrderedDict
p0
((lp1
(lp2
S'state'
p3
aI400
aa(lp4
S'distance'
p5
aF267.82654571533203
aa(lp6
S'timestamp'
p7
aF4.150396823883057
aatp8
Rp9
.ccollections
OrderedDict
p0
((lp1
(lp2
S'state'
p3
aI400
aa(lp4
S'distance'
p5
aF267.82654571533203
aa(lp6
S'timestamp'
p7
aF4.1508870124816895
aatp8
Rp9
.ccollections
OrderedDict
p0
((lp1
(lp2
S'state'
p3
aI400
aa(lp4
S'distance'
p5
aF267.82654571533203
aa(lp6
S'timestamp'
p7
aF4.160839796066284
aatp8
Rp9
.ccollections
OrderedDict
p0
((lp1
(lp2
S'state'
p3
aI400
aa(lp4
S'distance'
p5
aF267.82654571533203
aa(lp6
S'timestamp'
p7
aF4.160984992980957
aatp8
Rp9
.ccollections
OrderedDict
p0
((lp1
(lp2
S'state'
p3
aI400
aa(lp4
S'distance'
p5
aF267.82654571533203
aa(lp6
S'timestamp'
p7
aF4.17046594619751
aatp8
Rp9
.ccollections
OrderedDict
p0
((lp1
(lp2
S'state'
p3
aI400
aa(lp4
S'distance'
p5
aF267.82654571533203
aa(lp6
S'timestamp'
p7
aF4.17060399055481
aatp8
Rp9
.ccollections
OrderedDict
p0
((lp1
(lp2
S'state'
p3
aI400
aa(lp4
S'distance'
p5
aF267.82654571533203
aa(lp6
S'timestamp'
p7
aF4.180033922195435
aatp8
Rp9
.ccollections
OrderedDict
p0
((lp1
(lp2
S'state'
p3
aI0
aa(lp4
S'distance'
p5
aF267.82654571533203
aa(lp6
S'timestamp'
p7
aF4.182200908660889
aatp8
Rp9
.ccollections
OrderedDict
p0
((lp1
(lp2
S'state'
p3
aI0
aa(lp4
S'distance'
p5
aF168.16300582885742
aa(lp6
S'timestamp'
p7
aF4.7509379386901855
aatp8
Rp9
.ccollections
OrderedDict
p0
((lp1
(lp2
S'state'
p3
aI0
aa(lp4
S'distance'
p5
aF168.16300582885742
aa(lp6
S'timestamp'
p7
aF4.760461807250977
aatp8
Rp9
.ccollections
OrderedDict
p0
((lp1
(lp2
S'state'
p3
aI0
aa(lp4
S'distance'
p5
aF168.16300582885742
aa(lp6
S'timestamp'
p7
aF4.760547876358032
aatp8
Rp9
.ccollections
OrderedDict
p0
((lp1
(lp2
S'state'
p3
aI0
aa(lp4
S'distance'
p5
aF168.16300582885742
aa(lp6
S'timestamp'
p7
aF4.77025580406189
aatp8
Rp9
.ccollections
OrderedDict
p0
((lp1
(lp2
S'state'
p3
aI0
aa(lp4
S'distance'
p5
aF168.16300582885742
aa(lp6
S'timestamp'
p7
aF4.770339012145996
aatp8
Rp9
.ccollections
OrderedDict
p0
((lp1
(lp2
S'state'
p3
aI0
aa(lp4
S'distance'
p5
aF168.16300582885742
aa(lp6
S'timestamp'
p7
aF4.780427932739258
aatp8
Rp9
.ccollections
OrderedDict
p0
((lp1
(lp2
S'state'
p3
aI0
aa(lp4
S'distance'
p5
aF168.16300582885742
aa(lp6
S'timestamp'
p7
aF4.780536890029907
aatp8
Rp9
.ccollections
OrderedDict
p0
((lp1
(lp2
S'state'
p3
aI0
aa(lp4
S'distance'
p5
aF168.16300582885742
aa(lp6
S'timestamp'
p7
aF4.790102958679199
aatp8
Rp9
.ccollections
OrderedDict
p0
((lp1
(lp2
S'state'
p3
aI0
aa(lp4
S'distance'
p5
aF168.16300582885742
aa(lp6
S'timestamp'
p7
aF4.790548801422119
aatp8
Rp9
.ccollections
OrderedDict
p0
((lp1
(lp2
S'state'
p3
aI0
aa(lp4
S'distance'
p5
aF168.16300582885742
aa(lp6
S'timestamp'
p7
aF4.810361862182617
aatp8
Rp9
.ccollections
OrderedDict
p0
((lp1
(lp2
S'state'
p3
aI0
aa(lp4
S'distance'
p5
aF168.16300582885742
aa(lp6
S'timestamp'
p7
aF4.810977935791016
aatp8
Rp9
.ccollections
OrderedDict
p0
((lp1
(lp2
S'state'
p3
aI0
aa(lp4
S'distance'
p5
aF168.16300582885742
aa(lp6
S'timestamp'
p7
aF4.813277006149292
aatp8
Rp9
.ccollections
OrderedDict
p0
((lp1
(lp2
S'state'
p3
aI0
aa(lp4
S'distance'
p5
aF168.16300582885742
aa(lp6
S'timestamp'
p7
aF4.81340479850769
aatp8
Rp9
.ccollections
OrderedDict
p0
((lp1
(lp2
S'state'
p3
aI0
aa(lp4
S'distance'
p5
aF168.16300582885742
aa(lp6
S'timestamp'
p7
aF4.820985794067383
aatp8
Rp9
.ccollections
OrderedDict
p0
((lp1
(lp2
S'state'
p3
aI0
aa(lp4
S'distance'
p5
aF168.16300582885742
aa(lp6
S'timestamp'
p7
aF4.821258783340454
aatp8
Rp9
.ccollections
OrderedDict
p0
((lp1
(lp2
S'state'
p3
aI0
aa(lp4
S'distance'
p5
aF168.16300582885742
aa(lp6
S'timestamp'
p7
aF4.840163946151733
aatp8
Rp9
.ccollections
OrderedDict
p0
((lp1
(lp2
S'state'
p3
aI0
aa(lp4
S'distance'
p5
aF168.16300582885742
aa(lp6
S'timestamp'
p7
aF4.840328931808472
aatp8
Rp9
.ccollections
OrderedDict
p0
((lp1
(lp2
S'state'
p3
aI0
aa(lp4
S'distance'
p5
aF168.16300582885742
aa(lp6
S'timestamp'
p7
aF4.843948841094971
aatp8
Rp9
.ccollections
OrderedDict
p0
((lp1
(lp2
S'state'
p3
aI0
aa(lp4
S'distance'
p5
aF168.16300582885742
aa(lp6
S'timestamp'
p7
aF4.844081878662109
aatp8
Rp9
.ccollections
OrderedDict
p0
((lp1
(lp2
S'state'
p3
aI0
aa(lp4
S'distance'
p5
aF168.16300582885742
aa(lp6
S'timestamp'
p7
aF4.851106882095337
aatp8
Rp9
.ccollections
OrderedDict
p0
((lp1
(lp2
S'state'
p3
aI0
aa(lp4
S'distance'
p5
aF168.16300582885742
aa(lp6
S'timestamp'
p7
aF4.851294994354248
aatp8
Rp9
.ccollections
OrderedDict
p0
((lp1
(lp2
S'state'
p3
aI0
aa(lp4
S'distance'
p5
aF168.16300582885742
aa(lp6
S'timestamp'
p7
aF4.86001992225647
aatp8
Rp9
.ccollections
OrderedDict
p0
((lp1
(lp2
S'state'
p3
aI0
aa(lp4
S'distance'
p5
aF168.16300582885742
aa(lp6
S'timestamp'
p7
aF4.861086845397949
aatp8
Rp9
.ccollections
OrderedDict
p0
((lp1
(lp2
S'state'
p3
aI0
aa(lp4
S'distance'
p5
aF168.16300582885742
aa(lp6
S'timestamp'
p7
aF4.870731830596924
aatp8
Rp9
.ccollections
OrderedDict
p0
((lp1
(lp2
S'state'
p3
aI0
aa(lp4
S'distance'
p5
aF168.16300582885742
aa(lp6
S'timestamp'
p7
aF4.870812892913818
aatp8
Rp9
.ccollections
OrderedDict
p0
((lp1
(lp2
S'state'
p3
aI0
aa(lp4
S'distance'
p5
aF168.16300582885742
aa(lp6
S'timestamp'
p7
aF4.890172958374023
aatp8
Rp9
.ccollections
OrderedDict
p0
((lp1
(lp2
S'state'
p3
aI0
aa(lp4
S'distance'
p5
aF168.16300582885742
aa(lp6
S'timestamp'
p7
aF4.890300989151001
aatp8
Rp9
.ccollections
OrderedDict
p0
((lp1
(lp2
S'state'
p3
aI0
aa(lp4
S'distance'
p5
aF168.16300582885742
aa(lp6
S'timestamp'
p7
aF4.900163888931274
aatp8
Rp9
.ccollections
OrderedDict
p0
((lp1
(lp2
S'state'
p3
aI0
aa(lp4
S'distance'
p5
aF168.16300582885742
aa(lp6
S'timestamp'
p7
aF4.90125584602356
aatp8
Rp9
.ccollections
OrderedDict
p0
((lp1
(lp2
S'state'
p3
aI0
aa(lp4
S'distance'
p5
aF168.16300582885742
aa(lp6
S'timestamp'
p7
aF4.902066946029663
aatp8
Rp9
.ccollections
OrderedDict
p0
((lp1
(lp2
S'state'
p3
aI0
aa(lp4
S'distance'
p5
aF168.16300582885742
aa(lp6
S'timestamp'
p7
aF4.910164833068848
aatp8
Rp9
.ccollections
OrderedDict
p0
((lp1
(lp2
S'state'
p3
aI0
aa(lp4
S'distance'
p5
aF168.16300582885742
aa(lp6
S'timestamp'
p7
aF4.910604000091553
aatp8
Rp9
.ccollections
OrderedDict
p0
((lp1
(lp2
S'state'
p3
aI0
aa(lp4
S'distance'
p5
aF168.16300582885742
aa(lp6
S'timestamp'
p7
aF4.910961866378784
aatp8
Rp9
.ccollections
OrderedDict
p0
((lp1
(lp2
S'state'
p3
aI0
aa(lp4
S'distance'
p5
aF168.16300582885742
aa(lp6
S'timestamp'
p7
aF4.920180797576904
aatp8
Rp9
.ccollections
OrderedDict
p0
((lp1
(lp2
S'state'
p3
aI0
aa(lp4
S'distance'
p5
aF168.16300582885742
aa(lp6
S'timestamp'
p7
aF4.930325984954834
aatp8
Rp9
.ccollections
OrderedDict
p0
((lp1
(lp2
S'state'
p3
aI0
aa(lp4
S'distance'
p5
aF168.16300582885742
aa(lp6
S'timestamp'
p7
aF4.93048095703125
aatp8
Rp9
.ccollections
OrderedDict
p0
((lp1
(lp2
S'state'
p3
aI0
aa(lp4
S'distance'
p5
aF168.16300582885742
aa(lp6
S'timestamp'
p7
aF4.931212902069092
aatp8
Rp9
.ccollections
OrderedDict
p0
((lp1
(lp2
S'state'
p3
aI0
aa(lp4
S'distance'
p5
aF168.16300582885742
aa(lp6
S'timestamp'
p7
aF4.939934015274048
aatp8
Rp9
.ccollections
OrderedDict
p0
((lp1
(lp2
S'state'
p3
aI0
aa(lp4
S'distance'
p5
aF168.16300582885742
aa(lp6
S'timestamp'
p7
aF4.940807819366455
aatp8
Rp9
.ccollections
OrderedDict
p0
((lp1
(lp2
S'state'
p3
aI0
aa(lp4
S'distance'
p5
aF168.16300582885742
aa(lp6
S'timestamp'
p7
aF4.950132846832275
aatp8
Rp9
.ccollections
OrderedDict
p0
((lp1
(lp2
S'state'
p3
aI0
aa(lp4
S'distance'
p5
aF168.16300582885742
aa(lp6
S'timestamp'
p7
aF4.950500965118408
aatp8
Rp9
.ccollections
OrderedDict
p0
((lp1
(lp2
S'state'
p3
aI0
aa(lp4
S'distance'
p5
aF168.16300582885742
aa(lp6
S'timestamp'
p7
aF4.960714817047119
aatp8
Rp9
.ccollections
OrderedDict
p0
((lp1
(lp2
S'state'
p3
aI0
aa(lp4
S'distance'
p5
aF168.16300582885742
aa(lp6
S'timestamp'
p7
aF4.960791826248169
aatp8
Rp9
.ccollections
OrderedDict
p0
((lp1
(lp2
S'state'
p3
aI0
aa(lp4
S'distance'
p5
aF168.16300582885742
aa(lp6
S'timestamp'
p7
aF4.97002387046814
aatp8
Rp9
.ccollections
OrderedDict
p0
((lp1
(lp2
S'state'
p3
aI0
aa(lp4
S'distance'
p5
aF168.16300582885742
aa(lp6
S'timestamp'
p7
aF4.970382928848267
aatp8
Rp9
.ccollections
OrderedDict
p0
((lp1
(lp2
S'state'
p3
aI0
aa(lp4
S'distance'
p5
aF168.16300582885742
aa(lp6
S'timestamp'
p7
aF4.980156898498535
aatp8
Rp9
.ccollections
OrderedDict
p0
((lp1
(lp2
S'state'
p3
aI0
aa(lp4
S'distance'
p5
aF168.16300582885742
aa(lp6
S'timestamp'
p7
aF4.980405807495117
aatp8
Rp9
.ccollections
OrderedDict
p0
((lp1
(lp2
S'state'
p3
aI0
aa(lp4
S'distance'
p5
aF168.16300582885742
aa(lp6
S'timestamp'
p7
aF5.000201940536499
aatp8
Rp9
.ccollections
OrderedDict
p0
((lp1
(lp2
S'state'
p3
aI0
aa(lp4
S'distance'
p5
aF168.16300582885742
aa(lp6
S'timestamp'
p7
aF5.000661849975586
aatp8
Rp9
.ccollections
OrderedDict
p0
((lp1
(lp2
S'state'
p3
aI0
aa(lp4
S'distance'
p5
aF168.16300582885742
aa(lp6
S'timestamp'
p7
aF5.002729892730713
aatp8
Rp9
.ccollections
OrderedDict
p0
((lp1
(lp2
S'state'
p3
aI0
aa(lp4
S'distance'
p5
aF168.16300582885742
aa(lp6
S'timestamp'
p7
aF5.0028839111328125
aatp8
Rp9
.ccollections
OrderedDict
p0
((lp1
(lp2
S'state'
p3
aI0
aa(lp4
S'distance'
p5
aF168.16300582885742
aa(lp6
S'timestamp'
p7
aF5.0103349685668945
aatp8
Rp9
.ccollections
OrderedDict
p0
((lp1
(lp2
S'state'
p3
aI0
aa(lp4
S'distance'
p5
aF168.16300582885742
aa(lp6
S'timestamp'
p7
aF5.010723829269409
aatp8
Rp9
.ccollections
OrderedDict
p0
((lp1
(lp2
S'state'
p3
aI0
aa(lp4
S'distance'
p5
aF168.16300582885742
aa(lp6
S'timestamp'
p7
aF5.020787000656128
aatp8
Rp9
.ccollections
OrderedDict
p0
((lp1
(lp2
S'state'
p3
aI0
aa(lp4
S'distance'
p5
aF168.16300582885742
aa(lp6
S'timestamp'
p7
aF5.021053791046143
aatp8
Rp9
.ccollections
OrderedDict
p0
((lp1
(lp2
S'state'
p3
aI0
aa(lp4
S'distance'
p5
aF168.16300582885742
aa(lp6
S'timestamp'
p7
aF5.030646800994873
aatp8
Rp9
.ccollections
OrderedDict
p0
((lp1
(lp2
S'state'
p3
aI0
aa(lp4
S'distance'
p5
aF168.16300582885742
aa(lp6
S'timestamp'
p7
aF5.030727863311768
aatp8
Rp9
.ccollections
OrderedDict
p0
((lp1
(lp2
S'state'
p3
aI0
aa(lp4
S'distance'
p5
aF168.16300582885742
aa(lp6
S'timestamp'
p7
aF5.040546894073486
aatp8
Rp9
.ccollections
OrderedDict
p0
((lp1
(lp2
S'state'
p3
aI0
aa(lp4
S'distance'
p5
aF168.16300582885742
aa(lp6
S'timestamp'
p7
aF5.040620803833008
aatp8
Rp9
.ccollections
OrderedDict
p0
((lp1
(lp2
S'state'
p3
aI0
aa(lp4
S'distance'
p5
aF168.16300582885742
aa(lp6
S'timestamp'
p7
aF5.050709009170532
aatp8
Rp9
.ccollections
OrderedDict
p0
((lp1
(lp2
S'state'
p3
aI0
aa(lp4
S'distance'
p5
aF168.16300582885742
aa(lp6
S'timestamp'
p7
aF5.050840854644775
aatp8
Rp9
.ccollections
OrderedDict
p0
((lp1
(lp2
S'state'
p3
aI0
aa(lp4
S'distance'
p5
aF168.16300582885742
aa(lp6
S'timestamp'
p7
aF5.060894012451172
aatp8
Rp9
.ccollections
OrderedDict
p0
((lp1
(lp2
S'state'
p3
aI0
aa(lp4
S'distance'
p5
aF168.16300582885742
aa(lp6
S'timestamp'
p7
aF5.061406850814819
aatp8
Rp9
.ccollections
OrderedDict
p0
((lp1
(lp2
S'state'
p3
aI0
aa(lp4
S'distance'
p5
aF168.16300582885742
aa(lp6
S'timestamp'
p7
aF5.070082902908325
aatp8
Rp9
.ccollections
OrderedDict
p0
((lp1
(lp2
S'state'
p3
aI0
aa(lp4
S'distance'
p5
aF168.16300582885742
aa(lp6
S'timestamp'
p7
aF5.070746898651123
aatp8
Rp9
.ccollections
OrderedDict
p0
((lp1
(lp2
S'state'
p3
aI0
aa(lp4
S'distance'
p5
aF168.16300582885742
aa(lp6
S'timestamp'
p7
aF5.091213941574097
aatp8
Rp9
.ccollections
OrderedDict
p0
((lp1
(lp2
S'state'
p3
aI0
aa(lp4
S'distance'
p5
aF168.16300582885742
aa(lp6
S'timestamp'
p7
aF5.091522932052612
aatp8
Rp9
.ccollections
OrderedDict
p0
((lp1
(lp2
S'state'
p3
aI0
aa(lp4
S'distance'
p5
aF168.16300582885742
aa(lp6
S'timestamp'
p7
aF5.092264890670776
aatp8
Rp9
.ccollections
OrderedDict
p0
((lp1
(lp2
S'state'
p3
aI0
aa(lp4
S'distance'
p5
aF168.16300582885742
aa(lp6
S'timestamp'
p7
aF5.092929840087891
aatp8
Rp9
.ccollections
OrderedDict
p0
((lp1
(lp2
S'state'
p3
aI0
aa(lp4
S'distance'
p5
aF168.16300582885742
aa(lp6
S'timestamp'
p7
aF5.100006818771362
aatp8
Rp9
.ccollections
OrderedDict
p0
((lp1
(lp2
S'state'
p3
aI0
aa(lp4
S'distance'
p5
aF168.16300582885742
aa(lp6
S'timestamp'
p7
aF5.101238965988159
aatp8
Rp9
.ccollections
OrderedDict
p0
((lp1
(lp2
S'state'
p3
aI0
aa(lp4
S'distance'
p5
aF168.16300582885742
aa(lp6
S'timestamp'
p7
aF5.110715866088867
aatp8
Rp9
.ccollections
OrderedDict
p0
((lp1
(lp2
S'state'
p3
aI0
aa(lp4
S'distance'
p5
aF168.16300582885742
aa(lp6
S'timestamp'
p7
aF5.110790014266968
aatp8
Rp9
.ccollections
OrderedDict
p0
((lp1
(lp2
S'state'
p3
aI0
aa(lp4
S'distance'
p5
aF168.16300582885742
aa(lp6
S'timestamp'
p7
aF5.120150804519653
aatp8
Rp9
.ccollections
OrderedDict
p0
((lp1
(lp2
S'state'
p3
aI0
aa(lp4
S'distance'
p5
aF168.16300582885742
aa(lp6
S'timestamp'
p7
aF5.120608806610107
aatp8
Rp9
.ccollections
OrderedDict
p0
((lp1
(lp2
S'state'
p3
aI0
aa(lp4
S'distance'
p5
aF168.16300582885742
aa(lp6
S'timestamp'
p7
aF5.130594968795776
aatp8
Rp9
.ccollections
OrderedDict
p0
((lp1
(lp2
S'state'
p3
aI400
aa(lp4
S'distance'
p5
aF168.16300582885742
aa(lp6
S'timestamp'
p7
aF5.1308839321136475
aatp8
Rp9
.ccollections
OrderedDict
p0
((lp1
(lp2
S'state'
p3
aI400
aa(lp4
S'distance'
p5
aF168.16300582885742
aa(lp6
S'timestamp'
p7
aF5.1406638622283936
aatp8
Rp9
.ccollections
OrderedDict
p0
((lp1
(lp2
S'state'
p3
aI400
aa(lp4
S'distance'
p5
aF168.16300582885742
aa(lp6
S'timestamp'
p7
aF5.140877962112427
aatp8
Rp9
.ccollections
OrderedDict
p0
((lp1
(lp2
S'state'
p3
aI400
aa(lp4
S'distance'
p5
aF168.16300582885742
aa(lp6
S'timestamp'
p7
aF5.150357961654663
aatp8
Rp9
.ccollections
OrderedDict
p0
((lp1
(lp2
S'state'
p3
aI400
aa(lp4
S'distance'
p5
aF168.16300582885742
aa(lp6
S'timestamp'
p7
aF5.150899887084961
aatp8
Rp9
.ccollections
OrderedDict
p0
((lp1
(lp2
S'state'
p3
aI400
aa(lp4
S'distance'
p5
aF168.16300582885742
aa(lp6
S'timestamp'
p7
aF5.160416841506958
aatp8
Rp9
.ccollections
OrderedDict
p0
((lp1
(lp2
S'state'
p3
aI400
aa(lp4
S'distance'
p5
aF168.16300582885742
aa(lp6
S'timestamp'
p7
aF5.160521984100342
aatp8
Rp9
.ccollections
OrderedDict
p0
((lp1
(lp2
S'state'
p3
aI400
aa(lp4
S'distance'
p5
aF168.16300582885742
aa(lp6
S'timestamp'
p7
aF5.170698881149292
aatp8
Rp9
.ccollections
OrderedDict
p0
((lp1
(lp2
S'state'
p3
aI400
aa(lp4
S'distance'
p5
aF168.16300582885742
aa(lp6
S'timestamp'
p7
aF5.170842885971069
aatp8
Rp9
.ccollections
OrderedDict
p0
((lp1
(lp2
S'state'
p3
aI400
aa(lp4
S'distance'
p5
aF168.16300582885742
aa(lp6
S'timestamp'
p7
aF5.180030822753906
aatp8
Rp9
.ccollections
OrderedDict
p0
((lp1
(lp2
S'state'
p3
aI400
aa(lp4
S'distance'
p5
aF168.16300582885742
aa(lp6
S'timestamp'
p7
aF5.180522918701172
aatp8
Rp9
.ccollections
OrderedDict
p0
((lp1
(lp2
S'state'
p3
aI400
aa(lp4
S'distance'
p5
aF168.16300582885742
aa(lp6
S'timestamp'
p7
aF5.1903369426727295
aatp8
Rp9
.ccollections
OrderedDict
p0
((lp1
(lp2
S'state'
p3
aI400
aa(lp4
S'distance'
p5
aF168.16300582885742
aa(lp6
S'timestamp'
p7
aF5.190469980239868
aatp8
Rp9
.ccollections
OrderedDict
p0
((lp1
(lp2
S'state'
p3
aI400
aa(lp4
S'distance'
p5
aF168.16300582885742
aa(lp6
S'timestamp'
p7
aF5.201039791107178
aatp8
Rp9
.ccollections
OrderedDict
p0
((lp1
(lp2
S'state'
p3
aI400
aa(lp4
S'distance'
p5
aF168.16300582885742
aa(lp6
S'timestamp'
p7
aF5.202125787734985
aatp8
Rp9
.ccollections
OrderedDict
p0
((lp1
(lp2
S'state'
p3
aI400
aa(lp4
S'distance'
p5
aF168.16300582885742
aa(lp6
S'timestamp'
p7
aF5.2118799686431885
aatp8
Rp9
.ccollections
OrderedDict
p0
((lp1
(lp2
S'state'
p3
aI400
aa(lp4
S'distance'
p5
aF168.16300582885742
aa(lp6
S'timestamp'
p7
aF5.212157964706421
aatp8
Rp9
.ccollections
OrderedDict
p0
((lp1
(lp2
S'state'
p3
aI400
aa(lp4
S'distance'
p5
aF168.16300582885742
aa(lp6
S'timestamp'
p7
aF5.220045804977417
aatp8
Rp9
.ccollections
OrderedDict
p0
((lp1
(lp2
S'state'
p3
aI400
aa(lp4
S'distance'
p5
aF168.16300582885742
aa(lp6
S'timestamp'
p7
aF5.221982955932617
aatp8
Rp9
.ccollections
OrderedDict
p0
((lp1
(lp2
S'state'
p3
aI400
aa(lp4
S'distance'
p5
aF168.16300582885742
aa(lp6
S'timestamp'
p7
aF5.230388879776001
aatp8
Rp9
.ccollections
OrderedDict
p0
((lp1
(lp2
S'state'
p3
aI400
aa(lp4
S'distance'
p5
aF168.16300582885742
aa(lp6
S'timestamp'
p7
aF5.230913877487183
aatp8
Rp9
.ccollections
OrderedDict
p0
((lp1
(lp2
S'state'
p3
aI400
aa(lp4
S'distance'
p5
aF168.16300582885742
aa(lp6
S'timestamp'
p7
aF5.240636825561523
aatp8
Rp9
.ccollections
OrderedDict
p0
((lp1
(lp2
S'state'
p3
aI400
aa(lp4
S'distance'
p5
aF168.16300582885742
aa(lp6
S'timestamp'
p7
aF5.240716934204102
aatp8
Rp9
.ccollections
OrderedDict
p0
((lp1
(lp2
S'state'
p3
aI400
aa(lp4
S'distance'
p5
aF168.16300582885742
aa(lp6
S'timestamp'
p7
aF5.2610979080200195
aatp8
Rp9
.ccollections
OrderedDict
p0
((lp1
(lp2
S'state'
p3
aI400
aa(lp4
S'distance'
p5
aF168.16300582885742
aa(lp6
S'timestamp'
p7
aF5.261187791824341
aatp8
Rp9
.ccollections
OrderedDict
p0
((lp1
(lp2
S'state'
p3
aI400
aa(lp4
S'distance'
p5
aF168.16300582885742
aa(lp6
S'timestamp'
p7
aF5.2618348598480225
aatp8
Rp9
.ccollections
OrderedDict
p0
((lp1
(lp2
S'state'
p3
aI400
aa(lp4
S'distance'
p5
aF168.16300582885742
aa(lp6
S'timestamp'
p7
aF5.262811899185181
aatp8
Rp9
.ccollections
OrderedDict
p0
((lp1
(lp2
S'state'
p3
aI400
aa(lp4
S'distance'
p5
aF168.16300582885742
aa(lp6
S'timestamp'
p7
aF5.270763874053955
aatp8
Rp9
.ccollections
OrderedDict
p0
((lp1
(lp2
S'state'
p3
aI400
aa(lp4
S'distance'
p5
aF168.16300582885742
aa(lp6
S'timestamp'
p7
aF5.270849943161011
aatp8
Rp9
.ccollections
OrderedDict
p0
((lp1
(lp2
S'state'
p3
aI400
aa(lp4
S'distance'
p5
aF168.16300582885742
aa(lp6
S'timestamp'
p7
aF5.28020977973938
aatp8
Rp9
.ccollections
OrderedDict
p0
((lp1
(lp2
S'state'
p3
aI400
aa(lp4
S'distance'
p5
aF168.16300582885742
aa(lp6
S'timestamp'
p7
aF5.280746936798096
aatp8
Rp9
.ccollections
OrderedDict
p0
((lp1
(lp2
S'state'
p3
aI400
aa(lp4
S'distance'
p5
aF168.16300582885742
aa(lp6
S'timestamp'
p7
aF5.290601015090942
aatp8
Rp9
.ccollections
OrderedDict
p0
((lp1
(lp2
S'state'
p3
aI400
aa(lp4
S'distance'
p5
aF168.16300582885742
aa(lp6
S'timestamp'
p7
aF5.290678977966309
aatp8
Rp9
.ccollections
OrderedDict
p0
((lp1
(lp2
S'state'
p3
aI400
aa(lp4
S'distance'
p5
aF168.16300582885742
aa(lp6
S'timestamp'
p7
aF5.300642967224121
aatp8
Rp9
.ccollections
OrderedDict
p0
((lp1
(lp2
S'state'
p3
aI400
aa(lp4
S'distance'
p5
aF168.16300582885742
aa(lp6
S'timestamp'
p7
aF5.3012378215789795
aatp8
Rp9
.ccollections
OrderedDict
p0
((lp1
(lp2
S'state'
p3
aI400
aa(lp4
S'distance'
p5
aF168.16300582885742
aa(lp6
S'timestamp'
p7
aF5.310644865036011
aatp8
Rp9
.ccollections
OrderedDict
p0
((lp1
(lp2
S'state'
p3
aI400
aa(lp4
S'distance'
p5
aF168.16300582885742
aa(lp6
S'timestamp'
p7
aF5.310722827911377
aatp8
Rp9
.ccollections
OrderedDict
p0
((lp1
(lp2
S'state'
p3
aI400
aa(lp4
S'distance'
p5
aF168.16300582885742
aa(lp6
S'timestamp'
p7
aF5.320074796676636
aatp8
Rp9
.ccollections
OrderedDict
p0
((lp1
(lp2
S'state'
p3
aI400
aa(lp4
S'distance'
p5
aF168.16300582885742
aa(lp6
S'timestamp'
p7
aF5.321424961090088
aatp8
Rp9
.ccollections
OrderedDict
p0
((lp1
(lp2
S'state'
p3
aI400
aa(lp4
S'distance'
p5
aF168.16300582885742
aa(lp6
S'timestamp'
p7
aF5.330127954483032
aatp8
Rp9
.ccollections
OrderedDict
p0
((lp1
(lp2
S'state'
p3
aI400
aa(lp4
S'distance'
p5
aF168.16300582885742
aa(lp6
S'timestamp'
p7
aF5.334770917892456
aatp8
Rp9
.ccollections
OrderedDict
p0
((lp1
(lp2
S'state'
p3
aI400
aa(lp4
S'distance'
p5
aF168.16300582885742
aa(lp6
S'timestamp'
p7
aF5.340483903884888
aatp8
Rp9
.ccollections
OrderedDict
p0
((lp1
(lp2
S'state'
p3
aI400
aa(lp4
S'distance'
p5
aF168.16300582885742
aa(lp6
S'timestamp'
p7
aF5.341054916381836
aatp8
Rp9
.ccollections
OrderedDict
p0
((lp1
(lp2
S'state'
p3
aI400
aa(lp4
S'distance'
p5
aF168.16300582885742
aa(lp6
S'timestamp'
p7
aF5.350270986557007
aatp8
Rp9
.ccollections
OrderedDict
p0
((lp1
(lp2
S'state'
p3
aI400
aa(lp4
S'distance'
p5
aF168.16300582885742
aa(lp6
S'timestamp'
p7
aF5.35077691078186
aatp8
Rp9
.ccollections
OrderedDict
p0
((lp1
(lp2
S'state'
p3
aI400
aa(lp4
S'distance'
p5
aF168.16300582885742
aa(lp6
S'timestamp'
p7
aF5.360108852386475
aatp8
Rp9
.ccollections
OrderedDict
p0
((lp1
(lp2
S'state'
p3
aI400
aa(lp4
S'distance'
p5
aF168.16300582885742
aa(lp6
S'timestamp'
p7
aF5.360858917236328
aatp8
Rp9
.ccollections
OrderedDict
p0
((lp1
(lp2
S'state'
p3
aI400
aa(lp4
S'distance'
p5
aF168.16300582885742
aa(lp6
S'timestamp'
p7
aF5.370881795883179
aatp8
Rp9
.ccollections
OrderedDict
p0
((lp1
(lp2
S'state'
p3
aI400
aa(lp4
S'distance'
p5
aF168.16300582885742
aa(lp6
S'timestamp'
p7
aF5.3715620040893555
aatp8
Rp9
.ccollections
OrderedDict
p0
((lp1
(lp2
S'state'
p3
aI400
aa(lp4
S'distance'
p5
aF168.16300582885742
aa(lp6
S'timestamp'
p7
aF5.381305932998657
aatp8
Rp9
.ccollections
OrderedDict
p0
((lp1
(lp2
S'state'
p3
aI400
aa(lp4
S'distance'
p5
aF168.16300582885742
aa(lp6
S'timestamp'
p7
aF5.381419897079468
aatp8
Rp9
.ccollections
OrderedDict
p0
((lp1
(lp2
S'state'
p3
aI400
aa(lp4
S'distance'
p5
aF168.16300582885742
aa(lp6
S'timestamp'
p7
aF5.390673875808716
aatp8
Rp9
.ccollections
OrderedDict
p0
((lp1
(lp2
S'state'
p3
aI400
aa(lp4
S'distance'
p5
aF168.16300582885742
aa(lp6
S'timestamp'
p7
aF5.390755891799927
aatp8
Rp9
.ccollections
OrderedDict
p0
((lp1
(lp2
S'state'
p3
aI400
aa(lp4
S'distance'
p5
aF168.16300582885742
aa(lp6
S'timestamp'
p7
aF5.40025782585144
aatp8
Rp9
.ccollections
OrderedDict
p0
((lp1
(lp2
S'state'
p3
aI400
aa(lp4
S'distance'
p5
aF168.16300582885742
aa(lp6
S'timestamp'
p7
aF5.4007649421691895
aatp8
Rp9
.ccollections
OrderedDict
p0
((lp1
(lp2
S'state'
p3
aI400
aa(lp4
S'distance'
p5
aF168.16300582885742
aa(lp6
S'timestamp'
p7
aF5.410674810409546
aatp8
Rp9
.ccollections
OrderedDict
p0
((lp1
(lp2
S'state'
p3
aI400
aa(lp4
S'distance'
p5
aF168.16300582885742
aa(lp6
S'timestamp'
p7
aF5.410753011703491
aatp8
Rp9
.ccollections
OrderedDict
p0
((lp1
(lp2
S'state'
p3
aI400
aa(lp4
S'distance'
p5
aF168.16300582885742
aa(lp6
S'timestamp'
p7
aF5.421976804733276
aatp8
Rp9
.ccollections
OrderedDict
p0
((lp1
(lp2
S'state'
p3
aI400
aa(lp4
S'distance'
p5
aF168.16300582885742
aa(lp6
S'timestamp'
p7
aF5.423649787902832
aatp8
Rp9
.ccollections
OrderedDict
p0
((lp1
(lp2
S'state'
p3
aI400
aa(lp4
S'distance'
p5
aF168.16300582885742
aa(lp6
S'timestamp'
p7
aF5.430150985717773
aatp8
Rp9
.ccollections
OrderedDict
p0
((lp1
(lp2
S'state'
p3
aI400
aa(lp4
S'distance'
p5
aF168.16300582885742
aa(lp6
S'timestamp'
p7
aF5.431336879730225
aatp8
Rp9
.ccollections
OrderedDict
p0
((lp1
(lp2
S'state'
p3
aI400
aa(lp4
S'distance'
p5
aF168.16300582885742
aa(lp6
S'timestamp'
p7
aF5.440640926361084
aatp8
Rp9
.ccollections
OrderedDict
p0
((lp1
(lp2
S'state'
p3
aI400
aa(lp4
S'distance'
p5
aF168.16300582885742
aa(lp6
S'timestamp'
p7
aF5.4411327838897705
aatp8
Rp9
.ccollections
OrderedDict
p0
((lp1
(lp2
S'state'
p3
aI400
aa(lp4
S'distance'
p5
aF168.16300582885742
aa(lp6
S'timestamp'
p7
aF5.4505088329315186
aatp8
Rp9
.ccollections
OrderedDict
p0
((lp1
(lp2
S'state'
p3
aI400
aa(lp4
S'distance'
p5
aF168.16300582885742
aa(lp6
S'timestamp'
p7
aF5.450580835342407
aatp8
Rp9
.ccollections
OrderedDict
p0
((lp1
(lp2
S'state'
p3
aI400
aa(lp4
S'distance'
p5
aF168.16300582885742
aa(lp6
S'timestamp'
p7
aF5.460824966430664
aatp8
Rp9
.ccollections
OrderedDict
p0
((lp1
(lp2
S'state'
p3
aI400
aa(lp4
S'distance'
p5
aF168.16300582885742
aa(lp6
S'timestamp'
p7
aF5.461556911468506
aatp8
Rp9
.ccollections
OrderedDict
p0
((lp1
(lp2
S'state'
p3
aI400
aa(lp4
S'distance'
p5
aF168.16300582885742
aa(lp6
S'timestamp'
p7
aF5.470672845840454
aatp8
Rp9
.ccollections
OrderedDict
p0
((lp1
(lp2
S'state'
p3
aI400
aa(lp4
S'distance'
p5
aF168.16300582885742
aa(lp6
S'timestamp'
p7
aF5.470752954483032
aatp8
Rp9
.ccollections
OrderedDict
p0
((lp1
(lp2
S'state'
p3
aI400
aa(lp4
S'distance'
p5
aF168.16300582885742
aa(lp6
S'timestamp'
p7
aF5.480385780334473
aatp8
Rp9
.ccollections
OrderedDict
p0
((lp1
(lp2
S'state'
p3
aI400
aa(lp4
S'distance'
p5
aF168.16300582885742
aa(lp6
S'timestamp'
p7
aF5.480639934539795
aatp8
Rp9
.ccollections
OrderedDict
p0
((lp1
(lp2
S'state'
p3
aI400
aa(lp4
S'distance'
p5
aF168.16300582885742
aa(lp6
S'timestamp'
p7
aF5.510223865509033
aatp8
Rp9
.ccollections
OrderedDict
p0
((lp1
(lp2
S'state'
p3
aI400
aa(lp4
S'distance'
p5
aF168.16300582885742
aa(lp6
S'timestamp'
p7
aF5.510835886001587
aatp8
Rp9
.ccollections
OrderedDict
p0
((lp1
(lp2
S'state'
p3
aI400
aa(lp4
S'distance'
p5
aF168.16300582885742
aa(lp6
S'timestamp'
p7
aF5.512653827667236
aatp8
Rp9
.ccollections
OrderedDict
p0
((lp1
(lp2
S'state'
p3
aI400
aa(lp4
S'distance'
p5
aF168.16300582885742
aa(lp6
S'timestamp'
p7
aF5.512811899185181
aatp8
Rp9
.ccollections
OrderedDict
p0
((lp1
(lp2
S'state'
p3
aI400
aa(lp4
S'distance'
p5
aF168.16300582885742
aa(lp6
S'timestamp'
p7
aF5.520254850387573
aatp8
Rp9
.ccollections
OrderedDict
p0
((lp1
(lp2
S'state'
p3
aI400
aa(lp4
S'distance'
p5
aF168.16300582885742
aa(lp6
S'timestamp'
p7
aF5.521126985549927
aatp8
Rp9
.ccollections
OrderedDict
p0
((lp1
(lp2
S'state'
p3
aI400
aa(lp4
S'distance'
p5
aF168.16300582885742
aa(lp6
S'timestamp'
p7
aF5.521239995956421
aatp8
Rp9
.ccollections
OrderedDict
p0
((lp1
(lp2
S'state'
p3
aI400
aa(lp4
S'distance'
p5
aF168.16300582885742
aa(lp6
S'timestamp'
p7
aF5.521407842636108
aatp8
Rp9
.ccollections
OrderedDict
p0
((lp1
(lp2
S'state'
p3
aI400
aa(lp4
S'distance'
p5
aF168.16300582885742
aa(lp6
S'timestamp'
p7
aF5.530913829803467
aatp8
Rp9
.ccollections
OrderedDict
p0
((lp1
(lp2
S'state'
p3
aI400
aa(lp4
S'distance'
p5
aF168.16300582885742
aa(lp6
S'timestamp'
p7
aF5.531221866607666
aatp8
Rp9
.ccollections
OrderedDict
p0
((lp1
(lp2
S'state'
p3
aI400
aa(lp4
S'distance'
p5
aF168.16300582885742
aa(lp6
S'timestamp'
p7
aF5.540499925613403
aatp8
Rp9
.ccollections
OrderedDict
p0
((lp1
(lp2
S'state'
p3
aI400
aa(lp4
S'distance'
p5
aF168.16300582885742
aa(lp6
S'timestamp'
p7
aF5.541502952575684
aatp8
Rp9
.ccollections
OrderedDict
p0
((lp1
(lp2
S'state'
p3
aI400
aa(lp4
S'distance'
p5
aF168.16300582885742
aa(lp6
S'timestamp'
p7
aF5.550788879394531
aatp8
Rp9
.ccollections
OrderedDict
p0
((lp1
(lp2
S'state'
p3
aI400
aa(lp4
S'distance'
p5
aF168.16300582885742
aa(lp6
S'timestamp'
p7
aF5.5508949756622314
aatp8
Rp9
.ccollections
OrderedDict
p0
((lp1
(lp2
S'state'
p3
aI400
aa(lp4
S'distance'
p5
aF168.16300582885742
aa(lp6
S'timestamp'
p7
aF5.560203790664673
aatp8
Rp9
.ccollections
OrderedDict
p0
((lp1
(lp2
S'state'
p3
aI400
aa(lp4
S'distance'
p5
aF168.16300582885742
aa(lp6
S'timestamp'
p7
aF5.5608789920806885
aatp8
Rp9
.ccollections
OrderedDict
p0
((lp1
(lp2
S'state'
p3
aI400
aa(lp4
S'distance'
p5
aF168.16300582885742
aa(lp6
S'timestamp'
p7
aF5.580938816070557
aatp8
Rp9
.ccollections
OrderedDict
p0
((lp1
(lp2
S'state'
p3
aI400
aa(lp4
S'distance'
p5
aF168.16300582885742
aa(lp6
S'timestamp'
p7
aF5.581067800521851
aatp8
Rp9
.ccollections
OrderedDict
p0
((lp1
(lp2
S'state'
p3
aI400
aa(lp4
S'distance'
p5
aF168.16300582885742
aa(lp6
S'timestamp'
p7
aF5.582632780075073
aatp8
Rp9
.ccollections
OrderedDict
p0
((lp1
(lp2
S'state'
p3
aI400
aa(lp4
S'distance'
p5
aF168.16300582885742
aa(lp6
S'timestamp'
p7
aF5.591031789779663
aatp8
Rp9
.ccollections
OrderedDict
p0
((lp1
(lp2
S'state'
p3
aI400
aa(lp4
S'distance'
p5
aF168.16300582885742
aa(lp6
S'timestamp'
p7
aF5.592042922973633
aatp8
Rp9
.ccollections
OrderedDict
p0
((lp1
(lp2
S'state'
p3
aI400
aa(lp4
S'distance'
p5
aF168.16300582885742
aa(lp6
S'timestamp'
p7
aF5.5930140018463135
aatp8
Rp9
.ccollections
OrderedDict
p0
((lp1
(lp2
S'state'
p3
aI400
aa(lp4
S'distance'
p5
aF168.16300582885742
aa(lp6
S'timestamp'
p7
aF5.60067081451416
aatp8
Rp9
.ccollections
OrderedDict
p0
((lp1
(lp2
S'state'
p3
aI400
aa(lp4
S'distance'
p5
aF168.16300582885742
aa(lp6
S'timestamp'
p7
aF5.600741863250732
aatp8
Rp9
.ccollections
OrderedDict
p0
((lp1
(lp2
S'state'
p3
aI400
aa(lp4
S'distance'
p5
aF168.16300582885742
aa(lp6
S'timestamp'
p7
aF5.610105991363525
aatp8
Rp9
.ccollections
OrderedDict
p0
((lp1
(lp2
S'state'
p3
aI400
aa(lp4
S'distance'
p5
aF168.16300582885742
aa(lp6
S'timestamp'
p7
aF5.610235929489136
aatp8
Rp9
.ccollections
OrderedDict
p0
((lp1
(lp2
S'state'
p3
aI400
aa(lp4
S'distance'
p5
aF168.16300582885742
aa(lp6
S'timestamp'
p7
aF5.621150970458984
aatp8
Rp9
.ccollections
OrderedDict
p0
((lp1
(lp2
S'state'
p3
aI400
aa(lp4
S'distance'
p5
aF168.16300582885742
aa(lp6
S'timestamp'
p7
aF5.622781991958618
aatp8
Rp9
.ccollections
OrderedDict
p0
((lp1
(lp2
S'state'
p3
aI400
aa(lp4
S'distance'
p5
aF168.16300582885742
aa(lp6
S'timestamp'
p7
aF5.630682945251465
aatp8
Rp9
.ccollections
OrderedDict
p0
((lp1
(lp2
S'state'
p3
aI400
aa(lp4
S'distance'
p5
aF168.16300582885742
aa(lp6
S'timestamp'
p7
aF5.630905866622925
aatp8
Rp9
.ccollections
OrderedDict
p0
((lp1
(lp2
S'state'
p3
aI400
aa(lp4
S'distance'
p5
aF168.16300582885742
aa(lp6
S'timestamp'
p7
aF5.640345811843872
aatp8
Rp9
.ccollections
OrderedDict
p0
((lp1
(lp2
S'state'
p3
aI400
aa(lp4
S'distance'
p5
aF168.16300582885742
aa(lp6
S'timestamp'
p7
aF5.64078688621521
aatp8
Rp9
.ccollections
OrderedDict
p0
((lp1
(lp2
S'state'
p3
aI400
aa(lp4
S'distance'
p5
aF168.16300582885742
aa(lp6
S'timestamp'
p7
aF5.650369882583618
aatp8
Rp9
.ccollections
OrderedDict
p0
((lp1
(lp2
S'state'
p3
aI400
aa(lp4
S'distance'
p5
aF168.16300582885742
aa(lp6
S'timestamp'
p7
aF5.650712966918945
aatp8
Rp9
.ccollections
OrderedDict
p0
((lp1
(lp2
S'state'
p3
aI400
aa(lp4
S'distance'
p5
aF168.16300582885742
aa(lp6
S'timestamp'
p7
aF5.6607677936553955
aatp8
Rp9
.ccollections
OrderedDict
p0
((lp1
(lp2
S'state'
p3
aI400
aa(lp4
S'distance'
p5
aF168.16300582885742
aa(lp6
S'timestamp'
p7
aF5.660894870758057
aatp8
Rp9
.ccollections
OrderedDict
p0
((lp1
(lp2
S'state'
p3
aI400
aa(lp4
S'distance'
p5
aF168.16300582885742
aa(lp6
S'timestamp'
p7
aF5.6706647872924805
aatp8
Rp9
.ccollections
OrderedDict
p0
((lp1
(lp2
S'state'
p3
aI400
aa(lp4
S'distance'
p5
aF168.16300582885742
aa(lp6
S'timestamp'
p7
aF5.67074179649353
aatp8
Rp9
.ccollections
OrderedDict
p0
((lp1
(lp2
S'state'
p3
aI400
aa(lp4
S'distance'
p5
aF168.16300582885742
aa(lp6
S'timestamp'
p7
aF5.680866003036499
aatp8
Rp9
.ccollections
OrderedDict
p0
((lp1
(lp2
S'state'
p3
aI400
aa(lp4
S'distance'
p5
aF168.16300582885742
aa(lp6
S'timestamp'
p7
aF5.680950880050659
aatp8
Rp9
.ccollections
OrderedDict
p0
((lp1
(lp2
S'state'
p3
aI400
aa(lp4
S'distance'
p5
aF168.16300582885742
aa(lp6
S'timestamp'
p7
aF5.6910529136657715
aatp8
Rp9
.ccollections
OrderedDict
p0
((lp1
(lp2
S'state'
p3
aI400
aa(lp4
S'distance'
p5
aF168.16300582885742
aa(lp6
S'timestamp'
p7
aF5.691136837005615
aatp8
Rp9
.ccollections
OrderedDict
p0
((lp1
(lp2
S'state'
p3
aI400
aa(lp4
S'distance'
p5
aF168.16300582885742
aa(lp6
S'timestamp'
p7
aF5.700232982635498
aatp8
Rp9
.ccollections
OrderedDict
p0
((lp1
(lp2
S'state'
p3
aI400
aa(lp4
S'distance'
p5
aF168.16300582885742
aa(lp6
S'timestamp'
p7
aF5.701128005981445
aatp8
Rp9
.ccollections
OrderedDict
p0
((lp1
(lp2
S'state'
p3
aI400
aa(lp4
S'distance'
p5
aF168.16300582885742
aa(lp6
S'timestamp'
p7
aF5.710723876953125
aatp8
Rp9
.ccollections
OrderedDict
p0
((lp1
(lp2
S'state'
p3
aI400
aa(lp4
S'distance'
p5
aF168.16300582885742
aa(lp6
S'timestamp'
p7
aF5.71079683303833
aatp8
Rp9
.ccollections
OrderedDict
p0
((lp1
(lp2
S'state'
p3
aI400
aa(lp4
S'distance'
p5
aF168.16300582885742
aa(lp6
S'timestamp'
p7
aF5.720629930496216
aatp8
Rp9
.ccollections
OrderedDict
p0
((lp1
(lp2
S'state'
p3
aI400
aa(lp4
S'distance'
p5
aF168.16300582885742
aa(lp6
S'timestamp'
p7
aF5.720705986022949
aatp8
Rp9
.ccollections
OrderedDict
p0
((lp1
(lp2
S'state'
p3
aI400
aa(lp4
S'distance'
p5
aF168.16300582885742
aa(lp6
S'timestamp'
p7
aF5.730385780334473
aatp8
Rp9
.ccollections
OrderedDict
p0
((lp1
(lp2
S'state'
p3
aI400
aa(lp4
S'distance'
p5
aF168.16300582885742
aa(lp6
S'timestamp'
p7
aF5.730784893035889
aatp8
Rp9
.ccollections
OrderedDict
p0
((lp1
(lp2
S'state'
p3
aI400
aa(lp4
S'distance'
p5
aF168.16300582885742
aa(lp6
S'timestamp'
p7
aF5.74094295501709
aatp8
Rp9
.ccollections
OrderedDict
p0
((lp1
(lp2
S'state'
p3
aI400
aa(lp4
S'distance'
p5
aF168.16300582885742
aa(lp6
S'timestamp'
p7
aF5.741065979003906
aatp8
Rp9
.ccollections
OrderedDict
p0
((lp1
(lp2
S'state'
p3
aI400
aa(lp4
S'distance'
p5
aF168.16300582885742
aa(lp6
S'timestamp'
p7
aF5.7507548332214355
aatp8
Rp9
.ccollections
OrderedDict
p0
((lp1
(lp2
S'state'
p3
aI400
aa(lp4
S'distance'
p5
aF168.16300582885742
aa(lp6
S'timestamp'
p7
aF5.750834941864014
aatp8
Rp9
.ccollections
OrderedDict
p0
((lp1
(lp2
S'state'
p3
aI400
aa(lp4
S'distance'
p5
aF168.16300582885742
aa(lp6
S'timestamp'
p7
aF5.760695934295654
aatp8
Rp9
.ccollections
OrderedDict
p0
((lp1
(lp2
S'state'
p3
aI400
aa(lp4
S'distance'
p5
aF168.16300582885742
aa(lp6
S'timestamp'
p7
aF5.760771989822388
aatp8
Rp9
.ccollections
OrderedDict
p0
((lp1
(lp2
S'state'
p3
aI400
aa(lp4
S'distance'
p5
aF168.16300582885742
aa(lp6
S'timestamp'
p7
aF5.77036190032959
aatp8
Rp9
.ccollections
OrderedDict
p0
((lp1
(lp2
S'state'
p3
aI400
aa(lp4
S'distance'
p5
aF168.16300582885742
aa(lp6
S'timestamp'
p7
aF5.770850896835327
aatp8
Rp9
.ccollections
OrderedDict
p0
((lp1
(lp2
S'state'
p3
aI400
aa(lp4
S'distance'
p5
aF168.16300582885742
aa(lp6
S'timestamp'
p7
aF5.78067684173584
aatp8
Rp9
.ccollections
OrderedDict
p0
((lp1
(lp2
S'state'
p3
aI400
aa(lp4
S'distance'
p5
aF168.16300582885742
aa(lp6
S'timestamp'
p7
aF5.780815839767456
aatp8
Rp9
.ccollections
OrderedDict
p0
((lp1
(lp2
S'state'
p3
aI400
aa(lp4
S'distance'
p5
aF168.16300582885742
aa(lp6
S'timestamp'
p7
aF5.790682792663574
aatp8
Rp9
.ccollections
OrderedDict
p0
((lp1
(lp2
S'state'
p3
aI400
aa(lp4
S'distance'
p5
aF168.16300582885742
aa(lp6
S'timestamp'
p7
aF5.7907609939575195
aatp8
Rp9
.ccollections
OrderedDict
p0
((lp1
(lp2
S'state'
p3
aI400
aa(lp4
S'distance'
p5
aF168.16300582885742
aa(lp6
S'timestamp'
p7
aF5.800117015838623
aatp8
Rp9
.ccollections
OrderedDict
p0
((lp1
(lp2
S'state'
p3
aI400
aa(lp4
S'distance'
p5
aF168.16300582885742
aa(lp6
S'timestamp'
p7
aF5.8007118701934814
aatp8
Rp9
.ccollections
OrderedDict
p0
((lp1
(lp2
S'state'
p3
aI400
aa(lp4
S'distance'
p5
aF168.16300582885742
aa(lp6
S'timestamp'
p7
aF5.810755968093872
aatp8
Rp9
.ccollections
OrderedDict
p0
((lp1
(lp2
S'state'
p3
aI400
aa(lp4
S'distance'
p5
aF168.16300582885742
aa(lp6
S'timestamp'
p7
aF5.81083083152771
aatp8
Rp9
.ccollections
OrderedDict
p0
((lp1
(lp2
S'state'
p3
aI400
aa(lp4
S'distance'
p5
aF168.16300582885742
aa(lp6
S'timestamp'
p7
aF5.82018780708313
aatp8
Rp9
.ccollections
OrderedDict
p0
((lp1
(lp2
S'state'
p3
aI400
aa(lp4
S'distance'
p5
aF168.16300582885742
aa(lp6
S'timestamp'
p7
aF5.820866823196411
aatp8
Rp9
.ccollections
OrderedDict
p0
((lp1
(lp2
S'state'
p3
aI400
aa(lp4
S'distance'
p5
aF168.16300582885742
aa(lp6
S'timestamp'
p7
aF5.830276012420654
aatp8
Rp9
.ccollections
OrderedDict
p0
((lp1
(lp2
S'state'
p3
aI400
aa(lp4
S'distance'
p5
aF168.16300582885742
aa(lp6
S'timestamp'
p7
aF5.830863952636719
aatp8
Rp9
.ccollections
OrderedDict
p0
((lp1
(lp2
S'state'
p3
aI400
aa(lp4
S'distance'
p5
aF168.16300582885742
aa(lp6
S'timestamp'
p7
aF5.840693950653076
aatp8
Rp9
.ccollections
OrderedDict
p0
((lp1
(lp2
S'state'
p3
aI400
aa(lp4
S'distance'
p5
aF168.16300582885742
aa(lp6
S'timestamp'
p7
aF5.840824842453003
aatp8
Rp9
.ccollections
OrderedDict
p0
((lp1
(lp2
S'state'
p3
aI400
aa(lp4
S'distance'
p5
aF168.16300582885742
aa(lp6
S'timestamp'
p7
aF5.8508617877960205
aatp8
Rp9
.ccollections
OrderedDict
p0
((lp1
(lp2
S'state'
p3
aI400
aa(lp4
S'distance'
p5
aF168.16300582885742
aa(lp6
S'timestamp'
p7
aF5.85093092918396
aatp8
Rp9
.ccollections
OrderedDict
p0
((lp1
(lp2
S'state'
p3
aI400
aa(lp4
S'distance'
p5
aF168.16300582885742
aa(lp6
S'timestamp'
p7
aF5.870048999786377
aatp8
Rp9
.ccollections
OrderedDict
p0
((lp1
(lp2
S'state'
p3
aI400
aa(lp4
S'distance'
p5
aF168.16300582885742
aa(lp6
S'timestamp'
p7
aF5.870670795440674
aatp8
Rp9
.ccollections
OrderedDict
p0
((lp1
(lp2
S'state'
p3
aI400
aa(lp4
S'distance'
p5
aF168.16300582885742
aa(lp6
S'timestamp'
p7
aF5.871537923812866
aatp8
Rp9
.ccollections
OrderedDict
p0
((lp1
(lp2
S'state'
p3
aI400
aa(lp4
S'distance'
p5
aF168.16300582885742
aa(lp6
S'timestamp'
p7
aF5.871774911880493
aatp8
Rp9
.ccollections
OrderedDict
p0
((lp1
(lp2
S'state'
p3
aI400
aa(lp4
S'distance'
p5
aF168.16300582885742
aa(lp6
S'timestamp'
p7
aF5.880017995834351
aatp8
Rp9
.ccollections
OrderedDict
p0
((lp1
(lp2
S'state'
p3
aI400
aa(lp4
S'distance'
p5
aF168.16300582885742
aa(lp6
S'timestamp'
p7
aF5.880688905715942
aatp8
Rp9
.ccollections
OrderedDict
p0
((lp1
(lp2
S'state'
p3
aI400
aa(lp4
S'distance'
p5
aF168.16300582885742
aa(lp6
S'timestamp'
p7
aF5.890740871429443
aatp8
Rp9
.ccollections
OrderedDict
p0
((lp1
(lp2
S'state'
p3
aI400
aa(lp4
S'distance'
p5
aF168.16300582885742
aa(lp6
S'timestamp'
p7
aF5.890821933746338
aatp8
Rp9
.ccollections
OrderedDict
p0
((lp1
(lp2
S'state'
p3
aI400
aa(lp4
S'distance'
p5
aF168.16300582885742
aa(lp6
S'timestamp'
p7
aF5.900130987167358
aatp8
Rp9
.ccollections
OrderedDict
p0
((lp1
(lp2
S'state'
p3
aI400
aa(lp4
S'distance'
p5
aF168.16300582885742
aa(lp6
S'timestamp'
p7
aF5.900524854660034
aatp8
Rp9
.ccollections
OrderedDict
p0
((lp1
(lp2
S'state'
p3
aI400
aa(lp4
S'distance'
p5
aF168.16300582885742
aa(lp6
S'timestamp'
p7
aF5.910598993301392
aatp8
Rp9
.ccollections
OrderedDict
p0
((lp1
(lp2
S'state'
p3
aI400
aa(lp4
S'distance'
p5
aF168.16300582885742
aa(lp6
S'timestamp'
p7
aF5.910676956176758
aatp8
Rp9
.ccollections
OrderedDict
p0
((lp1
(lp2
S'state'
p3
aI400
aa(lp4
S'distance'
p5
aF168.16300582885742
aa(lp6
S'timestamp'
p7
aF5.920619010925293
aatp8
Rp9
.ccollections
OrderedDict
p0
((lp1
(lp2
S'state'
p3
aI400
aa(lp4
S'distance'
p5
aF168.16300582885742
aa(lp6
S'timestamp'
p7
aF5.920696973800659
aatp8
Rp9
.ccollections
OrderedDict
p0
((lp1
(lp2
S'state'
p3
aI400
aa(lp4
S'distance'
p5
aF168.16300582885742
aa(lp6
S'timestamp'
p7
aF5.93065881729126
aatp8
Rp9
.ccollections
OrderedDict
p0
((lp1
(lp2
S'state'
p3
aI400
aa(lp4
S'distance'
p5
aF168.16300582885742
aa(lp6
S'timestamp'
p7
aF5.930738925933838
aatp8
Rp9
.ccollections
OrderedDict
p0
((lp1
(lp2
S'state'
p3
aI400
aa(lp4
S'distance'
p5
aF168.16300582885742
aa(lp6
S'timestamp'
p7
aF5.9514219760894775
aatp8
Rp9
.ccollections
OrderedDict
p0
((lp1
(lp2
S'state'
p3
aI400
aa(lp4
S'distance'
p5
aF168.16300582885742
aa(lp6
S'timestamp'
p7
aF5.951841831207275
aatp8
Rp9
.ccollections
OrderedDict
p0
((lp1
(lp2
S'state'
p3
aI400
aa(lp4
S'distance'
p5
aF168.16300582885742
aa(lp6
S'timestamp'
p7
aF5.953226804733276
aatp8
Rp9
.ccollections
OrderedDict
p0
((lp1
(lp2
S'state'
p3
aI400
aa(lp4
S'distance'
p5
aF168.16300582885742
aa(lp6
S'timestamp'
p7
aF5.95423698425293
aatp8
Rp9
.ccollections
OrderedDict
p0
((lp1
(lp2
S'state'
p3
aI400
aa(lp4
S'distance'
p5
aF168.16300582885742
aa(lp6
S'timestamp'
p7
aF5.960146903991699
aatp8
Rp9
.ccollections
OrderedDict
p0
((lp1
(lp2
S'state'
p3
aI400
aa(lp4
S'distance'
p5
aF168.16300582885742
aa(lp6
S'timestamp'
p7
aF5.960356950759888
aatp8
Rp9
.ccollections
OrderedDict
p0
((lp1
(lp2
S'state'
p3
aI0
aa(lp4
S'distance'
p5
aF168.16300582885742
aa(lp6
S'timestamp'
p7
aF5.970883846282959
aatp8
Rp9
.ccollections
OrderedDict
p0
((lp1
(lp2
S'state'
p3
aI0
aa(lp4
S'distance'
p5
aF66.94926452636719
aa(lp6
S'timestamp'
p7
aF6.542878866195679
aatp8
Rp9
.ccollections
OrderedDict
p0
((lp1
(lp2
S'state'
p3
aI0
aa(lp4
S'distance'
p5
aF66.94926452636719
aa(lp6
S'timestamp'
p7
aF6.550541877746582
aatp8
Rp9
.ccollections
OrderedDict
p0
((lp1
(lp2
S'state'
p3
aI0
aa(lp4
S'distance'
p5
aF66.94926452636719
aa(lp6
S'timestamp'
p7
aF6.551057815551758
aatp8
Rp9
.ccollections
OrderedDict
p0
((lp1
(lp2
S'state'
p3
aI0
aa(lp4
S'distance'
p5
aF66.94926452636719
aa(lp6
S'timestamp'
p7
aF6.560724973678589
aatp8
Rp9
.ccollections
OrderedDict
p0
((lp1
(lp2
S'state'
p3
aI0
aa(lp4
S'distance'
p5
aF66.94926452636719
aa(lp6
S'timestamp'
p7
aF6.560913801193237
aatp8
Rp9
.ccollections
OrderedDict
p0
((lp1
(lp2
S'state'
p3
aI0
aa(lp4
S'distance'
p5
aF66.94926452636719
aa(lp6
S'timestamp'
p7
aF6.570491790771484
aatp8
Rp9
.ccollections
OrderedDict
p0
((lp1
(lp2
S'state'
p3
aI0
aa(lp4
S'distance'
p5
aF66.94926452636719
aa(lp6
S'timestamp'
p7
aF6.570567846298218
aatp8
Rp9
.ccollections
OrderedDict
p0
((lp1
(lp2
S'state'
p3
aI0
aa(lp4
S'distance'
p5
aF66.94926452636719
aa(lp6
S'timestamp'
p7
aF6.581743001937866
aatp8
Rp9
.ccollections
OrderedDict
p0
((lp1
(lp2
S'state'
p3
aI0
aa(lp4
S'distance'
p5
aF66.94926452636719
aa(lp6
S'timestamp'
p7
aF6.582088947296143
aatp8
Rp9
.ccollections
OrderedDict
p0
((lp1
(lp2
S'state'
p3
aI0
aa(lp4
S'distance'
p5
aF66.94926452636719
aa(lp6
S'timestamp'
p7
aF6.592629909515381
aatp8
Rp9
.ccollections
OrderedDict
p0
((lp1
(lp2
S'state'
p3
aI0
aa(lp4
S'distance'
p5
aF66.94926452636719
aa(lp6
S'timestamp'
p7
aF6.592726945877075
aatp8
Rp9
.ccollections
OrderedDict
p0
((lp1
(lp2
S'state'
p3
aI0
aa(lp4
S'distance'
p5
aF66.94926452636719
aa(lp6
S'timestamp'
p7
aF6.600725889205933
aatp8
Rp9
.ccollections
OrderedDict
p0
((lp1
(lp2
S'state'
p3
aI0
aa(lp4
S'distance'
p5
aF66.94926452636719
aa(lp6
S'timestamp'
p7
aF6.601048946380615
aatp8
Rp9
.ccollections
OrderedDict
p0
((lp1
(lp2
S'state'
p3
aI0
aa(lp4
S'distance'
p5
aF66.94926452636719
aa(lp6
S'timestamp'
p7
aF6.620114803314209
aatp8
Rp9
.ccollections
OrderedDict
p0
((lp1
(lp2
S'state'
p3
aI0
aa(lp4
S'distance'
p5
aF66.94926452636719
aa(lp6
S'timestamp'
p7
aF6.620927810668945
aatp8
Rp9
.ccollections
OrderedDict
p0
((lp1
(lp2
S'state'
p3
aI0
aa(lp4
S'distance'
p5
aF66.94926452636719
aa(lp6
S'timestamp'
p7
aF6.622185945510864
aatp8
Rp9
.ccollections
OrderedDict
p0
((lp1
(lp2
S'state'
p3
aI0
aa(lp4
S'distance'
p5
aF66.94926452636719
aa(lp6
S'timestamp'
p7
aF6.623104810714722
aatp8
Rp9
.ccollections
OrderedDict
p0
((lp1
(lp2
S'state'
p3
aI0
aa(lp4
S'distance'
p5
aF66.94926452636719
aa(lp6
S'timestamp'
p7
aF6.630433797836304
aatp8
Rp9
.ccollections
OrderedDict
p0
((lp1
(lp2
S'state'
p3
aI0
aa(lp4
S'distance'
p5
aF66.94926452636719
aa(lp6
S'timestamp'
p7
aF6.6315858364105225
aatp8
Rp9
.ccollections
OrderedDict
p0
((lp1
(lp2
S'state'
p3
aI0
aa(lp4
S'distance'
p5
aF66.94926452636719
aa(lp6
S'timestamp'
p7
aF6.641535997390747
aatp8
Rp9
.ccollections
OrderedDict
p0
((lp1
(lp2
S'state'
p3
aI0
aa(lp4
S'distance'
p5
aF66.94926452636719
aa(lp6
S'timestamp'
p7
aF6.641723871231079
aatp8
Rp9
.ccollections
OrderedDict
p0
((lp1
(lp2
S'state'
p3
aI0
aa(lp4
S'distance'
p5
aF66.94926452636719
aa(lp6
S'timestamp'
p7
aF6.650049924850464
aatp8
Rp9
.ccollections
OrderedDict
p0
((lp1
(lp2
S'state'
p3
aI0
aa(lp4
S'distance'
p5
aF66.94926452636719
aa(lp6
S'timestamp'
p7
aF6.65056300163269
aatp8
Rp9
.ccollections
OrderedDict
p0
((lp1
(lp2
S'state'
p3
aI0
aa(lp4
S'distance'
p5
aF66.94926452636719
aa(lp6
S'timestamp'
p7
aF6.660156011581421
aatp8
Rp9
.ccollections
OrderedDict
p0
((lp1
(lp2
S'state'
p3
aI0
aa(lp4
S'distance'
p5
aF66.94926452636719
aa(lp6
S'timestamp'
p7
aF6.6604838371276855
aatp8
Rp9
.ccollections
OrderedDict
p0
((lp1
(lp2
S'state'
p3
aI0
aa(lp4
S'distance'
p5
aF66.94926452636719
aa(lp6
S'timestamp'
p7
aF6.6911139488220215
aatp8
Rp9
.ccollections
OrderedDict
p0
((lp1
(lp2
S'state'
p3
aI0
aa(lp4
S'distance'
p5
aF66.94926452636719
aa(lp6
S'timestamp'
p7
aF6.691316843032837
aatp8
Rp9
.ccollections
OrderedDict
p0
((lp1
(lp2
S'state'
p3
aI0
aa(lp4
S'distance'
p5
aF66.94926452636719
aa(lp6
S'timestamp'
p7
aF6.691514015197754
aatp8
Rp9
.ccollections
OrderedDict
p0
((lp1
(lp2
S'state'
p3
aI0
aa(lp4
S'distance'
p5
aF66.94926452636719
aa(lp6
S'timestamp'
p7
aF6.6915857791900635
aatp8
Rp9
.ccollections
OrderedDict
p0
((lp1
(lp2
S'state'
p3
aI0
aa(lp4
S'distance'
p5
aF66.94926452636719
aa(lp6
S'timestamp'
p7
aF6.700923919677734
aatp8
Rp9
.ccollections
OrderedDict
p0
((lp1
(lp2
S'state'
p3
aI0
aa(lp4
S'distance'
p5
aF66.94926452636719
aa(lp6
S'timestamp'
p7
aF6.7010338306427
aatp8
Rp9
.ccollections
OrderedDict
p0
((lp1
(lp2
S'state'
p3
aI0
aa(lp4
S'distance'
p5
aF66.94926452636719
aa(lp6
S'timestamp'
p7
aF6.7012670040130615
aatp8
Rp9
.ccollections
OrderedDict
p0
((lp1
(lp2
S'state'
p3
aI0
aa(lp4
S'distance'
p5
aF66.94926452636719
aa(lp6
S'timestamp'
p7
aF6.702099800109863
aatp8
Rp9
.ccollections
OrderedDict
p0
((lp1
(lp2
S'state'
p3
aI0
aa(lp4
S'distance'
p5
aF66.94926452636719
aa(lp6
S'timestamp'
p7
aF6.7104668617248535
aatp8
Rp9
.ccollections
OrderedDict
p0
((lp1
(lp2
S'state'
p3
aI0
aa(lp4
S'distance'
p5
aF66.94926452636719
aa(lp6
S'timestamp'
p7
aF6.710536956787109
aatp8
Rp9
.ccollections
OrderedDict
p0
((lp1
(lp2
S'state'
p3
aI0
aa(lp4
S'distance'
p5
aF66.94926452636719
aa(lp6
S'timestamp'
p7
aF6.720249891281128
aatp8
Rp9
.ccollections
OrderedDict
p0
((lp1
(lp2
S'state'
p3
aI0
aa(lp4
S'distance'
p5
aF66.94926452636719
aa(lp6
S'timestamp'
p7
aF6.720893859863281
aatp8
Rp9
.ccollections
OrderedDict
p0
((lp1
(lp2
S'state'
p3
aI0
aa(lp4
S'distance'
p5
aF66.94926452636719
aa(lp6
S'timestamp'
p7
aF6.730397939682007
aatp8
Rp9
.ccollections
OrderedDict
p0
((lp1
(lp2
S'state'
p3
aI0
aa(lp4
S'distance'
p5
aF66.94926452636719
aa(lp6
S'timestamp'
p7
aF6.7305309772491455
aatp8
Rp9
.ccollections
OrderedDict
p0
((lp1
(lp2
S'state'
p3
aI0
aa(lp4
S'distance'
p5
aF66.94926452636719
aa(lp6
S'timestamp'
p7
aF6.740867853164673
aatp8
Rp9
.ccollections
OrderedDict
p0
((lp1
(lp2
S'state'
p3
aI0
aa(lp4
S'distance'
p5
aF66.94926452636719
aa(lp6
S'timestamp'
p7
aF6.7409398555755615
aatp8
Rp9
.ccollections
OrderedDict
p0
((lp1
(lp2
S'state'
p3
aI0
aa(lp4
S'distance'
p5
aF66.94926452636719
aa(lp6
S'timestamp'
p7
aF6.750436782836914
aatp8
Rp9
.ccollections
OrderedDict
p0
((lp1
(lp2
S'state'
p3
aI0
aa(lp4
S'distance'
p5
aF66.94926452636719
aa(lp6
S'timestamp'
p7
aF6.75050687789917
aatp8
Rp9
.ccollections
OrderedDict
p0
((lp1
(lp2
S'state'
p3
aI0
aa(lp4
S'distance'
p5
aF66.94926452636719
aa(lp6
S'timestamp'
p7
aF6.7602739334106445
aatp8
Rp9
.ccollections
OrderedDict
p0
((lp1
(lp2
S'state'
p3
aI0
aa(lp4
S'distance'
p5
aF66.94926452636719
aa(lp6
S'timestamp'
p7
aF6.76086688041687
aatp8
Rp9
.ccollections
OrderedDict
p0
((lp1
(lp2
S'state'
p3
aI0
aa(lp4
S'distance'
p5
aF66.94926452636719
aa(lp6
S'timestamp'
p7
aF6.7704548835754395
aatp8
Rp9
.ccollections
OrderedDict
p0
((lp1
(lp2
S'state'
p3
aI0
aa(lp4
S'distance'
p5
aF66.94926452636719
aa(lp6
S'timestamp'
p7
aF6.7705769538879395
aatp8
Rp9
.ccollections
OrderedDict
p0
((lp1
(lp2
S'state'
p3
aI0
aa(lp4
S'distance'
p5
aF66.94926452636719
aa(lp6
S'timestamp'
p7
aF6.780070781707764
aatp8
Rp9
.ccollections
OrderedDict
p0
((lp1
(lp2
S'state'
p3
aI0
aa(lp4
S'distance'
p5
aF66.94926452636719
aa(lp6
S'timestamp'
p7
aF6.780200004577637
aatp8
Rp9
.ccollections
OrderedDict
p0
((lp1
(lp2
S'state'
p3
aI0
aa(lp4
S'distance'
p5
aF66.94926452636719
aa(lp6
S'timestamp'
p7
aF6.790290832519531
aatp8
Rp9
.ccollections
OrderedDict
p0
((lp1
(lp2
S'state'
p3
aI0
aa(lp4
S'distance'
p5
aF66.94926452636719
aa(lp6
S'timestamp'
p7
aF6.791019916534424
aatp8
Rp9
.ccollections
OrderedDict
p0
((lp1
(lp2
S'state'
p3
aI0
aa(lp4
S'distance'
p5
aF66.94926452636719
aa(lp6
S'timestamp'
p7
aF6.800679922103882
aatp8
Rp9
.ccollections
OrderedDict
p0
((lp1
(lp2
S'state'
p3
aI0
aa(lp4
S'distance'
p5
aF66.94926452636719
aa(lp6
S'timestamp'
p7
aF6.800795793533325
aatp8
Rp9
.ccollections
OrderedDict
p0
((lp1
(lp2
S'state'
p3
aI0
aa(lp4
S'distance'
p5
aF66.94926452636719
aa(lp6
S'timestamp'
p7
aF6.810273885726929
aatp8
Rp9
.ccollections
OrderedDict
p0
((lp1
(lp2
S'state'
p3
aI0
aa(lp4
S'distance'
p5
aF66.94926452636719
aa(lp6
S'timestamp'
p7
aF6.810657978057861
aatp8
Rp9
.ccollections
OrderedDict
p0
((lp1
(lp2
S'state'
p3
aI0
aa(lp4
S'distance'
p5
aF66.94926452636719
aa(lp6
S'timestamp'
p7
aF6.820559978485107
aatp8
Rp9
.ccollections
OrderedDict
p0
((lp1
(lp2
S'state'
p3
aI0
aa(lp4
S'distance'
p5
aF66.94926452636719
aa(lp6
S'timestamp'
p7
aF6.821168899536133
aatp8
Rp9
.ccollections
OrderedDict
p0
((lp1
(lp2
S'state'
p3
aI0
aa(lp4
S'distance'
p5
aF66.94926452636719
aa(lp6
S'timestamp'
p7
aF6.830607891082764
aatp8
Rp9
.ccollections
OrderedDict
p0
((lp1
(lp2
S'state'
p3
aI0
aa(lp4
S'distance'
p5
aF66.94926452636719
aa(lp6
S'timestamp'
p7
aF6.830693006515503
aatp8
Rp9
.ccollections
OrderedDict
p0
((lp1
(lp2
S'state'
p3
aI0
aa(lp4
S'distance'
p5
aF66.94926452636719
aa(lp6
S'timestamp'
p7
aF6.840056896209717
aatp8
Rp9
.ccollections
OrderedDict
p0
((lp1
(lp2
S'state'
p3
aI0
aa(lp4
S'distance'
p5
aF66.94926452636719
aa(lp6
S'timestamp'
p7
aF6.8405067920684814
aatp8
Rp9
.ccollections
OrderedDict
p0
((lp1
(lp2
S'state'
p3
aI0
aa(lp4
S'distance'
p5
aF66.94926452636719
aa(lp6
S'timestamp'
p7
aF6.850564002990723
aatp8
Rp9
.ccollections
OrderedDict
p0
((lp1
(lp2
S'state'
p3
aI0
aa(lp4
S'distance'
p5
aF66.94926452636719
aa(lp6
S'timestamp'
p7
aF6.8506410121917725
aatp8
Rp9
.ccollections
OrderedDict
p0
((lp1
(lp2
S'state'
p3
aI0
aa(lp4
S'distance'
p5
aF66.94926452636719
aa(lp6
S'timestamp'
p7
aF6.860118865966797
aatp8
Rp9
.ccollections
OrderedDict
p0
((lp1
(lp2
S'state'
p3
aI0
aa(lp4
S'distance'
p5
aF66.94926452636719
aa(lp6
S'timestamp'
p7
aF6.861140012741089
aatp8
Rp9
.ccollections
OrderedDict
p0
((lp1
(lp2
S'state'
p3
aI0
aa(lp4
S'distance'
p5
aF66.94926452636719
aa(lp6
S'timestamp'
p7
aF6.870499849319458
aatp8
Rp9
.ccollections
OrderedDict
p0
((lp1
(lp2
S'state'
p3
aI0
aa(lp4
S'distance'
p5
aF66.94926452636719
aa(lp6
S'timestamp'
p7
aF6.870576858520508
aatp8
Rp9
.ccollections
OrderedDict
p0
((lp1
(lp2
S'state'
p3
aI0
aa(lp4
S'distance'
p5
aF66.94926452636719
aa(lp6
S'timestamp'
p7
aF6.88064980506897
aatp8
Rp9
.ccollections
OrderedDict
p0
((lp1
(lp2
S'state'
p3
aI0
aa(lp4
S'distance'
p5
aF66.94926452636719
aa(lp6
S'timestamp'
p7
aF6.880736827850342
aatp8
Rp9
.ccollections
OrderedDict
p0
((lp1
(lp2
S'state'
p3
aI0
aa(lp4
S'distance'
p5
aF66.94926452636719
aa(lp6
S'timestamp'
p7
aF6.89064884185791
aatp8
Rp9
.ccollections
OrderedDict
p0
((lp1
(lp2
S'state'
p3
aI0
aa(lp4
S'distance'
p5
aF66.94926452636719
aa(lp6
S'timestamp'
p7
aF6.8907248973846436
aatp8
Rp9
.ccollections
OrderedDict
p0
((lp1
(lp2
S'state'
p3
aI0
aa(lp4
S'distance'
p5
aF66.94926452636719
aa(lp6
S'timestamp'
p7
aF6.901086807250977
aatp8
Rp9
.ccollections
OrderedDict
p0
((lp1
(lp2
S'state'
p3
aI0
aa(lp4
S'distance'
p5
aF66.94926452636719
aa(lp6
S'timestamp'
p7
aF6.90123987197876
aatp8
Rp9
.ccollections
OrderedDict
p0
((lp1
(lp2
S'state'
p3
aI0
aa(lp4
S'distance'
p5
aF66.94926452636719
aa(lp6
S'timestamp'
p7
aF6.910556793212891
aatp8
Rp9
.ccollections
OrderedDict
p0
((lp1
(lp2
S'state'
p3
aI0
aa(lp4
S'distance'
p5
aF66.94926452636719
aa(lp6
S'timestamp'
p7
aF6.91063380241394
aatp8
Rp9
.ccollections
OrderedDict
p0
((lp1
(lp2
S'state'
p3
aI0
aa(lp4
S'distance'
p5
aF66.94926452636719
aa(lp6
S'timestamp'
p7
aF6.920451879501343
aatp8
Rp9
.ccollections
OrderedDict
p0
((lp1
(lp2
S'state'
p3
aI0
aa(lp4
S'distance'
p5
aF66.94926452636719
aa(lp6
S'timestamp'
p7
aF6.920817852020264
aatp8
Rp9
.ccollections
OrderedDict
p0
((lp1
(lp2
S'state'
p3
aI0
aa(lp4
S'distance'
p5
aF66.94926452636719
aa(lp6
S'timestamp'
p7
aF6.930516958236694
aatp8
Rp9
.ccollections
OrderedDict
p0
((lp1
(lp2
S'state'
p3
aI0
aa(lp4
S'distance'
p5
aF66.94926452636719
aa(lp6
S'timestamp'
p7
aF6.930638790130615
aatp8
Rp9
.ccollections
OrderedDict
p0
((lp1
(lp2
S'state'
p3
aI0
aa(lp4
S'distance'
p5
aF66.94926452636719
aa(lp6
S'timestamp'
p7
aF6.941180944442749
aatp8
Rp9
.ccollections
OrderedDict
p0
((lp1
(lp2
S'state'
p3
aI0
aa(lp4
S'distance'
p5
aF66.94926452636719
aa(lp6
S'timestamp'
p7
aF6.942648887634277
aatp8
Rp9
.ccollections
OrderedDict
p0
((lp1
(lp2
S'state'
p3
aI0
aa(lp4
S'distance'
p5
aF66.94926452636719
aa(lp6
S'timestamp'
p7
aF6.95057487487793
aatp8
Rp9
.ccollections
OrderedDict
p0
((lp1
(lp2
S'state'
p3
aI0
aa(lp4
S'distance'
p5
aF66.94926452636719
aa(lp6
S'timestamp'
p7
aF6.950678825378418
aatp8
Rp9
.ccollections
OrderedDict
p0
((lp1
(lp2
S'state'
p3
aI0
aa(lp4
S'distance'
p5
aF66.94926452636719
aa(lp6
S'timestamp'
p7
aF6.96012282371521
aatp8
Rp9
.ccollections
OrderedDict
p0
((lp1
(lp2
S'state'
p3
aI0
aa(lp4
S'distance'
p5
aF66.94926452636719
aa(lp6
S'timestamp'
p7
aF6.960879802703857
aatp8
Rp9
.ccollections
OrderedDict
p0
((lp1
(lp2
S'state'
p3
aI0
aa(lp4
S'distance'
p5
aF66.94926452636719
aa(lp6
S'timestamp'
p7
aF6.970360994338989
aatp8
Rp9
.ccollections
OrderedDict
p0
((lp1
(lp2
S'state'
p3
aI0
aa(lp4
S'distance'
p5
aF66.94926452636719
aa(lp6
S'timestamp'
p7
aF6.970435857772827
aatp8
Rp9
.ccollections
OrderedDict
p0
((lp1
(lp2
S'state'
p3
aI0
aa(lp4
S'distance'
p5
aF66.94926452636719
aa(lp6
S'timestamp'
p7
aF6.980973958969116
aatp8
Rp9
.ccollections
OrderedDict
p0
((lp1
(lp2
S'state'
p3
aI0
aa(lp4
S'distance'
p5
aF66.94926452636719
aa(lp6
S'timestamp'
p7
aF6.981233835220337
aatp8
Rp9
.ccollections
OrderedDict
p0
((lp1
(lp2
S'state'
p3
aI0
aa(lp4
S'distance'
p5
aF66.94926452636719
aa(lp6
S'timestamp'
p7
aF6.990579843521118
aatp8
Rp9
.ccollections
OrderedDict
p0
((lp1
(lp2
S'state'
p3
aI0
aa(lp4
S'distance'
p5
aF66.94926452636719
aa(lp6
S'timestamp'
p7
aF6.990679979324341
aatp8
Rp9
.ccollections
OrderedDict
p0
((lp1
(lp2
S'state'
p3
aI0
aa(lp4
S'distance'
p5
aF66.94926452636719
aa(lp6
S'timestamp'
p7
aF7.000590801239014
aatp8
Rp9
.ccollections
OrderedDict
p0
((lp1
(lp2
S'state'
p3
aI0
aa(lp4
S'distance'
p5
aF66.94926452636719
aa(lp6
S'timestamp'
p7
aF7.00067400932312
aatp8
Rp9
.ccollections
OrderedDict
p0
((lp1
(lp2
S'state'
p3
aI0
aa(lp4
S'distance'
p5
aF66.94926452636719
aa(lp6
S'timestamp'
p7
aF7.010609865188599
aatp8
Rp9
.ccollections
OrderedDict
p0
((lp1
(lp2
S'state'
p3
aI0
aa(lp4
S'distance'
p5
aF66.94926452636719
aa(lp6
S'timestamp'
p7
aF7.010681867599487
aatp8
Rp9
.ccollections
OrderedDict
p0
((lp1
(lp2
S'state'
p3
aI0
aa(lp4
S'distance'
p5
aF66.94926452636719
aa(lp6
S'timestamp'
p7
aF7.019949913024902
aatp8
Rp9
.ccollections
OrderedDict
p0
((lp1
(lp2
S'state'
p3
aI0
aa(lp4
S'distance'
p5
aF66.94926452636719
aa(lp6
S'timestamp'
p7
aF7.020219802856445
aatp8
Rp9
.ccollections
OrderedDict
p0
((lp1
(lp2
S'state'
p3
aI0
aa(lp4
S'distance'
p5
aF66.94926452636719
aa(lp6
S'timestamp'
p7
aF7.031036853790283
aatp8
Rp9
.ccollections
OrderedDict
p0
((lp1
(lp2
S'state'
p3
aI0
aa(lp4
S'distance'
p5
aF66.94926452636719
aa(lp6
S'timestamp'
p7
aF7.031221866607666
aatp8
Rp9
.ccollections
OrderedDict
p0
((lp1
(lp2
S'state'
p3
aI0
aa(lp4
S'distance'
p5
aF66.94926452636719
aa(lp6
S'timestamp'
p7
aF7.040543794631958
aatp8
Rp9
.ccollections
OrderedDict
p0
((lp1
(lp2
S'state'
p3
aI0
aa(lp4
S'distance'
p5
aF66.94926452636719
aa(lp6
S'timestamp'
p7
aF7.040705919265747
aatp8
Rp9
.ccollections
OrderedDict
p0
((lp1
(lp2
S'state'
p3
aI0
aa(lp4
S'distance'
p5
aF66.94926452636719
aa(lp6
S'timestamp'
p7
aF7.060536861419678
aatp8
Rp9
.ccollections
OrderedDict
p0
((lp1
(lp2
S'state'
p3
aI0
aa(lp4
S'distance'
p5
aF66.94926452636719
aa(lp6
S'timestamp'
p7
aF7.061184883117676
aatp8
Rp9
.ccollections
OrderedDict
p0
((lp1
(lp2
S'state'
p3
aI0
aa(lp4
S'distance'
p5
aF66.94926452636719
aa(lp6
S'timestamp'
p7
aF7.062527894973755
aatp8
Rp9
.ccollections
OrderedDict
p0
((lp1
(lp2
S'state'
p3
aI0
aa(lp4
S'distance'
p5
aF66.94926452636719
aa(lp6
S'timestamp'
p7
aF7.063563823699951
aatp8
Rp9
.ccollections
OrderedDict
p0
((lp1
(lp2
S'state'
p3
aI0
aa(lp4
S'distance'
p5
aF66.94926452636719
aa(lp6
S'timestamp'
p7
aF7.070462942123413
aatp8
Rp9
.ccollections
OrderedDict
p0
((lp1
(lp2
S'state'
p3
aI0
aa(lp4
S'distance'
p5
aF66.94926452636719
aa(lp6
S'timestamp'
p7
aF7.070540904998779
aatp8
Rp9
.ccollections
OrderedDict
p0
((lp1
(lp2
S'state'
p3
aI0
aa(lp4
S'distance'
p5
aF66.94926452636719
aa(lp6
S'timestamp'
p7
aF7.080559015274048
aatp8
Rp9
.ccollections
OrderedDict
p0
((lp1
(lp2
S'state'
p3
aI0
aa(lp4
S'distance'
p5
aF66.94926452636719
aa(lp6
S'timestamp'
p7
aF7.0806357860565186
aatp8
Rp9
.ccollections
OrderedDict
p0
((lp1
(lp2
S'state'
p3
aI0
aa(lp4
S'distance'
p5
aF66.94926452636719
aa(lp6
S'timestamp'
p7
aF7.089914798736572
aatp8
Rp9
.ccollections
OrderedDict
p0
((lp1
(lp2
S'state'
p3
aI0
aa(lp4
S'distance'
p5
aF66.94926452636719
aa(lp6
S'timestamp'
p7
aF7.090293884277344
aatp8
Rp9
.ccollections
OrderedDict
p0
((lp1
(lp2
S'state'
p3
aI0
aa(lp4
S'distance'
p5
aF66.94926452636719
aa(lp6
S'timestamp'
p7
aF7.100020885467529
aatp8
Rp9
.ccollections
OrderedDict
p0
((lp1
(lp2
S'state'
p3
aI0
aa(lp4
S'distance'
p5
aF66.94926452636719
aa(lp6
S'timestamp'
p7
aF7.101252794265747
aatp8
Rp9
.ccollections
OrderedDict
p0
((lp1
(lp2
S'state'
p3
aI0
aa(lp4
S'distance'
p5
aF66.94926452636719
aa(lp6
S'timestamp'
p7
aF7.110592842102051
aatp8
Rp9
.ccollections
OrderedDict
p0
((lp1
(lp2
S'state'
p3
aI0
aa(lp4
S'distance'
p5
aF66.94926452636719
aa(lp6
S'timestamp'
p7
aF7.110708951950073
aatp8
Rp9
.ccollections
OrderedDict
p0
((lp1
(lp2
S'state'
p3
aI0
aa(lp4
S'distance'
p5
aF66.94926452636719
aa(lp6
S'timestamp'
p7
aF7.120514869689941
aatp8
Rp9
.ccollections
OrderedDict
p0
((lp1
(lp2
S'state'
p3
aI0
aa(lp4
S'distance'
p5
aF66.94926452636719
aa(lp6
S'timestamp'
p7
aF7.1205878257751465
aatp8
Rp9
.ccollections
OrderedDict
p0
((lp1
(lp2
S'state'
p3
aI0
aa(lp4
S'distance'
p5
aF66.94926452636719
aa(lp6
S'timestamp'
p7
aF7.1303088665008545
aatp8
Rp9
.ccollections
OrderedDict
p0
((lp1
(lp2
S'state'
p3
aI0
aa(lp4
S'distance'
p5
aF66.94926452636719
aa(lp6
S'timestamp'
p7
aF7.13083291053772
aatp8
Rp9
.ccollections
OrderedDict
p0
((lp1
(lp2
S'state'
p3
aI0
aa(lp4
S'distance'
p5
aF66.94926452636719
aa(lp6
S'timestamp'
p7
aF7.140697002410889
aatp8
Rp9
.ccollections
OrderedDict
p0
((lp1
(lp2
S'state'
p3
aI0
aa(lp4
S'distance'
p5
aF66.94926452636719
aa(lp6
S'timestamp'
p7
aF7.141093015670776
aatp8
Rp9
.ccollections
OrderedDict
p0
((lp1
(lp2
S'state'
p3
aI0
aa(lp4
S'distance'
p5
aF66.94926452636719
aa(lp6
S'timestamp'
p7
aF7.15031099319458
aatp8
Rp9
.ccollections
OrderedDict
p0
((lp1
(lp2
S'state'
p3
aI0
aa(lp4
S'distance'
p5
aF66.94926452636719
aa(lp6
S'timestamp'
p7
aF7.150388956069946
aatp8
Rp9
.ccollections
OrderedDict
p0
((lp1
(lp2
S'state'
p3
aI0
aa(lp4
S'distance'
p5
aF66.94926452636719
aa(lp6
S'timestamp'
p7
aF7.1604719161987305
aatp8
Rp9
.ccollections
OrderedDict
p0
((lp1
(lp2
S'state'
p3
aI0
aa(lp4
S'distance'
p5
aF66.94926452636719
aa(lp6
S'timestamp'
p7
aF7.160547971725464
aatp8
Rp9
.ccollections
OrderedDict
p0
((lp1
(lp2
S'state'
p3
aI0
aa(lp4
S'distance'
p5
aF66.94926452636719
aa(lp6
S'timestamp'
p7
aF7.17053484916687
aatp8
Rp9
.ccollections
OrderedDict
p0
((lp1
(lp2
S'state'
p3
aI0
aa(lp4
S'distance'
p5
aF66.94926452636719
aa(lp6
S'timestamp'
p7
aF7.170608997344971
aatp8
Rp9
.ccollections
OrderedDict
p0
((lp1
(lp2
S'state'
p3
aI0
aa(lp4
S'distance'
p5
aF66.94926452636719
aa(lp6
S'timestamp'
p7
aF7.1809728145599365
aatp8
Rp9
.ccollections
OrderedDict
p0
((lp1
(lp2
S'state'
p3
aI0
aa(lp4
S'distance'
p5
aF66.94926452636719
aa(lp6
S'timestamp'
p7
aF7.181046962738037
aatp8
Rp9
.ccollections
OrderedDict
p0
((lp1
(lp2
S'state'
p3
aI0
aa(lp4
S'distance'
p5
aF66.94926452636719
aa(lp6
S'timestamp'
p7
aF7.190481901168823
aatp8
Rp9
.ccollections
OrderedDict
p0
((lp1
(lp2
S'state'
p3
aI0
aa(lp4
S'distance'
p5
aF66.94926452636719
aa(lp6
S'timestamp'
p7
aF7.190555810928345
aatp8
Rp9
.ccollections
OrderedDict
p0
((lp1
(lp2
S'state'
p3
aI0
aa(lp4
S'distance'
p5
aF66.94926452636719
aa(lp6
S'timestamp'
p7
aF7.200080871582031
aatp8
Rp9
.ccollections
OrderedDict
p0
((lp1
(lp2
S'state'
p3
aI0
aa(lp4
S'distance'
p5
aF66.94926452636719
aa(lp6
S'timestamp'
p7
aF7.2007529735565186
aatp8
Rp9
.ccollections
OrderedDict
p0
((lp1
(lp2
S'state'
p3
aI0
aa(lp4
S'distance'
p5
aF66.94926452636719
aa(lp6
S'timestamp'
p7
aF7.210500955581665
aatp8
Rp9
.ccollections
OrderedDict
p0
((lp1
(lp2
S'state'
p3
aI0
aa(lp4
S'distance'
p5
aF66.94926452636719
aa(lp6
S'timestamp'
p7
aF7.210625886917114
aatp8
Rp9
.ccollections
OrderedDict
p0
((lp1
(lp2
S'state'
p3
aI0
aa(lp4
S'distance'
p5
aF66.94926452636719
aa(lp6
S'timestamp'
p7
aF7.219871997833252
aatp8
Rp9
.ccollections
OrderedDict
p0
((lp1
(lp2
S'state'
p3
aI0
aa(lp4
S'distance'
p5
aF66.94926452636719
aa(lp6
S'timestamp'
p7
aF7.220826864242554
aatp8
Rp9
.ccollections
OrderedDict
p0
((lp1
(lp2
S'state'
p3
aI0
aa(lp4
S'distance'
p5
aF66.94926452636719
aa(lp6
S'timestamp'
p7
aF7.2311108112335205
aatp8
Rp9
.ccollections
OrderedDict
p0
((lp1
(lp2
S'state'
p3
aI0
aa(lp4
S'distance'
p5
aF66.94926452636719
aa(lp6
S'timestamp'
p7
aF7.231353998184204
aatp8
Rp9
.ccollections
OrderedDict
p0
((lp1
(lp2
S'state'
p3
aI0
aa(lp4
S'distance'
p5
aF66.94926452636719
aa(lp6
S'timestamp'
p7
aF7.2404868602752686
aatp8
Rp9
.ccollections
OrderedDict
p0
((lp1
(lp2
S'state'
p3
aI0
aa(lp4
S'distance'
p5
aF66.94926452636719
aa(lp6
S'timestamp'
p7
aF7.2415289878845215
aatp8
Rp9
.ccollections
OrderedDict
p0
((lp1
(lp2
S'state'
p3
aI0
aa(lp4
S'distance'
p5
aF66.94926452636719
aa(lp6
S'timestamp'
p7
aF7.251799821853638
aatp8
Rp9
.ccollections
OrderedDict
p0
((lp1
(lp2
S'state'
p3
aI0
aa(lp4
S'distance'
p5
aF66.94926452636719
aa(lp6
S'timestamp'
p7
aF7.252602815628052
aatp8
Rp9
.ccollections
OrderedDict
p0
((lp1
(lp2
S'state'
p3
aI0
aa(lp4
S'distance'
p5
aF66.94926452636719
aa(lp6
S'timestamp'
p7
aF7.261217832565308
aatp8
Rp9
.ccollections
OrderedDict
p0
((lp1
(lp2
S'state'
p3
aI0
aa(lp4
S'distance'
p5
aF66.94926452636719
aa(lp6
S'timestamp'
p7
aF7.2624289989471436
aatp8
Rp9
.ccollections
OrderedDict
p0
((lp1
(lp2
S'state'
p3
aI0
aa(lp4
S'distance'
p5
aF66.94926452636719
aa(lp6
S'timestamp'
p7
aF7.271612882614136
aatp8
Rp9
.ccollections
OrderedDict
p0
((lp1
(lp2
S'state'
p3
aI0
aa(lp4
S'distance'
p5
aF66.94926452636719
aa(lp6
S'timestamp'
p7
aF7.2717039585113525
aatp8
Rp9
.ccollections
OrderedDict
p0
((lp1
(lp2
S'state'
p3
aI0
aa(lp4
S'distance'
p5
aF66.94926452636719
aa(lp6
S'timestamp'
p7
aF7.281097888946533
aatp8
Rp9
.ccollections
OrderedDict
p0
((lp1
(lp2
S'state'
p3
aI0
aa(lp4
S'distance'
p5
aF66.94926452636719
aa(lp6
S'timestamp'
p7
aF7.281343936920166
aatp8
Rp9
.ccollections
OrderedDict
p0
((lp1
(lp2
S'state'
p3
aI0
aa(lp4
S'distance'
p5
aF66.94926452636719
aa(lp6
S'timestamp'
p7
aF7.290381908416748
aatp8
Rp9
.ccollections
OrderedDict
p0
((lp1
(lp2
S'state'
p3
aI0
aa(lp4
S'distance'
p5
aF66.94926452636719
aa(lp6
S'timestamp'
p7
aF7.291014909744263
aatp8
Rp9
.ccollections
OrderedDict
p0
((lp1
(lp2
S'state'
p3
aI0
aa(lp4
S'distance'
p5
aF66.94926452636719
aa(lp6
S'timestamp'
p7
aF7.300877809524536
aatp8
Rp9
.ccollections
OrderedDict
p0
((lp1
(lp2
S'state'
p3
aI0
aa(lp4
S'distance'
p5
aF66.94926452636719
aa(lp6
S'timestamp'
p7
aF7.301044940948486
aatp8
Rp9
.ccollections
OrderedDict
p0
((lp1
(lp2
S'state'
p3
aI0
aa(lp4
S'distance'
p5
aF66.94926452636719
aa(lp6
S'timestamp'
p7
aF7.309957981109619
aatp8
Rp9
.ccollections
OrderedDict
p0
((lp1
(lp2
S'state'
p3
aI0
aa(lp4
S'distance'
p5
aF66.94926452636719
aa(lp6
S'timestamp'
p7
aF7.3106348514556885
aatp8
Rp9
.ccollections
OrderedDict
p0
((lp1
(lp2
S'state'
p3
aI0
aa(lp4
S'distance'
p5
aF66.94926452636719
aa(lp6
S'timestamp'
p7
aF7.319961786270142
aatp8
Rp9
.ccollections
OrderedDict
p0
((lp1
(lp2
S'state'
p3
aI0
aa(lp4
S'distance'
p5
aF66.94926452636719
aa(lp6
S'timestamp'
p7
aF7.320746898651123
aatp8
Rp9
.ccollections
OrderedDict
p0
((lp1
(lp2
S'state'
p3
aI0
aa(lp4
S'distance'
p5
aF66.94926452636719
aa(lp6
S'timestamp'
p7
aF7.329765796661377
aatp8
Rp9
.ccollections
OrderedDict
p0
((lp1
(lp2
S'state'
p3
aI0
aa(lp4
S'distance'
p5
aF66.94926452636719
aa(lp6
S'timestamp'
p7
aF7.330208778381348
aatp8
Rp9
.ccollections
OrderedDict
p0
((lp1
(lp2
S'state'
p3
aI0
aa(lp4
S'distance'
p5
aF66.94926452636719
aa(lp6
S'timestamp'
p7
aF7.340731859207153
aatp8
Rp9
.ccollections
OrderedDict
p0
((lp1
(lp2
S'state'
p3
aI0
aa(lp4
S'distance'
p5
aF66.94926452636719
aa(lp6
S'timestamp'
p7
aF7.341020822525024
aatp8
Rp9
.ccollections
OrderedDict
p0
((lp1
(lp2
S'state'
p3
aI0
aa(lp4
S'distance'
p5
aF66.94926452636719
aa(lp6
S'timestamp'
p7
aF7.350140810012817
aatp8
Rp9
.ccollections
OrderedDict
p0
((lp1
(lp2
S'state'
p3
aI0
aa(lp4
S'distance'
p5
aF66.94926452636719
aa(lp6
S'timestamp'
p7
aF7.350768804550171
aatp8
Rp9
.ccollections
OrderedDict
p0
((lp1
(lp2
S'state'
p3
aI0
aa(lp4
S'distance'
p5
aF66.94926452636719
aa(lp6
S'timestamp'
p7
aF7.360032796859741
aatp8
Rp9
.ccollections
OrderedDict
p0
((lp1
(lp2
S'state'
p3
aI0
aa(lp4
S'distance'
p5
aF66.94926452636719
aa(lp6
S'timestamp'
p7
aF7.370121002197266
aatp8
Rp9
.ccollections
OrderedDict
p0
((lp1
(lp2
S'state'
p3
aI0
aa(lp4
S'distance'
p5
aF66.94926452636719
aa(lp6
S'timestamp'
p7
aF7.370944976806641
aatp8
Rp9
.ccollections
OrderedDict
p0
((lp1
(lp2
S'state'
p3
aI0
aa(lp4
S'distance'
p5
aF66.94926452636719
aa(lp6
S'timestamp'
p7
aF7.37106990814209
aatp8
Rp9
.ccollections
OrderedDict
p0
((lp1
(lp2
S'state'
p3
aI0
aa(lp4
S'distance'
p5
aF66.94926452636719
aa(lp6
S'timestamp'
p7
aF7.379964828491211
aatp8
Rp9
.ccollections
OrderedDict
p0
((lp1
(lp2
S'state'
p3
aI0
aa(lp4
S'distance'
p5
aF66.94926452636719
aa(lp6
S'timestamp'
p7
aF7.380853891372681
aatp8
Rp9
.ccollections
OrderedDict
p0
((lp1
(lp2
S'state'
p3
aI0
aa(lp4
S'distance'
p5
aF66.94926452636719
aa(lp6
S'timestamp'
p7
aF7.390585899353027
aatp8
Rp9
.ccollections
OrderedDict
p0
((lp1
(lp2
S'state'
p3
aI0
aa(lp4
S'distance'
p5
aF66.94926452636719
aa(lp6
S'timestamp'
p7
aF7.390659809112549
aatp8
Rp9
.ccollections
OrderedDict
p0
((lp1
(lp2
S'state'
p3
aI0
aa(lp4
S'distance'
p5
aF66.94926452636719
aa(lp6
S'timestamp'
p7
aF7.410187005996704
aatp8
Rp9
.ccollections
OrderedDict
p0
((lp1
(lp2
S'state'
p3
aI0
aa(lp4
S'distance'
p5
aF66.94926452636719
aa(lp6
S'timestamp'
p7
aF7.41058087348938
aatp8
Rp9
.ccollections
OrderedDict
p0
((lp1
(lp2
S'state'
p3
aI0
aa(lp4
S'distance'
p5
aF66.94926452636719
aa(lp6
S'timestamp'
p7
aF7.411276817321777
aatp8
Rp9
.ccollections
OrderedDict
p0
((lp1
(lp2
S'state'
p3
aI0
aa(lp4
S'distance'
p5
aF66.94926452636719
aa(lp6
S'timestamp'
p7
aF7.412313938140869
aatp8
Rp9
.ccollections
OrderedDict
p0
((lp1
(lp2
S'state'
p3
aI0
aa(lp4
S'distance'
p5
aF66.94926452636719
aa(lp6
S'timestamp'
p7
aF7.440087795257568
aatp8
Rp9
.ccollections
OrderedDict
p0
((lp1
(lp2
S'state'
p3
aI0
aa(lp4
S'distance'
p5
aF66.94926452636719
aa(lp6
S'timestamp'
p7
aF7.440495014190674
aatp8
Rp9
.ccollections
OrderedDict
p0
((lp1
(lp2
S'state'
p3
aI0
aa(lp4
S'distance'
p5
aF66.94926452636719
aa(lp6
S'timestamp'
p7
aF7.441366910934448
aatp8
Rp9
.ccollections
OrderedDict
p0
((lp1
(lp2
S'state'
p3
aI0
aa(lp4
S'distance'
p5
aF66.94926452636719
aa(lp6
S'timestamp'
p7
aF7.442442893981934
aatp8
Rp9
.ccollections
OrderedDict
p0
((lp1
(lp2
S'state'
p3
aI0
aa(lp4
S'distance'
p5
aF66.94926452636719
aa(lp6
S'timestamp'
p7
aF7.450257778167725
aatp8
Rp9
.ccollections
OrderedDict
p0
((lp1
(lp2
S'state'
p3
aI0
aa(lp4
S'distance'
p5
aF66.94926452636719
aa(lp6
S'timestamp'
p7
aF7.450474977493286
aatp8
Rp9
.ccollections
OrderedDict
p0
((lp1
(lp2
S'state'
p3
aI0
aa(lp4
S'distance'
p5
aF66.94926452636719
aa(lp6
S'timestamp'
p7
aF7.451192855834961
aatp8
Rp9
.ccollections
OrderedDict
p0
((lp1
(lp2
S'state'
p3
aI0
aa(lp4
S'distance'
p5
aF66.94926452636719
aa(lp6
S'timestamp'
p7
aF7.452138900756836
aatp8
Rp9
.ccollections
OrderedDict
p0
((lp1
(lp2
S'state'
p3
aI0
aa(lp4
S'distance'
p5
aF66.94926452636719
aa(lp6
S'timestamp'
p7
aF7.461223840713501
aatp8
Rp9
.ccollections
OrderedDict
p0
((lp1
(lp2
S'state'
p3
aI0
aa(lp4
S'distance'
p5
aF66.94926452636719
aa(lp6
S'timestamp'
p7
aF7.4614949226379395
aatp8
Rp9
.ccollections
OrderedDict
p0
((lp1
(lp2
S'state'
p3
aI0
aa(lp4
S'distance'
p5
aF66.94926452636719
aa(lp6
S'timestamp'
p7
aF7.470628976821899
aatp8
Rp9
.ccollections
OrderedDict
p0
((lp1
(lp2
S'state'
p3
aI0
aa(lp4
S'distance'
p5
aF66.94926452636719
aa(lp6
S'timestamp'
p7
aF7.470698833465576
aatp8
Rp9
.ccollections
OrderedDict
p0
((lp1
(lp2
S'state'
p3
aI0
aa(lp4
S'distance'
p5
aF66.94926452636719
aa(lp6
S'timestamp'
p7
aF7.480355978012085
aatp8
Rp9
.ccollections
OrderedDict
p0
((lp1
(lp2
S'state'
p3
aI0
aa(lp4
S'distance'
p5
aF66.94926452636719
aa(lp6
S'timestamp'
p7
aF7.480723857879639
aatp8
Rp9
.ccollections
OrderedDict
p0
((lp1
(lp2
S'state'
p3
aI0
aa(lp4
S'distance'
p5
aF66.94926452636719
aa(lp6
S'timestamp'
p7
aF7.490200996398926
aatp8
Rp9
.ccollections
OrderedDict
p0
((lp1
(lp2
S'state'
p3
aI0
aa(lp4
S'distance'
p5
aF66.94926452636719
aa(lp6
S'timestamp'
p7
aF7.490972995758057
aatp8
Rp9
.ccollections
OrderedDict
p0
((lp1
(lp2
S'state'
p3
aI0
aa(lp4
S'distance'
p5
aF66.94926452636719
aa(lp6
S'timestamp'
p7
aF7.510250806808472
aatp8
Rp9
.ccollections
OrderedDict
p0
((lp1
(lp2
S'state'
p3
aI0
aa(lp4
S'distance'
p5
aF66.94926452636719
aa(lp6
S'timestamp'
p7
aF7.5105109214782715
aatp8
Rp9
.ccollections
OrderedDict
p0
((lp1
(lp2
S'state'
p3
aI0
aa(lp4
S'distance'
p5
aF66.94926452636719
aa(lp6
S'timestamp'
p7
aF7.510623931884766
aatp8
Rp9
.ccollections
OrderedDict
p0
((lp1
(lp2
S'state'
p3
aI0
aa(lp4
S'distance'
p5
aF66.94926452636719
aa(lp6
S'timestamp'
p7
aF7.519800901412964
aatp8
Rp9
.ccollections
OrderedDict
p0
((lp1
(lp2
S'state'
p3
aI0
aa(lp4
S'distance'
p5
aF66.94926452636719
aa(lp6
S'timestamp'
p7
aF7.521575927734375
aatp8
Rp9
.ccollections
OrderedDict
p0
((lp1
(lp2
S'state'
p3
aI0
aa(lp4
S'distance'
p5
aF66.94926452636719
aa(lp6
S'timestamp'
p7
aF7.521751880645752
aatp8
Rp9
.ccollections
OrderedDict
p0
((lp1
(lp2
S'state'
p3
aI0
aa(lp4
S'distance'
p5
aF66.94926452636719
aa(lp6
S'timestamp'
p7
aF7.529895782470703
aatp8
Rp9
.ccollections
OrderedDict
p0
((lp1
(lp2
S'state'
p3
aI0
aa(lp4
S'distance'
p5
aF66.94926452636719
aa(lp6
S'timestamp'
p7
aF7.530289888381958
aatp8
Rp9
.ccollections
OrderedDict
p0
((lp1
(lp2
S'state'
p3
aI0
aa(lp4
S'distance'
p5
aF66.94926452636719
aa(lp6
S'timestamp'
p7
aF7.540818929672241
aatp8
Rp9
.ccollections
OrderedDict
p0
((lp1
(lp2
S'state'
p3
aI0
aa(lp4
S'distance'
p5
aF66.94926452636719
aa(lp6
S'timestamp'
p7
aF7.541086912155151
aatp8
Rp9
.ccollections
OrderedDict
p0
((lp1
(lp2
S'state'
p3
aI0
aa(lp4
S'distance'
p5
aF66.94926452636719
aa(lp6
S'timestamp'
p7
aF7.550536870956421
aatp8
Rp9
.ccollections
OrderedDict
p0
((lp1
(lp2
S'state'
p3
aI0
aa(lp4
S'distance'
p5
aF66.94926452636719
aa(lp6
S'timestamp'
p7
aF7.550622940063477
aatp8
Rp9
.ccollections
OrderedDict
p0
((lp1
(lp2
S'state'
p3
aI0
aa(lp4
S'distance'
p5
aF66.94926452636719
aa(lp6
S'timestamp'
p7
aF7.560340881347656
aatp8
Rp9
.ccollections
OrderedDict
p0
((lp1
(lp2
S'state'
p3
aI0
aa(lp4
S'distance'
p5
aF66.94926452636719
aa(lp6
S'timestamp'
p7
aF7.5604798793792725
aatp8
Rp9
.ccollections
OrderedDict
p0
((lp1
(lp2
S'state'
p3
aI0
aa(lp4
S'distance'
p5
aF66.94926452636719
aa(lp6
S'timestamp'
p7
aF7.570521831512451
aatp8
Rp9
.ccollections
OrderedDict
p0
((lp1
(lp2
S'state'
p3
aI0
aa(lp4
S'distance'
p5
aF66.94926452636719
aa(lp6
S'timestamp'
p7
aF7.570624828338623
aatp8
Rp9
.ccollections
OrderedDict
p0
((lp1
(lp2
S'state'
p3
aI0
aa(lp4
S'distance'
p5
aF66.94926452636719
aa(lp6
S'timestamp'
p7
aF7.580737829208374
aatp8
Rp9
.ccollections
OrderedDict
p0
((lp1
(lp2
S'state'
p3
aI0
aa(lp4
S'distance'
p5
aF66.94926452636719
aa(lp6
S'timestamp'
p7
aF7.580875873565674
aatp8
Rp9
.ccollections
OrderedDict
p0
((lp1
(lp2
S'state'
p3
aI0
aa(lp4
S'distance'
p5
aF66.94926452636719
aa(lp6
S'timestamp'
p7
aF7.590127944946289
aatp8
Rp9
.ccollections
OrderedDict
p0
((lp1
(lp2
S'state'
p3
aI0
aa(lp4
S'distance'
p5
aF66.94926452636719
aa(lp6
S'timestamp'
p7
aF7.590882778167725
aatp8
Rp9
.ccollections
OrderedDict
p0
((lp1
(lp2
S'state'
p3
aI0
aa(lp4
S'distance'
p5
aF66.94926452636719
aa(lp6
S'timestamp'
p7
aF7.599860906600952
aatp8
Rp9
.ccollections
OrderedDict
p0
((lp1
(lp2
S'state'
p3
aI0
aa(lp4
S'distance'
p5
aF66.94926452636719
aa(lp6
S'timestamp'
p7
aF7.60071587562561
aatp8
Rp9
.ccollections
OrderedDict
p0
((lp1
(lp2
S'state'
p3
aI0
aa(lp4
S'distance'
p5
aF66.94926452636719
aa(lp6
S'timestamp'
p7
aF7.609802007675171
aatp8
Rp9
.ccollections
OrderedDict
p0
((lp1
(lp2
S'state'
p3
aI0
aa(lp4
S'distance'
p5
aF66.94926452636719
aa(lp6
S'timestamp'
p7
aF7.610378980636597
aatp8
Rp9
.ccollections
OrderedDict
p0
((lp1
(lp2
S'state'
p3
aI0
aa(lp4
S'distance'
p5
aF66.94926452636719
aa(lp6
S'timestamp'
p7
aF7.619858980178833
aatp8
Rp9
.ccollections
OrderedDict
p0
((lp1
(lp2
S'state'
p3
aI0
aa(lp4
S'distance'
p5
aF66.94926452636719
aa(lp6
S'timestamp'
p7
aF7.6207499504089355
aatp8
Rp9
.ccollections
OrderedDict
p0
((lp1
(lp2
S'state'
p3
aI0
aa(lp4
S'distance'
p5
aF66.94926452636719
aa(lp6
S'timestamp'
p7
aF7.630181789398193
aatp8
Rp9
.ccollections
OrderedDict
p0
((lp1
(lp2
S'state'
p3
aI0
aa(lp4
S'distance'
p5
aF66.94926452636719
aa(lp6
S'timestamp'
p7
aF7.630857944488525
aatp8
Rp9
.ccollections
OrderedDict
p0
((lp1
(lp2
S'state'
p3
aI0
aa(lp4
S'distance'
p5
aF66.94926452636719
aa(lp6
S'timestamp'
p7
aF7.650404930114746
aatp8
Rp9
.ccollections
OrderedDict
p0
((lp1
(lp2
S'state'
p3
aI0
aa(lp4
S'distance'
p5
aF66.94926452636719
aa(lp6
S'timestamp'
p7
aF7.650688886642456
aatp8
Rp9
.ccollections
OrderedDict
p0
((lp1
(lp2
S'state'
p3
aI0
aa(lp4
S'distance'
p5
aF66.94926452636719
aa(lp6
S'timestamp'
p7
aF7.650826930999756
aatp8
Rp9
.ccollections
OrderedDict
p0
((lp1
(lp2
S'state'
p3
aI0
aa(lp4
S'distance'
p5
aF66.94926452636719
aa(lp6
S'timestamp'
p7
aF7.651144981384277
aatp8
Rp9
.ccollections
OrderedDict
p0
((lp1
(lp2
S'state'
p3
aI0
aa(lp4
S'distance'
p5
aF66.94926452636719
aa(lp6
S'timestamp'
p7
aF7.66071081161499
aatp8
Rp9
.ccollections
OrderedDict
p0
((lp1
(lp2
S'state'
p3
aI0
aa(lp4
S'distance'
p5
aF66.94926452636719
aa(lp6
S'timestamp'
p7
aF7.661312818527222
aatp8
Rp9
.ccollections
OrderedDict
p0
((lp1
(lp2
S'state'
p3
aI0
aa(lp4
S'distance'
p5
aF66.94926452636719
aa(lp6
S'timestamp'
p7
aF7.669968843460083
aatp8
Rp9
.ccollections
OrderedDict
p0
((lp1
(lp2
S'state'
p3
aI0
aa(lp4
S'distance'
p5
aF66.94926452636719
aa(lp6
S'timestamp'
p7
aF7.670846939086914
aatp8
Rp9
.ccollections
OrderedDict
p0
((lp1
(lp2
S'state'
p3
aI0
aa(lp4
S'distance'
p5
aF66.94926452636719
aa(lp6
S'timestamp'
p7
aF7.679847955703735
aatp8
Rp9
.ccollections
OrderedDict
p0
((lp1
(lp2
S'state'
p3
aI0
aa(lp4
S'distance'
p5
aF66.94926452636719
aa(lp6
S'timestamp'
p7
aF7.680511951446533
aatp8
Rp9
.ccollections
OrderedDict
p0
((lp1
(lp2
S'state'
p3
aI0
aa(lp4
S'distance'
p5
aF66.94926452636719
aa(lp6
S'timestamp'
p7
aF7.689953804016113
aatp8
Rp9
.ccollections
OrderedDict
p0
((lp1
(lp2
S'state'
p3
aI0
aa(lp4
S'distance'
p5
aF66.94926452636719
aa(lp6
S'timestamp'
p7
aF7.690825939178467
aatp8
Rp9
.ccollections
OrderedDict
p0
((lp1
(lp2
S'state'
p3
aI0
aa(lp4
S'distance'
p5
aF66.94926452636719
aa(lp6
S'timestamp'
p7
aF7.699792861938477
aatp8
Rp9
.ccollections
OrderedDict
p0
((lp1
(lp2
S'state'
p3
aI0
aa(lp4
S'distance'
p5
aF66.94926452636719
aa(lp6
S'timestamp'
p7
aF7.700612783432007
aatp8
Rp9
.ccollections
OrderedDict
p0
((lp1
(lp2
S'state'
p3
aI0
aa(lp4
S'distance'
p5
aF66.94926452636719
aa(lp6
S'timestamp'
p7
aF7.710572004318237
aatp8
Rp9
.ccollections
OrderedDict
p0
((lp1
(lp2
S'state'
p3
aI0
aa(lp4
S'distance'
p5
aF66.94926452636719
aa(lp6
S'timestamp'
p7
aF7.710649013519287
aatp8
Rp9
.ccollections
OrderedDict
p0
((lp1
(lp2
S'state'
p3
aI0
aa(lp4
S'distance'
p5
aF66.94926452636719
aa(lp6
S'timestamp'
p7
aF7.7308759689331055
aatp8
Rp9
.ccollections
OrderedDict
p0
((lp1
(lp2
S'state'
p3
aI0
aa(lp4
S'distance'
p5
aF66.94926452636719
aa(lp6
S'timestamp'
p7
aF7.731635808944702
aatp8
Rp9
.ccollections
OrderedDict
p0
((lp1
(lp2
S'state'
p3
aI0
aa(lp4
S'distance'
p5
aF66.94926452636719
aa(lp6
S'timestamp'
p7
aF7.731834888458252
aatp8
Rp9
.ccollections
OrderedDict
p0
((lp1
(lp2
S'state'
p3
aI0
aa(lp4
S'distance'
p5
aF66.94926452636719
aa(lp6
S'timestamp'
p7
aF7.7320568561553955
aatp8
Rp9
.ccollections
OrderedDict
p0
((lp1
(lp2
S'state'
p3
aI0
aa(lp4
S'distance'
p5
aF66.94926452636719
aa(lp6
S'timestamp'
p7
aF7.7399067878723145
aatp8
Rp9
.ccollections
OrderedDict
p0
((lp1
(lp2
S'state'
p3
aI0
aa(lp4
S'distance'
p5
aF66.94926452636719
aa(lp6
S'timestamp'
p7
aF7.740869998931885
aatp8
Rp9
.ccollections
OrderedDict
p0
((lp1
(lp2
S'state'
p3
aI0
aa(lp4
S'distance'
p5
aF66.94926452636719
aa(lp6
S'timestamp'
p7
aF7.7501068115234375
aatp8
Rp9
.ccollections
OrderedDict
p0
((lp1
(lp2
S'state'
p3
aI0
aa(lp4
S'distance'
p5
aF66.94926452636719
aa(lp6
S'timestamp'
p7
aF7.750995874404907
aatp8
Rp9
.ccollections
OrderedDict
p0
((lp1
(lp2
S'state'
p3
aI0
aa(lp4
S'distance'
p5
aF66.94926452636719
aa(lp6
S'timestamp'
p7
aF7.760513782501221
aatp8
Rp9
.ccollections
OrderedDict
p0
((lp1
(lp2
S'state'
p3
aI0
aa(lp4
S'distance'
p5
aF66.94926452636719
aa(lp6
S'timestamp'
p7
aF7.760592937469482
aatp8
Rp9
.ccollections
OrderedDict
p0
((lp1
(lp2
S'state'
p3
aI0
aa(lp4
S'distance'
p5
aF66.94926452636719
aa(lp6
S'timestamp'
p7
aF7.770534992218018
aatp8
Rp9
.ccollections
OrderedDict
p0
((lp1
(lp2
S'state'
p3
aI0
aa(lp4
S'distance'
p5
aF66.94926452636719
aa(lp6
S'timestamp'
p7
aF7.770678997039795
aatp8
Rp9
.ccollections
OrderedDict
p0
((lp1
(lp2
S'state'
p3
aI0
aa(lp4
S'distance'
p5
aF66.94926452636719
aa(lp6
S'timestamp'
p7
aF7.780052900314331
aatp8
Rp9
.ccollections
OrderedDict
p0
((lp1
(lp2
S'state'
p3
aI0
aa(lp4
S'distance'
p5
aF66.94926452636719
aa(lp6
S'timestamp'
p7
aF7.780389785766602
aatp8
Rp9
.ccollections
OrderedDict
p0
((lp1
(lp2
S'state'
p3
aI0
aa(lp4
S'distance'
p5
aF66.94926452636719
aa(lp6
S'timestamp'
p7
aF7.800189971923828
aatp8
Rp9
.ccollections
OrderedDict
p0
((lp1
(lp2
S'state'
p3
aI0
aa(lp4
S'distance'
p5
aF66.94926452636719
aa(lp6
S'timestamp'
p7
aF7.801303863525391
aatp8
Rp9
.ccollections
OrderedDict
p0
((lp1
(lp2
S'state'
p3
aI0
aa(lp4
S'distance'
p5
aF66.94926452636719
aa(lp6
S'timestamp'
p7
aF7.801387786865234
aatp8
Rp9
.ccollections
OrderedDict
p0
((lp1
(lp2
S'state'
p3
aI0
aa(lp4
S'distance'
p5
aF66.94926452636719
aa(lp6
S'timestamp'
p7
aF7.80167293548584
aatp8
Rp9
.ccollections
OrderedDict
p0
((lp1
(lp2
S'state'
p3
aI0
aa(lp4
S'distance'
p5
aF66.94926452636719
aa(lp6
S'timestamp'
p7
aF7.810594797134399
aatp8
Rp9
.ccollections
OrderedDict
p0
((lp1
(lp2
S'state'
p3
aI0
aa(lp4
S'distance'
p5
aF66.94926452636719
aa(lp6
S'timestamp'
p7
aF7.810666799545288
aatp8
Rp9
.ccollections
OrderedDict
p0
((lp1
(lp2
S'state'
p3
aI0
aa(lp4
S'distance'
p5
aF66.94926452636719
aa(lp6
S'timestamp'
p7
aF7.820468902587891
aatp8
Rp9
.ccollections
OrderedDict
p0
((lp1
(lp2
S'state'
p3
aI0
aa(lp4
S'distance'
p5
aF66.94926452636719
aa(lp6
S'timestamp'
p7
aF7.822613954544067
aatp8
Rp9
.ccollections
OrderedDict
p0
((lp1
(lp2
S'state'
p3
aI0
aa(lp4
S'distance'
p5
aF66.94926452636719
aa(lp6
S'timestamp'
p7
aF7.831101894378662
aatp8
Rp9
.ccollections
OrderedDict
p0
((lp1
(lp2
S'state'
p3
aI0
aa(lp4
S'distance'
p5
aF66.94926452636719
aa(lp6
S'timestamp'
p7
aF7.831766843795776
aatp8
Rp9
.ccollections
OrderedDict
p0
((lp1
(lp2
S'state'
p3
aI0
aa(lp4
S'distance'
p5
aF66.94926452636719
aa(lp6
S'timestamp'
p7
aF7.840158939361572
aatp8
Rp9
.ccollections
OrderedDict
p0
((lp1
(lp2
S'state'
p3
aI0
aa(lp4
S'distance'
p5
aF66.94926452636719
aa(lp6
S'timestamp'
p7
aF7.840582847595215
aatp8
Rp9
.ccollections
OrderedDict
p0
((lp1
(lp2
S'state'
p3
aI0
aa(lp4
S'distance'
p5
aF66.94926452636719
aa(lp6
S'timestamp'
p7
aF7.850129842758179
aatp8
Rp9
.ccollections
OrderedDict
p0
((lp1
(lp2
S'state'
p3
aI0
aa(lp4
S'distance'
p5
aF66.94926452636719
aa(lp6
S'timestamp'
p7
aF7.850293874740601
aatp8
Rp9
.ccollections
OrderedDict
p0
((lp1
(lp2
S'state'
p3
aI0
aa(lp4
S'distance'
p5
aF66.94926452636719
aa(lp6
S'timestamp'
p7
aF7.860229015350342
aatp8
Rp9
.ccollections
OrderedDict
p0
((lp1
(lp2
S'state'
p3
aI0
aa(lp4
S'distance'
p5
aF66.94926452636719
aa(lp6
S'timestamp'
p7
aF7.860386848449707
aatp8
Rp9
.ccollections
OrderedDict
p0
((lp1
(lp2
S'state'
p3
aI0
aa(lp4
S'distance'
p5
aF66.94926452636719
aa(lp6
S'timestamp'
p7
aF7.869952917098999
aatp8
Rp9
.ccollections
OrderedDict
p0
((lp1
(lp2
S'state'
p3
aI0
aa(lp4
S'distance'
p5
aF66.94926452636719
aa(lp6
S'timestamp'
p7
aF7.870591878890991
aatp8
Rp9
.ccollections
OrderedDict
p0
((lp1
(lp2
S'state'
p3
aI0
aa(lp4
S'distance'
p5
aF66.94926452636719
aa(lp6
S'timestamp'
p7
aF7.8799779415130615
aatp8
Rp9
.ccollections
OrderedDict
p0
((lp1
(lp2
S'state'
p3
aI0
aa(lp4
S'distance'
p5
aF66.94926452636719
aa(lp6
S'timestamp'
p7
aF7.880270957946777
aatp8
Rp9
.ccollections
OrderedDict
p0
((lp1
(lp2
S'state'
p3
aI0
aa(lp4
S'distance'
p5
aF66.94926452636719
aa(lp6
S'timestamp'
p7
aF7.8899078369140625
aatp8
Rp9
.ccollections
OrderedDict
p0
((lp1
(lp2
S'state'
p3
aI0
aa(lp4
S'distance'
p5
aF66.94926452636719
aa(lp6
S'timestamp'
p7
aF7.890716791152954
aatp8
Rp9
.ccollections
OrderedDict
p0
((lp1
(lp2
S'state'
p3
aI0
aa(lp4
S'distance'
p5
aF66.94926452636719
aa(lp6
S'timestamp'
p7
aF7.899856805801392
aatp8
Rp9
.ccollections
OrderedDict
p0
((lp1
(lp2
S'state'
p3
aI0
aa(lp4
S'distance'
p5
aF66.94926452636719
aa(lp6
S'timestamp'
p7
aF7.900580883026123
aatp8
Rp9
.ccollections
OrderedDict
p0
((lp1
(lp2
S'state'
p3
aI0
aa(lp4
S'distance'
p5
aF66.94926452636719
aa(lp6
S'timestamp'
p7
aF7.910189867019653
aatp8
Rp9
.ccollections
OrderedDict
p0
((lp1
(lp2
S'state'
p3
aI0
aa(lp4
S'distance'
p5
aF66.94926452636719
aa(lp6
S'timestamp'
p7
aF7.910383939743042
aatp8
Rp9
.ccollections
OrderedDict
p0
((lp1
(lp2
S'state'
p3
aI0
aa(lp4
S'distance'
p5
aF66.94926452636719
aa(lp6
S'timestamp'
p7
aF7.921371936798096
aatp8
Rp9
.ccollections
OrderedDict
p0
((lp1
(lp2
S'state'
p3
aI0
aa(lp4
S'distance'
p5
aF66.94926452636719
aa(lp6
S'timestamp'
p7
aF7.9217588901519775
aatp8
Rp9
.ccollections
OrderedDict
p0
((lp1
(lp2
S'state'
p3
aI0
aa(lp4
S'distance'
p5
aF66.94926452636719
aa(lp6
S'timestamp'
p7
aF7.93032693862915
aatp8
Rp9
.ccollections
OrderedDict
p0
((lp1
(lp2
S'state'
p3
aI0
aa(lp4
S'distance'
p5
aF66.94926452636719
aa(lp6
S'timestamp'
p7
aF7.930647850036621
aatp8
Rp9
.ccollections
OrderedDict
p0
((lp1
(lp2
S'state'
p3
aI0
aa(lp4
S'distance'
p5
aF66.94926452636719
aa(lp6
S'timestamp'
p7
aF7.940004825592041
aatp8
Rp9
.ccollections
OrderedDict
p0
((lp1
(lp2
S'state'
p3
aI0
aa(lp4
S'distance'
p5
aF66.94926452636719
aa(lp6
S'timestamp'
p7
aF7.940570831298828
aatp8
Rp9
.ccollections
OrderedDict
p0
((lp1
(lp2
S'state'
p3
aI0
aa(lp4
S'distance'
p5
aF66.94926452636719
aa(lp6
S'timestamp'
p7
aF7.94993782043457
aatp8
Rp9
.ccollections
OrderedDict
p0
((lp1
(lp2
S'state'
p3
aI0
aa(lp4
S'distance'
p5
aF66.94926452636719
aa(lp6
S'timestamp'
p7
aF7.950505971908569
aatp8
Rp9
.ccollections
OrderedDict
p0
((lp1
(lp2
S'state'
p3
aI0
aa(lp4
S'distance'
p5
aF66.94926452636719
aa(lp6
S'timestamp'
p7
aF7.96022891998291
aatp8
Rp9
.ccollections
OrderedDict
p0
((lp1
(lp2
S'state'
p3
aI0
aa(lp4
S'distance'
p5
aF66.94926452636719
aa(lp6
S'timestamp'
p7
aF7.9606709480285645
aatp8
Rp9
.ccollections
OrderedDict
p0
((lp1
(lp2
S'state'
p3
aI0
aa(lp4
S'distance'
p5
aF66.94926452636719
aa(lp6
S'timestamp'
p7
aF7.970000982284546
aatp8
Rp9
.ccollections
OrderedDict
p0
((lp1
(lp2
S'state'
p3
aI0
aa(lp4
S'distance'
p5
aF66.94926452636719
aa(lp6
S'timestamp'
p7
aF7.970677852630615
aatp8
Rp9
.ccollections
OrderedDict
p0
((lp1
(lp2
S'state'
p3
aI0
aa(lp4
S'distance'
p5
aF66.94926452636719
aa(lp6
S'timestamp'
p7
aF7.9798808097839355
aatp8
Rp9
.ccollections
OrderedDict
p0
((lp1
(lp2
S'state'
p3
aI0
aa(lp4
S'distance'
p5
aF66.94926452636719
aa(lp6
S'timestamp'
p7
aF7.980655908584595
aatp8
Rp9
.ccollections
OrderedDict
p0
((lp1
(lp2
S'state'
p3
aI0
aa(lp4
S'distance'
p5
aF66.94926452636719
aa(lp6
S'timestamp'
p7
aF7.990502834320068
aatp8
Rp9
.ccollections
OrderedDict
p0
((lp1
(lp2
S'state'
p3
aI0
aa(lp4
S'distance'
p5
aF66.94926452636719
aa(lp6
S'timestamp'
p7
aF7.990575790405273
aatp8
Rp9
.ccollections
OrderedDict
p0
((lp1
(lp2
S'state'
p3
aI0
aa(lp4
S'distance'
p5
aF66.94926452636719
aa(lp6
S'timestamp'
p7
aF8.00055980682373
aatp8
Rp9
.ccollections
OrderedDict
p0
((lp1
(lp2
S'state'
p3
aI0
aa(lp4
S'distance'
p5
aF66.94926452636719
aa(lp6
S'timestamp'
p7
aF8.000641822814941
aatp8
Rp9
.