ccollections
OrderedDict
p0
((lp1
(lp2
S'state'
p3
aI0
aa(lp4
S'distance'
p5
aF374.28907012939453
aa(lp6
S'timestamp'
p7
aF0.0026750564575195312
aatp8
Rp9
.ccollections
OrderedDict
p0
((lp1
(lp2
S'state'
p3
aI0
aa(lp4
S'distance'
p5
aF374.28907012939453
aa(lp6
S'timestamp'
p7
aF0.0034918785095214844
aatp8
Rp9
.ccollections
OrderedDict
p0
((lp1
(lp2
S'state'
p3
aI0
aa(lp4
S'distance'
p5
aF374.28907012939453
aa(lp6
S'timestamp'
p7
aF0.013377904891967773
aatp8
Rp9
.ccollections
OrderedDict
p0
((lp1
(lp2
S'state'
p3
aI0
aa(lp4
S'distance'
p5
aF374.28907012939453
aa(lp6
S'timestamp'
p7
aF0.013461828231811523
aatp8
Rp9
.ccollections
OrderedDict
p0
((lp1
(lp2
S'state'
p3
aI0
aa(lp4
S'distance'
p5
aF374.28907012939453
aa(lp6
S'timestamp'
p7
aF0.022726058959960938
aatp8
Rp9
.ccollections
OrderedDict
p0
((lp1
(lp2
S'state'
p3
aI0
aa(lp4
S'distance'
p5
aF374.28907012939453
aa(lp6
S'timestamp'
p7
aF0.023506879806518555
aatp8
Rp9
.ccollections
OrderedDict
p0
((lp1
(lp2
S'state'
p3
aI0
aa(lp4
S'distance'
p5
aF374.28907012939453
aa(lp6
S'timestamp'
p7
aF0.03350496292114258
aatp8
Rp9
.ccollections
OrderedDict
p0
((lp1
(lp2
S'state'
p3
aI0
aa(lp4
S'distance'
p5
aF374.28907012939453
aa(lp6
S'timestamp'
p7
aF0.03614187240600586
aatp8
Rp9
.ccollections
OrderedDict
p0
((lp1
(lp2
S'state'
p3
aI0
aa(lp4
S'distance'
p5
aF374.28907012939453
aa(lp6
S'timestamp'
p7
aF0.0426180362701416
aatp8
Rp9
.ccollections
OrderedDict
p0
((lp1
(lp2
S'state'
p3
aI0
aa(lp4
S'distance'
p5
aF374.28907012939453
aa(lp6
S'timestamp'
p7
aF0.04325699806213379
aatp8
Rp9
.ccollections
OrderedDict
p0
((lp1
(lp2
S'state'
p3
aI0
aa(lp4
S'distance'
p5
aF374.28907012939453
aa(lp6
S'timestamp'
p7
aF0.052825927734375
aatp8
Rp9
.ccollections
OrderedDict
p0
((lp1
(lp2
S'state'
p3
aI0
aa(lp4
S'distance'
p5
aF374.28907012939453
aa(lp6
S'timestamp'
p7
aF0.05351591110229492
aatp8
Rp9
.ccollections
OrderedDict
p0
((lp1
(lp2
S'state'
p3
aI0
aa(lp4
S'distance'
p5
aF374.28907012939453
aa(lp6
S'timestamp'
p7
aF0.0627908706665039
aatp8
Rp9
.ccollections
OrderedDict
p0
((lp1
(lp2
S'state'
p3
aI0
aa(lp4
S'distance'
p5
aF374.28907012939453
aa(lp6
S'timestamp'
p7
aF0.0636289119720459
aatp8
Rp9
.ccollections
OrderedDict
p0
((lp1
(lp2
S'state'
p3
aI0
aa(lp4
S'distance'
p5
aF374.28907012939453
aa(lp6
S'timestamp'
p7
aF0.0727529525756836
aatp8
Rp9
.ccollections
OrderedDict
p0
((lp1
(lp2
S'state'
p3
aI0
aa(lp4
S'distance'
p5
aF374.28907012939453
aa(lp6
S'timestamp'
p7
aF0.07378482818603516
aatp8
Rp9
.ccollections
OrderedDict
p0
((lp1
(lp2
S'state'
p3
aI0
aa(lp4
S'distance'
p5
aF374.28907012939453
aa(lp6
S'timestamp'
p7
aF0.08322787284851074
aatp8
Rp9
.ccollections
OrderedDict
p0
((lp1
(lp2
S'state'
p3
aI0
aa(lp4
S'distance'
p5
aF374.28907012939453
aa(lp6
S'timestamp'
p7
aF0.08340287208557129
aatp8
Rp9
.ccollections
OrderedDict
p0
((lp1
(lp2
S'state'
p3
aI0
aa(lp4
S'distance'
p5
aF374.28907012939453
aa(lp6
S'timestamp'
p7
aF0.10285782814025879
aatp8
Rp9
.ccollections
OrderedDict
p0
((lp1
(lp2
S'state'
p3
aI0
aa(lp4
S'distance'
p5
aF374.28907012939453
aa(lp6
S'timestamp'
p7
aF0.10296082496643066
aatp8
Rp9
.ccollections
OrderedDict
p0
((lp1
(lp2
S'state'
p3
aI0
aa(lp4
S'distance'
p5
aF374.28907012939453
aa(lp6
S'timestamp'
p7
aF0.10458683967590332
aatp8
Rp9
.ccollections
OrderedDict
p0
((lp1
(lp2
S'state'
p3
aI0
aa(lp4
S'distance'
p5
aF374.28907012939453
aa(lp6
S'timestamp'
p7
aF0.10534286499023438
aatp8
Rp9
.ccollections
OrderedDict
p0
((lp1
(lp2
S'state'
p3
aI0
aa(lp4
S'distance'
p5
aF374.28907012939453
aa(lp6
S'timestamp'
p7
aF0.11339688301086426
aatp8
Rp9
.ccollections
OrderedDict
p0
((lp1
(lp2
S'state'
p3
aI0
aa(lp4
S'distance'
p5
aF374.28907012939453
aa(lp6
S'timestamp'
p7
aF0.11483192443847656
aatp8
Rp9
.ccollections
OrderedDict
p0
((lp1
(lp2
S'state'
p3
aI0
aa(lp4
S'distance'
p5
aF374.28907012939453
aa(lp6
S'timestamp'
p7
aF0.12279486656188965
aatp8
Rp9
.ccollections
OrderedDict
p0
((lp1
(lp2
S'state'
p3
aI0
aa(lp4
S'distance'
p5
aF374.28907012939453
aa(lp6
S'timestamp'
p7
aF0.12358903884887695
aatp8
Rp9
.ccollections
OrderedDict
p0
((lp1
(lp2
S'state'
p3
aI0
aa(lp4
S'distance'
p5
aF374.28907012939453
aa(lp6
S'timestamp'
p7
aF0.13305401802062988
aatp8
Rp9
.ccollections
OrderedDict
p0
((lp1
(lp2
S'state'
p3
aI0
aa(lp4
S'distance'
p5
aF374.28907012939453
aa(lp6
S'timestamp'
p7
aF0.13331294059753418
aatp8
Rp9
.ccollections
OrderedDict
p0
((lp1
(lp2
S'state'
p3
aI0
aa(lp4
S'distance'
p5
aF374.28907012939453
aa(lp6
S'timestamp'
p7
aF0.14281487464904785
aatp8
Rp9
.ccollections
OrderedDict
p0
((lp1
(lp2
S'state'
p3
aI0
aa(lp4
S'distance'
p5
aF374.28907012939453
aa(lp6
S'timestamp'
p7
aF0.14337992668151855
aatp8
Rp9
.ccollections
OrderedDict
p0
((lp1
(lp2
S'state'
p3
aI0
aa(lp4
S'distance'
p5
aF374.28907012939453
aa(lp6
S'timestamp'
p7
aF0.15275096893310547
aatp8
Rp9
.ccollections
OrderedDict
p0
((lp1
(lp2
S'state'
p3
aI0
aa(lp4
S'distance'
p5
aF374.28907012939453
aa(lp6
S'timestamp'
p7
aF0.15355300903320312
aatp8
Rp9
.ccollections
OrderedDict
p0
((lp1
(lp2
S'state'
p3
aI0
aa(lp4
S'distance'
p5
aF374.28907012939453
aa(lp6
S'timestamp'
p7
aF0.16260194778442383
aatp8
Rp9
.ccollections
OrderedDict
p0
((lp1
(lp2
S'state'
p3
aI0
aa(lp4
S'distance'
p5
aF374.28907012939453
aa(lp6
S'timestamp'
p7
aF0.16292285919189453
aatp8
Rp9
.ccollections
OrderedDict
p0
((lp1
(lp2
S'state'
p3
aI0
aa(lp4
S'distance'
p5
aF374.28907012939453
aa(lp6
S'timestamp'
p7
aF0.17296791076660156
aatp8
Rp9
.ccollections
OrderedDict
p0
((lp1
(lp2
S'state'
p3
aI0
aa(lp4
S'distance'
p5
aF374.28907012939453
aa(lp6
S'timestamp'
p7
aF0.17372894287109375
aatp8
Rp9
.ccollections
OrderedDict
p0
((lp1
(lp2
S'state'
p3
aI0
aa(lp4
S'distance'
p5
aF374.28907012939453
aa(lp6
S'timestamp'
p7
aF0.183150053024292
aatp8
Rp9
.ccollections
OrderedDict
p0
((lp1
(lp2
S'state'
p3
aI0
aa(lp4
S'distance'
p5
aF374.28907012939453
aa(lp6
S'timestamp'
p7
aF0.18338799476623535
aatp8
Rp9
.ccollections
OrderedDict
p0
((lp1
(lp2
S'state'
p3
aI0
aa(lp4
S'distance'
p5
aF374.28907012939453
aa(lp6
S'timestamp'
p7
aF0.19285798072814941
aatp8
Rp9
.ccollections
OrderedDict
p0
((lp1
(lp2
S'state'
p3
aI0
aa(lp4
S'distance'
p5
aF374.28907012939453
aa(lp6
S'timestamp'
p7
aF0.19302797317504883
aatp8
Rp9
.ccollections
OrderedDict
p0
((lp1
(lp2
S'state'
p3
aI0
aa(lp4
S'distance'
p5
aF374.28907012939453
aa(lp6
S'timestamp'
p7
aF0.2026360034942627
aatp8
Rp9
.ccollections
OrderedDict
p0
((lp1
(lp2
S'state'
p3
aI0
aa(lp4
S'distance'
p5
aF374.28907012939453
aa(lp6
S'timestamp'
p7
aF0.20354294776916504
aatp8
Rp9
.ccollections
OrderedDict
p0
((lp1
(lp2
S'state'
p3
aI0
aa(lp4
S'distance'
p5
aF374.28907012939453
aa(lp6
S'timestamp'
p7
aF0.21281886100769043
aatp8
Rp9
.ccollections
OrderedDict
p0
((lp1
(lp2
S'state'
p3
aI0
aa(lp4
S'distance'
p5
aF374.28907012939453
aa(lp6
S'timestamp'
p7
aF0.21410489082336426
aatp8
Rp9
.ccollections
OrderedDict
p0
((lp1
(lp2
S'state'
p3
aI0
aa(lp4
S'distance'
p5
aF374.28907012939453
aa(lp6
S'timestamp'
p7
aF0.22276902198791504
aatp8
Rp9
.ccollections
OrderedDict
p0
((lp1
(lp2
S'state'
p3
aI0
aa(lp4
S'distance'
p5
aF374.28907012939453
aa(lp6
S'timestamp'
p7
aF0.22348904609680176
aatp8
Rp9
.ccollections
OrderedDict
p0
((lp1
(lp2
S'state'
p3
aI0
aa(lp4
S'distance'
p5
aF374.28907012939453
aa(lp6
S'timestamp'
p7
aF0.2333359718322754
aatp8
Rp9
.ccollections
OrderedDict
p0
((lp1
(lp2
S'state'
p3
aI0
aa(lp4
S'distance'
p5
aF374.28907012939453
aa(lp6
S'timestamp'
p7
aF0.2334139347076416
aatp8
Rp9
.ccollections
OrderedDict
p0
((lp1
(lp2
S'state'
p3
aI0
aa(lp4
S'distance'
p5
aF374.28907012939453
aa(lp6
S'timestamp'
p7
aF0.24273300170898438
aatp8
Rp9
.ccollections
OrderedDict
p0
((lp1
(lp2
S'state'
p3
aI0
aa(lp4
S'distance'
p5
aF374.28907012939453
aa(lp6
S'timestamp'
p7
aF0.24333596229553223
aatp8
Rp9
.ccollections
OrderedDict
p0
((lp1
(lp2
S'state'
p3
aI0
aa(lp4
S'distance'
p5
aF374.28907012939453
aa(lp6
S'timestamp'
p7
aF0.25281500816345215
aatp8
Rp9
.ccollections
OrderedDict
p0
((lp1
(lp2
S'state'
p3
aI0
aa(lp4
S'distance'
p5
aF374.28907012939453
aa(lp6
S'timestamp'
p7
aF0.25350403785705566
aatp8
Rp9
.ccollections
OrderedDict
p0
((lp1
(lp2
S'state'
p3
aI0
aa(lp4
S'distance'
p5
aF374.28907012939453
aa(lp6
S'timestamp'
p7
aF0.2627449035644531
aatp8
Rp9
.ccollections
OrderedDict
p0
((lp1
(lp2
S'state'
p3
aI0
aa(lp4
S'distance'
p5
aF374.28907012939453
aa(lp6
S'timestamp'
p7
aF0.2635049819946289
aatp8
Rp9
.ccollections
OrderedDict
p0
((lp1
(lp2
S'state'
p3
aI0
aa(lp4
S'distance'
p5
aF374.28907012939453
aa(lp6
S'timestamp'
p7
aF0.2728300094604492
aatp8
Rp9
.ccollections
OrderedDict
p0
((lp1
(lp2
S'state'
p3
aI0
aa(lp4
S'distance'
p5
aF374.28907012939453
aa(lp6
S'timestamp'
p7
aF0.2737889289855957
aatp8
Rp9
.ccollections
OrderedDict
p0
((lp1
(lp2
S'state'
p3
aI0
aa(lp4
S'distance'
p5
aF374.28907012939453
aa(lp6
S'timestamp'
p7
aF0.28287601470947266
aatp8
Rp9
.ccollections
OrderedDict
p0
((lp1
(lp2
S'state'
p3
aI0
aa(lp4
S'distance'
p5
aF374.28907012939453
aa(lp6
S'timestamp'
p7
aF0.2830488681793213
aatp8
Rp9
.ccollections
OrderedDict
p0
((lp1
(lp2
S'state'
p3
aI0
aa(lp4
S'distance'
p5
aF374.28907012939453
aa(lp6
S'timestamp'
p7
aF0.29274988174438477
aatp8
Rp9
.ccollections
OrderedDict
p0
((lp1
(lp2
S'state'
p3
aI0
aa(lp4
S'distance'
p5
aF374.28907012939453
aa(lp6
S'timestamp'
p7
aF0.2937488555908203
aatp8
Rp9
.ccollections
OrderedDict
p0
((lp1
(lp2
S'state'
p3
aI0
aa(lp4
S'distance'
p5
aF374.28907012939453
aa(lp6
S'timestamp'
p7
aF0.30260801315307617
aatp8
Rp9
.ccollections
OrderedDict
p0
((lp1
(lp2
S'state'
p3
aI0
aa(lp4
S'distance'
p5
aF374.28907012939453
aa(lp6
S'timestamp'
p7
aF0.303225040435791
aatp8
Rp9
.ccollections
OrderedDict
p0
((lp1
(lp2
S'state'
p3
aI0
aa(lp4
S'distance'
p5
aF374.28907012939453
aa(lp6
S'timestamp'
p7
aF0.31258082389831543
aatp8
Rp9
.ccollections
OrderedDict
p0
((lp1
(lp2
S'state'
p3
aI0
aa(lp4
S'distance'
p5
aF374.28907012939453
aa(lp6
S'timestamp'
p7
aF0.3134269714355469
aatp8
Rp9
.ccollections
OrderedDict
p0
((lp1
(lp2
S'state'
p3
aI0
aa(lp4
S'distance'
p5
aF374.28907012939453
aa(lp6
S'timestamp'
p7
aF0.32278990745544434
aatp8
Rp9
.ccollections
OrderedDict
p0
((lp1
(lp2
S'state'
p3
aI0
aa(lp4
S'distance'
p5
aF374.28907012939453
aa(lp6
S'timestamp'
p7
aF0.3240368366241455
aatp8
Rp9
.ccollections
OrderedDict
p0
((lp1
(lp2
S'state'
p3
aI0
aa(lp4
S'distance'
p5
aF374.28907012939453
aa(lp6
S'timestamp'
p7
aF0.332766056060791
aatp8
Rp9
.ccollections
OrderedDict
p0
((lp1
(lp2
S'state'
p3
aI0
aa(lp4
S'distance'
p5
aF374.28907012939453
aa(lp6
S'timestamp'
p7
aF0.33301782608032227
aatp8
Rp9
.ccollections
OrderedDict
p0
((lp1
(lp2
S'state'
p3
aI0
aa(lp4
S'distance'
p5
aF374.28907012939453
aa(lp6
S'timestamp'
p7
aF0.3427119255065918
aatp8
Rp9
.ccollections
OrderedDict
p0
((lp1
(lp2
S'state'
p3
aI0
aa(lp4
S'distance'
p5
aF374.28907012939453
aa(lp6
S'timestamp'
p7
aF0.3434138298034668
aatp8
Rp9
.ccollections
OrderedDict
p0
((lp1
(lp2
S'state'
p3
aI0
aa(lp4
S'distance'
p5
aF374.28907012939453
aa(lp6
S'timestamp'
p7
aF0.35274291038513184
aatp8
Rp9
.ccollections
OrderedDict
p0
((lp1
(lp2
S'state'
p3
aI0
aa(lp4
S'distance'
p5
aF374.28907012939453
aa(lp6
S'timestamp'
p7
aF0.3535280227661133
aatp8
Rp9
.ccollections
OrderedDict
p0
((lp1
(lp2
S'state'
p3
aI0
aa(lp4
S'distance'
p5
aF374.28907012939453
aa(lp6
S'timestamp'
p7
aF0.3627638816833496
aatp8
Rp9
.ccollections
OrderedDict
p0
((lp1
(lp2
S'state'
p3
aI0
aa(lp4
S'distance'
p5
aF374.28907012939453
aa(lp6
S'timestamp'
p7
aF0.3652820587158203
aatp8
Rp9
.ccollections
OrderedDict
p0
((lp1
(lp2
S'state'
p3
aI0
aa(lp4
S'distance'
p5
aF374.28907012939453
aa(lp6
S'timestamp'
p7
aF0.3727378845214844
aatp8
Rp9
.ccollections
OrderedDict
p0
((lp1
(lp2
S'state'
p3
aI0
aa(lp4
S'distance'
p5
aF374.28907012939453
aa(lp6
S'timestamp'
p7
aF0.37319397926330566
aatp8
Rp9
.ccollections
OrderedDict
p0
((lp1
(lp2
S'state'
p3
aI0
aa(lp4
S'distance'
p5
aF374.28907012939453
aa(lp6
S'timestamp'
p7
aF0.3826780319213867
aatp8
Rp9
.ccollections
OrderedDict
p0
((lp1
(lp2
S'state'
p3
aI0
aa(lp4
S'distance'
p5
aF374.28907012939453
aa(lp6
S'timestamp'
p7
aF0.38349103927612305
aatp8
Rp9
.ccollections
OrderedDict
p0
((lp1
(lp2
S'state'
p3
aI0
aa(lp4
S'distance'
p5
aF374.28907012939453
aa(lp6
S'timestamp'
p7
aF0.3928079605102539
aatp8
Rp9
.ccollections
OrderedDict
p0
((lp1
(lp2
S'state'
p3
aI0
aa(lp4
S'distance'
p5
aF374.28907012939453
aa(lp6
S'timestamp'
p7
aF0.39350104331970215
aatp8
Rp9
.ccollections
OrderedDict
p0
((lp1
(lp2
S'state'
p3
aI0
aa(lp4
S'distance'
p5
aF374.28907012939453
aa(lp6
S'timestamp'
p7
aF0.4026198387145996
aatp8
Rp9
.ccollections
OrderedDict
p0
((lp1
(lp2
S'state'
p3
aI0
aa(lp4
S'distance'
p5
aF374.28907012939453
aa(lp6
S'timestamp'
p7
aF0.4036140441894531
aatp8
Rp9
.ccollections
OrderedDict
p0
((lp1
(lp2
S'state'
p3
aI0
aa(lp4
S'distance'
p5
aF374.28907012939453
aa(lp6
S'timestamp'
p7
aF0.4125699996948242
aatp8
Rp9
.ccollections
OrderedDict
p0
((lp1
(lp2
S'state'
p3
aI0
aa(lp4
S'distance'
p5
aF374.28907012939453
aa(lp6
S'timestamp'
p7
aF0.4133720397949219
aatp8
Rp9
.ccollections
OrderedDict
p0
((lp1
(lp2
S'state'
p3
aI0
aa(lp4
S'distance'
p5
aF374.28907012939453
aa(lp6
S'timestamp'
p7
aF0.4226830005645752
aatp8
Rp9
.ccollections
OrderedDict
p0
((lp1
(lp2
S'state'
p3
aI0
aa(lp4
S'distance'
p5
aF374.28907012939453
aa(lp6
S'timestamp'
p7
aF0.42334699630737305
aatp8
Rp9
.ccollections
OrderedDict
p0
((lp1
(lp2
S'state'
p3
aI0
aa(lp4
S'distance'
p5
aF374.28907012939453
aa(lp6
S'timestamp'
p7
aF0.43282294273376465
aatp8
Rp9
.ccollections
OrderedDict
p0
((lp1
(lp2
S'state'
p3
aI0
aa(lp4
S'distance'
p5
aF374.28907012939453
aa(lp6
S'timestamp'
p7
aF0.43377685546875
aatp8
Rp9
.ccollections
OrderedDict
p0
((lp1
(lp2
S'state'
p3
aI0
aa(lp4
S'distance'
p5
aF374.28907012939453
aa(lp6
S'timestamp'
p7
aF0.4427809715270996
aatp8
Rp9
.ccollections
OrderedDict
p0
((lp1
(lp2
S'state'
p3
aI0
aa(lp4
S'distance'
p5
aF374.28907012939453
aa(lp6
S'timestamp'
p7
aF0.44321203231811523
aatp8
Rp9
.ccollections
OrderedDict
p0
((lp1
(lp2
S'state'
p3
aI0
aa(lp4
S'distance'
p5
aF374.28907012939453
aa(lp6
S'timestamp'
p7
aF0.4526808261871338
aatp8
Rp9
.ccollections
OrderedDict
p0
((lp1
(lp2
S'state'
p3
aI0
aa(lp4
S'distance'
p5
aF374.28907012939453
aa(lp6
S'timestamp'
p7
aF0.4534168243408203
aatp8
Rp9
.ccollections
OrderedDict
p0
((lp1
(lp2
S'state'
p3
aI0
aa(lp4
S'distance'
p5
aF374.28907012939453
aa(lp6
S'timestamp'
p7
aF0.46284985542297363
aatp8
Rp9
.ccollections
OrderedDict
p0
((lp1
(lp2
S'state'
p3
aI0
aa(lp4
S'distance'
p5
aF374.28907012939453
aa(lp6
S'timestamp'
p7
aF0.4636509418487549
aatp8
Rp9
.ccollections
OrderedDict
p0
((lp1
(lp2
S'state'
p3
aI0
aa(lp4
S'distance'
p5
aF374.28907012939453
aa(lp6
S'timestamp'
p7
aF0.47267794609069824
aatp8
Rp9
.ccollections
OrderedDict
p0
((lp1
(lp2
S'state'
p3
aI0
aa(lp4
S'distance'
p5
aF374.28907012939453
aa(lp6
S'timestamp'
p7
aF0.47345685958862305
aatp8
Rp9
.ccollections
OrderedDict
p0
((lp1
(lp2
S'state'
p3
aI0
aa(lp4
S'distance'
p5
aF374.28907012939453
aa(lp6
S'timestamp'
p7
aF0.482835054397583
aatp8
Rp9
.ccollections
OrderedDict
p0
((lp1
(lp2
S'state'
p3
aI0
aa(lp4
S'distance'
p5
aF374.28907012939453
aa(lp6
S'timestamp'
p7
aF0.4835829734802246
aatp8
Rp9
.ccollections
OrderedDict
p0
((lp1
(lp2
S'state'
p3
aI0
aa(lp4
S'distance'
p5
aF374.28907012939453
aa(lp6
S'timestamp'
p7
aF0.4927639961242676
aatp8
Rp9
.ccollections
OrderedDict
p0
((lp1
(lp2
S'state'
p3
aI0
aa(lp4
S'distance'
p5
aF374.28907012939453
aa(lp6
S'timestamp'
p7
aF0.4932889938354492
aatp8
Rp9
.ccollections
OrderedDict
p0
((lp1
(lp2
S'state'
p3
aI0
aa(lp4
S'distance'
p5
aF374.28907012939453
aa(lp6
S'timestamp'
p7
aF0.5028769969940186
aatp8
Rp9
.ccollections
OrderedDict
p0
((lp1
(lp2
S'state'
p3
aI0
aa(lp4
S'distance'
p5
aF374.28907012939453
aa(lp6
S'timestamp'
p7
aF0.5030319690704346
aatp8
Rp9
.ccollections
OrderedDict
p0
((lp1
(lp2
S'state'
p3
aI0
aa(lp4
S'distance'
p5
aF374.28907012939453
aa(lp6
S'timestamp'
p7
aF0.512686014175415
aatp8
Rp9
.ccollections
OrderedDict
p0
((lp1
(lp2
S'state'
p3
aI0
aa(lp4
S'distance'
p5
aF374.28907012939453
aa(lp6
S'timestamp'
p7
aF0.5136489868164062
aatp8
Rp9
.ccollections
OrderedDict
p0
((lp1
(lp2
S'state'
p3
aI0
aa(lp4
S'distance'
p5
aF374.28907012939453
aa(lp6
S'timestamp'
p7
aF0.5228409767150879
aatp8
Rp9
.ccollections
OrderedDict
p0
((lp1
(lp2
S'state'
p3
aI0
aa(lp4
S'distance'
p5
aF374.28907012939453
aa(lp6
S'timestamp'
p7
aF0.5241420269012451
aatp8
Rp9
.ccollections
OrderedDict
p0
((lp1
(lp2
S'state'
p3
aI0
aa(lp4
S'distance'
p5
aF374.28907012939453
aa(lp6
S'timestamp'
p7
aF0.532567024230957
aatp8
Rp9
.ccollections
OrderedDict
p0
((lp1
(lp2
S'state'
p3
aI0
aa(lp4
S'distance'
p5
aF374.28907012939453
aa(lp6
S'timestamp'
p7
aF0.5330619812011719
aatp8
Rp9
.ccollections
OrderedDict
p0
((lp1
(lp2
S'state'
p3
aI0
aa(lp4
S'distance'
p5
aF374.28907012939453
aa(lp6
S'timestamp'
p7
aF0.5426690578460693
aatp8
Rp9
.ccollections
OrderedDict
p0
((lp1
(lp2
S'state'
p3
aI0
aa(lp4
S'distance'
p5
aF374.28907012939453
aa(lp6
S'timestamp'
p7
aF0.5527169704437256
aatp8
Rp9
.ccollections
OrderedDict
p0
((lp1
(lp2
S'state'
p3
aI0
aa(lp4
S'distance'
p5
aF374.28907012939453
aa(lp6
S'timestamp'
p7
aF0.5533359050750732
aatp8
Rp9
.ccollections
OrderedDict
p0
((lp1
(lp2
S'state'
p3
aI0
aa(lp4
S'distance'
p5
aF374.28907012939453
aa(lp6
S'timestamp'
p7
aF0.5540728569030762
aatp8
Rp9
.ccollections
OrderedDict
p0
((lp1
(lp2
S'state'
p3
aI0
aa(lp4
S'distance'
p5
aF374.28907012939453
aa(lp6
S'timestamp'
p7
aF0.563391923904419
aatp8
Rp9
.ccollections
OrderedDict
p0
((lp1
(lp2
S'state'
p3
aI0
aa(lp4
S'distance'
p5
aF374.28907012939453
aa(lp6
S'timestamp'
p7
aF0.5635099411010742
aatp8
Rp9
.ccollections
OrderedDict
p0
((lp1
(lp2
S'state'
p3
aI0
aa(lp4
S'distance'
p5
aF374.28907012939453
aa(lp6
S'timestamp'
p7
aF0.5726568698883057
aatp8
Rp9
.ccollections
OrderedDict
p0
((lp1
(lp2
S'state'
p3
aI0
aa(lp4
S'distance'
p5
aF374.28907012939453
aa(lp6
S'timestamp'
p7
aF0.5730710029602051
aatp8
Rp9
.ccollections
OrderedDict
p0
((lp1
(lp2
S'state'
p3
aI0
aa(lp4
S'distance'
p5
aF374.28907012939453
aa(lp6
S'timestamp'
p7
aF0.582805871963501
aatp8
Rp9
.ccollections
OrderedDict
p0
((lp1
(lp2
S'state'
p3
aI0
aa(lp4
S'distance'
p5
aF374.28907012939453
aa(lp6
S'timestamp'
p7
aF0.5831289291381836
aatp8
Rp9
.ccollections
OrderedDict
p0
((lp1
(lp2
S'state'
p3
aI0
aa(lp4
S'distance'
p5
aF374.28907012939453
aa(lp6
S'timestamp'
p7
aF0.5926949977874756
aatp8
Rp9
.ccollections
OrderedDict
p0
((lp1
(lp2
S'state'
p3
aI0
aa(lp4
S'distance'
p5
aF374.28907012939453
aa(lp6
S'timestamp'
p7
aF0.6133718490600586
aatp8
Rp9
.ccollections
OrderedDict
p0
((lp1
(lp2
S'state'
p3
aI0
aa(lp4
S'distance'
p5
aF374.28907012939453
aa(lp6
S'timestamp'
p7
aF0.6136150360107422
aatp8
Rp9
.ccollections
OrderedDict
p0
((lp1
(lp2
S'state'
p3
aI0
aa(lp4
S'distance'
p5
aF374.28907012939453
aa(lp6
S'timestamp'
p7
aF0.6159179210662842
aatp8
Rp9
.ccollections
OrderedDict
p0
((lp1
(lp2
S'state'
p3
aI0
aa(lp4
S'distance'
p5
aF374.28907012939453
aa(lp6
S'timestamp'
p7
aF0.6165778636932373
aatp8
Rp9
.ccollections
OrderedDict
p0
((lp1
(lp2
S'state'
p3
aI0
aa(lp4
S'distance'
p5
aF374.28907012939453
aa(lp6
S'timestamp'
p7
aF0.6228108406066895
aatp8
Rp9
.ccollections
OrderedDict
p0
((lp1
(lp2
S'state'
p3
aI0
aa(lp4
S'distance'
p5
aF374.28907012939453
aa(lp6
S'timestamp'
p7
aF0.622938871383667
aatp8
Rp9
.ccollections
OrderedDict
p0
((lp1
(lp2
S'state'
p3
aI0
aa(lp4
S'distance'
p5
aF374.28907012939453
aa(lp6
S'timestamp'
p7
aF0.6241190433502197
aatp8
Rp9
.ccollections
OrderedDict
p0
((lp1
(lp2
S'state'
p3
aI0
aa(lp4
S'distance'
p5
aF374.28907012939453
aa(lp6
S'timestamp'
p7
aF0.6326298713684082
aatp8
Rp9
.ccollections
OrderedDict
p0
((lp1
(lp2
S'state'
p3
aI0
aa(lp4
S'distance'
p5
aF374.28907012939453
aa(lp6
S'timestamp'
p7
aF0.6335170269012451
aatp8
Rp9
.ccollections
OrderedDict
p0
((lp1
(lp2
S'state'
p3
aI0
aa(lp4
S'distance'
p5
aF374.28907012939453
aa(lp6
S'timestamp'
p7
aF0.6426198482513428
aatp8
Rp9
.ccollections
OrderedDict
p0
((lp1
(lp2
S'state'
p3
aI0
aa(lp4
S'distance'
p5
aF374.28907012939453
aa(lp6
S'timestamp'
p7
aF0.6431498527526855
aatp8
Rp9
.ccollections
OrderedDict
p0
((lp1
(lp2
S'state'
p3
aI0
aa(lp4
S'distance'
p5
aF374.28907012939453
aa(lp6
S'timestamp'
p7
aF0.6528658866882324
aatp8
Rp9
.ccollections
OrderedDict
p0
((lp1
(lp2
S'state'
p3
aI0
aa(lp4
S'distance'
p5
aF374.28907012939453
aa(lp6
S'timestamp'
p7
aF0.6548969745635986
aatp8
Rp9
.ccollections
OrderedDict
p0
((lp1
(lp2
S'state'
p3
aI0
aa(lp4
S'distance'
p5
aF374.28907012939453
aa(lp6
S'timestamp'
p7
aF0.6627750396728516
aatp8
Rp9
.ccollections
OrderedDict
p0
((lp1
(lp2
S'state'
p3
aI0
aa(lp4
S'distance'
p5
aF374.28907012939453
aa(lp6
S'timestamp'
p7
aF0.6629819869995117
aatp8
Rp9
.ccollections
OrderedDict
p0
((lp1
(lp2
S'state'
p3
aI0
aa(lp4
S'distance'
p5
aF374.28907012939453
aa(lp6
S'timestamp'
p7
aF0.6727409362792969
aatp8
Rp9
.ccollections
OrderedDict
p0
((lp1
(lp2
S'state'
p3
aI0
aa(lp4
S'distance'
p5
aF374.28907012939453
aa(lp6
S'timestamp'
p7
aF0.6738660335540771
aatp8
Rp9
.ccollections
OrderedDict
p0
((lp1
(lp2
S'state'
p3
aI0
aa(lp4
S'distance'
p5
aF374.28907012939453
aa(lp6
S'timestamp'
p7
aF0.6828389167785645
aatp8
Rp9
.ccollections
OrderedDict
p0
((lp1
(lp2
S'state'
p3
aI0
aa(lp4
S'distance'
p5
aF374.28907012939453
aa(lp6
S'timestamp'
p7
aF0.6834909915924072
aatp8
Rp9
.ccollections
OrderedDict
p0
((lp1
(lp2
S'state'
p3
aI0
aa(lp4
S'distance'
p5
aF374.28907012939453
aa(lp6
S'timestamp'
p7
aF0.6948258876800537
aatp8
Rp9
.ccollections
OrderedDict
p0
((lp1
(lp2
S'state'
p3
aI0
aa(lp4
S'distance'
p5
aF374.28907012939453
aa(lp6
S'timestamp'
p7
aF0.6952619552612305
aatp8
Rp9
.ccollections
OrderedDict
p0
((lp1
(lp2
S'state'
p3
aI0
aa(lp4
S'distance'
p5
aF374.28907012939453
aa(lp6
S'timestamp'
p7
aF0.7027649879455566
aatp8
Rp9
.ccollections
OrderedDict
p0
((lp1
(lp2
S'state'
p3
aI0
aa(lp4
S'distance'
p5
aF374.28907012939453
aa(lp6
S'timestamp'
p7
aF0.7033908367156982
aatp8
Rp9
.ccollections
OrderedDict
p0
((lp1
(lp2
S'state'
p3
aI0
aa(lp4
S'distance'
p5
aF374.28907012939453
aa(lp6
S'timestamp'
p7
aF0.7128479480743408
aatp8
Rp9
.ccollections
OrderedDict
p0
((lp1
(lp2
S'state'
p3
aI0
aa(lp4
S'distance'
p5
aF374.28907012939453
aa(lp6
S'timestamp'
p7
aF0.7130799293518066
aatp8
Rp9
.ccollections
OrderedDict
p0
((lp1
(lp2
S'state'
p3
aI0
aa(lp4
S'distance'
p5
aF374.28907012939453
aa(lp6
S'timestamp'
p7
aF0.7226519584655762
aatp8
Rp9
.ccollections
OrderedDict
p0
((lp1
(lp2
S'state'
p3
aI0
aa(lp4
S'distance'
p5
aF374.28907012939453
aa(lp6
S'timestamp'
p7
aF0.7234768867492676
aatp8
Rp9
.ccollections
OrderedDict
p0
((lp1
(lp2
S'state'
p3
aI0
aa(lp4
S'distance'
p5
aF374.28907012939453
aa(lp6
S'timestamp'
p7
aF0.732597827911377
aatp8
Rp9
.ccollections
OrderedDict
p0
((lp1
(lp2
S'state'
p3
aI0
aa(lp4
S'distance'
p5
aF374.28907012939453
aa(lp6
S'timestamp'
p7
aF0.7331149578094482
aatp8
Rp9
.ccollections
OrderedDict
p0
((lp1
(lp2
S'state'
p3
aI0
aa(lp4
S'distance'
p5
aF374.28907012939453
aa(lp6
S'timestamp'
p7
aF0.7427949905395508
aatp8
Rp9
.ccollections
OrderedDict
p0
((lp1
(lp2
S'state'
p3
aI0
aa(lp4
S'distance'
p5
aF374.28907012939453
aa(lp6
S'timestamp'
p7
aF0.7442309856414795
aatp8
Rp9
.ccollections
OrderedDict
p0
((lp1
(lp2
S'state'
p3
aI0
aa(lp4
S'distance'
p5
aF374.28907012939453
aa(lp6
S'timestamp'
p7
aF0.7527649402618408
aatp8
Rp9
.ccollections
OrderedDict
p0
((lp1
(lp2
S'state'
p3
aI0
aa(lp4
S'distance'
p5
aF374.28907012939453
aa(lp6
S'timestamp'
p7
aF0.7531449794769287
aatp8
Rp9
.ccollections
OrderedDict
p0
((lp1
(lp2
S'state'
p3
aI0
aa(lp4
S'distance'
p5
aF374.28907012939453
aa(lp6
S'timestamp'
p7
aF0.7627668380737305
aatp8
Rp9
.ccollections
OrderedDict
p0
((lp1
(lp2
S'state'
p3
aI0
aa(lp4
S'distance'
p5
aF374.28907012939453
aa(lp6
S'timestamp'
p7
aF0.7637619972229004
aatp8
Rp9
.ccollections
OrderedDict
p0
((lp1
(lp2
S'state'
p3
aI0
aa(lp4
S'distance'
p5
aF374.28907012939453
aa(lp6
S'timestamp'
p7
aF0.7727959156036377
aatp8
Rp9
.ccollections
OrderedDict
p0
((lp1
(lp2
S'state'
p3
aI0
aa(lp4
S'distance'
p5
aF374.28907012939453
aa(lp6
S'timestamp'
p7
aF0.7737069129943848
aatp8
Rp9
.ccollections
OrderedDict
p0
((lp1
(lp2
S'state'
p3
aI0
aa(lp4
S'distance'
p5
aF374.28907012939453
aa(lp6
S'timestamp'
p7
aF0.7927868366241455
aatp8
Rp9
.ccollections
OrderedDict
p0
((lp1
(lp2
S'state'
p3
aI0
aa(lp4
S'distance'
p5
aF374.28907012939453
aa(lp6
S'timestamp'
p7
aF0.7943558692932129
aatp8
Rp9
.ccollections
OrderedDict
p0
((lp1
(lp2
S'state'
p3
aI0
aa(lp4
S'distance'
p5
aF374.28907012939453
aa(lp6
S'timestamp'
p7
aF0.7945330142974854
aatp8
Rp9
.ccollections
OrderedDict
p0
((lp1
(lp2
S'state'
p3
aI0
aa(lp4
S'distance'
p5
aF374.28907012939453
aa(lp6
S'timestamp'
p7
aF0.7946820259094238
aatp8
Rp9
.ccollections
OrderedDict
p0
((lp1
(lp2
S'state'
p3
aI0
aa(lp4
S'distance'
p5
aF374.28907012939453
aa(lp6
S'timestamp'
p7
aF0.8028850555419922
aatp8
Rp9
.ccollections
OrderedDict
p0
((lp1
(lp2
S'state'
p3
aI0
aa(lp4
S'distance'
p5
aF374.28907012939453
aa(lp6
S'timestamp'
p7
aF0.8030459880828857
aatp8
Rp9
.ccollections
OrderedDict
p0
((lp1
(lp2
S'state'
p3
aI0
aa(lp4
S'distance'
p5
aF374.28907012939453
aa(lp6
S'timestamp'
p7
aF0.8460500240325928
aatp8
Rp9
.ccollections
OrderedDict
p0
((lp1
(lp2
S'state'
p3
aI0
aa(lp4
S'distance'
p5
aF374.28907012939453
aa(lp6
S'timestamp'
p7
aF0.8465659618377686
aatp8
Rp9
.ccollections
OrderedDict
p0
((lp1
(lp2
S'state'
p3
aI0
aa(lp4
S'distance'
p5
aF374.28907012939453
aa(lp6
S'timestamp'
p7
aF0.8493020534515381
aatp8
Rp9
.ccollections
OrderedDict
p0
((lp1
(lp2
S'state'
p3
aI0
aa(lp4
S'distance'
p5
aF374.28907012939453
aa(lp6
S'timestamp'
p7
aF0.8494858741760254
aatp8
Rp9
.ccollections
OrderedDict
p0
((lp1
(lp2
S'state'
p3
aI0
aa(lp4
S'distance'
p5
aF374.28907012939453
aa(lp6
S'timestamp'
p7
aF0.8502528667449951
aatp8
Rp9
.ccollections
OrderedDict
p0
((lp1
(lp2
S'state'
p3
aI0
aa(lp4
S'distance'
p5
aF374.28907012939453
aa(lp6
S'timestamp'
p7
aF0.8545148372650146
aatp8
Rp9
.ccollections
OrderedDict
p0
((lp1
(lp2
S'state'
p3
aI0
aa(lp4
S'distance'
p5
aF374.28907012939453
aa(lp6
S'timestamp'
p7
aF0.8547070026397705
aatp8
Rp9
.ccollections
OrderedDict
p0
((lp1
(lp2
S'state'
p3
aI0
aa(lp4
S'distance'
p5
aF374.28907012939453
aa(lp6
S'timestamp'
p7
aF0.8563048839569092
aatp8
Rp9
.ccollections
OrderedDict
p0
((lp1
(lp2
S'state'
p3
aI0
aa(lp4
S'distance'
p5
aF374.28907012939453
aa(lp6
S'timestamp'
p7
aF0.8564670085906982
aatp8
Rp9
.ccollections
OrderedDict
p0
((lp1
(lp2
S'state'
p3
aI0
aa(lp4
S'distance'
p5
aF374.28907012939453
aa(lp6
S'timestamp'
p7
aF0.8572678565979004
aatp8
Rp9
.ccollections
OrderedDict
p0
((lp1
(lp2
S'state'
p3
aI0
aa(lp4
S'distance'
p5
aF374.28907012939453
aa(lp6
S'timestamp'
p7
aF0.8629360198974609
aatp8
Rp9
.ccollections
OrderedDict
p0
((lp1
(lp2
S'state'
p3
aI0
aa(lp4
S'distance'
p5
aF374.28907012939453
aa(lp6
S'timestamp'
p7
aF0.8631789684295654
aatp8
Rp9
.ccollections
OrderedDict
p0
((lp1
(lp2
S'state'
p3
aI0
aa(lp4
S'distance'
p5
aF374.28907012939453
aa(lp6
S'timestamp'
p7
aF0.8730020523071289
aatp8
Rp9
.ccollections
OrderedDict
p0
((lp1
(lp2
S'state'
p3
aI0
aa(lp4
S'distance'
p5
aF374.28907012939453
aa(lp6
S'timestamp'
p7
aF0.8734049797058105
aatp8
Rp9
.ccollections
OrderedDict
p0
((lp1
(lp2
S'state'
p3
aI0
aa(lp4
S'distance'
p5
aF374.28907012939453
aa(lp6
S'timestamp'
p7
aF0.8828959465026855
aatp8
Rp9
.ccollections
OrderedDict
p0
((lp1
(lp2
S'state'
p3
aI0
aa(lp4
S'distance'
p5
aF374.28907012939453
aa(lp6
S'timestamp'
p7
aF0.8829848766326904
aatp8
Rp9
.ccollections
OrderedDict
p0
((lp1
(lp2
S'state'
p3
aI0
aa(lp4
S'distance'
p5
aF374.28907012939453
aa(lp6
S'timestamp'
p7
aF0.8932878971099854
aatp8
Rp9
.ccollections
OrderedDict
p0
((lp1
(lp2
S'state'
p3
aI0
aa(lp4
S'distance'
p5
aF374.28907012939453
aa(lp6
S'timestamp'
p7
aF0.8933720588684082
aatp8
Rp9
.ccollections
OrderedDict
p0
((lp1
(lp2
S'state'
p3
aI0
aa(lp4
S'distance'
p5
aF374.28907012939453
aa(lp6
S'timestamp'
p7
aF0.9126060009002686
aatp8
Rp9
.ccollections
OrderedDict
p0
((lp1
(lp2
S'state'
p3
aI0
aa(lp4
S'distance'
p5
aF374.28907012939453
aa(lp6
S'timestamp'
p7
aF0.9129729270935059
aatp8
Rp9
.ccollections
OrderedDict
p0
((lp1
(lp2
S'state'
p3
aI0
aa(lp4
S'distance'
p5
aF374.28907012939453
aa(lp6
S'timestamp'
p7
aF0.9142649173736572
aatp8
Rp9
.ccollections
OrderedDict
p0
((lp1
(lp2
S'state'
p3
aI0
aa(lp4
S'distance'
p5
aF374.28907012939453
aa(lp6
S'timestamp'
p7
aF0.9143588542938232
aatp8
Rp9
.ccollections
OrderedDict
p0
((lp1
(lp2
S'state'
p3
aI0
aa(lp4
S'distance'
p5
aF374.28907012939453
aa(lp6
S'timestamp'
p7
aF0.9227628707885742
aatp8
Rp9
.ccollections
OrderedDict
p0
((lp1
(lp2
S'state'
p3
aI0
aa(lp4
S'distance'
p5
aF374.28907012939453
aa(lp6
S'timestamp'
p7
aF0.9229369163513184
aatp8
Rp9
.ccollections
OrderedDict
p0
((lp1
(lp2
S'state'
p3
aI0
aa(lp4
S'distance'
p5
aF374.28907012939453
aa(lp6
S'timestamp'
p7
aF0.9328160285949707
aatp8
Rp9
.ccollections
OrderedDict
p0
((lp1
(lp2
S'state'
p3
aI0
aa(lp4
S'distance'
p5
aF374.28907012939453
aa(lp6
S'timestamp'
p7
aF0.9330630302429199
aatp8
Rp9
.ccollections
OrderedDict
p0
((lp1
(lp2
S'state'
p3
aI0
aa(lp4
S'distance'
p5
aF374.28907012939453
aa(lp6
S'timestamp'
p7
aF0.9528470039367676
aatp8
Rp9
.ccollections
OrderedDict
p0
((lp1
(lp2
S'state'
p3
aI0
aa(lp4
S'distance'
p5
aF374.28907012939453
aa(lp6
S'timestamp'
p7
aF0.9529528617858887
aatp8
Rp9
.ccollections
OrderedDict
p0
((lp1
(lp2
S'state'
p3
aI0
aa(lp4
S'distance'
p5
aF374.28907012939453
aa(lp6
S'timestamp'
p7
aF0.9547998905181885
aatp8
Rp9
.ccollections
OrderedDict
p0
((lp1
(lp2
S'state'
p3
aI0
aa(lp4
S'distance'
p5
aF374.28907012939453
aa(lp6
S'timestamp'
p7
aF0.9550490379333496
aatp8
Rp9
.ccollections
OrderedDict
p0
((lp1
(lp2
S'state'
p3
aI0
aa(lp4
S'distance'
p5
aF374.28907012939453
aa(lp6
S'timestamp'
p7
aF0.9628579616546631
aatp8
Rp9
.ccollections
OrderedDict
p0
((lp1
(lp2
S'state'
p3
aI0
aa(lp4
S'distance'
p5
aF374.28907012939453
aa(lp6
S'timestamp'
p7
aF0.9629440307617188
aatp8
Rp9
.ccollections
OrderedDict
p0
((lp1
(lp2
S'state'
p3
aI0
aa(lp4
S'distance'
p5
aF374.28907012939453
aa(lp6
S'timestamp'
p7
aF0.9726910591125488
aatp8
Rp9
.ccollections
OrderedDict
p0
((lp1
(lp2
S'state'
p3
aI0
aa(lp4
S'distance'
p5
aF374.28907012939453
aa(lp6
S'timestamp'
p7
aF0.9730958938598633
aatp8
Rp9
.ccollections
OrderedDict
p0
((lp1
(lp2
S'state'
p3
aI0
aa(lp4
S'distance'
p5
aF374.28907012939453
aa(lp6
S'timestamp'
p7
aF0.982733964920044
aatp8
Rp9
.ccollections
OrderedDict
p0
((lp1
(lp2
S'state'
p3
aI0
aa(lp4
S'distance'
p5
aF374.28907012939453
aa(lp6
S'timestamp'
p7
aF0.9831039905548096
aatp8
Rp9
.ccollections
OrderedDict
p0
((lp1
(lp2
S'state'
p3
aI0
aa(lp4
S'distance'
p5
aF374.28907012939453
aa(lp6
S'timestamp'
p7
aF0.9927229881286621
aatp8
Rp9
.ccollections
OrderedDict
p0
((lp1
(lp2
S'state'
p3
aI0
aa(lp4
S'distance'
p5
aF374.28907012939453
aa(lp6
S'timestamp'
p7
aF0.9936978816986084
aatp8
Rp9
.ccollections
OrderedDict
p0
((lp1
(lp2
S'state'
p3
aI0
aa(lp4
S'distance'
p5
aF374.28907012939453
aa(lp6
S'timestamp'
p7
aF1.00313401222229
aatp8
Rp9
.ccollections
OrderedDict
p0
((lp1
(lp2
S'state'
p3
aI0
aa(lp4
S'distance'
p5
aF374.28907012939453
aa(lp6
S'timestamp'
p7
aF1.0036029815673828
aatp8
Rp9
.ccollections
OrderedDict
p0
((lp1
(lp2
S'state'
p3
aI0
aa(lp4
S'distance'
p5
aF374.28907012939453
aa(lp6
S'timestamp'
p7
aF1.0127708911895752
aatp8
Rp9
.ccollections
OrderedDict
p0
((lp1
(lp2
S'state'
p3
aI0
aa(lp4
S'distance'
p5
aF374.28907012939453
aa(lp6
S'timestamp'
p7
aF1.0328919887542725
aatp8
Rp9
.ccollections
OrderedDict
p0
((lp1
(lp2
S'state'
p3
aI0
aa(lp4
S'distance'
p5
aF374.28907012939453
aa(lp6
S'timestamp'
p7
aF1.0330898761749268
aatp8
Rp9
.ccollections
OrderedDict
p0
((lp1
(lp2
S'state'
p3
aI0
aa(lp4
S'distance'
p5
aF374.28907012939453
aa(lp6
S'timestamp'
p7
aF1.033869981765747
aatp8
Rp9
.ccollections
OrderedDict
p0
((lp1
(lp2
S'state'
p3
aI0
aa(lp4
S'distance'
p5
aF374.28907012939453
aa(lp6
S'timestamp'
p7
aF1.0347239971160889
aatp8
Rp9
.ccollections
OrderedDict
p0
((lp1
(lp2
S'state'
p3
aI0
aa(lp4
S'distance'
p5
aF374.28907012939453
aa(lp6
S'timestamp'
p7
aF1.0428190231323242
aatp8
Rp9
.ccollections
OrderedDict
p0
((lp1
(lp2
S'state'
p3
aI0
aa(lp4
S'distance'
p5
aF374.28907012939453
aa(lp6
S'timestamp'
p7
aF1.042975902557373
aatp8
Rp9
.ccollections
OrderedDict
p0
((lp1
(lp2
S'state'
p3
aI0
aa(lp4
S'distance'
p5
aF374.28907012939453
aa(lp6
S'timestamp'
p7
aF1.043705940246582
aatp8
Rp9
.ccollections
OrderedDict
p0
((lp1
(lp2
S'state'
p3
aI0
aa(lp4
S'distance'
p5
aF374.28907012939453
aa(lp6
S'timestamp'
p7
aF1.0628960132598877
aatp8
Rp9
.ccollections
OrderedDict
p0
((lp1
(lp2
S'state'
p3
aI0
aa(lp4
S'distance'
p5
aF374.28907012939453
aa(lp6
S'timestamp'
p7
aF1.0631530284881592
aatp8
Rp9
.ccollections
OrderedDict
p0
((lp1
(lp2
S'state'
p3
aI0
aa(lp4
S'distance'
p5
aF374.28907012939453
aa(lp6
S'timestamp'
p7
aF1.0647120475769043
aatp8
Rp9
.ccollections
OrderedDict
p0
((lp1
(lp2
S'state'
p3
aI0
aa(lp4
S'distance'
p5
aF374.28907012939453
aa(lp6
S'timestamp'
p7
aF1.0652940273284912
aatp8
Rp9
.ccollections
OrderedDict
p0
((lp1
(lp2
S'state'
p3
aI0
aa(lp4
S'distance'
p5
aF374.28907012939453
aa(lp6
S'timestamp'
p7
aF1.0728609561920166
aatp8
Rp9
.ccollections
OrderedDict
p0
((lp1
(lp2
S'state'
p3
aI0
aa(lp4
S'distance'
p5
aF374.28907012939453
aa(lp6
S'timestamp'
p7
aF1.0729918479919434
aatp8
Rp9
.ccollections
OrderedDict
p0
((lp1
(lp2
S'state'
p3
aI0
aa(lp4
S'distance'
p5
aF374.28907012939453
aa(lp6
S'timestamp'
p7
aF1.0928230285644531
aatp8
Rp9
.ccollections
OrderedDict
p0
((lp1
(lp2
S'state'
p3
aI0
aa(lp4
S'distance'
p5
aF374.28907012939453
aa(lp6
S'timestamp'
p7
aF1.0929839611053467
aatp8
Rp9
.ccollections
OrderedDict
p0
((lp1
(lp2
S'state'
p3
aI0
aa(lp4
S'distance'
p5
aF374.28907012939453
aa(lp6
S'timestamp'
p7
aF1.0938639640808105
aatp8
Rp9
.ccollections
OrderedDict
p0
((lp1
(lp2
S'state'
p3
aI0
aa(lp4
S'distance'
p5
aF374.28907012939453
aa(lp6
S'timestamp'
p7
aF1.0946459770202637
aatp8
Rp9
.ccollections
OrderedDict
p0
((lp1
(lp2
S'state'
p3
aI0
aa(lp4
S'distance'
p5
aF374.28907012939453
aa(lp6
S'timestamp'
p7
aF1.102651834487915
aatp8
Rp9
.ccollections
OrderedDict
p0
((lp1
(lp2
S'state'
p3
aI0
aa(lp4
S'distance'
p5
aF374.28907012939453
aa(lp6
S'timestamp'
p7
aF1.1033709049224854
aatp8
Rp9
.ccollections
OrderedDict
p0
((lp1
(lp2
S'state'
p3
aI0
aa(lp4
S'distance'
p5
aF374.28907012939453
aa(lp6
S'timestamp'
p7
aF1.1132659912109375
aatp8
Rp9
.ccollections
OrderedDict
p0
((lp1
(lp2
S'state'
p3
aI0
aa(lp4
S'distance'
p5
aF374.28907012939453
aa(lp6
S'timestamp'
p7
aF1.1133449077606201
aatp8
Rp9
.ccollections
OrderedDict
p0
((lp1
(lp2
S'state'
p3
aI0
aa(lp4
S'distance'
p5
aF374.28907012939453
aa(lp6
S'timestamp'
p7
aF1.1227588653564453
aatp8
Rp9
.ccollections
OrderedDict
p0
((lp1
(lp2
S'state'
p3
aI0
aa(lp4
S'distance'
p5
aF374.28907012939453
aa(lp6
S'timestamp'
p7
aF1.123460054397583
aatp8
Rp9
.ccollections
OrderedDict
p0
((lp1
(lp2
S'state'
p3
aI0
aa(lp4
S'distance'
p5
aF374.28907012939453
aa(lp6
S'timestamp'
p7
aF1.1432280540466309
aatp8
Rp9
.ccollections
OrderedDict
p0
((lp1
(lp2
S'state'
p3
aI0
aa(lp4
S'distance'
p5
aF374.28907012939453
aa(lp6
S'timestamp'
p7
aF1.1436328887939453
aatp8
Rp9
.ccollections
OrderedDict
p0
((lp1
(lp2
S'state'
p3
aI0
aa(lp4
S'distance'
p5
aF374.28907012939453
aa(lp6
S'timestamp'
p7
aF1.1448700428009033
aatp8
Rp9
.ccollections
OrderedDict
p0
((lp1
(lp2
S'state'
p3
aI0
aa(lp4
S'distance'
p5
aF374.28907012939453
aa(lp6
S'timestamp'
p7
aF1.1459589004516602
aatp8
Rp9
.ccollections
OrderedDict
p0
((lp1
(lp2
S'state'
p3
aI0
aa(lp4
S'distance'
p5
aF374.28907012939453
aa(lp6
S'timestamp'
p7
aF1.1626770496368408
aatp8
Rp9
.ccollections
OrderedDict
p0
((lp1
(lp2
S'state'
p3
aI0
aa(lp4
S'distance'
p5
aF374.28907012939453
aa(lp6
S'timestamp'
p7
aF1.1630010604858398
aatp8
Rp9
.ccollections
OrderedDict
p0
((lp1
(lp2
S'state'
p3
aI0
aa(lp4
S'distance'
p5
aF374.28907012939453
aa(lp6
S'timestamp'
p7
aF1.1727418899536133
aatp8
Rp9
.ccollections
OrderedDict
p0
((lp1
(lp2
S'state'
p3
aI0
aa(lp4
S'distance'
p5
aF374.28907012939453
aa(lp6
S'timestamp'
p7
aF1.17295503616333
aatp8
Rp9
.ccollections
OrderedDict
p0
((lp1
(lp2
S'state'
p3
aI0
aa(lp4
S'distance'
p5
aF374.28907012939453
aa(lp6
S'timestamp'
p7
aF1.1739919185638428
aatp8
Rp9
.ccollections
OrderedDict
p0
((lp1
(lp2
S'state'
p3
aI0
aa(lp4
S'distance'
p5
aF374.28907012939453
aa(lp6
S'timestamp'
p7
aF1.174332857131958
aatp8
Rp9
.ccollections
OrderedDict
p0
((lp1
(lp2
S'state'
p3
aI0
aa(lp4
S'distance'
p5
aF374.28907012939453
aa(lp6
S'timestamp'
p7
aF1.202873945236206
aatp8
Rp9
.ccollections
OrderedDict
p0
((lp1
(lp2
S'state'
p3
aI0
aa(lp4
S'distance'
p5
aF374.28907012939453
aa(lp6
S'timestamp'
p7
aF1.202988862991333
aatp8
Rp9
.ccollections
OrderedDict
p0
((lp1
(lp2
S'state'
p3
aI0
aa(lp4
S'distance'
p5
aF374.28907012939453
aa(lp6
S'timestamp'
p7
aF1.203523874282837
aatp8
Rp9
.ccollections
OrderedDict
p0
((lp1
(lp2
S'state'
p3
aI0
aa(lp4
S'distance'
p5
aF374.28907012939453
aa(lp6
S'timestamp'
p7
aF1.2046239376068115
aatp8
Rp9
.ccollections
OrderedDict
p0
((lp1
(lp2
S'state'
p3
aI0
aa(lp4
S'distance'
p5
aF374.28907012939453
aa(lp6
S'timestamp'
p7
aF1.212575912475586
aatp8
Rp9
.ccollections
OrderedDict
p0
((lp1
(lp2
S'state'
p3
aI0
aa(lp4
S'distance'
p5
aF374.28907012939453
aa(lp6
S'timestamp'
p7
aF1.2135469913482666
aatp8
Rp9
.ccollections
OrderedDict
p0
((lp1
(lp2
S'state'
p3
aI0
aa(lp4
S'distance'
p5
aF374.28907012939453
aa(lp6
S'timestamp'
p7
aF1.2150049209594727
aatp8
Rp9
.ccollections
OrderedDict
p0
((lp1
(lp2
S'state'
p3
aI0
aa(lp4
S'distance'
p5
aF374.28907012939453
aa(lp6
S'timestamp'
p7
aF1.2161190509796143
aatp8
Rp9
.ccollections
OrderedDict
p0
((lp1
(lp2
S'state'
p3
aI0
aa(lp4
S'distance'
p5
aF374.28907012939453
aa(lp6
S'timestamp'
p7
aF1.2230558395385742
aatp8
Rp9
.ccollections
OrderedDict
p0
((lp1
(lp2
S'state'
p3
aI0
aa(lp4
S'distance'
p5
aF374.28907012939453
aa(lp6
S'timestamp'
p7
aF1.2253270149230957
aatp8
Rp9
.ccollections
OrderedDict
p0
((lp1
(lp2
S'state'
p3
aI0
aa(lp4
S'distance'
p5
aF374.28907012939453
aa(lp6
S'timestamp'
p7
aF1.232698917388916
aatp8
Rp9
.ccollections
OrderedDict
p0
((lp1
(lp2
S'state'
p3
aI0
aa(lp4
S'distance'
p5
aF374.28907012939453
aa(lp6
S'timestamp'
p7
aF1.2332260608673096
aatp8
Rp9
.ccollections
OrderedDict
p0
((lp1
(lp2
S'state'
p3
aI0
aa(lp4
S'distance'
p5
aF374.28907012939453
aa(lp6
S'timestamp'
p7
aF1.2426488399505615
aatp8
Rp9
.ccollections
OrderedDict
p0
((lp1
(lp2
S'state'
p3
aI0
aa(lp4
S'distance'
p5
aF374.28907012939453
aa(lp6
S'timestamp'
p7
aF1.2431540489196777
aatp8
Rp9
.ccollections
OrderedDict
p0
((lp1
(lp2
S'state'
p3
aI0
aa(lp4
S'distance'
p5
aF374.28907012939453
aa(lp6
S'timestamp'
p7
aF1.2528610229492188
aatp8
Rp9
.ccollections
OrderedDict
p0
((lp1
(lp2
S'state'
p3
aI0
aa(lp4
S'distance'
p5
aF374.28907012939453
aa(lp6
S'timestamp'
p7
aF1.2529480457305908
aatp8
Rp9
.ccollections
OrderedDict
p0
((lp1
(lp2
S'state'
p3
aI0
aa(lp4
S'distance'
p5
aF374.28907012939453
aa(lp6
S'timestamp'
p7
aF1.2627370357513428
aatp8
Rp9
.ccollections
OrderedDict
p0
((lp1
(lp2
S'state'
p3
aI0
aa(lp4
S'distance'
p5
aF374.28907012939453
aa(lp6
S'timestamp'
p7
aF1.2636198997497559
aatp8
Rp9
.ccollections
OrderedDict
p0
((lp1
(lp2
S'state'
p3
aI0
aa(lp4
S'distance'
p5
aF374.28907012939453
aa(lp6
S'timestamp'
p7
aF1.2827298641204834
aatp8
Rp9
.ccollections
OrderedDict
p0
((lp1
(lp2
S'state'
p3
aI0
aa(lp4
S'distance'
p5
aF374.28907012939453
aa(lp6
S'timestamp'
p7
aF1.2837178707122803
aatp8
Rp9
.ccollections
OrderedDict
p0
((lp1
(lp2
S'state'
p3
aI0
aa(lp4
S'distance'
p5
aF374.28907012939453
aa(lp6
S'timestamp'
p7
aF1.2846019268035889
aatp8
Rp9
.ccollections
OrderedDict
p0
((lp1
(lp2
S'state'
p3
aI0
aa(lp4
S'distance'
p5
aF374.28907012939453
aa(lp6
S'timestamp'
p7
aF1.285222053527832
aatp8
Rp9
.ccollections
OrderedDict
p0
((lp1
(lp2
S'state'
p3
aI0
aa(lp4
S'distance'
p5
aF374.28907012939453
aa(lp6
S'timestamp'
p7
aF1.292646884918213
aatp8
Rp9
.ccollections
OrderedDict
p0
((lp1
(lp2
S'state'
p3
aI0
aa(lp4
S'distance'
p5
aF374.28907012939453
aa(lp6
S'timestamp'
p7
aF1.293071985244751
aatp8
Rp9
.ccollections
OrderedDict
p0
((lp1
(lp2
S'state'
p3
aI0
aa(lp4
S'distance'
p5
aF374.28907012939453
aa(lp6
S'timestamp'
p7
aF1.3025808334350586
aatp8
Rp9
.ccollections
OrderedDict
p0
((lp1
(lp2
S'state'
p3
aI0
aa(lp4
S'distance'
p5
aF374.28907012939453
aa(lp6
S'timestamp'
p7
aF1.3030860424041748
aatp8
Rp9
.ccollections
OrderedDict
p0
((lp1
(lp2
S'state'
p3
aI0
aa(lp4
S'distance'
p5
aF374.28907012939453
aa(lp6
S'timestamp'
p7
aF1.3124778270721436
aatp8
Rp9
.ccollections
OrderedDict
p0
((lp1
(lp2
S'state'
p3
aI0
aa(lp4
S'distance'
p5
aF374.28907012939453
aa(lp6
S'timestamp'
p7
aF1.3130559921264648
aatp8
Rp9
.ccollections
OrderedDict
p0
((lp1
(lp2
S'state'
p3
aI0
aa(lp4
S'distance'
p5
aF374.28907012939453
aa(lp6
S'timestamp'
p7
aF1.3227169513702393
aatp8
Rp9
.ccollections
OrderedDict
p0
((lp1
(lp2
S'state'
p3
aI0
aa(lp4
S'distance'
p5
aF374.28907012939453
aa(lp6
S'timestamp'
p7
aF1.3229138851165771
aatp8
Rp9
.ccollections
OrderedDict
p0
((lp1
(lp2
S'state'
p3
aI0
aa(lp4
S'distance'
p5
aF374.28907012939453
aa(lp6
S'timestamp'
p7
aF1.3531348705291748
aatp8
Rp9
.ccollections
OrderedDict
p0
((lp1
(lp2
S'state'
p3
aI0
aa(lp4
S'distance'
p5
aF374.28907012939453
aa(lp6
S'timestamp'
p7
aF1.3532218933105469
aatp8
Rp9
.ccollections
OrderedDict
p0
((lp1
(lp2
S'state'
p3
aI0
aa(lp4
S'distance'
p5
aF374.28907012939453
aa(lp6
S'timestamp'
p7
aF1.3532910346984863
aatp8
Rp9
.ccollections
OrderedDict
p0
((lp1
(lp2
S'state'
p3
aI0
aa(lp4
S'distance'
p5
aF374.28907012939453
aa(lp6
S'timestamp'
p7
aF1.3541598320007324
aatp8
Rp9
.ccollections
OrderedDict
p0
((lp1
(lp2
S'state'
p3
aI0
aa(lp4
S'distance'
p5
aF374.28907012939453
aa(lp6
S'timestamp'
p7
aF1.362757921218872
aatp8
Rp9
.ccollections
OrderedDict
p0
((lp1
(lp2
S'state'
p3
aI0
aa(lp4
S'distance'
p5
aF374.28907012939453
aa(lp6
S'timestamp'
p7
aF1.363008975982666
aatp8
Rp9
.ccollections
OrderedDict
p0
((lp1
(lp2
S'state'
p3
aI0
aa(lp4
S'distance'
p5
aF374.28907012939453
aa(lp6
S'timestamp'
p7
aF1.363523006439209
aatp8
Rp9
.ccollections
OrderedDict
p0
((lp1
(lp2
S'state'
p3
aI0
aa(lp4
S'distance'
p5
aF374.28907012939453
aa(lp6
S'timestamp'
p7
aF1.372730016708374
aatp8
Rp9
.ccollections
OrderedDict
p0
((lp1
(lp2
S'state'
p3
aI0
aa(lp4
S'distance'
p5
aF374.28907012939453
aa(lp6
S'timestamp'
p7
aF1.372905969619751
aatp8
Rp9
.ccollections
OrderedDict
p0
((lp1
(lp2
S'state'
p3
aI0
aa(lp4
S'distance'
p5
aF374.28907012939453
aa(lp6
S'timestamp'
p7
aF1.3753230571746826
aatp8
Rp9
.ccollections
OrderedDict
p0
((lp1
(lp2
S'state'
p3
aI0
aa(lp4
S'distance'
p5
aF374.28907012939453
aa(lp6
S'timestamp'
p7
aF1.3825838565826416
aatp8
Rp9
.ccollections
OrderedDict
p0
((lp1
(lp2
S'state'
p3
aI0
aa(lp4
S'distance'
p5
aF374.28907012939453
aa(lp6
S'timestamp'
p7
aF1.3928518295288086
aatp8
Rp9
.ccollections
OrderedDict
p0
((lp1
(lp2
S'state'
p3
aI0
aa(lp4
S'distance'
p5
aF374.28907012939453
aa(lp6
S'timestamp'
p7
aF1.3930120468139648
aatp8
Rp9
.ccollections
OrderedDict
p0
((lp1
(lp2
S'state'
p3
aI0
aa(lp4
S'distance'
p5
aF374.28907012939453
aa(lp6
S'timestamp'
p7
aF1.3938028812408447
aatp8
Rp9
.ccollections
OrderedDict
p0
((lp1
(lp2
S'state'
p3
aI0
aa(lp4
S'distance'
p5
aF374.28907012939453
aa(lp6
S'timestamp'
p7
aF1.4025788307189941
aatp8
Rp9
.ccollections
OrderedDict
p0
((lp1
(lp2
S'state'
p3
aI0
aa(lp4
S'distance'
p5
aF374.28907012939453
aa(lp6
S'timestamp'
p7
aF1.403127908706665
aatp8
Rp9
.ccollections
OrderedDict
p0
((lp1
(lp2
S'state'
p3
aI0
aa(lp4
S'distance'
p5
aF374.28907012939453
aa(lp6
S'timestamp'
p7
aF1.4126379489898682
aatp8
Rp9
.ccollections
OrderedDict
p0
((lp1
(lp2
S'state'
p3
aI0
aa(lp4
S'distance'
p5
aF374.28907012939453
aa(lp6
S'timestamp'
p7
aF1.4135780334472656
aatp8
Rp9
.ccollections
OrderedDict
p0
((lp1
(lp2
S'state'
p3
aI0
aa(lp4
S'distance'
p5
aF374.28907012939453
aa(lp6
S'timestamp'
p7
aF1.422842025756836
aatp8
Rp9
.ccollections
OrderedDict
p0
((lp1
(lp2
S'state'
p3
aI0
aa(lp4
S'distance'
p5
aF374.28907012939453
aa(lp6
S'timestamp'
p7
aF1.4229328632354736
aatp8
Rp9
.ccollections
OrderedDict
p0
((lp1
(lp2
S'state'
p3
aI0
aa(lp4
S'distance'
p5
aF374.28907012939453
aa(lp6
S'timestamp'
p7
aF1.4327239990234375
aatp8
Rp9
.ccollections
OrderedDict
p0
((lp1
(lp2
S'state'
p3
aI0
aa(lp4
S'distance'
p5
aF374.28907012939453
aa(lp6
S'timestamp'
p7
aF1.4330439567565918
aatp8
Rp9
.ccollections
OrderedDict
p0
((lp1
(lp2
S'state'
p3
aI0
aa(lp4
S'distance'
p5
aF374.28907012939453
aa(lp6
S'timestamp'
p7
aF1.4427130222320557
aatp8
Rp9
.ccollections
OrderedDict
p0
((lp1
(lp2
S'state'
p3
aI0
aa(lp4
S'distance'
p5
aF374.28907012939453
aa(lp6
S'timestamp'
p7
aF1.4431610107421875
aatp8
Rp9
.ccollections
OrderedDict
p0
((lp1
(lp2
S'state'
p3
aI0
aa(lp4
S'distance'
p5
aF374.28907012939453
aa(lp6
S'timestamp'
p7
aF1.4527020454406738
aatp8
Rp9
.ccollections
OrderedDict
p0
((lp1
(lp2
S'state'
p3
aI0
aa(lp4
S'distance'
p5
aF374.28907012939453
aa(lp6
S'timestamp'
p7
aF1.4528460502624512
aatp8
Rp9
.ccollections
OrderedDict
p0
((lp1
(lp2
S'state'
p3
aI0
aa(lp4
S'distance'
p5
aF374.28907012939453
aa(lp6
S'timestamp'
p7
aF1.462817907333374
aatp8
Rp9
.ccollections
OrderedDict
p0
((lp1
(lp2
S'state'
p3
aI0
aa(lp4
S'distance'
p5
aF374.28907012939453
aa(lp6
S'timestamp'
p7
aF1.462951898574829
aatp8
Rp9
.ccollections
OrderedDict
p0
((lp1
(lp2
S'state'
p3
aI0
aa(lp4
S'distance'
p5
aF374.28907012939453
aa(lp6
S'timestamp'
p7
aF1.4728150367736816
aatp8
Rp9
.ccollections
OrderedDict
p0
((lp1
(lp2
S'state'
p3
aI0
aa(lp4
S'distance'
p5
aF374.28907012939453
aa(lp6
S'timestamp'
p7
aF1.473310947418213
aatp8
Rp9
.ccollections
OrderedDict
p0
((lp1
(lp2
S'state'
p3
aI0
aa(lp4
S'distance'
p5
aF374.28907012939453
aa(lp6
S'timestamp'
p7
aF1.482663869857788
aatp8
Rp9
.ccollections
OrderedDict
p0
((lp1
(lp2
S'state'
p3
aI0
aa(lp4
S'distance'
p5
aF374.28907012939453
aa(lp6
S'timestamp'
p7
aF1.4835388660430908
aatp8
Rp9
.ccollections
OrderedDict
p0
((lp1
(lp2
S'state'
p3
aI0
aa(lp4
S'distance'
p5
aF374.28907012939453
aa(lp6
S'timestamp'
p7
aF1.5027270317077637
aatp8
Rp9
.ccollections
OrderedDict
p0
((lp1
(lp2
S'state'
p3
aI0
aa(lp4
S'distance'
p5
aF374.28907012939453
aa(lp6
S'timestamp'
p7
aF1.5028610229492188
aatp8
Rp9
.ccollections
OrderedDict
p0
((lp1
(lp2
S'state'
p3
aI0
aa(lp4
S'distance'
p5
aF374.28907012939453
aa(lp6
S'timestamp'
p7
aF1.5040709972381592
aatp8
Rp9
.ccollections
OrderedDict
p0
((lp1
(lp2
S'state'
p3
aI0
aa(lp4
S'distance'
p5
aF374.28907012939453
aa(lp6
S'timestamp'
p7
aF1.5046329498291016
aatp8
Rp9
.ccollections
OrderedDict
p0
((lp1
(lp2
S'state'
p3
aI0
aa(lp4
S'distance'
p5
aF374.28907012939453
aa(lp6
S'timestamp'
p7
aF1.5128519535064697
aatp8
Rp9
.ccollections
OrderedDict
p0
((lp1
(lp2
S'state'
p3
aI0
aa(lp4
S'distance'
p5
aF374.28907012939453
aa(lp6
S'timestamp'
p7
aF1.5129358768463135
aatp8
Rp9
.ccollections
OrderedDict
p0
((lp1
(lp2
S'state'
p3
aI0
aa(lp4
S'distance'
p5
aF374.28907012939453
aa(lp6
S'timestamp'
p7
aF1.522778034210205
aatp8
Rp9
.ccollections
OrderedDict
p0
((lp1
(lp2
S'state'
p3
aI0
aa(lp4
S'distance'
p5
aF374.28907012939453
aa(lp6
S'timestamp'
p7
aF1.5236358642578125
aatp8
Rp9
.ccollections
OrderedDict
p0
((lp1
(lp2
S'state'
p3
aI0
aa(lp4
S'distance'
p5
aF374.28907012939453
aa(lp6
S'timestamp'
p7
aF1.5327188968658447
aatp8
Rp9
.ccollections
OrderedDict
p0
((lp1
(lp2
S'state'
p3
aI0
aa(lp4
S'distance'
p5
aF374.28907012939453
aa(lp6
S'timestamp'
p7
aF1.5332448482513428
aatp8
Rp9
.ccollections
OrderedDict
p0
((lp1
(lp2
S'state'
p3
aI0
aa(lp4
S'distance'
p5
aF374.28907012939453
aa(lp6
S'timestamp'
p7
aF1.542726993560791
aatp8
Rp9
.ccollections
OrderedDict
p0
((lp1
(lp2
S'state'
p3
aI0
aa(lp4
S'distance'
p5
aF374.28907012939453
aa(lp6
S'timestamp'
p7
aF1.5431909561157227
aatp8
Rp9
.ccollections
OrderedDict
p0
((lp1
(lp2
S'state'
p3
aI0
aa(lp4
S'distance'
p5
aF374.28907012939453
aa(lp6
S'timestamp'
p7
aF1.552778959274292
aatp8
Rp9
.ccollections
OrderedDict
p0
((lp1
(lp2
S'state'
p3
aI0
aa(lp4
S'distance'
p5
aF374.28907012939453
aa(lp6
S'timestamp'
p7
aF1.5529098510742188
aatp8
Rp9
.ccollections
OrderedDict
p0
((lp1
(lp2
S'state'
p3
aI0
aa(lp4
S'distance'
p5
aF374.28907012939453
aa(lp6
S'timestamp'
p7
aF1.572779893875122
aatp8
Rp9
.ccollections
OrderedDict
p0
((lp1
(lp2
S'state'
p3
aI0
aa(lp4
S'distance'
p5
aF374.28907012939453
aa(lp6
S'timestamp'
p7
aF1.5733559131622314
aatp8
Rp9
.ccollections
OrderedDict
p0
((lp1
(lp2
S'state'
p3
aI0
aa(lp4
S'distance'
p5
aF374.28907012939453
aa(lp6
S'timestamp'
p7
aF1.574009895324707
aatp8
Rp9
.ccollections
OrderedDict
p0
((lp1
(lp2
S'state'
p3
aI0
aa(lp4
S'distance'
p5
aF374.28907012939453
aa(lp6
S'timestamp'
p7
aF1.5747029781341553
aatp8
Rp9
.ccollections
OrderedDict
p0
((lp1
(lp2
S'state'
p3
aI0
aa(lp4
S'distance'
p5
aF374.28907012939453
aa(lp6
S'timestamp'
p7
aF1.582671880722046
aatp8
Rp9
.ccollections
OrderedDict
p0
((lp1
(lp2
S'state'
p3
aI0
aa(lp4
S'distance'
p5
aF374.28907012939453
aa(lp6
S'timestamp'
p7
aF1.5831758975982666
aatp8
Rp9
.ccollections
OrderedDict
p0
((lp1
(lp2
S'state'
p3
aI0
aa(lp4
S'distance'
p5
aF374.28907012939453
aa(lp6
S'timestamp'
p7
aF1.5927379131317139
aatp8
Rp9
.ccollections
OrderedDict
p0
((lp1
(lp2
S'state'
p3
aI0
aa(lp4
S'distance'
p5
aF374.28907012939453
aa(lp6
S'timestamp'
p7
aF1.5950329303741455
aatp8
Rp9
.ccollections
OrderedDict
p0
((lp1
(lp2
S'state'
p3
aI0
aa(lp4
S'distance'
p5
aF374.28907012939453
aa(lp6
S'timestamp'
p7
aF1.602712869644165
aatp8
Rp9
.ccollections
OrderedDict
p0
((lp1
(lp2
S'state'
p3
aI0
aa(lp4
S'distance'
p5
aF374.28907012939453
aa(lp6
S'timestamp'
p7
aF1.6030049324035645
aatp8
Rp9
.ccollections
OrderedDict
p0
((lp1
(lp2
S'state'
p3
aI0
aa(lp4
S'distance'
p5
aF374.28907012939453
aa(lp6
S'timestamp'
p7
aF1.612807035446167
aatp8
Rp9
.ccollections
OrderedDict
p0
((lp1
(lp2
S'state'
p3
aI0
aa(lp4
S'distance'
p5
aF374.28907012939453
aa(lp6
S'timestamp'
p7
aF1.6129419803619385
aatp8
Rp9
.ccollections
OrderedDict
p0
((lp1
(lp2
S'state'
p3
aI0
aa(lp4
S'distance'
p5
aF374.28907012939453
aa(lp6
S'timestamp'
p7
aF1.6227209568023682
aatp8
Rp9
.ccollections
OrderedDict
p0
((lp1
(lp2
S'state'
p3
aI0
aa(lp4
S'distance'
p5
aF374.28907012939453
aa(lp6
S'timestamp'
p7
aF1.6232259273529053
aatp8
Rp9
.ccollections
OrderedDict
p0
((lp1
(lp2
S'state'
p3
aI0
aa(lp4
S'distance'
p5
aF374.28907012939453
aa(lp6
S'timestamp'
p7
aF1.632619857788086
aatp8
Rp9
.ccollections
OrderedDict
p0
((lp1
(lp2
S'state'
p3
aI0
aa(lp4
S'distance'
p5
aF374.28907012939453
aa(lp6
S'timestamp'
p7
aF1.642685890197754
aatp8
Rp9
.ccollections
OrderedDict
p0
((lp1
(lp2
S'state'
p3
aI0
aa(lp4
S'distance'
p5
aF374.28907012939453
aa(lp6
S'timestamp'
p7
aF1.6428709030151367
aatp8
Rp9
.ccollections
OrderedDict
p0
((lp1
(lp2
S'state'
p3
aI0
aa(lp4
S'distance'
p5
aF374.28907012939453
aa(lp6
S'timestamp'
p7
aF1.6439979076385498
aatp8
Rp9
.ccollections
OrderedDict
p0
((lp1
(lp2
S'state'
p3
aI0
aa(lp4
S'distance'
p5
aF374.28907012939453
aa(lp6
S'timestamp'
p7
aF1.6527059078216553
aatp8
Rp9
.ccollections
OrderedDict
p0
((lp1
(lp2
S'state'
p3
aI0
aa(lp4
S'distance'
p5
aF374.28907012939453
aa(lp6
S'timestamp'
p7
aF1.6536970138549805
aatp8
Rp9
.ccollections
OrderedDict
p0
((lp1
(lp2
S'state'
p3
aI0
aa(lp4
S'distance'
p5
aF374.28907012939453
aa(lp6
S'timestamp'
p7
aF1.6627368927001953
aatp8
Rp9
.ccollections
OrderedDict
p0
((lp1
(lp2
S'state'
p3
aI0
aa(lp4
S'distance'
p5
aF374.28907012939453
aa(lp6
S'timestamp'
p7
aF1.663214921951294
aatp8
Rp9
.ccollections
OrderedDict
p0
((lp1
(lp2
S'state'
p3
aI0
aa(lp4
S'distance'
p5
aF374.28907012939453
aa(lp6
S'timestamp'
p7
aF1.6725029945373535
aatp8
Rp9
.ccollections
OrderedDict
p0
((lp1
(lp2
S'state'
p3
aI0
aa(lp4
S'distance'
p5
aF374.28907012939453
aa(lp6
S'timestamp'
p7
aF1.6731350421905518
aatp8
Rp9
.ccollections
OrderedDict
p0
((lp1
(lp2
S'state'
p3
aI0
aa(lp4
S'distance'
p5
aF374.28907012939453
aa(lp6
S'timestamp'
p7
aF1.68265700340271
aatp8
Rp9
.ccollections
OrderedDict
p0
((lp1
(lp2
S'state'
p3
aI0
aa(lp4
S'distance'
p5
aF374.28907012939453
aa(lp6
S'timestamp'
p7
aF1.6835050582885742
aatp8
Rp9
.ccollections
OrderedDict
p0
((lp1
(lp2
S'state'
p3
aI0
aa(lp4
S'distance'
p5
aF374.28907012939453
aa(lp6
S'timestamp'
p7
aF1.6927168369293213
aatp8
Rp9
.ccollections
OrderedDict
p0
((lp1
(lp2
S'state'
p3
aI0
aa(lp4
S'distance'
p5
aF374.28907012939453
aa(lp6
S'timestamp'
p7
aF1.6931579113006592
aatp8
Rp9
.ccollections
OrderedDict
p0
((lp1
(lp2
S'state'
p3
aI0
aa(lp4
S'distance'
p5
aF374.28907012939453
aa(lp6
S'timestamp'
p7
aF1.7025909423828125
aatp8
Rp9
.ccollections
OrderedDict
p0
((lp1
(lp2
S'state'
p3
aI0
aa(lp4
S'distance'
p5
aF374.28907012939453
aa(lp6
S'timestamp'
p7
aF1.7031219005584717
aatp8
Rp9
.ccollections
OrderedDict
p0
((lp1
(lp2
S'state'
p3
aI0
aa(lp4
S'distance'
p5
aF374.28907012939453
aa(lp6
S'timestamp'
p7
aF1.7126338481903076
aatp8
Rp9
.ccollections
OrderedDict
p0
((lp1
(lp2
S'state'
p3
aI0
aa(lp4
S'distance'
p5
aF374.28907012939453
aa(lp6
S'timestamp'
p7
aF1.7132089138031006
aatp8
Rp9
.ccollections
OrderedDict
p0
((lp1
(lp2
S'state'
p3
aI400
aa(lp4
S'distance'
p5
aF374.28907012939453
aa(lp6
S'timestamp'
p7
aF1.7240169048309326
aatp8
Rp9
.ccollections
OrderedDict
p0
((lp1
(lp2
S'state'
p3
aI400
aa(lp4
S'distance'
p5
aF374.28907012939453
aa(lp6
S'timestamp'
p7
aF1.724179983139038
aatp8
Rp9
.ccollections
OrderedDict
p0
((lp1
(lp2
S'state'
p3
aI400
aa(lp4
S'distance'
p5
aF374.28907012939453
aa(lp6
S'timestamp'
p7
aF1.732719898223877
aatp8
Rp9
.ccollections
OrderedDict
p0
((lp1
(lp2
S'state'
p3
aI400
aa(lp4
S'distance'
p5
aF374.28907012939453
aa(lp6
S'timestamp'
p7
aF1.7331888675689697
aatp8
Rp9
.ccollections
OrderedDict
p0
((lp1
(lp2
S'state'
p3
aI400
aa(lp4
S'distance'
p5
aF374.28907012939453
aa(lp6
S'timestamp'
p7
aF1.7430229187011719
aatp8
Rp9
.ccollections
OrderedDict
p0
((lp1
(lp2
S'state'
p3
aI400
aa(lp4
S'distance'
p5
aF374.28907012939453
aa(lp6
S'timestamp'
p7
aF1.7436089515686035
aatp8
Rp9
.ccollections
OrderedDict
p0
((lp1
(lp2
S'state'
p3
aI400
aa(lp4
S'distance'
p5
aF374.28907012939453
aa(lp6
S'timestamp'
p7
aF1.7560069561004639
aatp8
Rp9
.ccollections
OrderedDict
p0
((lp1
(lp2
S'state'
p3
aI400
aa(lp4
S'distance'
p5
aF374.28907012939453
aa(lp6
S'timestamp'
p7
aF1.7562589645385742
aatp8
Rp9
.ccollections
OrderedDict
p0
((lp1
(lp2
S'state'
p3
aI400
aa(lp4
S'distance'
p5
aF374.28907012939453
aa(lp6
S'timestamp'
p7
aF1.7730929851531982
aatp8
Rp9
.ccollections
OrderedDict
p0
((lp1
(lp2
S'state'
p3
aI400
aa(lp4
S'distance'
p5
aF374.28907012939453
aa(lp6
S'timestamp'
p7
aF1.7735049724578857
aatp8
Rp9
.ccollections
OrderedDict
p0
((lp1
(lp2
S'state'
p3
aI400
aa(lp4
S'distance'
p5
aF374.28907012939453
aa(lp6
S'timestamp'
p7
aF1.7738218307495117
aatp8
Rp9
.ccollections
OrderedDict
p0
((lp1
(lp2
S'state'
p3
aI400
aa(lp4
S'distance'
p5
aF374.28907012939453
aa(lp6
S'timestamp'
p7
aF1.774245023727417
aatp8
Rp9
.ccollections
OrderedDict
p0
((lp1
(lp2
S'state'
p3
aI400
aa(lp4
S'distance'
p5
aF374.28907012939453
aa(lp6
S'timestamp'
p7
aF1.7931790351867676
aatp8
Rp9
.ccollections
OrderedDict
p0
((lp1
(lp2
S'state'
p3
aI400
aa(lp4
S'distance'
p5
aF374.28907012939453
aa(lp6
S'timestamp'
p7
aF1.7936348915100098
aatp8
Rp9
.ccollections
OrderedDict
p0
((lp1
(lp2
S'state'
p3
aI400
aa(lp4
S'distance'
p5
aF374.28907012939453
aa(lp6
S'timestamp'
p7
aF1.793755054473877
aatp8
Rp9
.ccollections
OrderedDict
p0
((lp1
(lp2
S'state'
p3
aI400
aa(lp4
S'distance'
p5
aF374.28907012939453
aa(lp6
S'timestamp'
p7
aF1.7945640087127686
aatp8
Rp9
.ccollections
OrderedDict
p0
((lp1
(lp2
S'state'
p3
aI400
aa(lp4
S'distance'
p5
aF374.28907012939453
aa(lp6
S'timestamp'
p7
aF1.805217981338501
aatp8
Rp9
.ccollections
OrderedDict
p0
((lp1
(lp2
S'state'
p3
aI400
aa(lp4
S'distance'
p5
aF374.28907012939453
aa(lp6
S'timestamp'
p7
aF1.8052978515625
aatp8
Rp9
.ccollections
OrderedDict
p0
((lp1
(lp2
S'state'
p3
aI400
aa(lp4
S'distance'
p5
aF374.28907012939453
aa(lp6
S'timestamp'
p7
aF1.8133208751678467
aatp8
Rp9
.ccollections
OrderedDict
p0
((lp1
(lp2
S'state'
p3
aI400
aa(lp4
S'distance'
p5
aF374.28907012939453
aa(lp6
S'timestamp'
p7
aF1.815187931060791
aatp8
Rp9
.ccollections
OrderedDict
p0
((lp1
(lp2
S'state'
p3
aI400
aa(lp4
S'distance'
p5
aF374.28907012939453
aa(lp6
S'timestamp'
p7
aF1.8226938247680664
aatp8
Rp9
.ccollections
OrderedDict
p0
((lp1
(lp2
S'state'
p3
aI400
aa(lp4
S'distance'
p5
aF374.28907012939453
aa(lp6
S'timestamp'
p7
aF1.8233599662780762
aatp8
Rp9
.ccollections
OrderedDict
p0
((lp1
(lp2
S'state'
p3
aI400
aa(lp4
S'distance'
p5
aF374.28907012939453
aa(lp6
S'timestamp'
p7
aF1.832932949066162
aatp8
Rp9
.ccollections
OrderedDict
p0
((lp1
(lp2
S'state'
p3
aI400
aa(lp4
S'distance'
p5
aF374.28907012939453
aa(lp6
S'timestamp'
p7
aF1.8330800533294678
aatp8
Rp9
.ccollections
OrderedDict
p0
((lp1
(lp2
S'state'
p3
aI400
aa(lp4
S'distance'
p5
aF374.28907012939453
aa(lp6
S'timestamp'
p7
aF1.843639850616455
aatp8
Rp9
.ccollections
OrderedDict
p0
((lp1
(lp2
S'state'
p3
aI400
aa(lp4
S'distance'
p5
aF374.28907012939453
aa(lp6
S'timestamp'
p7
aF1.8438210487365723
aatp8
Rp9
.ccollections
OrderedDict
p0
((lp1
(lp2
S'state'
p3
aI400
aa(lp4
S'distance'
p5
aF374.28907012939453
aa(lp6
S'timestamp'
p7
aF1.8527989387512207
aatp8
Rp9
.ccollections
OrderedDict
p0
((lp1
(lp2
S'state'
p3
aI400
aa(lp4
S'distance'
p5
aF374.28907012939453
aa(lp6
S'timestamp'
p7
aF1.8541259765625
aatp8
Rp9
.ccollections
OrderedDict
p0
((lp1
(lp2
S'state'
p3
aI400
aa(lp4
S'distance'
p5
aF374.28907012939453
aa(lp6
S'timestamp'
p7
aF1.8633308410644531
aatp8
Rp9
.ccollections
OrderedDict
p0
((lp1
(lp2
S'state'
p3
aI400
aa(lp4
S'distance'
p5
aF374.28907012939453
aa(lp6
S'timestamp'
p7
aF1.8634119033813477
aatp8
Rp9
.ccollections
OrderedDict
p0
((lp1
(lp2
S'state'
p3
aI400
aa(lp4
S'distance'
p5
aF374.28907012939453
aa(lp6
S'timestamp'
p7
aF1.8728008270263672
aatp8
Rp9
.ccollections
OrderedDict
p0
((lp1
(lp2
S'state'
p3
aI400
aa(lp4
S'distance'
p5
aF374.28907012939453
aa(lp6
S'timestamp'
p7
aF1.8733320236206055
aatp8
Rp9
.ccollections
OrderedDict
p0
((lp1
(lp2
S'state'
p3
aI400
aa(lp4
S'distance'
p5
aF374.28907012939453
aa(lp6
S'timestamp'
p7
aF1.8826639652252197
aatp8
Rp9
.ccollections
OrderedDict
p0
((lp1
(lp2
S'state'
p3
aI400
aa(lp4
S'distance'
p5
aF374.28907012939453
aa(lp6
S'timestamp'
p7
aF1.8839359283447266
aatp8
Rp9
.ccollections
OrderedDict
p0
((lp1
(lp2
S'state'
p3
aI400
aa(lp4
S'distance'
p5
aF374.28907012939453
aa(lp6
S'timestamp'
p7
aF1.8926479816436768
aatp8
Rp9
.ccollections
OrderedDict
p0
((lp1
(lp2
S'state'
p3
aI400
aa(lp4
S'distance'
p5
aF374.28907012939453
aa(lp6
S'timestamp'
p7
aF1.893596887588501
aatp8
Rp9
.ccollections
OrderedDict
p0
((lp1
(lp2
S'state'
p3
aI400
aa(lp4
S'distance'
p5
aF374.28907012939453
aa(lp6
S'timestamp'
p7
aF1.9027469158172607
aatp8
Rp9
.ccollections
OrderedDict
p0
((lp1
(lp2
S'state'
p3
aI400
aa(lp4
S'distance'
p5
aF374.28907012939453
aa(lp6
S'timestamp'
p7
aF1.9034919738769531
aatp8
Rp9
.ccollections
OrderedDict
p0
((lp1
(lp2
S'state'
p3
aI400
aa(lp4
S'distance'
p5
aF374.28907012939453
aa(lp6
S'timestamp'
p7
aF1.9127800464630127
aatp8
Rp9
.ccollections
OrderedDict
p0
((lp1
(lp2
S'state'
p3
aI400
aa(lp4
S'distance'
p5
aF374.28907012939453
aa(lp6
S'timestamp'
p7
aF1.9133670330047607
aatp8
Rp9
.ccollections
OrderedDict
p0
((lp1
(lp2
S'state'
p3
aI400
aa(lp4
S'distance'
p5
aF374.28907012939453
aa(lp6
S'timestamp'
p7
aF1.9232099056243896
aatp8
Rp9
.ccollections
OrderedDict
p0
((lp1
(lp2
S'state'
p3
aI400
aa(lp4
S'distance'
p5
aF374.28907012939453
aa(lp6
S'timestamp'
p7
aF1.943084955215454
aatp8
Rp9
.ccollections
OrderedDict
p0
((lp1
(lp2
S'state'
p3
aI400
aa(lp4
S'distance'
p5
aF374.28907012939453
aa(lp6
S'timestamp'
p7
aF1.943268060684204
aatp8
Rp9
.ccollections
OrderedDict
p0
((lp1
(lp2
S'state'
p3
aI400
aa(lp4
S'distance'
p5
aF374.28907012939453
aa(lp6
S'timestamp'
p7
aF1.9445469379425049
aatp8
Rp9
.ccollections
OrderedDict
p0
((lp1
(lp2
S'state'
p3
aI400
aa(lp4
S'distance'
p5
aF374.28907012939453
aa(lp6
S'timestamp'
p7
aF1.9451730251312256
aatp8
Rp9
.ccollections
OrderedDict
p0
((lp1
(lp2
S'state'
p3
aI400
aa(lp4
S'distance'
p5
aF374.28907012939453
aa(lp6
S'timestamp'
p7
aF1.952805995941162
aatp8
Rp9
.ccollections
OrderedDict
p0
((lp1
(lp2
S'state'
p3
aI400
aa(lp4
S'distance'
p5
aF374.28907012939453
aa(lp6
S'timestamp'
p7
aF1.9529609680175781
aatp8
Rp9
.ccollections
OrderedDict
p0
((lp1
(lp2
S'state'
p3
aI400
aa(lp4
S'distance'
p5
aF374.28907012939453
aa(lp6
S'timestamp'
p7
aF1.9537689685821533
aatp8
Rp9
.ccollections
OrderedDict
p0
((lp1
(lp2
S'state'
p3
aI400
aa(lp4
S'distance'
p5
aF374.28907012939453
aa(lp6
S'timestamp'
p7
aF1.9627368450164795
aatp8
Rp9
.ccollections
OrderedDict
p0
((lp1
(lp2
S'state'
p3
aI400
aa(lp4
S'distance'
p5
aF374.28907012939453
aa(lp6
S'timestamp'
p7
aF1.9638679027557373
aatp8
Rp9
.ccollections
OrderedDict
p0
((lp1
(lp2
S'state'
p3
aI400
aa(lp4
S'distance'
p5
aF374.28907012939453
aa(lp6
S'timestamp'
p7
aF1.9727928638458252
aatp8
Rp9
.ccollections
OrderedDict
p0
((lp1
(lp2
S'state'
p3
aI400
aa(lp4
S'distance'
p5
aF374.28907012939453
aa(lp6
S'timestamp'
p7
aF1.9733929634094238
aatp8
Rp9
.ccollections
OrderedDict
p0
((lp1
(lp2
S'state'
p3
aI400
aa(lp4
S'distance'
p5
aF374.28907012939453
aa(lp6
S'timestamp'
p7
aF1.9835638999938965
aatp8
Rp9
.ccollections
OrderedDict
p0
((lp1
(lp2
S'state'
p3
aI400
aa(lp4
S'distance'
p5
aF374.28907012939453
aa(lp6
S'timestamp'
p7
aF1.9849729537963867
aatp8
Rp9
.ccollections
OrderedDict
p0
((lp1
(lp2
S'state'
p3
aI400
aa(lp4
S'distance'
p5
aF374.28907012939453
aa(lp6
S'timestamp'
p7
aF1.9931838512420654
aatp8
Rp9
.ccollections
OrderedDict
p0
((lp1
(lp2
S'state'
p3
aI400
aa(lp4
S'distance'
p5
aF374.28907012939453
aa(lp6
S'timestamp'
p7
aF1.9935739040374756
aatp8
Rp9
.ccollections
OrderedDict
p0
((lp1
(lp2
S'state'
p3
aI400
aa(lp4
S'distance'
p5
aF374.28907012939453
aa(lp6
S'timestamp'
p7
aF2.002717971801758
aatp8
Rp9
.ccollections
OrderedDict
p0
((lp1
(lp2
S'state'
p3
aI400
aa(lp4
S'distance'
p5
aF374.28907012939453
aa(lp6
S'timestamp'
p7
aF2.0035529136657715
aatp8
Rp9
.ccollections
OrderedDict
p0
((lp1
(lp2
S'state'
p3
aI400
aa(lp4
S'distance'
p5
aF374.28907012939453
aa(lp6
S'timestamp'
p7
aF2.022775888442993
aatp8
Rp9
.ccollections
OrderedDict
p0
((lp1
(lp2
S'state'
p3
aI400
aa(lp4
S'distance'
p5
aF374.28907012939453
aa(lp6
S'timestamp'
p7
aF2.022965908050537
aatp8
Rp9
.ccollections
OrderedDict
p0
((lp1
(lp2
S'state'
p3
aI400
aa(lp4
S'distance'
p5
aF374.28907012939453
aa(lp6
S'timestamp'
p7
aF2.0241808891296387
aatp8
Rp9
.ccollections
OrderedDict
p0
((lp1
(lp2
S'state'
p3
aI400
aa(lp4
S'distance'
p5
aF374.28907012939453
aa(lp6
S'timestamp'
p7
aF2.024260997772217
aatp8
Rp9
.ccollections
OrderedDict
p0
((lp1
(lp2
S'state'
p3
aI400
aa(lp4
S'distance'
p5
aF374.28907012939453
aa(lp6
S'timestamp'
p7
aF2.0328660011291504
aatp8
Rp9
.ccollections
OrderedDict
p0
((lp1
(lp2
S'state'
p3
aI400
aa(lp4
S'distance'
p5
aF374.28907012939453
aa(lp6
S'timestamp'
p7
aF2.0334670543670654
aatp8
Rp9
.ccollections
OrderedDict
p0
((lp1
(lp2
S'state'
p3
aI400
aa(lp4
S'distance'
p5
aF374.28907012939453
aa(lp6
S'timestamp'
p7
aF2.043182849884033
aatp8
Rp9
.ccollections
OrderedDict
p0
((lp1
(lp2
S'state'
p3
aI400
aa(lp4
S'distance'
p5
aF374.28907012939453
aa(lp6
S'timestamp'
p7
aF2.043539047241211
aatp8
Rp9
.ccollections
OrderedDict
p0
((lp1
(lp2
S'state'
p3
aI400
aa(lp4
S'distance'
p5
aF374.28907012939453
aa(lp6
S'timestamp'
p7
aF2.0527689456939697
aatp8
Rp9
.ccollections
OrderedDict
p0
((lp1
(lp2
S'state'
p3
aI400
aa(lp4
S'distance'
p5
aF374.28907012939453
aa(lp6
S'timestamp'
p7
aF2.054034948348999
aatp8
Rp9
.ccollections
OrderedDict
p0
((lp1
(lp2
S'state'
p3
aI400
aa(lp4
S'distance'
p5
aF374.28907012939453
aa(lp6
S'timestamp'
p7
aF2.0627238750457764
aatp8
Rp9
.ccollections
OrderedDict
p0
((lp1
(lp2
S'state'
p3
aI400
aa(lp4
S'distance'
p5
aF374.28907012939453
aa(lp6
S'timestamp'
p7
aF2.063488006591797
aatp8
Rp9
.ccollections
OrderedDict
p0
((lp1
(lp2
S'state'
p3
aI400
aa(lp4
S'distance'
p5
aF374.28907012939453
aa(lp6
S'timestamp'
p7
aF2.0830249786376953
aatp8
Rp9
.ccollections
OrderedDict
p0
((lp1
(lp2
S'state'
p3
aI400
aa(lp4
S'distance'
p5
aF374.28907012939453
aa(lp6
S'timestamp'
p7
aF2.0840468406677246
aatp8
Rp9
.ccollections
OrderedDict
p0
((lp1
(lp2
S'state'
p3
aI400
aa(lp4
S'distance'
p5
aF374.28907012939453
aa(lp6
S'timestamp'
p7
aF2.0844318866729736
aatp8
Rp9
.ccollections
OrderedDict
p0
((lp1
(lp2
S'state'
p3
aI400
aa(lp4
S'distance'
p5
aF374.28907012939453
aa(lp6
S'timestamp'
p7
aF2.0852739810943604
aatp8
Rp9
.ccollections
OrderedDict
p0
((lp1
(lp2
S'state'
p3
aI400
aa(lp4
S'distance'
p5
aF374.28907012939453
aa(lp6
S'timestamp'
p7
aF2.0935800075531006
aatp8
Rp9
.ccollections
OrderedDict
p0
((lp1
(lp2
S'state'
p3
aI400
aa(lp4
S'distance'
p5
aF374.28907012939453
aa(lp6
S'timestamp'
p7
aF2.0942938327789307
aatp8
Rp9
.ccollections
OrderedDict
p0
((lp1
(lp2
S'state'
p3
aI400
aa(lp4
S'distance'
p5
aF374.28907012939453
aa(lp6
S'timestamp'
p7
aF2.10353684425354
aatp8
Rp9
.ccollections
OrderedDict
p0
((lp1
(lp2
S'state'
p3
aI400
aa(lp4
S'distance'
p5
aF374.28907012939453
aa(lp6
S'timestamp'
p7
aF2.1036159992218018
aatp8
Rp9
.ccollections
OrderedDict
p0
((lp1
(lp2
S'state'
p3
aI400
aa(lp4
S'distance'
p5
aF374.28907012939453
aa(lp6
S'timestamp'
p7
aF2.1127219200134277
aatp8
Rp9
.ccollections
OrderedDict
p0
((lp1
(lp2
S'state'
p3
aI400
aa(lp4
S'distance'
p5
aF374.28907012939453
aa(lp6
S'timestamp'
p7
aF2.1133129596710205
aatp8
Rp9
.ccollections
OrderedDict
p0
((lp1
(lp2
S'state'
p3
aI400
aa(lp4
S'distance'
p5
aF374.28907012939453
aa(lp6
S'timestamp'
p7
aF2.122745990753174
aatp8
Rp9
.ccollections
OrderedDict
p0
((lp1
(lp2
S'state'
p3
aI400
aa(lp4
S'distance'
p5
aF374.28907012939453
aa(lp6
S'timestamp'
p7
aF2.1234240531921387
aatp8
Rp9
.ccollections
OrderedDict
p0
((lp1
(lp2
S'state'
p3
aI400
aa(lp4
S'distance'
p5
aF374.28907012939453
aa(lp6
S'timestamp'
p7
aF2.132727861404419
aatp8
Rp9
.ccollections
OrderedDict
p0
((lp1
(lp2
S'state'
p3
aI400
aa(lp4
S'distance'
p5
aF374.28907012939453
aa(lp6
S'timestamp'
p7
aF2.1334588527679443
aatp8
Rp9
.ccollections
OrderedDict
p0
((lp1
(lp2
S'state'
p3
aI400
aa(lp4
S'distance'
p5
aF374.28907012939453
aa(lp6
S'timestamp'
p7
aF2.143233060836792
aatp8
Rp9
.ccollections
OrderedDict
p0
((lp1
(lp2
S'state'
p3
aI400
aa(lp4
S'distance'
p5
aF374.28907012939453
aa(lp6
S'timestamp'
p7
aF2.14357590675354
aatp8
Rp9
.ccollections
OrderedDict
p0
((lp1
(lp2
S'state'
p3
aI400
aa(lp4
S'distance'
p5
aF374.28907012939453
aa(lp6
S'timestamp'
p7
aF2.1532068252563477
aatp8
Rp9
.ccollections
OrderedDict
p0
((lp1
(lp2
S'state'
p3
aI400
aa(lp4
S'distance'
p5
aF374.28907012939453
aa(lp6
S'timestamp'
p7
aF2.1532838344573975
aatp8
Rp9
.ccollections
OrderedDict
p0
((lp1
(lp2
S'state'
p3
aI400
aa(lp4
S'distance'
p5
aF374.28907012939453
aa(lp6
S'timestamp'
p7
aF2.1627440452575684
aatp8
Rp9
.ccollections
OrderedDict
p0
((lp1
(lp2
S'state'
p3
aI400
aa(lp4
S'distance'
p5
aF374.28907012939453
aa(lp6
S'timestamp'
p7
aF2.1636478900909424
aatp8
Rp9
.ccollections
OrderedDict
p0
((lp1
(lp2
S'state'
p3
aI400
aa(lp4
S'distance'
p5
aF374.28907012939453
aa(lp6
S'timestamp'
p7
aF2.1724889278411865
aatp8
Rp9
.ccollections
OrderedDict
p0
((lp1
(lp2
S'state'
p3
aI400
aa(lp4
S'distance'
p5
aF374.28907012939453
aa(lp6
S'timestamp'
p7
aF2.1732559204101562
aatp8
Rp9
.ccollections
OrderedDict
p0
((lp1
(lp2
S'state'
p3
aI400
aa(lp4
S'distance'
p5
aF374.28907012939453
aa(lp6
S'timestamp'
p7
aF2.18320894241333
aatp8
Rp9
.ccollections
OrderedDict
p0
((lp1
(lp2
S'state'
p3
aI400
aa(lp4
S'distance'
p5
aF374.28907012939453
aa(lp6
S'timestamp'
p7
aF2.1837270259857178
aatp8
Rp9
.ccollections
OrderedDict
p0
((lp1
(lp2
S'state'
p3
aI400
aa(lp4
S'distance'
p5
aF374.28907012939453
aa(lp6
S'timestamp'
p7
aF2.1933138370513916
aatp8
Rp9
.ccollections
OrderedDict
p0
((lp1
(lp2
S'state'
p3
aI400
aa(lp4
S'distance'
p5
aF374.28907012939453
aa(lp6
S'timestamp'
p7
aF2.1934330463409424
aatp8
Rp9
.ccollections
OrderedDict
p0
((lp1
(lp2
S'state'
p3
aI400
aa(lp4
S'distance'
p5
aF374.28907012939453
aa(lp6
S'timestamp'
p7
aF2.2028539180755615
aatp8
Rp9
.ccollections
OrderedDict
p0
((lp1
(lp2
S'state'
p3
aI400
aa(lp4
S'distance'
p5
aF374.28907012939453
aa(lp6
S'timestamp'
p7
aF2.203019857406616
aatp8
Rp9
.ccollections
OrderedDict
p0
((lp1
(lp2
S'state'
p3
aI400
aa(lp4
S'distance'
p5
aF374.28907012939453
aa(lp6
S'timestamp'
p7
aF2.212475061416626
aatp8
Rp9
.ccollections
OrderedDict
p0
((lp1
(lp2
S'state'
p3
aI400
aa(lp4
S'distance'
p5
aF374.28907012939453
aa(lp6
S'timestamp'
p7
aF2.2130329608917236
aatp8
Rp9
.ccollections
OrderedDict
p0
((lp1
(lp2
S'state'
p3
aI400
aa(lp4
S'distance'
p5
aF374.28907012939453
aa(lp6
S'timestamp'
p7
aF2.222791910171509
aatp8
Rp9
.ccollections
OrderedDict
p0
((lp1
(lp2
S'state'
p3
aI400
aa(lp4
S'distance'
p5
aF374.28907012939453
aa(lp6
S'timestamp'
p7
aF2.223909854888916
aatp8
Rp9
.ccollections
OrderedDict
p0
((lp1
(lp2
S'state'
p3
aI400
aa(lp4
S'distance'
p5
aF374.28907012939453
aa(lp6
S'timestamp'
p7
aF2.2326948642730713
aatp8
Rp9
.ccollections
OrderedDict
p0
((lp1
(lp2
S'state'
p3
aI400
aa(lp4
S'distance'
p5
aF374.28907012939453
aa(lp6
S'timestamp'
p7
aF2.233362913131714
aatp8
Rp9
.ccollections
OrderedDict
p0
((lp1
(lp2
S'state'
p3
aI400
aa(lp4
S'distance'
p5
aF374.28907012939453
aa(lp6
S'timestamp'
p7
aF2.252779006958008
aatp8
Rp9
.ccollections
OrderedDict
p0
((lp1
(lp2
S'state'
p3
aI400
aa(lp4
S'distance'
p5
aF374.28907012939453
aa(lp6
S'timestamp'
p7
aF2.253420829772949
aatp8
Rp9
.ccollections
OrderedDict
p0
((lp1
(lp2
S'state'
p3
aI400
aa(lp4
S'distance'
p5
aF374.28907012939453
aa(lp6
S'timestamp'
p7
aF2.2548818588256836
aatp8
Rp9
.ccollections
OrderedDict
p0
((lp1
(lp2
S'state'
p3
aI400
aa(lp4
S'distance'
p5
aF374.28907012939453
aa(lp6
S'timestamp'
p7
aF2.2550430297851562
aatp8
Rp9
.ccollections
OrderedDict
p0
((lp1
(lp2
S'state'
p3
aI400
aa(lp4
S'distance'
p5
aF374.28907012939453
aa(lp6
S'timestamp'
p7
aF2.2634060382843018
aatp8
Rp9
.ccollections
OrderedDict
p0
((lp1
(lp2
S'state'
p3
aI400
aa(lp4
S'distance'
p5
aF374.28907012939453
aa(lp6
S'timestamp'
p7
aF2.2635109424591064
aatp8
Rp9
.ccollections
OrderedDict
p0
((lp1
(lp2
S'state'
p3
aI400
aa(lp4
S'distance'
p5
aF374.28907012939453
aa(lp6
S'timestamp'
p7
aF2.27285099029541
aatp8
Rp9
.ccollections
OrderedDict
p0
((lp1
(lp2
S'state'
p3
aI400
aa(lp4
S'distance'
p5
aF374.28907012939453
aa(lp6
S'timestamp'
p7
aF2.273526906967163
aatp8
Rp9
.ccollections
OrderedDict
p0
((lp1
(lp2
S'state'
p3
aI400
aa(lp4
S'distance'
p5
aF374.28907012939453
aa(lp6
S'timestamp'
p7
aF2.2832159996032715
aatp8
Rp9
.ccollections
OrderedDict
p0
((lp1
(lp2
S'state'
p3
aI400
aa(lp4
S'distance'
p5
aF374.28907012939453
aa(lp6
S'timestamp'
p7
aF2.2832980155944824
aatp8
Rp9
.ccollections
OrderedDict
p0
((lp1
(lp2
S'state'
p3
aI400
aa(lp4
S'distance'
p5
aF374.28907012939453
aa(lp6
S'timestamp'
p7
aF2.2934648990631104
aatp8
Rp9
.ccollections
OrderedDict
p0
((lp1
(lp2
S'state'
p3
aI400
aa(lp4
S'distance'
p5
aF374.28907012939453
aa(lp6
S'timestamp'
p7
aF2.2941489219665527
aatp8
Rp9
.ccollections
OrderedDict
p0
((lp1
(lp2
S'state'
p3
aI400
aa(lp4
S'distance'
p5
aF374.28907012939453
aa(lp6
S'timestamp'
p7
aF2.3028788566589355
aatp8
Rp9
.ccollections
OrderedDict
p0
((lp1
(lp2
S'state'
p3
aI400
aa(lp4
S'distance'
p5
aF374.28907012939453
aa(lp6
S'timestamp'
p7
aF2.3032338619232178
aatp8
Rp9
.ccollections
OrderedDict
p0
((lp1
(lp2
S'state'
p3
aI400
aa(lp4
S'distance'
p5
aF374.28907012939453
aa(lp6
S'timestamp'
p7
aF2.312896966934204
aatp8
Rp9
.ccollections
OrderedDict
p0
((lp1
(lp2
S'state'
p3
aI400
aa(lp4
S'distance'
p5
aF374.28907012939453
aa(lp6
S'timestamp'
p7
aF2.313401937484741
aatp8
Rp9
.ccollections
OrderedDict
p0
((lp1
(lp2
S'state'
p3
aI400
aa(lp4
S'distance'
p5
aF374.28907012939453
aa(lp6
S'timestamp'
p7
aF2.3228919506073
aatp8
Rp9
.ccollections
OrderedDict
p0
((lp1
(lp2
S'state'
p3
aI400
aa(lp4
S'distance'
p5
aF374.28907012939453
aa(lp6
S'timestamp'
p7
aF2.3233909606933594
aatp8
Rp9
.ccollections
OrderedDict
p0
((lp1
(lp2
S'state'
p3
aI400
aa(lp4
S'distance'
p5
aF374.28907012939453
aa(lp6
S'timestamp'
p7
aF2.3327178955078125
aatp8
Rp9
.ccollections
OrderedDict
p0
((lp1
(lp2
S'state'
p3
aI400
aa(lp4
S'distance'
p5
aF374.28907012939453
aa(lp6
S'timestamp'
p7
aF2.333324909210205
aatp8
Rp9
.ccollections
OrderedDict
p0
((lp1
(lp2
S'state'
p3
aI400
aa(lp4
S'distance'
p5
aF374.28907012939453
aa(lp6
S'timestamp'
p7
aF2.3428499698638916
aatp8
Rp9
.ccollections
OrderedDict
p0
((lp1
(lp2
S'state'
p3
aI400
aa(lp4
S'distance'
p5
aF374.28907012939453
aa(lp6
S'timestamp'
p7
aF2.3430018424987793
aatp8
Rp9
.ccollections
OrderedDict
p0
((lp1
(lp2
S'state'
p3
aI0
aa(lp4
S'distance'
p5
aF374.28907012939453
aa(lp6
S'timestamp'
p7
aF2.3528928756713867
aatp8
Rp9
.ccollections
OrderedDict
p0
((lp1
(lp2
S'state'
p3
aI0
aa(lp4
S'distance'
p5
aF293.3879928588867
aa(lp6
S'timestamp'
p7
aF2.924633026123047
aatp8
Rp9
.ccollections
OrderedDict
p0
((lp1
(lp2
S'state'
p3
aI0
aa(lp4
S'distance'
p5
aF293.3879928588867
aa(lp6
S'timestamp'
p7
aF2.9328548908233643
aatp8
Rp9
.ccollections
OrderedDict
p0
((lp1
(lp2
S'state'
p3
aI0
aa(lp4
S'distance'
p5
aF293.3879928588867
aa(lp6
S'timestamp'
p7
aF2.9330098628997803
aatp8
Rp9
.ccollections
OrderedDict
p0
((lp1
(lp2
S'state'
p3
aI0
aa(lp4
S'distance'
p5
aF293.3879928588867
aa(lp6
S'timestamp'
p7
aF2.943542957305908
aatp8
Rp9
.ccollections
OrderedDict
p0
((lp1
(lp2
S'state'
p3
aI0
aa(lp4
S'distance'
p5
aF293.3879928588867
aa(lp6
S'timestamp'
p7
aF2.9437429904937744
aatp8
Rp9
.ccollections
OrderedDict
p0
((lp1
(lp2
S'state'
p3
aI0
aa(lp4
S'distance'
p5
aF293.3879928588867
aa(lp6
S'timestamp'
p7
aF2.952730894088745
aatp8
Rp9
.ccollections
OrderedDict
p0
((lp1
(lp2
S'state'
p3
aI0
aa(lp4
S'distance'
p5
aF293.3879928588867
aa(lp6
S'timestamp'
p7
aF2.962790012359619
aatp8
Rp9
.ccollections
OrderedDict
p0
((lp1
(lp2
S'state'
p3
aI0
aa(lp4
S'distance'
p5
aF293.3879928588867
aa(lp6
S'timestamp'
p7
aF2.962916851043701
aatp8
Rp9
.ccollections
OrderedDict
p0
((lp1
(lp2
S'state'
p3
aI0
aa(lp4
S'distance'
p5
aF293.3879928588867
aa(lp6
S'timestamp'
p7
aF2.9644899368286133
aatp8
Rp9
.ccollections
OrderedDict
p0
((lp1
(lp2
S'state'
p3
aI0
aa(lp4
S'distance'
p5
aF293.3879928588867
aa(lp6
S'timestamp'
p7
aF2.9827158451080322
aatp8
Rp9
.ccollections
OrderedDict
p0
((lp1
(lp2
S'state'
p3
aI0
aa(lp4
S'distance'
p5
aF293.3879928588867
aa(lp6
S'timestamp'
p7
aF2.99272084236145
aatp8
Rp9
.ccollections
OrderedDict
p0
((lp1
(lp2
S'state'
p3
aI0
aa(lp4
S'distance'
p5
aF293.3879928588867
aa(lp6
S'timestamp'
p7
aF2.9935688972473145
aatp8
Rp9
.ccollections
OrderedDict
p0
((lp1
(lp2
S'state'
p3
aI0
aa(lp4
S'distance'
p5
aF293.3879928588867
aa(lp6
S'timestamp'
p7
aF2.9948890209198
aatp8
Rp9
.ccollections
OrderedDict
p0
((lp1
(lp2
S'state'
p3
aI0
aa(lp4
S'distance'
p5
aF293.3879928588867
aa(lp6
S'timestamp'
p7
aF2.99556303024292
aatp8
Rp9
.ccollections
OrderedDict
p0
((lp1
(lp2
S'state'
p3
aI0
aa(lp4
S'distance'
p5
aF293.3879928588867
aa(lp6
S'timestamp'
p7
aF3.002686023712158
aatp8
Rp9
.ccollections
OrderedDict
p0
((lp1
(lp2
S'state'
p3
aI0
aa(lp4
S'distance'
p5
aF293.3879928588867
aa(lp6
S'timestamp'
p7
aF3.0030088424682617
aatp8
Rp9
.ccollections
OrderedDict
p0
((lp1
(lp2
S'state'
p3
aI0
aa(lp4
S'distance'
p5
aF293.3879928588867
aa(lp6
S'timestamp'
p7
aF3.0054569244384766
aatp8
Rp9
.ccollections
OrderedDict
p0
((lp1
(lp2
S'state'
p3
aI0
aa(lp4
S'distance'
p5
aF293.3879928588867
aa(lp6
S'timestamp'
p7
aF3.0134689807891846
aatp8
Rp9
.ccollections
OrderedDict
p0
((lp1
(lp2
S'state'
p3
aI0
aa(lp4
S'distance'
p5
aF293.3879928588867
aa(lp6
S'timestamp'
p7
aF3.0139360427856445
aatp8
Rp9
.ccollections
OrderedDict
p0
((lp1
(lp2
S'state'
p3
aI0
aa(lp4
S'distance'
p5
aF293.3879928588867
aa(lp6
S'timestamp'
p7
aF3.0238020420074463
aatp8
Rp9
.ccollections
OrderedDict
p0
((lp1
(lp2
S'state'
p3
aI0
aa(lp4
S'distance'
p5
aF293.3879928588867
aa(lp6
S'timestamp'
p7
aF3.0245048999786377
aatp8
Rp9
.ccollections
OrderedDict
p0
((lp1
(lp2
S'state'
p3
aI0
aa(lp4
S'distance'
p5
aF293.3879928588867
aa(lp6
S'timestamp'
p7
aF3.032709836959839
aatp8
Rp9
.ccollections
OrderedDict
p0
((lp1
(lp2
S'state'
p3
aI0
aa(lp4
S'distance'
p5
aF293.3879928588867
aa(lp6
S'timestamp'
p7
aF3.0332858562469482
aatp8
Rp9
.ccollections
OrderedDict
p0
((lp1
(lp2
S'state'
p3
aI0
aa(lp4
S'distance'
p5
aF293.3879928588867
aa(lp6
S'timestamp'
p7
aF3.042799949645996
aatp8
Rp9
.ccollections
OrderedDict
p0
((lp1
(lp2
S'state'
p3
aI0
aa(lp4
S'distance'
p5
aF293.3879928588867
aa(lp6
S'timestamp'
p7
aF3.0429229736328125
aatp8
Rp9
.ccollections
OrderedDict
p0
((lp1
(lp2
S'state'
p3
aI0
aa(lp4
S'distance'
p5
aF293.3879928588867
aa(lp6
S'timestamp'
p7
aF3.0528838634490967
aatp8
Rp9
.ccollections
OrderedDict
p0
((lp1
(lp2
S'state'
p3
aI0
aa(lp4
S'distance'
p5
aF293.3879928588867
aa(lp6
S'timestamp'
p7
aF3.0530059337615967
aatp8
Rp9
.ccollections
OrderedDict
p0
((lp1
(lp2
S'state'
p3
aI0
aa(lp4
S'distance'
p5
aF293.3879928588867
aa(lp6
S'timestamp'
p7
aF3.063149929046631
aatp8
Rp9
.ccollections
OrderedDict
p0
((lp1
(lp2
S'state'
p3
aI0
aa(lp4
S'distance'
p5
aF293.3879928588867
aa(lp6
S'timestamp'
p7
aF3.063858985900879
aatp8
Rp9
.ccollections
OrderedDict
p0
((lp1
(lp2
S'state'
p3
aI0
aa(lp4
S'distance'
p5
aF293.3879928588867
aa(lp6
S'timestamp'
p7
aF3.0732860565185547
aatp8
Rp9
.ccollections
OrderedDict
p0
((lp1
(lp2
S'state'
p3
aI0
aa(lp4
S'distance'
p5
aF293.3879928588867
aa(lp6
S'timestamp'
p7
aF3.0733628273010254
aatp8
Rp9
.ccollections
OrderedDict
p0
((lp1
(lp2
S'state'
p3
aI0
aa(lp4
S'distance'
p5
aF293.3879928588867
aa(lp6
S'timestamp'
p7
aF3.0833969116210938
aatp8
Rp9
.ccollections
OrderedDict
p0
((lp1
(lp2
S'state'
p3
aI0
aa(lp4
S'distance'
p5
aF293.3879928588867
aa(lp6
S'timestamp'
p7
aF3.083472967147827
aatp8
Rp9
.ccollections
OrderedDict
p0
((lp1
(lp2
S'state'
p3
aI0
aa(lp4
S'distance'
p5
aF293.3879928588867
aa(lp6
S'timestamp'
p7
aF3.0928239822387695
aatp8
Rp9
.ccollections
OrderedDict
p0
((lp1
(lp2
S'state'
p3
aI0
aa(lp4
S'distance'
p5
aF293.3879928588867
aa(lp6
S'timestamp'
p7
aF3.103282928466797
aatp8
Rp9
.ccollections
OrderedDict
p0
((lp1
(lp2
S'state'
p3
aI0
aa(lp4
S'distance'
p5
aF293.3879928588867
aa(lp6
S'timestamp'
p7
aF3.1038448810577393
aatp8
Rp9
.ccollections
OrderedDict
p0
((lp1
(lp2
S'state'
p3
aI0
aa(lp4
S'distance'
p5
aF293.3879928588867
aa(lp6
S'timestamp'
p7
aF3.1044769287109375
aatp8
Rp9
.ccollections
OrderedDict
p0
((lp1
(lp2
S'state'
p3
aI0
aa(lp4
S'distance'
p5
aF293.3879928588867
aa(lp6
S'timestamp'
p7
aF3.112769842147827
aatp8
Rp9
.ccollections
OrderedDict
p0
((lp1
(lp2
S'state'
p3
aI0
aa(lp4
S'distance'
p5
aF293.3879928588867
aa(lp6
S'timestamp'
p7
aF3.1134300231933594
aatp8
Rp9
.ccollections
OrderedDict
p0
((lp1
(lp2
S'state'
p3
aI0
aa(lp4
S'distance'
p5
aF293.3879928588867
aa(lp6
S'timestamp'
p7
aF3.132779836654663
aatp8
Rp9
.ccollections
OrderedDict
p0
((lp1
(lp2
S'state'
p3
aI0
aa(lp4
S'distance'
p5
aF293.3879928588867
aa(lp6
S'timestamp'
p7
aF3.1329469680786133
aatp8
Rp9
.ccollections
OrderedDict
p0
((lp1
(lp2
S'state'
p3
aI0
aa(lp4
S'distance'
p5
aF293.3879928588867
aa(lp6
S'timestamp'
p7
aF3.1339550018310547
aatp8
Rp9
.ccollections
OrderedDict
p0
((lp1
(lp2
S'state'
p3
aI0
aa(lp4
S'distance'
p5
aF293.3879928588867
aa(lp6
S'timestamp'
p7
aF3.1345059871673584
aatp8
Rp9
.ccollections
OrderedDict
p0
((lp1
(lp2
S'state'
p3
aI0
aa(lp4
S'distance'
p5
aF293.3879928588867
aa(lp6
S'timestamp'
p7
aF3.142704963684082
aatp8
Rp9
.ccollections
OrderedDict
p0
((lp1
(lp2
S'state'
p3
aI0
aa(lp4
S'distance'
p5
aF293.3879928588867
aa(lp6
S'timestamp'
p7
aF3.143375873565674
aatp8
Rp9
.ccollections
OrderedDict
p0
((lp1
(lp2
S'state'
p3
aI0
aa(lp4
S'distance'
p5
aF293.3879928588867
aa(lp6
S'timestamp'
p7
aF3.153883934020996
aatp8
Rp9
.ccollections
OrderedDict
p0
((lp1
(lp2
S'state'
p3
aI0
aa(lp4
S'distance'
p5
aF293.3879928588867
aa(lp6
S'timestamp'
p7
aF3.154822826385498
aatp8
Rp9
.ccollections
OrderedDict
p0
((lp1
(lp2
S'state'
p3
aI0
aa(lp4
S'distance'
p5
aF293.3879928588867
aa(lp6
S'timestamp'
p7
aF3.1631460189819336
aatp8
Rp9
.ccollections
OrderedDict
p0
((lp1
(lp2
S'state'
p3
aI0
aa(lp4
S'distance'
p5
aF293.3879928588867
aa(lp6
S'timestamp'
p7
aF3.1633360385894775
aatp8
Rp9
.ccollections
OrderedDict
p0
((lp1
(lp2
S'state'
p3
aI0
aa(lp4
S'distance'
p5
aF293.3879928588867
aa(lp6
S'timestamp'
p7
aF3.1727960109710693
aatp8
Rp9
.ccollections
OrderedDict
p0
((lp1
(lp2
S'state'
p3
aI0
aa(lp4
S'distance'
p5
aF293.3879928588867
aa(lp6
S'timestamp'
p7
aF3.1733529567718506
aatp8
Rp9
.ccollections
OrderedDict
p0
((lp1
(lp2
S'state'
p3
aI0
aa(lp4
S'distance'
p5
aF293.3879928588867
aa(lp6
S'timestamp'
p7
aF3.202877998352051
aatp8
Rp9
.ccollections
OrderedDict
p0
((lp1
(lp2
S'state'
p3
aI0
aa(lp4
S'distance'
p5
aF293.3879928588867
aa(lp6
S'timestamp'
p7
aF3.203295946121216
aatp8
Rp9
.ccollections
OrderedDict
p0
((lp1
(lp2
S'state'
p3
aI0
aa(lp4
S'distance'
p5
aF293.3879928588867
aa(lp6
S'timestamp'
p7
aF3.204066038131714
aatp8
Rp9
.ccollections
OrderedDict
p0
((lp1
(lp2
S'state'
p3
aI0
aa(lp4
S'distance'
p5
aF293.3879928588867
aa(lp6
S'timestamp'
p7
aF3.2042510509490967
aatp8
Rp9
.ccollections
OrderedDict
p0
((lp1
(lp2
S'state'
p3
aI0
aa(lp4
S'distance'
p5
aF293.3879928588867
aa(lp6
S'timestamp'
p7
aF3.2225279808044434
aatp8
Rp9
.ccollections
OrderedDict
p0
((lp1
(lp2
S'state'
p3
aI0
aa(lp4
S'distance'
p5
aF293.3879928588867
aa(lp6
S'timestamp'
p7
aF3.2230889797210693
aatp8
Rp9
.ccollections
OrderedDict
p0
((lp1
(lp2
S'state'
p3
aI0
aa(lp4
S'distance'
p5
aF293.3879928588867
aa(lp6
S'timestamp'
p7
aF3.2231719493865967
aatp8
Rp9
.ccollections
OrderedDict
p0
((lp1
(lp2
S'state'
p3
aI0
aa(lp4
S'distance'
p5
aF293.3879928588867
aa(lp6
S'timestamp'
p7
aF3.2245240211486816
aatp8
Rp9
.ccollections
OrderedDict
p0
((lp1
(lp2
S'state'
p3
aI0
aa(lp4
S'distance'
p5
aF293.3879928588867
aa(lp6
S'timestamp'
p7
aF3.232697010040283
aatp8
Rp9
.ccollections
OrderedDict
p0
((lp1
(lp2
S'state'
p3
aI0
aa(lp4
S'distance'
p5
aF293.3879928588867
aa(lp6
S'timestamp'
p7
aF3.233304023742676
aatp8
Rp9
.ccollections
OrderedDict
p0
((lp1
(lp2
S'state'
p3
aI0
aa(lp4
S'distance'
p5
aF293.3879928588867
aa(lp6
S'timestamp'
p7
aF3.2361810207366943
aatp8
Rp9
.ccollections
OrderedDict
p0
((lp1
(lp2
S'state'
p3
aI0
aa(lp4
S'distance'
p5
aF293.3879928588867
aa(lp6
S'timestamp'
p7
aF3.2366268634796143
aatp8
Rp9
.ccollections
OrderedDict
p0
((lp1
(lp2
S'state'
p3
aI0
aa(lp4
S'distance'
p5
aF293.3879928588867
aa(lp6
S'timestamp'
p7
aF3.2530150413513184
aatp8
Rp9
.ccollections
OrderedDict
p0
((lp1
(lp2
S'state'
p3
aI0
aa(lp4
S'distance'
p5
aF293.3879928588867
aa(lp6
S'timestamp'
p7
aF3.2536609172821045
aatp8
Rp9
.ccollections
OrderedDict
p0
((lp1
(lp2
S'state'
p3
aI0
aa(lp4
S'distance'
p5
aF293.3879928588867
aa(lp6
S'timestamp'
p7
aF3.2539079189300537
aatp8
Rp9
.ccollections
OrderedDict
p0
((lp1
(lp2
S'state'
p3
aI0
aa(lp4
S'distance'
p5
aF293.3879928588867
aa(lp6
S'timestamp'
p7
aF3.2541768550872803
aatp8
Rp9
.ccollections
OrderedDict
p0
((lp1
(lp2
S'state'
p3
aI0
aa(lp4
S'distance'
p5
aF293.3879928588867
aa(lp6
S'timestamp'
p7
aF3.262708902359009
aatp8
Rp9
.ccollections
OrderedDict
p0
((lp1
(lp2
S'state'
p3
aI0
aa(lp4
S'distance'
p5
aF293.3879928588867
aa(lp6
S'timestamp'
p7
aF3.264451026916504
aatp8
Rp9
.ccollections
OrderedDict
p0
((lp1
(lp2
S'state'
p3
aI0
aa(lp4
S'distance'
p5
aF293.3879928588867
aa(lp6
S'timestamp'
p7
aF3.273329973220825
aatp8
Rp9
.ccollections
OrderedDict
p0
((lp1
(lp2
S'state'
p3
aI0
aa(lp4
S'distance'
p5
aF293.3879928588867
aa(lp6
S'timestamp'
p7
aF3.2736270427703857
aatp8
Rp9
.ccollections
OrderedDict
p0
((lp1
(lp2
S'state'
p3
aI0
aa(lp4
S'distance'
p5
aF293.3879928588867
aa(lp6
S'timestamp'
p7
aF3.292635917663574
aatp8
Rp9
.ccollections
OrderedDict
p0
((lp1
(lp2
S'state'
p3
aI0
aa(lp4
S'distance'
p5
aF293.3879928588867
aa(lp6
S'timestamp'
p7
aF3.2927680015563965
aatp8
Rp9
.ccollections
OrderedDict
p0
((lp1
(lp2
S'state'
p3
aI0
aa(lp4
S'distance'
p5
aF293.3879928588867
aa(lp6
S'timestamp'
p7
aF3.2943060398101807
aatp8
Rp9
.ccollections
OrderedDict
p0
((lp1
(lp2
S'state'
p3
aI0
aa(lp4
S'distance'
p5
aF293.3879928588867
aa(lp6
S'timestamp'
p7
aF3.29543399810791
aatp8
Rp9
.ccollections
OrderedDict
p0
((lp1
(lp2
S'state'
p3
aI0
aa(lp4
S'distance'
p5
aF293.3879928588867
aa(lp6
S'timestamp'
p7
aF3.3028008937835693
aatp8
Rp9
.ccollections
OrderedDict
p0
((lp1
(lp2
S'state'
p3
aI0
aa(lp4
S'distance'
p5
aF293.3879928588867
aa(lp6
S'timestamp'
p7
aF3.3033628463745117
aatp8
Rp9
.ccollections
OrderedDict
p0
((lp1
(lp2
S'state'
p3
aI0
aa(lp4
S'distance'
p5
aF293.3879928588867
aa(lp6
S'timestamp'
p7
aF3.313400983810425
aatp8
Rp9
.ccollections
OrderedDict
p0
((lp1
(lp2
S'state'
p3
aI0
aa(lp4
S'distance'
p5
aF293.3879928588867
aa(lp6
S'timestamp'
p7
aF3.313478946685791
aatp8
Rp9
.ccollections
OrderedDict
p0
((lp1
(lp2
S'state'
p3
aI0
aa(lp4
S'distance'
p5
aF293.3879928588867
aa(lp6
S'timestamp'
p7
aF3.3226778507232666
aatp8
Rp9
.ccollections
OrderedDict
p0
((lp1
(lp2
S'state'
p3
aI0
aa(lp4
S'distance'
p5
aF293.3879928588867
aa(lp6
S'timestamp'
p7
aF3.323390007019043
aatp8
Rp9
.ccollections
OrderedDict
p0
((lp1
(lp2
S'state'
p3
aI0
aa(lp4
S'distance'
p5
aF293.3879928588867
aa(lp6
S'timestamp'
p7
aF3.333132028579712
aatp8
Rp9
.ccollections
OrderedDict
p0
((lp1
(lp2
S'state'
p3
aI0
aa(lp4
S'distance'
p5
aF293.3879928588867
aa(lp6
S'timestamp'
p7
aF3.333493947982788
aatp8
Rp9
.ccollections
OrderedDict
p0
((lp1
(lp2
S'state'
p3
aI0
aa(lp4
S'distance'
p5
aF293.3879928588867
aa(lp6
S'timestamp'
p7
aF3.3526809215545654
aatp8
Rp9
.ccollections
OrderedDict
p0
((lp1
(lp2
S'state'
p3
aI0
aa(lp4
S'distance'
p5
aF293.3879928588867
aa(lp6
S'timestamp'
p7
aF3.362985849380493
aatp8
Rp9
.ccollections
OrderedDict
p0
((lp1
(lp2
S'state'
p3
aI0
aa(lp4
S'distance'
p5
aF293.3879928588867
aa(lp6
S'timestamp'
p7
aF3.3637049198150635
aatp8
Rp9
.ccollections
OrderedDict
p0
((lp1
(lp2
S'state'
p3
aI0
aa(lp4
S'distance'
p5
aF293.3879928588867
aa(lp6
S'timestamp'
p7
aF3.3648159503936768
aatp8
Rp9
.ccollections
OrderedDict
p0
((lp1
(lp2
S'state'
p3
aI0
aa(lp4
S'distance'
p5
aF293.3879928588867
aa(lp6
S'timestamp'
p7
aF3.3648860454559326
aatp8
Rp9
.ccollections
OrderedDict
p0
((lp1
(lp2
S'state'
p3
aI0
aa(lp4
S'distance'
p5
aF293.3879928588867
aa(lp6
S'timestamp'
p7
aF3.3727760314941406
aatp8
Rp9
.ccollections
OrderedDict
p0
((lp1
(lp2
S'state'
p3
aI0
aa(lp4
S'distance'
p5
aF293.3879928588867
aa(lp6
S'timestamp'
p7
aF3.3729569911956787
aatp8
Rp9
.ccollections
OrderedDict
p0
((lp1
(lp2
S'state'
p3
aI0
aa(lp4
S'distance'
p5
aF293.3879928588867
aa(lp6
S'timestamp'
p7
aF3.3736870288848877
aatp8
Rp9
.ccollections
OrderedDict
p0
((lp1
(lp2
S'state'
p3
aI0
aa(lp4
S'distance'
p5
aF293.3879928588867
aa(lp6
S'timestamp'
p7
aF3.3828258514404297
aatp8
Rp9
.ccollections
OrderedDict
p0
((lp1
(lp2
S'state'
p3
aI0
aa(lp4
S'distance'
p5
aF293.3879928588867
aa(lp6
S'timestamp'
p7
aF3.383965015411377
aatp8
Rp9
.ccollections
OrderedDict
p0
((lp1
(lp2
S'state'
p3
aI0
aa(lp4
S'distance'
p5
aF293.3879928588867
aa(lp6
S'timestamp'
p7
aF3.392737865447998
aatp8
Rp9
.ccollections
OrderedDict
p0
((lp1
(lp2
S'state'
p3
aI0
aa(lp4
S'distance'
p5
aF293.3879928588867
aa(lp6
S'timestamp'
p7
aF3.3933868408203125
aatp8
Rp9
.ccollections
OrderedDict
p0
((lp1
(lp2
S'state'
p3
aI0
aa(lp4
S'distance'
p5
aF293.3879928588867
aa(lp6
S'timestamp'
p7
aF3.403477907180786
aatp8
Rp9
.ccollections
OrderedDict
p0
((lp1
(lp2
S'state'
p3
aI0
aa(lp4
S'distance'
p5
aF293.3879928588867
aa(lp6
S'timestamp'
p7
aF3.4035749435424805
aatp8
Rp9
.ccollections
OrderedDict
p0
((lp1
(lp2
S'state'
p3
aI0
aa(lp4
S'distance'
p5
aF293.3879928588867
aa(lp6
S'timestamp'
p7
aF3.4129528999328613
aatp8
Rp9
.ccollections
OrderedDict
p0
((lp1
(lp2
S'state'
p3
aI0
aa(lp4
S'distance'
p5
aF293.3879928588867
aa(lp6
S'timestamp'
p7
aF3.4131219387054443
aatp8
Rp9
.ccollections
OrderedDict
p0
((lp1
(lp2
S'state'
p3
aI0
aa(lp4
S'distance'
p5
aF293.3879928588867
aa(lp6
S'timestamp'
p7
aF3.422705888748169
aatp8
Rp9
.ccollections
OrderedDict
p0
((lp1
(lp2
S'state'
p3
aI0
aa(lp4
S'distance'
p5
aF293.3879928588867
aa(lp6
S'timestamp'
p7
aF3.4234328269958496
aatp8
Rp9
.ccollections
OrderedDict
p0
((lp1
(lp2
S'state'
p3
aI0
aa(lp4
S'distance'
p5
aF293.3879928588867
aa(lp6
S'timestamp'
p7
aF3.4326820373535156
aatp8
Rp9
.ccollections
OrderedDict
p0
((lp1
(lp2
S'state'
p3
aI0
aa(lp4
S'distance'
p5
aF293.3879928588867
aa(lp6
S'timestamp'
p7
aF3.4333889484405518
aatp8
Rp9
.ccollections
OrderedDict
p0
((lp1
(lp2
S'state'
p3
aI0
aa(lp4
S'distance'
p5
aF293.3879928588867
aa(lp6
S'timestamp'
p7
aF3.443424940109253
aatp8
Rp9
.ccollections
OrderedDict
p0
((lp1
(lp2
S'state'
p3
aI0
aa(lp4
S'distance'
p5
aF293.3879928588867
aa(lp6
S'timestamp'
p7
aF3.443502902984619
aatp8
Rp9
.ccollections
OrderedDict
p0
((lp1
(lp2
S'state'
p3
aI0
aa(lp4
S'distance'
p5
aF293.3879928588867
aa(lp6
S'timestamp'
p7
aF3.453162908554077
aatp8
Rp9
.ccollections
OrderedDict
p0
((lp1
(lp2
S'state'
p3
aI0
aa(lp4
S'distance'
p5
aF293.3879928588867
aa(lp6
S'timestamp'
p7
aF3.4532530307769775
aatp8
Rp9
.ccollections
OrderedDict
p0
((lp1
(lp2
S'state'
p3
aI0
aa(lp4
S'distance'
p5
aF293.3879928588867
aa(lp6
S'timestamp'
p7
aF3.4628498554229736
aatp8
Rp9
.ccollections
OrderedDict
p0
((lp1
(lp2
S'state'
p3
aI0
aa(lp4
S'distance'
p5
aF293.3879928588867
aa(lp6
S'timestamp'
p7
aF3.463704824447632
aatp8
Rp9
.ccollections
OrderedDict
p0
((lp1
(lp2
S'state'
p3
aI0
aa(lp4
S'distance'
p5
aF293.3879928588867
aa(lp6
S'timestamp'
p7
aF3.4827568531036377
aatp8
Rp9
.ccollections
OrderedDict
p0
((lp1
(lp2
S'state'
p3
aI0
aa(lp4
S'distance'
p5
aF293.3879928588867
aa(lp6
S'timestamp'
p7
aF3.4925270080566406
aatp8
Rp9
.ccollections
OrderedDict
p0
((lp1
(lp2
S'state'
p3
aI0
aa(lp4
S'distance'
p5
aF293.3879928588867
aa(lp6
S'timestamp'
p7
aF3.492727041244507
aatp8
Rp9
.ccollections
OrderedDict
p0
((lp1
(lp2
S'state'
p3
aI0
aa(lp4
S'distance'
p5
aF293.3879928588867
aa(lp6
S'timestamp'
p7
aF3.493950843811035
aatp8
Rp9
.ccollections
OrderedDict
p0
((lp1
(lp2
S'state'
p3
aI0
aa(lp4
S'distance'
p5
aF293.3879928588867
aa(lp6
S'timestamp'
p7
aF3.4948439598083496
aatp8
Rp9
.ccollections
OrderedDict
p0
((lp1
(lp2
S'state'
p3
aI0
aa(lp4
S'distance'
p5
aF293.3879928588867
aa(lp6
S'timestamp'
p7
aF3.502980947494507
aatp8
Rp9
.ccollections
OrderedDict
p0
((lp1
(lp2
S'state'
p3
aI0
aa(lp4
S'distance'
p5
aF293.3879928588867
aa(lp6
S'timestamp'
p7
aF3.5031609535217285
aatp8
Rp9
.ccollections
OrderedDict
p0
((lp1
(lp2
S'state'
p3
aI0
aa(lp4
S'distance'
p5
aF293.3879928588867
aa(lp6
S'timestamp'
p7
aF3.5040178298950195
aatp8
Rp9
.ccollections
OrderedDict
p0
((lp1
(lp2
S'state'
p3
aI0
aa(lp4
S'distance'
p5
aF293.3879928588867
aa(lp6
S'timestamp'
p7
aF3.5126850605010986
aatp8
Rp9
.ccollections
OrderedDict
p0
((lp1
(lp2
S'state'
p3
aI0
aa(lp4
S'distance'
p5
aF293.3879928588867
aa(lp6
S'timestamp'
p7
aF3.513640880584717
aatp8
Rp9
.ccollections
OrderedDict
p0
((lp1
(lp2
S'state'
p3
aI0
aa(lp4
S'distance'
p5
aF293.3879928588867
aa(lp6
S'timestamp'
p7
aF3.522570848464966
aatp8
Rp9
.ccollections
OrderedDict
p0
((lp1
(lp2
S'state'
p3
aI0
aa(lp4
S'distance'
p5
aF293.3879928588867
aa(lp6
S'timestamp'
p7
aF3.5234029293060303
aatp8
Rp9
.ccollections
OrderedDict
p0
((lp1
(lp2
S'state'
p3
aI0
aa(lp4
S'distance'
p5
aF293.3879928588867
aa(lp6
S'timestamp'
p7
aF3.5337209701538086
aatp8
Rp9
.ccollections
OrderedDict
p0
((lp1
(lp2
S'state'
p3
aI0
aa(lp4
S'distance'
p5
aF293.3879928588867
aa(lp6
S'timestamp'
p7
aF3.533843994140625
aatp8
Rp9
.ccollections
OrderedDict
p0
((lp1
(lp2
S'state'
p3
aI0
aa(lp4
S'distance'
p5
aF293.3879928588867
aa(lp6
S'timestamp'
p7
aF3.5436019897460938
aatp8
Rp9
.ccollections
OrderedDict
p0
((lp1
(lp2
S'state'
p3
aI0
aa(lp4
S'distance'
p5
aF293.3879928588867
aa(lp6
S'timestamp'
p7
aF3.5441958904266357
aatp8
Rp9
.ccollections
OrderedDict
p0
((lp1
(lp2
S'state'
p3
aI0
aa(lp4
S'distance'
p5
aF293.3879928588867
aa(lp6
S'timestamp'
p7
aF3.5530459880828857
aatp8
Rp9
.ccollections
OrderedDict
p0
((lp1
(lp2
S'state'
p3
aI0
aa(lp4
S'distance'
p5
aF293.3879928588867
aa(lp6
S'timestamp'
p7
aF3.5537259578704834
aatp8
Rp9
.ccollections
OrderedDict
p0
((lp1
(lp2
S'state'
p3
aI0
aa(lp4
S'distance'
p5
aF293.3879928588867
aa(lp6
S'timestamp'
p7
aF3.5631978511810303
aatp8
Rp9
.ccollections
OrderedDict
p0
((lp1
(lp2
S'state'
p3
aI0
aa(lp4
S'distance'
p5
aF293.3879928588867
aa(lp6
S'timestamp'
p7
aF3.563308000564575
aatp8
Rp9
.ccollections
OrderedDict
p0
((lp1
(lp2
S'state'
p3
aI0
aa(lp4
S'distance'
p5
aF293.3879928588867
aa(lp6
S'timestamp'
p7
aF3.5724618434906006
aatp8
Rp9
.ccollections
OrderedDict
p0
((lp1
(lp2
S'state'
p3
aI0
aa(lp4
S'distance'
p5
aF293.3879928588867
aa(lp6
S'timestamp'
p7
aF3.5826449394226074
aatp8
Rp9
.ccollections
OrderedDict
p0
((lp1
(lp2
S'state'
p3
aI0
aa(lp4
S'distance'
p5
aF293.3879928588867
aa(lp6
S'timestamp'
p7
aF3.5852699279785156
aatp8
Rp9
.ccollections
OrderedDict
p0
((lp1
(lp2
S'state'
p3
aI0
aa(lp4
S'distance'
p5
aF293.3879928588867
aa(lp6
S'timestamp'
p7
aF3.5928080081939697
aatp8
Rp9
.ccollections
OrderedDict
p0
((lp1
(lp2
S'state'
p3
aI0
aa(lp4
S'distance'
p5
aF293.3879928588867
aa(lp6
S'timestamp'
p7
aF3.593334913253784
aatp8
Rp9
.ccollections
OrderedDict
p0
((lp1
(lp2
S'state'
p3
aI0
aa(lp4
S'distance'
p5
aF293.3879928588867
aa(lp6
S'timestamp'
p7
aF3.5938029289245605
aatp8
Rp9
.ccollections
OrderedDict
p0
((lp1
(lp2
S'state'
p3
aI0
aa(lp4
S'distance'
p5
aF293.3879928588867
aa(lp6
S'timestamp'
p7
aF3.602526903152466
aatp8
Rp9
.ccollections
OrderedDict
p0
((lp1
(lp2
S'state'
p3
aI0
aa(lp4
S'distance'
p5
aF293.3879928588867
aa(lp6
S'timestamp'
p7
aF3.6028800010681152
aatp8
Rp9
.ccollections
OrderedDict
p0
((lp1
(lp2
S'state'
p3
aI0
aa(lp4
S'distance'
p5
aF293.3879928588867
aa(lp6
S'timestamp'
p7
aF3.6235580444335938
aatp8
Rp9
.ccollections
OrderedDict
p0
((lp1
(lp2
S'state'
p3
aI0
aa(lp4
S'distance'
p5
aF293.3879928588867
aa(lp6
S'timestamp'
p7
aF3.623973846435547
aatp8
Rp9
.ccollections
OrderedDict
p0
((lp1
(lp2
S'state'
p3
aI0
aa(lp4
S'distance'
p5
aF293.3879928588867
aa(lp6
S'timestamp'
p7
aF3.624181032180786
aatp8
Rp9
.ccollections
OrderedDict
p0
((lp1
(lp2
S'state'
p3
aI0
aa(lp4
S'distance'
p5
aF293.3879928588867
aa(lp6
S'timestamp'
p7
aF3.624953031539917
aatp8
Rp9
.ccollections
OrderedDict
p0
((lp1
(lp2
S'state'
p3
aI0
aa(lp4
S'distance'
p5
aF293.3879928588867
aa(lp6
S'timestamp'
p7
aF3.6329829692840576
aatp8
Rp9
.ccollections
OrderedDict
p0
((lp1
(lp2
S'state'
p3
aI0
aa(lp4
S'distance'
p5
aF293.3879928588867
aa(lp6
S'timestamp'
p7
aF3.6331329345703125
aatp8
Rp9
.ccollections
OrderedDict
p0
((lp1
(lp2
S'state'
p3
aI400
aa(lp4
S'distance'
p5
aF293.3879928588867
aa(lp6
S'timestamp'
p7
aF3.6528968811035156
aatp8
Rp9
.ccollections
OrderedDict
p0
((lp1
(lp2
S'state'
p3
aI400
aa(lp4
S'distance'
p5
aF293.3879928588867
aa(lp6
S'timestamp'
p7
aF3.653372049331665
aatp8
Rp9
.ccollections
OrderedDict
p0
((lp1
(lp2
S'state'
p3
aI400
aa(lp4
S'distance'
p5
aF293.3879928588867
aa(lp6
S'timestamp'
p7
aF3.6547398567199707
aatp8
Rp9
.ccollections
OrderedDict
p0
((lp1
(lp2
S'state'
p3
aI400
aa(lp4
S'distance'
p5
aF293.3879928588867
aa(lp6
S'timestamp'
p7
aF3.6553640365600586
aatp8
Rp9
.ccollections
OrderedDict
p0
((lp1
(lp2
S'state'
p3
aI400
aa(lp4
S'distance'
p5
aF293.3879928588867
aa(lp6
S'timestamp'
p7
aF3.662686824798584
aatp8
Rp9
.ccollections
OrderedDict
p0
((lp1
(lp2
S'state'
p3
aI400
aa(lp4
S'distance'
p5
aF293.3879928588867
aa(lp6
S'timestamp'
p7
aF3.6647369861602783
aatp8
Rp9
.ccollections
OrderedDict
p0
((lp1
(lp2
S'state'
p3
aI400
aa(lp4
S'distance'
p5
aF293.3879928588867
aa(lp6
S'timestamp'
p7
aF3.673125982284546
aatp8
Rp9
.ccollections
OrderedDict
p0
((lp1
(lp2
S'state'
p3
aI400
aa(lp4
S'distance'
p5
aF293.3879928588867
aa(lp6
S'timestamp'
p7
aF3.67449688911438
aatp8
Rp9
.ccollections
OrderedDict
p0
((lp1
(lp2
S'state'
p3
aI400
aa(lp4
S'distance'
p5
aF293.3879928588867
aa(lp6
S'timestamp'
p7
aF3.688248872756958
aatp8
Rp9
.ccollections
OrderedDict
p0
((lp1
(lp2
S'state'
p3
aI400
aa(lp4
S'distance'
p5
aF293.3879928588867
aa(lp6
S'timestamp'
p7
aF3.689594030380249
aatp8
Rp9
.ccollections
OrderedDict
p0
((lp1
(lp2
S'state'
p3
aI400
aa(lp4
S'distance'
p5
aF293.3879928588867
aa(lp6
S'timestamp'
p7
aF3.6955628395080566
aatp8
Rp9
.ccollections
OrderedDict
p0
((lp1
(lp2
S'state'
p3
aI400
aa(lp4
S'distance'
p5
aF293.3879928588867
aa(lp6
S'timestamp'
p7
aF3.6969218254089355
aatp8
Rp9
.ccollections
OrderedDict
p0
((lp1
(lp2
S'state'
p3
aI400
aa(lp4
S'distance'
p5
aF293.3879928588867
aa(lp6
S'timestamp'
p7
aF3.704141855239868
aatp8
Rp9
.ccollections
OrderedDict
p0
((lp1
(lp2
S'state'
p3
aI400
aa(lp4
S'distance'
p5
aF293.3879928588867
aa(lp6
S'timestamp'
p7
aF3.7050678730010986
aatp8
Rp9
.ccollections
OrderedDict
p0
((lp1
(lp2
S'state'
p3
aI400
aa(lp4
S'distance'
p5
aF293.3879928588867
aa(lp6
S'timestamp'
p7
aF3.7134950160980225
aatp8
Rp9
.ccollections
OrderedDict
p0
((lp1
(lp2
S'state'
p3
aI400
aa(lp4
S'distance'
p5
aF293.3879928588867
aa(lp6
S'timestamp'
p7
aF3.7135958671569824
aatp8
Rp9
.ccollections
OrderedDict
p0
((lp1
(lp2
S'state'
p3
aI400
aa(lp4
S'distance'
p5
aF293.3879928588867
aa(lp6
S'timestamp'
p7
aF3.723088026046753
aatp8
Rp9
.ccollections
OrderedDict
p0
((lp1
(lp2
S'state'
p3
aI400
aa(lp4
S'distance'
p5
aF293.3879928588867
aa(lp6
S'timestamp'
p7
aF3.7233619689941406
aatp8
Rp9
.ccollections
OrderedDict
p0
((lp1
(lp2
S'state'
p3
aI400
aa(lp4
S'distance'
p5
aF293.3879928588867
aa(lp6
S'timestamp'
p7
aF3.7326550483703613
aatp8
Rp9
.ccollections
OrderedDict
p0
((lp1
(lp2
S'state'
p3
aI400
aa(lp4
S'distance'
p5
aF293.3879928588867
aa(lp6
S'timestamp'
p7
aF3.733405828475952
aatp8
Rp9
.ccollections
OrderedDict
p0
((lp1
(lp2
S'state'
p3
aI400
aa(lp4
S'distance'
p5
aF293.3879928588867
aa(lp6
S'timestamp'
p7
aF3.7427990436553955
aatp8
Rp9
.ccollections
OrderedDict
p0
((lp1
(lp2
S'state'
p3
aI400
aa(lp4
S'distance'
p5
aF293.3879928588867
aa(lp6
S'timestamp'
p7
aF3.7437000274658203
aatp8
Rp9
.ccollections
OrderedDict
p0
((lp1
(lp2
S'state'
p3
aI400
aa(lp4
S'distance'
p5
aF293.3879928588867
aa(lp6
S'timestamp'
p7
aF3.752742052078247
aatp8
Rp9
.ccollections
OrderedDict
p0
((lp1
(lp2
S'state'
p3
aI400
aa(lp4
S'distance'
p5
aF293.3879928588867
aa(lp6
S'timestamp'
p7
aF3.7535159587860107
aatp8
Rp9
.ccollections
OrderedDict
p0
((lp1
(lp2
S'state'
p3
aI400
aa(lp4
S'distance'
p5
aF293.3879928588867
aa(lp6
S'timestamp'
p7
aF3.7625679969787598
aatp8
Rp9
.ccollections
OrderedDict
p0
((lp1
(lp2
S'state'
p3
aI400
aa(lp4
S'distance'
p5
aF293.3879928588867
aa(lp6
S'timestamp'
p7
aF3.7632570266723633
aatp8
Rp9
.ccollections
OrderedDict
p0
((lp1
(lp2
S'state'
p3
aI400
aa(lp4
S'distance'
p5
aF293.3879928588867
aa(lp6
S'timestamp'
p7
aF3.772800922393799
aatp8
Rp9
.ccollections
OrderedDict
p0
((lp1
(lp2
S'state'
p3
aI400
aa(lp4
S'distance'
p5
aF293.3879928588867
aa(lp6
S'timestamp'
p7
aF3.7732179164886475
aatp8
Rp9
.ccollections
OrderedDict
p0
((lp1
(lp2
S'state'
p3
aI400
aa(lp4
S'distance'
p5
aF293.3879928588867
aa(lp6
S'timestamp'
p7
aF3.782871961593628
aatp8
Rp9
.ccollections
OrderedDict
p0
((lp1
(lp2
S'state'
p3
aI400
aa(lp4
S'distance'
p5
aF293.3879928588867
aa(lp6
S'timestamp'
p7
aF3.784409999847412
aatp8
Rp9
.ccollections
OrderedDict
p0
((lp1
(lp2
S'state'
p3
aI400
aa(lp4
S'distance'
p5
aF293.3879928588867
aa(lp6
S'timestamp'
p7
aF3.7929699420928955
aatp8
Rp9
.ccollections
OrderedDict
p0
((lp1
(lp2
S'state'
p3
aI400
aa(lp4
S'distance'
p5
aF293.3879928588867
aa(lp6
S'timestamp'
p7
aF3.793549060821533
aatp8
Rp9
.ccollections
OrderedDict
p0
((lp1
(lp2
S'state'
p3
aI400
aa(lp4
S'distance'
p5
aF293.3879928588867
aa(lp6
S'timestamp'
p7
aF3.802860975265503
aatp8
Rp9
.ccollections
OrderedDict
p0
((lp1
(lp2
S'state'
p3
aI400
aa(lp4
S'distance'
p5
aF293.3879928588867
aa(lp6
S'timestamp'
p7
aF3.803395986557007
aatp8
Rp9
.ccollections
OrderedDict
p0
((lp1
(lp2
S'state'
p3
aI400
aa(lp4
S'distance'
p5
aF293.3879928588867
aa(lp6
S'timestamp'
p7
aF3.812847852706909
aatp8
Rp9
.ccollections
OrderedDict
p0
((lp1
(lp2
S'state'
p3
aI400
aa(lp4
S'distance'
p5
aF293.3879928588867
aa(lp6
S'timestamp'
p7
aF3.8135318756103516
aatp8
Rp9
.ccollections
OrderedDict
p0
((lp1
(lp2
S'state'
p3
aI400
aa(lp4
S'distance'
p5
aF293.3879928588867
aa(lp6
S'timestamp'
p7
aF3.822758913040161
aatp8
Rp9
.ccollections
OrderedDict
p0
((lp1
(lp2
S'state'
p3
aI400
aa(lp4
S'distance'
p5
aF293.3879928588867
aa(lp6
S'timestamp'
p7
aF3.823499917984009
aatp8
Rp9
.ccollections
OrderedDict
p0
((lp1
(lp2
S'state'
p3
aI400
aa(lp4
S'distance'
p5
aF293.3879928588867
aa(lp6
S'timestamp'
p7
aF3.833171844482422
aatp8
Rp9
.ccollections
OrderedDict
p0
((lp1
(lp2
S'state'
p3
aI400
aa(lp4
S'distance'
p5
aF293.3879928588867
aa(lp6
S'timestamp'
p7
aF3.8335518836975098
aatp8
Rp9
.ccollections
OrderedDict
p0
((lp1
(lp2
S'state'
p3
aI400
aa(lp4
S'distance'
p5
aF293.3879928588867
aa(lp6
S'timestamp'
p7
aF3.842740058898926
aatp8
Rp9
.ccollections
OrderedDict
p0
((lp1
(lp2
S'state'
p3
aI400
aa(lp4
S'distance'
p5
aF293.3879928588867
aa(lp6
S'timestamp'
p7
aF3.843592882156372
aatp8
Rp9
.ccollections
OrderedDict
p0
((lp1
(lp2
S'state'
p3
aI400
aa(lp4
S'distance'
p5
aF293.3879928588867
aa(lp6
S'timestamp'
p7
aF3.853256940841675
aatp8
Rp9
.ccollections
OrderedDict
p0
((lp1
(lp2
S'state'
p3
aI400
aa(lp4
S'distance'
p5
aF293.3879928588867
aa(lp6
S'timestamp'
p7
aF3.853346824645996
aatp8
Rp9
.ccollections
OrderedDict
p0
((lp1
(lp2
S'state'
p3
aI400
aa(lp4
S'distance'
p5
aF293.3879928588867
aa(lp6
S'timestamp'
p7
aF3.8825089931488037
aatp8
Rp9
.ccollections
OrderedDict
p0
((lp1
(lp2
S'state'
p3
aI400
aa(lp4
S'distance'
p5
aF293.3879928588867
aa(lp6
S'timestamp'
p7
aF3.883090019226074
aatp8
Rp9
.ccollections
OrderedDict
p0
((lp1
(lp2
S'state'
p3
aI400
aa(lp4
S'distance'
p5
aF293.3879928588867
aa(lp6
S'timestamp'
p7
aF3.8845348358154297
aatp8
Rp9
.ccollections
OrderedDict
p0
((lp1
(lp2
S'state'
p3
aI400
aa(lp4
S'distance'
p5
aF293.3879928588867
aa(lp6
S'timestamp'
p7
aF3.885558843612671
aatp8
Rp9
.ccollections
OrderedDict
p0
((lp1
(lp2
S'state'
p3
aI400
aa(lp4
S'distance'
p5
aF293.3879928588867
aa(lp6
S'timestamp'
p7
aF3.8926730155944824
aatp8
Rp9
.ccollections
OrderedDict
p0
((lp1
(lp2
S'state'
p3
aI400
aa(lp4
S'distance'
p5
aF293.3879928588867
aa(lp6
S'timestamp'
p7
aF3.893372058868408
aatp8
Rp9
.ccollections
OrderedDict
p0
((lp1
(lp2
S'state'
p3
aI400
aa(lp4
S'distance'
p5
aF293.3879928588867
aa(lp6
S'timestamp'
p7
aF3.8944509029388428
aatp8
Rp9
.ccollections
OrderedDict
p0
((lp1
(lp2
S'state'
p3
aI400
aa(lp4
S'distance'
p5
aF293.3879928588867
aa(lp6
S'timestamp'
p7
aF3.895508050918579
aatp8
Rp9
.ccollections
OrderedDict
p0
((lp1
(lp2
S'state'
p3
aI400
aa(lp4
S'distance'
p5
aF293.3879928588867
aa(lp6
S'timestamp'
p7
aF3.9028408527374268
aatp8
Rp9
.ccollections
OrderedDict
p0
((lp1
(lp2
S'state'
p3
aI400
aa(lp4
S'distance'
p5
aF293.3879928588867
aa(lp6
S'timestamp'
p7
aF3.904057025909424
aatp8
Rp9
.ccollections
OrderedDict
p0
((lp1
(lp2
S'state'
p3
aI400
aa(lp4
S'distance'
p5
aF293.3879928588867
aa(lp6
S'timestamp'
p7
aF3.9130759239196777
aatp8
Rp9
.ccollections
OrderedDict
p0
((lp1
(lp2
S'state'
p3
aI400
aa(lp4
S'distance'
p5
aF293.3879928588867
aa(lp6
S'timestamp'
p7
aF3.9133150577545166
aatp8
Rp9
.ccollections
OrderedDict
p0
((lp1
(lp2
S'state'
p3
aI400
aa(lp4
S'distance'
p5
aF293.3879928588867
aa(lp6
S'timestamp'
p7
aF3.9225988388061523
aatp8
Rp9
.ccollections
OrderedDict
p0
((lp1
(lp2
S'state'
p3
aI400
aa(lp4
S'distance'
p5
aF293.3879928588867
aa(lp6
S'timestamp'
p7
aF3.9233639240264893
aatp8
Rp9
.ccollections
OrderedDict
p0
((lp1
(lp2
S'state'
p3
aI400
aa(lp4
S'distance'
p5
aF293.3879928588867
aa(lp6
S'timestamp'
p7
aF3.932623863220215
aatp8
Rp9
.ccollections
OrderedDict
p0
((lp1
(lp2
S'state'
p3
aI400
aa(lp4
S'distance'
p5
aF293.3879928588867
aa(lp6
S'timestamp'
p7
aF3.933518886566162
aatp8
Rp9
.ccollections
OrderedDict
p0
((lp1
(lp2
S'state'
p3
aI400
aa(lp4
S'distance'
p5
aF293.3879928588867
aa(lp6
S'timestamp'
p7
aF3.9427330493927
aatp8
Rp9
.ccollections
OrderedDict
p0
((lp1
(lp2
S'state'
p3
aI400
aa(lp4
S'distance'
p5
aF293.3879928588867
aa(lp6
S'timestamp'
p7
aF3.943114995956421
aatp8
Rp9
.ccollections
OrderedDict
p0
((lp1
(lp2
S'state'
p3
aI400
aa(lp4
S'distance'
p5
aF293.3879928588867
aa(lp6
S'timestamp'
p7
aF3.9528849124908447
aatp8
Rp9
.ccollections
OrderedDict
p0
((lp1
(lp2
S'state'
p3
aI400
aa(lp4
S'distance'
p5
aF293.3879928588867
aa(lp6
S'timestamp'
p7
aF3.953047037124634
aatp8
Rp9
.ccollections
OrderedDict
p0
((lp1
(lp2
S'state'
p3
aI400
aa(lp4
S'distance'
p5
aF293.3879928588867
aa(lp6
S'timestamp'
p7
aF3.9633049964904785
aatp8
Rp9
.ccollections
OrderedDict
p0
((lp1
(lp2
S'state'
p3
aI400
aa(lp4
S'distance'
p5
aF293.3879928588867
aa(lp6
S'timestamp'
p7
aF3.963392972946167
aatp8
Rp9
.ccollections
OrderedDict
p0
((lp1
(lp2
S'state'
p3
aI400
aa(lp4
S'distance'
p5
aF293.3879928588867
aa(lp6
S'timestamp'
p7
aF3.973219871520996
aatp8
Rp9
.ccollections
OrderedDict
p0
((lp1
(lp2
S'state'
p3
aI400
aa(lp4
S'distance'
p5
aF293.3879928588867
aa(lp6
S'timestamp'
p7
aF3.973301887512207
aatp8
Rp9
.ccollections
OrderedDict
p0
((lp1
(lp2
S'state'
p3
aI400
aa(lp4
S'distance'
p5
aF293.3879928588867
aa(lp6
S'timestamp'
p7
aF3.983369827270508
aatp8
Rp9
.ccollections
OrderedDict
p0
((lp1
(lp2
S'state'
p3
aI400
aa(lp4
S'distance'
p5
aF293.3879928588867
aa(lp6
S'timestamp'
p7
aF3.983991861343384
aatp8
Rp9
.ccollections
OrderedDict
p0
((lp1
(lp2
S'state'
p3
aI400
aa(lp4
S'distance'
p5
aF293.3879928588867
aa(lp6
S'timestamp'
p7
aF3.992650032043457
aatp8
Rp9
.ccollections
OrderedDict
p0
((lp1
(lp2
S'state'
p3
aI400
aa(lp4
S'distance'
p5
aF293.3879928588867
aa(lp6
S'timestamp'
p7
aF3.993464946746826
aatp8
Rp9
.ccollections
OrderedDict
p0
((lp1
(lp2
S'state'
p3
aI400
aa(lp4
S'distance'
p5
aF293.3879928588867
aa(lp6
S'timestamp'
p7
aF4.002886056900024
aatp8
Rp9
.ccollections
OrderedDict
p0
((lp1
(lp2
S'state'
p3
aI400
aa(lp4
S'distance'
p5
aF293.3879928588867
aa(lp6
S'timestamp'
p7
aF4.003051996231079
aatp8
Rp9
.ccollections
OrderedDict
p0
((lp1
(lp2
S'state'
p3
aI400
aa(lp4
S'distance'
p5
aF293.3879928588867
aa(lp6
S'timestamp'
p7
aF4.013080835342407
aatp8
Rp9
.ccollections
OrderedDict
p0
((lp1
(lp2
S'state'
p3
aI400
aa(lp4
S'distance'
p5
aF293.3879928588867
aa(lp6
S'timestamp'
p7
aF4.013263940811157
aatp8
Rp9
.ccollections
OrderedDict
p0
((lp1
(lp2
S'state'
p3
aI400
aa(lp4
S'distance'
p5
aF293.3879928588867
aa(lp6
S'timestamp'
p7
aF4.022716999053955
aatp8
Rp9
.ccollections
OrderedDict
p0
((lp1
(lp2
S'state'
p3
aI400
aa(lp4
S'distance'
p5
aF293.3879928588867
aa(lp6
S'timestamp'
p7
aF4.0234880447387695
aatp8
Rp9
.ccollections
OrderedDict
p0
((lp1
(lp2
S'state'
p3
aI400
aa(lp4
S'distance'
p5
aF293.3879928588867
aa(lp6
S'timestamp'
p7
aF4.033205986022949
aatp8
Rp9
.ccollections
OrderedDict
p0
((lp1
(lp2
S'state'
p3
aI400
aa(lp4
S'distance'
p5
aF293.3879928588867
aa(lp6
S'timestamp'
p7
aF4.0333428382873535
aatp8
Rp9
.ccollections
OrderedDict
p0
((lp1
(lp2
S'state'
p3
aI400
aa(lp4
S'distance'
p5
aF293.3879928588867
aa(lp6
S'timestamp'
p7
aF4.043256998062134
aatp8
Rp9
.ccollections
OrderedDict
p0
((lp1
(lp2
S'state'
p3
aI400
aa(lp4
S'distance'
p5
aF293.3879928588867
aa(lp6
S'timestamp'
p7
aF4.043344974517822
aatp8
Rp9
.ccollections
OrderedDict
p0
((lp1
(lp2
S'state'
p3
aI400
aa(lp4
S'distance'
p5
aF293.3879928588867
aa(lp6
S'timestamp'
p7
aF4.053526878356934
aatp8
Rp9
.ccollections
OrderedDict
p0
((lp1
(lp2
S'state'
p3
aI400
aa(lp4
S'distance'
p5
aF293.3879928588867
aa(lp6
S'timestamp'
p7
aF4.053599834442139
aatp8
Rp9
.ccollections
OrderedDict
p0
((lp1
(lp2
S'state'
p3
aI400
aa(lp4
S'distance'
p5
aF293.3879928588867
aa(lp6
S'timestamp'
p7
aF4.0633649826049805
aatp8
Rp9
.ccollections
OrderedDict
p0
((lp1
(lp2
S'state'
p3
aI400
aa(lp4
S'distance'
p5
aF293.3879928588867
aa(lp6
S'timestamp'
p7
aF4.06383204460144
aatp8
Rp9
.ccollections
OrderedDict
p0
((lp1
(lp2
S'state'
p3
aI400
aa(lp4
S'distance'
p5
aF293.3879928588867
aa(lp6
S'timestamp'
p7
aF4.07275390625
aatp8
Rp9
.ccollections
OrderedDict
p0
((lp1
(lp2
S'state'
p3
aI400
aa(lp4
S'distance'
p5
aF293.3879928588867
aa(lp6
S'timestamp'
p7
aF4.072991847991943
aatp8
Rp9
.ccollections
OrderedDict
p0
((lp1
(lp2
S'state'
p3
aI400
aa(lp4
S'distance'
p5
aF293.3879928588867
aa(lp6
S'timestamp'
p7
aF4.083277940750122
aatp8
Rp9
.ccollections
OrderedDict
p0
((lp1
(lp2
S'state'
p3
aI400
aa(lp4
S'distance'
p5
aF293.3879928588867
aa(lp6
S'timestamp'
p7
aF4.083359956741333
aatp8
Rp9
.ccollections
OrderedDict
p0
((lp1
(lp2
S'state'
p3
aI400
aa(lp4
S'distance'
p5
aF293.3879928588867
aa(lp6
S'timestamp'
p7
aF4.093328952789307
aatp8
Rp9
.ccollections
OrderedDict
p0
((lp1
(lp2
S'state'
p3
aI400
aa(lp4
S'distance'
p5
aF293.3879928588867
aa(lp6
S'timestamp'
p7
aF4.093402862548828
aatp8
Rp9
.ccollections
OrderedDict
p0
((lp1
(lp2
S'state'
p3
aI400
aa(lp4
S'distance'
p5
aF293.3879928588867
aa(lp6
S'timestamp'
p7
aF4.102818012237549
aatp8
Rp9
.ccollections
OrderedDict
p0
((lp1
(lp2
S'state'
p3
aI400
aa(lp4
S'distance'
p5
aF293.3879928588867
aa(lp6
S'timestamp'
p7
aF4.104477882385254
aatp8
Rp9
.ccollections
OrderedDict
p0
((lp1
(lp2
S'state'
p3
aI400
aa(lp4
S'distance'
p5
aF293.3879928588867
aa(lp6
S'timestamp'
p7
aF4.112648963928223
aatp8
Rp9
.ccollections
OrderedDict
p0
((lp1
(lp2
S'state'
p3
aI400
aa(lp4
S'distance'
p5
aF293.3879928588867
aa(lp6
S'timestamp'
p7
aF4.113291025161743
aatp8
Rp9
.ccollections
OrderedDict
p0
((lp1
(lp2
S'state'
p3
aI400
aa(lp4
S'distance'
p5
aF293.3879928588867
aa(lp6
S'timestamp'
p7
aF4.1233909130096436
aatp8
Rp9
.ccollections
OrderedDict
p0
((lp1
(lp2
S'state'
p3
aI400
aa(lp4
S'distance'
p5
aF293.3879928588867
aa(lp6
S'timestamp'
p7
aF4.123498916625977
aatp8
Rp9
.ccollections
OrderedDict
p0
((lp1
(lp2
S'state'
p3
aI400
aa(lp4
S'distance'
p5
aF293.3879928588867
aa(lp6
S'timestamp'
p7
aF4.132736921310425
aatp8
Rp9
.ccollections
OrderedDict
p0
((lp1
(lp2
S'state'
p3
aI400
aa(lp4
S'distance'
p5
aF293.3879928588867
aa(lp6
S'timestamp'
p7
aF4.133286952972412
aatp8
Rp9
.ccollections
OrderedDict
p0
((lp1
(lp2
S'state'
p3
aI400
aa(lp4
S'distance'
p5
aF293.3879928588867
aa(lp6
S'timestamp'
p7
aF4.143030881881714
aatp8
Rp9
.ccollections
OrderedDict
p0
((lp1
(lp2
S'state'
p3
aI400
aa(lp4
S'distance'
p5
aF293.3879928588867
aa(lp6
S'timestamp'
p7
aF4.143741846084595
aatp8
Rp9
.ccollections
OrderedDict
p0
((lp1
(lp2
S'state'
p3
aI400
aa(lp4
S'distance'
p5
aF293.3879928588867
aa(lp6
S'timestamp'
p7
aF4.15264892578125
aatp8
Rp9
.ccollections
OrderedDict
p0
((lp1
(lp2
S'state'
p3
aI400
aa(lp4
S'distance'
p5
aF293.3879928588867
aa(lp6
S'timestamp'
p7
aF4.153221845626831
aatp8
Rp9
.ccollections
OrderedDict
p0
((lp1
(lp2
S'state'
p3
aI400
aa(lp4
S'distance'
p5
aF293.3879928588867
aa(lp6
S'timestamp'
p7
aF4.162801027297974
aatp8
Rp9
.ccollections
OrderedDict
p0
((lp1
(lp2
S'state'
p3
aI400
aa(lp4
S'distance'
p5
aF293.3879928588867
aa(lp6
S'timestamp'
p7
aF4.16347599029541
aatp8
Rp9
.ccollections
OrderedDict
p0
((lp1
(lp2
S'state'
p3
aI400
aa(lp4
S'distance'
p5
aF293.3879928588867
aa(lp6
S'timestamp'
p7
aF4.172667980194092
aatp8
Rp9
.ccollections
OrderedDict
p0
((lp1
(lp2
S'state'
p3
aI400
aa(lp4
S'distance'
p5
aF293.3879928588867
aa(lp6
S'timestamp'
p7
aF4.173344850540161
aatp8
Rp9
.ccollections
OrderedDict
p0
((lp1
(lp2
S'state'
p3
aI400
aa(lp4
S'distance'
p5
aF293.3879928588867
aa(lp6
S'timestamp'
p7
aF4.18348503112793
aatp8
Rp9
.ccollections
OrderedDict
p0
((lp1
(lp2
S'state'
p3
aI400
aa(lp4
S'distance'
p5
aF293.3879928588867
aa(lp6
S'timestamp'
p7
aF4.184070825576782
aatp8
Rp9
.ccollections
OrderedDict
p0
((lp1
(lp2
S'state'
p3
aI400
aa(lp4
S'distance'
p5
aF293.3879928588867
aa(lp6
S'timestamp'
p7
aF4.193337917327881
aatp8
Rp9
.ccollections
OrderedDict
p0
((lp1
(lp2
S'state'
p3
aI400
aa(lp4
S'distance'
p5
aF293.3879928588867
aa(lp6
S'timestamp'
p7
aF4.193411827087402
aatp8
Rp9
.ccollections
OrderedDict
p0
((lp1
(lp2
S'state'
p3
aI400
aa(lp4
S'distance'
p5
aF293.3879928588867
aa(lp6
S'timestamp'
p7
aF4.203104019165039
aatp8
Rp9
.ccollections
OrderedDict
p0
((lp1
(lp2
S'state'
p3
aI400
aa(lp4
S'distance'
p5
aF293.3879928588867
aa(lp6
S'timestamp'
p7
aF4.203460931777954
aatp8
Rp9
.ccollections
OrderedDict
p0
((lp1
(lp2
S'state'
p3
aI400
aa(lp4
S'distance'
p5
aF293.3879928588867
aa(lp6
S'timestamp'
p7
aF4.213083028793335
aatp8
Rp9
.ccollections
OrderedDict
p0
((lp1
(lp2
S'state'
p3
aI400
aa(lp4
S'distance'
p5
aF293.3879928588867
aa(lp6
S'timestamp'
p7
aF4.213343858718872
aatp8
Rp9
.ccollections
OrderedDict
p0
((lp1
(lp2
S'state'
p3
aI400
aa(lp4
S'distance'
p5
aF293.3879928588867
aa(lp6
S'timestamp'
p7
aF4.226269960403442
aatp8
Rp9
.ccollections
OrderedDict
p0
((lp1
(lp2
S'state'
p3
aI400
aa(lp4
S'distance'
p5
aF293.3879928588867
aa(lp6
S'timestamp'
p7
aF4.227365016937256
aatp8
Rp9
.ccollections
OrderedDict
p0
((lp1
(lp2
S'state'
p3
aI400
aa(lp4
S'distance'
p5
aF293.3879928588867
aa(lp6
S'timestamp'
p7
aF4.2430419921875
aatp8
Rp9
.ccollections
OrderedDict
p0
((lp1
(lp2
S'state'
p3
aI400
aa(lp4
S'distance'
p5
aF293.3879928588867
aa(lp6
S'timestamp'
p7
aF4.24320387840271
aatp8
Rp9
.ccollections
OrderedDict
p0
((lp1
(lp2
S'state'
p3
aI400
aa(lp4
S'distance'
p5
aF293.3879928588867
aa(lp6
S'timestamp'
p7
aF4.243937015533447
aatp8
Rp9
.ccollections
OrderedDict
p0
((lp1
(lp2
S'state'
p3
aI400
aa(lp4
S'distance'
p5
aF293.3879928588867
aa(lp6
S'timestamp'
p7
aF4.244672060012817
aatp8
Rp9
.ccollections
OrderedDict
p0
((lp1
(lp2
S'state'
p3
aI400
aa(lp4
S'distance'
p5
aF293.3879928588867
aa(lp6
S'timestamp'
p7
aF4.252639055252075
aatp8
Rp9
.ccollections
OrderedDict
p0
((lp1
(lp2
S'state'
p3
aI400
aa(lp4
S'distance'
p5
aF293.3879928588867
aa(lp6
S'timestamp'
p7
aF4.253411054611206
aatp8
Rp9
.ccollections
OrderedDict
p0
((lp1
(lp2
S'state'
p3
aI400
aa(lp4
S'distance'
p5
aF293.3879928588867
aa(lp6
S'timestamp'
p7
aF4.262688875198364
aatp8
Rp9
.ccollections
OrderedDict
p0
((lp1
(lp2
S'state'
p3
aI400
aa(lp4
S'distance'
p5
aF293.3879928588867
aa(lp6
S'timestamp'
p7
aF4.263378858566284
aatp8
Rp9
.ccollections
OrderedDict
p0
((lp1
(lp2
S'state'
p3
aI400
aa(lp4
S'distance'
p5
aF293.3879928588867
aa(lp6
S'timestamp'
p7
aF4.272809982299805
aatp8
Rp9
.ccollections
OrderedDict
p0
((lp1
(lp2
S'state'
p3
aI400
aa(lp4
S'distance'
p5
aF293.3879928588867
aa(lp6
S'timestamp'
p7
aF4.27302885055542
aatp8
Rp9
.ccollections
OrderedDict
p0
((lp1
(lp2
S'state'
p3
aI400
aa(lp4
S'distance'
p5
aF293.3879928588867
aa(lp6
S'timestamp'
p7
aF4.2826550006866455
aatp8
Rp9
.ccollections
OrderedDict
p0
((lp1
(lp2
S'state'
p3
aI0
aa(lp4
S'distance'
p5
aF293.3879928588867
aa(lp6
S'timestamp'
p7
aF4.283396005630493
aatp8
Rp9
.ccollections
OrderedDict
p0
((lp1
(lp2
S'state'
p3
aI0
aa(lp4
S'distance'
p5
aF211.79608154296875
aa(lp6
S'timestamp'
p7
aF4.854857921600342
aatp8
Rp9
.ccollections
OrderedDict
p0
((lp1
(lp2
S'state'
p3
aI0
aa(lp4
S'distance'
p5
aF211.79608154296875
aa(lp6
S'timestamp'
p7
aF4.86269998550415
aatp8
Rp9
.ccollections
OrderedDict
p0
((lp1
(lp2
S'state'
p3
aI0
aa(lp4
S'distance'
p5
aF211.79608154296875
aa(lp6
S'timestamp'
p7
aF4.8629889488220215
aatp8
Rp9
.ccollections
OrderedDict
p0
((lp1
(lp2
S'state'
p3
aI0
aa(lp4
S'distance'
p5
aF211.79608154296875
aa(lp6
S'timestamp'
p7
aF4.87360405921936
aatp8
Rp9
.ccollections
OrderedDict
p0
((lp1
(lp2
S'state'
p3
aI0
aa(lp4
S'distance'
p5
aF211.79608154296875
aa(lp6
S'timestamp'
p7
aF4.873687982559204
aatp8
Rp9
.ccollections
OrderedDict
p0
((lp1
(lp2
S'state'
p3
aI0
aa(lp4
S'distance'
p5
aF211.79608154296875
aa(lp6
S'timestamp'
p7
aF4.892809867858887
aatp8
Rp9
.ccollections
OrderedDict
p0
((lp1
(lp2
S'state'
p3
aI0
aa(lp4
S'distance'
p5
aF211.79608154296875
aa(lp6
S'timestamp'
p7
aF4.892896890640259
aatp8
Rp9
.ccollections
OrderedDict
p0
((lp1
(lp2
S'state'
p3
aI0
aa(lp4
S'distance'
p5
aF211.79608154296875
aa(lp6
S'timestamp'
p7
aF4.893672943115234
aatp8
Rp9
.ccollections
OrderedDict
p0
((lp1
(lp2
S'state'
p3
aI0
aa(lp4
S'distance'
p5
aF211.79608154296875
aa(lp6
S'timestamp'
p7
aF4.9025819301605225
aatp8
Rp9
.ccollections
OrderedDict
p0
((lp1
(lp2
S'state'
p3
aI0
aa(lp4
S'distance'
p5
aF211.79608154296875
aa(lp6
S'timestamp'
p7
aF4.912574052810669
aatp8
Rp9
.ccollections
OrderedDict
p0
((lp1
(lp2
S'state'
p3
aI0
aa(lp4
S'distance'
p5
aF211.79608154296875
aa(lp6
S'timestamp'
p7
aF4.913405895233154
aatp8
Rp9
.ccollections
OrderedDict
p0
((lp1
(lp2
S'state'
p3
aI0
aa(lp4
S'distance'
p5
aF211.79608154296875
aa(lp6
S'timestamp'
p7
aF4.914430856704712
aatp8
Rp9
.ccollections
OrderedDict
p0
((lp1
(lp2
S'state'
p3
aI0
aa(lp4
S'distance'
p5
aF211.79608154296875
aa(lp6
S'timestamp'
p7
aF4.91575288772583
aatp8
Rp9
.ccollections
OrderedDict
p0
((lp1
(lp2
S'state'
p3
aI0
aa(lp4
S'distance'
p5
aF211.79608154296875
aa(lp6
S'timestamp'
p7
aF4.932699918746948
aatp8
Rp9
.ccollections
OrderedDict
p0
((lp1
(lp2
S'state'
p3
aI0
aa(lp4
S'distance'
p5
aF211.79608154296875
aa(lp6
S'timestamp'
p7
aF4.932839870452881
aatp8
Rp9
.ccollections
OrderedDict
p0
((lp1
(lp2
S'state'
p3
aI0
aa(lp4
S'distance'
p5
aF211.79608154296875
aa(lp6
S'timestamp'
p7
aF4.9341349601745605
aatp8
Rp9
.ccollections
OrderedDict
p0
((lp1
(lp2
S'state'
p3
aI0
aa(lp4
S'distance'
p5
aF211.79608154296875
aa(lp6
S'timestamp'
p7
aF4.934967994689941
aatp8
Rp9
.ccollections
OrderedDict
p0
((lp1
(lp2
S'state'
p3
aI0
aa(lp4
S'distance'
p5
aF211.79608154296875
aa(lp6
S'timestamp'
p7
aF4.943352937698364
aatp8
Rp9
.ccollections
OrderedDict
p0
((lp1
(lp2
S'state'
p3
aI0
aa(lp4
S'distance'
p5
aF211.79608154296875
aa(lp6
S'timestamp'
p7
aF4.943936824798584
aatp8
Rp9
.ccollections
OrderedDict
p0
((lp1
(lp2
S'state'
p3
aI0
aa(lp4
S'distance'
p5
aF211.79608154296875
aa(lp6
S'timestamp'
p7
aF4.963006019592285
aatp8
Rp9
.ccollections
OrderedDict
p0
((lp1
(lp2
S'state'
p3
aI0
aa(lp4
S'distance'
p5
aF211.79608154296875
aa(lp6
S'timestamp'
p7
aF4.963366985321045
aatp8
Rp9
.ccollections
OrderedDict
p0
((lp1
(lp2
S'state'
p3
aI0
aa(lp4
S'distance'
p5
aF211.79608154296875
aa(lp6
S'timestamp'
p7
aF4.964447975158691
aatp8
Rp9
.ccollections
OrderedDict
p0
((lp1
(lp2
S'state'
p3
aI0
aa(lp4
S'distance'
p5
aF211.79608154296875
aa(lp6
S'timestamp'
p7
aF4.965524911880493
aatp8
Rp9
.ccollections
OrderedDict
p0
((lp1
(lp2
S'state'
p3
aI0
aa(lp4
S'distance'
p5
aF211.79608154296875
aa(lp6
S'timestamp'
p7
aF4.983155965805054
aatp8
Rp9
.ccollections
OrderedDict
p0
((lp1
(lp2
S'state'
p3
aI0
aa(lp4
S'distance'
p5
aF211.79608154296875
aa(lp6
S'timestamp'
p7
aF4.993165969848633
aatp8
Rp9
.ccollections
OrderedDict
p0
((lp1
(lp2
S'state'
p3
aI0
aa(lp4
S'distance'
p5
aF211.79608154296875
aa(lp6
S'timestamp'
p7
aF4.9941489696502686
aatp8
Rp9
.ccollections
OrderedDict
p0
((lp1
(lp2
S'state'
p3
aI0
aa(lp4
S'distance'
p5
aF211.79608154296875
aa(lp6
S'timestamp'
p7
aF4.994313955307007
aatp8
Rp9
.ccollections
OrderedDict
p0
((lp1
(lp2
S'state'
p3
aI0
aa(lp4
S'distance'
p5
aF211.79608154296875
aa(lp6
S'timestamp'
p7
aF4.994452953338623
aatp8
Rp9
.ccollections
OrderedDict
p0
((lp1
(lp2
S'state'
p3
aI0
aa(lp4
S'distance'
p5
aF211.79608154296875
aa(lp6
S'timestamp'
p7
aF5.003361940383911
aatp8
Rp9
.ccollections
OrderedDict
p0
((lp1
(lp2
S'state'
p3
aI0
aa(lp4
S'distance'
p5
aF211.79608154296875
aa(lp6
S'timestamp'
p7
aF5.003434896469116
aatp8
Rp9
.ccollections
OrderedDict
p0
((lp1
(lp2
S'state'
p3
aI0
aa(lp4
S'distance'
p5
aF211.79608154296875
aa(lp6
S'timestamp'
p7
aF5.004746913909912
aatp8
Rp9
.ccollections
OrderedDict
p0
((lp1
(lp2
S'state'
p3
aI0
aa(lp4
S'distance'
p5
aF211.79608154296875
aa(lp6
S'timestamp'
p7
aF5.0130250453948975
aatp8
Rp9
.ccollections
OrderedDict
p0
((lp1
(lp2
S'state'
p3
aI0
aa(lp4
S'distance'
p5
aF211.79608154296875
aa(lp6
S'timestamp'
p7
aF5.013113021850586
aatp8
Rp9
.ccollections
OrderedDict
p0
((lp1
(lp2
S'state'
p3
aI0
aa(lp4
S'distance'
p5
aF211.79608154296875
aa(lp6
S'timestamp'
p7
aF5.0229668617248535
aatp8
Rp9
.ccollections
OrderedDict
p0
((lp1
(lp2
S'state'
p3
aI0
aa(lp4
S'distance'
p5
aF211.79608154296875
aa(lp6
S'timestamp'
p7
aF5.023108005523682
aatp8
Rp9
.ccollections
OrderedDict
p0
((lp1
(lp2
S'state'
p3
aI0
aa(lp4
S'distance'
p5
aF211.79608154296875
aa(lp6
S'timestamp'
p7
aF5.033282041549683
aatp8
Rp9
.ccollections
OrderedDict
p0
((lp1
(lp2
S'state'
p3
aI0
aa(lp4
S'distance'
p5
aF211.79608154296875
aa(lp6
S'timestamp'
p7
aF5.043179988861084
aatp8
Rp9
.ccollections
OrderedDict
p0
((lp1
(lp2
S'state'
p3
aI0
aa(lp4
S'distance'
p5
aF211.79608154296875
aa(lp6
S'timestamp'
p7
aF5.043259859085083
aatp8
Rp9
.ccollections
OrderedDict
p0
((lp1
(lp2
S'state'
p3
aI0
aa(lp4
S'distance'
p5
aF211.79608154296875
aa(lp6
S'timestamp'
p7
aF5.04510498046875
aatp8
Rp9
.ccollections
OrderedDict
p0
((lp1
(lp2
S'state'
p3
aI0
aa(lp4
S'distance'
p5
aF211.79608154296875
aa(lp6
S'timestamp'
p7
aF5.052717924118042
aatp8
Rp9
.ccollections
OrderedDict
p0
((lp1
(lp2
S'state'
p3
aI0
aa(lp4
S'distance'
p5
aF211.79608154296875
aa(lp6
S'timestamp'
p7
aF5.06325101852417
aatp8
Rp9
.ccollections
OrderedDict
p0
((lp1
(lp2
S'state'
p3
aI0
aa(lp4
S'distance'
p5
aF211.79608154296875
aa(lp6
S'timestamp'
p7
aF5.063334941864014
aatp8
Rp9
.ccollections
OrderedDict
p0
((lp1
(lp2
S'state'
p3
aI0
aa(lp4
S'distance'
p5
aF211.79608154296875
aa(lp6
S'timestamp'
p7
aF5.0635998249053955
aatp8
Rp9
.ccollections
OrderedDict
p0
((lp1
(lp2
S'state'
p3
aI0
aa(lp4
S'distance'
p5
aF211.79608154296875
aa(lp6
S'timestamp'
p7
aF5.073189973831177
aatp8
Rp9
.ccollections
OrderedDict
p0
((lp1
(lp2
S'state'
p3
aI0
aa(lp4
S'distance'
p5
aF211.79608154296875
aa(lp6
S'timestamp'
p7
aF5.073588848114014
aatp8
Rp9
.ccollections
OrderedDict
p0
((lp1
(lp2
S'state'
p3
aI0
aa(lp4
S'distance'
p5
aF211.79608154296875
aa(lp6
S'timestamp'
p7
aF5.083509922027588
aatp8
Rp9
.ccollections
OrderedDict
p0
((lp1
(lp2
S'state'
p3
aI0
aa(lp4
S'distance'
p5
aF211.79608154296875
aa(lp6
S'timestamp'
p7
aF5.083633899688721
aatp8
Rp9
.ccollections
OrderedDict
p0
((lp1
(lp2
S'state'
p3
aI0
aa(lp4
S'distance'
p5
aF211.79608154296875
aa(lp6
S'timestamp'
p7
aF5.103024959564209
aatp8
Rp9
.ccollections
OrderedDict
p0
((lp1
(lp2
S'state'
p3
aI0
aa(lp4
S'distance'
p5
aF211.79608154296875
aa(lp6
S'timestamp'
p7
aF5.103425025939941
aatp8
Rp9
.ccollections
OrderedDict
p0
((lp1
(lp2
S'state'
p3
aI0
aa(lp4
S'distance'
p5
aF211.79608154296875
aa(lp6
S'timestamp'
p7
aF5.104991912841797
aatp8
Rp9
.ccollections
OrderedDict
p0
((lp1
(lp2
S'state'
p3
aI0
aa(lp4
S'distance'
p5
aF211.79608154296875
aa(lp6
S'timestamp'
p7
aF5.105468034744263
aatp8
Rp9
.ccollections
OrderedDict
p0
((lp1
(lp2
S'state'
p3
aI0
aa(lp4
S'distance'
p5
aF211.79608154296875
aa(lp6
S'timestamp'
p7
aF5.133131980895996
aatp8
Rp9
.ccollections
OrderedDict
p0
((lp1
(lp2
S'state'
p3
aI0
aa(lp4
S'distance'
p5
aF211.79608154296875
aa(lp6
S'timestamp'
p7
aF5.133462905883789
aatp8
Rp9
.ccollections
OrderedDict
p0
((lp1
(lp2
S'state'
p3
aI0
aa(lp4
S'distance'
p5
aF211.79608154296875
aa(lp6
S'timestamp'
p7
aF5.133746862411499
aatp8
Rp9
.ccollections
OrderedDict
p0
((lp1
(lp2
S'state'
p3
aI0
aa(lp4
S'distance'
p5
aF211.79608154296875
aa(lp6
S'timestamp'
p7
aF5.133939027786255
aatp8
Rp9
.ccollections
OrderedDict
p0
((lp1
(lp2
S'state'
p3
aI0
aa(lp4
S'distance'
p5
aF211.79608154296875
aa(lp6
S'timestamp'
p7
aF5.143340826034546
aatp8
Rp9
.ccollections
OrderedDict
p0
((lp1
(lp2
S'state'
p3
aI0
aa(lp4
S'distance'
p5
aF211.79608154296875
aa(lp6
S'timestamp'
p7
aF5.14348292350769
aatp8
Rp9
.ccollections
OrderedDict
p0
((lp1
(lp2
S'state'
p3
aI0
aa(lp4
S'distance'
p5
aF211.79608154296875
aa(lp6
S'timestamp'
p7
aF5.143764972686768
aatp8
Rp9
.ccollections
OrderedDict
p0
((lp1
(lp2
S'state'
p3
aI0
aa(lp4
S'distance'
p5
aF211.79608154296875
aa(lp6
S'timestamp'
p7
aF5.143878936767578
aatp8
Rp9
.ccollections
OrderedDict
p0
((lp1
(lp2
S'state'
p3
aI0
aa(lp4
S'distance'
p5
aF211.79608154296875
aa(lp6
S'timestamp'
p7
aF5.153130054473877
aatp8
Rp9
.ccollections
OrderedDict
p0
((lp1
(lp2
S'state'
p3
aI0
aa(lp4
S'distance'
p5
aF211.79608154296875
aa(lp6
S'timestamp'
p7
aF5.153568983078003
aatp8
Rp9
.ccollections
OrderedDict
p0
((lp1
(lp2
S'state'
p3
aI0
aa(lp4
S'distance'
p5
aF211.79608154296875
aa(lp6
S'timestamp'
p7
aF5.1628618240356445
aatp8
Rp9
.ccollections
OrderedDict
p0
((lp1
(lp2
S'state'
p3
aI0
aa(lp4
S'distance'
p5
aF211.79608154296875
aa(lp6
S'timestamp'
p7
aF5.173141956329346
aatp8
Rp9
.ccollections
OrderedDict
p0
((lp1
(lp2
S'state'
p3
aI0
aa(lp4
S'distance'
p5
aF211.79608154296875
aa(lp6
S'timestamp'
p7
aF5.1732189655303955
aatp8
Rp9
.ccollections
OrderedDict
p0
((lp1
(lp2
S'state'
p3
aI0
aa(lp4
S'distance'
p5
aF211.79608154296875
aa(lp6
S'timestamp'
p7
aF5.1747658252716064
aatp8
Rp9
.ccollections
OrderedDict
p0
((lp1
(lp2
S'state'
p3
aI0
aa(lp4
S'distance'
p5
aF211.79608154296875
aa(lp6
S'timestamp'
p7
aF5.183238983154297
aatp8
Rp9
.ccollections
OrderedDict
p0
((lp1
(lp2
S'state'
p3
aI0
aa(lp4
S'distance'
p5
aF211.79608154296875
aa(lp6
S'timestamp'
p7
aF5.1833178997039795
aatp8
Rp9
.ccollections
OrderedDict
p0
((lp1
(lp2
S'state'
p3
aI0
aa(lp4
S'distance'
p5
aF211.79608154296875
aa(lp6
S'timestamp'
p7
aF5.193371057510376
aatp8
Rp9
.ccollections
OrderedDict
p0
((lp1
(lp2
S'state'
p3
aI0
aa(lp4
S'distance'
p5
aF211.79608154296875
aa(lp6
S'timestamp'
p7
aF5.203176021575928
aatp8
Rp9
.ccollections
OrderedDict
p0
((lp1
(lp2
S'state'
p3
aI0
aa(lp4
S'distance'
p5
aF211.79608154296875
aa(lp6
S'timestamp'
p7
aF5.203253984451294
aatp8
Rp9
.ccollections
OrderedDict
p0
((lp1
(lp2
S'state'
p3
aI0
aa(lp4
S'distance'
p5
aF211.79608154296875
aa(lp6
S'timestamp'
p7
aF5.205020904541016
aatp8
Rp9
.ccollections
OrderedDict
p0
((lp1
(lp2
S'state'
p3
aI0
aa(lp4
S'distance'
p5
aF211.79608154296875
aa(lp6
S'timestamp'
p7
aF5.213281869888306
aatp8
Rp9
.ccollections
OrderedDict
p0
((lp1
(lp2
S'state'
p3
aI0
aa(lp4
S'distance'
p5
aF211.79608154296875
aa(lp6
S'timestamp'
p7
aF5.213356971740723
aatp8
Rp9
.ccollections
OrderedDict
p0
((lp1
(lp2
S'state'
p3
aI0
aa(lp4
S'distance'
p5
aF211.79608154296875
aa(lp6
S'timestamp'
p7
aF5.223284959793091
aatp8
Rp9
.ccollections
OrderedDict
p0
((lp1
(lp2
S'state'
p3
aI0
aa(lp4
S'distance'
p5
aF211.79608154296875
aa(lp6
S'timestamp'
p7
aF5.223361968994141
aatp8
Rp9
.ccollections
OrderedDict
p0
((lp1
(lp2
S'state'
p3
aI0
aa(lp4
S'distance'
p5
aF211.79608154296875
aa(lp6
S'timestamp'
p7
aF5.233229875564575
aatp8
Rp9
.ccollections
OrderedDict
p0
((lp1
(lp2
S'state'
p3
aI0
aa(lp4
S'distance'
p5
aF211.79608154296875
aa(lp6
S'timestamp'
p7
aF5.233532905578613
aatp8
Rp9
.ccollections
OrderedDict
p0
((lp1
(lp2
S'state'
p3
aI0
aa(lp4
S'distance'
p5
aF211.79608154296875
aa(lp6
S'timestamp'
p7
aF5.252717018127441
aatp8
Rp9
.ccollections
OrderedDict
p0
((lp1
(lp2
S'state'
p3
aI0
aa(lp4
S'distance'
p5
aF211.79608154296875
aa(lp6
S'timestamp'
p7
aF5.253586053848267
aatp8
Rp9
.ccollections
OrderedDict
p0
((lp1
(lp2
S'state'
p3
aI0
aa(lp4
S'distance'
p5
aF211.79608154296875
aa(lp6
S'timestamp'
p7
aF5.253850936889648
aatp8
Rp9
.ccollections
OrderedDict
p0
((lp1
(lp2
S'state'
p3
aI0
aa(lp4
S'distance'
p5
aF211.79608154296875
aa(lp6
S'timestamp'
p7
aF5.253950834274292
aatp8
Rp9
.ccollections
OrderedDict
p0
((lp1
(lp2
S'state'
p3
aI0
aa(lp4
S'distance'
p5
aF211.79608154296875
aa(lp6
S'timestamp'
p7
aF5.263346910476685
aatp8
Rp9
.ccollections
OrderedDict
p0
((lp1
(lp2
S'state'
p3
aI0
aa(lp4
S'distance'
p5
aF211.79608154296875
aa(lp6
S'timestamp'
p7
aF5.263473033905029
aatp8
Rp9
.ccollections
OrderedDict
p0
((lp1
(lp2
S'state'
p3
aI0
aa(lp4
S'distance'
p5
aF211.79608154296875
aa(lp6
S'timestamp'
p7
aF5.272801876068115
aatp8
Rp9
.ccollections
OrderedDict
p0
((lp1
(lp2
S'state'
p3
aI0
aa(lp4
S'distance'
p5
aF211.79608154296875
aa(lp6
S'timestamp'
p7
aF5.273228883743286
aatp8
Rp9
.ccollections
OrderedDict
p0
((lp1
(lp2
S'state'
p3
aI0
aa(lp4
S'distance'
p5
aF211.79608154296875
aa(lp6
S'timestamp'
p7
aF5.283041954040527
aatp8
Rp9
.ccollections
OrderedDict
p0
((lp1
(lp2
S'state'
p3
aI0
aa(lp4
S'distance'
p5
aF211.79608154296875
aa(lp6
S'timestamp'
p7
aF5.283198833465576
aatp8
Rp9
.ccollections
OrderedDict
p0
((lp1
(lp2
S'state'
p3
aI0
aa(lp4
S'distance'
p5
aF211.79608154296875
aa(lp6
S'timestamp'
p7
aF5.293323993682861
aatp8
Rp9
.ccollections
OrderedDict
p0
((lp1
(lp2
S'state'
p3
aI0
aa(lp4
S'distance'
p5
aF211.79608154296875
aa(lp6
S'timestamp'
p7
aF5.293460845947266
aatp8
Rp9
.ccollections
OrderedDict
p0
((lp1
(lp2
S'state'
p3
aI0
aa(lp4
S'distance'
p5
aF211.79608154296875
aa(lp6
S'timestamp'
p7
aF5.3032989501953125
aatp8
Rp9
.ccollections
OrderedDict
p0
((lp1
(lp2
S'state'
p3
aI0
aa(lp4
S'distance'
p5
aF211.79608154296875
aa(lp6
S'timestamp'
p7
aF5.303557872772217
aatp8
Rp9
.ccollections
OrderedDict
p0
((lp1
(lp2
S'state'
p3
aI0
aa(lp4
S'distance'
p5
aF211.79608154296875
aa(lp6
S'timestamp'
p7
aF5.3129799365997314
aatp8
Rp9
.ccollections
OrderedDict
p0
((lp1
(lp2
S'state'
p3
aI0
aa(lp4
S'distance'
p5
aF211.79608154296875
aa(lp6
S'timestamp'
p7
aF5.3131749629974365
aatp8
Rp9
.ccollections
OrderedDict
p0
((lp1
(lp2
S'state'
p3
aI0
aa(lp4
S'distance'
p5
aF211.79608154296875
aa(lp6
S'timestamp'
p7
aF5.323230028152466
aatp8
Rp9
.ccollections
OrderedDict
p0
((lp1
(lp2
S'state'
p3
aI0
aa(lp4
S'distance'
p5
aF211.79608154296875
aa(lp6
S'timestamp'
p7
aF5.323423862457275
aatp8
Rp9
.ccollections
OrderedDict
p0
((lp1
(lp2
S'state'
p3
aI0
aa(lp4
S'distance'
p5
aF211.79608154296875
aa(lp6
S'timestamp'
p7
aF5.333137035369873
aatp8
Rp9
.ccollections
OrderedDict
p0
((lp1
(lp2
S'state'
p3
aI0
aa(lp4
S'distance'
p5
aF211.79608154296875
aa(lp6
S'timestamp'
p7
aF5.333225965499878
aatp8
Rp9
.ccollections
OrderedDict
p0
((lp1
(lp2
S'state'
p3
aI0
aa(lp4
S'distance'
p5
aF211.79608154296875
aa(lp6
S'timestamp'
p7
aF5.342957973480225
aatp8
Rp9
.ccollections
OrderedDict
p0
((lp1
(lp2
S'state'
p3
aI0
aa(lp4
S'distance'
p5
aF211.79608154296875
aa(lp6
S'timestamp'
p7
aF5.343061923980713
aatp8
Rp9
.ccollections
OrderedDict
p0
((lp1
(lp2
S'state'
p3
aI0
aa(lp4
S'distance'
p5
aF211.79608154296875
aa(lp6
S'timestamp'
p7
aF5.353363037109375
aatp8
Rp9
.ccollections
OrderedDict
p0
((lp1
(lp2
S'state'
p3
aI0
aa(lp4
S'distance'
p5
aF211.79608154296875
aa(lp6
S'timestamp'
p7
aF5.354732990264893
aatp8
Rp9
.ccollections
OrderedDict
p0
((lp1
(lp2
S'state'
p3
aI0
aa(lp4
S'distance'
p5
aF211.79608154296875
aa(lp6
S'timestamp'
p7
aF5.36320686340332
aatp8
Rp9
.ccollections
OrderedDict
p0
((lp1
(lp2
S'state'
p3
aI0
aa(lp4
S'distance'
p5
aF211.79608154296875
aa(lp6
S'timestamp'
p7
aF5.363293886184692
aatp8
Rp9
.ccollections
OrderedDict
p0
((lp1
(lp2
S'state'
p3
aI0
aa(lp4
S'distance'
p5
aF211.79608154296875
aa(lp6
S'timestamp'
p7
aF5.373286008834839
aatp8
Rp9
.ccollections
OrderedDict
p0
((lp1
(lp2
S'state'
p3
aI0
aa(lp4
S'distance'
p5
aF211.79608154296875
aa(lp6
S'timestamp'
p7
aF5.373361825942993
aatp8
Rp9
.ccollections
OrderedDict
p0
((lp1
(lp2
S'state'
p3
aI0
aa(lp4
S'distance'
p5
aF211.79608154296875
aa(lp6
S'timestamp'
p7
aF5.3832738399505615
aatp8
Rp9
.ccollections
OrderedDict
p0
((lp1
(lp2
S'state'
p3
aI0
aa(lp4
S'distance'
p5
aF211.79608154296875
aa(lp6
S'timestamp'
p7
aF5.3833489418029785
aatp8
Rp9
.ccollections
OrderedDict
p0
((lp1
(lp2
S'state'
p3
aI0
aa(lp4
S'distance'
p5
aF211.79608154296875
aa(lp6
S'timestamp'
p7
aF5.393009901046753
aatp8
Rp9
.ccollections
OrderedDict
p0
((lp1
(lp2
S'state'
p3
aI0
aa(lp4
S'distance'
p5
aF211.79608154296875
aa(lp6
S'timestamp'
p7
aF5.393115043640137
aatp8
Rp9
.ccollections
OrderedDict
p0
((lp1
(lp2
S'state'
p3
aI0
aa(lp4
S'distance'
p5
aF211.79608154296875
aa(lp6
S'timestamp'
p7
aF5.4131760597229
aatp8
Rp9
.ccollections
OrderedDict
p0
((lp1
(lp2
S'state'
p3
aI0
aa(lp4
S'distance'
p5
aF211.79608154296875
aa(lp6
S'timestamp'
p7
aF5.413837909698486
aatp8
Rp9
.ccollections
OrderedDict
p0
((lp1
(lp2
S'state'
p3
aI0
aa(lp4
S'distance'
p5
aF211.79608154296875
aa(lp6
S'timestamp'
p7
aF5.41496205329895
aatp8
Rp9
.ccollections
OrderedDict
p0
((lp1
(lp2
S'state'
p3
aI0
aa(lp4
S'distance'
p5
aF211.79608154296875
aa(lp6
S'timestamp'
p7
aF5.422579050064087
aatp8
Rp9
.ccollections
OrderedDict
p0
((lp1
(lp2
S'state'
p3
aI0
aa(lp4
S'distance'
p5
aF211.79608154296875
aa(lp6
S'timestamp'
p7
aF5.43260383605957
aatp8
Rp9
.ccollections
OrderedDict
p0
((lp1
(lp2
S'state'
p3
aI0
aa(lp4
S'distance'
p5
aF211.79608154296875
aa(lp6
S'timestamp'
p7
aF5.442582845687866
aatp8
Rp9
.ccollections
OrderedDict
p0
((lp1
(lp2
S'state'
p3
aI0
aa(lp4
S'distance'
p5
aF211.79608154296875
aa(lp6
S'timestamp'
p7
aF5.442744016647339
aatp8
Rp9
.ccollections
OrderedDict
p0
((lp1
(lp2
S'state'
p3
aI0
aa(lp4
S'distance'
p5
aF211.79608154296875
aa(lp6
S'timestamp'
p7
aF5.443274021148682
aatp8
Rp9
.ccollections
OrderedDict
p0
((lp1
(lp2
S'state'
p3
aI0
aa(lp4
S'distance'
p5
aF211.79608154296875
aa(lp6
S'timestamp'
p7
aF5.444561958312988
aatp8
Rp9
.ccollections
OrderedDict
p0
((lp1
(lp2
S'state'
p3
aI0
aa(lp4
S'distance'
p5
aF211.79608154296875
aa(lp6
S'timestamp'
p7
aF5.452646970748901
aatp8
Rp9
.ccollections
OrderedDict
p0
((lp1
(lp2
S'state'
p3
aI0
aa(lp4
S'distance'
p5
aF211.79608154296875
aa(lp6
S'timestamp'
p7
aF5.452781915664673
aatp8
Rp9
.ccollections
OrderedDict
p0
((lp1
(lp2
S'state'
p3
aI0
aa(lp4
S'distance'
p5
aF211.79608154296875
aa(lp6
S'timestamp'
p7
aF5.454185962677002
aatp8
Rp9
.ccollections
OrderedDict
p0
((lp1
(lp2
S'state'
p3
aI0
aa(lp4
S'distance'
p5
aF211.79608154296875
aa(lp6
S'timestamp'
p7
aF5.462764024734497
aatp8
Rp9
.ccollections
OrderedDict
p0
((lp1
(lp2
S'state'
p3
aI0
aa(lp4
S'distance'
p5
aF211.79608154296875
aa(lp6
S'timestamp'
p7
aF5.462847948074341
aatp8
Rp9
.ccollections
OrderedDict
p0
((lp1
(lp2
S'state'
p3
aI0
aa(lp4
S'distance'
p5
aF211.79608154296875
aa(lp6
S'timestamp'
p7
aF5.472671031951904
aatp8
Rp9
.ccollections
OrderedDict
p0
((lp1
(lp2
S'state'
p3
aI0
aa(lp4
S'distance'
p5
aF211.79608154296875
aa(lp6
S'timestamp'
p7
aF5.4732489585876465
aatp8
Rp9
.ccollections
OrderedDict
p0
((lp1
(lp2
S'state'
p3
aI0
aa(lp4
S'distance'
p5
aF211.79608154296875
aa(lp6
S'timestamp'
p7
aF5.482436895370483
aatp8
Rp9
.ccollections
OrderedDict
p0
((lp1
(lp2
S'state'
p3
aI0
aa(lp4
S'distance'
p5
aF211.79608154296875
aa(lp6
S'timestamp'
p7
aF5.482792854309082
aatp8
Rp9
.ccollections
OrderedDict
p0
((lp1
(lp2
S'state'
p3
aI0
aa(lp4
S'distance'
p5
aF211.79608154296875
aa(lp6
S'timestamp'
p7
aF5.492512941360474
aatp8
Rp9
.ccollections
OrderedDict
p0
((lp1
(lp2
S'state'
p3
aI0
aa(lp4
S'distance'
p5
aF211.79608154296875
aa(lp6
S'timestamp'
p7
aF5.502723932266235
aatp8
Rp9
.ccollections
OrderedDict
p0
((lp1
(lp2
S'state'
p3
aI0
aa(lp4
S'distance'
p5
aF211.79608154296875
aa(lp6
S'timestamp'
p7
aF5.50280499458313
aatp8
Rp9
.ccollections
OrderedDict
p0
((lp1
(lp2
S'state'
p3
aI0
aa(lp4
S'distance'
p5
aF211.79608154296875
aa(lp6
S'timestamp'
p7
aF5.50365686416626
aatp8
Rp9
.ccollections
OrderedDict
p0
((lp1
(lp2
S'state'
p3
aI0
aa(lp4
S'distance'
p5
aF211.79608154296875
aa(lp6
S'timestamp'
p7
aF5.512573003768921
aatp8
Rp9
.ccollections
OrderedDict
p0
((lp1
(lp2
S'state'
p3
aI0
aa(lp4
S'distance'
p5
aF211.79608154296875
aa(lp6
S'timestamp'
p7
aF5.513239860534668
aatp8
Rp9
.ccollections
OrderedDict
p0
((lp1
(lp2
S'state'
p3
aI0
aa(lp4
S'distance'
p5
aF211.79608154296875
aa(lp6
S'timestamp'
p7
aF5.522737979888916
aatp8
Rp9
.ccollections
OrderedDict
p0
((lp1
(lp2
S'state'
p3
aI0
aa(lp4
S'distance'
p5
aF211.79608154296875
aa(lp6
S'timestamp'
p7
aF5.522930860519409
aatp8
Rp9
.ccollections
OrderedDict
p0
((lp1
(lp2
S'state'
p3
aI0
aa(lp4
S'distance'
p5
aF211.79608154296875
aa(lp6
S'timestamp'
p7
aF5.532549858093262
aatp8
Rp9
.ccollections
OrderedDict
p0
((lp1
(lp2
S'state'
p3
aI0
aa(lp4
S'distance'
p5
aF211.79608154296875
aa(lp6
S'timestamp'
p7
aF5.532845973968506
aatp8
Rp9
.ccollections
OrderedDict
p0
((lp1
(lp2
S'state'
p3
aI0
aa(lp4
S'distance'
p5
aF211.79608154296875
aa(lp6
S'timestamp'
p7
aF5.542367935180664
aatp8
Rp9
.ccollections
OrderedDict
p0
((lp1
(lp2
S'state'
p3
aI400
aa(lp4
S'distance'
p5
aF211.79608154296875
aa(lp6
S'timestamp'
p7
aF5.543118953704834
aatp8
Rp9
.ccollections
OrderedDict
p0
((lp1
(lp2
S'state'
p3
aI400
aa(lp4
S'distance'
p5
aF211.79608154296875
aa(lp6
S'timestamp'
p7
aF5.552580833435059
aatp8
Rp9
.ccollections
OrderedDict
p0
((lp1
(lp2
S'state'
p3
aI400
aa(lp4
S'distance'
p5
aF211.79608154296875
aa(lp6
S'timestamp'
p7
aF5.5530359745025635
aatp8
Rp9
.ccollections
OrderedDict
p0
((lp1
(lp2
S'state'
p3
aI400
aa(lp4
S'distance'
p5
aF211.79608154296875
aa(lp6
S'timestamp'
p7
aF5.573328018188477
aatp8
Rp9
.ccollections
OrderedDict
p0
((lp1
(lp2
S'state'
p3
aI400
aa(lp4
S'distance'
p5
aF211.79608154296875
aa(lp6
S'timestamp'
p7
aF5.573509931564331
aatp8
Rp9
.ccollections
OrderedDict
p0
((lp1
(lp2
S'state'
p3
aI400
aa(lp4
S'distance'
p5
aF211.79608154296875
aa(lp6
S'timestamp'
p7
aF5.574476957321167
aatp8
Rp9
.ccollections
OrderedDict
p0
((lp1
(lp2
S'state'
p3
aI400
aa(lp4
S'distance'
p5
aF211.79608154296875
aa(lp6
S'timestamp'
p7
aF5.576549053192139
aatp8
Rp9
.ccollections
OrderedDict
p0
((lp1
(lp2
S'state'
p3
aI400
aa(lp4
S'distance'
p5
aF211.79608154296875
aa(lp6
S'timestamp'
p7
aF5.583410978317261
aatp8
Rp9
.ccollections
OrderedDict
p0
((lp1
(lp2
S'state'
p3
aI400
aa(lp4
S'distance'
p5
aF211.79608154296875
aa(lp6
S'timestamp'
p7
aF5.583622932434082
aatp8
Rp9
.ccollections
OrderedDict
p0
((lp1
(lp2
S'state'
p3
aI400
aa(lp4
S'distance'
p5
aF211.79608154296875
aa(lp6
S'timestamp'
p7
aF5.59329891204834
aatp8
Rp9
.ccollections
OrderedDict
p0
((lp1
(lp2
S'state'
p3
aI400
aa(lp4
S'distance'
p5
aF211.79608154296875
aa(lp6
S'timestamp'
p7
aF5.593447923660278
aatp8
Rp9
.ccollections
OrderedDict
p0
((lp1
(lp2
S'state'
p3
aI400
aa(lp4
S'distance'
p5
aF211.79608154296875
aa(lp6
S'timestamp'
p7
aF5.603005886077881
aatp8
Rp9
.ccollections
OrderedDict
p0
((lp1
(lp2
S'state'
p3
aI400
aa(lp4
S'distance'
p5
aF211.79608154296875
aa(lp6
S'timestamp'
p7
aF5.603211879730225
aatp8
Rp9
.ccollections
OrderedDict
p0
((lp1
(lp2
S'state'
p3
aI400
aa(lp4
S'distance'
p5
aF211.79608154296875
aa(lp6
S'timestamp'
p7
aF5.61262583732605
aatp8
Rp9
.ccollections
OrderedDict
p0
((lp1
(lp2
S'state'
p3
aI400
aa(lp4
S'distance'
p5
aF211.79608154296875
aa(lp6
S'timestamp'
p7
aF5.6129889488220215
aatp8
Rp9
.ccollections
OrderedDict
p0
((lp1
(lp2
S'state'
p3
aI400
aa(lp4
S'distance'
p5
aF211.79608154296875
aa(lp6
S'timestamp'
p7
aF5.622565031051636
aatp8
Rp9
.ccollections
OrderedDict
p0
((lp1
(lp2
S'state'
p3
aI400
aa(lp4
S'distance'
p5
aF211.79608154296875
aa(lp6
S'timestamp'
p7
aF5.622987985610962
aatp8
Rp9
.ccollections
OrderedDict
p0
((lp1
(lp2
S'state'
p3
aI400
aa(lp4
S'distance'
p5
aF211.79608154296875
aa(lp6
S'timestamp'
p7
aF5.632401943206787
aatp8
Rp9
.ccollections
OrderedDict
p0
((lp1
(lp2
S'state'
p3
aI400
aa(lp4
S'distance'
p5
aF211.79608154296875
aa(lp6
S'timestamp'
p7
aF5.633050918579102
aatp8
Rp9
.ccollections
OrderedDict
p0
((lp1
(lp2
S'state'
p3
aI400
aa(lp4
S'distance'
p5
aF211.79608154296875
aa(lp6
S'timestamp'
p7
aF5.642514944076538
aatp8
Rp9
.ccollections
OrderedDict
p0
((lp1
(lp2
S'state'
p3
aI400
aa(lp4
S'distance'
p5
aF211.79608154296875
aa(lp6
S'timestamp'
p7
aF5.642881870269775
aatp8
Rp9
.ccollections
OrderedDict
p0
((lp1
(lp2
S'state'
p3
aI400
aa(lp4
S'distance'
p5
aF211.79608154296875
aa(lp6
S'timestamp'
p7
aF5.652480840682983
aatp8
Rp9
.ccollections
OrderedDict
p0
((lp1
(lp2
S'state'
p3
aI400
aa(lp4
S'distance'
p5
aF211.79608154296875
aa(lp6
S'timestamp'
p7
aF5.65471887588501
aatp8
Rp9
.ccollections
OrderedDict
p0
((lp1
(lp2
S'state'
p3
aI400
aa(lp4
S'distance'
p5
aF211.79608154296875
aa(lp6
S'timestamp'
p7
aF5.6625988483428955
aatp8
Rp9
.ccollections
OrderedDict
p0
((lp1
(lp2
S'state'
p3
aI400
aa(lp4
S'distance'
p5
aF211.79608154296875
aa(lp6
S'timestamp'
p7
aF5.663110017776489
aatp8
Rp9
.ccollections
OrderedDict
p0
((lp1
(lp2
S'state'
p3
aI400
aa(lp4
S'distance'
p5
aF211.79608154296875
aa(lp6
S'timestamp'
p7
aF5.672698974609375
aatp8
Rp9
.ccollections
OrderedDict
p0
((lp1
(lp2
S'state'
p3
aI400
aa(lp4
S'distance'
p5
aF211.79608154296875
aa(lp6
S'timestamp'
p7
aF5.67349100112915
aatp8
Rp9
.ccollections
OrderedDict
p0
((lp1
(lp2
S'state'
p3
aI400
aa(lp4
S'distance'
p5
aF211.79608154296875
aa(lp6
S'timestamp'
p7
aF5.682580947875977
aatp8
Rp9
.ccollections
OrderedDict
p0
((lp1
(lp2
S'state'
p3
aI400
aa(lp4
S'distance'
p5
aF211.79608154296875
aa(lp6
S'timestamp'
p7
aF5.683106899261475
aatp8
Rp9
.ccollections
OrderedDict
p0
((lp1
(lp2
S'state'
p3
aI400
aa(lp4
S'distance'
p5
aF211.79608154296875
aa(lp6
S'timestamp'
p7
aF5.692541837692261
aatp8
Rp9
.ccollections
OrderedDict
p0
((lp1
(lp2
S'state'
p3
aI400
aa(lp4
S'distance'
p5
aF211.79608154296875
aa(lp6
S'timestamp'
p7
aF5.6930530071258545
aatp8
Rp9
.ccollections
OrderedDict
p0
((lp1
(lp2
S'state'
p3
aI400
aa(lp4
S'distance'
p5
aF211.79608154296875
aa(lp6
S'timestamp'
p7
aF5.702553987503052
aatp8
Rp9
.ccollections
OrderedDict
p0
((lp1
(lp2
S'state'
p3
aI400
aa(lp4
S'distance'
p5
aF211.79608154296875
aa(lp6
S'timestamp'
p7
aF5.7030558586120605
aatp8
Rp9
.ccollections
OrderedDict
p0
((lp1
(lp2
S'state'
p3
aI400
aa(lp4
S'distance'
p5
aF211.79608154296875
aa(lp6
S'timestamp'
p7
aF5.722245931625366
aatp8
Rp9
.ccollections
OrderedDict
p0
((lp1
(lp2
S'state'
p3
aI400
aa(lp4
S'distance'
p5
aF211.79608154296875
aa(lp6
S'timestamp'
p7
aF5.7229390144348145
aatp8
Rp9
.ccollections
OrderedDict
p0
((lp1
(lp2
S'state'
p3
aI400
aa(lp4
S'distance'
p5
aF211.79608154296875
aa(lp6
S'timestamp'
p7
aF5.723090887069702
aatp8
Rp9
.ccollections
OrderedDict
p0
((lp1
(lp2
S'state'
p3
aI400
aa(lp4
S'distance'
p5
aF211.79608154296875
aa(lp6
S'timestamp'
p7
aF5.7241480350494385
aatp8
Rp9
.ccollections
OrderedDict
p0
((lp1
(lp2
S'state'
p3
aI400
aa(lp4
S'distance'
p5
aF211.79608154296875
aa(lp6
S'timestamp'
p7
aF5.732565879821777
aatp8
Rp9
.ccollections
OrderedDict
p0
((lp1
(lp2
S'state'
p3
aI400
aa(lp4
S'distance'
p5
aF211.79608154296875
aa(lp6
S'timestamp'
p7
aF5.733074903488159
aatp8
Rp9
.ccollections
OrderedDict
p0
((lp1
(lp2
S'state'
p3
aI400
aa(lp4
S'distance'
p5
aF211.79608154296875
aa(lp6
S'timestamp'
p7
aF5.742866039276123
aatp8
Rp9
.ccollections
OrderedDict
p0
((lp1
(lp2
S'state'
p3
aI400
aa(lp4
S'distance'
p5
aF211.79608154296875
aa(lp6
S'timestamp'
p7
aF5.743566036224365
aatp8
Rp9
.ccollections
OrderedDict
p0
((lp1
(lp2
S'state'
p3
aI400
aa(lp4
S'distance'
p5
aF211.79608154296875
aa(lp6
S'timestamp'
p7
aF5.753396034240723
aatp8
Rp9
.ccollections
OrderedDict
p0
((lp1
(lp2
S'state'
p3
aI400
aa(lp4
S'distance'
p5
aF211.79608154296875
aa(lp6
S'timestamp'
p7
aF5.754569053649902
aatp8
Rp9
.ccollections
OrderedDict
p0
((lp1
(lp2
S'state'
p3
aI400
aa(lp4
S'distance'
p5
aF211.79608154296875
aa(lp6
S'timestamp'
p7
aF5.772680997848511
aatp8
Rp9
.ccollections
OrderedDict
p0
((lp1
(lp2
S'state'
p3
aI400
aa(lp4
S'distance'
p5
aF211.79608154296875
aa(lp6
S'timestamp'
p7
aF5.78382682800293
aatp8
Rp9
.ccollections
OrderedDict
p0
((lp1
(lp2
S'state'
p3
aI400
aa(lp4
S'distance'
p5
aF211.79608154296875
aa(lp6
S'timestamp'
p7
aF5.783934831619263
aatp8
Rp9
.ccollections
OrderedDict
p0
((lp1
(lp2
S'state'
p3
aI400
aa(lp4
S'distance'
p5
aF211.79608154296875
aa(lp6
S'timestamp'
p7
aF5.784654855728149
aatp8
Rp9
.ccollections
OrderedDict
p0
((lp1
(lp2
S'state'
p3
aI400
aa(lp4
S'distance'
p5
aF211.79608154296875
aa(lp6
S'timestamp'
p7
aF5.785429954528809
aatp8
Rp9
.ccollections
OrderedDict
p0
((lp1
(lp2
S'state'
p3
aI400
aa(lp4
S'distance'
p5
aF211.79608154296875
aa(lp6
S'timestamp'
p7
aF5.8028669357299805
aatp8
Rp9
.ccollections
OrderedDict
p0
((lp1
(lp2
S'state'
p3
aI400
aa(lp4
S'distance'
p5
aF211.79608154296875
aa(lp6
S'timestamp'
p7
aF5.803118944168091
aatp8
Rp9
.ccollections
OrderedDict
p0
((lp1
(lp2
S'state'
p3
aI400
aa(lp4
S'distance'
p5
aF211.79608154296875
aa(lp6
S'timestamp'
p7
aF5.803254842758179
aatp8
Rp9
.ccollections
OrderedDict
p0
((lp1
(lp2
S'state'
p3
aI400
aa(lp4
S'distance'
p5
aF211.79608154296875
aa(lp6
S'timestamp'
p7
aF5.81306791305542
aatp8
Rp9
.ccollections
OrderedDict
p0
((lp1
(lp2
S'state'
p3
aI400
aa(lp4
S'distance'
p5
aF211.79608154296875
aa(lp6
S'timestamp'
p7
aF5.813541889190674
aatp8
Rp9
.ccollections
OrderedDict
p0
((lp1
(lp2
S'state'
p3
aI400
aa(lp4
S'distance'
p5
aF211.79608154296875
aa(lp6
S'timestamp'
p7
aF5.815211057662964
aatp8
Rp9
.ccollections
OrderedDict
p0
((lp1
(lp2
S'state'
p3
aI400
aa(lp4
S'distance'
p5
aF211.79608154296875
aa(lp6
S'timestamp'
p7
aF5.815294981002808
aatp8
Rp9
.ccollections
OrderedDict
p0
((lp1
(lp2
S'state'
p3
aI400
aa(lp4
S'distance'
p5
aF211.79608154296875
aa(lp6
S'timestamp'
p7
aF5.822885990142822
aatp8
Rp9
.ccollections
OrderedDict
p0
((lp1
(lp2
S'state'
p3
aI400
aa(lp4
S'distance'
p5
aF211.79608154296875
aa(lp6
S'timestamp'
p7
aF5.823408842086792
aatp8
Rp9
.ccollections
OrderedDict
p0
((lp1
(lp2
S'state'
p3
aI400
aa(lp4
S'distance'
p5
aF211.79608154296875
aa(lp6
S'timestamp'
p7
aF5.832942008972168
aatp8
Rp9
.ccollections
OrderedDict
p0
((lp1
(lp2
S'state'
p3
aI400
aa(lp4
S'distance'
p5
aF211.79608154296875
aa(lp6
S'timestamp'
p7
aF5.83315896987915
aatp8
Rp9
.ccollections
OrderedDict
p0
((lp1
(lp2
S'state'
p3
aI400
aa(lp4
S'distance'
p5
aF211.79608154296875
aa(lp6
S'timestamp'
p7
aF5.8430869579315186
aatp8
Rp9
.ccollections
OrderedDict
p0
((lp1
(lp2
S'state'
p3
aI400
aa(lp4
S'distance'
p5
aF211.79608154296875
aa(lp6
S'timestamp'
p7
aF5.843490839004517
aatp8
Rp9
.ccollections
OrderedDict
p0
((lp1
(lp2
S'state'
p3
aI400
aa(lp4
S'distance'
p5
aF211.79608154296875
aa(lp6
S'timestamp'
p7
aF5.853405952453613
aatp8
Rp9
.ccollections
OrderedDict
p0
((lp1
(lp2
S'state'
p3
aI400
aa(lp4
S'distance'
p5
aF211.79608154296875
aa(lp6
S'timestamp'
p7
aF5.853521823883057
aatp8
Rp9
.ccollections
OrderedDict
p0
((lp1
(lp2
S'state'
p3
aI400
aa(lp4
S'distance'
p5
aF211.79608154296875
aa(lp6
S'timestamp'
p7
aF5.874173879623413
aatp8
Rp9
.ccollections
OrderedDict
p0
((lp1
(lp2
S'state'
p3
aI400
aa(lp4
S'distance'
p5
aF211.79608154296875
aa(lp6
S'timestamp'
p7
aF5.8743438720703125
aatp8
Rp9
.ccollections
OrderedDict
p0
((lp1
(lp2
S'state'
p3
aI400
aa(lp4
S'distance'
p5
aF211.79608154296875
aa(lp6
S'timestamp'
p7
aF5.874764919281006
aatp8
Rp9
.ccollections
OrderedDict
p0
((lp1
(lp2
S'state'
p3
aI400
aa(lp4
S'distance'
p5
aF211.79608154296875
aa(lp6
S'timestamp'
p7
aF5.875139951705933
aatp8
Rp9
.ccollections
OrderedDict
p0
((lp1
(lp2
S'state'
p3
aI400
aa(lp4
S'distance'
p5
aF211.79608154296875
aa(lp6
S'timestamp'
p7
aF5.88293194770813
aatp8
Rp9
.ccollections
OrderedDict
p0
((lp1
(lp2
S'state'
p3
aI400
aa(lp4
S'distance'
p5
aF211.79608154296875
aa(lp6
S'timestamp'
p7
aF5.883092880249023
aatp8
Rp9
.ccollections
OrderedDict
p0
((lp1
(lp2
S'state'
p3
aI400
aa(lp4
S'distance'
p5
aF211.79608154296875
aa(lp6
S'timestamp'
p7
aF5.903367042541504
aatp8
Rp9
.ccollections
OrderedDict
p0
((lp1
(lp2
S'state'
p3
aI400
aa(lp4
S'distance'
p5
aF211.79608154296875
aa(lp6
S'timestamp'
p7
aF5.903491973876953
aatp8
Rp9
.ccollections
OrderedDict
p0
((lp1
(lp2
S'state'
p3
aI400
aa(lp4
S'distance'
p5
aF211.79608154296875
aa(lp6
S'timestamp'
p7
aF5.903976917266846
aatp8
Rp9
.ccollections
OrderedDict
p0
((lp1
(lp2
S'state'
p3
aI400
aa(lp4
S'distance'
p5
aF211.79608154296875
aa(lp6
S'timestamp'
p7
aF5.904603958129883
aatp8
Rp9
.ccollections
OrderedDict
p0
((lp1
(lp2
S'state'
p3
aI400
aa(lp4
S'distance'
p5
aF211.79608154296875
aa(lp6
S'timestamp'
p7
aF5.914294004440308
aatp8
Rp9
.ccollections
OrderedDict
p0
((lp1
(lp2
S'state'
p3
aI400
aa(lp4
S'distance'
p5
aF211.79608154296875
aa(lp6
S'timestamp'
p7
aF5.91440486907959
aatp8
Rp9
.ccollections
OrderedDict
p0
((lp1
(lp2
S'state'
p3
aI400
aa(lp4
S'distance'
p5
aF211.79608154296875
aa(lp6
S'timestamp'
p7
aF5.923141956329346
aatp8
Rp9
.ccollections
OrderedDict
p0
((lp1
(lp2
S'state'
p3
aI400
aa(lp4
S'distance'
p5
aF211.79608154296875
aa(lp6
S'timestamp'
p7
aF5.923230886459351
aatp8
Rp9
.ccollections
OrderedDict
p0
((lp1
(lp2
S'state'
p3
aI400
aa(lp4
S'distance'
p5
aF211.79608154296875
aa(lp6
S'timestamp'
p7
aF5.932652950286865
aatp8
Rp9
.ccollections
OrderedDict
p0
((lp1
(lp2
S'state'
p3
aI400
aa(lp4
S'distance'
p5
aF211.79608154296875
aa(lp6
S'timestamp'
p7
aF5.933254957199097
aatp8
Rp9
.ccollections
OrderedDict
p0
((lp1
(lp2
S'state'
p3
aI400
aa(lp4
S'distance'
p5
aF211.79608154296875
aa(lp6
S'timestamp'
p7
aF5.943007946014404
aatp8
Rp9
.ccollections
OrderedDict
p0
((lp1
(lp2
S'state'
p3
aI400
aa(lp4
S'distance'
p5
aF211.79608154296875
aa(lp6
S'timestamp'
p7
aF5.9432690143585205
aatp8
Rp9
.ccollections
OrderedDict
p0
((lp1
(lp2
S'state'
p3
aI400
aa(lp4
S'distance'
p5
aF211.79608154296875
aa(lp6
S'timestamp'
p7
aF5.952975034713745
aatp8
Rp9
.ccollections
OrderedDict
p0
((lp1
(lp2
S'state'
p3
aI400
aa(lp4
S'distance'
p5
aF211.79608154296875
aa(lp6
S'timestamp'
p7
aF5.953228950500488
aatp8
Rp9
.ccollections
OrderedDict
p0
((lp1
(lp2
S'state'
p3
aI400
aa(lp4
S'distance'
p5
aF211.79608154296875
aa(lp6
S'timestamp'
p7
aF5.962486982345581
aatp8
Rp9
.ccollections
OrderedDict
p0
((lp1
(lp2
S'state'
p3
aI400
aa(lp4
S'distance'
p5
aF211.79608154296875
aa(lp6
S'timestamp'
p7
aF5.96331787109375
aatp8
Rp9
.ccollections
OrderedDict
p0
((lp1
(lp2
S'state'
p3
aI400
aa(lp4
S'distance'
p5
aF211.79608154296875
aa(lp6
S'timestamp'
p7
aF5.97258186340332
aatp8
Rp9
.ccollections
OrderedDict
p0
((lp1
(lp2
S'state'
p3
aI400
aa(lp4
S'distance'
p5
aF211.79608154296875
aa(lp6
S'timestamp'
p7
aF5.973207950592041
aatp8
Rp9
.ccollections
OrderedDict
p0
((lp1
(lp2
S'state'
p3
aI400
aa(lp4
S'distance'
p5
aF211.79608154296875
aa(lp6
S'timestamp'
p7
aF5.983134031295776
aatp8
Rp9
.ccollections
OrderedDict
p0
((lp1
(lp2
S'state'
p3
aI400
aa(lp4
S'distance'
p5
aF211.79608154296875
aa(lp6
S'timestamp'
p7
aF5.983212947845459
aatp8
Rp9
.ccollections
OrderedDict
p0
((lp1
(lp2
S'state'
p3
aI400
aa(lp4
S'distance'
p5
aF211.79608154296875
aa(lp6
S'timestamp'
p7
aF5.993024826049805
aatp8
Rp9
.ccollections
OrderedDict
p0
((lp1
(lp2
S'state'
p3
aI400
aa(lp4
S'distance'
p5
aF211.79608154296875
aa(lp6
S'timestamp'
p7
aF5.993136882781982
aatp8
Rp9
.ccollections
OrderedDict
p0
((lp1
(lp2
S'state'
p3
aI400
aa(lp4
S'distance'
p5
aF211.79608154296875
aa(lp6
S'timestamp'
p7
aF6.002564907073975
aatp8
Rp9
.ccollections
OrderedDict
p0
((lp1
(lp2
S'state'
p3
aI400
aa(lp4
S'distance'
p5
aF211.79608154296875
aa(lp6
S'timestamp'
p7
aF6.003113031387329
aatp8
Rp9
.ccollections
OrderedDict
p0
((lp1
(lp2
S'state'
p3
aI400
aa(lp4
S'distance'
p5
aF211.79608154296875
aa(lp6
S'timestamp'
p7
aF6.01374888420105
aatp8
Rp9
.ccollections
OrderedDict
p0
((lp1
(lp2
S'state'
p3
aI400
aa(lp4
S'distance'
p5
aF211.79608154296875
aa(lp6
S'timestamp'
p7
aF6.0138819217681885
aatp8
Rp9
.ccollections
OrderedDict
p0
((lp1
(lp2
S'state'
p3
aI400
aa(lp4
S'distance'
p5
aF211.79608154296875
aa(lp6
S'timestamp'
p7
aF6.0231099128723145
aatp8
Rp9
.ccollections
OrderedDict
p0
((lp1
(lp2
S'state'
p3
aI400
aa(lp4
S'distance'
p5
aF211.79608154296875
aa(lp6
S'timestamp'
p7
aF6.023653984069824
aatp8
Rp9
.ccollections
OrderedDict
p0
((lp1
(lp2
S'state'
p3
aI400
aa(lp4
S'distance'
p5
aF211.79608154296875
aa(lp6
S'timestamp'
p7
aF6.033232927322388
aatp8
Rp9
.ccollections
OrderedDict
p0
((lp1
(lp2
S'state'
p3
aI400
aa(lp4
S'distance'
p5
aF211.79608154296875
aa(lp6
S'timestamp'
p7
aF6.034109830856323
aatp8
Rp9
.ccollections
OrderedDict
p0
((lp1
(lp2
S'state'
p3
aI400
aa(lp4
S'distance'
p5
aF211.79608154296875
aa(lp6
S'timestamp'
p7
aF6.042917013168335
aatp8
Rp9
.ccollections
OrderedDict
p0
((lp1
(lp2
S'state'
p3
aI400
aa(lp4
S'distance'
p5
aF211.79608154296875
aa(lp6
S'timestamp'
p7
aF6.043789863586426
aatp8
Rp9
.ccollections
OrderedDict
p0
((lp1
(lp2
S'state'
p3
aI400
aa(lp4
S'distance'
p5
aF211.79608154296875
aa(lp6
S'timestamp'
p7
aF6.052470922470093
aatp8
Rp9
.ccollections
OrderedDict
p0
((lp1
(lp2
S'state'
p3
aI400
aa(lp4
S'distance'
p5
aF211.79608154296875
aa(lp6
S'timestamp'
p7
aF6.052885055541992
aatp8
Rp9
.ccollections
OrderedDict
p0
((lp1
(lp2
S'state'
p3
aI400
aa(lp4
S'distance'
p5
aF211.79608154296875
aa(lp6
S'timestamp'
p7
aF6.0627429485321045
aatp8
Rp9
.ccollections
OrderedDict
p0
((lp1
(lp2
S'state'
p3
aI400
aa(lp4
S'distance'
p5
aF211.79608154296875
aa(lp6
S'timestamp'
p7
aF6.063223838806152
aatp8
Rp9
.ccollections
OrderedDict
p0
((lp1
(lp2
S'state'
p3
aI400
aa(lp4
S'distance'
p5
aF211.79608154296875
aa(lp6
S'timestamp'
p7
aF6.072506904602051
aatp8
Rp9
.ccollections
OrderedDict
p0
((lp1
(lp2
S'state'
p3
aI400
aa(lp4
S'distance'
p5
aF211.79608154296875
aa(lp6
S'timestamp'
p7
aF6.07335090637207
aatp8
Rp9
.ccollections
OrderedDict
p0
((lp1
(lp2
S'state'
p3
aI400
aa(lp4
S'distance'
p5
aF211.79608154296875
aa(lp6
S'timestamp'
p7
aF6.092473983764648
aatp8
Rp9
.ccollections
OrderedDict
p0
((lp1
(lp2
S'state'
p3
aI400
aa(lp4
S'distance'
p5
aF211.79608154296875
aa(lp6
S'timestamp'
p7
aF6.09313702583313
aatp8
Rp9
.ccollections
OrderedDict
p0
((lp1
(lp2
S'state'
p3
aI400
aa(lp4
S'distance'
p5
aF211.79608154296875
aa(lp6
S'timestamp'
p7
aF6.093564987182617
aatp8
Rp9
.ccollections
OrderedDict
p0
((lp1
(lp2
S'state'
p3
aI400
aa(lp4
S'distance'
p5
aF211.79608154296875
aa(lp6
S'timestamp'
p7
aF6.094070911407471
aatp8
Rp9
.ccollections
OrderedDict
p0
((lp1
(lp2
S'state'
p3
aI400
aa(lp4
S'distance'
p5
aF211.79608154296875
aa(lp6
S'timestamp'
p7
aF6.102593898773193
aatp8
Rp9
.ccollections
OrderedDict
p0
((lp1
(lp2
S'state'
p3
aI400
aa(lp4
S'distance'
p5
aF211.79608154296875
aa(lp6
S'timestamp'
p7
aF6.103230953216553
aatp8
Rp9
.ccollections
OrderedDict
p0
((lp1
(lp2
S'state'
p3
aI400
aa(lp4
S'distance'
p5
aF211.79608154296875
aa(lp6
S'timestamp'
p7
aF6.113463878631592
aatp8
Rp9
.ccollections
OrderedDict
p0
((lp1
(lp2
S'state'
p3
aI400
aa(lp4
S'distance'
p5
aF211.79608154296875
aa(lp6
S'timestamp'
p7
aF6.1136908531188965
aatp8
Rp9
.ccollections
OrderedDict
p0
((lp1
(lp2
S'state'
p3
aI400
aa(lp4
S'distance'
p5
aF211.79608154296875
aa(lp6
S'timestamp'
p7
aF6.1241679191589355
aatp8
Rp9
.ccollections
OrderedDict
p0
((lp1
(lp2
S'state'
p3
aI400
aa(lp4
S'distance'
p5
aF211.79608154296875
aa(lp6
S'timestamp'
p7
aF6.124277830123901
aatp8
Rp9
.ccollections
OrderedDict
p0
((lp1
(lp2
S'state'
p3
aI400
aa(lp4
S'distance'
p5
aF211.79608154296875
aa(lp6
S'timestamp'
p7
aF6.132798910140991
aatp8
Rp9
.ccollections
OrderedDict
p0
((lp1
(lp2
S'state'
p3
aI400
aa(lp4
S'distance'
p5
aF211.79608154296875
aa(lp6
S'timestamp'
p7
aF6.13309383392334
aatp8
Rp9
.ccollections
OrderedDict
p0
((lp1
(lp2
S'state'
p3
aI400
aa(lp4
S'distance'
p5
aF211.79608154296875
aa(lp6
S'timestamp'
p7
aF6.142791032791138
aatp8
Rp9
.ccollections
OrderedDict
p0
((lp1
(lp2
S'state'
p3
aI400
aa(lp4
S'distance'
p5
aF211.79608154296875
aa(lp6
S'timestamp'
p7
aF6.143388986587524
aatp8
Rp9
.ccollections
OrderedDict
p0
((lp1
(lp2
S'state'
p3
aI400
aa(lp4
S'distance'
p5
aF211.79608154296875
aa(lp6
S'timestamp'
p7
aF6.152547836303711
aatp8
Rp9
.ccollections
OrderedDict
p0
((lp1
(lp2
S'state'
p3
aI400
aa(lp4
S'distance'
p5
aF211.79608154296875
aa(lp6
S'timestamp'
p7
aF6.153487920761108
aatp8
Rp9
.ccollections
OrderedDict
p0
((lp1
(lp2
S'state'
p3
aI400
aa(lp4
S'distance'
p5
aF211.79608154296875
aa(lp6
S'timestamp'
p7
aF6.162745952606201
aatp8
Rp9
.ccollections
OrderedDict
p0
((lp1
(lp2
S'state'
p3
aI400
aa(lp4
S'distance'
p5
aF211.79608154296875
aa(lp6
S'timestamp'
p7
aF6.163403034210205
aatp8
Rp9
.ccollections
OrderedDict
p0
((lp1
(lp2
S'state'
p3
aI400
aa(lp4
S'distance'
p5
aF211.79608154296875
aa(lp6
S'timestamp'
p7
aF6.17234992980957
aatp8
Rp9
.ccollections
OrderedDict
p0
((lp1
(lp2
S'state'
p3
aI400
aa(lp4
S'distance'
p5
aF211.79608154296875
aa(lp6
S'timestamp'
p7
aF6.1728808879852295
aatp8
Rp9
.ccollections
OrderedDict
p0
((lp1
(lp2
S'state'
p3
aI400
aa(lp4
S'distance'
p5
aF211.79608154296875
aa(lp6
S'timestamp'
p7
aF6.182652950286865
aatp8
Rp9
.ccollections
OrderedDict
p0
((lp1
(lp2
S'state'
p3
aI400
aa(lp4
S'distance'
p5
aF211.79608154296875
aa(lp6
S'timestamp'
p7
aF6.183213949203491
aatp8
Rp9
.ccollections
OrderedDict
p0
((lp1
(lp2
S'state'
p3
aI0
aa(lp4
S'distance'
p5
aF211.79608154296875
aa(lp6
S'timestamp'
p7
aF6.19409704208374
aatp8
Rp9
.ccollections
OrderedDict
p0
((lp1
(lp2
S'state'
p3
aI0
aa(lp4
S'distance'
p5
aF119.18426895141602
aa(lp6
S'timestamp'
p7
aF6.763547897338867
aatp8
Rp9
.ccollections
OrderedDict
p0
((lp1
(lp2
S'state'
p3
aI0
aa(lp4
S'distance'
p5
aF119.18426895141602
aa(lp6
S'timestamp'
p7
aF6.7745208740234375
aatp8
Rp9
.ccollections
OrderedDict
p0
((lp1
(lp2
S'state'
p3
aI0
aa(lp4
S'distance'
p5
aF119.18426895141602
aa(lp6
S'timestamp'
p7
aF6.774665832519531
aatp8
Rp9
.ccollections
OrderedDict
p0
((lp1
(lp2
S'state'
p3
aI0
aa(lp4
S'distance'
p5
aF119.18426895141602
aa(lp6
S'timestamp'
p7
aF6.782754898071289
aatp8
Rp9
.ccollections
OrderedDict
p0
((lp1
(lp2
S'state'
p3
aI0
aa(lp4
S'distance'
p5
aF119.18426895141602
aa(lp6
S'timestamp'
p7
aF6.783320903778076
aatp8
Rp9
.ccollections
OrderedDict
p0
((lp1
(lp2
S'state'
p3
aI0
aa(lp4
S'distance'
p5
aF119.18426895141602
aa(lp6
S'timestamp'
p7
aF6.795122861862183
aatp8
Rp9
.ccollections
OrderedDict
p0
((lp1
(lp2
S'state'
p3
aI0
aa(lp4
S'distance'
p5
aF119.18426895141602
aa(lp6
S'timestamp'
p7
aF6.795979976654053
aatp8
Rp9
.ccollections
OrderedDict
p0
((lp1
(lp2
S'state'
p3
aI0
aa(lp4
S'distance'
p5
aF119.18426895141602
aa(lp6
S'timestamp'
p7
aF6.802671909332275
aatp8
Rp9
.ccollections
OrderedDict
p0
((lp1
(lp2
S'state'
p3
aI0
aa(lp4
S'distance'
p5
aF119.18426895141602
aa(lp6
S'timestamp'
p7
aF6.803310871124268
aatp8
Rp9
.ccollections
OrderedDict
p0
((lp1
(lp2
S'state'
p3
aI0
aa(lp4
S'distance'
p5
aF119.18426895141602
aa(lp6
S'timestamp'
p7
aF6.812669992446899
aatp8
Rp9
.ccollections
OrderedDict
p0
((lp1
(lp2
S'state'
p3
aI0
aa(lp4
S'distance'
p5
aF119.18426895141602
aa(lp6
S'timestamp'
p7
aF6.813184022903442
aatp8
Rp9
.ccollections
OrderedDict
p0
((lp1
(lp2
S'state'
p3
aI0
aa(lp4
S'distance'
p5
aF119.18426895141602
aa(lp6
S'timestamp'
p7
aF6.822649955749512
aatp8
Rp9
.ccollections
OrderedDict
p0
((lp1
(lp2
S'state'
p3
aI0
aa(lp4
S'distance'
p5
aF119.18426895141602
aa(lp6
S'timestamp'
p7
aF6.822754859924316
aatp8
Rp9
.ccollections
OrderedDict
p0
((lp1
(lp2
S'state'
p3
aI0
aa(lp4
S'distance'
p5
aF119.18426895141602
aa(lp6
S'timestamp'
p7
aF6.833870887756348
aatp8
Rp9
.ccollections
OrderedDict
p0
((lp1
(lp2
S'state'
p3
aI0
aa(lp4
S'distance'
p5
aF119.18426895141602
aa(lp6
S'timestamp'
p7
aF6.834019899368286
aatp8
Rp9
.ccollections
OrderedDict
p0
((lp1
(lp2
S'state'
p3
aI0
aa(lp4
S'distance'
p5
aF119.18426895141602
aa(lp6
S'timestamp'
p7
aF6.84309196472168
aatp8
Rp9
.ccollections
OrderedDict
p0
((lp1
(lp2
S'state'
p3
aI0
aa(lp4
S'distance'
p5
aF119.18426895141602
aa(lp6
S'timestamp'
p7
aF6.843230962753296
aatp8
Rp9
.ccollections
OrderedDict
p0
((lp1
(lp2
S'state'
p3
aI0
aa(lp4
S'distance'
p5
aF119.18426895141602
aa(lp6
S'timestamp'
p7
aF6.853224039077759
aatp8
Rp9
.ccollections
OrderedDict
p0
((lp1
(lp2
S'state'
p3
aI0
aa(lp4
S'distance'
p5
aF119.18426895141602
aa(lp6
S'timestamp'
p7
aF6.853745937347412
aatp8
Rp9
.ccollections
OrderedDict
p0
((lp1
(lp2
S'state'
p3
aI0
aa(lp4
S'distance'
p5
aF119.18426895141602
aa(lp6
S'timestamp'
p7
aF6.8626768589019775
aatp8
Rp9
.ccollections
OrderedDict
p0
((lp1
(lp2
S'state'
p3
aI0
aa(lp4
S'distance'
p5
aF119.18426895141602
aa(lp6
S'timestamp'
p7
aF6.863383054733276
aatp8
Rp9
.ccollections
OrderedDict
p0
((lp1
(lp2
S'state'
p3
aI0
aa(lp4
S'distance'
p5
aF119.18426895141602
aa(lp6
S'timestamp'
p7
aF6.872727870941162
aatp8
Rp9
.ccollections
OrderedDict
p0
((lp1
(lp2
S'state'
p3
aI0
aa(lp4
S'distance'
p5
aF119.18426895141602
aa(lp6
S'timestamp'
p7
aF6.873311996459961
aatp8
Rp9
.ccollections
OrderedDict
p0
((lp1
(lp2
S'state'
p3
aI0
aa(lp4
S'distance'
p5
aF119.18426895141602
aa(lp6
S'timestamp'
p7
aF6.882669925689697
aatp8
Rp9
.ccollections
OrderedDict
p0
((lp1
(lp2
S'state'
p3
aI0
aa(lp4
S'distance'
p5
aF119.18426895141602
aa(lp6
S'timestamp'
p7
aF6.883219003677368
aatp8
Rp9
.ccollections
OrderedDict
p0
((lp1
(lp2
S'state'
p3
aI0
aa(lp4
S'distance'
p5
aF119.18426895141602
aa(lp6
S'timestamp'
p7
aF6.8927178382873535
aatp8
Rp9
.ccollections
OrderedDict
p0
((lp1
(lp2
S'state'
p3
aI0
aa(lp4
S'distance'
p5
aF119.18426895141602
aa(lp6
S'timestamp'
p7
aF6.892871856689453
aatp8
Rp9
.ccollections
OrderedDict
p0
((lp1
(lp2
S'state'
p3
aI0
aa(lp4
S'distance'
p5
aF119.18426895141602
aa(lp6
S'timestamp'
p7
aF6.903182029724121
aatp8
Rp9
.ccollections
OrderedDict
p0
((lp1
(lp2
S'state'
p3
aI0
aa(lp4
S'distance'
p5
aF119.18426895141602
aa(lp6
S'timestamp'
p7
aF6.903255939483643
aatp8
Rp9
.ccollections
OrderedDict
p0
((lp1
(lp2
S'state'
p3
aI0
aa(lp4
S'distance'
p5
aF119.18426895141602
aa(lp6
S'timestamp'
p7
aF6.913372993469238
aatp8
Rp9
.ccollections
OrderedDict
p0
((lp1
(lp2
S'state'
p3
aI0
aa(lp4
S'distance'
p5
aF119.18426895141602
aa(lp6
S'timestamp'
p7
aF6.913445949554443
aatp8
Rp9
.ccollections
OrderedDict
p0
((lp1
(lp2
S'state'
p3
aI0
aa(lp4
S'distance'
p5
aF119.18426895141602
aa(lp6
S'timestamp'
p7
aF6.923508882522583
aatp8
Rp9
.ccollections
OrderedDict
p0
((lp1
(lp2
S'state'
p3
aI0
aa(lp4
S'distance'
p5
aF119.18426895141602
aa(lp6
S'timestamp'
p7
aF6.923748016357422
aatp8
Rp9
.ccollections
OrderedDict
p0
((lp1
(lp2
S'state'
p3
aI0
aa(lp4
S'distance'
p5
aF119.18426895141602
aa(lp6
S'timestamp'
p7
aF6.932670831680298
aatp8
Rp9
.ccollections
OrderedDict
p0
((lp1
(lp2
S'state'
p3
aI0
aa(lp4
S'distance'
p5
aF119.18426895141602
aa(lp6
S'timestamp'
p7
aF6.933253049850464
aatp8
Rp9
.ccollections
OrderedDict
p0
((lp1
(lp2
S'state'
p3
aI0
aa(lp4
S'distance'
p5
aF119.18426895141602
aa(lp6
S'timestamp'
p7
aF6.942621946334839
aatp8
Rp9
.ccollections
OrderedDict
p0
((lp1
(lp2
S'state'
p3
aI0
aa(lp4
S'distance'
p5
aF119.18426895141602
aa(lp6
S'timestamp'
p7
aF6.942828893661499
aatp8
Rp9
.ccollections
OrderedDict
p0
((lp1
(lp2
S'state'
p3
aI0
aa(lp4
S'distance'
p5
aF119.18426895141602
aa(lp6
S'timestamp'
p7
aF6.953794002532959
aatp8
Rp9
.ccollections
OrderedDict
p0
((lp1
(lp2
S'state'
p3
aI0
aa(lp4
S'distance'
p5
aF119.18426895141602
aa(lp6
S'timestamp'
p7
aF6.953933954238892
aatp8
Rp9
.ccollections
OrderedDict
p0
((lp1
(lp2
S'state'
p3
aI0
aa(lp4
S'distance'
p5
aF119.18426895141602
aa(lp6
S'timestamp'
p7
aF6.9631969928741455
aatp8
Rp9
.ccollections
OrderedDict
p0
((lp1
(lp2
S'state'
p3
aI0
aa(lp4
S'distance'
p5
aF119.18426895141602
aa(lp6
S'timestamp'
p7
aF6.963274955749512
aatp8
Rp9
.ccollections
OrderedDict
p0
((lp1
(lp2
S'state'
p3
aI0
aa(lp4
S'distance'
p5
aF119.18426895141602
aa(lp6
S'timestamp'
p7
aF6.9728288650512695
aatp8
Rp9
.ccollections
OrderedDict
p0
((lp1
(lp2
S'state'
p3
aI0
aa(lp4
S'distance'
p5
aF119.18426895141602
aa(lp6
S'timestamp'
p7
aF6.973325967788696
aatp8
Rp9
.ccollections
OrderedDict
p0
((lp1
(lp2
S'state'
p3
aI0
aa(lp4
S'distance'
p5
aF119.18426895141602
aa(lp6
S'timestamp'
p7
aF6.983180046081543
aatp8
Rp9
.ccollections
OrderedDict
p0
((lp1
(lp2
S'state'
p3
aI0
aa(lp4
S'distance'
p5
aF119.18426895141602
aa(lp6
S'timestamp'
p7
aF6.983255863189697
aatp8
Rp9
.ccollections
OrderedDict
p0
((lp1
(lp2
S'state'
p3
aI0
aa(lp4
S'distance'
p5
aF119.18426895141602
aa(lp6
S'timestamp'
p7
aF6.993160963058472
aatp8
Rp9
.ccollections
OrderedDict
p0
((lp1
(lp2
S'state'
p3
aI0
aa(lp4
S'distance'
p5
aF119.18426895141602
aa(lp6
S'timestamp'
p7
aF6.994010925292969
aatp8
Rp9
.ccollections
OrderedDict
p0
((lp1
(lp2
S'state'
p3
aI0
aa(lp4
S'distance'
p5
aF119.18426895141602
aa(lp6
S'timestamp'
p7
aF7.002817869186401
aatp8
Rp9
.ccollections
OrderedDict
p0
((lp1
(lp2
S'state'
p3
aI0
aa(lp4
S'distance'
p5
aF119.18426895141602
aa(lp6
S'timestamp'
p7
aF7.003495931625366
aatp8
Rp9
.ccollections
OrderedDict
p0
((lp1
(lp2
S'state'
p3
aI0
aa(lp4
S'distance'
p5
aF119.18426895141602
aa(lp6
S'timestamp'
p7
aF7.013147830963135
aatp8
Rp9
.ccollections
OrderedDict
p0
((lp1
(lp2
S'state'
p3
aI0
aa(lp4
S'distance'
p5
aF119.18426895141602
aa(lp6
S'timestamp'
p7
aF7.013227939605713
aatp8
Rp9
.ccollections
OrderedDict
p0
((lp1
(lp2
S'state'
p3
aI0
aa(lp4
S'distance'
p5
aF119.18426895141602
aa(lp6
S'timestamp'
p7
aF7.02328085899353
aatp8
Rp9
.ccollections
OrderedDict
p0
((lp1
(lp2
S'state'
p3
aI0
aa(lp4
S'distance'
p5
aF119.18426895141602
aa(lp6
S'timestamp'
p7
aF7.023368835449219
aatp8
Rp9
.ccollections
OrderedDict
p0
((lp1
(lp2
S'state'
p3
aI0
aa(lp4
S'distance'
p5
aF119.18426895141602
aa(lp6
S'timestamp'
p7
aF7.033383846282959
aatp8
Rp9
.ccollections
OrderedDict
p0
((lp1
(lp2
S'state'
p3
aI0
aa(lp4
S'distance'
p5
aF119.18426895141602
aa(lp6
S'timestamp'
p7
aF7.034637928009033
aatp8
Rp9
.ccollections
OrderedDict
p0
((lp1
(lp2
S'state'
p3
aI0
aa(lp4
S'distance'
p5
aF119.18426895141602
aa(lp6
S'timestamp'
p7
aF7.042848825454712
aatp8
Rp9
.ccollections
OrderedDict
p0
((lp1
(lp2
S'state'
p3
aI0
aa(lp4
S'distance'
p5
aF119.18426895141602
aa(lp6
S'timestamp'
p7
aF7.043097972869873
aatp8
Rp9
.ccollections
OrderedDict
p0
((lp1
(lp2
S'state'
p3
aI0
aa(lp4
S'distance'
p5
aF119.18426895141602
aa(lp6
S'timestamp'
p7
aF7.052954912185669
aatp8
Rp9
.ccollections
OrderedDict
p0
((lp1
(lp2
S'state'
p3
aI0
aa(lp4
S'distance'
p5
aF119.18426895141602
aa(lp6
S'timestamp'
p7
aF7.053216934204102
aatp8
Rp9
.ccollections
OrderedDict
p0
((lp1
(lp2
S'state'
p3
aI0
aa(lp4
S'distance'
p5
aF119.18426895141602
aa(lp6
S'timestamp'
p7
aF7.063124895095825
aatp8
Rp9
.ccollections
OrderedDict
p0
((lp1
(lp2
S'state'
p3
aI0
aa(lp4
S'distance'
p5
aF119.18426895141602
aa(lp6
S'timestamp'
p7
aF7.06320595741272
aatp8
Rp9
.ccollections
OrderedDict
p0
((lp1
(lp2
S'state'
p3
aI0
aa(lp4
S'distance'
p5
aF119.18426895141602
aa(lp6
S'timestamp'
p7
aF7.0736470222473145
aatp8
Rp9
.ccollections
OrderedDict
p0
((lp1
(lp2
S'state'
p3
aI0
aa(lp4
S'distance'
p5
aF119.18426895141602
aa(lp6
S'timestamp'
p7
aF7.0737268924713135
aatp8
Rp9
.ccollections
OrderedDict
p0
((lp1
(lp2
S'state'
p3
aI0
aa(lp4
S'distance'
p5
aF119.18426895141602
aa(lp6
S'timestamp'
p7
aF7.083137035369873
aatp8
Rp9
.ccollections
OrderedDict
p0
((lp1
(lp2
S'state'
p3
aI0
aa(lp4
S'distance'
p5
aF119.18426895141602
aa(lp6
S'timestamp'
p7
aF7.0832178592681885
aatp8
Rp9
.ccollections
OrderedDict
p0
((lp1
(lp2
S'state'
p3
aI0
aa(lp4
S'distance'
p5
aF119.18426895141602
aa(lp6
S'timestamp'
p7
aF7.092988967895508
aatp8
Rp9
.ccollections
OrderedDict
p0
((lp1
(lp2
S'state'
p3
aI0
aa(lp4
S'distance'
p5
aF119.18426895141602
aa(lp6
S'timestamp'
p7
aF7.093076944351196
aatp8
Rp9
.ccollections
OrderedDict
p0
((lp1
(lp2
S'state'
p3
aI0
aa(lp4
S'distance'
p5
aF119.18426895141602
aa(lp6
S'timestamp'
p7
aF7.10317587852478
aatp8
Rp9
.ccollections
OrderedDict
p0
((lp1
(lp2
S'state'
p3
aI0
aa(lp4
S'distance'
p5
aF119.18426895141602
aa(lp6
S'timestamp'
p7
aF7.103251934051514
aatp8
Rp9
.ccollections
OrderedDict
p0
((lp1
(lp2
S'state'
p3
aI0
aa(lp4
S'distance'
p5
aF119.18426895141602
aa(lp6
S'timestamp'
p7
aF7.113291025161743
aatp8
Rp9
.ccollections
OrderedDict
p0
((lp1
(lp2
S'state'
p3
aI0
aa(lp4
S'distance'
p5
aF119.18426895141602
aa(lp6
S'timestamp'
p7
aF7.113631963729858
aatp8
Rp9
.ccollections
OrderedDict
p0
((lp1
(lp2
S'state'
p3
aI0
aa(lp4
S'distance'
p5
aF119.18426895141602
aa(lp6
S'timestamp'
p7
aF7.123067855834961
aatp8
Rp9
.ccollections
OrderedDict
p0
((lp1
(lp2
S'state'
p3
aI0
aa(lp4
S'distance'
p5
aF119.18426895141602
aa(lp6
S'timestamp'
p7
aF7.123150825500488
aatp8
Rp9
.ccollections
OrderedDict
p0
((lp1
(lp2
S'state'
p3
aI0
aa(lp4
S'distance'
p5
aF119.18426895141602
aa(lp6
S'timestamp'
p7
aF7.13296103477478
aatp8
Rp9
.ccollections
OrderedDict
p0
((lp1
(lp2
S'state'
p3
aI0
aa(lp4
S'distance'
p5
aF119.18426895141602
aa(lp6
S'timestamp'
p7
aF7.1334068775177
aatp8
Rp9
.ccollections
OrderedDict
p0
((lp1
(lp2
S'state'
p3
aI0
aa(lp4
S'distance'
p5
aF119.18426895141602
aa(lp6
S'timestamp'
p7
aF7.143254995346069
aatp8
Rp9
.ccollections
OrderedDict
p0
((lp1
(lp2
S'state'
p3
aI0
aa(lp4
S'distance'
p5
aF119.18426895141602
aa(lp6
S'timestamp'
p7
aF7.14333701133728
aatp8
Rp9
.ccollections
OrderedDict
p0
((lp1
(lp2
S'state'
p3
aI0
aa(lp4
S'distance'
p5
aF119.18426895141602
aa(lp6
S'timestamp'
p7
aF7.153194904327393
aatp8
Rp9
.ccollections
OrderedDict
p0
((lp1
(lp2
S'state'
p3
aI0
aa(lp4
S'distance'
p5
aF119.18426895141602
aa(lp6
S'timestamp'
p7
aF7.153437852859497
aatp8
Rp9
.ccollections
OrderedDict
p0
((lp1
(lp2
S'state'
p3
aI0
aa(lp4
S'distance'
p5
aF119.18426895141602
aa(lp6
S'timestamp'
p7
aF7.16321587562561
aatp8
Rp9
.ccollections
OrderedDict
p0
((lp1
(lp2
S'state'
p3
aI0
aa(lp4
S'distance'
p5
aF119.18426895141602
aa(lp6
S'timestamp'
p7
aF7.16329288482666
aatp8
Rp9
.ccollections
OrderedDict
p0
((lp1
(lp2
S'state'
p3
aI0
aa(lp4
S'distance'
p5
aF119.18426895141602
aa(lp6
S'timestamp'
p7
aF7.172979831695557
aatp8
Rp9
.ccollections
OrderedDict
p0
((lp1
(lp2
S'state'
p3
aI0
aa(lp4
S'distance'
p5
aF119.18426895141602
aa(lp6
S'timestamp'
p7
aF7.173128843307495
aatp8
Rp9
.ccollections
OrderedDict
p0
((lp1
(lp2
S'state'
p3
aI0
aa(lp4
S'distance'
p5
aF119.18426895141602
aa(lp6
S'timestamp'
p7
aF7.183152914047241
aatp8
Rp9
.ccollections
OrderedDict
p0
((lp1
(lp2
S'state'
p3
aI0
aa(lp4
S'distance'
p5
aF119.18426895141602
aa(lp6
S'timestamp'
p7
aF7.183233022689819
aatp8
Rp9
.ccollections
OrderedDict
p0
((lp1
(lp2
S'state'
p3
aI0
aa(lp4
S'distance'
p5
aF119.18426895141602
aa(lp6
S'timestamp'
p7
aF7.1927478313446045
aatp8
Rp9
.ccollections
OrderedDict
p0
((lp1
(lp2
S'state'
p3
aI0
aa(lp4
S'distance'
p5
aF119.18426895141602
aa(lp6
S'timestamp'
p7
aF7.192878007888794
aatp8
Rp9
.ccollections
OrderedDict
p0
((lp1
(lp2
S'state'
p3
aI0
aa(lp4
S'distance'
p5
aF119.18426895141602
aa(lp6
S'timestamp'
p7
aF7.204088926315308
aatp8
Rp9
.ccollections
OrderedDict
p0
((lp1
(lp2
S'state'
p3
aI0
aa(lp4
S'distance'
p5
aF119.18426895141602
aa(lp6
S'timestamp'
p7
aF7.20433497428894
aatp8
Rp9
.ccollections
OrderedDict
p0
((lp1
(lp2
S'state'
p3
aI0
aa(lp4
S'distance'
p5
aF119.18426895141602
aa(lp6
S'timestamp'
p7
aF7.212494850158691
aatp8
Rp9
.ccollections
OrderedDict
p0
((lp1
(lp2
S'state'
p3
aI0
aa(lp4
S'distance'
p5
aF119.18426895141602
aa(lp6
S'timestamp'
p7
aF7.213357925415039
aatp8
Rp9
.ccollections
OrderedDict
p0
((lp1
(lp2
S'state'
p3
aI0
aa(lp4
S'distance'
p5
aF119.18426895141602
aa(lp6
S'timestamp'
p7
aF7.224552869796753
aatp8
Rp9
.ccollections
OrderedDict
p0
((lp1
(lp2
S'state'
p3
aI0
aa(lp4
S'distance'
p5
aF119.18426895141602
aa(lp6
S'timestamp'
p7
aF7.224655866622925
aatp8
Rp9
.ccollections
OrderedDict
p0
((lp1
(lp2
S'state'
p3
aI0
aa(lp4
S'distance'
p5
aF119.18426895141602
aa(lp6
S'timestamp'
p7
aF7.2332189083099365
aatp8
Rp9
.ccollections
OrderedDict
p0
((lp1
(lp2
S'state'
p3
aI0
aa(lp4
S'distance'
p5
aF119.18426895141602
aa(lp6
S'timestamp'
p7
aF7.233944892883301
aatp8
Rp9
.ccollections
OrderedDict
p0
((lp1
(lp2
S'state'
p3
aI0
aa(lp4
S'distance'
p5
aF119.18426895141602
aa(lp6
S'timestamp'
p7
aF7.242769956588745
aatp8
Rp9
.ccollections
OrderedDict
p0
((lp1
(lp2
S'state'
p3
aI0
aa(lp4
S'distance'
p5
aF119.18426895141602
aa(lp6
S'timestamp'
p7
aF7.243361949920654
aatp8
Rp9
.ccollections
OrderedDict
p0
((lp1
(lp2
S'state'
p3
aI0
aa(lp4
S'distance'
p5
aF119.18426895141602
aa(lp6
S'timestamp'
p7
aF7.253083944320679
aatp8
Rp9
.ccollections
OrderedDict
p0
((lp1
(lp2
S'state'
p3
aI0
aa(lp4
S'distance'
p5
aF119.18426895141602
aa(lp6
S'timestamp'
p7
aF7.2531609535217285
aatp8
Rp9
.ccollections
OrderedDict
p0
((lp1
(lp2
S'state'
p3
aI0
aa(lp4
S'distance'
p5
aF119.18426895141602
aa(lp6
S'timestamp'
p7
aF7.2629828453063965
aatp8
Rp9
.ccollections
OrderedDict
p0
((lp1
(lp2
S'state'
p3
aI0
aa(lp4
S'distance'
p5
aF119.18426895141602
aa(lp6
S'timestamp'
p7
aF7.2634570598602295
aatp8
Rp9
.ccollections
OrderedDict
p0
((lp1
(lp2
S'state'
p3
aI0
aa(lp4
S'distance'
p5
aF119.18426895141602
aa(lp6
S'timestamp'
p7
aF7.273159027099609
aatp8
Rp9
.ccollections
OrderedDict
p0
((lp1
(lp2
S'state'
p3
aI0
aa(lp4
S'distance'
p5
aF119.18426895141602
aa(lp6
S'timestamp'
p7
aF7.273716926574707
aatp8
Rp9
.ccollections
OrderedDict
p0
((lp1
(lp2
S'state'
p3
aI0
aa(lp4
S'distance'
p5
aF119.18426895141602
aa(lp6
S'timestamp'
p7
aF7.28282904624939
aatp8
Rp9
.ccollections
OrderedDict
p0
((lp1
(lp2
S'state'
p3
aI0
aa(lp4
S'distance'
p5
aF119.18426895141602
aa(lp6
S'timestamp'
p7
aF7.283462047576904
aatp8
Rp9
.ccollections
OrderedDict
p0
((lp1
(lp2
S'state'
p3
aI0
aa(lp4
S'distance'
p5
aF119.18426895141602
aa(lp6
S'timestamp'
p7
aF7.293473958969116
aatp8
Rp9
.ccollections
OrderedDict
p0
((lp1
(lp2
S'state'
p3
aI0
aa(lp4
S'distance'
p5
aF119.18426895141602
aa(lp6
S'timestamp'
p7
aF7.293558835983276
aatp8
Rp9
.ccollections
OrderedDict
p0
((lp1
(lp2
S'state'
p3
aI0
aa(lp4
S'distance'
p5
aF119.18426895141602
aa(lp6
S'timestamp'
p7
aF7.303585052490234
aatp8
Rp9
.ccollections
OrderedDict
p0
((lp1
(lp2
S'state'
p3
aI0
aa(lp4
S'distance'
p5
aF119.18426895141602
aa(lp6
S'timestamp'
p7
aF7.304550886154175
aatp8
Rp9
.ccollections
OrderedDict
p0
((lp1
(lp2
S'state'
p3
aI0
aa(lp4
S'distance'
p5
aF119.18426895141602
aa(lp6
S'timestamp'
p7
aF7.313642978668213
aatp8
Rp9
.ccollections
OrderedDict
p0
((lp1
(lp2
S'state'
p3
aI0
aa(lp4
S'distance'
p5
aF119.18426895141602
aa(lp6
S'timestamp'
p7
aF7.313719987869263
aatp8
Rp9
.ccollections
OrderedDict
p0
((lp1
(lp2
S'state'
p3
aI0
aa(lp4
S'distance'
p5
aF119.18426895141602
aa(lp6
S'timestamp'
p7
aF7.323237895965576
aatp8
Rp9
.ccollections
OrderedDict
p0
((lp1
(lp2
S'state'
p3
aI0
aa(lp4
S'distance'
p5
aF119.18426895141602
aa(lp6
S'timestamp'
p7
aF7.323312997817993
aatp8
Rp9
.ccollections
OrderedDict
p0
((lp1
(lp2
S'state'
p3
aI0
aa(lp4
S'distance'
p5
aF119.18426895141602
aa(lp6
S'timestamp'
p7
aF7.333346843719482
aatp8
Rp9
.ccollections
OrderedDict
p0
((lp1
(lp2
S'state'
p3
aI0
aa(lp4
S'distance'
p5
aF119.18426895141602
aa(lp6
S'timestamp'
p7
aF7.3334269523620605
aatp8
Rp9
.ccollections
OrderedDict
p0
((lp1
(lp2
S'state'
p3
aI0
aa(lp4
S'distance'
p5
aF119.18426895141602
aa(lp6
S'timestamp'
p7
aF7.34293794631958
aatp8
Rp9
.ccollections
OrderedDict
p0
((lp1
(lp2
S'state'
p3
aI0
aa(lp4
S'distance'
p5
aF119.18426895141602
aa(lp6
S'timestamp'
p7
aF7.343354940414429
aatp8
Rp9
.ccollections
OrderedDict
p0
((lp1
(lp2
S'state'
p3
aI0
aa(lp4
S'distance'
p5
aF119.18426895141602
aa(lp6
S'timestamp'
p7
aF7.353344917297363
aatp8
Rp9
.ccollections
OrderedDict
p0
((lp1
(lp2
S'state'
p3
aI0
aa(lp4
S'distance'
p5
aF119.18426895141602
aa(lp6
S'timestamp'
p7
aF7.353508949279785
aatp8
Rp9
.ccollections
OrderedDict
p0
((lp1
(lp2
S'state'
p3
aI0
aa(lp4
S'distance'
p5
aF119.18426895141602
aa(lp6
S'timestamp'
p7
aF7.363016843795776
aatp8
Rp9
.ccollections
OrderedDict
p0
((lp1
(lp2
S'state'
p3
aI0
aa(lp4
S'distance'
p5
aF119.18426895141602
aa(lp6
S'timestamp'
p7
aF7.363117933273315
aatp8
Rp9
.ccollections
OrderedDict
p0
((lp1
(lp2
S'state'
p3
aI0
aa(lp4
S'distance'
p5
aF119.18426895141602
aa(lp6
S'timestamp'
p7
aF7.373193979263306
aatp8
Rp9
.ccollections
OrderedDict
p0
((lp1
(lp2
S'state'
p3
aI0
aa(lp4
S'distance'
p5
aF119.18426895141602
aa(lp6
S'timestamp'
p7
aF7.373280048370361
aatp8
Rp9
.ccollections
OrderedDict
p0
((lp1
(lp2
S'state'
p3
aI0
aa(lp4
S'distance'
p5
aF119.18426895141602
aa(lp6
S'timestamp'
p7
aF7.383126974105835
aatp8
Rp9
.ccollections
OrderedDict
p0
((lp1
(lp2
S'state'
p3
aI0
aa(lp4
S'distance'
p5
aF119.18426895141602
aa(lp6
S'timestamp'
p7
aF7.383210897445679
aatp8
Rp9
.ccollections
OrderedDict
p0
((lp1
(lp2
S'state'
p3
aI0
aa(lp4
S'distance'
p5
aF119.18426895141602
aa(lp6
S'timestamp'
p7
aF7.392909049987793
aatp8
Rp9
.ccollections
OrderedDict
p0
((lp1
(lp2
S'state'
p3
aI0
aa(lp4
S'distance'
p5
aF119.18426895141602
aa(lp6
S'timestamp'
p7
aF7.393862009048462
aatp8
Rp9
.ccollections
OrderedDict
p0
((lp1
(lp2
S'state'
p3
aI0
aa(lp4
S'distance'
p5
aF119.18426895141602
aa(lp6
S'timestamp'
p7
aF7.403349876403809
aatp8
Rp9
.ccollections
OrderedDict
p0
((lp1
(lp2
S'state'
p3
aI0
aa(lp4
S'distance'
p5
aF119.18426895141602
aa(lp6
S'timestamp'
p7
aF7.404049873352051
aatp8
Rp9
.ccollections
OrderedDict
p0
((lp1
(lp2
S'state'
p3
aI0
aa(lp4
S'distance'
p5
aF119.18426895141602
aa(lp6
S'timestamp'
p7
aF7.412984848022461
aatp8
Rp9
.ccollections
OrderedDict
p0
((lp1
(lp2
S'state'
p3
aI0
aa(lp4
S'distance'
p5
aF119.18426895141602
aa(lp6
S'timestamp'
p7
aF7.422741889953613
aatp8
Rp9
.ccollections
OrderedDict
p0
((lp1
(lp2
S'state'
p3
aI0
aa(lp4
S'distance'
p5
aF119.18426895141602
aa(lp6
S'timestamp'
p7
aF7.422899961471558
aatp8
Rp9
.ccollections
OrderedDict
p0
((lp1
(lp2
S'state'
p3
aI0
aa(lp4
S'distance'
p5
aF119.18426895141602
aa(lp6
S'timestamp'
p7
aF7.423738956451416
aatp8
Rp9
.ccollections
OrderedDict
p0
((lp1
(lp2
S'state'
p3
aI0
aa(lp4
S'distance'
p5
aF119.18426895141602
aa(lp6
S'timestamp'
p7
aF7.432881832122803
aatp8
Rp9
.ccollections
OrderedDict
p0
((lp1
(lp2
S'state'
p3
aI0
aa(lp4
S'distance'
p5
aF119.18426895141602
aa(lp6
S'timestamp'
p7
aF7.433454990386963
aatp8
Rp9
.ccollections
OrderedDict
p0
((lp1
(lp2
S'state'
p3
aI0
aa(lp4
S'distance'
p5
aF119.18426895141602
aa(lp6
S'timestamp'
p7
aF7.443166971206665
aatp8
Rp9
.ccollections
OrderedDict
p0
((lp1
(lp2
S'state'
p3
aI0
aa(lp4
S'distance'
p5
aF119.18426895141602
aa(lp6
S'timestamp'
p7
aF7.443238973617554
aatp8
Rp9
.ccollections
OrderedDict
p0
((lp1
(lp2
S'state'
p3
aI0
aa(lp4
S'distance'
p5
aF119.18426895141602
aa(lp6
S'timestamp'
p7
aF7.4527528285980225
aatp8
Rp9
.ccollections
OrderedDict
p0
((lp1
(lp2
S'state'
p3
aI0
aa(lp4
S'distance'
p5
aF119.18426895141602
aa(lp6
S'timestamp'
p7
aF7.4534218311309814
aatp8
Rp9
.ccollections
OrderedDict
p0
((lp1
(lp2
S'state'
p3
aI0
aa(lp4
S'distance'
p5
aF119.18426895141602
aa(lp6
S'timestamp'
p7
aF7.462827920913696
aatp8
Rp9
.ccollections
OrderedDict
p0
((lp1
(lp2
S'state'
p3
aI0
aa(lp4
S'distance'
p5
aF119.18426895141602
aa(lp6
S'timestamp'
p7
aF7.463515996932983
aatp8
Rp9
.ccollections
OrderedDict
p0
((lp1
(lp2
S'state'
p3
aI0
aa(lp4
S'distance'
p5
aF119.18426895141602
aa(lp6
S'timestamp'
p7
aF7.472882986068726
aatp8
Rp9
.ccollections
OrderedDict
p0
((lp1
(lp2
S'state'
p3
aI0
aa(lp4
S'distance'
p5
aF119.18426895141602
aa(lp6
S'timestamp'
p7
aF7.473113059997559
aatp8
Rp9
.ccollections
OrderedDict
p0
((lp1
(lp2
S'state'
p3
aI0
aa(lp4
S'distance'
p5
aF119.18426895141602
aa(lp6
S'timestamp'
p7
aF7.483211994171143
aatp8
Rp9
.ccollections
OrderedDict
p0
((lp1
(lp2
S'state'
p3
aI0
aa(lp4
S'distance'
p5
aF119.18426895141602
aa(lp6
S'timestamp'
p7
aF7.483291864395142
aatp8
Rp9
.ccollections
OrderedDict
p0
((lp1
(lp2
S'state'
p3
aI0
aa(lp4
S'distance'
p5
aF119.18426895141602
aa(lp6
S'timestamp'
p7
aF7.492853879928589
aatp8
Rp9
.ccollections
OrderedDict
p0
((lp1
(lp2
S'state'
p3
aI0
aa(lp4
S'distance'
p5
aF119.18426895141602
aa(lp6
S'timestamp'
p7
aF7.4929749965667725
aatp8
Rp9
.ccollections
OrderedDict
p0
((lp1
(lp2
S'state'
p3
aI0
aa(lp4
S'distance'
p5
aF119.18426895141602
aa(lp6
S'timestamp'
p7
aF7.503175973892212
aatp8
Rp9
.ccollections
OrderedDict
p0
((lp1
(lp2
S'state'
p3
aI0
aa(lp4
S'distance'
p5
aF119.18426895141602
aa(lp6
S'timestamp'
p7
aF7.503268003463745
aatp8
Rp9
.ccollections
OrderedDict
p0
((lp1
(lp2
S'state'
p3
aI0
aa(lp4
S'distance'
p5
aF119.18426895141602
aa(lp6
S'timestamp'
p7
aF7.513341903686523
aatp8
Rp9
.ccollections
OrderedDict
p0
((lp1
(lp2
S'state'
p3
aI0
aa(lp4
S'distance'
p5
aF119.18426895141602
aa(lp6
S'timestamp'
p7
aF7.514375925064087
aatp8
Rp9
.ccollections
OrderedDict
p0
((lp1
(lp2
S'state'
p3
aI0
aa(lp4
S'distance'
p5
aF119.18426895141602
aa(lp6
S'timestamp'
p7
aF7.522914886474609
aatp8
Rp9
.ccollections
OrderedDict
p0
((lp1
(lp2
S'state'
p3
aI0
aa(lp4
S'distance'
p5
aF119.18426895141602
aa(lp6
S'timestamp'
p7
aF7.523334980010986
aatp8
Rp9
.ccollections
OrderedDict
p0
((lp1
(lp2
S'state'
p3
aI0
aa(lp4
S'distance'
p5
aF119.18426895141602
aa(lp6
S'timestamp'
p7
aF7.533143997192383
aatp8
Rp9
.ccollections
OrderedDict
p0
((lp1
(lp2
S'state'
p3
aI0
aa(lp4
S'distance'
p5
aF119.18426895141602
aa(lp6
S'timestamp'
p7
aF7.533223867416382
aatp8
Rp9
.ccollections
OrderedDict
p0
((lp1
(lp2
S'state'
p3
aI0
aa(lp4
S'distance'
p5
aF119.18426895141602
aa(lp6
S'timestamp'
p7
aF7.542834997177124
aatp8
Rp9
.ccollections
OrderedDict
p0
((lp1
(lp2
S'state'
p3
aI0
aa(lp4
S'distance'
p5
aF119.18426895141602
aa(lp6
S'timestamp'
p7
aF7.543015003204346
aatp8
Rp9
.ccollections
OrderedDict
p0
((lp1
(lp2
S'state'
p3
aI0
aa(lp4
S'distance'
p5
aF119.18426895141602
aa(lp6
S'timestamp'
p7
aF7.55377984046936
aatp8
Rp9
.ccollections
OrderedDict
p0
((lp1
(lp2
S'state'
p3
aI0
aa(lp4
S'distance'
p5
aF119.18426895141602
aa(lp6
S'timestamp'
p7
aF7.553854942321777
aatp8
Rp9
.ccollections
OrderedDict
p0
((lp1
(lp2
S'state'
p3
aI0
aa(lp4
S'distance'
p5
aF119.18426895141602
aa(lp6
S'timestamp'
p7
aF7.563061952590942
aatp8
Rp9
.ccollections
OrderedDict
p0
((lp1
(lp2
S'state'
p3
aI0
aa(lp4
S'distance'
p5
aF119.18426895141602
aa(lp6
S'timestamp'
p7
aF7.56339693069458
aatp8
Rp9
.ccollections
OrderedDict
p0
((lp1
(lp2
S'state'
p3
aI0
aa(lp4
S'distance'
p5
aF119.18426895141602
aa(lp6
S'timestamp'
p7
aF7.573096036911011
aatp8
Rp9
.ccollections
OrderedDict
p0
((lp1
(lp2
S'state'
p3
aI0
aa(lp4
S'distance'
p5
aF119.18426895141602
aa(lp6
S'timestamp'
p7
aF7.57318902015686
aatp8
Rp9
.ccollections
OrderedDict
p0
((lp1
(lp2
S'state'
p3
aI0
aa(lp4
S'distance'
p5
aF119.18426895141602
aa(lp6
S'timestamp'
p7
aF7.583268880844116
aatp8
Rp9
.ccollections
OrderedDict
p0
((lp1
(lp2
S'state'
p3
aI0
aa(lp4
S'distance'
p5
aF119.18426895141602
aa(lp6
S'timestamp'
p7
aF7.583343029022217
aatp8
Rp9
.ccollections
OrderedDict
p0
((lp1
(lp2
S'state'
p3
aI0
aa(lp4
S'distance'
p5
aF119.18426895141602
aa(lp6
S'timestamp'
p7
aF7.593569040298462
aatp8
Rp9
.ccollections
OrderedDict
p0
((lp1
(lp2
S'state'
p3
aI0
aa(lp4
S'distance'
p5
aF119.18426895141602
aa(lp6
S'timestamp'
p7
aF7.593852996826172
aatp8
Rp9
.ccollections
OrderedDict
p0
((lp1
(lp2
S'state'
p3
aI0
aa(lp4
S'distance'
p5
aF119.18426895141602
aa(lp6
S'timestamp'
p7
aF7.60256290435791
aatp8
Rp9
.ccollections
OrderedDict
p0
((lp1
(lp2
S'state'
p3
aI0
aa(lp4
S'distance'
p5
aF119.18426895141602
aa(lp6
S'timestamp'
p7
aF7.6030800342559814
aatp8
Rp9
.ccollections
OrderedDict
p0
((lp1
(lp2
S'state'
p3
aI0
aa(lp4
S'distance'
p5
aF119.18426895141602
aa(lp6
S'timestamp'
p7
aF7.613085985183716
aatp8
Rp9
.ccollections
OrderedDict
p0
((lp1
(lp2
S'state'
p3
aI0
aa(lp4
S'distance'
p5
aF119.18426895141602
aa(lp6
S'timestamp'
p7
aF7.613473892211914
aatp8
Rp9
.ccollections
OrderedDict
p0
((lp1
(lp2
S'state'
p3
aI0
aa(lp4
S'distance'
p5
aF119.18426895141602
aa(lp6
S'timestamp'
p7
aF7.623194932937622
aatp8
Rp9
.ccollections
OrderedDict
p0
((lp1
(lp2
S'state'
p3
aI0
aa(lp4
S'distance'
p5
aF119.18426895141602
aa(lp6
S'timestamp'
p7
aF7.623281002044678
aatp8
Rp9
.ccollections
OrderedDict
p0
((lp1
(lp2
S'state'
p3
aI0
aa(lp4
S'distance'
p5
aF119.18426895141602
aa(lp6
S'timestamp'
p7
aF7.633149862289429
aatp8
Rp9
.ccollections
OrderedDict
p0
((lp1
(lp2
S'state'
p3
aI0
aa(lp4
S'distance'
p5
aF119.18426895141602
aa(lp6
S'timestamp'
p7
aF7.63323187828064
aatp8
Rp9
.ccollections
OrderedDict
p0
((lp1
(lp2
S'state'
p3
aI0
aa(lp4
S'distance'
p5
aF119.18426895141602
aa(lp6
S'timestamp'
p7
aF7.643072843551636
aatp8
Rp9
.ccollections
OrderedDict
p0
((lp1
(lp2
S'state'
p3
aI0
aa(lp4
S'distance'
p5
aF119.18426895141602
aa(lp6
S'timestamp'
p7
aF7.643218994140625
aatp8
Rp9
.ccollections
OrderedDict
p0
((lp1
(lp2
S'state'
p3
aI0
aa(lp4
S'distance'
p5
aF119.18426895141602
aa(lp6
S'timestamp'
p7
aF7.6532299518585205
aatp8
Rp9
.ccollections
OrderedDict
p0
((lp1
(lp2
S'state'
p3
aI0
aa(lp4
S'distance'
p5
aF119.18426895141602
aa(lp6
S'timestamp'
p7
aF7.653349876403809
aatp8
Rp9
.ccollections
OrderedDict
p0
((lp1
(lp2
S'state'
p3
aI0
aa(lp4
S'distance'
p5
aF119.18426895141602
aa(lp6
S'timestamp'
p7
aF7.663441896438599
aatp8
Rp9
.ccollections
OrderedDict
p0
((lp1
(lp2
S'state'
p3
aI0
aa(lp4
S'distance'
p5
aF119.18426895141602
aa(lp6
S'timestamp'
p7
aF7.663593053817749
aatp8
Rp9
.ccollections
OrderedDict
p0
((lp1
(lp2
S'state'
p3
aI0
aa(lp4
S'distance'
p5
aF119.18426895141602
aa(lp6
S'timestamp'
p7
aF7.673221826553345
aatp8
Rp9
.ccollections
OrderedDict
p0
((lp1
(lp2
S'state'
p3
aI0
aa(lp4
S'distance'
p5
aF119.18426895141602
aa(lp6
S'timestamp'
p7
aF7.673310995101929
aatp8
Rp9
.ccollections
OrderedDict
p0
((lp1
(lp2
S'state'
p3
aI0
aa(lp4
S'distance'
p5
aF119.18426895141602
aa(lp6
S'timestamp'
p7
aF7.682910919189453
aatp8
Rp9
.ccollections
OrderedDict
p0
((lp1
(lp2
S'state'
p3
aI0
aa(lp4
S'distance'
p5
aF119.18426895141602
aa(lp6
S'timestamp'
p7
aF7.683271884918213
aatp8
Rp9
.ccollections
OrderedDict
p0
((lp1
(lp2
S'state'
p3
aI0
aa(lp4
S'distance'
p5
aF119.18426895141602
aa(lp6
S'timestamp'
p7
aF7.6924660205841064
aatp8
Rp9
.ccollections
OrderedDict
p0
((lp1
(lp2
S'state'
p3
aI0
aa(lp4
S'distance'
p5
aF119.18426895141602
aa(lp6
S'timestamp'
p7
aF7.6932008266448975
aatp8
Rp9
.ccollections
OrderedDict
p0
((lp1
(lp2
S'state'
p3
aI0
aa(lp4
S'distance'
p5
aF119.18426895141602
aa(lp6
S'timestamp'
p7
aF7.703372955322266
aatp8
Rp9
.ccollections
OrderedDict
p0
((lp1
(lp2
S'state'
p3
aI0
aa(lp4
S'distance'
p5
aF119.18426895141602
aa(lp6
S'timestamp'
p7
aF7.70347785949707
aatp8
Rp9
.ccollections
OrderedDict
p0
((lp1
(lp2
S'state'
p3
aI0
aa(lp4
S'distance'
p5
aF119.18426895141602
aa(lp6
S'timestamp'
p7
aF7.71294903755188
aatp8
Rp9
.ccollections
OrderedDict
p0
((lp1
(lp2
S'state'
p3
aI0
aa(lp4
S'distance'
p5
aF119.18426895141602
aa(lp6
S'timestamp'
p7
aF7.71343994140625
aatp8
Rp9
.ccollections
OrderedDict
p0
((lp1
(lp2
S'state'
p3
aI0
aa(lp4
S'distance'
p5
aF119.18426895141602
aa(lp6
S'timestamp'
p7
aF7.733101844787598
aatp8
Rp9
.ccollections
OrderedDict
p0
((lp1
(lp2
S'state'
p3
aI0
aa(lp4
S'distance'
p5
aF119.18426895141602
aa(lp6
S'timestamp'
p7
aF7.733180999755859
aatp8
Rp9
.ccollections
OrderedDict
p0
((lp1
(lp2
S'state'
p3
aI0
aa(lp4
S'distance'
p5
aF119.18426895141602
aa(lp6
S'timestamp'
p7
aF7.733248949050903
aatp8
Rp9
.ccollections
OrderedDict
p0
((lp1
(lp2
S'state'
p3
aI0
aa(lp4
S'distance'
p5
aF119.18426895141602
aa(lp6
S'timestamp'
p7
aF7.73416805267334
aatp8
Rp9
.ccollections
OrderedDict
p0
((lp1
(lp2
S'state'
p3
aI0
aa(lp4
S'distance'
p5
aF119.18426895141602
aa(lp6
S'timestamp'
p7
aF7.742964029312134
aatp8
Rp9
.ccollections
OrderedDict
p0
((lp1
(lp2
S'state'
p3
aI0
aa(lp4
S'distance'
p5
aF119.18426895141602
aa(lp6
S'timestamp'
p7
aF7.743237018585205
aatp8
Rp9
.ccollections
OrderedDict
p0
((lp1
(lp2
S'state'
p3
aI0
aa(lp4
S'distance'
p5
aF119.18426895141602
aa(lp6
S'timestamp'
p7
aF7.752938985824585
aatp8
Rp9
.ccollections
OrderedDict
p0
((lp1
(lp2
S'state'
p3
aI0
aa(lp4
S'distance'
p5
aF119.18426895141602
aa(lp6
S'timestamp'
p7
aF7.753365993499756
aatp8
Rp9
.ccollections
OrderedDict
p0
((lp1
(lp2
S'state'
p3
aI0
aa(lp4
S'distance'
p5
aF119.18426895141602
aa(lp6
S'timestamp'
p7
aF7.762508869171143
aatp8
Rp9
.ccollections
OrderedDict
p0
((lp1
(lp2
S'state'
p3
aI0
aa(lp4
S'distance'
p5
aF119.18426895141602
aa(lp6
S'timestamp'
p7
aF7.762894868850708
aatp8
Rp9
.ccollections
OrderedDict
p0
((lp1
(lp2
S'state'
p3
aI0
aa(lp4
S'distance'
p5
aF119.18426895141602
aa(lp6
S'timestamp'
p7
aF7.772505044937134
aatp8
Rp9
.ccollections
OrderedDict
p0
((lp1
(lp2
S'state'
p3
aI0
aa(lp4
S'distance'
p5
aF119.18426895141602
aa(lp6
S'timestamp'
p7
aF7.7838640213012695
aatp8
Rp9
.ccollections
OrderedDict
p0
((lp1
(lp2
S'state'
p3
aI0
aa(lp4
S'distance'
p5
aF119.18426895141602
aa(lp6
S'timestamp'
p7
aF7.784502029418945
aatp8
Rp9
.ccollections
OrderedDict
p0
((lp1
(lp2
S'state'
p3
aI0
aa(lp4
S'distance'
p5
aF119.18426895141602
aa(lp6
S'timestamp'
p7
aF7.78509783744812
aatp8
Rp9
.ccollections
OrderedDict
p0
((lp1
(lp2
S'state'
p3
aI0
aa(lp4
S'distance'
p5
aF119.18426895141602
aa(lp6
S'timestamp'
p7
aF7.792741060256958
aatp8
Rp9
.ccollections
OrderedDict
p0
((lp1
(lp2
S'state'
p3
aI0
aa(lp4
S'distance'
p5
aF119.18426895141602
aa(lp6
S'timestamp'
p7
aF7.793334007263184
aatp8
Rp9
.ccollections
OrderedDict
p0
((lp1
(lp2
S'state'
p3
aI0
aa(lp4
S'distance'
p5
aF119.18426895141602
aa(lp6
S'timestamp'
p7
aF7.803177833557129
aatp8
Rp9
.ccollections
OrderedDict
p0
((lp1
(lp2
S'state'
p3
aI0
aa(lp4
S'distance'
p5
aF119.18426895141602
aa(lp6
S'timestamp'
p7
aF7.803254842758179
aatp8
Rp9
.ccollections
OrderedDict
p0
((lp1
(lp2
S'state'
p3
aI0
aa(lp4
S'distance'
p5
aF119.18426895141602
aa(lp6
S'timestamp'
p7
aF7.813030004501343
aatp8
Rp9
.ccollections
OrderedDict
p0
((lp1
(lp2
S'state'
p3
aI0
aa(lp4
S'distance'
p5
aF119.18426895141602
aa(lp6
S'timestamp'
p7
aF7.814409971237183
aatp8
Rp9
.ccollections
OrderedDict
p0
((lp1
(lp2
S'state'
p3
aI0
aa(lp4
S'distance'
p5
aF119.18426895141602
aa(lp6
S'timestamp'
p7
aF7.824256896972656
aatp8
Rp9
.ccollections
OrderedDict
p0
((lp1
(lp2
S'state'
p3
aI0
aa(lp4
S'distance'
p5
aF119.18426895141602
aa(lp6
S'timestamp'
p7
aF7.824997901916504
aatp8
Rp9
.ccollections
OrderedDict
p0
((lp1
(lp2
S'state'
p3
aI0
aa(lp4
S'distance'
p5
aF119.18426895141602
aa(lp6
S'timestamp'
p7
aF7.833333969116211
aatp8
Rp9
.ccollections
OrderedDict
p0
((lp1
(lp2
S'state'
p3
aI0
aa(lp4
S'distance'
p5
aF119.18426895141602
aa(lp6
S'timestamp'
p7
aF7.83341383934021
aatp8
Rp9
.ccollections
OrderedDict
p0
((lp1
(lp2
S'state'
p3
aI0
aa(lp4
S'distance'
p5
aF119.18426895141602
aa(lp6
S'timestamp'
p7
aF7.843173027038574
aatp8
Rp9
.ccollections
OrderedDict
p0
((lp1
(lp2
S'state'
p3
aI0
aa(lp4
S'distance'
p5
aF119.18426895141602
aa(lp6
S'timestamp'
p7
aF7.843265056610107
aatp8
Rp9
.ccollections
OrderedDict
p0
((lp1
(lp2
S'state'
p3
aI0
aa(lp4
S'distance'
p5
aF119.18426895141602
aa(lp6
S'timestamp'
p7
aF7.853330850601196
aatp8
Rp9
.ccollections
OrderedDict
p0
((lp1
(lp2
S'state'
p3
aI0
aa(lp4
S'distance'
p5
aF119.18426895141602
aa(lp6
S'timestamp'
p7
aF7.85392689704895
aatp8
Rp9
.ccollections
OrderedDict
p0
((lp1
(lp2
S'state'
p3
aI0
aa(lp4
S'distance'
p5
aF119.18426895141602
aa(lp6
S'timestamp'
p7
aF7.863220930099487
aatp8
Rp9
.ccollections
OrderedDict
p0
((lp1
(lp2
S'state'
p3
aI0
aa(lp4
S'distance'
p5
aF119.18426895141602
aa(lp6
S'timestamp'
p7
aF7.863352060317993
aatp8
Rp9
.ccollections
OrderedDict
p0
((lp1
(lp2
S'state'
p3
aI0
aa(lp4
S'distance'
p5
aF119.18426895141602
aa(lp6
S'timestamp'
p7
aF7.873159885406494
aatp8
Rp9
.ccollections
OrderedDict
p0
((lp1
(lp2
S'state'
p3
aI0
aa(lp4
S'distance'
p5
aF119.18426895141602
aa(lp6
S'timestamp'
p7
aF7.873234987258911
aatp8
Rp9
.ccollections
OrderedDict
p0
((lp1
(lp2
S'state'
p3
aI0
aa(lp4
S'distance'
p5
aF119.18426895141602
aa(lp6
S'timestamp'
p7
aF7.883137941360474
aatp8
Rp9
.ccollections
OrderedDict
p0
((lp1
(lp2
S'state'
p3
aI0
aa(lp4
S'distance'
p5
aF119.18426895141602
aa(lp6
S'timestamp'
p7
aF7.883219003677368
aatp8
Rp9
.ccollections
OrderedDict
p0
((lp1
(lp2
S'state'
p3
aI0
aa(lp4
S'distance'
p5
aF119.18426895141602
aa(lp6
S'timestamp'
p7
aF7.892676830291748
aatp8
Rp9
.ccollections
OrderedDict
p0
((lp1
(lp2
S'state'
p3
aI0
aa(lp4
S'distance'
p5
aF119.18426895141602
aa(lp6
S'timestamp'
p7
aF7.892863035202026
aatp8
Rp9
.ccollections
OrderedDict
p0
((lp1
(lp2
S'state'
p3
aI0
aa(lp4
S'distance'
p5
aF119.18426895141602
aa(lp6
S'timestamp'
p7
aF7.9040820598602295
aatp8
Rp9
.ccollections
OrderedDict
p0
((lp1
(lp2
S'state'
p3
aI0
aa(lp4
S'distance'
p5
aF119.18426895141602
aa(lp6
S'timestamp'
p7
aF7.905235052108765
aatp8
Rp9
.ccollections
OrderedDict
p0
((lp1
(lp2
S'state'
p3
aI0
aa(lp4
S'distance'
p5
aF119.18426895141602
aa(lp6
S'timestamp'
p7
aF7.924015998840332
aatp8
Rp9
.ccollections
OrderedDict
p0
((lp1
(lp2
S'state'
p3
aI0
aa(lp4
S'distance'
p5
aF119.18426895141602
aa(lp6
S'timestamp'
p7
aF7.924113035202026
aatp8
Rp9
.ccollections
OrderedDict
p0
((lp1
(lp2
S'state'
p3
aI0
aa(lp4
S'distance'
p5
aF119.18426895141602
aa(lp6
S'timestamp'
p7
aF7.924190998077393
aatp8
Rp9
.ccollections
OrderedDict
p0
((lp1
(lp2
S'state'
p3
aI0
aa(lp4
S'distance'
p5
aF119.18426895141602
aa(lp6
S'timestamp'
p7
aF7.9250710010528564
aatp8
Rp9
.ccollections
OrderedDict
p0
((lp1
(lp2
S'state'
p3
aI0
aa(lp4
S'distance'
p5
aF119.18426895141602
aa(lp6
S'timestamp'
p7
aF7.9327309131622314
aatp8
Rp9
.ccollections
OrderedDict
p0
((lp1
(lp2
S'state'
p3
aI0
aa(lp4
S'distance'
p5
aF119.18426895141602
aa(lp6
S'timestamp'
p7
aF7.9328179359436035
aatp8
Rp9
.ccollections
OrderedDict
p0
((lp1
(lp2
S'state'
p3
aI0
aa(lp4
S'distance'
p5
aF119.18426895141602
aa(lp6
S'timestamp'
p7
aF7.943476915359497
aatp8
Rp9
.ccollections
OrderedDict
p0
((lp1
(lp2
S'state'
p3
aI0
aa(lp4
S'distance'
p5
aF119.18426895141602
aa(lp6
S'timestamp'
p7
aF7.944202899932861
aatp8
Rp9
.ccollections
OrderedDict
p0
((lp1
(lp2
S'state'
p3
aI0
aa(lp4
S'distance'
p5
aF119.18426895141602
aa(lp6
S'timestamp'
p7
aF7.952709913253784
aatp8
Rp9
.ccollections
OrderedDict
p0
((lp1
(lp2
S'state'
p3
aI0
aa(lp4
S'distance'
p5
aF119.18426895141602
aa(lp6
S'timestamp'
p7
aF7.953376054763794
aatp8
Rp9
.ccollections
OrderedDict
p0
((lp1
(lp2
S'state'
p3
aI0
aa(lp4
S'distance'
p5
aF119.18426895141602
aa(lp6
S'timestamp'
p7
aF7.963359832763672
aatp8
Rp9
.ccollections
OrderedDict
p0
((lp1
(lp2
S'state'
p3
aI0
aa(lp4
S'distance'
p5
aF119.18426895141602
aa(lp6
S'timestamp'
p7
aF7.96347188949585
aatp8
Rp9
.ccollections
OrderedDict
p0
((lp1
(lp2
S'state'
p3
aI0
aa(lp4
S'distance'
p5
aF119.18426895141602
aa(lp6
S'timestamp'
p7
aF7.97276496887207
aatp8
Rp9
.ccollections
OrderedDict
p0
((lp1
(lp2
S'state'
p3
aI0
aa(lp4
S'distance'
p5
aF119.18426895141602
aa(lp6
S'timestamp'
p7
aF7.97325587272644
aatp8
Rp9
.ccollections
OrderedDict
p0
((lp1
(lp2
S'state'
p3
aI0
aa(lp4
S'distance'
p5
aF119.18426895141602
aa(lp6
S'timestamp'
p7
aF7.982936859130859
aatp8
Rp9
.ccollections
OrderedDict
p0
((lp1
(lp2
S'state'
p3
aI0
aa(lp4
S'distance'
p5
aF119.18426895141602
aa(lp6
S'timestamp'
p7
aF7.983139991760254
aatp8
Rp9
.ccollections
OrderedDict
p0
((lp1
(lp2
S'state'
p3
aI0
aa(lp4
S'distance'
p5
aF119.18426895141602
aa(lp6
S'timestamp'
p7
aF7.993238925933838
aatp8
Rp9
.ccollections
OrderedDict
p0
((lp1
(lp2
S'state'
p3
aI0
aa(lp4
S'distance'
p5
aF119.18426895141602
aa(lp6
S'timestamp'
p7
aF7.993321895599365
aatp8
Rp9
.ccollections
OrderedDict
p0
((lp1
(lp2
S'state'
p3
aI0
aa(lp4
S'distance'
p5
aF119.18426895141602
aa(lp6
S'timestamp'
p7
aF8.003276824951172
aatp8
Rp9
.ccollections
OrderedDict
p0
((lp1
(lp2
S'state'
p3
aI0
aa(lp4
S'distance'
p5
aF119.18426895141602
aa(lp6
S'timestamp'
p7
aF8.003422021865845
aatp8
Rp9
.