ccollections
OrderedDict
p0
((lp1
(lp2
S'state'
p3
aI0
aa(lp4
S'distance'
p5
aF374.8914489746094
aa(lp6
S'timestamp'
p7
aF0.006860971450805664
aatp8
Rp9
.ccollections
OrderedDict
p0
((lp1
(lp2
S'state'
p3
aI0
aa(lp4
S'distance'
p5
aF374.8914489746094
aa(lp6
S'timestamp'
p7
aF0.00761103630065918
aatp8
Rp9
.ccollections
OrderedDict
p0
((lp1
(lp2
S'state'
p3
aI0
aa(lp4
S'distance'
p5
aF374.8914489746094
aa(lp6
S'timestamp'
p7
aF0.018433809280395508
aatp8
Rp9
.ccollections
OrderedDict
p0
((lp1
(lp2
S'state'
p3
aI0
aa(lp4
S'distance'
p5
aF374.8914489746094
aa(lp6
S'timestamp'
p7
aF0.018553972244262695
aatp8
Rp9
.ccollections
OrderedDict
p0
((lp1
(lp2
S'state'
p3
aI0
aa(lp4
S'distance'
p5
aF374.8914489746094
aa(lp6
S'timestamp'
p7
aF0.026517868041992188
aatp8
Rp9
.ccollections
OrderedDict
p0
((lp1
(lp2
S'state'
p3
aI0
aa(lp4
S'distance'
p5
aF374.8914489746094
aa(lp6
S'timestamp'
p7
aF0.027020931243896484
aatp8
Rp9
.ccollections
OrderedDict
p0
((lp1
(lp2
S'state'
p3
aI0
aa(lp4
S'distance'
p5
aF374.8914489746094
aa(lp6
S'timestamp'
p7
aF0.037400007247924805
aatp8
Rp9
.ccollections
OrderedDict
p0
((lp1
(lp2
S'state'
p3
aI0
aa(lp4
S'distance'
p5
aF374.8914489746094
aa(lp6
S'timestamp'
p7
aF0.03774595260620117
aatp8
Rp9
.ccollections
OrderedDict
p0
((lp1
(lp2
S'state'
p3
aI0
aa(lp4
S'distance'
p5
aF374.8914489746094
aa(lp6
S'timestamp'
p7
aF0.04733085632324219
aatp8
Rp9
.ccollections
OrderedDict
p0
((lp1
(lp2
S'state'
p3
aI0
aa(lp4
S'distance'
p5
aF374.8914489746094
aa(lp6
S'timestamp'
p7
aF0.04830193519592285
aatp8
Rp9
.ccollections
OrderedDict
p0
((lp1
(lp2
S'state'
p3
aI0
aa(lp4
S'distance'
p5
aF374.8914489746094
aa(lp6
S'timestamp'
p7
aF0.05703902244567871
aatp8
Rp9
.ccollections
OrderedDict
p0
((lp1
(lp2
S'state'
p3
aI0
aa(lp4
S'distance'
p5
aF374.8914489746094
aa(lp6
S'timestamp'
p7
aF0.05768704414367676
aatp8
Rp9
.ccollections
OrderedDict
p0
((lp1
(lp2
S'state'
p3
aI0
aa(lp4
S'distance'
p5
aF374.8914489746094
aa(lp6
S'timestamp'
p7
aF0.06677389144897461
aatp8
Rp9
.ccollections
OrderedDict
p0
((lp1
(lp2
S'state'
p3
aI0
aa(lp4
S'distance'
p5
aF374.8914489746094
aa(lp6
S'timestamp'
p7
aF0.06686782836914062
aatp8
Rp9
.ccollections
OrderedDict
p0
((lp1
(lp2
S'state'
p3
aI0
aa(lp4
S'distance'
p5
aF374.8914489746094
aa(lp6
S'timestamp'
p7
aF0.07681703567504883
aatp8
Rp9
.ccollections
OrderedDict
p0
((lp1
(lp2
S'state'
p3
aI0
aa(lp4
S'distance'
p5
aF374.8914489746094
aa(lp6
S'timestamp'
p7
aF0.0773320198059082
aatp8
Rp9
.ccollections
OrderedDict
p0
((lp1
(lp2
S'state'
p3
aI0
aa(lp4
S'distance'
p5
aF374.8914489746094
aa(lp6
S'timestamp'
p7
aF0.08692383766174316
aatp8
Rp9
.ccollections
OrderedDict
p0
((lp1
(lp2
S'state'
p3
aI0
aa(lp4
S'distance'
p5
aF374.8914489746094
aa(lp6
S'timestamp'
p7
aF0.08846592903137207
aatp8
Rp9
.ccollections
OrderedDict
p0
((lp1
(lp2
S'state'
p3
aI0
aa(lp4
S'distance'
p5
aF374.8914489746094
aa(lp6
S'timestamp'
p7
aF0.09754180908203125
aatp8
Rp9
.ccollections
OrderedDict
p0
((lp1
(lp2
S'state'
p3
aI0
aa(lp4
S'distance'
p5
aF374.8914489746094
aa(lp6
S'timestamp'
p7
aF0.09776091575622559
aatp8
Rp9
.ccollections
OrderedDict
p0
((lp1
(lp2
S'state'
p3
aI0
aa(lp4
S'distance'
p5
aF374.8914489746094
aa(lp6
S'timestamp'
p7
aF0.10687899589538574
aatp8
Rp9
.ccollections
OrderedDict
p0
((lp1
(lp2
S'state'
p3
aI0
aa(lp4
S'distance'
p5
aF374.8914489746094
aa(lp6
S'timestamp'
p7
aF0.10773086547851562
aatp8
Rp9
.ccollections
OrderedDict
p0
((lp1
(lp2
S'state'
p3
aI0
aa(lp4
S'distance'
p5
aF374.8914489746094
aa(lp6
S'timestamp'
p7
aF0.11755681037902832
aatp8
Rp9
.ccollections
OrderedDict
p0
((lp1
(lp2
S'state'
p3
aI0
aa(lp4
S'distance'
p5
aF374.8914489746094
aa(lp6
S'timestamp'
p7
aF0.11770081520080566
aatp8
Rp9
.ccollections
OrderedDict
p0
((lp1
(lp2
S'state'
p3
aI0
aa(lp4
S'distance'
p5
aF374.8914489746094
aa(lp6
S'timestamp'
p7
aF0.12729787826538086
aatp8
Rp9
.ccollections
OrderedDict
p0
((lp1
(lp2
S'state'
p3
aI0
aa(lp4
S'distance'
p5
aF374.8914489746094
aa(lp6
S'timestamp'
p7
aF0.12737393379211426
aatp8
Rp9
.ccollections
OrderedDict
p0
((lp1
(lp2
S'state'
p3
aI0
aa(lp4
S'distance'
p5
aF374.8914489746094
aa(lp6
S'timestamp'
p7
aF0.13752102851867676
aatp8
Rp9
.ccollections
OrderedDict
p0
((lp1
(lp2
S'state'
p3
aI0
aa(lp4
S'distance'
p5
aF374.8914489746094
aa(lp6
S'timestamp'
p7
aF0.14730381965637207
aatp8
Rp9
.ccollections
OrderedDict
p0
((lp1
(lp2
S'state'
p3
aI0
aa(lp4
S'distance'
p5
aF374.8914489746094
aa(lp6
S'timestamp'
p7
aF0.14738798141479492
aatp8
Rp9
.ccollections
OrderedDict
p0
((lp1
(lp2
S'state'
p3
aI0
aa(lp4
S'distance'
p5
aF374.8914489746094
aa(lp6
S'timestamp'
p7
aF0.14748096466064453
aatp8
Rp9
.ccollections
OrderedDict
p0
((lp1
(lp2
S'state'
p3
aI0
aa(lp4
S'distance'
p5
aF374.8914489746094
aa(lp6
S'timestamp'
p7
aF0.15730690956115723
aatp8
Rp9
.ccollections
OrderedDict
p0
((lp1
(lp2
S'state'
p3
aI0
aa(lp4
S'distance'
p5
aF374.8914489746094
aa(lp6
S'timestamp'
p7
aF0.1573929786682129
aatp8
Rp9
.ccollections
OrderedDict
p0
((lp1
(lp2
S'state'
p3
aI0
aa(lp4
S'distance'
p5
aF374.8914489746094
aa(lp6
S'timestamp'
p7
aF0.16717791557312012
aatp8
Rp9
.ccollections
OrderedDict
p0
((lp1
(lp2
S'state'
p3
aI0
aa(lp4
S'distance'
p5
aF374.8914489746094
aa(lp6
S'timestamp'
p7
aF0.1672499179840088
aatp8
Rp9
.ccollections
OrderedDict
p0
((lp1
(lp2
S'state'
p3
aI0
aa(lp4
S'distance'
p5
aF374.8914489746094
aa(lp6
S'timestamp'
p7
aF0.17795896530151367
aatp8
Rp9
.ccollections
OrderedDict
p0
((lp1
(lp2
S'state'
p3
aI0
aa(lp4
S'distance'
p5
aF374.8914489746094
aa(lp6
S'timestamp'
p7
aF0.1780409812927246
aatp8
Rp9
.ccollections
OrderedDict
p0
((lp1
(lp2
S'state'
p3
aI0
aa(lp4
S'distance'
p5
aF374.8914489746094
aa(lp6
S'timestamp'
p7
aF0.18722295761108398
aatp8
Rp9
.ccollections
OrderedDict
p0
((lp1
(lp2
S'state'
p3
aI0
aa(lp4
S'distance'
p5
aF374.8914489746094
aa(lp6
S'timestamp'
p7
aF0.1872999668121338
aatp8
Rp9
.ccollections
OrderedDict
p0
((lp1
(lp2
S'state'
p3
aI0
aa(lp4
S'distance'
p5
aF374.8914489746094
aa(lp6
S'timestamp'
p7
aF0.2082059383392334
aatp8
Rp9
.ccollections
OrderedDict
p0
((lp1
(lp2
S'state'
p3
aI0
aa(lp4
S'distance'
p5
aF374.8914489746094
aa(lp6
S'timestamp'
p7
aF0.20828580856323242
aatp8
Rp9
.ccollections
OrderedDict
p0
((lp1
(lp2
S'state'
p3
aI0
aa(lp4
S'distance'
p5
aF374.8914489746094
aa(lp6
S'timestamp'
p7
aF0.20835399627685547
aatp8
Rp9
.ccollections
OrderedDict
p0
((lp1
(lp2
S'state'
p3
aI0
aa(lp4
S'distance'
p5
aF374.8914489746094
aa(lp6
S'timestamp'
p7
aF0.2084488868713379
aatp8
Rp9
.ccollections
OrderedDict
p0
((lp1
(lp2
S'state'
p3
aI0
aa(lp4
S'distance'
p5
aF374.8914489746094
aa(lp6
S'timestamp'
p7
aF0.21719002723693848
aatp8
Rp9
.ccollections
OrderedDict
p0
((lp1
(lp2
S'state'
p3
aI0
aa(lp4
S'distance'
p5
aF374.8914489746094
aa(lp6
S'timestamp'
p7
aF0.21733593940734863
aatp8
Rp9
.ccollections
OrderedDict
p0
((lp1
(lp2
S'state'
p3
aI0
aa(lp4
S'distance'
p5
aF374.8914489746094
aa(lp6
S'timestamp'
p7
aF0.2267169952392578
aatp8
Rp9
.ccollections
OrderedDict
p0
((lp1
(lp2
S'state'
p3
aI0
aa(lp4
S'distance'
p5
aF374.8914489746094
aa(lp6
S'timestamp'
p7
aF0.2274010181427002
aatp8
Rp9
.ccollections
OrderedDict
p0
((lp1
(lp2
S'state'
p3
aI0
aa(lp4
S'distance'
p5
aF374.8914489746094
aa(lp6
S'timestamp'
p7
aF0.23702788352966309
aatp8
Rp9
.ccollections
OrderedDict
p0
((lp1
(lp2
S'state'
p3
aI0
aa(lp4
S'distance'
p5
aF374.8914489746094
aa(lp6
S'timestamp'
p7
aF0.2371070384979248
aatp8
Rp9
.ccollections
OrderedDict
p0
((lp1
(lp2
S'state'
p3
aI0
aa(lp4
S'distance'
p5
aF374.8914489746094
aa(lp6
S'timestamp'
p7
aF0.24647092819213867
aatp8
Rp9
.ccollections
OrderedDict
p0
((lp1
(lp2
S'state'
p3
aI0
aa(lp4
S'distance'
p5
aF374.8914489746094
aa(lp6
S'timestamp'
p7
aF0.24703693389892578
aatp8
Rp9
.ccollections
OrderedDict
p0
((lp1
(lp2
S'state'
p3
aI0
aa(lp4
S'distance'
p5
aF374.8914489746094
aa(lp6
S'timestamp'
p7
aF0.2569878101348877
aatp8
Rp9
.ccollections
OrderedDict
p0
((lp1
(lp2
S'state'
p3
aI0
aa(lp4
S'distance'
p5
aF374.8914489746094
aa(lp6
S'timestamp'
p7
aF0.2571108341217041
aatp8
Rp9
.ccollections
OrderedDict
p0
((lp1
(lp2
S'state'
p3
aI0
aa(lp4
S'distance'
p5
aF374.8914489746094
aa(lp6
S'timestamp'
p7
aF0.26730895042419434
aatp8
Rp9
.ccollections
OrderedDict
p0
((lp1
(lp2
S'state'
p3
aI0
aa(lp4
S'distance'
p5
aF374.8914489746094
aa(lp6
S'timestamp'
p7
aF0.2673828601837158
aatp8
Rp9
.ccollections
OrderedDict
p0
((lp1
(lp2
S'state'
p3
aI0
aa(lp4
S'distance'
p5
aF374.8914489746094
aa(lp6
S'timestamp'
p7
aF0.27704882621765137
aatp8
Rp9
.ccollections
OrderedDict
p0
((lp1
(lp2
S'state'
p3
aI0
aa(lp4
S'distance'
p5
aF374.8914489746094
aa(lp6
S'timestamp'
p7
aF0.28648996353149414
aatp8
Rp9
.ccollections
OrderedDict
p0
((lp1
(lp2
S'state'
p3
aI0
aa(lp4
S'distance'
p5
aF374.8914489746094
aa(lp6
S'timestamp'
p7
aF0.2869129180908203
aatp8
Rp9
.ccollections
OrderedDict
p0
((lp1
(lp2
S'state'
p3
aI0
aa(lp4
S'distance'
p5
aF374.8914489746094
aa(lp6
S'timestamp'
p7
aF0.28736090660095215
aatp8
Rp9
.ccollections
OrderedDict
p0
((lp1
(lp2
S'state'
p3
aI0
aa(lp4
S'distance'
p5
aF374.8914489746094
aa(lp6
S'timestamp'
p7
aF0.29666686058044434
aatp8
Rp9
.ccollections
OrderedDict
p0
((lp1
(lp2
S'state'
p3
aI0
aa(lp4
S'distance'
p5
aF374.8914489746094
aa(lp6
S'timestamp'
p7
aF0.2976808547973633
aatp8
Rp9
.ccollections
OrderedDict
p0
((lp1
(lp2
S'state'
p3
aI0
aa(lp4
S'distance'
p5
aF374.8914489746094
aa(lp6
S'timestamp'
p7
aF0.30786991119384766
aatp8
Rp9
.ccollections
OrderedDict
p0
((lp1
(lp2
S'state'
p3
aI0
aa(lp4
S'distance'
p5
aF374.8914489746094
aa(lp6
S'timestamp'
p7
aF0.30794692039489746
aatp8
Rp9
.ccollections
OrderedDict
p0
((lp1
(lp2
S'state'
p3
aI0
aa(lp4
S'distance'
p5
aF374.8914489746094
aa(lp6
S'timestamp'
p7
aF0.31717896461486816
aatp8
Rp9
.ccollections
OrderedDict
p0
((lp1
(lp2
S'state'
p3
aI0
aa(lp4
S'distance'
p5
aF374.8914489746094
aa(lp6
S'timestamp'
p7
aF0.31728386878967285
aatp8
Rp9
.ccollections
OrderedDict
p0
((lp1
(lp2
S'state'
p3
aI0
aa(lp4
S'distance'
p5
aF374.8914489746094
aa(lp6
S'timestamp'
p7
aF0.32727694511413574
aatp8
Rp9
.ccollections
OrderedDict
p0
((lp1
(lp2
S'state'
p3
aI0
aa(lp4
S'distance'
p5
aF374.8914489746094
aa(lp6
S'timestamp'
p7
aF0.3273580074310303
aatp8
Rp9
.ccollections
OrderedDict
p0
((lp1
(lp2
S'state'
p3
aI0
aa(lp4
S'distance'
p5
aF374.8914489746094
aa(lp6
S'timestamp'
p7
aF0.3366580009460449
aatp8
Rp9
.ccollections
OrderedDict
p0
((lp1
(lp2
S'state'
p3
aI0
aa(lp4
S'distance'
p5
aF374.8914489746094
aa(lp6
S'timestamp'
p7
aF0.337177038192749
aatp8
Rp9
.ccollections
OrderedDict
p0
((lp1
(lp2
S'state'
p3
aI0
aa(lp4
S'distance'
p5
aF374.8914489746094
aa(lp6
S'timestamp'
p7
aF0.34702181816101074
aatp8
Rp9
.ccollections
OrderedDict
p0
((lp1
(lp2
S'state'
p3
aI0
aa(lp4
S'distance'
p5
aF374.8914489746094
aa(lp6
S'timestamp'
p7
aF0.34783101081848145
aatp8
Rp9
.ccollections
OrderedDict
p0
((lp1
(lp2
S'state'
p3
aI0
aa(lp4
S'distance'
p5
aF374.8914489746094
aa(lp6
S'timestamp'
p7
aF0.35683298110961914
aatp8
Rp9
.ccollections
OrderedDict
p0
((lp1
(lp2
S'state'
p3
aI0
aa(lp4
S'distance'
p5
aF374.8914489746094
aa(lp6
S'timestamp'
p7
aF0.3570249080657959
aatp8
Rp9
.ccollections
OrderedDict
p0
((lp1
(lp2
S'state'
p3
aI0
aa(lp4
S'distance'
p5
aF374.8914489746094
aa(lp6
S'timestamp'
p7
aF0.3673229217529297
aatp8
Rp9
.ccollections
OrderedDict
p0
((lp1
(lp2
S'state'
p3
aI0
aa(lp4
S'distance'
p5
aF374.8914489746094
aa(lp6
S'timestamp'
p7
aF0.3674049377441406
aatp8
Rp9
.ccollections
OrderedDict
p0
((lp1
(lp2
S'state'
p3
aI0
aa(lp4
S'distance'
p5
aF374.8914489746094
aa(lp6
S'timestamp'
p7
aF0.37678098678588867
aatp8
Rp9
.ccollections
OrderedDict
p0
((lp1
(lp2
S'state'
p3
aI0
aa(lp4
S'distance'
p5
aF374.8914489746094
aa(lp6
S'timestamp'
p7
aF0.37773895263671875
aatp8
Rp9
.ccollections
OrderedDict
p0
((lp1
(lp2
S'state'
p3
aI0
aa(lp4
S'distance'
p5
aF374.8914489746094
aa(lp6
S'timestamp'
p7
aF0.38683390617370605
aatp8
Rp9
.ccollections
OrderedDict
p0
((lp1
(lp2
S'state'
p3
aI0
aa(lp4
S'distance'
p5
aF374.8914489746094
aa(lp6
S'timestamp'
p7
aF0.3871300220489502
aatp8
Rp9
.ccollections
OrderedDict
p0
((lp1
(lp2
S'state'
p3
aI0
aa(lp4
S'distance'
p5
aF374.8914489746094
aa(lp6
S'timestamp'
p7
aF0.396730899810791
aatp8
Rp9
.ccollections
OrderedDict
p0
((lp1
(lp2
S'state'
p3
aI0
aa(lp4
S'distance'
p5
aF374.8914489746094
aa(lp6
S'timestamp'
p7
aF0.39759087562561035
aatp8
Rp9
.ccollections
OrderedDict
p0
((lp1
(lp2
S'state'
p3
aI0
aa(lp4
S'distance'
p5
aF374.8914489746094
aa(lp6
S'timestamp'
p7
aF0.4067058563232422
aatp8
Rp9
.ccollections
OrderedDict
p0
((lp1
(lp2
S'state'
p3
aI0
aa(lp4
S'distance'
p5
aF374.8914489746094
aa(lp6
S'timestamp'
p7
aF0.4075620174407959
aatp8
Rp9
.ccollections
OrderedDict
p0
((lp1
(lp2
S'state'
p3
aI0
aa(lp4
S'distance'
p5
aF374.8914489746094
aa(lp6
S'timestamp'
p7
aF0.4174180030822754
aatp8
Rp9
.ccollections
OrderedDict
p0
((lp1
(lp2
S'state'
p3
aI0
aa(lp4
S'distance'
p5
aF374.8914489746094
aa(lp6
S'timestamp'
p7
aF0.4182698726654053
aatp8
Rp9
.ccollections
OrderedDict
p0
((lp1
(lp2
S'state'
p3
aI0
aa(lp4
S'distance'
p5
aF374.8914489746094
aa(lp6
S'timestamp'
p7
aF0.42671990394592285
aatp8
Rp9
.ccollections
OrderedDict
p0
((lp1
(lp2
S'state'
p3
aI0
aa(lp4
S'distance'
p5
aF374.8914489746094
aa(lp6
S'timestamp'
p7
aF0.42713093757629395
aatp8
Rp9
.ccollections
OrderedDict
p0
((lp1
(lp2
S'state'
p3
aI0
aa(lp4
S'distance'
p5
aF374.8914489746094
aa(lp6
S'timestamp'
p7
aF0.43709492683410645
aatp8
Rp9
.ccollections
OrderedDict
p0
((lp1
(lp2
S'state'
p3
aI0
aa(lp4
S'distance'
p5
aF374.8914489746094
aa(lp6
S'timestamp'
p7
aF0.43717503547668457
aatp8
Rp9
.ccollections
OrderedDict
p0
((lp1
(lp2
S'state'
p3
aI0
aa(lp4
S'distance'
p5
aF374.8914489746094
aa(lp6
S'timestamp'
p7
aF0.4463648796081543
aatp8
Rp9
.ccollections
OrderedDict
p0
((lp1
(lp2
S'state'
p3
aI0
aa(lp4
S'distance'
p5
aF374.8914489746094
aa(lp6
S'timestamp'
p7
aF0.44688987731933594
aatp8
Rp9
.ccollections
OrderedDict
p0
((lp1
(lp2
S'state'
p3
aI0
aa(lp4
S'distance'
p5
aF374.8914489746094
aa(lp6
S'timestamp'
p7
aF0.45662498474121094
aatp8
Rp9
.ccollections
OrderedDict
p0
((lp1
(lp2
S'state'
p3
aI0
aa(lp4
S'distance'
p5
aF374.8914489746094
aa(lp6
S'timestamp'
p7
aF0.4576849937438965
aatp8
Rp9
.ccollections
OrderedDict
p0
((lp1
(lp2
S'state'
p3
aI0
aa(lp4
S'distance'
p5
aF374.8914489746094
aa(lp6
S'timestamp'
p7
aF0.4667229652404785
aatp8
Rp9
.ccollections
OrderedDict
p0
((lp1
(lp2
S'state'
p3
aI0
aa(lp4
S'distance'
p5
aF374.8914489746094
aa(lp6
S'timestamp'
p7
aF0.4680929183959961
aatp8
Rp9
.ccollections
OrderedDict
p0
((lp1
(lp2
S'state'
p3
aI0
aa(lp4
S'distance'
p5
aF374.8914489746094
aa(lp6
S'timestamp'
p7
aF0.47684502601623535
aatp8
Rp9
.ccollections
OrderedDict
p0
((lp1
(lp2
S'state'
p3
aI0
aa(lp4
S'distance'
p5
aF374.8914489746094
aa(lp6
S'timestamp'
p7
aF0.47730398178100586
aatp8
Rp9
.ccollections
OrderedDict
p0
((lp1
(lp2
S'state'
p3
aI0
aa(lp4
S'distance'
p5
aF374.8914489746094
aa(lp6
S'timestamp'
p7
aF0.4866938591003418
aatp8
Rp9
.ccollections
OrderedDict
p0
((lp1
(lp2
S'state'
p3
aI0
aa(lp4
S'distance'
p5
aF374.8914489746094
aa(lp6
S'timestamp'
p7
aF0.4871668815612793
aatp8
Rp9
.ccollections
OrderedDict
p0
((lp1
(lp2
S'state'
p3
aI0
aa(lp4
S'distance'
p5
aF374.8914489746094
aa(lp6
S'timestamp'
p7
aF0.49640393257141113
aatp8
Rp9
.ccollections
OrderedDict
p0
((lp1
(lp2
S'state'
p3
aI0
aa(lp4
S'distance'
p5
aF374.8914489746094
aa(lp6
S'timestamp'
p7
aF0.49755191802978516
aatp8
Rp9
.ccollections
OrderedDict
p0
((lp1
(lp2
S'state'
p3
aI0
aa(lp4
S'distance'
p5
aF374.8914489746094
aa(lp6
S'timestamp'
p7
aF0.507584810256958
aatp8
Rp9
.ccollections
OrderedDict
p0
((lp1
(lp2
S'state'
p3
aI0
aa(lp4
S'distance'
p5
aF374.8914489746094
aa(lp6
S'timestamp'
p7
aF0.5077869892120361
aatp8
Rp9
.ccollections
OrderedDict
p0
((lp1
(lp2
S'state'
p3
aI0
aa(lp4
S'distance'
p5
aF374.8914489746094
aa(lp6
S'timestamp'
p7
aF0.5169808864593506
aatp8
Rp9
.ccollections
OrderedDict
p0
((lp1
(lp2
S'state'
p3
aI0
aa(lp4
S'distance'
p5
aF374.8914489746094
aa(lp6
S'timestamp'
p7
aF0.5175979137420654
aatp8
Rp9
.ccollections
OrderedDict
p0
((lp1
(lp2
S'state'
p3
aI0
aa(lp4
S'distance'
p5
aF374.8914489746094
aa(lp6
S'timestamp'
p7
aF0.5268490314483643
aatp8
Rp9
.ccollections
OrderedDict
p0
((lp1
(lp2
S'state'
p3
aI0
aa(lp4
S'distance'
p5
aF374.8914489746094
aa(lp6
S'timestamp'
p7
aF0.5270018577575684
aatp8
Rp9
.ccollections
OrderedDict
p0
((lp1
(lp2
S'state'
p3
aI0
aa(lp4
S'distance'
p5
aF374.8914489746094
aa(lp6
S'timestamp'
p7
aF0.5374178886413574
aatp8
Rp9
.ccollections
OrderedDict
p0
((lp1
(lp2
S'state'
p3
aI0
aa(lp4
S'distance'
p5
aF374.8914489746094
aa(lp6
S'timestamp'
p7
aF0.5376789569854736
aatp8
Rp9
.ccollections
OrderedDict
p0
((lp1
(lp2
S'state'
p3
aI0
aa(lp4
S'distance'
p5
aF374.8914489746094
aa(lp6
S'timestamp'
p7
aF0.547083854675293
aatp8
Rp9
.ccollections
OrderedDict
p0
((lp1
(lp2
S'state'
p3
aI0
aa(lp4
S'distance'
p5
aF374.8914489746094
aa(lp6
S'timestamp'
p7
aF0.5475208759307861
aatp8
Rp9
.ccollections
OrderedDict
p0
((lp1
(lp2
S'state'
p3
aI0
aa(lp4
S'distance'
p5
aF374.8914489746094
aa(lp6
S'timestamp'
p7
aF0.5566179752349854
aatp8
Rp9
.ccollections
OrderedDict
p0
((lp1
(lp2
S'state'
p3
aI0
aa(lp4
S'distance'
p5
aF374.8914489746094
aa(lp6
S'timestamp'
p7
aF0.5570158958435059
aatp8
Rp9
.ccollections
OrderedDict
p0
((lp1
(lp2
S'state'
p3
aI0
aa(lp4
S'distance'
p5
aF374.8914489746094
aa(lp6
S'timestamp'
p7
aF0.5663700103759766
aatp8
Rp9
.ccollections
OrderedDict
p0
((lp1
(lp2
S'state'
p3
aI0
aa(lp4
S'distance'
p5
aF374.8914489746094
aa(lp6
S'timestamp'
p7
aF0.567011833190918
aatp8
Rp9
.ccollections
OrderedDict
p0
((lp1
(lp2
S'state'
p3
aI0
aa(lp4
S'distance'
p5
aF374.8914489746094
aa(lp6
S'timestamp'
p7
aF0.5766928195953369
aatp8
Rp9
.ccollections
OrderedDict
p0
((lp1
(lp2
S'state'
p3
aI0
aa(lp4
S'distance'
p5
aF374.8914489746094
aa(lp6
S'timestamp'
p7
aF0.577711820602417
aatp8
Rp9
.ccollections
OrderedDict
p0
((lp1
(lp2
S'state'
p3
aI0
aa(lp4
S'distance'
p5
aF374.8914489746094
aa(lp6
S'timestamp'
p7
aF0.5869989395141602
aatp8
Rp9
.ccollections
OrderedDict
p0
((lp1
(lp2
S'state'
p3
aI0
aa(lp4
S'distance'
p5
aF374.8914489746094
aa(lp6
S'timestamp'
p7
aF0.5883879661560059
aatp8
Rp9
.ccollections
OrderedDict
p0
((lp1
(lp2
S'state'
p3
aI0
aa(lp4
S'distance'
p5
aF374.8914489746094
aa(lp6
S'timestamp'
p7
aF0.5972719192504883
aatp8
Rp9
.ccollections
OrderedDict
p0
((lp1
(lp2
S'state'
p3
aI0
aa(lp4
S'distance'
p5
aF374.8914489746094
aa(lp6
S'timestamp'
p7
aF0.5973830223083496
aatp8
Rp9
.ccollections
OrderedDict
p0
((lp1
(lp2
S'state'
p3
aI0
aa(lp4
S'distance'
p5
aF374.8914489746094
aa(lp6
S'timestamp'
p7
aF0.6073698997497559
aatp8
Rp9
.ccollections
OrderedDict
p0
((lp1
(lp2
S'state'
p3
aI0
aa(lp4
S'distance'
p5
aF374.8914489746094
aa(lp6
S'timestamp'
p7
aF0.6124348640441895
aatp8
Rp9
.ccollections
OrderedDict
p0
((lp1
(lp2
S'state'
p3
aI0
aa(lp4
S'distance'
p5
aF374.8914489746094
aa(lp6
S'timestamp'
p7
aF0.6195180416107178
aatp8
Rp9
.ccollections
OrderedDict
p0
((lp1
(lp2
S'state'
p3
aI0
aa(lp4
S'distance'
p5
aF374.8914489746094
aa(lp6
S'timestamp'
p7
aF0.620776891708374
aatp8
Rp9
.ccollections
OrderedDict
p0
((lp1
(lp2
S'state'
p3
aI0
aa(lp4
S'distance'
p5
aF374.8914489746094
aa(lp6
S'timestamp'
p7
aF0.6272778511047363
aatp8
Rp9
.ccollections
OrderedDict
p0
((lp1
(lp2
S'state'
p3
aI0
aa(lp4
S'distance'
p5
aF374.8914489746094
aa(lp6
S'timestamp'
p7
aF0.6293578147888184
aatp8
Rp9
.ccollections
OrderedDict
p0
((lp1
(lp2
S'state'
p3
aI0
aa(lp4
S'distance'
p5
aF374.8914489746094
aa(lp6
S'timestamp'
p7
aF0.6368749141693115
aatp8
Rp9
.ccollections
OrderedDict
p0
((lp1
(lp2
S'state'
p3
aI0
aa(lp4
S'distance'
p5
aF374.8914489746094
aa(lp6
S'timestamp'
p7
aF0.6371040344238281
aatp8
Rp9
.ccollections
OrderedDict
p0
((lp1
(lp2
S'state'
p3
aI0
aa(lp4
S'distance'
p5
aF374.8914489746094
aa(lp6
S'timestamp'
p7
aF0.6465809345245361
aatp8
Rp9
.ccollections
OrderedDict
p0
((lp1
(lp2
S'state'
p3
aI0
aa(lp4
S'distance'
p5
aF374.8914489746094
aa(lp6
S'timestamp'
p7
aF0.6473100185394287
aatp8
Rp9
.ccollections
OrderedDict
p0
((lp1
(lp2
S'state'
p3
aI0
aa(lp4
S'distance'
p5
aF374.8914489746094
aa(lp6
S'timestamp'
p7
aF0.6670758724212646
aatp8
Rp9
.ccollections
OrderedDict
p0
((lp1
(lp2
S'state'
p3
aI0
aa(lp4
S'distance'
p5
aF374.8914489746094
aa(lp6
S'timestamp'
p7
aF0.6671788692474365
aatp8
Rp9
.ccollections
OrderedDict
p0
((lp1
(lp2
S'state'
p3
aI0
aa(lp4
S'distance'
p5
aF374.8914489746094
aa(lp6
S'timestamp'
p7
aF0.6683359146118164
aatp8
Rp9
.ccollections
OrderedDict
p0
((lp1
(lp2
S'state'
p3
aI0
aa(lp4
S'distance'
p5
aF374.8914489746094
aa(lp6
S'timestamp'
p7
aF0.668936014175415
aatp8
Rp9
.ccollections
OrderedDict
p0
((lp1
(lp2
S'state'
p3
aI0
aa(lp4
S'distance'
p5
aF374.8914489746094
aa(lp6
S'timestamp'
p7
aF0.6765530109405518
aatp8
Rp9
.ccollections
OrderedDict
p0
((lp1
(lp2
S'state'
p3
aI0
aa(lp4
S'distance'
p5
aF374.8914489746094
aa(lp6
S'timestamp'
p7
aF0.6768689155578613
aatp8
Rp9
.ccollections
OrderedDict
p0
((lp1
(lp2
S'state'
p3
aI0
aa(lp4
S'distance'
p5
aF374.8914489746094
aa(lp6
S'timestamp'
p7
aF0.6865508556365967
aatp8
Rp9
.ccollections
OrderedDict
p0
((lp1
(lp2
S'state'
p3
aI0
aa(lp4
S'distance'
p5
aF374.8914489746094
aa(lp6
S'timestamp'
p7
aF0.6871938705444336
aatp8
Rp9
.ccollections
OrderedDict
p0
((lp1
(lp2
S'state'
p3
aI0
aa(lp4
S'distance'
p5
aF374.8914489746094
aa(lp6
S'timestamp'
p7
aF0.697113037109375
aatp8
Rp9
.ccollections
OrderedDict
p0
((lp1
(lp2
S'state'
p3
aI0
aa(lp4
S'distance'
p5
aF374.8914489746094
aa(lp6
S'timestamp'
p7
aF0.7165360450744629
aatp8
Rp9
.ccollections
OrderedDict
p0
((lp1
(lp2
S'state'
p3
aI0
aa(lp4
S'distance'
p5
aF374.8914489746094
aa(lp6
S'timestamp'
p7
aF0.7287490367889404
aatp8
Rp9
.ccollections
OrderedDict
p0
((lp1
(lp2
S'state'
p3
aI0
aa(lp4
S'distance'
p5
aF374.8914489746094
aa(lp6
S'timestamp'
p7
aF0.7288198471069336
aatp8
Rp9
.ccollections
OrderedDict
p0
((lp1
(lp2
S'state'
p3
aI0
aa(lp4
S'distance'
p5
aF374.8914489746094
aa(lp6
S'timestamp'
p7
aF0.7288858890533447
aatp8
Rp9
.ccollections
OrderedDict
p0
((lp1
(lp2
S'state'
p3
aI0
aa(lp4
S'distance'
p5
aF374.8914489746094
aa(lp6
S'timestamp'
p7
aF0.7289600372314453
aatp8
Rp9
.ccollections
OrderedDict
p0
((lp1
(lp2
S'state'
p3
aI0
aa(lp4
S'distance'
p5
aF374.8914489746094
aa(lp6
S'timestamp'
p7
aF0.736954927444458
aatp8
Rp9
.ccollections
OrderedDict
p0
((lp1
(lp2
S'state'
p3
aI0
aa(lp4
S'distance'
p5
aF374.8914489746094
aa(lp6
S'timestamp'
p7
aF0.737177848815918
aatp8
Rp9
.ccollections
OrderedDict
p0
((lp1
(lp2
S'state'
p3
aI0
aa(lp4
S'distance'
p5
aF374.8914489746094
aa(lp6
S'timestamp'
p7
aF0.737246036529541
aatp8
Rp9
.ccollections
OrderedDict
p0
((lp1
(lp2
S'state'
p3
aI0
aa(lp4
S'distance'
p5
aF374.8914489746094
aa(lp6
S'timestamp'
p7
aF0.7382450103759766
aatp8
Rp9
.ccollections
OrderedDict
p0
((lp1
(lp2
S'state'
p3
aI0
aa(lp4
S'distance'
p5
aF374.8914489746094
aa(lp6
S'timestamp'
p7
aF0.7472438812255859
aatp8
Rp9
.ccollections
OrderedDict
p0
((lp1
(lp2
S'state'
p3
aI0
aa(lp4
S'distance'
p5
aF374.8914489746094
aa(lp6
S'timestamp'
p7
aF0.7474079132080078
aatp8
Rp9
.ccollections
OrderedDict
p0
((lp1
(lp2
S'state'
p3
aI0
aa(lp4
S'distance'
p5
aF374.8914489746094
aa(lp6
S'timestamp'
p7
aF0.756511926651001
aatp8
Rp9
.ccollections
OrderedDict
p0
((lp1
(lp2
S'state'
p3
aI0
aa(lp4
S'distance'
p5
aF374.8914489746094
aa(lp6
S'timestamp'
p7
aF0.7574498653411865
aatp8
Rp9
.ccollections
OrderedDict
p0
((lp1
(lp2
S'state'
p3
aI0
aa(lp4
S'distance'
p5
aF374.8914489746094
aa(lp6
S'timestamp'
p7
aF0.7672319412231445
aatp8
Rp9
.ccollections
OrderedDict
p0
((lp1
(lp2
S'state'
p3
aI0
aa(lp4
S'distance'
p5
aF374.8914489746094
aa(lp6
S'timestamp'
p7
aF0.7673249244689941
aatp8
Rp9
.ccollections
OrderedDict
p0
((lp1
(lp2
S'state'
p3
aI0
aa(lp4
S'distance'
p5
aF374.8914489746094
aa(lp6
S'timestamp'
p7
aF0.7766849994659424
aatp8
Rp9
.ccollections
OrderedDict
p0
((lp1
(lp2
S'state'
p3
aI0
aa(lp4
S'distance'
p5
aF374.8914489746094
aa(lp6
S'timestamp'
p7
aF0.7771649360656738
aatp8
Rp9
.ccollections
OrderedDict
p0
((lp1
(lp2
S'state'
p3
aI0
aa(lp4
S'distance'
p5
aF374.8914489746094
aa(lp6
S'timestamp'
p7
aF0.7867989540100098
aatp8
Rp9
.ccollections
OrderedDict
p0
((lp1
(lp2
S'state'
p3
aI0
aa(lp4
S'distance'
p5
aF374.8914489746094
aa(lp6
S'timestamp'
p7
aF0.7869808673858643
aatp8
Rp9
.ccollections
OrderedDict
p0
((lp1
(lp2
S'state'
p3
aI0
aa(lp4
S'distance'
p5
aF374.8914489746094
aa(lp6
S'timestamp'
p7
aF0.7966749668121338
aatp8
Rp9
.ccollections
OrderedDict
p0
((lp1
(lp2
S'state'
p3
aI0
aa(lp4
S'distance'
p5
aF374.8914489746094
aa(lp6
S'timestamp'
p7
aF0.7977869510650635
aatp8
Rp9
.ccollections
OrderedDict
p0
((lp1
(lp2
S'state'
p3
aI0
aa(lp4
S'distance'
p5
aF374.8914489746094
aa(lp6
S'timestamp'
p7
aF0.8065528869628906
aatp8
Rp9
.ccollections
OrderedDict
p0
((lp1
(lp2
S'state'
p3
aI0
aa(lp4
S'distance'
p5
aF374.8914489746094
aa(lp6
S'timestamp'
p7
aF0.8073949813842773
aatp8
Rp9
.ccollections
OrderedDict
p0
((lp1
(lp2
S'state'
p3
aI0
aa(lp4
S'distance'
p5
aF374.8914489746094
aa(lp6
S'timestamp'
p7
aF0.8172659873962402
aatp8
Rp9
.ccollections
OrderedDict
p0
((lp1
(lp2
S'state'
p3
aI0
aa(lp4
S'distance'
p5
aF374.8914489746094
aa(lp6
S'timestamp'
p7
aF0.8174288272857666
aatp8
Rp9
.ccollections
OrderedDict
p0
((lp1
(lp2
S'state'
p3
aI0
aa(lp4
S'distance'
p5
aF374.8914489746094
aa(lp6
S'timestamp'
p7
aF0.8271470069885254
aatp8
Rp9
.ccollections
OrderedDict
p0
((lp1
(lp2
S'state'
p3
aI0
aa(lp4
S'distance'
p5
aF374.8914489746094
aa(lp6
S'timestamp'
p7
aF0.8272278308868408
aatp8
Rp9
.ccollections
OrderedDict
p0
((lp1
(lp2
S'state'
p3
aI0
aa(lp4
S'distance'
p5
aF374.8914489746094
aa(lp6
S'timestamp'
p7
aF0.8371398448944092
aatp8
Rp9
.ccollections
OrderedDict
p0
((lp1
(lp2
S'state'
p3
aI0
aa(lp4
S'distance'
p5
aF374.8914489746094
aa(lp6
S'timestamp'
p7
aF0.8376219272613525
aatp8
Rp9
.ccollections
OrderedDict
p0
((lp1
(lp2
S'state'
p3
aI0
aa(lp4
S'distance'
p5
aF374.8914489746094
aa(lp6
S'timestamp'
p7
aF0.8470509052276611
aatp8
Rp9
.ccollections
OrderedDict
p0
((lp1
(lp2
S'state'
p3
aI0
aa(lp4
S'distance'
p5
aF374.8914489746094
aa(lp6
S'timestamp'
p7
aF0.8568458557128906
aatp8
Rp9
.ccollections
OrderedDict
p0
((lp1
(lp2
S'state'
p3
aI0
aa(lp4
S'distance'
p5
aF374.8914489746094
aa(lp6
S'timestamp'
p7
aF0.8595888614654541
aatp8
Rp9
.ccollections
OrderedDict
p0
((lp1
(lp2
S'state'
p3
aI0
aa(lp4
S'distance'
p5
aF374.8914489746094
aa(lp6
S'timestamp'
p7
aF0.8601539134979248
aatp8
Rp9
.ccollections
OrderedDict
p0
((lp1
(lp2
S'state'
p3
aI0
aa(lp4
S'distance'
p5
aF374.8914489746094
aa(lp6
S'timestamp'
p7
aF0.867156982421875
aatp8
Rp9
.ccollections
OrderedDict
p0
((lp1
(lp2
S'state'
p3
aI0
aa(lp4
S'distance'
p5
aF374.8914489746094
aa(lp6
S'timestamp'
p7
aF0.8672339916229248
aatp8
Rp9
.ccollections
OrderedDict
p0
((lp1
(lp2
S'state'
p3
aI0
aa(lp4
S'distance'
p5
aF374.8914489746094
aa(lp6
S'timestamp'
p7
aF0.8770408630371094
aatp8
Rp9
.ccollections
OrderedDict
p0
((lp1
(lp2
S'state'
p3
aI0
aa(lp4
S'distance'
p5
aF374.8914489746094
aa(lp6
S'timestamp'
p7
aF0.8771188259124756
aatp8
Rp9
.ccollections
OrderedDict
p0
((lp1
(lp2
S'state'
p3
aI0
aa(lp4
S'distance'
p5
aF374.8914489746094
aa(lp6
S'timestamp'
p7
aF0.8868908882141113
aatp8
Rp9
.ccollections
OrderedDict
p0
((lp1
(lp2
S'state'
p3
aI0
aa(lp4
S'distance'
p5
aF374.8914489746094
aa(lp6
S'timestamp'
p7
aF0.8873560428619385
aatp8
Rp9
.ccollections
OrderedDict
p0
((lp1
(lp2
S'state'
p3
aI0
aa(lp4
S'distance'
p5
aF374.8914489746094
aa(lp6
S'timestamp'
p7
aF0.8972258567810059
aatp8
Rp9
.ccollections
OrderedDict
p0
((lp1
(lp2
S'state'
p3
aI0
aa(lp4
S'distance'
p5
aF374.8914489746094
aa(lp6
S'timestamp'
p7
aF0.8973679542541504
aatp8
Rp9
.ccollections
OrderedDict
p0
((lp1
(lp2
S'state'
p3
aI0
aa(lp4
S'distance'
p5
aF374.8914489746094
aa(lp6
S'timestamp'
p7
aF0.9072208404541016
aatp8
Rp9
.ccollections
OrderedDict
p0
((lp1
(lp2
S'state'
p3
aI0
aa(lp4
S'distance'
p5
aF374.8914489746094
aa(lp6
S'timestamp'
p7
aF0.9073050022125244
aatp8
Rp9
.ccollections
OrderedDict
p0
((lp1
(lp2
S'state'
p3
aI0
aa(lp4
S'distance'
p5
aF374.8914489746094
aa(lp6
S'timestamp'
p7
aF0.9171600341796875
aatp8
Rp9
.ccollections
OrderedDict
p0
((lp1
(lp2
S'state'
p3
aI0
aa(lp4
S'distance'
p5
aF374.8914489746094
aa(lp6
S'timestamp'
p7
aF0.9172379970550537
aatp8
Rp9
.ccollections
OrderedDict
p0
((lp1
(lp2
S'state'
p3
aI0
aa(lp4
S'distance'
p5
aF374.8914489746094
aa(lp6
S'timestamp'
p7
aF0.9372768402099609
aatp8
Rp9
.ccollections
OrderedDict
p0
((lp1
(lp2
S'state'
p3
aI0
aa(lp4
S'distance'
p5
aF374.8914489746094
aa(lp6
S'timestamp'
p7
aF0.957597017288208
aatp8
Rp9
.ccollections
OrderedDict
p0
((lp1
(lp2
S'state'
p3
aI0
aa(lp4
S'distance'
p5
aF374.8914489746094
aa(lp6
S'timestamp'
p7
aF0.9577028751373291
aatp8
Rp9
.ccollections
OrderedDict
p0
((lp1
(lp2
S'state'
p3
aI0
aa(lp4
S'distance'
p5
aF374.8914489746094
aa(lp6
S'timestamp'
p7
aF0.957960844039917
aatp8
Rp9
.ccollections
OrderedDict
p0
((lp1
(lp2
S'state'
p3
aI0
aa(lp4
S'distance'
p5
aF374.8914489746094
aa(lp6
S'timestamp'
p7
aF0.9580318927764893
aatp8
Rp9
.ccollections
OrderedDict
p0
((lp1
(lp2
S'state'
p3
aI0
aa(lp4
S'distance'
p5
aF374.8914489746094
aa(lp6
S'timestamp'
p7
aF0.9671778678894043
aatp8
Rp9
.ccollections
OrderedDict
p0
((lp1
(lp2
S'state'
p3
aI0
aa(lp4
S'distance'
p5
aF374.8914489746094
aa(lp6
S'timestamp'
p7
aF0.9673738479614258
aatp8
Rp9
.ccollections
OrderedDict
p0
((lp1
(lp2
S'state'
p3
aI0
aa(lp4
S'distance'
p5
aF374.8914489746094
aa(lp6
S'timestamp'
p7
aF0.9689338207244873
aatp8
Rp9
.ccollections
OrderedDict
p0
((lp1
(lp2
S'state'
p3
aI0
aa(lp4
S'distance'
p5
aF374.8914489746094
aa(lp6
S'timestamp'
p7
aF0.9690029621124268
aatp8
Rp9
.ccollections
OrderedDict
p0
((lp1
(lp2
S'state'
p3
aI0
aa(lp4
S'distance'
p5
aF374.8914489746094
aa(lp6
S'timestamp'
p7
aF0.9771058559417725
aatp8
Rp9
.ccollections
OrderedDict
p0
((lp1
(lp2
S'state'
p3
aI0
aa(lp4
S'distance'
p5
aF374.8914489746094
aa(lp6
S'timestamp'
p7
aF0.977564811706543
aatp8
Rp9
.ccollections
OrderedDict
p0
((lp1
(lp2
S'state'
p3
aI0
aa(lp4
S'distance'
p5
aF374.8914489746094
aa(lp6
S'timestamp'
p7
aF0.9779188632965088
aatp8
Rp9
.ccollections
OrderedDict
p0
((lp1
(lp2
S'state'
p3
aI0
aa(lp4
S'distance'
p5
aF374.8914489746094
aa(lp6
S'timestamp'
p7
aF0.9867489337921143
aatp8
Rp9
.ccollections
OrderedDict
p0
((lp1
(lp2
S'state'
p3
aI0
aa(lp4
S'distance'
p5
aF374.8914489746094
aa(lp6
S'timestamp'
p7
aF0.9874119758605957
aatp8
Rp9
.ccollections
OrderedDict
p0
((lp1
(lp2
S'state'
p3
aI0
aa(lp4
S'distance'
p5
aF374.8914489746094
aa(lp6
S'timestamp'
p7
aF1.0094900131225586
aatp8
Rp9
.ccollections
OrderedDict
p0
((lp1
(lp2
S'state'
p3
aI0
aa(lp4
S'distance'
p5
aF374.8914489746094
aa(lp6
S'timestamp'
p7
aF1.0095679759979248
aatp8
Rp9
.ccollections
OrderedDict
p0
((lp1
(lp2
S'state'
p3
aI0
aa(lp4
S'distance'
p5
aF374.8914489746094
aa(lp6
S'timestamp'
p7
aF1.009634017944336
aatp8
Rp9
.ccollections
OrderedDict
p0
((lp1
(lp2
S'state'
p3
aI0
aa(lp4
S'distance'
p5
aF374.8914489746094
aa(lp6
S'timestamp'
p7
aF1.0096969604492188
aatp8
Rp9
.ccollections
OrderedDict
p0
((lp1
(lp2
S'state'
p3
aI0
aa(lp4
S'distance'
p5
aF374.8914489746094
aa(lp6
S'timestamp'
p7
aF1.0172009468078613
aatp8
Rp9
.ccollections
OrderedDict
p0
((lp1
(lp2
S'state'
p3
aI0
aa(lp4
S'distance'
p5
aF374.8914489746094
aa(lp6
S'timestamp'
p7
aF1.0182249546051025
aatp8
Rp9
.ccollections
OrderedDict
p0
((lp1
(lp2
S'state'
p3
aI0
aa(lp4
S'distance'
p5
aF374.8914489746094
aa(lp6
S'timestamp'
p7
aF1.027392864227295
aatp8
Rp9
.ccollections
OrderedDict
p0
((lp1
(lp2
S'state'
p3
aI0
aa(lp4
S'distance'
p5
aF374.8914489746094
aa(lp6
S'timestamp'
p7
aF1.0274839401245117
aatp8
Rp9
.ccollections
OrderedDict
p0
((lp1
(lp2
S'state'
p3
aI0
aa(lp4
S'distance'
p5
aF374.8914489746094
aa(lp6
S'timestamp'
p7
aF1.037104845046997
aatp8
Rp9
.ccollections
OrderedDict
p0
((lp1
(lp2
S'state'
p3
aI0
aa(lp4
S'distance'
p5
aF374.8914489746094
aa(lp6
S'timestamp'
p7
aF1.0371840000152588
aatp8
Rp9
.ccollections
OrderedDict
p0
((lp1
(lp2
S'state'
p3
aI0
aa(lp4
S'distance'
p5
aF374.8914489746094
aa(lp6
S'timestamp'
p7
aF1.058168888092041
aatp8
Rp9
.ccollections
OrderedDict
p0
((lp1
(lp2
S'state'
p3
aI0
aa(lp4
S'distance'
p5
aF374.8914489746094
aa(lp6
S'timestamp'
p7
aF1.0582609176635742
aatp8
Rp9
.ccollections
OrderedDict
p0
((lp1
(lp2
S'state'
p3
aI0
aa(lp4
S'distance'
p5
aF374.8914489746094
aa(lp6
S'timestamp'
p7
aF1.0583319664001465
aatp8
Rp9
.ccollections
OrderedDict
p0
((lp1
(lp2
S'state'
p3
aI0
aa(lp4
S'distance'
p5
aF374.8914489746094
aa(lp6
S'timestamp'
p7
aF1.0583980083465576
aatp8
Rp9
.ccollections
OrderedDict
p0
((lp1
(lp2
S'state'
p3
aI0
aa(lp4
S'distance'
p5
aF374.8914489746094
aa(lp6
S'timestamp'
p7
aF1.0668158531188965
aatp8
Rp9
.ccollections
OrderedDict
p0
((lp1
(lp2
S'state'
p3
aI0
aa(lp4
S'distance'
p5
aF374.8914489746094
aa(lp6
S'timestamp'
p7
aF1.0669009685516357
aatp8
Rp9
.ccollections
OrderedDict
p0
((lp1
(lp2
S'state'
p3
aI0
aa(lp4
S'distance'
p5
aF374.8914489746094
aa(lp6
S'timestamp'
p7
aF1.0771489143371582
aatp8
Rp9
.ccollections
OrderedDict
p0
((lp1
(lp2
S'state'
p3
aI0
aa(lp4
S'distance'
p5
aF374.8914489746094
aa(lp6
S'timestamp'
p7
aF1.0775258541107178
aatp8
Rp9
.ccollections
OrderedDict
p0
((lp1
(lp2
S'state'
p3
aI0
aa(lp4
S'distance'
p5
aF374.8914489746094
aa(lp6
S'timestamp'
p7
aF1.087101936340332
aatp8
Rp9
.ccollections
OrderedDict
p0
((lp1
(lp2
S'state'
p3
aI0
aa(lp4
S'distance'
p5
aF374.8914489746094
aa(lp6
S'timestamp'
p7
aF1.0871899127960205
aatp8
Rp9
.ccollections
OrderedDict
p0
((lp1
(lp2
S'state'
p3
aI0
aa(lp4
S'distance'
p5
aF374.8914489746094
aa(lp6
S'timestamp'
p7
aF1.0972788333892822
aatp8
Rp9
.ccollections
OrderedDict
p0
((lp1
(lp2
S'state'
p3
aI0
aa(lp4
S'distance'
p5
aF374.8914489746094
aa(lp6
S'timestamp'
p7
aF1.0976669788360596
aatp8
Rp9
.ccollections
OrderedDict
p0
((lp1
(lp2
S'state'
p3
aI0
aa(lp4
S'distance'
p5
aF374.8914489746094
aa(lp6
S'timestamp'
p7
aF1.1271660327911377
aatp8
Rp9
.ccollections
OrderedDict
p0
((lp1
(lp2
S'state'
p3
aI0
aa(lp4
S'distance'
p5
aF374.8914489746094
aa(lp6
S'timestamp'
p7
aF1.128098964691162
aatp8
Rp9
.ccollections
OrderedDict
p0
((lp1
(lp2
S'state'
p3
aI0
aa(lp4
S'distance'
p5
aF374.8914489746094
aa(lp6
S'timestamp'
p7
aF1.128199815750122
aatp8
Rp9
.ccollections
OrderedDict
p0
((lp1
(lp2
S'state'
p3
aI0
aa(lp4
S'distance'
p5
aF374.8914489746094
aa(lp6
S'timestamp'
p7
aF1.1289238929748535
aatp8
Rp9
.ccollections
OrderedDict
p0
((lp1
(lp2
S'state'
p3
aI0
aa(lp4
S'distance'
p5
aF374.8914489746094
aa(lp6
S'timestamp'
p7
aF1.1380410194396973
aatp8
Rp9
.ccollections
OrderedDict
p0
((lp1
(lp2
S'state'
p3
aI0
aa(lp4
S'distance'
p5
aF374.8914489746094
aa(lp6
S'timestamp'
p7
aF1.1382670402526855
aatp8
Rp9
.ccollections
OrderedDict
p0
((lp1
(lp2
S'state'
p3
aI0
aa(lp4
S'distance'
p5
aF374.8914489746094
aa(lp6
S'timestamp'
p7
aF1.1387898921966553
aatp8
Rp9
.ccollections
OrderedDict
p0
((lp1
(lp2
S'state'
p3
aI0
aa(lp4
S'distance'
p5
aF374.8914489746094
aa(lp6
S'timestamp'
p7
aF1.1395950317382812
aatp8
Rp9
.ccollections
OrderedDict
p0
((lp1
(lp2
S'state'
p3
aI0
aa(lp4
S'distance'
p5
aF374.8914489746094
aa(lp6
S'timestamp'
p7
aF1.147001028060913
aatp8
Rp9
.ccollections
OrderedDict
p0
((lp1
(lp2
S'state'
p3
aI0
aa(lp4
S'distance'
p5
aF374.8914489746094
aa(lp6
S'timestamp'
p7
aF1.1472668647766113
aatp8
Rp9
.ccollections
OrderedDict
p0
((lp1
(lp2
S'state'
p3
aI0
aa(lp4
S'distance'
p5
aF374.8914489746094
aa(lp6
S'timestamp'
p7
aF1.1572790145874023
aatp8
Rp9
.ccollections
OrderedDict
p0
((lp1
(lp2
S'state'
p3
aI0
aa(lp4
S'distance'
p5
aF374.8914489746094
aa(lp6
S'timestamp'
p7
aF1.1574020385742188
aatp8
Rp9
.ccollections
OrderedDict
p0
((lp1
(lp2
S'state'
p3
aI0
aa(lp4
S'distance'
p5
aF374.8914489746094
aa(lp6
S'timestamp'
p7
aF1.1671788692474365
aatp8
Rp9
.ccollections
OrderedDict
p0
((lp1
(lp2
S'state'
p3
aI0
aa(lp4
S'distance'
p5
aF374.8914489746094
aa(lp6
S'timestamp'
p7
aF1.1672890186309814
aatp8
Rp9
.ccollections
OrderedDict
p0
((lp1
(lp2
S'state'
p3
aI0
aa(lp4
S'distance'
p5
aF374.8914489746094
aa(lp6
S'timestamp'
p7
aF1.1777269840240479
aatp8
Rp9
.ccollections
OrderedDict
p0
((lp1
(lp2
S'state'
p3
aI0
aa(lp4
S'distance'
p5
aF374.8914489746094
aa(lp6
S'timestamp'
p7
aF1.178407907485962
aatp8
Rp9
.ccollections
OrderedDict
p0
((lp1
(lp2
S'state'
p3
aI0
aa(lp4
S'distance'
p5
aF374.8914489746094
aa(lp6
S'timestamp'
p7
aF1.1873409748077393
aatp8
Rp9
.ccollections
OrderedDict
p0
((lp1
(lp2
S'state'
p3
aI0
aa(lp4
S'distance'
p5
aF374.8914489746094
aa(lp6
S'timestamp'
p7
aF1.1874208450317383
aatp8
Rp9
.ccollections
OrderedDict
p0
((lp1
(lp2
S'state'
p3
aI0
aa(lp4
S'distance'
p5
aF374.8914489746094
aa(lp6
S'timestamp'
p7
aF1.1969678401947021
aatp8
Rp9
.ccollections
OrderedDict
p0
((lp1
(lp2
S'state'
p3
aI0
aa(lp4
S'distance'
p5
aF374.8914489746094
aa(lp6
S'timestamp'
p7
aF1.1974148750305176
aatp8
Rp9
.ccollections
OrderedDict
p0
((lp1
(lp2
S'state'
p3
aI0
aa(lp4
S'distance'
p5
aF374.8914489746094
aa(lp6
S'timestamp'
p7
aF1.2071008682250977
aatp8
Rp9
.ccollections
OrderedDict
p0
((lp1
(lp2
S'state'
p3
aI0
aa(lp4
S'distance'
p5
aF374.8914489746094
aa(lp6
S'timestamp'
p7
aF1.2076678276062012
aatp8
Rp9
.ccollections
OrderedDict
p0
((lp1
(lp2
S'state'
p3
aI0
aa(lp4
S'distance'
p5
aF374.8914489746094
aa(lp6
S'timestamp'
p7
aF1.2166268825531006
aatp8
Rp9
.ccollections
OrderedDict
p0
((lp1
(lp2
S'state'
p3
aI0
aa(lp4
S'distance'
p5
aF374.8914489746094
aa(lp6
S'timestamp'
p7
aF1.2173008918762207
aatp8
Rp9
.ccollections
OrderedDict
p0
((lp1
(lp2
S'state'
p3
aI0
aa(lp4
S'distance'
p5
aF374.8914489746094
aa(lp6
S'timestamp'
p7
aF1.226867914199829
aatp8
Rp9
.ccollections
OrderedDict
p0
((lp1
(lp2
S'state'
p3
aI0
aa(lp4
S'distance'
p5
aF374.8914489746094
aa(lp6
S'timestamp'
p7
aF1.2269530296325684
aatp8
Rp9
.ccollections
OrderedDict
p0
((lp1
(lp2
S'state'
p3
aI0
aa(lp4
S'distance'
p5
aF374.8914489746094
aa(lp6
S'timestamp'
p7
aF1.2467679977416992
aatp8
Rp9
.ccollections
OrderedDict
p0
((lp1
(lp2
S'state'
p3
aI0
aa(lp4
S'distance'
p5
aF374.8914489746094
aa(lp6
S'timestamp'
p7
aF1.2468419075012207
aatp8
Rp9
.ccollections
OrderedDict
p0
((lp1
(lp2
S'state'
p3
aI0
aa(lp4
S'distance'
p5
aF374.8914489746094
aa(lp6
S'timestamp'
p7
aF1.247925043106079
aatp8
Rp9
.ccollections
OrderedDict
p0
((lp1
(lp2
S'state'
p3
aI0
aa(lp4
S'distance'
p5
aF374.8914489746094
aa(lp6
S'timestamp'
p7
aF1.248011827468872
aatp8
Rp9
.ccollections
OrderedDict
p0
((lp1
(lp2
S'state'
p3
aI0
aa(lp4
S'distance'
p5
aF374.8914489746094
aa(lp6
S'timestamp'
p7
aF1.2566189765930176
aatp8
Rp9
.ccollections
OrderedDict
p0
((lp1
(lp2
S'state'
p3
aI0
aa(lp4
S'distance'
p5
aF374.8914489746094
aa(lp6
S'timestamp'
p7
aF1.2568659782409668
aatp8
Rp9
.ccollections
OrderedDict
p0
((lp1
(lp2
S'state'
p3
aI0
aa(lp4
S'distance'
p5
aF374.8914489746094
aa(lp6
S'timestamp'
p7
aF1.2665009498596191
aatp8
Rp9
.ccollections
OrderedDict
p0
((lp1
(lp2
S'state'
p3
aI0
aa(lp4
S'distance'
p5
aF374.8914489746094
aa(lp6
S'timestamp'
p7
aF1.2669689655303955
aatp8
Rp9
.ccollections
OrderedDict
p0
((lp1
(lp2
S'state'
p3
aI0
aa(lp4
S'distance'
p5
aF374.8914489746094
aa(lp6
S'timestamp'
p7
aF1.2766740322113037
aatp8
Rp9
.ccollections
OrderedDict
p0
((lp1
(lp2
S'state'
p3
aI0
aa(lp4
S'distance'
p5
aF374.8914489746094
aa(lp6
S'timestamp'
p7
aF1.2768568992614746
aatp8
Rp9
.ccollections
OrderedDict
p0
((lp1
(lp2
S'state'
p3
aI0
aa(lp4
S'distance'
p5
aF374.8914489746094
aa(lp6
S'timestamp'
p7
aF1.2865419387817383
aatp8
Rp9
.ccollections
OrderedDict
p0
((lp1
(lp2
S'state'
p3
aI0
aa(lp4
S'distance'
p5
aF374.8914489746094
aa(lp6
S'timestamp'
p7
aF1.286803960800171
aatp8
Rp9
.ccollections
OrderedDict
p0
((lp1
(lp2
S'state'
p3
aI0
aa(lp4
S'distance'
p5
aF374.8914489746094
aa(lp6
S'timestamp'
p7
aF1.2966809272766113
aatp8
Rp9
.ccollections
OrderedDict
p0
((lp1
(lp2
S'state'
p3
aI0
aa(lp4
S'distance'
p5
aF374.8914489746094
aa(lp6
S'timestamp'
p7
aF1.2969179153442383
aatp8
Rp9
.ccollections
OrderedDict
p0
((lp1
(lp2
S'state'
p3
aI0
aa(lp4
S'distance'
p5
aF374.8914489746094
aa(lp6
S'timestamp'
p7
aF1.3166799545288086
aatp8
Rp9
.ccollections
OrderedDict
p0
((lp1
(lp2
S'state'
p3
aI0
aa(lp4
S'distance'
p5
aF374.8914489746094
aa(lp6
S'timestamp'
p7
aF1.3169560432434082
aatp8
Rp9
.ccollections
OrderedDict
p0
((lp1
(lp2
S'state'
p3
aI0
aa(lp4
S'distance'
p5
aF374.8914489746094
aa(lp6
S'timestamp'
p7
aF1.3171029090881348
aatp8
Rp9
.ccollections
OrderedDict
p0
((lp1
(lp2
S'state'
p3
aI0
aa(lp4
S'distance'
p5
aF374.8914489746094
aa(lp6
S'timestamp'
p7
aF1.3189418315887451
aatp8
Rp9
.ccollections
OrderedDict
p0
((lp1
(lp2
S'state'
p3
aI0
aa(lp4
S'distance'
p5
aF374.8914489746094
aa(lp6
S'timestamp'
p7
aF1.326542854309082
aatp8
Rp9
.ccollections
OrderedDict
p0
((lp1
(lp2
S'state'
p3
aI0
aa(lp4
S'distance'
p5
aF374.8914489746094
aa(lp6
S'timestamp'
p7
aF1.326859951019287
aatp8
Rp9
.ccollections
OrderedDict
p0
((lp1
(lp2
S'state'
p3
aI0
aa(lp4
S'distance'
p5
aF374.8914489746094
aa(lp6
S'timestamp'
p7
aF1.3366668224334717
aatp8
Rp9
.ccollections
OrderedDict
p0
((lp1
(lp2
S'state'
p3
aI0
aa(lp4
S'distance'
p5
aF374.8914489746094
aa(lp6
S'timestamp'
p7
aF1.337195873260498
aatp8
Rp9
.ccollections
OrderedDict
p0
((lp1
(lp2
S'state'
p3
aI0
aa(lp4
S'distance'
p5
aF374.8914489746094
aa(lp6
S'timestamp'
p7
aF1.346688985824585
aatp8
Rp9
.ccollections
OrderedDict
p0
((lp1
(lp2
S'state'
p3
aI0
aa(lp4
S'distance'
p5
aF374.8914489746094
aa(lp6
S'timestamp'
p7
aF1.3468959331512451
aatp8
Rp9
.ccollections
OrderedDict
p0
((lp1
(lp2
S'state'
p3
aI0
aa(lp4
S'distance'
p5
aF374.8914489746094
aa(lp6
S'timestamp'
p7
aF1.3566670417785645
aatp8
Rp9
.ccollections
OrderedDict
p0
((lp1
(lp2
S'state'
p3
aI0
aa(lp4
S'distance'
p5
aF374.8914489746094
aa(lp6
S'timestamp'
p7
aF1.3568918704986572
aatp8
Rp9
.ccollections
OrderedDict
p0
((lp1
(lp2
S'state'
p3
aI0
aa(lp4
S'distance'
p5
aF374.8914489746094
aa(lp6
S'timestamp'
p7
aF1.366523027420044
aatp8
Rp9
.ccollections
OrderedDict
p0
((lp1
(lp2
S'state'
p3
aI0
aa(lp4
S'distance'
p5
aF374.8914489746094
aa(lp6
S'timestamp'
p7
aF1.3668420314788818
aatp8
Rp9
.ccollections
OrderedDict
p0
((lp1
(lp2
S'state'
p3
aI0
aa(lp4
S'distance'
p5
aF374.8914489746094
aa(lp6
S'timestamp'
p7
aF1.3765599727630615
aatp8
Rp9
.ccollections
OrderedDict
p0
((lp1
(lp2
S'state'
p3
aI0
aa(lp4
S'distance'
p5
aF374.8914489746094
aa(lp6
S'timestamp'
p7
aF1.376983880996704
aatp8
Rp9
.ccollections
OrderedDict
p0
((lp1
(lp2
S'state'
p3
aI0
aa(lp4
S'distance'
p5
aF374.8914489746094
aa(lp6
S'timestamp'
p7
aF1.3864009380340576
aatp8
Rp9
.ccollections
OrderedDict
p0
((lp1
(lp2
S'state'
p3
aI0
aa(lp4
S'distance'
p5
aF374.8914489746094
aa(lp6
S'timestamp'
p7
aF1.3869149684906006
aatp8
Rp9
.ccollections
OrderedDict
p0
((lp1
(lp2
S'state'
p3
aI0
aa(lp4
S'distance'
p5
aF374.8914489746094
aa(lp6
S'timestamp'
p7
aF1.3965749740600586
aatp8
Rp9
.ccollections
OrderedDict
p0
((lp1
(lp2
S'state'
p3
aI0
aa(lp4
S'distance'
p5
aF374.8914489746094
aa(lp6
S'timestamp'
p7
aF1.3969569206237793
aatp8
Rp9
.ccollections
OrderedDict
p0
((lp1
(lp2
S'state'
p3
aI0
aa(lp4
S'distance'
p5
aF374.8914489746094
aa(lp6
S'timestamp'
p7
aF1.4067130088806152
aatp8
Rp9
.ccollections
OrderedDict
p0
((lp1
(lp2
S'state'
p3
aI0
aa(lp4
S'distance'
p5
aF374.8914489746094
aa(lp6
S'timestamp'
p7
aF1.406843900680542
aatp8
Rp9
.ccollections
OrderedDict
p0
((lp1
(lp2
S'state'
p3
aI0
aa(lp4
S'distance'
p5
aF374.8914489746094
aa(lp6
S'timestamp'
p7
aF1.416672945022583
aatp8
Rp9
.ccollections
OrderedDict
p0
((lp1
(lp2
S'state'
p3
aI0
aa(lp4
S'distance'
p5
aF374.8914489746094
aa(lp6
S'timestamp'
p7
aF1.41709303855896
aatp8
Rp9
.ccollections
OrderedDict
p0
((lp1
(lp2
S'state'
p3
aI0
aa(lp4
S'distance'
p5
aF374.8914489746094
aa(lp6
S'timestamp'
p7
aF1.4266958236694336
aatp8
Rp9
.ccollections
OrderedDict
p0
((lp1
(lp2
S'state'
p3
aI0
aa(lp4
S'distance'
p5
aF374.8914489746094
aa(lp6
S'timestamp'
p7
aF1.4268548488616943
aatp8
Rp9
.ccollections
OrderedDict
p0
((lp1
(lp2
S'state'
p3
aI0
aa(lp4
S'distance'
p5
aF374.8914489746094
aa(lp6
S'timestamp'
p7
aF1.4366779327392578
aatp8
Rp9
.ccollections
OrderedDict
p0
((lp1
(lp2
S'state'
p3
aI0
aa(lp4
S'distance'
p5
aF374.8914489746094
aa(lp6
S'timestamp'
p7
aF1.436830997467041
aatp8
Rp9
.ccollections
OrderedDict
p0
((lp1
(lp2
S'state'
p3
aI0
aa(lp4
S'distance'
p5
aF374.8914489746094
aa(lp6
S'timestamp'
p7
aF1.446565866470337
aatp8
Rp9
.ccollections
OrderedDict
p0
((lp1
(lp2
S'state'
p3
aI0
aa(lp4
S'distance'
p5
aF374.8914489746094
aa(lp6
S'timestamp'
p7
aF1.4470059871673584
aatp8
Rp9
.ccollections
OrderedDict
p0
((lp1
(lp2
S'state'
p3
aI0
aa(lp4
S'distance'
p5
aF374.8914489746094
aa(lp6
S'timestamp'
p7
aF1.4567298889160156
aatp8
Rp9
.ccollections
OrderedDict
p0
((lp1
(lp2
S'state'
p3
aI0
aa(lp4
S'distance'
p5
aF374.8914489746094
aa(lp6
S'timestamp'
p7
aF1.4570109844207764
aatp8
Rp9
.ccollections
OrderedDict
p0
((lp1
(lp2
S'state'
p3
aI0
aa(lp4
S'distance'
p5
aF374.8914489746094
aa(lp6
S'timestamp'
p7
aF1.4666738510131836
aatp8
Rp9
.ccollections
OrderedDict
p0
((lp1
(lp2
S'state'
p3
aI0
aa(lp4
S'distance'
p5
aF374.8914489746094
aa(lp6
S'timestamp'
p7
aF1.4668359756469727
aatp8
Rp9
.ccollections
OrderedDict
p0
((lp1
(lp2
S'state'
p3
aI0
aa(lp4
S'distance'
p5
aF374.8914489746094
aa(lp6
S'timestamp'
p7
aF1.4765279293060303
aatp8
Rp9
.ccollections
OrderedDict
p0
((lp1
(lp2
S'state'
p3
aI0
aa(lp4
S'distance'
p5
aF374.8914489746094
aa(lp6
S'timestamp'
p7
aF1.4770119190216064
aatp8
Rp9
.ccollections
OrderedDict
p0
((lp1
(lp2
S'state'
p3
aI0
aa(lp4
S'distance'
p5
aF374.8914489746094
aa(lp6
S'timestamp'
p7
aF1.486407995223999
aatp8
Rp9
.ccollections
OrderedDict
p0
((lp1
(lp2
S'state'
p3
aI0
aa(lp4
S'distance'
p5
aF374.8914489746094
aa(lp6
S'timestamp'
p7
aF1.4869909286499023
aatp8
Rp9
.ccollections
OrderedDict
p0
((lp1
(lp2
S'state'
p3
aI0
aa(lp4
S'distance'
p5
aF374.8914489746094
aa(lp6
S'timestamp'
p7
aF1.4966018199920654
aatp8
Rp9
.ccollections
OrderedDict
p0
((lp1
(lp2
S'state'
p3
aI0
aa(lp4
S'distance'
p5
aF374.8914489746094
aa(lp6
S'timestamp'
p7
aF1.4974579811096191
aatp8
Rp9
.ccollections
OrderedDict
p0
((lp1
(lp2
S'state'
p3
aI0
aa(lp4
S'distance'
p5
aF374.8914489746094
aa(lp6
S'timestamp'
p7
aF1.5067918300628662
aatp8
Rp9
.ccollections
OrderedDict
p0
((lp1
(lp2
S'state'
p3
aI0
aa(lp4
S'distance'
p5
aF374.8914489746094
aa(lp6
S'timestamp'
p7
aF1.5068750381469727
aatp8
Rp9
.ccollections
OrderedDict
p0
((lp1
(lp2
S'state'
p3
aI400
aa(lp4
S'distance'
p5
aF374.8914489746094
aa(lp6
S'timestamp'
p7
aF1.5165588855743408
aatp8
Rp9
.ccollections
OrderedDict
p0
((lp1
(lp2
S'state'
p3
aI400
aa(lp4
S'distance'
p5
aF374.8914489746094
aa(lp6
S'timestamp'
p7
aF1.517197847366333
aatp8
Rp9
.ccollections
OrderedDict
p0
((lp1
(lp2
S'state'
p3
aI400
aa(lp4
S'distance'
p5
aF374.8914489746094
aa(lp6
S'timestamp'
p7
aF1.526669979095459
aatp8
Rp9
.ccollections
OrderedDict
p0
((lp1
(lp2
S'state'
p3
aI400
aa(lp4
S'distance'
p5
aF374.8914489746094
aa(lp6
S'timestamp'
p7
aF1.5271179676055908
aatp8
Rp9
.ccollections
OrderedDict
p0
((lp1
(lp2
S'state'
p3
aI400
aa(lp4
S'distance'
p5
aF374.8914489746094
aa(lp6
S'timestamp'
p7
aF1.5369458198547363
aatp8
Rp9
.ccollections
OrderedDict
p0
((lp1
(lp2
S'state'
p3
aI400
aa(lp4
S'distance'
p5
aF374.8914489746094
aa(lp6
S'timestamp'
p7
aF1.5390498638153076
aatp8
Rp9
.ccollections
OrderedDict
p0
((lp1
(lp2
S'state'
p3
aI400
aa(lp4
S'distance'
p5
aF374.8914489746094
aa(lp6
S'timestamp'
p7
aF1.5499038696289062
aatp8
Rp9
.ccollections
OrderedDict
p0
((lp1
(lp2
S'state'
p3
aI400
aa(lp4
S'distance'
p5
aF374.8914489746094
aa(lp6
S'timestamp'
p7
aF1.5536208152770996
aatp8
Rp9
.ccollections
OrderedDict
p0
((lp1
(lp2
S'state'
p3
aI400
aa(lp4
S'distance'
p5
aF374.8914489746094
aa(lp6
S'timestamp'
p7
aF1.5570719242095947
aatp8
Rp9
.ccollections
OrderedDict
p0
((lp1
(lp2
S'state'
p3
aI400
aa(lp4
S'distance'
p5
aF374.8914489746094
aa(lp6
S'timestamp'
p7
aF1.5571949481964111
aatp8
Rp9
.ccollections
OrderedDict
p0
((lp1
(lp2
S'state'
p3
aI400
aa(lp4
S'distance'
p5
aF374.8914489746094
aa(lp6
S'timestamp'
p7
aF1.5677039623260498
aatp8
Rp9
.ccollections
OrderedDict
p0
((lp1
(lp2
S'state'
p3
aI400
aa(lp4
S'distance'
p5
aF374.8914489746094
aa(lp6
S'timestamp'
p7
aF1.5678620338439941
aatp8
Rp9
.ccollections
OrderedDict
p0
((lp1
(lp2
S'state'
p3
aI400
aa(lp4
S'distance'
p5
aF374.8914489746094
aa(lp6
S'timestamp'
p7
aF1.576725959777832
aatp8
Rp9
.ccollections
OrderedDict
p0
((lp1
(lp2
S'state'
p3
aI400
aa(lp4
S'distance'
p5
aF374.8914489746094
aa(lp6
S'timestamp'
p7
aF1.5772700309753418
aatp8
Rp9
.ccollections
OrderedDict
p0
((lp1
(lp2
S'state'
p3
aI400
aa(lp4
S'distance'
p5
aF374.8914489746094
aa(lp6
S'timestamp'
p7
aF1.5866739749908447
aatp8
Rp9
.ccollections
OrderedDict
p0
((lp1
(lp2
S'state'
p3
aI400
aa(lp4
S'distance'
p5
aF374.8914489746094
aa(lp6
S'timestamp'
p7
aF1.5874028205871582
aatp8
Rp9
.ccollections
OrderedDict
p0
((lp1
(lp2
S'state'
p3
aI400
aa(lp4
S'distance'
p5
aF374.8914489746094
aa(lp6
S'timestamp'
p7
aF1.6066889762878418
aatp8
Rp9
.ccollections
OrderedDict
p0
((lp1
(lp2
S'state'
p3
aI400
aa(lp4
S'distance'
p5
aF374.8914489746094
aa(lp6
S'timestamp'
p7
aF1.6074650287628174
aatp8
Rp9
.ccollections
OrderedDict
p0
((lp1
(lp2
S'state'
p3
aI400
aa(lp4
S'distance'
p5
aF374.8914489746094
aa(lp6
S'timestamp'
p7
aF1.6084659099578857
aatp8
Rp9
.ccollections
OrderedDict
p0
((lp1
(lp2
S'state'
p3
aI400
aa(lp4
S'distance'
p5
aF374.8914489746094
aa(lp6
S'timestamp'
p7
aF1.6093928813934326
aatp8
Rp9
.ccollections
OrderedDict
p0
((lp1
(lp2
S'state'
p3
aI400
aa(lp4
S'distance'
p5
aF374.8914489746094
aa(lp6
S'timestamp'
p7
aF1.6166808605194092
aatp8
Rp9
.ccollections
OrderedDict
p0
((lp1
(lp2
S'state'
p3
aI400
aa(lp4
S'distance'
p5
aF374.8914489746094
aa(lp6
S'timestamp'
p7
aF1.618114948272705
aatp8
Rp9
.ccollections
OrderedDict
p0
((lp1
(lp2
S'state'
p3
aI400
aa(lp4
S'distance'
p5
aF374.8914489746094
aa(lp6
S'timestamp'
p7
aF1.6272590160369873
aatp8
Rp9
.ccollections
OrderedDict
p0
((lp1
(lp2
S'state'
p3
aI400
aa(lp4
S'distance'
p5
aF374.8914489746094
aa(lp6
S'timestamp'
p7
aF1.62733793258667
aatp8
Rp9
.ccollections
OrderedDict
p0
((lp1
(lp2
S'state'
p3
aI400
aa(lp4
S'distance'
p5
aF374.8914489746094
aa(lp6
S'timestamp'
p7
aF1.6365959644317627
aatp8
Rp9
.ccollections
OrderedDict
p0
((lp1
(lp2
S'state'
p3
aI400
aa(lp4
S'distance'
p5
aF374.8914489746094
aa(lp6
S'timestamp'
p7
aF1.6375210285186768
aatp8
Rp9
.ccollections
OrderedDict
p0
((lp1
(lp2
S'state'
p3
aI400
aa(lp4
S'distance'
p5
aF374.8914489746094
aa(lp6
S'timestamp'
p7
aF1.64670991897583
aatp8
Rp9
.ccollections
OrderedDict
p0
((lp1
(lp2
S'state'
p3
aI400
aa(lp4
S'distance'
p5
aF374.8914489746094
aa(lp6
S'timestamp'
p7
aF1.6475229263305664
aatp8
Rp9
.ccollections
OrderedDict
p0
((lp1
(lp2
S'state'
p3
aI400
aa(lp4
S'distance'
p5
aF374.8914489746094
aa(lp6
S'timestamp'
p7
aF1.6573288440704346
aatp8
Rp9
.ccollections
OrderedDict
p0
((lp1
(lp2
S'state'
p3
aI400
aa(lp4
S'distance'
p5
aF374.8914489746094
aa(lp6
S'timestamp'
p7
aF1.6575210094451904
aatp8
Rp9
.ccollections
OrderedDict
p0
((lp1
(lp2
S'state'
p3
aI400
aa(lp4
S'distance'
p5
aF374.8914489746094
aa(lp6
S'timestamp'
p7
aF1.667003870010376
aatp8
Rp9
.ccollections
OrderedDict
p0
((lp1
(lp2
S'state'
p3
aI400
aa(lp4
S'distance'
p5
aF374.8914489746094
aa(lp6
S'timestamp'
p7
aF1.6672778129577637
aatp8
Rp9
.ccollections
OrderedDict
p0
((lp1
(lp2
S'state'
p3
aI400
aa(lp4
S'distance'
p5
aF374.8914489746094
aa(lp6
S'timestamp'
p7
aF1.6783008575439453
aatp8
Rp9
.ccollections
OrderedDict
p0
((lp1
(lp2
S'state'
p3
aI400
aa(lp4
S'distance'
p5
aF374.8914489746094
aa(lp6
S'timestamp'
p7
aF1.6785709857940674
aatp8
Rp9
.ccollections
OrderedDict
p0
((lp1
(lp2
S'state'
p3
aI400
aa(lp4
S'distance'
p5
aF374.8914489746094
aa(lp6
S'timestamp'
p7
aF1.6873769760131836
aatp8
Rp9
.ccollections
OrderedDict
p0
((lp1
(lp2
S'state'
p3
aI400
aa(lp4
S'distance'
p5
aF374.8914489746094
aa(lp6
S'timestamp'
p7
aF1.688546895980835
aatp8
Rp9
.ccollections
OrderedDict
p0
((lp1
(lp2
S'state'
p3
aI400
aa(lp4
S'distance'
p5
aF374.8914489746094
aa(lp6
S'timestamp'
p7
aF1.7071659564971924
aatp8
Rp9
.ccollections
OrderedDict
p0
((lp1
(lp2
S'state'
p3
aI400
aa(lp4
S'distance'
p5
aF374.8914489746094
aa(lp6
S'timestamp'
p7
aF1.7087128162384033
aatp8
Rp9
.ccollections
OrderedDict
p0
((lp1
(lp2
S'state'
p3
aI400
aa(lp4
S'distance'
p5
aF374.8914489746094
aa(lp6
S'timestamp'
p7
aF1.7087969779968262
aatp8
Rp9
.ccollections
OrderedDict
p0
((lp1
(lp2
S'state'
p3
aI400
aa(lp4
S'distance'
p5
aF374.8914489746094
aa(lp6
S'timestamp'
p7
aF1.7088680267333984
aatp8
Rp9
.ccollections
OrderedDict
p0
((lp1
(lp2
S'state'
p3
aI400
aa(lp4
S'distance'
p5
aF374.8914489746094
aa(lp6
S'timestamp'
p7
aF1.7169499397277832
aatp8
Rp9
.ccollections
OrderedDict
p0
((lp1
(lp2
S'state'
p3
aI400
aa(lp4
S'distance'
p5
aF374.8914489746094
aa(lp6
S'timestamp'
p7
aF1.71754789352417
aatp8
Rp9
.ccollections
OrderedDict
p0
((lp1
(lp2
S'state'
p3
aI400
aa(lp4
S'distance'
p5
aF374.8914489746094
aa(lp6
S'timestamp'
p7
aF1.727280855178833
aatp8
Rp9
.ccollections
OrderedDict
p0
((lp1
(lp2
S'state'
p3
aI400
aa(lp4
S'distance'
p5
aF374.8914489746094
aa(lp6
S'timestamp'
p7
aF1.7273609638214111
aatp8
Rp9
.ccollections
OrderedDict
p0
((lp1
(lp2
S'state'
p3
aI400
aa(lp4
S'distance'
p5
aF374.8914489746094
aa(lp6
S'timestamp'
p7
aF1.7373769283294678
aatp8
Rp9
.ccollections
OrderedDict
p0
((lp1
(lp2
S'state'
p3
aI400
aa(lp4
S'distance'
p5
aF374.8914489746094
aa(lp6
S'timestamp'
p7
aF1.7384400367736816
aatp8
Rp9
.ccollections
OrderedDict
p0
((lp1
(lp2
S'state'
p3
aI400
aa(lp4
S'distance'
p5
aF374.8914489746094
aa(lp6
S'timestamp'
p7
aF1.747316837310791
aatp8
Rp9
.ccollections
OrderedDict
p0
((lp1
(lp2
S'state'
p3
aI400
aa(lp4
S'distance'
p5
aF374.8914489746094
aa(lp6
S'timestamp'
p7
aF1.7474009990692139
aatp8
Rp9
.ccollections
OrderedDict
p0
((lp1
(lp2
S'state'
p3
aI400
aa(lp4
S'distance'
p5
aF374.8914489746094
aa(lp6
S'timestamp'
p7
aF1.7668349742889404
aatp8
Rp9
.ccollections
OrderedDict
p0
((lp1
(lp2
S'state'
p3
aI400
aa(lp4
S'distance'
p5
aF374.8914489746094
aa(lp6
S'timestamp'
p7
aF1.7675440311431885
aatp8
Rp9
.ccollections
OrderedDict
p0
((lp1
(lp2
S'state'
p3
aI400
aa(lp4
S'distance'
p5
aF374.8914489746094
aa(lp6
S'timestamp'
p7
aF1.7676639556884766
aatp8
Rp9
.ccollections
OrderedDict
p0
((lp1
(lp2
S'state'
p3
aI400
aa(lp4
S'distance'
p5
aF374.8914489746094
aa(lp6
S'timestamp'
p7
aF1.7776548862457275
aatp8
Rp9
.ccollections
OrderedDict
p0
((lp1
(lp2
S'state'
p3
aI400
aa(lp4
S'distance'
p5
aF374.8914489746094
aa(lp6
S'timestamp'
p7
aF1.778972864151001
aatp8
Rp9
.ccollections
OrderedDict
p0
((lp1
(lp2
S'state'
p3
aI400
aa(lp4
S'distance'
p5
aF374.8914489746094
aa(lp6
S'timestamp'
p7
aF1.7796850204467773
aatp8
Rp9
.ccollections
OrderedDict
p0
((lp1
(lp2
S'state'
p3
aI400
aa(lp4
S'distance'
p5
aF374.8914489746094
aa(lp6
S'timestamp'
p7
aF1.786686897277832
aatp8
Rp9
.ccollections
OrderedDict
p0
((lp1
(lp2
S'state'
p3
aI400
aa(lp4
S'distance'
p5
aF374.8914489746094
aa(lp6
S'timestamp'
p7
aF1.7873539924621582
aatp8
Rp9
.ccollections
OrderedDict
p0
((lp1
(lp2
S'state'
p3
aI400
aa(lp4
S'distance'
p5
aF374.8914489746094
aa(lp6
S'timestamp'
p7
aF1.7971928119659424
aatp8
Rp9
.ccollections
OrderedDict
p0
((lp1
(lp2
S'state'
p3
aI400
aa(lp4
S'distance'
p5
aF374.8914489746094
aa(lp6
S'timestamp'
p7
aF1.7979469299316406
aatp8
Rp9
.ccollections
OrderedDict
p0
((lp1
(lp2
S'state'
p3
aI400
aa(lp4
S'distance'
p5
aF374.8914489746094
aa(lp6
S'timestamp'
p7
aF1.8068859577178955
aatp8
Rp9
.ccollections
OrderedDict
p0
((lp1
(lp2
S'state'
p3
aI400
aa(lp4
S'distance'
p5
aF374.8914489746094
aa(lp6
S'timestamp'
p7
aF1.8070030212402344
aatp8
Rp9
.ccollections
OrderedDict
p0
((lp1
(lp2
S'state'
p3
aI400
aa(lp4
S'distance'
p5
aF374.8914489746094
aa(lp6
S'timestamp'
p7
aF1.817551851272583
aatp8
Rp9
.ccollections
OrderedDict
p0
((lp1
(lp2
S'state'
p3
aI400
aa(lp4
S'distance'
p5
aF374.8914489746094
aa(lp6
S'timestamp'
p7
aF1.8179738521575928
aatp8
Rp9
.ccollections
OrderedDict
p0
((lp1
(lp2
S'state'
p3
aI400
aa(lp4
S'distance'
p5
aF374.8914489746094
aa(lp6
S'timestamp'
p7
aF1.827293872833252
aatp8
Rp9
.ccollections
OrderedDict
p0
((lp1
(lp2
S'state'
p3
aI400
aa(lp4
S'distance'
p5
aF374.8914489746094
aa(lp6
S'timestamp'
p7
aF1.8273699283599854
aatp8
Rp9
.ccollections
OrderedDict
p0
((lp1
(lp2
S'state'
p3
aI400
aa(lp4
S'distance'
p5
aF374.8914489746094
aa(lp6
S'timestamp'
p7
aF1.8369770050048828
aatp8
Rp9
.ccollections
OrderedDict
p0
((lp1
(lp2
S'state'
p3
aI400
aa(lp4
S'distance'
p5
aF374.8914489746094
aa(lp6
S'timestamp'
p7
aF1.8371169567108154
aatp8
Rp9
.ccollections
OrderedDict
p0
((lp1
(lp2
S'state'
p3
aI400
aa(lp4
S'distance'
p5
aF374.8914489746094
aa(lp6
S'timestamp'
p7
aF1.8473138809204102
aatp8
Rp9
.ccollections
OrderedDict
p0
((lp1
(lp2
S'state'
p3
aI400
aa(lp4
S'distance'
p5
aF374.8914489746094
aa(lp6
S'timestamp'
p7
aF1.8473930358886719
aatp8
Rp9
.ccollections
OrderedDict
p0
((lp1
(lp2
S'state'
p3
aI400
aa(lp4
S'distance'
p5
aF374.8914489746094
aa(lp6
S'timestamp'
p7
aF1.8567349910736084
aatp8
Rp9
.ccollections
OrderedDict
p0
((lp1
(lp2
S'state'
p3
aI400
aa(lp4
S'distance'
p5
aF374.8914489746094
aa(lp6
S'timestamp'
p7
aF1.8574669361114502
aatp8
Rp9
.ccollections
OrderedDict
p0
((lp1
(lp2
S'state'
p3
aI400
aa(lp4
S'distance'
p5
aF374.8914489746094
aa(lp6
S'timestamp'
p7
aF1.8666579723358154
aatp8
Rp9
.ccollections
OrderedDict
p0
((lp1
(lp2
S'state'
p3
aI400
aa(lp4
S'distance'
p5
aF374.8914489746094
aa(lp6
S'timestamp'
p7
aF1.8674159049987793
aatp8
Rp9
.ccollections
OrderedDict
p0
((lp1
(lp2
S'state'
p3
aI400
aa(lp4
S'distance'
p5
aF374.8914489746094
aa(lp6
S'timestamp'
p7
aF1.877323865890503
aatp8
Rp9
.ccollections
OrderedDict
p0
((lp1
(lp2
S'state'
p3
aI400
aa(lp4
S'distance'
p5
aF374.8914489746094
aa(lp6
S'timestamp'
p7
aF1.8773980140686035
aatp8
Rp9
.ccollections
OrderedDict
p0
((lp1
(lp2
S'state'
p3
aI400
aa(lp4
S'distance'
p5
aF374.8914489746094
aa(lp6
S'timestamp'
p7
aF1.8967649936676025
aatp8
Rp9
.ccollections
OrderedDict
p0
((lp1
(lp2
S'state'
p3
aI400
aa(lp4
S'distance'
p5
aF374.8914489746094
aa(lp6
S'timestamp'
p7
aF1.8969168663024902
aatp8
Rp9
.ccollections
OrderedDict
p0
((lp1
(lp2
S'state'
p3
aI400
aa(lp4
S'distance'
p5
aF374.8914489746094
aa(lp6
S'timestamp'
p7
aF1.897765874862671
aatp8
Rp9
.ccollections
OrderedDict
p0
((lp1
(lp2
S'state'
p3
aI400
aa(lp4
S'distance'
p5
aF374.8914489746094
aa(lp6
S'timestamp'
p7
aF1.9065508842468262
aatp8
Rp9
.ccollections
OrderedDict
p0
((lp1
(lp2
S'state'
p3
aI400
aa(lp4
S'distance'
p5
aF374.8914489746094
aa(lp6
S'timestamp'
p7
aF1.9072329998016357
aatp8
Rp9
.ccollections
OrderedDict
p0
((lp1
(lp2
S'state'
p3
aI400
aa(lp4
S'distance'
p5
aF374.8914489746094
aa(lp6
S'timestamp'
p7
aF1.9074008464813232
aatp8
Rp9
.ccollections
OrderedDict
p0
((lp1
(lp2
S'state'
p3
aI400
aa(lp4
S'distance'
p5
aF374.8914489746094
aa(lp6
S'timestamp'
p7
aF1.917198896408081
aatp8
Rp9
.ccollections
OrderedDict
p0
((lp1
(lp2
S'state'
p3
aI400
aa(lp4
S'distance'
p5
aF374.8914489746094
aa(lp6
S'timestamp'
p7
aF1.9172759056091309
aatp8
Rp9
.ccollections
OrderedDict
p0
((lp1
(lp2
S'state'
p3
aI400
aa(lp4
S'distance'
p5
aF374.8914489746094
aa(lp6
S'timestamp'
p7
aF1.9268798828125
aatp8
Rp9
.ccollections
OrderedDict
p0
((lp1
(lp2
S'state'
p3
aI400
aa(lp4
S'distance'
p5
aF374.8914489746094
aa(lp6
S'timestamp'
p7
aF1.9270000457763672
aatp8
Rp9
.ccollections
OrderedDict
p0
((lp1
(lp2
S'state'
p3
aI400
aa(lp4
S'distance'
p5
aF374.8914489746094
aa(lp6
S'timestamp'
p7
aF1.9374549388885498
aatp8
Rp9
.ccollections
OrderedDict
p0
((lp1
(lp2
S'state'
p3
aI400
aa(lp4
S'distance'
p5
aF374.8914489746094
aa(lp6
S'timestamp'
p7
aF1.9388959407806396
aatp8
Rp9
.ccollections
OrderedDict
p0
((lp1
(lp2
S'state'
p3
aI400
aa(lp4
S'distance'
p5
aF374.8914489746094
aa(lp6
S'timestamp'
p7
aF1.947234869003296
aatp8
Rp9
.ccollections
OrderedDict
p0
((lp1
(lp2
S'state'
p3
aI400
aa(lp4
S'distance'
p5
aF374.8914489746094
aa(lp6
S'timestamp'
p7
aF1.9473109245300293
aatp8
Rp9
.ccollections
OrderedDict
p0
((lp1
(lp2
S'state'
p3
aI400
aa(lp4
S'distance'
p5
aF374.8914489746094
aa(lp6
S'timestamp'
p7
aF1.966742992401123
aatp8
Rp9
.ccollections
OrderedDict
p0
((lp1
(lp2
S'state'
p3
aI400
aa(lp4
S'distance'
p5
aF374.8914489746094
aa(lp6
S'timestamp'
p7
aF1.9677939414978027
aatp8
Rp9
.ccollections
OrderedDict
p0
((lp1
(lp2
S'state'
p3
aI400
aa(lp4
S'distance'
p5
aF374.8914489746094
aa(lp6
S'timestamp'
p7
aF1.967871904373169
aatp8
Rp9
.ccollections
OrderedDict
p0
((lp1
(lp2
S'state'
p3
aI400
aa(lp4
S'distance'
p5
aF374.8914489746094
aa(lp6
S'timestamp'
p7
aF1.967965841293335
aatp8
Rp9
.ccollections
OrderedDict
p0
((lp1
(lp2
S'state'
p3
aI400
aa(lp4
S'distance'
p5
aF374.8914489746094
aa(lp6
S'timestamp'
p7
aF1.9767498970031738
aatp8
Rp9
.ccollections
OrderedDict
p0
((lp1
(lp2
S'state'
p3
aI400
aa(lp4
S'distance'
p5
aF374.8914489746094
aa(lp6
S'timestamp'
p7
aF1.9776480197906494
aatp8
Rp9
.ccollections
OrderedDict
p0
((lp1
(lp2
S'state'
p3
aI400
aa(lp4
S'distance'
p5
aF374.8914489746094
aa(lp6
S'timestamp'
p7
aF1.9868578910827637
aatp8
Rp9
.ccollections
OrderedDict
p0
((lp1
(lp2
S'state'
p3
aI400
aa(lp4
S'distance'
p5
aF374.8914489746094
aa(lp6
S'timestamp'
p7
aF1.9876158237457275
aatp8
Rp9
.ccollections
OrderedDict
p0
((lp1
(lp2
S'state'
p3
aI400
aa(lp4
S'distance'
p5
aF374.8914489746094
aa(lp6
S'timestamp'
p7
aF1.996608018875122
aatp8
Rp9
.ccollections
OrderedDict
p0
((lp1
(lp2
S'state'
p3
aI400
aa(lp4
S'distance'
p5
aF374.8914489746094
aa(lp6
S'timestamp'
p7
aF1.997506856918335
aatp8
Rp9
.ccollections
OrderedDict
p0
((lp1
(lp2
S'state'
p3
aI400
aa(lp4
S'distance'
p5
aF374.8914489746094
aa(lp6
S'timestamp'
p7
aF2.0070698261260986
aatp8
Rp9
.ccollections
OrderedDict
p0
((lp1
(lp2
S'state'
p3
aI400
aa(lp4
S'distance'
p5
aF374.8914489746094
aa(lp6
S'timestamp'
p7
aF2.007450819015503
aatp8
Rp9
.ccollections
OrderedDict
p0
((lp1
(lp2
S'state'
p3
aI400
aa(lp4
S'distance'
p5
aF374.8914489746094
aa(lp6
S'timestamp'
p7
aF2.016753911972046
aatp8
Rp9
.ccollections
OrderedDict
p0
((lp1
(lp2
S'state'
p3
aI400
aa(lp4
S'distance'
p5
aF374.8914489746094
aa(lp6
S'timestamp'
p7
aF2.0186288356781006
aatp8
Rp9
.ccollections
OrderedDict
p0
((lp1
(lp2
S'state'
p3
aI400
aa(lp4
S'distance'
p5
aF374.8914489746094
aa(lp6
S'timestamp'
p7
aF2.02718186378479
aatp8
Rp9
.ccollections
OrderedDict
p0
((lp1
(lp2
S'state'
p3
aI400
aa(lp4
S'distance'
p5
aF374.8914489746094
aa(lp6
S'timestamp'
p7
aF2.027405023574829
aatp8
Rp9
.ccollections
OrderedDict
p0
((lp1
(lp2
S'state'
p3
aI400
aa(lp4
S'distance'
p5
aF374.8914489746094
aa(lp6
S'timestamp'
p7
aF2.0366029739379883
aatp8
Rp9
.ccollections
OrderedDict
p0
((lp1
(lp2
S'state'
p3
aI400
aa(lp4
S'distance'
p5
aF374.8914489746094
aa(lp6
S'timestamp'
p7
aF2.037369966506958
aatp8
Rp9
.ccollections
OrderedDict
p0
((lp1
(lp2
S'state'
p3
aI400
aa(lp4
S'distance'
p5
aF374.8914489746094
aa(lp6
S'timestamp'
p7
aF2.0465118885040283
aatp8
Rp9
.ccollections
OrderedDict
p0
((lp1
(lp2
S'state'
p3
aI400
aa(lp4
S'distance'
p5
aF374.8914489746094
aa(lp6
S'timestamp'
p7
aF2.046923875808716
aatp8
Rp9
.ccollections
OrderedDict
p0
((lp1
(lp2
S'state'
p3
aI400
aa(lp4
S'distance'
p5
aF374.8914489746094
aa(lp6
S'timestamp'
p7
aF2.0574610233306885
aatp8
Rp9
.ccollections
OrderedDict
p0
((lp1
(lp2
S'state'
p3
aI400
aa(lp4
S'distance'
p5
aF374.8914489746094
aa(lp6
S'timestamp'
p7
aF2.0577340126037598
aatp8
Rp9
.ccollections
OrderedDict
p0
((lp1
(lp2
S'state'
p3
aI400
aa(lp4
S'distance'
p5
aF374.8914489746094
aa(lp6
S'timestamp'
p7
aF2.0667760372161865
aatp8
Rp9
.ccollections
OrderedDict
p0
((lp1
(lp2
S'state'
p3
aI400
aa(lp4
S'distance'
p5
aF374.8914489746094
aa(lp6
S'timestamp'
p7
aF2.067351818084717
aatp8
Rp9
.ccollections
OrderedDict
p0
((lp1
(lp2
S'state'
p3
aI400
aa(lp4
S'distance'
p5
aF374.8914489746094
aa(lp6
S'timestamp'
p7
aF2.0767128467559814
aatp8
Rp9
.ccollections
OrderedDict
p0
((lp1
(lp2
S'state'
p3
aI400
aa(lp4
S'distance'
p5
aF374.8914489746094
aa(lp6
S'timestamp'
p7
aF2.076870918273926
aatp8
Rp9
.ccollections
OrderedDict
p0
((lp1
(lp2
S'state'
p3
aI400
aa(lp4
S'distance'
p5
aF374.8914489746094
aa(lp6
S'timestamp'
p7
aF2.08671498298645
aatp8
Rp9
.ccollections
OrderedDict
p0
((lp1
(lp2
S'state'
p3
aI400
aa(lp4
S'distance'
p5
aF374.8914489746094
aa(lp6
S'timestamp'
p7
aF2.0882568359375
aatp8
Rp9
.ccollections
OrderedDict
p0
((lp1
(lp2
S'state'
p3
aI400
aa(lp4
S'distance'
p5
aF374.8914489746094
aa(lp6
S'timestamp'
p7
aF2.097139835357666
aatp8
Rp9
.ccollections
OrderedDict
p0
((lp1
(lp2
S'state'
p3
aI400
aa(lp4
S'distance'
p5
aF374.8914489746094
aa(lp6
S'timestamp'
p7
aF2.097594976425171
aatp8
Rp9
.ccollections
OrderedDict
p0
((lp1
(lp2
S'state'
p3
aI400
aa(lp4
S'distance'
p5
aF374.8914489746094
aa(lp6
S'timestamp'
p7
aF2.1068968772888184
aatp8
Rp9
.ccollections
OrderedDict
p0
((lp1
(lp2
S'state'
p3
aI400
aa(lp4
S'distance'
p5
aF374.8914489746094
aa(lp6
S'timestamp'
p7
aF2.1073179244995117
aatp8
Rp9
.ccollections
OrderedDict
p0
((lp1
(lp2
S'state'
p3
aI400
aa(lp4
S'distance'
p5
aF374.8914489746094
aa(lp6
S'timestamp'
p7
aF2.1166539192199707
aatp8
Rp9
.ccollections
OrderedDict
p0
((lp1
(lp2
S'state'
p3
aI400
aa(lp4
S'distance'
p5
aF374.8914489746094
aa(lp6
S'timestamp'
p7
aF2.1171109676361084
aatp8
Rp9
.ccollections
OrderedDict
p0
((lp1
(lp2
S'state'
p3
aI400
aa(lp4
S'distance'
p5
aF374.8914489746094
aa(lp6
S'timestamp'
p7
aF2.1266579627990723
aatp8
Rp9
.ccollections
OrderedDict
p0
((lp1
(lp2
S'state'
p3
aI400
aa(lp4
S'distance'
p5
aF374.8914489746094
aa(lp6
S'timestamp'
p7
aF2.127315044403076
aatp8
Rp9
.ccollections
OrderedDict
p0
((lp1
(lp2
S'state'
p3
aI400
aa(lp4
S'distance'
p5
aF374.8914489746094
aa(lp6
S'timestamp'
p7
aF2.1376278400421143
aatp8
Rp9
.ccollections
OrderedDict
p0
((lp1
(lp2
S'state'
p3
aI400
aa(lp4
S'distance'
p5
aF374.8914489746094
aa(lp6
S'timestamp'
p7
aF2.1378660202026367
aatp8
Rp9
.ccollections
OrderedDict
p0
((lp1
(lp2
S'state'
p3
aI400
aa(lp4
S'distance'
p5
aF374.8914489746094
aa(lp6
S'timestamp'
p7
aF2.1474878787994385
aatp8
Rp9
.ccollections
OrderedDict
p0
((lp1
(lp2
S'state'
p3
aI400
aa(lp4
S'distance'
p5
aF374.8914489746094
aa(lp6
S'timestamp'
p7
aF2.1475579738616943
aatp8
Rp9
.ccollections
OrderedDict
p0
((lp1
(lp2
S'state'
p3
aI400
aa(lp4
S'distance'
p5
aF374.8914489746094
aa(lp6
S'timestamp'
p7
aF2.156958818435669
aatp8
Rp9
.ccollections
OrderedDict
p0
((lp1
(lp2
S'state'
p3
aI400
aa(lp4
S'distance'
p5
aF374.8914489746094
aa(lp6
S'timestamp'
p7
aF2.15744686126709
aatp8
Rp9
.ccollections
OrderedDict
p0
((lp1
(lp2
S'state'
p3
aI400
aa(lp4
S'distance'
p5
aF374.8914489746094
aa(lp6
S'timestamp'
p7
aF2.166731834411621
aatp8
Rp9
.ccollections
OrderedDict
p0
((lp1
(lp2
S'state'
p3
aI400
aa(lp4
S'distance'
p5
aF374.8914489746094
aa(lp6
S'timestamp'
p7
aF2.1675808429718018
aatp8
Rp9
.ccollections
OrderedDict
p0
((lp1
(lp2
S'state'
p3
aI400
aa(lp4
S'distance'
p5
aF374.8914489746094
aa(lp6
S'timestamp'
p7
aF2.176748037338257
aatp8
Rp9
.ccollections
OrderedDict
p0
((lp1
(lp2
S'state'
p3
aI400
aa(lp4
S'distance'
p5
aF374.8914489746094
aa(lp6
S'timestamp'
p7
aF2.1773619651794434
aatp8
Rp9
.ccollections
OrderedDict
p0
((lp1
(lp2
S'state'
p3
aI400
aa(lp4
S'distance'
p5
aF374.8914489746094
aa(lp6
S'timestamp'
p7
aF2.1872928142547607
aatp8
Rp9
.ccollections
OrderedDict
p0
((lp1
(lp2
S'state'
p3
aI400
aa(lp4
S'distance'
p5
aF374.8914489746094
aa(lp6
S'timestamp'
p7
aF2.187407970428467
aatp8
Rp9
.ccollections
OrderedDict
p0
((lp1
(lp2
S'state'
p3
aI400
aa(lp4
S'distance'
p5
aF374.8914489746094
aa(lp6
S'timestamp'
p7
aF2.1967499256134033
aatp8
Rp9
.ccollections
OrderedDict
p0
((lp1
(lp2
S'state'
p3
aI400
aa(lp4
S'distance'
p5
aF374.8914489746094
aa(lp6
S'timestamp'
p7
aF2.1973040103912354
aatp8
Rp9
.ccollections
OrderedDict
p0
((lp1
(lp2
S'state'
p3
aI400
aa(lp4
S'distance'
p5
aF374.8914489746094
aa(lp6
S'timestamp'
p7
aF2.2068428993225098
aatp8
Rp9
.ccollections
OrderedDict
p0
((lp1
(lp2
S'state'
p3
aI400
aa(lp4
S'distance'
p5
aF374.8914489746094
aa(lp6
S'timestamp'
p7
aF2.2070398330688477
aatp8
Rp9
.ccollections
OrderedDict
p0
((lp1
(lp2
S'state'
p3
aI400
aa(lp4
S'distance'
p5
aF374.8914489746094
aa(lp6
S'timestamp'
p7
aF2.2166879177093506
aatp8
Rp9
.ccollections
OrderedDict
p0
((lp1
(lp2
S'state'
p3
aI400
aa(lp4
S'distance'
p5
aF374.8914489746094
aa(lp6
S'timestamp'
p7
aF2.2174878120422363
aatp8
Rp9
.ccollections
OrderedDict
p0
((lp1
(lp2
S'state'
p3
aI400
aa(lp4
S'distance'
p5
aF374.8914489746094
aa(lp6
S'timestamp'
p7
aF2.2266499996185303
aatp8
Rp9
.ccollections
OrderedDict
p0
((lp1
(lp2
S'state'
p3
aI400
aa(lp4
S'distance'
p5
aF374.8914489746094
aa(lp6
S'timestamp'
p7
aF2.227350950241089
aatp8
Rp9
.ccollections
OrderedDict
p0
((lp1
(lp2
S'state'
p3
aI400
aa(lp4
S'distance'
p5
aF374.8914489746094
aa(lp6
S'timestamp'
p7
aF2.2372918128967285
aatp8
Rp9
.ccollections
OrderedDict
p0
((lp1
(lp2
S'state'
p3
aI400
aa(lp4
S'distance'
p5
aF374.8914489746094
aa(lp6
S'timestamp'
p7
aF2.2373809814453125
aatp8
Rp9
.ccollections
OrderedDict
p0
((lp1
(lp2
S'state'
p3
aI400
aa(lp4
S'distance'
p5
aF374.8914489746094
aa(lp6
S'timestamp'
p7
aF2.246785879135132
aatp8
Rp9
.ccollections
OrderedDict
p0
((lp1
(lp2
S'state'
p3
aI400
aa(lp4
S'distance'
p5
aF374.8914489746094
aa(lp6
S'timestamp'
p7
aF2.247670888900757
aatp8
Rp9
.ccollections
OrderedDict
p0
((lp1
(lp2
S'state'
p3
aI400
aa(lp4
S'distance'
p5
aF374.8914489746094
aa(lp6
S'timestamp'
p7
aF2.2568118572235107
aatp8
Rp9
.ccollections
OrderedDict
p0
((lp1
(lp2
S'state'
p3
aI400
aa(lp4
S'distance'
p5
aF374.8914489746094
aa(lp6
S'timestamp'
p7
aF2.257189989089966
aatp8
Rp9
.ccollections
OrderedDict
p0
((lp1
(lp2
S'state'
p3
aI400
aa(lp4
S'distance'
p5
aF374.8914489746094
aa(lp6
S'timestamp'
p7
aF2.266819953918457
aatp8
Rp9
.ccollections
OrderedDict
p0
((lp1
(lp2
S'state'
p3
aI400
aa(lp4
S'distance'
p5
aF374.8914489746094
aa(lp6
S'timestamp'
p7
aF2.266939878463745
aatp8
Rp9
.ccollections
OrderedDict
p0
((lp1
(lp2
S'state'
p3
aI400
aa(lp4
S'distance'
p5
aF374.8914489746094
aa(lp6
S'timestamp'
p7
aF2.2766129970550537
aatp8
Rp9
.ccollections
OrderedDict
p0
((lp1
(lp2
S'state'
p3
aI400
aa(lp4
S'distance'
p5
aF374.8914489746094
aa(lp6
S'timestamp'
p7
aF2.2773678302764893
aatp8
Rp9
.ccollections
OrderedDict
p0
((lp1
(lp2
S'state'
p3
aI400
aa(lp4
S'distance'
p5
aF374.8914489746094
aa(lp6
S'timestamp'
p7
aF2.2867679595947266
aatp8
Rp9
.ccollections
OrderedDict
p0
((lp1
(lp2
S'state'
p3
aI400
aa(lp4
S'distance'
p5
aF374.8914489746094
aa(lp6
S'timestamp'
p7
aF2.2873568534851074
aatp8
Rp9
.ccollections
OrderedDict
p0
((lp1
(lp2
S'state'
p3
aI400
aa(lp4
S'distance'
p5
aF374.8914489746094
aa(lp6
S'timestamp'
p7
aF2.2966089248657227
aatp8
Rp9
.ccollections
OrderedDict
p0
((lp1
(lp2
S'state'
p3
aI400
aa(lp4
S'distance'
p5
aF374.8914489746094
aa(lp6
S'timestamp'
p7
aF2.2992959022521973
aatp8
Rp9
.ccollections
OrderedDict
p0
((lp1
(lp2
S'state'
p3
aI400
aa(lp4
S'distance'
p5
aF374.8914489746094
aa(lp6
S'timestamp'
p7
aF2.306764841079712
aatp8
Rp9
.ccollections
OrderedDict
p0
((lp1
(lp2
S'state'
p3
aI400
aa(lp4
S'distance'
p5
aF374.8914489746094
aa(lp6
S'timestamp'
p7
aF2.3073298931121826
aatp8
Rp9
.ccollections
OrderedDict
p0
((lp1
(lp2
S'state'
p3
aI400
aa(lp4
S'distance'
p5
aF374.8914489746094
aa(lp6
S'timestamp'
p7
aF2.316884994506836
aatp8
Rp9
.ccollections
OrderedDict
p0
((lp1
(lp2
S'state'
p3
aI400
aa(lp4
S'distance'
p5
aF374.8914489746094
aa(lp6
S'timestamp'
p7
aF2.3177218437194824
aatp8
Rp9
.ccollections
OrderedDict
p0
((lp1
(lp2
S'state'
p3
aI400
aa(lp4
S'distance'
p5
aF374.8914489746094
aa(lp6
S'timestamp'
p7
aF2.326792001724243
aatp8
Rp9
.ccollections
OrderedDict
p0
((lp1
(lp2
S'state'
p3
aI400
aa(lp4
S'distance'
p5
aF374.8914489746094
aa(lp6
S'timestamp'
p7
aF2.3269448280334473
aatp8
Rp9
.ccollections
OrderedDict
p0
((lp1
(lp2
S'state'
p3
aI400
aa(lp4
S'distance'
p5
aF374.8914489746094
aa(lp6
S'timestamp'
p7
aF2.337324857711792
aatp8
Rp9
.ccollections
OrderedDict
p0
((lp1
(lp2
S'state'
p3
aI0
aa(lp4
S'distance'
p5
aF374.8914489746094
aa(lp6
S'timestamp'
p7
aF2.338024854660034
aatp8
Rp9
.ccollections
OrderedDict
p0
((lp1
(lp2
S'state'
p3
aI0
aa(lp4
S'distance'
p5
aF276.2599792480469
aa(lp6
S'timestamp'
p7
aF2.928802013397217
aatp8
Rp9
.ccollections
OrderedDict
p0
((lp1
(lp2
S'state'
p3
aI0
aa(lp4
S'distance'
p5
aF276.2599792480469
aa(lp6
S'timestamp'
p7
aF2.9376139640808105
aatp8
Rp9
.ccollections
OrderedDict
p0
((lp1
(lp2
S'state'
p3
aI0
aa(lp4
S'distance'
p5
aF276.2599792480469
aa(lp6
S'timestamp'
p7
aF2.9378249645233154
aatp8
Rp9
.ccollections
OrderedDict
p0
((lp1
(lp2
S'state'
p3
aI0
aa(lp4
S'distance'
p5
aF276.2599792480469
aa(lp6
S'timestamp'
p7
aF2.9466779232025146
aatp8
Rp9
.ccollections
OrderedDict
p0
((lp1
(lp2
S'state'
p3
aI0
aa(lp4
S'distance'
p5
aF276.2599792480469
aa(lp6
S'timestamp'
p7
aF2.9566919803619385
aatp8
Rp9
.ccollections
OrderedDict
p0
((lp1
(lp2
S'state'
p3
aI0
aa(lp4
S'distance'
p5
aF276.2599792480469
aa(lp6
S'timestamp'
p7
aF2.9568169116973877
aatp8
Rp9
.ccollections
OrderedDict
p0
((lp1
(lp2
S'state'
p3
aI0
aa(lp4
S'distance'
p5
aF276.2599792480469
aa(lp6
S'timestamp'
p7
aF2.9574010372161865
aatp8
Rp9
.ccollections
OrderedDict
p0
((lp1
(lp2
S'state'
p3
aI0
aa(lp4
S'distance'
p5
aF276.2599792480469
aa(lp6
S'timestamp'
p7
aF2.9666550159454346
aatp8
Rp9
.ccollections
OrderedDict
p0
((lp1
(lp2
S'state'
p3
aI0
aa(lp4
S'distance'
p5
aF276.2599792480469
aa(lp6
S'timestamp'
p7
aF2.9678330421447754
aatp8
Rp9
.ccollections
OrderedDict
p0
((lp1
(lp2
S'state'
p3
aI0
aa(lp4
S'distance'
p5
aF276.2599792480469
aa(lp6
S'timestamp'
p7
aF2.977214813232422
aatp8
Rp9
.ccollections
OrderedDict
p0
((lp1
(lp2
S'state'
p3
aI0
aa(lp4
S'distance'
p5
aF276.2599792480469
aa(lp6
S'timestamp'
p7
aF2.977367877960205
aatp8
Rp9
.ccollections
OrderedDict
p0
((lp1
(lp2
S'state'
p3
aI0
aa(lp4
S'distance'
p5
aF276.2599792480469
aa(lp6
S'timestamp'
p7
aF2.9865548610687256
aatp8
Rp9
.ccollections
OrderedDict
p0
((lp1
(lp2
S'state'
p3
aI0
aa(lp4
S'distance'
p5
aF276.2599792480469
aa(lp6
S'timestamp'
p7
aF2.9872169494628906
aatp8
Rp9
.ccollections
OrderedDict
p0
((lp1
(lp2
S'state'
p3
aI0
aa(lp4
S'distance'
p5
aF276.2599792480469
aa(lp6
S'timestamp'
p7
aF2.996645927429199
aatp8
Rp9
.ccollections
OrderedDict
p0
((lp1
(lp2
S'state'
p3
aI0
aa(lp4
S'distance'
p5
aF276.2599792480469
aa(lp6
S'timestamp'
p7
aF2.997344970703125
aatp8
Rp9
.ccollections
OrderedDict
p0
((lp1
(lp2
S'state'
p3
aI0
aa(lp4
S'distance'
p5
aF276.2599792480469
aa(lp6
S'timestamp'
p7
aF3.0172119140625
aatp8
Rp9
.ccollections
OrderedDict
p0
((lp1
(lp2
S'state'
p3
aI0
aa(lp4
S'distance'
p5
aF276.2599792480469
aa(lp6
S'timestamp'
p7
aF3.0176730155944824
aatp8
Rp9
.ccollections
OrderedDict
p0
((lp1
(lp2
S'state'
p3
aI0
aa(lp4
S'distance'
p5
aF276.2599792480469
aa(lp6
S'timestamp'
p7
aF3.0182108879089355
aatp8
Rp9
.ccollections
OrderedDict
p0
((lp1
(lp2
S'state'
p3
aI0
aa(lp4
S'distance'
p5
aF276.2599792480469
aa(lp6
S'timestamp'
p7
aF3.018885850906372
aatp8
Rp9
.ccollections
OrderedDict
p0
((lp1
(lp2
S'state'
p3
aI0
aa(lp4
S'distance'
p5
aF276.2599792480469
aa(lp6
S'timestamp'
p7
aF3.026521921157837
aatp8
Rp9
.ccollections
OrderedDict
p0
((lp1
(lp2
S'state'
p3
aI0
aa(lp4
S'distance'
p5
aF276.2599792480469
aa(lp6
S'timestamp'
p7
aF3.0365710258483887
aatp8
Rp9
.ccollections
OrderedDict
p0
((lp1
(lp2
S'state'
p3
aI0
aa(lp4
S'distance'
p5
aF276.2599792480469
aa(lp6
S'timestamp'
p7
aF3.037310838699341
aatp8
Rp9
.ccollections
OrderedDict
p0
((lp1
(lp2
S'state'
p3
aI0
aa(lp4
S'distance'
p5
aF276.2599792480469
aa(lp6
S'timestamp'
p7
aF3.0379929542541504
aatp8
Rp9
.ccollections
OrderedDict
p0
((lp1
(lp2
S'state'
p3
aI0
aa(lp4
S'distance'
p5
aF276.2599792480469
aa(lp6
S'timestamp'
p7
aF3.0566489696502686
aatp8
Rp9
.ccollections
OrderedDict
p0
((lp1
(lp2
S'state'
p3
aI0
aa(lp4
S'distance'
p5
aF276.2599792480469
aa(lp6
S'timestamp'
p7
aF3.057013988494873
aatp8
Rp9
.ccollections
OrderedDict
p0
((lp1
(lp2
S'state'
p3
aI0
aa(lp4
S'distance'
p5
aF276.2599792480469
aa(lp6
S'timestamp'
p7
aF3.058126926422119
aatp8
Rp9
.ccollections
OrderedDict
p0
((lp1
(lp2
S'state'
p3
aI0
aa(lp4
S'distance'
p5
aF276.2599792480469
aa(lp6
S'timestamp'
p7
aF3.059213876724243
aatp8
Rp9
.ccollections
OrderedDict
p0
((lp1
(lp2
S'state'
p3
aI0
aa(lp4
S'distance'
p5
aF276.2599792480469
aa(lp6
S'timestamp'
p7
aF3.066694974899292
aatp8
Rp9
.ccollections
OrderedDict
p0
((lp1
(lp2
S'state'
p3
aI0
aa(lp4
S'distance'
p5
aF276.2599792480469
aa(lp6
S'timestamp'
p7
aF3.0674149990081787
aatp8
Rp9
.ccollections
OrderedDict
p0
((lp1
(lp2
S'state'
p3
aI0
aa(lp4
S'distance'
p5
aF276.2599792480469
aa(lp6
S'timestamp'
p7
aF3.1065728664398193
aatp8
Rp9
.ccollections
OrderedDict
p0
((lp1
(lp2
S'state'
p3
aI0
aa(lp4
S'distance'
p5
aF276.2599792480469
aa(lp6
S'timestamp'
p7
aF3.10680890083313
aatp8
Rp9
.ccollections
OrderedDict
p0
((lp1
(lp2
S'state'
p3
aI0
aa(lp4
S'distance'
p5
aF276.2599792480469
aa(lp6
S'timestamp'
p7
aF3.107465982437134
aatp8
Rp9
.ccollections
OrderedDict
p0
((lp1
(lp2
S'state'
p3
aI0
aa(lp4
S'distance'
p5
aF276.2599792480469
aa(lp6
S'timestamp'
p7
aF3.116652011871338
aatp8
Rp9
.ccollections
OrderedDict
p0
((lp1
(lp2
S'state'
p3
aI0
aa(lp4
S'distance'
p5
aF276.2599792480469
aa(lp6
S'timestamp'
p7
aF3.1180758476257324
aatp8
Rp9
.ccollections
OrderedDict
p0
((lp1
(lp2
S'state'
p3
aI0
aa(lp4
S'distance'
p5
aF276.2599792480469
aa(lp6
S'timestamp'
p7
aF3.118290901184082
aatp8
Rp9
.ccollections
OrderedDict
p0
((lp1
(lp2
S'state'
p3
aI0
aa(lp4
S'distance'
p5
aF276.2599792480469
aa(lp6
S'timestamp'
p7
aF3.118839979171753
aatp8
Rp9
.ccollections
OrderedDict
p0
((lp1
(lp2
S'state'
p3
aI0
aa(lp4
S'distance'
p5
aF276.2599792480469
aa(lp6
S'timestamp'
p7
aF3.1366629600524902
aatp8
Rp9
.ccollections
OrderedDict
p0
((lp1
(lp2
S'state'
p3
aI0
aa(lp4
S'distance'
p5
aF276.2599792480469
aa(lp6
S'timestamp'
p7
aF3.137077808380127
aatp8
Rp9
.ccollections
OrderedDict
p0
((lp1
(lp2
S'state'
p3
aI0
aa(lp4
S'distance'
p5
aF276.2599792480469
aa(lp6
S'timestamp'
p7
aF3.1395418643951416
aatp8
Rp9
.ccollections
OrderedDict
p0
((lp1
(lp2
S'state'
p3
aI0
aa(lp4
S'distance'
p5
aF276.2599792480469
aa(lp6
S'timestamp'
p7
aF3.1396219730377197
aatp8
Rp9
.ccollections
OrderedDict
p0
((lp1
(lp2
S'state'
p3
aI0
aa(lp4
S'distance'
p5
aF276.2599792480469
aa(lp6
S'timestamp'
p7
aF3.166644811630249
aatp8
Rp9
.ccollections
OrderedDict
p0
((lp1
(lp2
S'state'
p3
aI0
aa(lp4
S'distance'
p5
aF276.2599792480469
aa(lp6
S'timestamp'
p7
aF3.1671290397644043
aatp8
Rp9
.ccollections
OrderedDict
p0
((lp1
(lp2
S'state'
p3
aI0
aa(lp4
S'distance'
p5
aF276.2599792480469
aa(lp6
S'timestamp'
p7
aF3.1687228679656982
aatp8
Rp9
.ccollections
OrderedDict
p0
((lp1
(lp2
S'state'
p3
aI0
aa(lp4
S'distance'
p5
aF276.2599792480469
aa(lp6
S'timestamp'
p7
aF3.1693379878997803
aatp8
Rp9
.ccollections
OrderedDict
p0
((lp1
(lp2
S'state'
p3
aI0
aa(lp4
S'distance'
p5
aF276.2599792480469
aa(lp6
S'timestamp'
p7
aF3.176682949066162
aatp8
Rp9
.ccollections
OrderedDict
p0
((lp1
(lp2
S'state'
p3
aI0
aa(lp4
S'distance'
p5
aF276.2599792480469
aa(lp6
S'timestamp'
p7
aF3.177572011947632
aatp8
Rp9
.ccollections
OrderedDict
p0
((lp1
(lp2
S'state'
p3
aI0
aa(lp4
S'distance'
p5
aF276.2599792480469
aa(lp6
S'timestamp'
p7
aF3.178257942199707
aatp8
Rp9
.ccollections
OrderedDict
p0
((lp1
(lp2
S'state'
p3
aI0
aa(lp4
S'distance'
p5
aF276.2599792480469
aa(lp6
S'timestamp'
p7
aF3.1789920330047607
aatp8
Rp9
.ccollections
OrderedDict
p0
((lp1
(lp2
S'state'
p3
aI0
aa(lp4
S'distance'
p5
aF276.2599792480469
aa(lp6
S'timestamp'
p7
aF3.1868038177490234
aatp8
Rp9
.ccollections
OrderedDict
p0
((lp1
(lp2
S'state'
p3
aI0
aa(lp4
S'distance'
p5
aF276.2599792480469
aa(lp6
S'timestamp'
p7
aF3.1870248317718506
aatp8
Rp9
.ccollections
OrderedDict
p0
((lp1
(lp2
S'state'
p3
aI0
aa(lp4
S'distance'
p5
aF276.2599792480469
aa(lp6
S'timestamp'
p7
aF3.1887948513031006
aatp8
Rp9
.ccollections
OrderedDict
p0
((lp1
(lp2
S'state'
p3
aI0
aa(lp4
S'distance'
p5
aF276.2599792480469
aa(lp6
S'timestamp'
p7
aF3.189297914505005
aatp8
Rp9
.ccollections
OrderedDict
p0
((lp1
(lp2
S'state'
p3
aI0
aa(lp4
S'distance'
p5
aF276.2599792480469
aa(lp6
S'timestamp'
p7
aF3.2070488929748535
aatp8
Rp9
.ccollections
OrderedDict
p0
((lp1
(lp2
S'state'
p3
aI0
aa(lp4
S'distance'
p5
aF276.2599792480469
aa(lp6
S'timestamp'
p7
aF3.207602024078369
aatp8
Rp9
.ccollections
OrderedDict
p0
((lp1
(lp2
S'state'
p3
aI0
aa(lp4
S'distance'
p5
aF276.2599792480469
aa(lp6
S'timestamp'
p7
aF3.2081758975982666
aatp8
Rp9
.ccollections
OrderedDict
p0
((lp1
(lp2
S'state'
p3
aI0
aa(lp4
S'distance'
p5
aF276.2599792480469
aa(lp6
S'timestamp'
p7
aF3.2089908123016357
aatp8
Rp9
.ccollections
OrderedDict
p0
((lp1
(lp2
S'state'
p3
aI0
aa(lp4
S'distance'
p5
aF276.2599792480469
aa(lp6
S'timestamp'
p7
aF3.2166409492492676
aatp8
Rp9
.ccollections
OrderedDict
p0
((lp1
(lp2
S'state'
p3
aI0
aa(lp4
S'distance'
p5
aF276.2599792480469
aa(lp6
S'timestamp'
p7
aF3.2172229290008545
aatp8
Rp9
.ccollections
OrderedDict
p0
((lp1
(lp2
S'state'
p3
aI0
aa(lp4
S'distance'
p5
aF276.2599792480469
aa(lp6
S'timestamp'
p7
aF3.2182729244232178
aatp8
Rp9
.ccollections
OrderedDict
p0
((lp1
(lp2
S'state'
p3
aI0
aa(lp4
S'distance'
p5
aF276.2599792480469
aa(lp6
S'timestamp'
p7
aF3.2266969680786133
aatp8
Rp9
.ccollections
OrderedDict
p0
((lp1
(lp2
S'state'
p3
aI0
aa(lp4
S'distance'
p5
aF276.2599792480469
aa(lp6
S'timestamp'
p7
aF3.2274038791656494
aatp8
Rp9
.ccollections
OrderedDict
p0
((lp1
(lp2
S'state'
p3
aI0
aa(lp4
S'distance'
p5
aF276.2599792480469
aa(lp6
S'timestamp'
p7
aF3.246731996536255
aatp8
Rp9
.ccollections
OrderedDict
p0
((lp1
(lp2
S'state'
p3
aI0
aa(lp4
S'distance'
p5
aF276.2599792480469
aa(lp6
S'timestamp'
p7
aF3.247825860977173
aatp8
Rp9
.ccollections
OrderedDict
p0
((lp1
(lp2
S'state'
p3
aI0
aa(lp4
S'distance'
p5
aF276.2599792480469
aa(lp6
S'timestamp'
p7
aF3.2479069232940674
aatp8
Rp9
.ccollections
OrderedDict
p0
((lp1
(lp2
S'state'
p3
aI0
aa(lp4
S'distance'
p5
aF276.2599792480469
aa(lp6
S'timestamp'
p7
aF3.2480199337005615
aatp8
Rp9
.ccollections
OrderedDict
p0
((lp1
(lp2
S'state'
p3
aI0
aa(lp4
S'distance'
p5
aF276.2599792480469
aa(lp6
S'timestamp'
p7
aF3.256525993347168
aatp8
Rp9
.ccollections
OrderedDict
p0
((lp1
(lp2
S'state'
p3
aI0
aa(lp4
S'distance'
p5
aF276.2599792480469
aa(lp6
S'timestamp'
p7
aF3.257396936416626
aatp8
Rp9
.ccollections
OrderedDict
p0
((lp1
(lp2
S'state'
p3
aI0
aa(lp4
S'distance'
p5
aF276.2599792480469
aa(lp6
S'timestamp'
p7
aF3.2668049335479736
aatp8
Rp9
.ccollections
OrderedDict
p0
((lp1
(lp2
S'state'
p3
aI0
aa(lp4
S'distance'
p5
aF276.2599792480469
aa(lp6
S'timestamp'
p7
aF3.266957998275757
aatp8
Rp9
.ccollections
OrderedDict
p0
((lp1
(lp2
S'state'
p3
aI0
aa(lp4
S'distance'
p5
aF276.2599792480469
aa(lp6
S'timestamp'
p7
aF3.2772510051727295
aatp8
Rp9
.ccollections
OrderedDict
p0
((lp1
(lp2
S'state'
p3
aI0
aa(lp4
S'distance'
p5
aF276.2599792480469
aa(lp6
S'timestamp'
p7
aF3.2773330211639404
aatp8
Rp9
.ccollections
OrderedDict
p0
((lp1
(lp2
S'state'
p3
aI0
aa(lp4
S'distance'
p5
aF276.2599792480469
aa(lp6
S'timestamp'
p7
aF3.286681890487671
aatp8
Rp9
.ccollections
OrderedDict
p0
((lp1
(lp2
S'state'
p3
aI0
aa(lp4
S'distance'
p5
aF276.2599792480469
aa(lp6
S'timestamp'
p7
aF3.2875289916992188
aatp8
Rp9
.ccollections
OrderedDict
p0
((lp1
(lp2
S'state'
p3
aI0
aa(lp4
S'distance'
p5
aF276.2599792480469
aa(lp6
S'timestamp'
p7
aF3.2971320152282715
aatp8
Rp9
.ccollections
OrderedDict
p0
((lp1
(lp2
S'state'
p3
aI0
aa(lp4
S'distance'
p5
aF276.2599792480469
aa(lp6
S'timestamp'
p7
aF3.2975308895111084
aatp8
Rp9
.ccollections
OrderedDict
p0
((lp1
(lp2
S'state'
p3
aI0
aa(lp4
S'distance'
p5
aF276.2599792480469
aa(lp6
S'timestamp'
p7
aF3.30666184425354
aatp8
Rp9
.ccollections
OrderedDict
p0
((lp1
(lp2
S'state'
p3
aI0
aa(lp4
S'distance'
p5
aF276.2599792480469
aa(lp6
S'timestamp'
p7
aF3.307135820388794
aatp8
Rp9
.ccollections
OrderedDict
p0
((lp1
(lp2
S'state'
p3
aI0
aa(lp4
S'distance'
p5
aF276.2599792480469
aa(lp6
S'timestamp'
p7
aF3.3172249794006348
aatp8
Rp9
.ccollections
OrderedDict
p0
((lp1
(lp2
S'state'
p3
aI0
aa(lp4
S'distance'
p5
aF276.2599792480469
aa(lp6
S'timestamp'
p7
aF3.317312002182007
aatp8
Rp9
.ccollections
OrderedDict
p0
((lp1
(lp2
S'state'
p3
aI0
aa(lp4
S'distance'
p5
aF276.2599792480469
aa(lp6
S'timestamp'
p7
aF3.336674928665161
aatp8
Rp9
.ccollections
OrderedDict
p0
((lp1
(lp2
S'state'
p3
aI0
aa(lp4
S'distance'
p5
aF276.2599792480469
aa(lp6
S'timestamp'
p7
aF3.338150978088379
aatp8
Rp9
.ccollections
OrderedDict
p0
((lp1
(lp2
S'state'
p3
aI0
aa(lp4
S'distance'
p5
aF276.2599792480469
aa(lp6
S'timestamp'
p7
aF3.338305950164795
aatp8
Rp9
.ccollections
OrderedDict
p0
((lp1
(lp2
S'state'
p3
aI0
aa(lp4
S'distance'
p5
aF276.2599792480469
aa(lp6
S'timestamp'
p7
aF3.339185953140259
aatp8
Rp9
.ccollections
OrderedDict
p0
((lp1
(lp2
S'state'
p3
aI0
aa(lp4
S'distance'
p5
aF276.2599792480469
aa(lp6
S'timestamp'
p7
aF3.346876859664917
aatp8
Rp9
.ccollections
OrderedDict
p0
((lp1
(lp2
S'state'
p3
aI0
aa(lp4
S'distance'
p5
aF276.2599792480469
aa(lp6
S'timestamp'
p7
aF3.3470349311828613
aatp8
Rp9
.ccollections
OrderedDict
p0
((lp1
(lp2
S'state'
p3
aI0
aa(lp4
S'distance'
p5
aF276.2599792480469
aa(lp6
S'timestamp'
p7
aF3.3568129539489746
aatp8
Rp9
.ccollections
OrderedDict
p0
((lp1
(lp2
S'state'
p3
aI0
aa(lp4
S'distance'
p5
aF276.2599792480469
aa(lp6
S'timestamp'
p7
aF3.358731985092163
aatp8
Rp9
.ccollections
OrderedDict
p0
((lp1
(lp2
S'state'
p3
aI0
aa(lp4
S'distance'
p5
aF276.2599792480469
aa(lp6
S'timestamp'
p7
aF3.3667478561401367
aatp8
Rp9
.ccollections
OrderedDict
p0
((lp1
(lp2
S'state'
p3
aI0
aa(lp4
S'distance'
p5
aF276.2599792480469
aa(lp6
S'timestamp'
p7
aF3.3669629096984863
aatp8
Rp9
.ccollections
OrderedDict
p0
((lp1
(lp2
S'state'
p3
aI0
aa(lp4
S'distance'
p5
aF276.2599792480469
aa(lp6
S'timestamp'
p7
aF3.376710891723633
aatp8
Rp9
.ccollections
OrderedDict
p0
((lp1
(lp2
S'state'
p3
aI0
aa(lp4
S'distance'
p5
aF276.2599792480469
aa(lp6
S'timestamp'
p7
aF3.377647876739502
aatp8
Rp9
.ccollections
OrderedDict
p0
((lp1
(lp2
S'state'
p3
aI0
aa(lp4
S'distance'
p5
aF276.2599792480469
aa(lp6
S'timestamp'
p7
aF3.4063339233398438
aatp8
Rp9
.ccollections
OrderedDict
p0
((lp1
(lp2
S'state'
p3
aI0
aa(lp4
S'distance'
p5
aF276.2599792480469
aa(lp6
S'timestamp'
p7
aF3.40686297416687
aatp8
Rp9
.ccollections
OrderedDict
p0
((lp1
(lp2
S'state'
p3
aI0
aa(lp4
S'distance'
p5
aF276.2599792480469
aa(lp6
S'timestamp'
p7
aF3.4073729515075684
aatp8
Rp9
.ccollections
OrderedDict
p0
((lp1
(lp2
S'state'
p3
aI0
aa(lp4
S'distance'
p5
aF276.2599792480469
aa(lp6
S'timestamp'
p7
aF3.4079959392547607
aatp8
Rp9
.ccollections
OrderedDict
p0
((lp1
(lp2
S'state'
p3
aI0
aa(lp4
S'distance'
p5
aF276.2599792480469
aa(lp6
S'timestamp'
p7
aF3.416651964187622
aatp8
Rp9
.ccollections
OrderedDict
p0
((lp1
(lp2
S'state'
p3
aI0
aa(lp4
S'distance'
p5
aF276.2599792480469
aa(lp6
S'timestamp'
p7
aF3.417449951171875
aatp8
Rp9
.ccollections
OrderedDict
p0
((lp1
(lp2
S'state'
p3
aI0
aa(lp4
S'distance'
p5
aF276.2599792480469
aa(lp6
S'timestamp'
p7
aF3.4176979064941406
aatp8
Rp9
.ccollections
OrderedDict
p0
((lp1
(lp2
S'state'
p3
aI0
aa(lp4
S'distance'
p5
aF276.2599792480469
aa(lp6
S'timestamp'
p7
aF3.4188809394836426
aatp8
Rp9
.ccollections
OrderedDict
p0
((lp1
(lp2
S'state'
p3
aI0
aa(lp4
S'distance'
p5
aF276.2599792480469
aa(lp6
S'timestamp'
p7
aF3.4271669387817383
aatp8
Rp9
.ccollections
OrderedDict
p0
((lp1
(lp2
S'state'
p3
aI0
aa(lp4
S'distance'
p5
aF276.2599792480469
aa(lp6
S'timestamp'
p7
aF3.427588939666748
aatp8
Rp9
.ccollections
OrderedDict
p0
((lp1
(lp2
S'state'
p3
aI0
aa(lp4
S'distance'
p5
aF276.2599792480469
aa(lp6
S'timestamp'
p7
aF3.436652898788452
aatp8
Rp9
.ccollections
OrderedDict
p0
((lp1
(lp2
S'state'
p3
aI0
aa(lp4
S'distance'
p5
aF276.2599792480469
aa(lp6
S'timestamp'
p7
aF3.4371678829193115
aatp8
Rp9
.ccollections
OrderedDict
p0
((lp1
(lp2
S'state'
p3
aI0
aa(lp4
S'distance'
p5
aF276.2599792480469
aa(lp6
S'timestamp'
p7
aF3.447269916534424
aatp8
Rp9
.ccollections
OrderedDict
p0
((lp1
(lp2
S'state'
p3
aI0
aa(lp4
S'distance'
p5
aF276.2599792480469
aa(lp6
S'timestamp'
p7
aF3.4473538398742676
aatp8
Rp9
.ccollections
OrderedDict
p0
((lp1
(lp2
S'state'
p3
aI0
aa(lp4
S'distance'
p5
aF276.2599792480469
aa(lp6
S'timestamp'
p7
aF3.4573049545288086
aatp8
Rp9
.ccollections
OrderedDict
p0
((lp1
(lp2
S'state'
p3
aI0
aa(lp4
S'distance'
p5
aF276.2599792480469
aa(lp6
S'timestamp'
p7
aF3.4586570262908936
aatp8
Rp9
.ccollections
OrderedDict
p0
((lp1
(lp2
S'state'
p3
aI0
aa(lp4
S'distance'
p5
aF276.2599792480469
aa(lp6
S'timestamp'
p7
aF3.476722002029419
aatp8
Rp9
.ccollections
OrderedDict
p0
((lp1
(lp2
S'state'
p3
aI0
aa(lp4
S'distance'
p5
aF276.2599792480469
aa(lp6
S'timestamp'
p7
aF3.477142810821533
aatp8
Rp9
.ccollections
OrderedDict
p0
((lp1
(lp2
S'state'
p3
aI0
aa(lp4
S'distance'
p5
aF276.2599792480469
aa(lp6
S'timestamp'
p7
aF3.478327989578247
aatp8
Rp9
.ccollections
OrderedDict
p0
((lp1
(lp2
S'state'
p3
aI0
aa(lp4
S'distance'
p5
aF276.2599792480469
aa(lp6
S'timestamp'
p7
aF3.478984832763672
aatp8
Rp9
.ccollections
OrderedDict
p0
((lp1
(lp2
S'state'
p3
aI0
aa(lp4
S'distance'
p5
aF276.2599792480469
aa(lp6
S'timestamp'
p7
aF3.486750841140747
aatp8
Rp9
.ccollections
OrderedDict
p0
((lp1
(lp2
S'state'
p3
aI0
aa(lp4
S'distance'
p5
aF276.2599792480469
aa(lp6
S'timestamp'
p7
aF3.4868369102478027
aatp8
Rp9
.ccollections
OrderedDict
p0
((lp1
(lp2
S'state'
p3
aI400
aa(lp4
S'distance'
p5
aF276.2599792480469
aa(lp6
S'timestamp'
p7
aF3.4969019889831543
aatp8
Rp9
.ccollections
OrderedDict
p0
((lp1
(lp2
S'state'
p3
aI400
aa(lp4
S'distance'
p5
aF276.2599792480469
aa(lp6
S'timestamp'
p7
aF3.497148036956787
aatp8
Rp9
.ccollections
OrderedDict
p0
((lp1
(lp2
S'state'
p3
aI400
aa(lp4
S'distance'
p5
aF276.2599792480469
aa(lp6
S'timestamp'
p7
aF3.518129825592041
aatp8
Rp9
.ccollections
OrderedDict
p0
((lp1
(lp2
S'state'
p3
aI400
aa(lp4
S'distance'
p5
aF276.2599792480469
aa(lp6
S'timestamp'
p7
aF3.5189208984375
aatp8
Rp9
.ccollections
OrderedDict
p0
((lp1
(lp2
S'state'
p3
aI400
aa(lp4
S'distance'
p5
aF276.2599792480469
aa(lp6
S'timestamp'
p7
aF3.5194029808044434
aatp8
Rp9
.ccollections
OrderedDict
p0
((lp1
(lp2
S'state'
p3
aI400
aa(lp4
S'distance'
p5
aF276.2599792480469
aa(lp6
S'timestamp'
p7
aF3.5201609134674072
aatp8
Rp9
.ccollections
OrderedDict
p0
((lp1
(lp2
S'state'
p3
aI400
aa(lp4
S'distance'
p5
aF276.2599792480469
aa(lp6
S'timestamp'
p7
aF3.5366709232330322
aatp8
Rp9
.ccollections
OrderedDict
p0
((lp1
(lp2
S'state'
p3
aI400
aa(lp4
S'distance'
p5
aF276.2599792480469
aa(lp6
S'timestamp'
p7
aF3.537510871887207
aatp8
Rp9
.ccollections
OrderedDict
p0
((lp1
(lp2
S'state'
p3
aI400
aa(lp4
S'distance'
p5
aF276.2599792480469
aa(lp6
S'timestamp'
p7
aF3.540289878845215
aatp8
Rp9
.ccollections
OrderedDict
p0
((lp1
(lp2
S'state'
p3
aI400
aa(lp4
S'distance'
p5
aF276.2599792480469
aa(lp6
S'timestamp'
p7
aF3.540410041809082
aatp8
Rp9
.ccollections
OrderedDict
p0
((lp1
(lp2
S'state'
p3
aI400
aa(lp4
S'distance'
p5
aF276.2599792480469
aa(lp6
S'timestamp'
p7
aF3.5465688705444336
aatp8
Rp9
.ccollections
OrderedDict
p0
((lp1
(lp2
S'state'
p3
aI400
aa(lp4
S'distance'
p5
aF276.2599792480469
aa(lp6
S'timestamp'
p7
aF3.547250986099243
aatp8
Rp9
.ccollections
OrderedDict
p0
((lp1
(lp2
S'state'
p3
aI400
aa(lp4
S'distance'
p5
aF276.2599792480469
aa(lp6
S'timestamp'
p7
aF3.5565788745880127
aatp8
Rp9
.ccollections
OrderedDict
p0
((lp1
(lp2
S'state'
p3
aI400
aa(lp4
S'distance'
p5
aF276.2599792480469
aa(lp6
S'timestamp'
p7
aF3.5569679737091064
aatp8
Rp9
.ccollections
OrderedDict
p0
((lp1
(lp2
S'state'
p3
aI400
aa(lp4
S'distance'
p5
aF276.2599792480469
aa(lp6
S'timestamp'
p7
aF3.566680908203125
aatp8
Rp9
.ccollections
OrderedDict
p0
((lp1
(lp2
S'state'
p3
aI400
aa(lp4
S'distance'
p5
aF276.2599792480469
aa(lp6
S'timestamp'
p7
aF3.5669310092926025
aatp8
Rp9
.ccollections
OrderedDict
p0
((lp1
(lp2
S'state'
p3
aI400
aa(lp4
S'distance'
p5
aF276.2599792480469
aa(lp6
S'timestamp'
p7
aF3.5966148376464844
aatp8
Rp9
.ccollections
OrderedDict
p0
((lp1
(lp2
S'state'
p3
aI400
aa(lp4
S'distance'
p5
aF276.2599792480469
aa(lp6
S'timestamp'
p7
aF3.596837043762207
aatp8
Rp9
.ccollections
OrderedDict
p0
((lp1
(lp2
S'state'
p3
aI400
aa(lp4
S'distance'
p5
aF276.2599792480469
aa(lp6
S'timestamp'
p7
aF3.597230911254883
aatp8
Rp9
.ccollections
OrderedDict
p0
((lp1
(lp2
S'state'
p3
aI400
aa(lp4
S'distance'
p5
aF276.2599792480469
aa(lp6
S'timestamp'
p7
aF3.6169838905334473
aatp8
Rp9
.ccollections
OrderedDict
p0
((lp1
(lp2
S'state'
p3
aI400
aa(lp4
S'distance'
p5
aF276.2599792480469
aa(lp6
S'timestamp'
p7
aF3.6172900199890137
aatp8
Rp9
.ccollections
OrderedDict
p0
((lp1
(lp2
S'state'
p3
aI400
aa(lp4
S'distance'
p5
aF276.2599792480469
aa(lp6
S'timestamp'
p7
aF3.618403911590576
aatp8
Rp9
.ccollections
OrderedDict
p0
((lp1
(lp2
S'state'
p3
aI400
aa(lp4
S'distance'
p5
aF276.2599792480469
aa(lp6
S'timestamp'
p7
aF3.6271228790283203
aatp8
Rp9
.ccollections
OrderedDict
p0
((lp1
(lp2
S'state'
p3
aI400
aa(lp4
S'distance'
p5
aF276.2599792480469
aa(lp6
S'timestamp'
p7
aF3.6280999183654785
aatp8
Rp9
.ccollections
OrderedDict
p0
((lp1
(lp2
S'state'
p3
aI400
aa(lp4
S'distance'
p5
aF276.2599792480469
aa(lp6
S'timestamp'
p7
aF3.628937005996704
aatp8
Rp9
.ccollections
OrderedDict
p0
((lp1
(lp2
S'state'
p3
aI400
aa(lp4
S'distance'
p5
aF276.2599792480469
aa(lp6
S'timestamp'
p7
aF3.629757881164551
aatp8
Rp9
.ccollections
OrderedDict
p0
((lp1
(lp2
S'state'
p3
aI400
aa(lp4
S'distance'
p5
aF276.2599792480469
aa(lp6
S'timestamp'
p7
aF3.6375679969787598
aatp8
Rp9
.ccollections
OrderedDict
p0
((lp1
(lp2
S'state'
p3
aI400
aa(lp4
S'distance'
p5
aF276.2599792480469
aa(lp6
S'timestamp'
p7
aF3.637845039367676
aatp8
Rp9
.ccollections
OrderedDict
p0
((lp1
(lp2
S'state'
p3
aI400
aa(lp4
S'distance'
p5
aF276.2599792480469
aa(lp6
S'timestamp'
p7
aF3.640324831008911
aatp8
Rp9
.ccollections
OrderedDict
p0
((lp1
(lp2
S'state'
p3
aI400
aa(lp4
S'distance'
p5
aF276.2599792480469
aa(lp6
S'timestamp'
p7
aF3.6404848098754883
aatp8
Rp9
.ccollections
OrderedDict
p0
((lp1
(lp2
S'state'
p3
aI400
aa(lp4
S'distance'
p5
aF276.2599792480469
aa(lp6
S'timestamp'
p7
aF3.646756887435913
aatp8
Rp9
.ccollections
OrderedDict
p0
((lp1
(lp2
S'state'
p3
aI400
aa(lp4
S'distance'
p5
aF276.2599792480469
aa(lp6
S'timestamp'
p7
aF3.6476800441741943
aatp8
Rp9
.ccollections
OrderedDict
p0
((lp1
(lp2
S'state'
p3
aI400
aa(lp4
S'distance'
p5
aF276.2599792480469
aa(lp6
S'timestamp'
p7
aF3.656697988510132
aatp8
Rp9
.ccollections
OrderedDict
p0
((lp1
(lp2
S'state'
p3
aI400
aa(lp4
S'distance'
p5
aF276.2599792480469
aa(lp6
S'timestamp'
p7
aF3.6596899032592773
aatp8
Rp9
.ccollections
OrderedDict
p0
((lp1
(lp2
S'state'
p3
aI400
aa(lp4
S'distance'
p5
aF276.2599792480469
aa(lp6
S'timestamp'
p7
aF3.6868929862976074
aatp8
Rp9
.ccollections
OrderedDict
p0
((lp1
(lp2
S'state'
p3
aI400
aa(lp4
S'distance'
p5
aF276.2599792480469
aa(lp6
S'timestamp'
p7
aF3.6879539489746094
aatp8
Rp9
.ccollections
OrderedDict
p0
((lp1
(lp2
S'state'
p3
aI400
aa(lp4
S'distance'
p5
aF276.2599792480469
aa(lp6
S'timestamp'
p7
aF3.6880970001220703
aatp8
Rp9
.ccollections
OrderedDict
p0
((lp1
(lp2
S'state'
p3
aI400
aa(lp4
S'distance'
p5
aF276.2599792480469
aa(lp6
S'timestamp'
p7
aF3.689201831817627
aatp8
Rp9
.ccollections
OrderedDict
p0
((lp1
(lp2
S'state'
p3
aI400
aa(lp4
S'distance'
p5
aF276.2599792480469
aa(lp6
S'timestamp'
p7
aF3.6967008113861084
aatp8
Rp9
.ccollections
OrderedDict
p0
((lp1
(lp2
S'state'
p3
aI400
aa(lp4
S'distance'
p5
aF276.2599792480469
aa(lp6
S'timestamp'
p7
aF3.6970038414001465
aatp8
Rp9
.ccollections
OrderedDict
p0
((lp1
(lp2
S'state'
p3
aI400
aa(lp4
S'distance'
p5
aF276.2599792480469
aa(lp6
S'timestamp'
p7
aF3.7002129554748535
aatp8
Rp9
.ccollections
OrderedDict
p0
((lp1
(lp2
S'state'
p3
aI400
aa(lp4
S'distance'
p5
aF276.2599792480469
aa(lp6
S'timestamp'
p7
aF3.700300931930542
aatp8
Rp9
.ccollections
OrderedDict
p0
((lp1
(lp2
S'state'
p3
aI400
aa(lp4
S'distance'
p5
aF276.2599792480469
aa(lp6
S'timestamp'
p7
aF3.70668888092041
aatp8
Rp9
.ccollections
OrderedDict
p0
((lp1
(lp2
S'state'
p3
aI400
aa(lp4
S'distance'
p5
aF276.2599792480469
aa(lp6
S'timestamp'
p7
aF3.7074408531188965
aatp8
Rp9
.ccollections
OrderedDict
p0
((lp1
(lp2
S'state'
p3
aI400
aa(lp4
S'distance'
p5
aF276.2599792480469
aa(lp6
S'timestamp'
p7
aF3.71677303314209
aatp8
Rp9
.ccollections
OrderedDict
p0
((lp1
(lp2
S'state'
p3
aI400
aa(lp4
S'distance'
p5
aF276.2599792480469
aa(lp6
S'timestamp'
p7
aF3.716864824295044
aatp8
Rp9
.ccollections
OrderedDict
p0
((lp1
(lp2
S'state'
p3
aI400
aa(lp4
S'distance'
p5
aF276.2599792480469
aa(lp6
S'timestamp'
p7
aF3.7268359661102295
aatp8
Rp9
.ccollections
OrderedDict
p0
((lp1
(lp2
S'state'
p3
aI400
aa(lp4
S'distance'
p5
aF276.2599792480469
aa(lp6
S'timestamp'
p7
aF3.727883815765381
aatp8
Rp9
.ccollections
OrderedDict
p0
((lp1
(lp2
S'state'
p3
aI400
aa(lp4
S'distance'
p5
aF276.2599792480469
aa(lp6
S'timestamp'
p7
aF3.736654043197632
aatp8
Rp9
.ccollections
OrderedDict
p0
((lp1
(lp2
S'state'
p3
aI400
aa(lp4
S'distance'
p5
aF276.2599792480469
aa(lp6
S'timestamp'
p7
aF3.7373549938201904
aatp8
Rp9
.ccollections
OrderedDict
p0
((lp1
(lp2
S'state'
p3
aI400
aa(lp4
S'distance'
p5
aF276.2599792480469
aa(lp6
S'timestamp'
p7
aF3.756626844406128
aatp8
Rp9
.ccollections
OrderedDict
p0
((lp1
(lp2
S'state'
p3
aI400
aa(lp4
S'distance'
p5
aF276.2599792480469
aa(lp6
S'timestamp'
p7
aF3.7576489448547363
aatp8
Rp9
.ccollections
OrderedDict
p0
((lp1
(lp2
S'state'
p3
aI400
aa(lp4
S'distance'
p5
aF276.2599792480469
aa(lp6
S'timestamp'
p7
aF3.7581658363342285
aatp8
Rp9
.ccollections
OrderedDict
p0
((lp1
(lp2
S'state'
p3
aI400
aa(lp4
S'distance'
p5
aF276.2599792480469
aa(lp6
S'timestamp'
p7
aF3.7589688301086426
aatp8
Rp9
.ccollections
OrderedDict
p0
((lp1
(lp2
S'state'
p3
aI400
aa(lp4
S'distance'
p5
aF276.2599792480469
aa(lp6
S'timestamp'
p7
aF3.7675528526306152
aatp8
Rp9
.ccollections
OrderedDict
p0
((lp1
(lp2
S'state'
p3
aI400
aa(lp4
S'distance'
p5
aF276.2599792480469
aa(lp6
S'timestamp'
p7
aF3.7678580284118652
aatp8
Rp9
.ccollections
OrderedDict
p0
((lp1
(lp2
S'state'
p3
aI400
aa(lp4
S'distance'
p5
aF276.2599792480469
aa(lp6
S'timestamp'
p7
aF3.7772369384765625
aatp8
Rp9
.ccollections
OrderedDict
p0
((lp1
(lp2
S'state'
p3
aI400
aa(lp4
S'distance'
p5
aF276.2599792480469
aa(lp6
S'timestamp'
p7
aF3.77790904045105
aatp8
Rp9
.ccollections
OrderedDict
p0
((lp1
(lp2
S'state'
p3
aI400
aa(lp4
S'distance'
p5
aF276.2599792480469
aa(lp6
S'timestamp'
p7
aF3.7864909172058105
aatp8
Rp9
.ccollections
OrderedDict
p0
((lp1
(lp2
S'state'
p3
aI400
aa(lp4
S'distance'
p5
aF276.2599792480469
aa(lp6
S'timestamp'
p7
aF3.787384033203125
aatp8
Rp9
.ccollections
OrderedDict
p0
((lp1
(lp2
S'state'
p3
aI400
aa(lp4
S'distance'
p5
aF276.2599792480469
aa(lp6
S'timestamp'
p7
aF3.796557903289795
aatp8
Rp9
.ccollections
OrderedDict
p0
((lp1
(lp2
S'state'
p3
aI400
aa(lp4
S'distance'
p5
aF276.2599792480469
aa(lp6
S'timestamp'
p7
aF3.7971420288085938
aatp8
Rp9
.ccollections
OrderedDict
p0
((lp1
(lp2
S'state'
p3
aI400
aa(lp4
S'distance'
p5
aF276.2599792480469
aa(lp6
S'timestamp'
p7
aF3.806762933731079
aatp8
Rp9
.ccollections
OrderedDict
p0
((lp1
(lp2
S'state'
p3
aI400
aa(lp4
S'distance'
p5
aF276.2599792480469
aa(lp6
S'timestamp'
p7
aF3.80692195892334
aatp8
Rp9
.ccollections
OrderedDict
p0
((lp1
(lp2
S'state'
p3
aI400
aa(lp4
S'distance'
p5
aF276.2599792480469
aa(lp6
S'timestamp'
p7
aF3.8172249794006348
aatp8
Rp9
.ccollections
OrderedDict
p0
((lp1
(lp2
S'state'
p3
aI400
aa(lp4
S'distance'
p5
aF276.2599792480469
aa(lp6
S'timestamp'
p7
aF3.8188250064849854
aatp8
Rp9
.ccollections
OrderedDict
p0
((lp1
(lp2
S'state'
p3
aI400
aa(lp4
S'distance'
p5
aF276.2599792480469
aa(lp6
S'timestamp'
p7
aF3.8268940448760986
aatp8
Rp9
.ccollections
OrderedDict
p0
((lp1
(lp2
S'state'
p3
aI400
aa(lp4
S'distance'
p5
aF276.2599792480469
aa(lp6
S'timestamp'
p7
aF3.826979875564575
aatp8
Rp9
.ccollections
OrderedDict
p0
((lp1
(lp2
S'state'
p3
aI400
aa(lp4
S'distance'
p5
aF276.2599792480469
aa(lp6
S'timestamp'
p7
aF3.8366498947143555
aatp8
Rp9
.ccollections
OrderedDict
p0
((lp1
(lp2
S'state'
p3
aI400
aa(lp4
S'distance'
p5
aF276.2599792480469
aa(lp6
S'timestamp'
p7
aF3.8369979858398438
aatp8
Rp9
.ccollections
OrderedDict
p0
((lp1
(lp2
S'state'
p3
aI400
aa(lp4
S'distance'
p5
aF276.2599792480469
aa(lp6
S'timestamp'
p7
aF3.846930980682373
aatp8
Rp9
.ccollections
OrderedDict
p0
((lp1
(lp2
S'state'
p3
aI400
aa(lp4
S'distance'
p5
aF276.2599792480469
aa(lp6
S'timestamp'
p7
aF3.8473339080810547
aatp8
Rp9
.ccollections
OrderedDict
p0
((lp1
(lp2
S'state'
p3
aI400
aa(lp4
S'distance'
p5
aF276.2599792480469
aa(lp6
S'timestamp'
p7
aF3.8569798469543457
aatp8
Rp9
.ccollections
OrderedDict
p0
((lp1
(lp2
S'state'
p3
aI400
aa(lp4
S'distance'
p5
aF276.2599792480469
aa(lp6
S'timestamp'
p7
aF3.8571250438690186
aatp8
Rp9
.ccollections
OrderedDict
p0
((lp1
(lp2
S'state'
p3
aI400
aa(lp4
S'distance'
p5
aF276.2599792480469
aa(lp6
S'timestamp'
p7
aF3.866586923599243
aatp8
Rp9
.ccollections
OrderedDict
p0
((lp1
(lp2
S'state'
p3
aI400
aa(lp4
S'distance'
p5
aF276.2599792480469
aa(lp6
S'timestamp'
p7
aF3.867079973220825
aatp8
Rp9
.ccollections
OrderedDict
p0
((lp1
(lp2
S'state'
p3
aI400
aa(lp4
S'distance'
p5
aF276.2599792480469
aa(lp6
S'timestamp'
p7
aF3.877480983734131
aatp8
Rp9
.ccollections
OrderedDict
p0
((lp1
(lp2
S'state'
p3
aI400
aa(lp4
S'distance'
p5
aF276.2599792480469
aa(lp6
S'timestamp'
p7
aF3.8776159286499023
aatp8
Rp9
.ccollections
OrderedDict
p0
((lp1
(lp2
S'state'
p3
aI400
aa(lp4
S'distance'
p5
aF276.2599792480469
aa(lp6
S'timestamp'
p7
aF3.886960983276367
aatp8
Rp9
.ccollections
OrderedDict
p0
((lp1
(lp2
S'state'
p3
aI400
aa(lp4
S'distance'
p5
aF276.2599792480469
aa(lp6
S'timestamp'
p7
aF3.8874659538269043
aatp8
Rp9
.ccollections
OrderedDict
p0
((lp1
(lp2
S'state'
p3
aI400
aa(lp4
S'distance'
p5
aF276.2599792480469
aa(lp6
S'timestamp'
p7
aF3.896951913833618
aatp8
Rp9
.ccollections
OrderedDict
p0
((lp1
(lp2
S'state'
p3
aI400
aa(lp4
S'distance'
p5
aF276.2599792480469
aa(lp6
S'timestamp'
p7
aF3.9068429470062256
aatp8
Rp9
.ccollections
OrderedDict
p0
((lp1
(lp2
S'state'
p3
aI400
aa(lp4
S'distance'
p5
aF276.2599792480469
aa(lp6
S'timestamp'
p7
aF3.907639980316162
aatp8
Rp9
.ccollections
OrderedDict
p0
((lp1
(lp2
S'state'
p3
aI400
aa(lp4
S'distance'
p5
aF276.2599792480469
aa(lp6
S'timestamp'
p7
aF3.9077179431915283
aatp8
Rp9
.ccollections
OrderedDict
p0
((lp1
(lp2
S'state'
p3
aI400
aa(lp4
S'distance'
p5
aF276.2599792480469
aa(lp6
S'timestamp'
p7
aF3.916597843170166
aatp8
Rp9
.ccollections
OrderedDict
p0
((lp1
(lp2
S'state'
p3
aI400
aa(lp4
S'distance'
p5
aF276.2599792480469
aa(lp6
S'timestamp'
p7
aF3.917102813720703
aatp8
Rp9
.ccollections
OrderedDict
p0
((lp1
(lp2
S'state'
p3
aI400
aa(lp4
S'distance'
p5
aF276.2599792480469
aa(lp6
S'timestamp'
p7
aF3.9264168739318848
aatp8
Rp9
.ccollections
OrderedDict
p0
((lp1
(lp2
S'state'
p3
aI400
aa(lp4
S'distance'
p5
aF276.2599792480469
aa(lp6
S'timestamp'
p7
aF3.927037000656128
aatp8
Rp9
.ccollections
OrderedDict
p0
((lp1
(lp2
S'state'
p3
aI400
aa(lp4
S'distance'
p5
aF276.2599792480469
aa(lp6
S'timestamp'
p7
aF3.9366018772125244
aatp8
Rp9
.ccollections
OrderedDict
p0
((lp1
(lp2
S'state'
p3
aI400
aa(lp4
S'distance'
p5
aF276.2599792480469
aa(lp6
S'timestamp'
p7
aF3.9378058910369873
aatp8
Rp9
.ccollections
OrderedDict
p0
((lp1
(lp2
S'state'
p3
aI400
aa(lp4
S'distance'
p5
aF276.2599792480469
aa(lp6
S'timestamp'
p7
aF3.9464828968048096
aatp8
Rp9
.ccollections
OrderedDict
p0
((lp1
(lp2
S'state'
p3
aI400
aa(lp4
S'distance'
p5
aF276.2599792480469
aa(lp6
S'timestamp'
p7
aF3.9468798637390137
aatp8
Rp9
.ccollections
OrderedDict
p0
((lp1
(lp2
S'state'
p3
aI400
aa(lp4
S'distance'
p5
aF276.2599792480469
aa(lp6
S'timestamp'
p7
aF3.9566290378570557
aatp8
Rp9
.ccollections
OrderedDict
p0
((lp1
(lp2
S'state'
p3
aI400
aa(lp4
S'distance'
p5
aF276.2599792480469
aa(lp6
S'timestamp'
p7
aF3.9572649002075195
aatp8
Rp9
.ccollections
OrderedDict
p0
((lp1
(lp2
S'state'
p3
aI400
aa(lp4
S'distance'
p5
aF276.2599792480469
aa(lp6
S'timestamp'
p7
aF3.9665069580078125
aatp8
Rp9
.ccollections
OrderedDict
p0
((lp1
(lp2
S'state'
p3
aI400
aa(lp4
S'distance'
p5
aF276.2599792480469
aa(lp6
S'timestamp'
p7
aF3.9670169353485107
aatp8
Rp9
.ccollections
OrderedDict
p0
((lp1
(lp2
S'state'
p3
aI400
aa(lp4
S'distance'
p5
aF276.2599792480469
aa(lp6
S'timestamp'
p7
aF3.976630926132202
aatp8
Rp9
.ccollections
OrderedDict
p0
((lp1
(lp2
S'state'
p3
aI400
aa(lp4
S'distance'
p5
aF276.2599792480469
aa(lp6
S'timestamp'
p7
aF3.9774060249328613
aatp8
Rp9
.ccollections
OrderedDict
p0
((lp1
(lp2
S'state'
p3
aI400
aa(lp4
S'distance'
p5
aF276.2599792480469
aa(lp6
S'timestamp'
p7
aF3.986863851547241
aatp8
Rp9
.ccollections
OrderedDict
p0
((lp1
(lp2
S'state'
p3
aI400
aa(lp4
S'distance'
p5
aF276.2599792480469
aa(lp6
S'timestamp'
p7
aF3.9876458644866943
aatp8
Rp9
.ccollections
OrderedDict
p0
((lp1
(lp2
S'state'
p3
aI400
aa(lp4
S'distance'
p5
aF276.2599792480469
aa(lp6
S'timestamp'
p7
aF3.9964799880981445
aatp8
Rp9
.ccollections
OrderedDict
p0
((lp1
(lp2
S'state'
p3
aI400
aa(lp4
S'distance'
p5
aF276.2599792480469
aa(lp6
S'timestamp'
p7
aF3.9971840381622314
aatp8
Rp9
.ccollections
OrderedDict
p0
((lp1
(lp2
S'state'
p3
aI400
aa(lp4
S'distance'
p5
aF276.2599792480469
aa(lp6
S'timestamp'
p7
aF4.006721019744873
aatp8
Rp9
.ccollections
OrderedDict
p0
((lp1
(lp2
S'state'
p3
aI400
aa(lp4
S'distance'
p5
aF276.2599792480469
aa(lp6
S'timestamp'
p7
aF4.00711989402771
aatp8
Rp9
.ccollections
OrderedDict
p0
((lp1
(lp2
S'state'
p3
aI400
aa(lp4
S'distance'
p5
aF276.2599792480469
aa(lp6
S'timestamp'
p7
aF4.016618967056274
aatp8
Rp9
.ccollections
OrderedDict
p0
((lp1
(lp2
S'state'
p3
aI400
aa(lp4
S'distance'
p5
aF276.2599792480469
aa(lp6
S'timestamp'
p7
aF4.0170698165893555
aatp8
Rp9
.ccollections
OrderedDict
p0
((lp1
(lp2
S'state'
p3
aI400
aa(lp4
S'distance'
p5
aF276.2599792480469
aa(lp6
S'timestamp'
p7
aF4.026701927185059
aatp8
Rp9
.ccollections
OrderedDict
p0
((lp1
(lp2
S'state'
p3
aI400
aa(lp4
S'distance'
p5
aF276.2599792480469
aa(lp6
S'timestamp'
p7
aF4.027206897735596
aatp8
Rp9
.ccollections
OrderedDict
p0
((lp1
(lp2
S'state'
p3
aI400
aa(lp4
S'distance'
p5
aF276.2599792480469
aa(lp6
S'timestamp'
p7
aF4.0366058349609375
aatp8
Rp9
.ccollections
OrderedDict
p0
((lp1
(lp2
S'state'
p3
aI400
aa(lp4
S'distance'
p5
aF276.2599792480469
aa(lp6
S'timestamp'
p7
aF4.037071943283081
aatp8
Rp9
.ccollections
OrderedDict
p0
((lp1
(lp2
S'state'
p3
aI400
aa(lp4
S'distance'
p5
aF276.2599792480469
aa(lp6
S'timestamp'
p7
aF4.046734809875488
aatp8
Rp9
.ccollections
OrderedDict
p0
((lp1
(lp2
S'state'
p3
aI400
aa(lp4
S'distance'
p5
aF276.2599792480469
aa(lp6
S'timestamp'
p7
aF4.046865940093994
aatp8
Rp9
.ccollections
OrderedDict
p0
((lp1
(lp2
S'state'
p3
aI400
aa(lp4
S'distance'
p5
aF276.2599792480469
aa(lp6
S'timestamp'
p7
aF4.056908845901489
aatp8
Rp9
.ccollections
OrderedDict
p0
((lp1
(lp2
S'state'
p3
aI400
aa(lp4
S'distance'
p5
aF276.2599792480469
aa(lp6
S'timestamp'
p7
aF4.057034015655518
aatp8
Rp9
.ccollections
OrderedDict
p0
((lp1
(lp2
S'state'
p3
aI400
aa(lp4
S'distance'
p5
aF276.2599792480469
aa(lp6
S'timestamp'
p7
aF4.06684684753418
aatp8
Rp9
.ccollections
OrderedDict
p0
((lp1
(lp2
S'state'
p3
aI400
aa(lp4
S'distance'
p5
aF276.2599792480469
aa(lp6
S'timestamp'
p7
aF4.06777286529541
aatp8
Rp9
.ccollections
OrderedDict
p0
((lp1
(lp2
S'state'
p3
aI400
aa(lp4
S'distance'
p5
aF276.2599792480469
aa(lp6
S'timestamp'
p7
aF4.07648491859436
aatp8
Rp9
.ccollections
OrderedDict
p0
((lp1
(lp2
S'state'
p3
aI400
aa(lp4
S'distance'
p5
aF276.2599792480469
aa(lp6
S'timestamp'
p7
aF4.077373027801514
aatp8
Rp9
.ccollections
OrderedDict
p0
((lp1
(lp2
S'state'
p3
aI400
aa(lp4
S'distance'
p5
aF276.2599792480469
aa(lp6
S'timestamp'
p7
aF4.086782932281494
aatp8
Rp9
.ccollections
OrderedDict
p0
((lp1
(lp2
S'state'
p3
aI400
aa(lp4
S'distance'
p5
aF276.2599792480469
aa(lp6
S'timestamp'
p7
aF4.086930990219116
aatp8
Rp9
.ccollections
OrderedDict
p0
((lp1
(lp2
S'state'
p3
aI400
aa(lp4
S'distance'
p5
aF276.2599792480469
aa(lp6
S'timestamp'
p7
aF4.09689998626709
aatp8
Rp9
.ccollections
OrderedDict
p0
((lp1
(lp2
S'state'
p3
aI400
aa(lp4
S'distance'
p5
aF276.2599792480469
aa(lp6
S'timestamp'
p7
aF4.0976738929748535
aatp8
Rp9
.ccollections
OrderedDict
p0
((lp1
(lp2
S'state'
p3
aI400
aa(lp4
S'distance'
p5
aF276.2599792480469
aa(lp6
S'timestamp'
p7
aF4.107362985610962
aatp8
Rp9
.ccollections
OrderedDict
p0
((lp1
(lp2
S'state'
p3
aI400
aa(lp4
S'distance'
p5
aF276.2599792480469
aa(lp6
S'timestamp'
p7
aF4.107447862625122
aatp8
Rp9
.ccollections
OrderedDict
p0
((lp1
(lp2
S'state'
p3
aI400
aa(lp4
S'distance'
p5
aF276.2599792480469
aa(lp6
S'timestamp'
p7
aF4.116508960723877
aatp8
Rp9
.ccollections
OrderedDict
p0
((lp1
(lp2
S'state'
p3
aI400
aa(lp4
S'distance'
p5
aF276.2599792480469
aa(lp6
S'timestamp'
p7
aF4.117235898971558
aatp8
Rp9
.ccollections
OrderedDict
p0
((lp1
(lp2
S'state'
p3
aI400
aa(lp4
S'distance'
p5
aF276.2599792480469
aa(lp6
S'timestamp'
p7
aF4.126550912857056
aatp8
Rp9
.ccollections
OrderedDict
p0
((lp1
(lp2
S'state'
p3
aI400
aa(lp4
S'distance'
p5
aF276.2599792480469
aa(lp6
S'timestamp'
p7
aF4.126929998397827
aatp8
Rp9
.ccollections
OrderedDict
p0
((lp1
(lp2
S'state'
p3
aI400
aa(lp4
S'distance'
p5
aF276.2599792480469
aa(lp6
S'timestamp'
p7
aF4.137279987335205
aatp8
Rp9
.ccollections
OrderedDict
p0
((lp1
(lp2
S'state'
p3
aI400
aa(lp4
S'distance'
p5
aF276.2599792480469
aa(lp6
S'timestamp'
p7
aF4.137629985809326
aatp8
Rp9
.ccollections
OrderedDict
p0
((lp1
(lp2
S'state'
p3
aI400
aa(lp4
S'distance'
p5
aF276.2599792480469
aa(lp6
S'timestamp'
p7
aF4.146888971328735
aatp8
Rp9
.ccollections
OrderedDict
p0
((lp1
(lp2
S'state'
p3
aI400
aa(lp4
S'distance'
p5
aF276.2599792480469
aa(lp6
S'timestamp'
p7
aF4.147284984588623
aatp8
Rp9
.ccollections
OrderedDict
p0
((lp1
(lp2
S'state'
p3
aI400
aa(lp4
S'distance'
p5
aF276.2599792480469
aa(lp6
S'timestamp'
p7
aF4.156375885009766
aatp8
Rp9
.ccollections
OrderedDict
p0
((lp1
(lp2
S'state'
p3
aI400
aa(lp4
S'distance'
p5
aF276.2599792480469
aa(lp6
S'timestamp'
p7
aF4.157059907913208
aatp8
Rp9
.ccollections
OrderedDict
p0
((lp1
(lp2
S'state'
p3
aI400
aa(lp4
S'distance'
p5
aF276.2599792480469
aa(lp6
S'timestamp'
p7
aF4.166533946990967
aatp8
Rp9
.ccollections
OrderedDict
p0
((lp1
(lp2
S'state'
p3
aI400
aa(lp4
S'distance'
p5
aF276.2599792480469
aa(lp6
S'timestamp'
p7
aF4.1672890186309814
aatp8
Rp9
.ccollections
OrderedDict
p0
((lp1
(lp2
S'state'
p3
aI400
aa(lp4
S'distance'
p5
aF276.2599792480469
aa(lp6
S'timestamp'
p7
aF4.176900863647461
aatp8
Rp9
.ccollections
OrderedDict
p0
((lp1
(lp2
S'state'
p3
aI400
aa(lp4
S'distance'
p5
aF276.2599792480469
aa(lp6
S'timestamp'
p7
aF4.1771368980407715
aatp8
Rp9
.ccollections
OrderedDict
p0
((lp1
(lp2
S'state'
p3
aI400
aa(lp4
S'distance'
p5
aF276.2599792480469
aa(lp6
S'timestamp'
p7
aF4.1864118576049805
aatp8
Rp9
.ccollections
OrderedDict
p0
((lp1
(lp2
S'state'
p3
aI0
aa(lp4
S'distance'
p5
aF276.2599792480469
aa(lp6
S'timestamp'
p7
aF4.187026023864746
aatp8
Rp9
.ccollections
OrderedDict
p0
((lp1
(lp2
S'state'
p3
aI0
aa(lp4
S'distance'
p5
aF176.4363555908203
aa(lp6
S'timestamp'
p7
aF4.748641014099121
aatp8
Rp9
.ccollections
OrderedDict
p0
((lp1
(lp2
S'state'
p3
aI0
aa(lp4
S'distance'
p5
aF176.4363555908203
aa(lp6
S'timestamp'
p7
aF4.756968975067139
aatp8
Rp9
.ccollections
OrderedDict
p0
((lp1
(lp2
S'state'
p3
aI0
aa(lp4
S'distance'
p5
aF176.4363555908203
aa(lp6
S'timestamp'
p7
aF4.757056951522827
aatp8
Rp9
.ccollections
OrderedDict
p0
((lp1
(lp2
S'state'
p3
aI0
aa(lp4
S'distance'
p5
aF176.4363555908203
aa(lp6
S'timestamp'
p7
aF4.777868986129761
aatp8
Rp9
.ccollections
OrderedDict
p0
((lp1
(lp2
S'state'
p3
aI0
aa(lp4
S'distance'
p5
aF176.4363555908203
aa(lp6
S'timestamp'
p7
aF4.779178857803345
aatp8
Rp9
.ccollections
OrderedDict
p0
((lp1
(lp2
S'state'
p3
aI0
aa(lp4
S'distance'
p5
aF176.4363555908203
aa(lp6
S'timestamp'
p7
aF4.779752016067505
aatp8
Rp9
.ccollections
OrderedDict
p0
((lp1
(lp2
S'state'
p3
aI0
aa(lp4
S'distance'
p5
aF176.4363555908203
aa(lp6
S'timestamp'
p7
aF4.779871940612793
aatp8
Rp9
.ccollections
OrderedDict
p0
((lp1
(lp2
S'state'
p3
aI0
aa(lp4
S'distance'
p5
aF176.4363555908203
aa(lp6
S'timestamp'
p7
aF4.786769866943359
aatp8
Rp9
.ccollections
OrderedDict
p0
((lp1
(lp2
S'state'
p3
aI0
aa(lp4
S'distance'
p5
aF176.4363555908203
aa(lp6
S'timestamp'
p7
aF4.787089824676514
aatp8
Rp9
.ccollections
OrderedDict
p0
((lp1
(lp2
S'state'
p3
aI0
aa(lp4
S'distance'
p5
aF176.4363555908203
aa(lp6
S'timestamp'
p7
aF4.796527862548828
aatp8
Rp9
.ccollections
OrderedDict
p0
((lp1
(lp2
S'state'
p3
aI0
aa(lp4
S'distance'
p5
aF176.4363555908203
aa(lp6
S'timestamp'
p7
aF4.797384977340698
aatp8
Rp9
.ccollections
OrderedDict
p0
((lp1
(lp2
S'state'
p3
aI0
aa(lp4
S'distance'
p5
aF176.4363555908203
aa(lp6
S'timestamp'
p7
aF4.807389974594116
aatp8
Rp9
.ccollections
OrderedDict
p0
((lp1
(lp2
S'state'
p3
aI0
aa(lp4
S'distance'
p5
aF176.4363555908203
aa(lp6
S'timestamp'
p7
aF4.807471036911011
aatp8
Rp9
.ccollections
OrderedDict
p0
((lp1
(lp2
S'state'
p3
aI0
aa(lp4
S'distance'
p5
aF176.4363555908203
aa(lp6
S'timestamp'
p7
aF4.817584991455078
aatp8
Rp9
.ccollections
OrderedDict
p0
((lp1
(lp2
S'state'
p3
aI0
aa(lp4
S'distance'
p5
aF176.4363555908203
aa(lp6
S'timestamp'
p7
aF4.818173885345459
aatp8
Rp9
.ccollections
OrderedDict
p0
((lp1
(lp2
S'state'
p3
aI0
aa(lp4
S'distance'
p5
aF176.4363555908203
aa(lp6
S'timestamp'
p7
aF4.837719917297363
aatp8
Rp9
.ccollections
OrderedDict
p0
((lp1
(lp2
S'state'
p3
aI0
aa(lp4
S'distance'
p5
aF176.4363555908203
aa(lp6
S'timestamp'
p7
aF4.838115930557251
aatp8
Rp9
.ccollections
OrderedDict
p0
((lp1
(lp2
S'state'
p3
aI0
aa(lp4
S'distance'
p5
aF176.4363555908203
aa(lp6
S'timestamp'
p7
aF4.83823299407959
aatp8
Rp9
.ccollections
OrderedDict
p0
((lp1
(lp2
S'state'
p3
aI0
aa(lp4
S'distance'
p5
aF176.4363555908203
aa(lp6
S'timestamp'
p7
aF4.838963985443115
aatp8
Rp9
.ccollections
OrderedDict
p0
((lp1
(lp2
S'state'
p3
aI0
aa(lp4
S'distance'
p5
aF176.4363555908203
aa(lp6
S'timestamp'
p7
aF4.8467628955841064
aatp8
Rp9
.ccollections
OrderedDict
p0
((lp1
(lp2
S'state'
p3
aI0
aa(lp4
S'distance'
p5
aF176.4363555908203
aa(lp6
S'timestamp'
p7
aF4.846930980682373
aatp8
Rp9
.ccollections
OrderedDict
p0
((lp1
(lp2
S'state'
p3
aI0
aa(lp4
S'distance'
p5
aF176.4363555908203
aa(lp6
S'timestamp'
p7
aF4.857264995574951
aatp8
Rp9
.ccollections
OrderedDict
p0
((lp1
(lp2
S'state'
p3
aI0
aa(lp4
S'distance'
p5
aF176.4363555908203
aa(lp6
S'timestamp'
p7
aF4.857600927352905
aatp8
Rp9
.ccollections
OrderedDict
p0
((lp1
(lp2
S'state'
p3
aI0
aa(lp4
S'distance'
p5
aF176.4363555908203
aa(lp6
S'timestamp'
p7
aF4.866837978363037
aatp8
Rp9
.ccollections
OrderedDict
p0
((lp1
(lp2
S'state'
p3
aI0
aa(lp4
S'distance'
p5
aF176.4363555908203
aa(lp6
S'timestamp'
p7
aF4.867528915405273
aatp8
Rp9
.ccollections
OrderedDict
p0
((lp1
(lp2
S'state'
p3
aI0
aa(lp4
S'distance'
p5
aF176.4363555908203
aa(lp6
S'timestamp'
p7
aF4.896749973297119
aatp8
Rp9
.ccollections
OrderedDict
p0
((lp1
(lp2
S'state'
p3
aI0
aa(lp4
S'distance'
p5
aF176.4363555908203
aa(lp6
S'timestamp'
p7
aF4.897042989730835
aatp8
Rp9
.ccollections
OrderedDict
p0
((lp1
(lp2
S'state'
p3
aI0
aa(lp4
S'distance'
p5
aF176.4363555908203
aa(lp6
S'timestamp'
p7
aF4.899343013763428
aatp8
Rp9
.ccollections
OrderedDict
p0
((lp1
(lp2
S'state'
p3
aI0
aa(lp4
S'distance'
p5
aF176.4363555908203
aa(lp6
S'timestamp'
p7
aF4.899960041046143
aatp8
Rp9
.ccollections
OrderedDict
p0
((lp1
(lp2
S'state'
p3
aI0
aa(lp4
S'distance'
p5
aF176.4363555908203
aa(lp6
S'timestamp'
p7
aF4.907253980636597
aatp8
Rp9
.ccollections
OrderedDict
p0
((lp1
(lp2
S'state'
p3
aI0
aa(lp4
S'distance'
p5
aF176.4363555908203
aa(lp6
S'timestamp'
p7
aF4.907512903213501
aatp8
Rp9
.ccollections
OrderedDict
p0
((lp1
(lp2
S'state'
p3
aI0
aa(lp4
S'distance'
p5
aF176.4363555908203
aa(lp6
S'timestamp'
p7
aF4.908439874649048
aatp8
Rp9
.ccollections
OrderedDict
p0
((lp1
(lp2
S'state'
p3
aI0
aa(lp4
S'distance'
p5
aF176.4363555908203
aa(lp6
S'timestamp'
p7
aF4.909219026565552
aatp8
Rp9
.ccollections
OrderedDict
p0
((lp1
(lp2
S'state'
p3
aI0
aa(lp4
S'distance'
p5
aF176.4363555908203
aa(lp6
S'timestamp'
p7
aF4.916672945022583
aatp8
Rp9
.ccollections
OrderedDict
p0
((lp1
(lp2
S'state'
p3
aI0
aa(lp4
S'distance'
p5
aF176.4363555908203
aa(lp6
S'timestamp'
p7
aF4.917026996612549
aatp8
Rp9
.ccollections
OrderedDict
p0
((lp1
(lp2
S'state'
p3
aI0
aa(lp4
S'distance'
p5
aF176.4363555908203
aa(lp6
S'timestamp'
p7
aF4.927160024642944
aatp8
Rp9
.ccollections
OrderedDict
p0
((lp1
(lp2
S'state'
p3
aI0
aa(lp4
S'distance'
p5
aF176.4363555908203
aa(lp6
S'timestamp'
p7
aF4.927660942077637
aatp8
Rp9
.ccollections
OrderedDict
p0
((lp1
(lp2
S'state'
p3
aI0
aa(lp4
S'distance'
p5
aF176.4363555908203
aa(lp6
S'timestamp'
p7
aF4.946897983551025
aatp8
Rp9
.ccollections
OrderedDict
p0
((lp1
(lp2
S'state'
p3
aI0
aa(lp4
S'distance'
p5
aF176.4363555908203
aa(lp6
S'timestamp'
p7
aF4.947863817214966
aatp8
Rp9
.ccollections
OrderedDict
p0
((lp1
(lp2
S'state'
p3
aI0
aa(lp4
S'distance'
p5
aF176.4363555908203
aa(lp6
S'timestamp'
p7
aF4.949211835861206
aatp8
Rp9
.ccollections
OrderedDict
p0
((lp1
(lp2
S'state'
p3
aI0
aa(lp4
S'distance'
p5
aF176.4363555908203
aa(lp6
S'timestamp'
p7
aF4.949329853057861
aatp8
Rp9
.ccollections
OrderedDict
p0
((lp1
(lp2
S'state'
p3
aI0
aa(lp4
S'distance'
p5
aF176.4363555908203
aa(lp6
S'timestamp'
p7
aF4.956517934799194
aatp8
Rp9
.ccollections
OrderedDict
p0
((lp1
(lp2
S'state'
p3
aI0
aa(lp4
S'distance'
p5
aF176.4363555908203
aa(lp6
S'timestamp'
p7
aF4.957245826721191
aatp8
Rp9
.ccollections
OrderedDict
p0
((lp1
(lp2
S'state'
p3
aI0
aa(lp4
S'distance'
p5
aF176.4363555908203
aa(lp6
S'timestamp'
p7
aF4.966540813446045
aatp8
Rp9
.ccollections
OrderedDict
p0
((lp1
(lp2
S'state'
p3
aI0
aa(lp4
S'distance'
p5
aF176.4363555908203
aa(lp6
S'timestamp'
p7
aF4.967329025268555
aatp8
Rp9
.ccollections
OrderedDict
p0
((lp1
(lp2
S'state'
p3
aI0
aa(lp4
S'distance'
p5
aF176.4363555908203
aa(lp6
S'timestamp'
p7
aF4.976775884628296
aatp8
Rp9
.ccollections
OrderedDict
p0
((lp1
(lp2
S'state'
p3
aI0
aa(lp4
S'distance'
p5
aF176.4363555908203
aa(lp6
S'timestamp'
p7
aF4.978015899658203
aatp8
Rp9
.ccollections
OrderedDict
p0
((lp1
(lp2
S'state'
p3
aI0
aa(lp4
S'distance'
p5
aF176.4363555908203
aa(lp6
S'timestamp'
p7
aF4.986546039581299
aatp8
Rp9
.ccollections
OrderedDict
p0
((lp1
(lp2
S'state'
p3
aI0
aa(lp4
S'distance'
p5
aF176.4363555908203
aa(lp6
S'timestamp'
p7
aF4.987277030944824
aatp8
Rp9
.ccollections
OrderedDict
p0
((lp1
(lp2
S'state'
p3
aI0
aa(lp4
S'distance'
p5
aF176.4363555908203
aa(lp6
S'timestamp'
p7
aF4.996570825576782
aatp8
Rp9
.ccollections
OrderedDict
p0
((lp1
(lp2
S'state'
p3
aI0
aa(lp4
S'distance'
p5
aF176.4363555908203
aa(lp6
S'timestamp'
p7
aF5.0170698165893555
aatp8
Rp9
.ccollections
OrderedDict
p0
((lp1
(lp2
S'state'
p3
aI0
aa(lp4
S'distance'
p5
aF176.4363555908203
aa(lp6
S'timestamp'
p7
aF5.018810987472534
aatp8
Rp9
.ccollections
OrderedDict
p0
((lp1
(lp2
S'state'
p3
aI0
aa(lp4
S'distance'
p5
aF176.4363555908203
aa(lp6
S'timestamp'
p7
aF5.018949031829834
aatp8
Rp9
.ccollections
OrderedDict
p0
((lp1
(lp2
S'state'
p3
aI0
aa(lp4
S'distance'
p5
aF176.4363555908203
aa(lp6
S'timestamp'
p7
aF5.0190699100494385
aatp8
Rp9
.ccollections
OrderedDict
p0
((lp1
(lp2
S'state'
p3
aI0
aa(lp4
S'distance'
p5
aF176.4363555908203
aa(lp6
S'timestamp'
p7
aF5.026854991912842
aatp8
Rp9
.ccollections
OrderedDict
p0
((lp1
(lp2
S'state'
p3
aI0
aa(lp4
S'distance'
p5
aF176.4363555908203
aa(lp6
S'timestamp'
p7
aF5.027698040008545
aatp8
Rp9
.ccollections
OrderedDict
p0
((lp1
(lp2
S'state'
p3
aI0
aa(lp4
S'distance'
p5
aF176.4363555908203
aa(lp6
S'timestamp'
p7
aF5.028007984161377
aatp8
Rp9
.ccollections
OrderedDict
p0
((lp1
(lp2
S'state'
p3
aI0
aa(lp4
S'distance'
p5
aF176.4363555908203
aa(lp6
S'timestamp'
p7
aF5.047835826873779
aatp8
Rp9
.ccollections
OrderedDict
p0
((lp1
(lp2
S'state'
p3
aI0
aa(lp4
S'distance'
p5
aF176.4363555908203
aa(lp6
S'timestamp'
p7
aF5.047948837280273
aatp8
Rp9
.ccollections
OrderedDict
p0
((lp1
(lp2
S'state'
p3
aI0
aa(lp4
S'distance'
p5
aF176.4363555908203
aa(lp6
S'timestamp'
p7
aF5.048142910003662
aatp8
Rp9
.ccollections
OrderedDict
p0
((lp1
(lp2
S'state'
p3
aI0
aa(lp4
S'distance'
p5
aF176.4363555908203
aa(lp6
S'timestamp'
p7
aF5.0487189292907715
aatp8
Rp9
.ccollections
OrderedDict
p0
((lp1
(lp2
S'state'
p3
aI0
aa(lp4
S'distance'
p5
aF176.4363555908203
aa(lp6
S'timestamp'
p7
aF5.056553840637207
aatp8
Rp9
.ccollections
OrderedDict
p0
((lp1
(lp2
S'state'
p3
aI0
aa(lp4
S'distance'
p5
aF176.4363555908203
aa(lp6
S'timestamp'
p7
aF5.057471036911011
aatp8
Rp9
.ccollections
OrderedDict
p0
((lp1
(lp2
S'state'
p3
aI0
aa(lp4
S'distance'
p5
aF176.4363555908203
aa(lp6
S'timestamp'
p7
aF5.066509962081909
aatp8
Rp9
.ccollections
OrderedDict
p0
((lp1
(lp2
S'state'
p3
aI0
aa(lp4
S'distance'
p5
aF176.4363555908203
aa(lp6
S'timestamp'
p7
aF5.0767810344696045
aatp8
Rp9
.ccollections
OrderedDict
p0
((lp1
(lp2
S'state'
p3
aI0
aa(lp4
S'distance'
p5
aF176.4363555908203
aa(lp6
S'timestamp'
p7
aF5.077214002609253
aatp8
Rp9
.ccollections
OrderedDict
p0
((lp1
(lp2
S'state'
p3
aI0
aa(lp4
S'distance'
p5
aF176.4363555908203
aa(lp6
S'timestamp'
p7
aF5.077805995941162
aatp8
Rp9
.ccollections
OrderedDict
p0
((lp1
(lp2
S'state'
p3
aI0
aa(lp4
S'distance'
p5
aF176.4363555908203
aa(lp6
S'timestamp'
p7
aF5.087133884429932
aatp8
Rp9
.ccollections
OrderedDict
p0
((lp1
(lp2
S'state'
p3
aI0
aa(lp4
S'distance'
p5
aF176.4363555908203
aa(lp6
S'timestamp'
p7
aF5.087883949279785
aatp8
Rp9
.ccollections
OrderedDict
p0
((lp1
(lp2
S'state'
p3
aI0
aa(lp4
S'distance'
p5
aF176.4363555908203
aa(lp6
S'timestamp'
p7
aF5.09659481048584
aatp8
Rp9
.ccollections
OrderedDict
p0
((lp1
(lp2
S'state'
p3
aI0
aa(lp4
S'distance'
p5
aF176.4363555908203
aa(lp6
S'timestamp'
p7
aF5.09798002243042
aatp8
Rp9
.ccollections
OrderedDict
p0
((lp1
(lp2
S'state'
p3
aI0
aa(lp4
S'distance'
p5
aF176.4363555908203
aa(lp6
S'timestamp'
p7
aF5.106848955154419
aatp8
Rp9
.ccollections
OrderedDict
p0
((lp1
(lp2
S'state'
p3
aI0
aa(lp4
S'distance'
p5
aF176.4363555908203
aa(lp6
S'timestamp'
p7
aF5.10695481300354
aatp8
Rp9
.ccollections
OrderedDict
p0
((lp1
(lp2
S'state'
p3
aI0
aa(lp4
S'distance'
p5
aF176.4363555908203
aa(lp6
S'timestamp'
p7
aF5.116828918457031
aatp8
Rp9
.ccollections
OrderedDict
p0
((lp1
(lp2
S'state'
p3
aI0
aa(lp4
S'distance'
p5
aF176.4363555908203
aa(lp6
S'timestamp'
p7
aF5.117523908615112
aatp8
Rp9
.ccollections
OrderedDict
p0
((lp1
(lp2
S'state'
p3
aI0
aa(lp4
S'distance'
p5
aF176.4363555908203
aa(lp6
S'timestamp'
p7
aF5.12650990486145
aatp8
Rp9
.ccollections
OrderedDict
p0
((lp1
(lp2
S'state'
p3
aI0
aa(lp4
S'distance'
p5
aF176.4363555908203
aa(lp6
S'timestamp'
p7
aF5.127346038818359
aatp8
Rp9
.ccollections
OrderedDict
p0
((lp1
(lp2
S'state'
p3
aI0
aa(lp4
S'distance'
p5
aF176.4363555908203
aa(lp6
S'timestamp'
p7
aF5.136543035507202
aatp8
Rp9
.ccollections
OrderedDict
p0
((lp1
(lp2
S'state'
p3
aI0
aa(lp4
S'distance'
p5
aF176.4363555908203
aa(lp6
S'timestamp'
p7
aF5.137876033782959
aatp8
Rp9
.ccollections
OrderedDict
p0
((lp1
(lp2
S'state'
p3
aI0
aa(lp4
S'distance'
p5
aF176.4363555908203
aa(lp6
S'timestamp'
p7
aF5.146544933319092
aatp8
Rp9
.ccollections
OrderedDict
p0
((lp1
(lp2
S'state'
p3
aI0
aa(lp4
S'distance'
p5
aF176.4363555908203
aa(lp6
S'timestamp'
p7
aF5.147317886352539
aatp8
Rp9
.ccollections
OrderedDict
p0
((lp1
(lp2
S'state'
p3
aI0
aa(lp4
S'distance'
p5
aF176.4363555908203
aa(lp6
S'timestamp'
p7
aF5.16712498664856
aatp8
Rp9
.ccollections
OrderedDict
p0
((lp1
(lp2
S'state'
p3
aI0
aa(lp4
S'distance'
p5
aF176.4363555908203
aa(lp6
S'timestamp'
p7
aF5.167994022369385
aatp8
Rp9
.ccollections
OrderedDict
p0
((lp1
(lp2
S'state'
p3
aI0
aa(lp4
S'distance'
p5
aF176.4363555908203
aa(lp6
S'timestamp'
p7
aF5.168179988861084
aatp8
Rp9
.ccollections
OrderedDict
p0
((lp1
(lp2
S'state'
p3
aI0
aa(lp4
S'distance'
p5
aF176.4363555908203
aa(lp6
S'timestamp'
p7
aF5.168399810791016
aatp8
Rp9
.ccollections
OrderedDict
p0
((lp1
(lp2
S'state'
p3
aI0
aa(lp4
S'distance'
p5
aF176.4363555908203
aa(lp6
S'timestamp'
p7
aF5.17685604095459
aatp8
Rp9
.ccollections
OrderedDict
p0
((lp1
(lp2
S'state'
p3
aI0
aa(lp4
S'distance'
p5
aF176.4363555908203
aa(lp6
S'timestamp'
p7
aF5.176935911178589
aatp8
Rp9
.ccollections
OrderedDict
p0
((lp1
(lp2
S'state'
p3
aI0
aa(lp4
S'distance'
p5
aF176.4363555908203
aa(lp6
S'timestamp'
p7
aF5.187160015106201
aatp8
Rp9
.ccollections
OrderedDict
p0
((lp1
(lp2
S'state'
p3
aI0
aa(lp4
S'distance'
p5
aF176.4363555908203
aa(lp6
S'timestamp'
p7
aF5.18814492225647
aatp8
Rp9
.ccollections
OrderedDict
p0
((lp1
(lp2
S'state'
p3
aI0
aa(lp4
S'distance'
p5
aF176.4363555908203
aa(lp6
S'timestamp'
p7
aF5.19813084602356
aatp8
Rp9
.ccollections
OrderedDict
p0
((lp1
(lp2
S'state'
p3
aI0
aa(lp4
S'distance'
p5
aF176.4363555908203
aa(lp6
S'timestamp'
p7
aF5.19822096824646
aatp8
Rp9
.ccollections
OrderedDict
p0
((lp1
(lp2
S'state'
p3
aI0
aa(lp4
S'distance'
p5
aF176.4363555908203
aa(lp6
S'timestamp'
p7
aF5.20663595199585
aatp8
Rp9
.ccollections
OrderedDict
p0
((lp1
(lp2
S'state'
p3
aI0
aa(lp4
S'distance'
p5
aF176.4363555908203
aa(lp6
S'timestamp'
p7
aF5.207342863082886
aatp8
Rp9
.ccollections
OrderedDict
p0
((lp1
(lp2
S'state'
p3
aI0
aa(lp4
S'distance'
p5
aF176.4363555908203
aa(lp6
S'timestamp'
p7
aF5.216953992843628
aatp8
Rp9
.ccollections
OrderedDict
p0
((lp1
(lp2
S'state'
p3
aI0
aa(lp4
S'distance'
p5
aF176.4363555908203
aa(lp6
S'timestamp'
p7
aF5.218832969665527
aatp8
Rp9
.ccollections
OrderedDict
p0
((lp1
(lp2
S'state'
p3
aI0
aa(lp4
S'distance'
p5
aF176.4363555908203
aa(lp6
S'timestamp'
p7
aF5.236990928649902
aatp8
Rp9
.ccollections
OrderedDict
p0
((lp1
(lp2
S'state'
p3
aI0
aa(lp4
S'distance'
p5
aF176.4363555908203
aa(lp6
S'timestamp'
p7
aF5.2373878955841064
aatp8
Rp9
.ccollections
OrderedDict
p0
((lp1
(lp2
S'state'
p3
aI400
aa(lp4
S'distance'
p5
aF176.4363555908203
aa(lp6
S'timestamp'
p7
aF5.239248037338257
aatp8
Rp9
.ccollections
OrderedDict
p0
((lp1
(lp2
S'state'
p3
aI400
aa(lp4
S'distance'
p5
aF176.4363555908203
aa(lp6
S'timestamp'
p7
aF5.239382982254028
aatp8
Rp9
.ccollections
OrderedDict
p0
((lp1
(lp2
S'state'
p3
aI400
aa(lp4
S'distance'
p5
aF176.4363555908203
aa(lp6
S'timestamp'
p7
aF5.24701189994812
aatp8
Rp9
.ccollections
OrderedDict
p0
((lp1
(lp2
S'state'
p3
aI400
aa(lp4
S'distance'
p5
aF176.4363555908203
aa(lp6
S'timestamp'
p7
aF5.247376918792725
aatp8
Rp9
.ccollections
OrderedDict
p0
((lp1
(lp2
S'state'
p3
aI400
aa(lp4
S'distance'
p5
aF176.4363555908203
aa(lp6
S'timestamp'
p7
aF5.257654905319214
aatp8
Rp9
.ccollections
OrderedDict
p0
((lp1
(lp2
S'state'
p3
aI400
aa(lp4
S'distance'
p5
aF176.4363555908203
aa(lp6
S'timestamp'
p7
aF5.258534908294678
aatp8
Rp9
.ccollections
OrderedDict
p0
((lp1
(lp2
S'state'
p3
aI400
aa(lp4
S'distance'
p5
aF176.4363555908203
aa(lp6
S'timestamp'
p7
aF5.272549867630005
aatp8
Rp9
.ccollections
OrderedDict
p0
((lp1
(lp2
S'state'
p3
aI400
aa(lp4
S'distance'
p5
aF176.4363555908203
aa(lp6
S'timestamp'
p7
aF5.2726500034332275
aatp8
Rp9
.ccollections
OrderedDict
p0
((lp1
(lp2
S'state'
p3
aI400
aa(lp4
S'distance'
p5
aF176.4363555908203
aa(lp6
S'timestamp'
p7
aF5.277155876159668
aatp8
Rp9
.ccollections
OrderedDict
p0
((lp1
(lp2
S'state'
p3
aI400
aa(lp4
S'distance'
p5
aF176.4363555908203
aa(lp6
S'timestamp'
p7
aF5.278414964675903
aatp8
Rp9
.ccollections
OrderedDict
p0
((lp1
(lp2
S'state'
p3
aI400
aa(lp4
S'distance'
p5
aF176.4363555908203
aa(lp6
S'timestamp'
p7
aF5.286846876144409
aatp8
Rp9
.ccollections
OrderedDict
p0
((lp1
(lp2
S'state'
p3
aI400
aa(lp4
S'distance'
p5
aF176.4363555908203
aa(lp6
S'timestamp'
p7
aF5.2874510288238525
aatp8
Rp9
.ccollections
OrderedDict
p0
((lp1
(lp2
S'state'
p3
aI400
aa(lp4
S'distance'
p5
aF176.4363555908203
aa(lp6
S'timestamp'
p7
aF5.297116994857788
aatp8
Rp9
.ccollections
OrderedDict
p0
((lp1
(lp2
S'state'
p3
aI400
aa(lp4
S'distance'
p5
aF176.4363555908203
aa(lp6
S'timestamp'
p7
aF5.297241926193237
aatp8
Rp9
.ccollections
OrderedDict
p0
((lp1
(lp2
S'state'
p3
aI400
aa(lp4
S'distance'
p5
aF176.4363555908203
aa(lp6
S'timestamp'
p7
aF5.30679988861084
aatp8
Rp9
.ccollections
OrderedDict
p0
((lp1
(lp2
S'state'
p3
aI400
aa(lp4
S'distance'
p5
aF176.4363555908203
aa(lp6
S'timestamp'
p7
aF5.306924819946289
aatp8
Rp9
.ccollections
OrderedDict
p0
((lp1
(lp2
S'state'
p3
aI400
aa(lp4
S'distance'
p5
aF176.4363555908203
aa(lp6
S'timestamp'
p7
aF5.316473960876465
aatp8
Rp9
.ccollections
OrderedDict
p0
((lp1
(lp2
S'state'
p3
aI400
aa(lp4
S'distance'
p5
aF176.4363555908203
aa(lp6
S'timestamp'
p7
aF5.317065000534058
aatp8
Rp9
.ccollections
OrderedDict
p0
((lp1
(lp2
S'state'
p3
aI400
aa(lp4
S'distance'
p5
aF176.4363555908203
aa(lp6
S'timestamp'
p7
aF5.326519966125488
aatp8
Rp9
.ccollections
OrderedDict
p0
((lp1
(lp2
S'state'
p3
aI400
aa(lp4
S'distance'
p5
aF176.4363555908203
aa(lp6
S'timestamp'
p7
aF5.326894044876099
aatp8
Rp9
.ccollections
OrderedDict
p0
((lp1
(lp2
S'state'
p3
aI400
aa(lp4
S'distance'
p5
aF176.4363555908203
aa(lp6
S'timestamp'
p7
aF5.336621999740601
aatp8
Rp9
.ccollections
OrderedDict
p0
((lp1
(lp2
S'state'
p3
aI400
aa(lp4
S'distance'
p5
aF176.4363555908203
aa(lp6
S'timestamp'
p7
aF5.336977958679199
aatp8
Rp9
.ccollections
OrderedDict
p0
((lp1
(lp2
S'state'
p3
aI400
aa(lp4
S'distance'
p5
aF176.4363555908203
aa(lp6
S'timestamp'
p7
aF5.356698989868164
aatp8
Rp9
.ccollections
OrderedDict
p0
((lp1
(lp2
S'state'
p3
aI400
aa(lp4
S'distance'
p5
aF176.4363555908203
aa(lp6
S'timestamp'
p7
aF5.356868028640747
aatp8
Rp9
.ccollections
OrderedDict
p0
((lp1
(lp2
S'state'
p3
aI400
aa(lp4
S'distance'
p5
aF176.4363555908203
aa(lp6
S'timestamp'
p7
aF5.358074903488159
aatp8
Rp9
.ccollections
OrderedDict
p0
((lp1
(lp2
S'state'
p3
aI400
aa(lp4
S'distance'
p5
aF176.4363555908203
aa(lp6
S'timestamp'
p7
aF5.359242916107178
aatp8
Rp9
.ccollections
OrderedDict
p0
((lp1
(lp2
S'state'
p3
aI400
aa(lp4
S'distance'
p5
aF176.4363555908203
aa(lp6
S'timestamp'
p7
aF5.366662979125977
aatp8
Rp9
.ccollections
OrderedDict
p0
((lp1
(lp2
S'state'
p3
aI400
aa(lp4
S'distance'
p5
aF176.4363555908203
aa(lp6
S'timestamp'
p7
aF5.366971969604492
aatp8
Rp9
.ccollections
OrderedDict
p0
((lp1
(lp2
S'state'
p3
aI400
aa(lp4
S'distance'
p5
aF176.4363555908203
aa(lp6
S'timestamp'
p7
aF5.386641025543213
aatp8
Rp9
.ccollections
OrderedDict
p0
((lp1
(lp2
S'state'
p3
aI400
aa(lp4
S'distance'
p5
aF176.4363555908203
aa(lp6
S'timestamp'
p7
aF5.387058973312378
aatp8
Rp9
.ccollections
OrderedDict
p0
((lp1
(lp2
S'state'
p3
aI400
aa(lp4
S'distance'
p5
aF176.4363555908203
aa(lp6
S'timestamp'
p7
aF5.3881919384002686
aatp8
Rp9
.ccollections
OrderedDict
p0
((lp1
(lp2
S'state'
p3
aI400
aa(lp4
S'distance'
p5
aF176.4363555908203
aa(lp6
S'timestamp'
p7
aF5.3882670402526855
aatp8
Rp9
.ccollections
OrderedDict
p0
((lp1
(lp2
S'state'
p3
aI400
aa(lp4
S'distance'
p5
aF176.4363555908203
aa(lp6
S'timestamp'
p7
aF5.396597862243652
aatp8
Rp9
.ccollections
OrderedDict
p0
((lp1
(lp2
S'state'
p3
aI400
aa(lp4
S'distance'
p5
aF176.4363555908203
aa(lp6
S'timestamp'
p7
aF5.396986961364746
aatp8
Rp9
.ccollections
OrderedDict
p0
((lp1
(lp2
S'state'
p3
aI400
aa(lp4
S'distance'
p5
aF176.4363555908203
aa(lp6
S'timestamp'
p7
aF5.406554937362671
aatp8
Rp9
.ccollections
OrderedDict
p0
((lp1
(lp2
S'state'
p3
aI400
aa(lp4
S'distance'
p5
aF176.4363555908203
aa(lp6
S'timestamp'
p7
aF5.407095909118652
aatp8
Rp9
.ccollections
OrderedDict
p0
((lp1
(lp2
S'state'
p3
aI400
aa(lp4
S'distance'
p5
aF176.4363555908203
aa(lp6
S'timestamp'
p7
aF5.41671085357666
aatp8
Rp9
.ccollections
OrderedDict
p0
((lp1
(lp2
S'state'
p3
aI400
aa(lp4
S'distance'
p5
aF176.4363555908203
aa(lp6
S'timestamp'
p7
aF5.417410850524902
aatp8
Rp9
.ccollections
OrderedDict
p0
((lp1
(lp2
S'state'
p3
aI400
aa(lp4
S'distance'
p5
aF176.4363555908203
aa(lp6
S'timestamp'
p7
aF5.426908016204834
aatp8
Rp9
.ccollections
OrderedDict
p0
((lp1
(lp2
S'state'
p3
aI400
aa(lp4
S'distance'
p5
aF176.4363555908203
aa(lp6
S'timestamp'
p7
aF5.4270830154418945
aatp8
Rp9
.ccollections
OrderedDict
p0
((lp1
(lp2
S'state'
p3
aI400
aa(lp4
S'distance'
p5
aF176.4363555908203
aa(lp6
S'timestamp'
p7
aF5.4365668296813965
aatp8
Rp9
.ccollections
OrderedDict
p0
((lp1
(lp2
S'state'
p3
aI400
aa(lp4
S'distance'
p5
aF176.4363555908203
aa(lp6
S'timestamp'
p7
aF5.43697190284729
aatp8
Rp9
.ccollections
OrderedDict
p0
((lp1
(lp2
S'state'
p3
aI400
aa(lp4
S'distance'
p5
aF176.4363555908203
aa(lp6
S'timestamp'
p7
aF5.446565866470337
aatp8
Rp9
.ccollections
OrderedDict
p0
((lp1
(lp2
S'state'
p3
aI400
aa(lp4
S'distance'
p5
aF176.4363555908203
aa(lp6
S'timestamp'
p7
aF5.446985960006714
aatp8
Rp9
.ccollections
OrderedDict
p0
((lp1
(lp2
S'state'
p3
aI400
aa(lp4
S'distance'
p5
aF176.4363555908203
aa(lp6
S'timestamp'
p7
aF5.4566240310668945
aatp8
Rp9
.ccollections
OrderedDict
p0
((lp1
(lp2
S'state'
p3
aI400
aa(lp4
S'distance'
p5
aF176.4363555908203
aa(lp6
S'timestamp'
p7
aF5.457302808761597
aatp8
Rp9
.ccollections
OrderedDict
p0
((lp1
(lp2
S'state'
p3
aI400
aa(lp4
S'distance'
p5
aF176.4363555908203
aa(lp6
S'timestamp'
p7
aF5.4666829109191895
aatp8
Rp9
.ccollections
OrderedDict
p0
((lp1
(lp2
S'state'
p3
aI400
aa(lp4
S'distance'
p5
aF176.4363555908203
aa(lp6
S'timestamp'
p7
aF5.467075824737549
aatp8
Rp9
.ccollections
OrderedDict
p0
((lp1
(lp2
S'state'
p3
aI400
aa(lp4
S'distance'
p5
aF176.4363555908203
aa(lp6
S'timestamp'
p7
aF5.476583957672119
aatp8
Rp9
.ccollections
OrderedDict
p0
((lp1
(lp2
S'state'
p3
aI400
aa(lp4
S'distance'
p5
aF176.4363555908203
aa(lp6
S'timestamp'
p7
aF5.47691798210144
aatp8
Rp9
.ccollections
OrderedDict
p0
((lp1
(lp2
S'state'
p3
aI400
aa(lp4
S'distance'
p5
aF176.4363555908203
aa(lp6
S'timestamp'
p7
aF5.48685097694397
aatp8
Rp9
.ccollections
OrderedDict
p0
((lp1
(lp2
S'state'
p3
aI400
aa(lp4
S'distance'
p5
aF176.4363555908203
aa(lp6
S'timestamp'
p7
aF5.486933946609497
aatp8
Rp9
.ccollections
OrderedDict
p0
((lp1
(lp2
S'state'
p3
aI400
aa(lp4
S'distance'
p5
aF176.4363555908203
aa(lp6
S'timestamp'
p7
aF5.49660587310791
aatp8
Rp9
.ccollections
OrderedDict
p0
((lp1
(lp2
S'state'
p3
aI400
aa(lp4
S'distance'
p5
aF176.4363555908203
aa(lp6
S'timestamp'
p7
aF5.4972288608551025
aatp8
Rp9
.ccollections
OrderedDict
p0
((lp1
(lp2
S'state'
p3
aI400
aa(lp4
S'distance'
p5
aF176.4363555908203
aa(lp6
S'timestamp'
p7
aF5.506546974182129
aatp8
Rp9
.ccollections
OrderedDict
p0
((lp1
(lp2
S'state'
p3
aI400
aa(lp4
S'distance'
p5
aF176.4363555908203
aa(lp6
S'timestamp'
p7
aF5.507117986679077
aatp8
Rp9
.ccollections
OrderedDict
p0
((lp1
(lp2
S'state'
p3
aI400
aa(lp4
S'distance'
p5
aF176.4363555908203
aa(lp6
S'timestamp'
p7
aF5.516572952270508
aatp8
Rp9
.ccollections
OrderedDict
p0
((lp1
(lp2
S'state'
p3
aI400
aa(lp4
S'distance'
p5
aF176.4363555908203
aa(lp6
S'timestamp'
p7
aF5.516885042190552
aatp8
Rp9
.ccollections
OrderedDict
p0
((lp1
(lp2
S'state'
p3
aI400
aa(lp4
S'distance'
p5
aF176.4363555908203
aa(lp6
S'timestamp'
p7
aF5.526403903961182
aatp8
Rp9
.ccollections
OrderedDict
p0
((lp1
(lp2
S'state'
p3
aI400
aa(lp4
S'distance'
p5
aF176.4363555908203
aa(lp6
S'timestamp'
p7
aF5.526903867721558
aatp8
Rp9
.ccollections
OrderedDict
p0
((lp1
(lp2
S'state'
p3
aI400
aa(lp4
S'distance'
p5
aF176.4363555908203
aa(lp6
S'timestamp'
p7
aF5.5467000007629395
aatp8
Rp9
.ccollections
OrderedDict
p0
((lp1
(lp2
S'state'
p3
aI400
aa(lp4
S'distance'
p5
aF176.4363555908203
aa(lp6
S'timestamp'
p7
aF5.547160863876343
aatp8
Rp9
.ccollections
OrderedDict
p0
((lp1
(lp2
S'state'
p3
aI400
aa(lp4
S'distance'
p5
aF176.4363555908203
aa(lp6
S'timestamp'
p7
aF5.548115968704224
aatp8
Rp9
.ccollections
OrderedDict
p0
((lp1
(lp2
S'state'
p3
aI400
aa(lp4
S'distance'
p5
aF176.4363555908203
aa(lp6
S'timestamp'
p7
aF5.549674987792969
aatp8
Rp9
.ccollections
OrderedDict
p0
((lp1
(lp2
S'state'
p3
aI400
aa(lp4
S'distance'
p5
aF176.4363555908203
aa(lp6
S'timestamp'
p7
aF5.556643009185791
aatp8
Rp9
.ccollections
OrderedDict
p0
((lp1
(lp2
S'state'
p3
aI400
aa(lp4
S'distance'
p5
aF176.4363555908203
aa(lp6
S'timestamp'
p7
aF5.557052850723267
aatp8
Rp9
.ccollections
OrderedDict
p0
((lp1
(lp2
S'state'
p3
aI400
aa(lp4
S'distance'
p5
aF176.4363555908203
aa(lp6
S'timestamp'
p7
aF5.566573858261108
aatp8
Rp9
.ccollections
OrderedDict
p0
((lp1
(lp2
S'state'
p3
aI400
aa(lp4
S'distance'
p5
aF176.4363555908203
aa(lp6
S'timestamp'
p7
aF5.566861867904663
aatp8
Rp9
.ccollections
OrderedDict
p0
((lp1
(lp2
S'state'
p3
aI400
aa(lp4
S'distance'
p5
aF176.4363555908203
aa(lp6
S'timestamp'
p7
aF5.577150821685791
aatp8
Rp9
.ccollections
OrderedDict
p0
((lp1
(lp2
S'state'
p3
aI400
aa(lp4
S'distance'
p5
aF176.4363555908203
aa(lp6
S'timestamp'
p7
aF5.5773680210113525
aatp8
Rp9
.ccollections
OrderedDict
p0
((lp1
(lp2
S'state'
p3
aI400
aa(lp4
S'distance'
p5
aF176.4363555908203
aa(lp6
S'timestamp'
p7
aF5.58658504486084
aatp8
Rp9
.ccollections
OrderedDict
p0
((lp1
(lp2
S'state'
p3
aI400
aa(lp4
S'distance'
p5
aF176.4363555908203
aa(lp6
S'timestamp'
p7
aF5.587038993835449
aatp8
Rp9
.ccollections
OrderedDict
p0
((lp1
(lp2
S'state'
p3
aI400
aa(lp4
S'distance'
p5
aF176.4363555908203
aa(lp6
S'timestamp'
p7
aF5.596402883529663
aatp8
Rp9
.ccollections
OrderedDict
p0
((lp1
(lp2
S'state'
p3
aI400
aa(lp4
S'distance'
p5
aF176.4363555908203
aa(lp6
S'timestamp'
p7
aF5.597038984298706
aatp8
Rp9
.ccollections
OrderedDict
p0
((lp1
(lp2
S'state'
p3
aI400
aa(lp4
S'distance'
p5
aF176.4363555908203
aa(lp6
S'timestamp'
p7
aF5.6068408489227295
aatp8
Rp9
.ccollections
OrderedDict
p0
((lp1
(lp2
S'state'
p3
aI400
aa(lp4
S'distance'
p5
aF176.4363555908203
aa(lp6
S'timestamp'
p7
aF5.60695481300354
aatp8
Rp9
.ccollections
OrderedDict
p0
((lp1
(lp2
S'state'
p3
aI400
aa(lp4
S'distance'
p5
aF176.4363555908203
aa(lp6
S'timestamp'
p7
aF5.61663293838501
aatp8
Rp9
.ccollections
OrderedDict
p0
((lp1
(lp2
S'state'
p3
aI400
aa(lp4
S'distance'
p5
aF176.4363555908203
aa(lp6
S'timestamp'
p7
aF5.617095947265625
aatp8
Rp9
.ccollections
OrderedDict
p0
((lp1
(lp2
S'state'
p3
aI400
aa(lp4
S'distance'
p5
aF176.4363555908203
aa(lp6
S'timestamp'
p7
aF5.626555919647217
aatp8
Rp9
.ccollections
OrderedDict
p0
((lp1
(lp2
S'state'
p3
aI400
aa(lp4
S'distance'
p5
aF176.4363555908203
aa(lp6
S'timestamp'
p7
aF5.626935958862305
aatp8
Rp9
.ccollections
OrderedDict
p0
((lp1
(lp2
S'state'
p3
aI400
aa(lp4
S'distance'
p5
aF176.4363555908203
aa(lp6
S'timestamp'
p7
aF5.637423992156982
aatp8
Rp9
.ccollections
OrderedDict
p0
((lp1
(lp2
S'state'
p3
aI400
aa(lp4
S'distance'
p5
aF176.4363555908203
aa(lp6
S'timestamp'
p7
aF5.637646913528442
aatp8
Rp9
.ccollections
OrderedDict
p0
((lp1
(lp2
S'state'
p3
aI400
aa(lp4
S'distance'
p5
aF176.4363555908203
aa(lp6
S'timestamp'
p7
aF5.6465840339660645
aatp8
Rp9
.ccollections
OrderedDict
p0
((lp1
(lp2
S'state'
p3
aI400
aa(lp4
S'distance'
p5
aF176.4363555908203
aa(lp6
S'timestamp'
p7
aF5.646946907043457
aatp8
Rp9
.ccollections
OrderedDict
p0
((lp1
(lp2
S'state'
p3
aI400
aa(lp4
S'distance'
p5
aF176.4363555908203
aa(lp6
S'timestamp'
p7
aF5.65645694732666
aatp8
Rp9
.ccollections
OrderedDict
p0
((lp1
(lp2
S'state'
p3
aI400
aa(lp4
S'distance'
p5
aF176.4363555908203
aa(lp6
S'timestamp'
p7
aF5.657063007354736
aatp8
Rp9
.ccollections
OrderedDict
p0
((lp1
(lp2
S'state'
p3
aI400
aa(lp4
S'distance'
p5
aF176.4363555908203
aa(lp6
S'timestamp'
p7
aF5.666887998580933
aatp8
Rp9
.ccollections
OrderedDict
p0
((lp1
(lp2
S'state'
p3
aI400
aa(lp4
S'distance'
p5
aF176.4363555908203
aa(lp6
S'timestamp'
p7
aF5.666975975036621
aatp8
Rp9
.ccollections
OrderedDict
p0
((lp1
(lp2
S'state'
p3
aI400
aa(lp4
S'distance'
p5
aF176.4363555908203
aa(lp6
S'timestamp'
p7
aF5.676563024520874
aatp8
Rp9
.ccollections
OrderedDict
p0
((lp1
(lp2
S'state'
p3
aI400
aa(lp4
S'distance'
p5
aF176.4363555908203
aa(lp6
S'timestamp'
p7
aF5.676944017410278
aatp8
Rp9
.ccollections
OrderedDict
p0
((lp1
(lp2
S'state'
p3
aI400
aa(lp4
S'distance'
p5
aF176.4363555908203
aa(lp6
S'timestamp'
p7
aF5.6890668869018555
aatp8
Rp9
.ccollections
OrderedDict
p0
((lp1
(lp2
S'state'
p3
aI400
aa(lp4
S'distance'
p5
aF176.4363555908203
aa(lp6
S'timestamp'
p7
aF5.689146995544434
aatp8
Rp9
.ccollections
OrderedDict
p0
((lp1
(lp2
S'state'
p3
aI400
aa(lp4
S'distance'
p5
aF176.4363555908203
aa(lp6
S'timestamp'
p7
aF5.696771860122681
aatp8
Rp9
.ccollections
OrderedDict
p0
((lp1
(lp2
S'state'
p3
aI400
aa(lp4
S'distance'
p5
aF176.4363555908203
aa(lp6
S'timestamp'
p7
aF5.698102951049805
aatp8
Rp9
.ccollections
OrderedDict
p0
((lp1
(lp2
S'state'
p3
aI400
aa(lp4
S'distance'
p5
aF176.4363555908203
aa(lp6
S'timestamp'
p7
aF5.7065818309783936
aatp8
Rp9
.ccollections
OrderedDict
p0
((lp1
(lp2
S'state'
p3
aI400
aa(lp4
S'distance'
p5
aF176.4363555908203
aa(lp6
S'timestamp'
p7
aF5.706913948059082
aatp8
Rp9
.ccollections
OrderedDict
p0
((lp1
(lp2
S'state'
p3
aI400
aa(lp4
S'distance'
p5
aF176.4363555908203
aa(lp6
S'timestamp'
p7
aF5.716616868972778
aatp8
Rp9
.ccollections
OrderedDict
p0
((lp1
(lp2
S'state'
p3
aI400
aa(lp4
S'distance'
p5
aF176.4363555908203
aa(lp6
S'timestamp'
p7
aF5.716970920562744
aatp8
Rp9
.ccollections
OrderedDict
p0
((lp1
(lp2
S'state'
p3
aI400
aa(lp4
S'distance'
p5
aF176.4363555908203
aa(lp6
S'timestamp'
p7
aF5.726507902145386
aatp8
Rp9
.ccollections
OrderedDict
p0
((lp1
(lp2
S'state'
p3
aI400
aa(lp4
S'distance'
p5
aF176.4363555908203
aa(lp6
S'timestamp'
p7
aF5.727062940597534
aatp8
Rp9
.ccollections
OrderedDict
p0
((lp1
(lp2
S'state'
p3
aI400
aa(lp4
S'distance'
p5
aF176.4363555908203
aa(lp6
S'timestamp'
p7
aF5.736642837524414
aatp8
Rp9
.ccollections
OrderedDict
p0
((lp1
(lp2
S'state'
p3
aI400
aa(lp4
S'distance'
p5
aF176.4363555908203
aa(lp6
S'timestamp'
p7
aF5.737287998199463
aatp8
Rp9
.ccollections
OrderedDict
p0
((lp1
(lp2
S'state'
p3
aI400
aa(lp4
S'distance'
p5
aF176.4363555908203
aa(lp6
S'timestamp'
p7
aF5.746575832366943
aatp8
Rp9
.ccollections
OrderedDict
p0
((lp1
(lp2
S'state'
p3
aI400
aa(lp4
S'distance'
p5
aF176.4363555908203
aa(lp6
S'timestamp'
p7
aF5.746902942657471
aatp8
Rp9
.ccollections
OrderedDict
p0
((lp1
(lp2
S'state'
p3
aI400
aa(lp4
S'distance'
p5
aF176.4363555908203
aa(lp6
S'timestamp'
p7
aF5.75652003288269
aatp8
Rp9
.ccollections
OrderedDict
p0
((lp1
(lp2
S'state'
p3
aI400
aa(lp4
S'distance'
p5
aF176.4363555908203
aa(lp6
S'timestamp'
p7
aF5.7569098472595215
aatp8
Rp9
.ccollections
OrderedDict
p0
((lp1
(lp2
S'state'
p3
aI400
aa(lp4
S'distance'
p5
aF176.4363555908203
aa(lp6
S'timestamp'
p7
aF5.766925811767578
aatp8
Rp9
.ccollections
OrderedDict
p0
((lp1
(lp2
S'state'
p3
aI400
aa(lp4
S'distance'
p5
aF176.4363555908203
aa(lp6
S'timestamp'
p7
aF5.767019987106323
aatp8
Rp9
.ccollections
OrderedDict
p0
((lp1
(lp2
S'state'
p3
aI400
aa(lp4
S'distance'
p5
aF176.4363555908203
aa(lp6
S'timestamp'
p7
aF5.7765889167785645
aatp8
Rp9
.ccollections
OrderedDict
p0
((lp1
(lp2
S'state'
p3
aI400
aa(lp4
S'distance'
p5
aF176.4363555908203
aa(lp6
S'timestamp'
p7
aF5.777115821838379
aatp8
Rp9
.ccollections
OrderedDict
p0
((lp1
(lp2
S'state'
p3
aI400
aa(lp4
S'distance'
p5
aF176.4363555908203
aa(lp6
S'timestamp'
p7
aF5.78652286529541
aatp8
Rp9
.ccollections
OrderedDict
p0
((lp1
(lp2
S'state'
p3
aI400
aa(lp4
S'distance'
p5
aF176.4363555908203
aa(lp6
S'timestamp'
p7
aF5.787045955657959
aatp8
Rp9
.ccollections
OrderedDict
p0
((lp1
(lp2
S'state'
p3
aI400
aa(lp4
S'distance'
p5
aF176.4363555908203
aa(lp6
S'timestamp'
p7
aF5.796531915664673
aatp8
Rp9
.ccollections
OrderedDict
p0
((lp1
(lp2
S'state'
p3
aI400
aa(lp4
S'distance'
p5
aF176.4363555908203
aa(lp6
S'timestamp'
p7
aF5.796980857849121
aatp8
Rp9
.ccollections
OrderedDict
p0
((lp1
(lp2
S'state'
p3
aI400
aa(lp4
S'distance'
p5
aF176.4363555908203
aa(lp6
S'timestamp'
p7
aF5.806737899780273
aatp8
Rp9
.ccollections
OrderedDict
p0
((lp1
(lp2
S'state'
p3
aI400
aa(lp4
S'distance'
p5
aF176.4363555908203
aa(lp6
S'timestamp'
p7
aF5.806855916976929
aatp8
Rp9
.ccollections
OrderedDict
p0
((lp1
(lp2
S'state'
p3
aI400
aa(lp4
S'distance'
p5
aF176.4363555908203
aa(lp6
S'timestamp'
p7
aF5.816690921783447
aatp8
Rp9
.ccollections
OrderedDict
p0
((lp1
(lp2
S'state'
p3
aI400
aa(lp4
S'distance'
p5
aF176.4363555908203
aa(lp6
S'timestamp'
p7
aF5.817095994949341
aatp8
Rp9
.ccollections
OrderedDict
p0
((lp1
(lp2
S'state'
p3
aI400
aa(lp4
S'distance'
p5
aF176.4363555908203
aa(lp6
S'timestamp'
p7
aF5.836546897888184
aatp8
Rp9
.ccollections
OrderedDict
p0
((lp1
(lp2
S'state'
p3
aI400
aa(lp4
S'distance'
p5
aF176.4363555908203
aa(lp6
S'timestamp'
p7
aF5.837164878845215
aatp8
Rp9
.ccollections
OrderedDict
p0
((lp1
(lp2
S'state'
p3
aI400
aa(lp4
S'distance'
p5
aF176.4363555908203
aa(lp6
S'timestamp'
p7
aF5.838681936264038
aatp8
Rp9
.ccollections
OrderedDict
p0
((lp1
(lp2
S'state'
p3
aI400
aa(lp4
S'distance'
p5
aF176.4363555908203
aa(lp6
S'timestamp'
p7
aF5.847059011459351
aatp8
Rp9
.ccollections
OrderedDict
p0
((lp1
(lp2
S'state'
p3
aI400
aa(lp4
S'distance'
p5
aF176.4363555908203
aa(lp6
S'timestamp'
p7
aF5.8471479415893555
aatp8
Rp9
.ccollections
OrderedDict
p0
((lp1
(lp2
S'state'
p3
aI400
aa(lp4
S'distance'
p5
aF176.4363555908203
aa(lp6
S'timestamp'
p7
aF5.8481738567352295
aatp8
Rp9
.ccollections
OrderedDict
p0
((lp1
(lp2
S'state'
p3
aI400
aa(lp4
S'distance'
p5
aF176.4363555908203
aa(lp6
S'timestamp'
p7
aF5.8572869300842285
aatp8
Rp9
.ccollections
OrderedDict
p0
((lp1
(lp2
S'state'
p3
aI400
aa(lp4
S'distance'
p5
aF176.4363555908203
aa(lp6
S'timestamp'
p7
aF5.857748031616211
aatp8
Rp9
.ccollections
OrderedDict
p0
((lp1
(lp2
S'state'
p3
aI400
aa(lp4
S'distance'
p5
aF176.4363555908203
aa(lp6
S'timestamp'
p7
aF5.867218971252441
aatp8
Rp9
.ccollections
OrderedDict
p0
((lp1
(lp2
S'state'
p3
aI400
aa(lp4
S'distance'
p5
aF176.4363555908203
aa(lp6
S'timestamp'
p7
aF5.867300033569336
aatp8
Rp9
.ccollections
OrderedDict
p0
((lp1
(lp2
S'state'
p3
aI400
aa(lp4
S'distance'
p5
aF176.4363555908203
aa(lp6
S'timestamp'
p7
aF5.877365827560425
aatp8
Rp9
.ccollections
OrderedDict
p0
((lp1
(lp2
S'state'
p3
aI400
aa(lp4
S'distance'
p5
aF176.4363555908203
aa(lp6
S'timestamp'
p7
aF5.877446889877319
aatp8
Rp9
.ccollections
OrderedDict
p0
((lp1
(lp2
S'state'
p3
aI400
aa(lp4
S'distance'
p5
aF176.4363555908203
aa(lp6
S'timestamp'
p7
aF5.887248992919922
aatp8
Rp9
.ccollections
OrderedDict
p0
((lp1
(lp2
S'state'
p3
aI400
aa(lp4
S'distance'
p5
aF176.4363555908203
aa(lp6
S'timestamp'
p7
aF5.887356996536255
aatp8
Rp9
.ccollections
OrderedDict
p0
((lp1
(lp2
S'state'
p3
aI400
aa(lp4
S'distance'
p5
aF176.4363555908203
aa(lp6
S'timestamp'
p7
aF5.896760940551758
aatp8
Rp9
.ccollections
OrderedDict
p0
((lp1
(lp2
S'state'
p3
aI0
aa(lp4
S'distance'
p5
aF176.4363555908203
aa(lp6
S'timestamp'
p7
aF5.907054901123047
aatp8
Rp9
.ccollections
OrderedDict
p0
((lp1
(lp2
S'state'
p3
aI0
aa(lp4
S'distance'
p5
aF80.99374008178711
aa(lp6
S'timestamp'
p7
aF6.46734881401062
aatp8
Rp9
.ccollections
OrderedDict
p0
((lp1
(lp2
S'state'
p3
aI0
aa(lp4
S'distance'
p5
aF80.99374008178711
aa(lp6
S'timestamp'
p7
aF6.478003025054932
aatp8
Rp9
.ccollections
OrderedDict
p0
((lp1
(lp2
S'state'
p3
aI0
aa(lp4
S'distance'
p5
aF80.99374008178711
aa(lp6
S'timestamp'
p7
aF6.478170871734619
aatp8
Rp9
.ccollections
OrderedDict
p0
((lp1
(lp2
S'state'
p3
aI0
aa(lp4
S'distance'
p5
aF80.99374008178711
aa(lp6
S'timestamp'
p7
aF6.496583938598633
aatp8
Rp9
.ccollections
OrderedDict
p0
((lp1
(lp2
S'state'
p3
aI0
aa(lp4
S'distance'
p5
aF80.99374008178711
aa(lp6
S'timestamp'
p7
aF6.497143030166626
aatp8
Rp9
.ccollections
OrderedDict
p0
((lp1
(lp2
S'state'
p3
aI0
aa(lp4
S'distance'
p5
aF80.99374008178711
aa(lp6
S'timestamp'
p7
aF6.498354911804199
aatp8
Rp9
.ccollections
OrderedDict
p0
((lp1
(lp2
S'state'
p3
aI0
aa(lp4
S'distance'
p5
aF80.99374008178711
aa(lp6
S'timestamp'
p7
aF6.499151945114136
aatp8
Rp9
.ccollections
OrderedDict
p0
((lp1
(lp2
S'state'
p3
aI0
aa(lp4
S'distance'
p5
aF80.99374008178711
aa(lp6
S'timestamp'
p7
aF6.506568908691406
aatp8
Rp9
.ccollections
OrderedDict
p0
((lp1
(lp2
S'state'
p3
aI0
aa(lp4
S'distance'
p5
aF80.99374008178711
aa(lp6
S'timestamp'
p7
aF6.507222890853882
aatp8
Rp9
.ccollections
OrderedDict
p0
((lp1
(lp2
S'state'
p3
aI0
aa(lp4
S'distance'
p5
aF80.99374008178711
aa(lp6
S'timestamp'
p7
aF6.517652988433838
aatp8
Rp9
.ccollections
OrderedDict
p0
((lp1
(lp2
S'state'
p3
aI0
aa(lp4
S'distance'
p5
aF80.99374008178711
aa(lp6
S'timestamp'
p7
aF6.51789402961731
aatp8
Rp9
.ccollections
OrderedDict
p0
((lp1
(lp2
S'state'
p3
aI0
aa(lp4
S'distance'
p5
aF80.99374008178711
aa(lp6
S'timestamp'
p7
aF6.526549816131592
aatp8
Rp9
.ccollections
OrderedDict
p0
((lp1
(lp2
S'state'
p3
aI0
aa(lp4
S'distance'
p5
aF80.99374008178711
aa(lp6
S'timestamp'
p7
aF6.527055025100708
aatp8
Rp9
.ccollections
OrderedDict
p0
((lp1
(lp2
S'state'
p3
aI0
aa(lp4
S'distance'
p5
aF80.99374008178711
aa(lp6
S'timestamp'
p7
aF6.536628007888794
aatp8
Rp9
.ccollections
OrderedDict
p0
((lp1
(lp2
S'state'
p3
aI0
aa(lp4
S'distance'
p5
aF80.99374008178711
aa(lp6
S'timestamp'
p7
aF6.537474870681763
aatp8
Rp9
.ccollections
OrderedDict
p0
((lp1
(lp2
S'state'
p3
aI0
aa(lp4
S'distance'
p5
aF80.99374008178711
aa(lp6
S'timestamp'
p7
aF6.54718804359436
aatp8
Rp9
.ccollections
OrderedDict
p0
((lp1
(lp2
S'state'
p3
aI0
aa(lp4
S'distance'
p5
aF80.99374008178711
aa(lp6
S'timestamp'
p7
aF6.547273874282837
aatp8
Rp9
.ccollections
OrderedDict
p0
((lp1
(lp2
S'state'
p3
aI0
aa(lp4
S'distance'
p5
aF80.99374008178711
aa(lp6
S'timestamp'
p7
aF6.5568859577178955
aatp8
Rp9
.ccollections
OrderedDict
p0
((lp1
(lp2
S'state'
p3
aI0
aa(lp4
S'distance'
p5
aF80.99374008178711
aa(lp6
S'timestamp'
p7
aF6.557071924209595
aatp8
Rp9
.ccollections
OrderedDict
p0
((lp1
(lp2
S'state'
p3
aI0
aa(lp4
S'distance'
p5
aF80.99374008178711
aa(lp6
S'timestamp'
p7
aF6.566990852355957
aatp8
Rp9
.ccollections
OrderedDict
p0
((lp1
(lp2
S'state'
p3
aI0
aa(lp4
S'distance'
p5
aF80.99374008178711
aa(lp6
S'timestamp'
p7
aF6.567203998565674
aatp8
Rp9
.ccollections
OrderedDict
p0
((lp1
(lp2
S'state'
p3
aI0
aa(lp4
S'distance'
p5
aF80.99374008178711
aa(lp6
S'timestamp'
p7
aF6.576663017272949
aatp8
Rp9
.ccollections
OrderedDict
p0
((lp1
(lp2
S'state'
p3
aI0
aa(lp4
S'distance'
p5
aF80.99374008178711
aa(lp6
S'timestamp'
p7
aF6.577488899230957
aatp8
Rp9
.ccollections
OrderedDict
p0
((lp1
(lp2
S'state'
p3
aI0
aa(lp4
S'distance'
p5
aF80.99374008178711
aa(lp6
S'timestamp'
p7
aF6.586858034133911
aatp8
Rp9
.ccollections
OrderedDict
p0
((lp1
(lp2
S'state'
p3
aI0
aa(lp4
S'distance'
p5
aF80.99374008178711
aa(lp6
S'timestamp'
p7
aF6.587461948394775
aatp8
Rp9
.ccollections
OrderedDict
p0
((lp1
(lp2
S'state'
p3
aI0
aa(lp4
S'distance'
p5
aF80.99374008178711
aa(lp6
S'timestamp'
p7
aF6.5972349643707275
aatp8
Rp9
.ccollections
OrderedDict
p0
((lp1
(lp2
S'state'
p3
aI0
aa(lp4
S'distance'
p5
aF80.99374008178711
aa(lp6
S'timestamp'
p7
aF6.597323894500732
aatp8
Rp9
.ccollections
OrderedDict
p0
((lp1
(lp2
S'state'
p3
aI0
aa(lp4
S'distance'
p5
aF80.99374008178711
aa(lp6
S'timestamp'
p7
aF6.606470823287964
aatp8
Rp9
.ccollections
OrderedDict
p0
((lp1
(lp2
S'state'
p3
aI0
aa(lp4
S'distance'
p5
aF80.99374008178711
aa(lp6
S'timestamp'
p7
aF6.607132911682129
aatp8
Rp9
.ccollections
OrderedDict
p0
((lp1
(lp2
S'state'
p3
aI0
aa(lp4
S'distance'
p5
aF80.99374008178711
aa(lp6
S'timestamp'
p7
aF6.617202997207642
aatp8
Rp9
.ccollections
OrderedDict
p0
((lp1
(lp2
S'state'
p3
aI0
aa(lp4
S'distance'
p5
aF80.99374008178711
aa(lp6
S'timestamp'
p7
aF6.617559909820557
aatp8
Rp9
.ccollections
OrderedDict
p0
((lp1
(lp2
S'state'
p3
aI0
aa(lp4
S'distance'
p5
aF80.99374008178711
aa(lp6
S'timestamp'
p7
aF6.626968860626221
aatp8
Rp9
.ccollections
OrderedDict
p0
((lp1
(lp2
S'state'
p3
aI0
aa(lp4
S'distance'
p5
aF80.99374008178711
aa(lp6
S'timestamp'
p7
aF6.6271069049835205
aatp8
Rp9
.ccollections
OrderedDict
p0
((lp1
(lp2
S'state'
p3
aI0
aa(lp4
S'distance'
p5
aF80.99374008178711
aa(lp6
S'timestamp'
p7
aF6.636960029602051
aatp8
Rp9
.ccollections
OrderedDict
p0
((lp1
(lp2
S'state'
p3
aI0
aa(lp4
S'distance'
p5
aF80.99374008178711
aa(lp6
S'timestamp'
p7
aF6.637125015258789
aatp8
Rp9
.ccollections
OrderedDict
p0
((lp1
(lp2
S'state'
p3
aI0
aa(lp4
S'distance'
p5
aF80.99374008178711
aa(lp6
S'timestamp'
p7
aF6.646345853805542
aatp8
Rp9
.ccollections
OrderedDict
p0
((lp1
(lp2
S'state'
p3
aI0
aa(lp4
S'distance'
p5
aF80.99374008178711
aa(lp6
S'timestamp'
p7
aF6.656545877456665
aatp8
Rp9
.ccollections
OrderedDict
p0
((lp1
(lp2
S'state'
p3
aI0
aa(lp4
S'distance'
p5
aF80.99374008178711
aa(lp6
S'timestamp'
p7
aF6.657712936401367
aatp8
Rp9
.ccollections
OrderedDict
p0
((lp1
(lp2
S'state'
p3
aI0
aa(lp4
S'distance'
p5
aF80.99374008178711
aa(lp6
S'timestamp'
p7
aF6.6584858894348145
aatp8
Rp9
.ccollections
OrderedDict
p0
((lp1
(lp2
S'state'
p3
aI0
aa(lp4
S'distance'
p5
aF80.99374008178711
aa(lp6
S'timestamp'
p7
aF6.666579961776733
aatp8
Rp9
.ccollections
OrderedDict
p0
((lp1
(lp2
S'state'
p3
aI0
aa(lp4
S'distance'
p5
aF80.99374008178711
aa(lp6
S'timestamp'
p7
aF6.6677539348602295
aatp8
Rp9
.ccollections
OrderedDict
p0
((lp1
(lp2
S'state'
p3
aI0
aa(lp4
S'distance'
p5
aF80.99374008178711
aa(lp6
S'timestamp'
p7
aF6.676807880401611
aatp8
Rp9
.ccollections
OrderedDict
p0
((lp1
(lp2
S'state'
p3
aI0
aa(lp4
S'distance'
p5
aF80.99374008178711
aa(lp6
S'timestamp'
p7
aF6.67717981338501
aatp8
Rp9
.ccollections
OrderedDict
p0
((lp1
(lp2
S'state'
p3
aI0
aa(lp4
S'distance'
p5
aF80.99374008178711
aa(lp6
S'timestamp'
p7
aF6.686578035354614
aatp8
Rp9
.ccollections
OrderedDict
p0
((lp1
(lp2
S'state'
p3
aI0
aa(lp4
S'distance'
p5
aF80.99374008178711
aa(lp6
S'timestamp'
p7
aF6.687399864196777
aatp8
Rp9
.ccollections
OrderedDict
p0
((lp1
(lp2
S'state'
p3
aI0
aa(lp4
S'distance'
p5
aF80.99374008178711
aa(lp6
S'timestamp'
p7
aF6.696568965911865
aatp8
Rp9
.ccollections
OrderedDict
p0
((lp1
(lp2
S'state'
p3
aI0
aa(lp4
S'distance'
p5
aF80.99374008178711
aa(lp6
S'timestamp'
p7
aF6.69745397567749
aatp8
Rp9
.ccollections
OrderedDict
p0
((lp1
(lp2
S'state'
p3
aI0
aa(lp4
S'distance'
p5
aF80.99374008178711
aa(lp6
S'timestamp'
p7
aF6.706578969955444
aatp8
Rp9
.ccollections
OrderedDict
p0
((lp1
(lp2
S'state'
p3
aI0
aa(lp4
S'distance'
p5
aF80.99374008178711
aa(lp6
S'timestamp'
p7
aF6.7071850299835205
aatp8
Rp9
.ccollections
OrderedDict
p0
((lp1
(lp2
S'state'
p3
aI0
aa(lp4
S'distance'
p5
aF80.99374008178711
aa(lp6
S'timestamp'
p7
aF6.716648817062378
aatp8
Rp9
.ccollections
OrderedDict
p0
((lp1
(lp2
S'state'
p3
aI0
aa(lp4
S'distance'
p5
aF80.99374008178711
aa(lp6
S'timestamp'
p7
aF6.7170000076293945
aatp8
Rp9
.ccollections
OrderedDict
p0
((lp1
(lp2
S'state'
p3
aI0
aa(lp4
S'distance'
p5
aF80.99374008178711
aa(lp6
S'timestamp'
p7
aF6.726778030395508
aatp8
Rp9
.ccollections
OrderedDict
p0
((lp1
(lp2
S'state'
p3
aI0
aa(lp4
S'distance'
p5
aF80.99374008178711
aa(lp6
S'timestamp'
p7
aF6.727130889892578
aatp8
Rp9
.ccollections
OrderedDict
p0
((lp1
(lp2
S'state'
p3
aI0
aa(lp4
S'distance'
p5
aF80.99374008178711
aa(lp6
S'timestamp'
p7
aF6.736724853515625
aatp8
Rp9
.ccollections
OrderedDict
p0
((lp1
(lp2
S'state'
p3
aI0
aa(lp4
S'distance'
p5
aF80.99374008178711
aa(lp6
S'timestamp'
p7
aF6.7375969886779785
aatp8
Rp9
.ccollections
OrderedDict
p0
((lp1
(lp2
S'state'
p3
aI0
aa(lp4
S'distance'
p5
aF80.99374008178711
aa(lp6
S'timestamp'
p7
aF6.7464869022369385
aatp8
Rp9
.ccollections
OrderedDict
p0
((lp1
(lp2
S'state'
p3
aI0
aa(lp4
S'distance'
p5
aF80.99374008178711
aa(lp6
S'timestamp'
p7
aF6.747377872467041
aatp8
Rp9
.ccollections
OrderedDict
p0
((lp1
(lp2
S'state'
p3
aI0
aa(lp4
S'distance'
p5
aF80.99374008178711
aa(lp6
S'timestamp'
p7
aF6.756407022476196
aatp8
Rp9
.ccollections
OrderedDict
p0
((lp1
(lp2
S'state'
p3
aI0
aa(lp4
S'distance'
p5
aF80.99374008178711
aa(lp6
S'timestamp'
p7
aF6.757138967514038
aatp8
Rp9
.ccollections
OrderedDict
p0
((lp1
(lp2
S'state'
p3
aI0
aa(lp4
S'distance'
p5
aF80.99374008178711
aa(lp6
S'timestamp'
p7
aF6.766564846038818
aatp8
Rp9
.ccollections
OrderedDict
p0
((lp1
(lp2
S'state'
p3
aI0
aa(lp4
S'distance'
p5
aF80.99374008178711
aa(lp6
S'timestamp'
p7
aF6.786752939224243
aatp8
Rp9
.ccollections
OrderedDict
p0
((lp1
(lp2
S'state'
p3
aI0
aa(lp4
S'distance'
p5
aF80.99374008178711
aa(lp6
S'timestamp'
p7
aF6.786909818649292
aatp8
Rp9
.ccollections
OrderedDict
p0
((lp1
(lp2
S'state'
p3
aI0
aa(lp4
S'distance'
p5
aF80.99374008178711
aa(lp6
S'timestamp'
p7
aF6.78875994682312
aatp8
Rp9
.ccollections
OrderedDict
p0
((lp1
(lp2
S'state'
p3
aI0
aa(lp4
S'distance'
p5
aF80.99374008178711
aa(lp6
S'timestamp'
p7
aF6.788938045501709
aatp8
Rp9
.ccollections
OrderedDict
p0
((lp1
(lp2
S'state'
p3
aI0
aa(lp4
S'distance'
p5
aF80.99374008178711
aa(lp6
S'timestamp'
p7
aF6.79648494720459
aatp8
Rp9
.ccollections
OrderedDict
p0
((lp1
(lp2
S'state'
p3
aI0
aa(lp4
S'distance'
p5
aF80.99374008178711
aa(lp6
S'timestamp'
p7
aF6.79730486869812
aatp8
Rp9
.ccollections
OrderedDict
p0
((lp1
(lp2
S'state'
p3
aI0
aa(lp4
S'distance'
p5
aF80.99374008178711
aa(lp6
S'timestamp'
p7
aF6.797385931015015
aatp8
Rp9
.ccollections
OrderedDict
p0
((lp1
(lp2
S'state'
p3
aI0
aa(lp4
S'distance'
p5
aF80.99374008178711
aa(lp6
S'timestamp'
p7
aF6.806797027587891
aatp8
Rp9
.ccollections
OrderedDict
p0
((lp1
(lp2
S'state'
p3
aI0
aa(lp4
S'distance'
p5
aF80.99374008178711
aa(lp6
S'timestamp'
p7
aF6.806944847106934
aatp8
Rp9
.ccollections
OrderedDict
p0
((lp1
(lp2
S'state'
p3
aI0
aa(lp4
S'distance'
p5
aF80.99374008178711
aa(lp6
S'timestamp'
p7
aF6.816370964050293
aatp8
Rp9
.ccollections
OrderedDict
p0
((lp1
(lp2
S'state'
p3
aI0
aa(lp4
S'distance'
p5
aF80.99374008178711
aa(lp6
S'timestamp'
p7
aF6.817180871963501
aatp8
Rp9
.ccollections
OrderedDict
p0
((lp1
(lp2
S'state'
p3
aI0
aa(lp4
S'distance'
p5
aF80.99374008178711
aa(lp6
S'timestamp'
p7
aF6.8269360065460205
aatp8
Rp9
.ccollections
OrderedDict
p0
((lp1
(lp2
S'state'
p3
aI0
aa(lp4
S'distance'
p5
aF80.99374008178711
aa(lp6
S'timestamp'
p7
aF6.827075004577637
aatp8
Rp9
.ccollections
OrderedDict
p0
((lp1
(lp2
S'state'
p3
aI0
aa(lp4
S'distance'
p5
aF80.99374008178711
aa(lp6
S'timestamp'
p7
aF6.8365678787231445
aatp8
Rp9
.ccollections
OrderedDict
p0
((lp1
(lp2
S'state'
p3
aI0
aa(lp4
S'distance'
p5
aF80.99374008178711
aa(lp6
S'timestamp'
p7
aF6.837430000305176
aatp8
Rp9
.ccollections
OrderedDict
p0
((lp1
(lp2
S'state'
p3
aI0
aa(lp4
S'distance'
p5
aF80.99374008178711
aa(lp6
S'timestamp'
p7
aF6.846570014953613
aatp8
Rp9
.ccollections
OrderedDict
p0
((lp1
(lp2
S'state'
p3
aI0
aa(lp4
S'distance'
p5
aF80.99374008178711
aa(lp6
S'timestamp'
p7
aF6.847566843032837
aatp8
Rp9
.ccollections
OrderedDict
p0
((lp1
(lp2
S'state'
p3
aI0
aa(lp4
S'distance'
p5
aF80.99374008178711
aa(lp6
S'timestamp'
p7
aF6.86696982383728
aatp8
Rp9
.ccollections
OrderedDict
p0
((lp1
(lp2
S'state'
p3
aI0
aa(lp4
S'distance'
p5
aF80.99374008178711
aa(lp6
S'timestamp'
p7
aF6.867190837860107
aatp8
Rp9
.ccollections
OrderedDict
p0
((lp1
(lp2
S'state'
p3
aI0
aa(lp4
S'distance'
p5
aF80.99374008178711
aa(lp6
S'timestamp'
p7
aF6.868086814880371
aatp8
Rp9
.ccollections
OrderedDict
p0
((lp1
(lp2
S'state'
p3
aI0
aa(lp4
S'distance'
p5
aF80.99374008178711
aa(lp6
S'timestamp'
p7
aF6.869123935699463
aatp8
Rp9
.ccollections
OrderedDict
p0
((lp1
(lp2
S'state'
p3
aI0
aa(lp4
S'distance'
p5
aF80.99374008178711
aa(lp6
S'timestamp'
p7
aF6.876415014266968
aatp8
Rp9
.ccollections
OrderedDict
p0
((lp1
(lp2
S'state'
p3
aI0
aa(lp4
S'distance'
p5
aF80.99374008178711
aa(lp6
S'timestamp'
p7
aF6.8773839473724365
aatp8
Rp9
.ccollections
OrderedDict
p0
((lp1
(lp2
S'state'
p3
aI0
aa(lp4
S'distance'
p5
aF80.99374008178711
aa(lp6
S'timestamp'
p7
aF6.8870790004730225
aatp8
Rp9
.ccollections
OrderedDict
p0
((lp1
(lp2
S'state'
p3
aI0
aa(lp4
S'distance'
p5
aF80.99374008178711
aa(lp6
S'timestamp'
p7
aF6.887228965759277
aatp8
Rp9
.ccollections
OrderedDict
p0
((lp1
(lp2
S'state'
p3
aI0
aa(lp4
S'distance'
p5
aF80.99374008178711
aa(lp6
S'timestamp'
p7
aF6.8965678215026855
aatp8
Rp9
.ccollections
OrderedDict
p0
((lp1
(lp2
S'state'
p3
aI0
aa(lp4
S'distance'
p5
aF80.99374008178711
aa(lp6
S'timestamp'
p7
aF6.897465944290161
aatp8
Rp9
.ccollections
OrderedDict
p0
((lp1
(lp2
S'state'
p3
aI0
aa(lp4
S'distance'
p5
aF80.99374008178711
aa(lp6
S'timestamp'
p7
aF6.906560897827148
aatp8
Rp9
.ccollections
OrderedDict
p0
((lp1
(lp2
S'state'
p3
aI0
aa(lp4
S'distance'
p5
aF80.99374008178711
aa(lp6
S'timestamp'
p7
aF6.907413005828857
aatp8
Rp9
.ccollections
OrderedDict
p0
((lp1
(lp2
S'state'
p3
aI0
aa(lp4
S'distance'
p5
aF80.99374008178711
aa(lp6
S'timestamp'
p7
aF6.916569948196411
aatp8
Rp9
.ccollections
OrderedDict
p0
((lp1
(lp2
S'state'
p3
aI0
aa(lp4
S'distance'
p5
aF80.99374008178711
aa(lp6
S'timestamp'
p7
aF6.917233943939209
aatp8
Rp9
.ccollections
OrderedDict
p0
((lp1
(lp2
S'state'
p3
aI0
aa(lp4
S'distance'
p5
aF80.99374008178711
aa(lp6
S'timestamp'
p7
aF6.926823854446411
aatp8
Rp9
.ccollections
OrderedDict
p0
((lp1
(lp2
S'state'
p3
aI0
aa(lp4
S'distance'
p5
aF80.99374008178711
aa(lp6
S'timestamp'
p7
aF6.927166938781738
aatp8
Rp9
.ccollections
OrderedDict
p0
((lp1
(lp2
S'state'
p3
aI0
aa(lp4
S'distance'
p5
aF80.99374008178711
aa(lp6
S'timestamp'
p7
aF6.936686038970947
aatp8
Rp9
.ccollections
OrderedDict
p0
((lp1
(lp2
S'state'
p3
aI0
aa(lp4
S'distance'
p5
aF80.99374008178711
aa(lp6
S'timestamp'
p7
aF6.937085866928101
aatp8
Rp9
.ccollections
OrderedDict
p0
((lp1
(lp2
S'state'
p3
aI0
aa(lp4
S'distance'
p5
aF80.99374008178711
aa(lp6
S'timestamp'
p7
aF6.9464099407196045
aatp8
Rp9
.ccollections
OrderedDict
p0
((lp1
(lp2
S'state'
p3
aI0
aa(lp4
S'distance'
p5
aF80.99374008178711
aa(lp6
S'timestamp'
p7
aF6.947224855422974
aatp8
Rp9
.ccollections
OrderedDict
p0
((lp1
(lp2
S'state'
p3
aI0
aa(lp4
S'distance'
p5
aF80.99374008178711
aa(lp6
S'timestamp'
p7
aF6.956951856613159
aatp8
Rp9
.ccollections
OrderedDict
p0
((lp1
(lp2
S'state'
p3
aI0
aa(lp4
S'distance'
p5
aF80.99374008178711
aa(lp6
S'timestamp'
p7
aF6.957373857498169
aatp8
Rp9
.ccollections
OrderedDict
p0
((lp1
(lp2
S'state'
p3
aI0
aa(lp4
S'distance'
p5
aF80.99374008178711
aa(lp6
S'timestamp'
p7
aF6.966773986816406
aatp8
Rp9
.ccollections
OrderedDict
p0
((lp1
(lp2
S'state'
p3
aI0
aa(lp4
S'distance'
p5
aF80.99374008178711
aa(lp6
S'timestamp'
p7
aF6.966925859451294
aatp8
Rp9
.ccollections
OrderedDict
p0
((lp1
(lp2
S'state'
p3
aI0
aa(lp4
S'distance'
p5
aF80.99374008178711
aa(lp6
S'timestamp'
p7
aF6.976562976837158
aatp8
Rp9
.ccollections
OrderedDict
p0
((lp1
(lp2
S'state'
p3
aI0
aa(lp4
S'distance'
p5
aF80.99374008178711
aa(lp6
S'timestamp'
p7
aF6.977912902832031
aatp8
Rp9
.ccollections
OrderedDict
p0
((lp1
(lp2
S'state'
p3
aI0
aa(lp4
S'distance'
p5
aF80.99374008178711
aa(lp6
S'timestamp'
p7
aF6.986824989318848
aatp8
Rp9
.ccollections
OrderedDict
p0
((lp1
(lp2
S'state'
p3
aI0
aa(lp4
S'distance'
p5
aF80.99374008178711
aa(lp6
S'timestamp'
p7
aF6.987331867218018
aatp8
Rp9
.ccollections
OrderedDict
p0
((lp1
(lp2
S'state'
p3
aI0
aa(lp4
S'distance'
p5
aF80.99374008178711
aa(lp6
S'timestamp'
p7
aF6.996593952178955
aatp8
Rp9
.ccollections
OrderedDict
p0
((lp1
(lp2
S'state'
p3
aI0
aa(lp4
S'distance'
p5
aF80.99374008178711
aa(lp6
S'timestamp'
p7
aF6.997395992279053
aatp8
Rp9
.ccollections
OrderedDict
p0
((lp1
(lp2
S'state'
p3
aI0
aa(lp4
S'distance'
p5
aF80.99374008178711
aa(lp6
S'timestamp'
p7
aF7.006475925445557
aatp8
Rp9
.ccollections
OrderedDict
p0
((lp1
(lp2
S'state'
p3
aI0
aa(lp4
S'distance'
p5
aF80.99374008178711
aa(lp6
S'timestamp'
p7
aF7.007207870483398
aatp8
Rp9
.ccollections
OrderedDict
p0
((lp1
(lp2
S'state'
p3
aI0
aa(lp4
S'distance'
p5
aF80.99374008178711
aa(lp6
S'timestamp'
p7
aF7.016532897949219
aatp8
Rp9
.ccollections
OrderedDict
p0
((lp1
(lp2
S'state'
p3
aI0
aa(lp4
S'distance'
p5
aF80.99374008178711
aa(lp6
S'timestamp'
p7
aF7.018074989318848
aatp8
Rp9
.ccollections
OrderedDict
p0
((lp1
(lp2
S'state'
p3
aI0
aa(lp4
S'distance'
p5
aF80.99374008178711
aa(lp6
S'timestamp'
p7
aF7.026671886444092
aatp8
Rp9
.ccollections
OrderedDict
p0
((lp1
(lp2
S'state'
p3
aI0
aa(lp4
S'distance'
p5
aF80.99374008178711
aa(lp6
S'timestamp'
p7
aF7.026957988739014
aatp8
Rp9
.ccollections
OrderedDict
p0
((lp1
(lp2
S'state'
p3
aI0
aa(lp4
S'distance'
p5
aF80.99374008178711
aa(lp6
S'timestamp'
p7
aF7.0364320278167725
aatp8
Rp9
.ccollections
OrderedDict
p0
((lp1
(lp2
S'state'
p3
aI0
aa(lp4
S'distance'
p5
aF80.99374008178711
aa(lp6
S'timestamp'
p7
aF7.036978006362915
aatp8
Rp9
.ccollections
OrderedDict
p0
((lp1
(lp2
S'state'
p3
aI0
aa(lp4
S'distance'
p5
aF80.99374008178711
aa(lp6
S'timestamp'
p7
aF7.0464959144592285
aatp8
Rp9
.ccollections
OrderedDict
p0
((lp1
(lp2
S'state'
p3
aI0
aa(lp4
S'distance'
p5
aF80.99374008178711
aa(lp6
S'timestamp'
p7
aF7.0470428466796875
aatp8
Rp9
.ccollections
OrderedDict
p0
((lp1
(lp2
S'state'
p3
aI0
aa(lp4
S'distance'
p5
aF80.99374008178711
aa(lp6
S'timestamp'
p7
aF7.056624889373779
aatp8
Rp9
.ccollections
OrderedDict
p0
((lp1
(lp2
S'state'
p3
aI0
aa(lp4
S'distance'
p5
aF80.99374008178711
aa(lp6
S'timestamp'
p7
aF7.057415962219238
aatp8
Rp9
.ccollections
OrderedDict
p0
((lp1
(lp2
S'state'
p3
aI0
aa(lp4
S'distance'
p5
aF80.99374008178711
aa(lp6
S'timestamp'
p7
aF7.066900014877319
aatp8
Rp9
.ccollections
OrderedDict
p0
((lp1
(lp2
S'state'
p3
aI0
aa(lp4
S'distance'
p5
aF80.99374008178711
aa(lp6
S'timestamp'
p7
aF7.067165851593018
aatp8
Rp9
.ccollections
OrderedDict
p0
((lp1
(lp2
S'state'
p3
aI0
aa(lp4
S'distance'
p5
aF80.99374008178711
aa(lp6
S'timestamp'
p7
aF7.077114820480347
aatp8
Rp9
.ccollections
OrderedDict
p0
((lp1
(lp2
S'state'
p3
aI0
aa(lp4
S'distance'
p5
aF80.99374008178711
aa(lp6
S'timestamp'
p7
aF7.077466011047363
aatp8
Rp9
.ccollections
OrderedDict
p0
((lp1
(lp2
S'state'
p3
aI0
aa(lp4
S'distance'
p5
aF80.99374008178711
aa(lp6
S'timestamp'
p7
aF7.086644887924194
aatp8
Rp9
.ccollections
OrderedDict
p0
((lp1
(lp2
S'state'
p3
aI0
aa(lp4
S'distance'
p5
aF80.99374008178711
aa(lp6
S'timestamp'
p7
aF7.087401866912842
aatp8
Rp9
.ccollections
OrderedDict
p0
((lp1
(lp2
S'state'
p3
aI0
aa(lp4
S'distance'
p5
aF80.99374008178711
aa(lp6
S'timestamp'
p7
aF7.096405982971191
aatp8
Rp9
.ccollections
OrderedDict
p0
((lp1
(lp2
S'state'
p3
aI0
aa(lp4
S'distance'
p5
aF80.99374008178711
aa(lp6
S'timestamp'
p7
aF7.097366809844971
aatp8
Rp9
.ccollections
OrderedDict
p0
((lp1
(lp2
S'state'
p3
aI0
aa(lp4
S'distance'
p5
aF80.99374008178711
aa(lp6
S'timestamp'
p7
aF7.106503963470459
aatp8
Rp9
.ccollections
OrderedDict
p0
((lp1
(lp2
S'state'
p3
aI0
aa(lp4
S'distance'
p5
aF80.99374008178711
aa(lp6
S'timestamp'
p7
aF7.107148885726929
aatp8
Rp9
.ccollections
OrderedDict
p0
((lp1
(lp2
S'state'
p3
aI0
aa(lp4
S'distance'
p5
aF80.99374008178711
aa(lp6
S'timestamp'
p7
aF7.116569995880127
aatp8
Rp9
.ccollections
OrderedDict
p0
((lp1
(lp2
S'state'
p3
aI0
aa(lp4
S'distance'
p5
aF80.99374008178711
aa(lp6
S'timestamp'
p7
aF7.117374897003174
aatp8
Rp9
.ccollections
OrderedDict
p0
((lp1
(lp2
S'state'
p3
aI0
aa(lp4
S'distance'
p5
aF80.99374008178711
aa(lp6
S'timestamp'
p7
aF7.126507997512817
aatp8
Rp9
.ccollections
OrderedDict
p0
((lp1
(lp2
S'state'
p3
aI0
aa(lp4
S'distance'
p5
aF80.99374008178711
aa(lp6
S'timestamp'
p7
aF7.12714695930481
aatp8
Rp9
.ccollections
OrderedDict
p0
((lp1
(lp2
S'state'
p3
aI0
aa(lp4
S'distance'
p5
aF80.99374008178711
aa(lp6
S'timestamp'
p7
aF7.136509895324707
aatp8
Rp9
.ccollections
OrderedDict
p0
((lp1
(lp2
S'state'
p3
aI0
aa(lp4
S'distance'
p5
aF80.99374008178711
aa(lp6
S'timestamp'
p7
aF7.1380908489227295
aatp8
Rp9
.ccollections
OrderedDict
p0
((lp1
(lp2
S'state'
p3
aI0
aa(lp4
S'distance'
p5
aF80.99374008178711
aa(lp6
S'timestamp'
p7
aF7.14657998085022
aatp8
Rp9
.ccollections
OrderedDict
p0
((lp1
(lp2
S'state'
p3
aI0
aa(lp4
S'distance'
p5
aF80.99374008178711
aa(lp6
S'timestamp'
p7
aF7.147400856018066
aatp8
Rp9
.ccollections
OrderedDict
p0
((lp1
(lp2
S'state'
p3
aI0
aa(lp4
S'distance'
p5
aF80.99374008178711
aa(lp6
S'timestamp'
p7
aF7.1668219566345215
aatp8
Rp9
.ccollections
OrderedDict
p0
((lp1
(lp2
S'state'
p3
aI0
aa(lp4
S'distance'
p5
aF80.99374008178711
aa(lp6
S'timestamp'
p7
aF7.1672680377960205
aatp8
Rp9
.ccollections
OrderedDict
p0
((lp1
(lp2
S'state'
p3
aI0
aa(lp4
S'distance'
p5
aF80.99374008178711
aa(lp6
S'timestamp'
p7
aF7.168066024780273
aatp8
Rp9
.ccollections
OrderedDict
p0
((lp1
(lp2
S'state'
p3
aI0
aa(lp4
S'distance'
p5
aF80.99374008178711
aa(lp6
S'timestamp'
p7
aF7.168221950531006
aatp8
Rp9
.ccollections
OrderedDict
p0
((lp1
(lp2
S'state'
p3
aI0
aa(lp4
S'distance'
p5
aF80.99374008178711
aa(lp6
S'timestamp'
p7
aF7.186882972717285
aatp8
Rp9
.ccollections
OrderedDict
p0
((lp1
(lp2
S'state'
p3
aI0
aa(lp4
S'distance'
p5
aF80.99374008178711
aa(lp6
S'timestamp'
p7
aF7.1872148513793945
aatp8
Rp9
.ccollections
OrderedDict
p0
((lp1
(lp2
S'state'
p3
aI0
aa(lp4
S'distance'
p5
aF80.99374008178711
aa(lp6
S'timestamp'
p7
aF7.187312841415405
aatp8
Rp9
.ccollections
OrderedDict
p0
((lp1
(lp2
S'state'
p3
aI0
aa(lp4
S'distance'
p5
aF80.99374008178711
aa(lp6
S'timestamp'
p7
aF7.188200950622559
aatp8
Rp9
.ccollections
OrderedDict
p0
((lp1
(lp2
S'state'
p3
aI0
aa(lp4
S'distance'
p5
aF80.99374008178711
aa(lp6
S'timestamp'
p7
aF7.196579933166504
aatp8
Rp9
.ccollections
OrderedDict
p0
((lp1
(lp2
S'state'
p3
aI0
aa(lp4
S'distance'
p5
aF80.99374008178711
aa(lp6
S'timestamp'
p7
aF7.1975908279418945
aatp8
Rp9
.ccollections
OrderedDict
p0
((lp1
(lp2
S'state'
p3
aI0
aa(lp4
S'distance'
p5
aF80.99374008178711
aa(lp6
S'timestamp'
p7
aF7.207036972045898
aatp8
Rp9
.ccollections
OrderedDict
p0
((lp1
(lp2
S'state'
p3
aI0
aa(lp4
S'distance'
p5
aF80.99374008178711
aa(lp6
S'timestamp'
p7
aF7.207923889160156
aatp8
Rp9
.ccollections
OrderedDict
p0
((lp1
(lp2
S'state'
p3
aI0
aa(lp4
S'distance'
p5
aF80.99374008178711
aa(lp6
S'timestamp'
p7
aF7.217538833618164
aatp8
Rp9
.ccollections
OrderedDict
p0
((lp1
(lp2
S'state'
p3
aI0
aa(lp4
S'distance'
p5
aF80.99374008178711
aa(lp6
S'timestamp'
p7
aF7.217808961868286
aatp8
Rp9
.ccollections
OrderedDict
p0
((lp1
(lp2
S'state'
p3
aI0
aa(lp4
S'distance'
p5
aF80.99374008178711
aa(lp6
S'timestamp'
p7
aF7.238308906555176
aatp8
Rp9
.ccollections
OrderedDict
p0
((lp1
(lp2
S'state'
p3
aI0
aa(lp4
S'distance'
p5
aF80.99374008178711
aa(lp6
S'timestamp'
p7
aF7.2393999099731445
aatp8
Rp9
.ccollections
OrderedDict
p0
((lp1
(lp2
S'state'
p3
aI0
aa(lp4
S'distance'
p5
aF80.99374008178711
aa(lp6
S'timestamp'
p7
aF7.239495038986206
aatp8
Rp9
.ccollections
OrderedDict
p0
((lp1
(lp2
S'state'
p3
aI0
aa(lp4
S'distance'
p5
aF80.99374008178711
aa(lp6
S'timestamp'
p7
aF7.23957085609436
aatp8
Rp9
.ccollections
OrderedDict
p0
((lp1
(lp2
S'state'
p3
aI0
aa(lp4
S'distance'
p5
aF80.99374008178711
aa(lp6
S'timestamp'
p7
aF7.246532917022705
aatp8
Rp9
.ccollections
OrderedDict
p0
((lp1
(lp2
S'state'
p3
aI0
aa(lp4
S'distance'
p5
aF80.99374008178711
aa(lp6
S'timestamp'
p7
aF7.247066974639893
aatp8
Rp9
.ccollections
OrderedDict
p0
((lp1
(lp2
S'state'
p3
aI0
aa(lp4
S'distance'
p5
aF80.99374008178711
aa(lp6
S'timestamp'
p7
aF7.256603002548218
aatp8
Rp9
.ccollections
OrderedDict
p0
((lp1
(lp2
S'state'
p3
aI0
aa(lp4
S'distance'
p5
aF80.99374008178711
aa(lp6
S'timestamp'
p7
aF7.2569169998168945
aatp8
Rp9
.ccollections
OrderedDict
p0
((lp1
(lp2
S'state'
p3
aI0
aa(lp4
S'distance'
p5
aF80.99374008178711
aa(lp6
S'timestamp'
p7
aF7.266676902770996
aatp8
Rp9
.ccollections
OrderedDict
p0
((lp1
(lp2
S'state'
p3
aI0
aa(lp4
S'distance'
p5
aF80.99374008178711
aa(lp6
S'timestamp'
p7
aF7.267460823059082
aatp8
Rp9
.ccollections
OrderedDict
p0
((lp1
(lp2
S'state'
p3
aI0
aa(lp4
S'distance'
p5
aF80.99374008178711
aa(lp6
S'timestamp'
p7
aF7.276515960693359
aatp8
Rp9
.ccollections
OrderedDict
p0
((lp1
(lp2
S'state'
p3
aI0
aa(lp4
S'distance'
p5
aF80.99374008178711
aa(lp6
S'timestamp'
p7
aF7.277535915374756
aatp8
Rp9
.ccollections
OrderedDict
p0
((lp1
(lp2
S'state'
p3
aI0
aa(lp4
S'distance'
p5
aF80.99374008178711
aa(lp6
S'timestamp'
p7
aF7.28655481338501
aatp8
Rp9
.ccollections
OrderedDict
p0
((lp1
(lp2
S'state'
p3
aI0
aa(lp4
S'distance'
p5
aF80.99374008178711
aa(lp6
S'timestamp'
p7
aF7.287202835083008
aatp8
Rp9
.ccollections
OrderedDict
p0
((lp1
(lp2
S'state'
p3
aI0
aa(lp4
S'distance'
p5
aF80.99374008178711
aa(lp6
S'timestamp'
p7
aF7.296557903289795
aatp8
Rp9
.ccollections
OrderedDict
p0
((lp1
(lp2
S'state'
p3
aI0
aa(lp4
S'distance'
p5
aF80.99374008178711
aa(lp6
S'timestamp'
p7
aF7.297331809997559
aatp8
Rp9
.ccollections
OrderedDict
p0
((lp1
(lp2
S'state'
p3
aI0
aa(lp4
S'distance'
p5
aF80.99374008178711
aa(lp6
S'timestamp'
p7
aF7.306480884552002
aatp8
Rp9
.ccollections
OrderedDict
p0
((lp1
(lp2
S'state'
p3
aI0
aa(lp4
S'distance'
p5
aF80.99374008178711
aa(lp6
S'timestamp'
p7
aF7.307339906692505
aatp8
Rp9
.ccollections
OrderedDict
p0
((lp1
(lp2
S'state'
p3
aI0
aa(lp4
S'distance'
p5
aF80.99374008178711
aa(lp6
S'timestamp'
p7
aF7.316532850265503
aatp8
Rp9
.ccollections
OrderedDict
p0
((lp1
(lp2
S'state'
p3
aI0
aa(lp4
S'distance'
p5
aF80.99374008178711
aa(lp6
S'timestamp'
p7
aF7.317363977432251
aatp8
Rp9
.ccollections
OrderedDict
p0
((lp1
(lp2
S'state'
p3
aI0
aa(lp4
S'distance'
p5
aF80.99374008178711
aa(lp6
S'timestamp'
p7
aF7.326570987701416
aatp8
Rp9
.ccollections
OrderedDict
p0
((lp1
(lp2
S'state'
p3
aI0
aa(lp4
S'distance'
p5
aF80.99374008178711
aa(lp6
S'timestamp'
p7
aF7.327296018600464
aatp8
Rp9
.ccollections
OrderedDict
p0
((lp1
(lp2
S'state'
p3
aI0
aa(lp4
S'distance'
p5
aF80.99374008178711
aa(lp6
S'timestamp'
p7
aF7.336927890777588
aatp8
Rp9
.ccollections
OrderedDict
p0
((lp1
(lp2
S'state'
p3
aI0
aa(lp4
S'distance'
p5
aF80.99374008178711
aa(lp6
S'timestamp'
p7
aF7.337061882019043
aatp8
Rp9
.ccollections
OrderedDict
p0
((lp1
(lp2
S'state'
p3
aI0
aa(lp4
S'distance'
p5
aF80.99374008178711
aa(lp6
S'timestamp'
p7
aF7.346894979476929
aatp8
Rp9
.ccollections
OrderedDict
p0
((lp1
(lp2
S'state'
p3
aI0
aa(lp4
S'distance'
p5
aF80.99374008178711
aa(lp6
S'timestamp'
p7
aF7.347064018249512
aatp8
Rp9
.ccollections
OrderedDict
p0
((lp1
(lp2
S'state'
p3
aI0
aa(lp4
S'distance'
p5
aF80.99374008178711
aa(lp6
S'timestamp'
p7
aF7.356564044952393
aatp8
Rp9
.ccollections
OrderedDict
p0
((lp1
(lp2
S'state'
p3
aI0
aa(lp4
S'distance'
p5
aF80.99374008178711
aa(lp6
S'timestamp'
p7
aF7.358114004135132
aatp8
Rp9
.ccollections
OrderedDict
p0
((lp1
(lp2
S'state'
p3
aI0
aa(lp4
S'distance'
p5
aF80.99374008178711
aa(lp6
S'timestamp'
p7
aF7.36676287651062
aatp8
Rp9
.ccollections
OrderedDict
p0
((lp1
(lp2
S'state'
p3
aI0
aa(lp4
S'distance'
p5
aF80.99374008178711
aa(lp6
S'timestamp'
p7
aF7.366912841796875
aatp8
Rp9
.ccollections
OrderedDict
p0
((lp1
(lp2
S'state'
p3
aI0
aa(lp4
S'distance'
p5
aF80.99374008178711
aa(lp6
S'timestamp'
p7
aF7.386847019195557
aatp8
Rp9
.ccollections
OrderedDict
p0
((lp1
(lp2
S'state'
p3
aI0
aa(lp4
S'distance'
p5
aF80.99374008178711
aa(lp6
S'timestamp'
p7
aF7.387356996536255
aatp8
Rp9
.ccollections
OrderedDict
p0
((lp1
(lp2
S'state'
p3
aI0
aa(lp4
S'distance'
p5
aF80.99374008178711
aa(lp6
S'timestamp'
p7
aF7.388373851776123
aatp8
Rp9
.ccollections
OrderedDict
p0
((lp1
(lp2
S'state'
p3
aI0
aa(lp4
S'distance'
p5
aF80.99374008178711
aa(lp6
S'timestamp'
p7
aF7.388445854187012
aatp8
Rp9
.ccollections
OrderedDict
p0
((lp1
(lp2
S'state'
p3
aI0
aa(lp4
S'distance'
p5
aF80.99374008178711
aa(lp6
S'timestamp'
p7
aF7.396592855453491
aatp8
Rp9
.ccollections
OrderedDict
p0
((lp1
(lp2
S'state'
p3
aI0
aa(lp4
S'distance'
p5
aF80.99374008178711
aa(lp6
S'timestamp'
p7
aF7.397531986236572
aatp8
Rp9
.ccollections
OrderedDict
p0
((lp1
(lp2
S'state'
p3
aI0
aa(lp4
S'distance'
p5
aF80.99374008178711
aa(lp6
S'timestamp'
p7
aF7.406864881515503
aatp8
Rp9
.ccollections
OrderedDict
p0
((lp1
(lp2
S'state'
p3
aI0
aa(lp4
S'distance'
p5
aF80.99374008178711
aa(lp6
S'timestamp'
p7
aF7.407009840011597
aatp8
Rp9
.ccollections
OrderedDict
p0
((lp1
(lp2
S'state'
p3
aI0
aa(lp4
S'distance'
p5
aF80.99374008178711
aa(lp6
S'timestamp'
p7
aF7.416839838027954
aatp8
Rp9
.ccollections
OrderedDict
p0
((lp1
(lp2
S'state'
p3
aI0
aa(lp4
S'distance'
p5
aF80.99374008178711
aa(lp6
S'timestamp'
p7
aF7.417559862136841
aatp8
Rp9
.ccollections
OrderedDict
p0
((lp1
(lp2
S'state'
p3
aI0
aa(lp4
S'distance'
p5
aF80.99374008178711
aa(lp6
S'timestamp'
p7
aF7.4265758991241455
aatp8
Rp9
.ccollections
OrderedDict
p0
((lp1
(lp2
S'state'
p3
aI0
aa(lp4
S'distance'
p5
aF80.99374008178711
aa(lp6
S'timestamp'
p7
aF7.427080869674683
aatp8
Rp9
.ccollections
OrderedDict
p0
((lp1
(lp2
S'state'
p3
aI0
aa(lp4
S'distance'
p5
aF80.99374008178711
aa(lp6
S'timestamp'
p7
aF7.43656587600708
aatp8
Rp9
.ccollections
OrderedDict
p0
((lp1
(lp2
S'state'
p3
aI0
aa(lp4
S'distance'
p5
aF80.99374008178711
aa(lp6
S'timestamp'
p7
aF7.437283992767334
aatp8
Rp9
.ccollections
OrderedDict
p0
((lp1
(lp2
S'state'
p3
aI0
aa(lp4
S'distance'
p5
aF80.99374008178711
aa(lp6
S'timestamp'
p7
aF7.447584867477417
aatp8
Rp9
.ccollections
OrderedDict
p0
((lp1
(lp2
S'state'
p3
aI0
aa(lp4
S'distance'
p5
aF80.99374008178711
aa(lp6
S'timestamp'
p7
aF7.447837829589844
aatp8
Rp9
.ccollections
OrderedDict
p0
((lp1
(lp2
S'state'
p3
aI0
aa(lp4
S'distance'
p5
aF80.99374008178711
aa(lp6
S'timestamp'
p7
aF7.456485033035278
aatp8
Rp9
.ccollections
OrderedDict
p0
((lp1
(lp2
S'state'
p3
aI0
aa(lp4
S'distance'
p5
aF80.99374008178711
aa(lp6
S'timestamp'
p7
aF7.457067012786865
aatp8
Rp9
.ccollections
OrderedDict
p0
((lp1
(lp2
S'state'
p3
aI0
aa(lp4
S'distance'
p5
aF80.99374008178711
aa(lp6
S'timestamp'
p7
aF7.466538906097412
aatp8
Rp9
.ccollections
OrderedDict
p0
((lp1
(lp2
S'state'
p3
aI0
aa(lp4
S'distance'
p5
aF80.99374008178711
aa(lp6
S'timestamp'
p7
aF7.466876983642578
aatp8
Rp9
.ccollections
OrderedDict
p0
((lp1
(lp2
S'state'
p3
aI0
aa(lp4
S'distance'
p5
aF80.99374008178711
aa(lp6
S'timestamp'
p7
aF7.476720809936523
aatp8
Rp9
.ccollections
OrderedDict
p0
((lp1
(lp2
S'state'
p3
aI0
aa(lp4
S'distance'
p5
aF80.99374008178711
aa(lp6
S'timestamp'
p7
aF7.477687835693359
aatp8
Rp9
.ccollections
OrderedDict
p0
((lp1
(lp2
S'state'
p3
aI0
aa(lp4
S'distance'
p5
aF80.99374008178711
aa(lp6
S'timestamp'
p7
aF7.486701011657715
aatp8
Rp9
.ccollections
OrderedDict
p0
((lp1
(lp2
S'state'
p3
aI0
aa(lp4
S'distance'
p5
aF80.99374008178711
aa(lp6
S'timestamp'
p7
aF7.487350940704346
aatp8
Rp9
.ccollections
OrderedDict
p0
((lp1
(lp2
S'state'
p3
aI0
aa(lp4
S'distance'
p5
aF80.99374008178711
aa(lp6
S'timestamp'
p7
aF7.496876955032349
aatp8
Rp9
.ccollections
OrderedDict
p0
((lp1
(lp2
S'state'
p3
aI0
aa(lp4
S'distance'
p5
aF80.99374008178711
aa(lp6
S'timestamp'
p7
aF7.497115850448608
aatp8
Rp9
.ccollections
OrderedDict
p0
((lp1
(lp2
S'state'
p3
aI0
aa(lp4
S'distance'
p5
aF80.99374008178711
aa(lp6
S'timestamp'
p7
aF7.50721287727356
aatp8
Rp9
.ccollections
OrderedDict
p0
((lp1
(lp2
S'state'
p3
aI0
aa(lp4
S'distance'
p5
aF80.99374008178711
aa(lp6
S'timestamp'
p7
aF7.507985830307007
aatp8
Rp9
.ccollections
OrderedDict
p0
((lp1
(lp2
S'state'
p3
aI0
aa(lp4
S'distance'
p5
aF80.99374008178711
aa(lp6
S'timestamp'
p7
aF7.51652193069458
aatp8
Rp9
.ccollections
OrderedDict
p0
((lp1
(lp2
S'state'
p3
aI0
aa(lp4
S'distance'
p5
aF80.99374008178711
aa(lp6
S'timestamp'
p7
aF7.518024921417236
aatp8
Rp9
.ccollections
OrderedDict
p0
((lp1
(lp2
S'state'
p3
aI0
aa(lp4
S'distance'
p5
aF80.99374008178711
aa(lp6
S'timestamp'
p7
aF7.526947021484375
aatp8
Rp9
.ccollections
OrderedDict
p0
((lp1
(lp2
S'state'
p3
aI0
aa(lp4
S'distance'
p5
aF80.99374008178711
aa(lp6
S'timestamp'
p7
aF7.527097940444946
aatp8
Rp9
.ccollections
OrderedDict
p0
((lp1
(lp2
S'state'
p3
aI0
aa(lp4
S'distance'
p5
aF80.99374008178711
aa(lp6
S'timestamp'
p7
aF7.536645889282227
aatp8
Rp9
.ccollections
OrderedDict
p0
((lp1
(lp2
S'state'
p3
aI0
aa(lp4
S'distance'
p5
aF80.99374008178711
aa(lp6
S'timestamp'
p7
aF7.537295818328857
aatp8
Rp9
.ccollections
OrderedDict
p0
((lp1
(lp2
S'state'
p3
aI0
aa(lp4
S'distance'
p5
aF80.99374008178711
aa(lp6
S'timestamp'
p7
aF7.546550035476685
aatp8
Rp9
.ccollections
OrderedDict
p0
((lp1
(lp2
S'state'
p3
aI0
aa(lp4
S'distance'
p5
aF80.99374008178711
aa(lp6
S'timestamp'
p7
aF7.547399044036865
aatp8
Rp9
.ccollections
OrderedDict
p0
((lp1
(lp2
S'state'
p3
aI0
aa(lp4
S'distance'
p5
aF80.99374008178711
aa(lp6
S'timestamp'
p7
aF7.556574821472168
aatp8
Rp9
.ccollections
OrderedDict
p0
((lp1
(lp2
S'state'
p3
aI0
aa(lp4
S'distance'
p5
aF80.99374008178711
aa(lp6
S'timestamp'
p7
aF7.557301044464111
aatp8
Rp9
.ccollections
OrderedDict
p0
((lp1
(lp2
S'state'
p3
aI0
aa(lp4
S'distance'
p5
aF80.99374008178711
aa(lp6
S'timestamp'
p7
aF7.567267894744873
aatp8
Rp9
.ccollections
OrderedDict
p0
((lp1
(lp2
S'state'
p3
aI0
aa(lp4
S'distance'
p5
aF80.99374008178711
aa(lp6
S'timestamp'
p7
aF7.5673558712005615
aatp8
Rp9
.ccollections
OrderedDict
p0
((lp1
(lp2
S'state'
p3
aI0
aa(lp4
S'distance'
p5
aF80.99374008178711
aa(lp6
S'timestamp'
p7
aF7.5768678188323975
aatp8
Rp9
.ccollections
OrderedDict
p0
((lp1
(lp2
S'state'
p3
aI0
aa(lp4
S'distance'
p5
aF80.99374008178711
aa(lp6
S'timestamp'
p7
aF7.577232837677002
aatp8
Rp9
.ccollections
OrderedDict
p0
((lp1
(lp2
S'state'
p3
aI0
aa(lp4
S'distance'
p5
aF80.99374008178711
aa(lp6
S'timestamp'
p7
aF7.606806039810181
aatp8
Rp9
.ccollections
OrderedDict
p0
((lp1
(lp2
S'state'
p3
aI0
aa(lp4
S'distance'
p5
aF80.99374008178711
aa(lp6
S'timestamp'
p7
aF7.607445001602173
aatp8
Rp9
.ccollections
OrderedDict
p0
((lp1
(lp2
S'state'
p3
aI0
aa(lp4
S'distance'
p5
aF80.99374008178711
aa(lp6
S'timestamp'
p7
aF7.608397006988525
aatp8
Rp9
.ccollections
OrderedDict
p0
((lp1
(lp2
S'state'
p3
aI0
aa(lp4
S'distance'
p5
aF80.99374008178711
aa(lp6
S'timestamp'
p7
aF7.608983993530273
aatp8
Rp9
.ccollections
OrderedDict
p0
((lp1
(lp2
S'state'
p3
aI0
aa(lp4
S'distance'
p5
aF80.99374008178711
aa(lp6
S'timestamp'
p7
aF7.617316961288452
aatp8
Rp9
.ccollections
OrderedDict
p0
((lp1
(lp2
S'state'
p3
aI0
aa(lp4
S'distance'
p5
aF80.99374008178711
aa(lp6
S'timestamp'
p7
aF7.617394924163818
aatp8
Rp9
.ccollections
OrderedDict
p0
((lp1
(lp2
S'state'
p3
aI0
aa(lp4
S'distance'
p5
aF80.99374008178711
aa(lp6
S'timestamp'
p7
aF7.618170976638794
aatp8
Rp9
.ccollections
OrderedDict
p0
((lp1
(lp2
S'state'
p3
aI0
aa(lp4
S'distance'
p5
aF80.99374008178711
aa(lp6
S'timestamp'
p7
aF7.6190619468688965
aatp8
Rp9
.ccollections
OrderedDict
p0
((lp1
(lp2
S'state'
p3
aI0
aa(lp4
S'distance'
p5
aF80.99374008178711
aa(lp6
S'timestamp'
p7
aF7.626868009567261
aatp8
Rp9
.ccollections
OrderedDict
p0
((lp1
(lp2
S'state'
p3
aI0
aa(lp4
S'distance'
p5
aF80.99374008178711
aa(lp6
S'timestamp'
p7
aF7.627224922180176
aatp8
Rp9
.ccollections
OrderedDict
p0
((lp1
(lp2
S'state'
p3
aI0
aa(lp4
S'distance'
p5
aF80.99374008178711
aa(lp6
S'timestamp'
p7
aF7.636458873748779
aatp8
Rp9
.ccollections
OrderedDict
p0
((lp1
(lp2
S'state'
p3
aI0
aa(lp4
S'distance'
p5
aF80.99374008178711
aa(lp6
S'timestamp'
p7
aF7.637305974960327
aatp8
Rp9
.ccollections
OrderedDict
p0
((lp1
(lp2
S'state'
p3
aI0
aa(lp4
S'distance'
p5
aF80.99374008178711
aa(lp6
S'timestamp'
p7
aF7.646577835083008
aatp8
Rp9
.ccollections
OrderedDict
p0
((lp1
(lp2
S'state'
p3
aI0
aa(lp4
S'distance'
p5
aF80.99374008178711
aa(lp6
S'timestamp'
p7
aF7.647363901138306
aatp8
Rp9
.ccollections
OrderedDict
p0
((lp1
(lp2
S'state'
p3
aI0
aa(lp4
S'distance'
p5
aF80.99374008178711
aa(lp6
S'timestamp'
p7
aF7.656845808029175
aatp8
Rp9
.ccollections
OrderedDict
p0
((lp1
(lp2
S'state'
p3
aI0
aa(lp4
S'distance'
p5
aF80.99374008178711
aa(lp6
S'timestamp'
p7
aF7.657569885253906
aatp8
Rp9
.ccollections
OrderedDict
p0
((lp1
(lp2
S'state'
p3
aI0
aa(lp4
S'distance'
p5
aF80.99374008178711
aa(lp6
S'timestamp'
p7
aF7.6668479442596436
aatp8
Rp9
.ccollections
OrderedDict
p0
((lp1
(lp2
S'state'
p3
aI0
aa(lp4
S'distance'
p5
aF80.99374008178711
aa(lp6
S'timestamp'
p7
aF7.667641878128052
aatp8
Rp9
.ccollections
OrderedDict
p0
((lp1
(lp2
S'state'
p3
aI0
aa(lp4
S'distance'
p5
aF80.99374008178711
aa(lp6
S'timestamp'
p7
aF7.676450967788696
aatp8
Rp9
.ccollections
OrderedDict
p0
((lp1
(lp2
S'state'
p3
aI0
aa(lp4
S'distance'
p5
aF80.99374008178711
aa(lp6
S'timestamp'
p7
aF7.67720103263855
aatp8
Rp9
.ccollections
OrderedDict
p0
((lp1
(lp2
S'state'
p3
aI0
aa(lp4
S'distance'
p5
aF80.99374008178711
aa(lp6
S'timestamp'
p7
aF7.696776866912842
aatp8
Rp9
.ccollections
OrderedDict
p0
((lp1
(lp2
S'state'
p3
aI0
aa(lp4
S'distance'
p5
aF80.99374008178711
aa(lp6
S'timestamp'
p7
aF7.696930885314941
aatp8
Rp9
.ccollections
OrderedDict
p0
((lp1
(lp2
S'state'
p3
aI0
aa(lp4
S'distance'
p5
aF80.99374008178711
aa(lp6
S'timestamp'
p7
aF7.6989099979400635
aatp8
Rp9
.ccollections
OrderedDict
p0
((lp1
(lp2
S'state'
p3
aI0
aa(lp4
S'distance'
p5
aF80.99374008178711
aa(lp6
S'timestamp'
p7
aF7.699141979217529
aatp8
Rp9
.ccollections
OrderedDict
p0
((lp1
(lp2
S'state'
p3
aI0
aa(lp4
S'distance'
p5
aF80.99374008178711
aa(lp6
S'timestamp'
p7
aF7.7171008586883545
aatp8
Rp9
.ccollections
OrderedDict
p0
((lp1
(lp2
S'state'
p3
aI0
aa(lp4
S'distance'
p5
aF80.99374008178711
aa(lp6
S'timestamp'
p7
aF7.7179670333862305
aatp8
Rp9
.ccollections
OrderedDict
p0
((lp1
(lp2
S'state'
p3
aI0
aa(lp4
S'distance'
p5
aF80.99374008178711
aa(lp6
S'timestamp'
p7
aF7.718158960342407
aatp8
Rp9
.ccollections
OrderedDict
p0
((lp1
(lp2
S'state'
p3
aI0
aa(lp4
S'distance'
p5
aF80.99374008178711
aa(lp6
S'timestamp'
p7
aF7.719108819961548
aatp8
Rp9
.ccollections
OrderedDict
p0
((lp1
(lp2
S'state'
p3
aI0
aa(lp4
S'distance'
p5
aF80.99374008178711
aa(lp6
S'timestamp'
p7
aF7.726847887039185
aatp8
Rp9
.ccollections
OrderedDict
p0
((lp1
(lp2
S'state'
p3
aI0
aa(lp4
S'distance'
p5
aF80.99374008178711
aa(lp6
S'timestamp'
p7
aF7.727252006530762
aatp8
Rp9
.ccollections
OrderedDict
p0
((lp1
(lp2
S'state'
p3
aI0
aa(lp4
S'distance'
p5
aF80.99374008178711
aa(lp6
S'timestamp'
p7
aF7.736915826797485
aatp8
Rp9
.ccollections
OrderedDict
p0
((lp1
(lp2
S'state'
p3
aI0
aa(lp4
S'distance'
p5
aF80.99374008178711
aa(lp6
S'timestamp'
p7
aF7.737293004989624
aatp8
Rp9
.ccollections
OrderedDict
p0
((lp1
(lp2
S'state'
p3
aI0
aa(lp4
S'distance'
p5
aF80.99374008178711
aa(lp6
S'timestamp'
p7
aF7.746618986129761
aatp8
Rp9
.ccollections
OrderedDict
p0
((lp1
(lp2
S'state'
p3
aI0
aa(lp4
S'distance'
p5
aF80.99374008178711
aa(lp6
S'timestamp'
p7
aF7.757062911987305
aatp8
Rp9
.ccollections
OrderedDict
p0
((lp1
(lp2
S'state'
p3
aI0
aa(lp4
S'distance'
p5
aF80.99374008178711
aa(lp6
S'timestamp'
p7
aF7.7575249671936035
aatp8
Rp9
.ccollections
OrderedDict
p0
((lp1
(lp2
S'state'
p3
aI0
aa(lp4
S'distance'
p5
aF80.99374008178711
aa(lp6
S'timestamp'
p7
aF7.7595298290252686
aatp8
Rp9
.ccollections
OrderedDict
p0
((lp1
(lp2
S'state'
p3
aI0
aa(lp4
S'distance'
p5
aF80.99374008178711
aa(lp6
S'timestamp'
p7
aF7.766919851303101
aatp8
Rp9
.ccollections
OrderedDict
p0
((lp1
(lp2
S'state'
p3
aI0
aa(lp4
S'distance'
p5
aF80.99374008178711
aa(lp6
S'timestamp'
p7
aF7.767076015472412
aatp8
Rp9
.ccollections
OrderedDict
p0
((lp1
(lp2
S'state'
p3
aI0
aa(lp4
S'distance'
p5
aF80.99374008178711
aa(lp6
S'timestamp'
p7
aF7.776679992675781
aatp8
Rp9
.ccollections
OrderedDict
p0
((lp1
(lp2
S'state'
p3
aI0
aa(lp4
S'distance'
p5
aF80.99374008178711
aa(lp6
S'timestamp'
p7
aF7.7769999504089355
aatp8
Rp9
.ccollections
OrderedDict
p0
((lp1
(lp2
S'state'
p3
aI0
aa(lp4
S'distance'
p5
aF80.99374008178711
aa(lp6
S'timestamp'
p7
aF7.7864580154418945
aatp8
Rp9
.ccollections
OrderedDict
p0
((lp1
(lp2
S'state'
p3
aI0
aa(lp4
S'distance'
p5
aF80.99374008178711
aa(lp6
S'timestamp'
p7
aF7.787246942520142
aatp8
Rp9
.ccollections
OrderedDict
p0
((lp1
(lp2
S'state'
p3
aI0
aa(lp4
S'distance'
p5
aF80.99374008178711
aa(lp6
S'timestamp'
p7
aF7.796630859375
aatp8
Rp9
.ccollections
OrderedDict
p0
((lp1
(lp2
S'state'
p3
aI0
aa(lp4
S'distance'
p5
aF80.99374008178711
aa(lp6
S'timestamp'
p7
aF7.797957897186279
aatp8
Rp9
.ccollections
OrderedDict
p0
((lp1
(lp2
S'state'
p3
aI0
aa(lp4
S'distance'
p5
aF80.99374008178711
aa(lp6
S'timestamp'
p7
aF7.806525945663452
aatp8
Rp9
.ccollections
OrderedDict
p0
((lp1
(lp2
S'state'
p3
aI0
aa(lp4
S'distance'
p5
aF80.99374008178711
aa(lp6
S'timestamp'
p7
aF7.807292938232422
aatp8
Rp9
.ccollections
OrderedDict
p0
((lp1
(lp2
S'state'
p3
aI0
aa(lp4
S'distance'
p5
aF80.99374008178711
aa(lp6
S'timestamp'
p7
aF7.817622900009155
aatp8
Rp9
.ccollections
OrderedDict
p0
((lp1
(lp2
S'state'
p3
aI0
aa(lp4
S'distance'
p5
aF80.99374008178711
aa(lp6
S'timestamp'
p7
aF7.8201470375061035
aatp8
Rp9
.ccollections
OrderedDict
p0
((lp1
(lp2
S'state'
p3
aI0
aa(lp4
S'distance'
p5
aF80.99374008178711
aa(lp6
S'timestamp'
p7
aF7.8265650272369385
aatp8
Rp9
.ccollections
OrderedDict
p0
((lp1
(lp2
S'state'
p3
aI0
aa(lp4
S'distance'
p5
aF80.99374008178711
aa(lp6
S'timestamp'
p7
aF7.827122926712036
aatp8
Rp9
.ccollections
OrderedDict
p0
((lp1
(lp2
S'state'
p3
aI0
aa(lp4
S'distance'
p5
aF80.99374008178711
aa(lp6
S'timestamp'
p7
aF7.836800813674927
aatp8
Rp9
.ccollections
OrderedDict
p0
((lp1
(lp2
S'state'
p3
aI0
aa(lp4
S'distance'
p5
aF80.99374008178711
aa(lp6
S'timestamp'
p7
aF7.838040828704834
aatp8
Rp9
.ccollections
OrderedDict
p0
((lp1
(lp2
S'state'
p3
aI0
aa(lp4
S'distance'
p5
aF80.99374008178711
aa(lp6
S'timestamp'
p7
aF7.846833944320679
aatp8
Rp9
.ccollections
OrderedDict
p0
((lp1
(lp2
S'state'
p3
aI0
aa(lp4
S'distance'
p5
aF80.99374008178711
aa(lp6
S'timestamp'
p7
aF7.846979856491089
aatp8
Rp9
.ccollections
OrderedDict
p0
((lp1
(lp2
S'state'
p3
aI0
aa(lp4
S'distance'
p5
aF80.99374008178711
aa(lp6
S'timestamp'
p7
aF7.856588840484619
aatp8
Rp9
.ccollections
OrderedDict
p0
((lp1
(lp2
S'state'
p3
aI0
aa(lp4
S'distance'
p5
aF80.99374008178711
aa(lp6
S'timestamp'
p7
aF7.8571460247039795
aatp8
Rp9
.ccollections
OrderedDict
p0
((lp1
(lp2
S'state'
p3
aI0
aa(lp4
S'distance'
p5
aF80.99374008178711
aa(lp6
S'timestamp'
p7
aF7.866658926010132
aatp8
Rp9
.ccollections
OrderedDict
p0
((lp1
(lp2
S'state'
p3
aI0
aa(lp4
S'distance'
p5
aF80.99374008178711
aa(lp6
S'timestamp'
p7
aF7.867295980453491
aatp8
Rp9
.ccollections
OrderedDict
p0
((lp1
(lp2
S'state'
p3
aI0
aa(lp4
S'distance'
p5
aF80.99374008178711
aa(lp6
S'timestamp'
p7
aF7.876668930053711
aatp8
Rp9
.ccollections
OrderedDict
p0
((lp1
(lp2
S'state'
p3
aI0
aa(lp4
S'distance'
p5
aF80.99374008178711
aa(lp6
S'timestamp'
p7
aF7.877471923828125
aatp8
Rp9
.ccollections
OrderedDict
p0
((lp1
(lp2
S'state'
p3
aI0
aa(lp4
S'distance'
p5
aF80.99374008178711
aa(lp6
S'timestamp'
p7
aF7.886781930923462
aatp8
Rp9
.ccollections
OrderedDict
p0
((lp1
(lp2
S'state'
p3
aI0
aa(lp4
S'distance'
p5
aF80.99374008178711
aa(lp6
S'timestamp'
p7
aF7.886932849884033
aatp8
Rp9
.ccollections
OrderedDict
p0
((lp1
(lp2
S'state'
p3
aI0
aa(lp4
S'distance'
p5
aF80.99374008178711
aa(lp6
S'timestamp'
p7
aF7.896564960479736
aatp8
Rp9
.ccollections
OrderedDict
p0
((lp1
(lp2
S'state'
p3
aI0
aa(lp4
S'distance'
p5
aF80.99374008178711
aa(lp6
S'timestamp'
p7
aF7.897194862365723
aatp8
Rp9
.ccollections
OrderedDict
p0
((lp1
(lp2
S'state'
p3
aI0
aa(lp4
S'distance'
p5
aF80.99374008178711
aa(lp6
S'timestamp'
p7
aF7.906838893890381
aatp8
Rp9
.ccollections
OrderedDict
p0
((lp1
(lp2
S'state'
p3
aI0
aa(lp4
S'distance'
p5
aF80.99374008178711
aa(lp6
S'timestamp'
p7
aF7.906970024108887
aatp8
Rp9
.ccollections
OrderedDict
p0
((lp1
(lp2
S'state'
p3
aI0
aa(lp4
S'distance'
p5
aF80.99374008178711
aa(lp6
S'timestamp'
p7
aF7.916344881057739
aatp8
Rp9
.ccollections
OrderedDict
p0
((lp1
(lp2
S'state'
p3
aI0
aa(lp4
S'distance'
p5
aF80.99374008178711
aa(lp6
S'timestamp'
p7
aF7.917057991027832
aatp8
Rp9
.ccollections
OrderedDict
p0
((lp1
(lp2
S'state'
p3
aI0
aa(lp4
S'distance'
p5
aF80.99374008178711
aa(lp6
S'timestamp'
p7
aF7.936722040176392
aatp8
Rp9
.ccollections
OrderedDict
p0
((lp1
(lp2
S'state'
p3
aI0
aa(lp4
S'distance'
p5
aF80.99374008178711
aa(lp6
S'timestamp'
p7
aF7.936813831329346
aatp8
Rp9
.ccollections
OrderedDict
p0
((lp1
(lp2
S'state'
p3
aI0
aa(lp4
S'distance'
p5
aF80.99374008178711
aa(lp6
S'timestamp'
p7
aF7.938243865966797
aatp8
Rp9
.ccollections
OrderedDict
p0
((lp1
(lp2
S'state'
p3
aI0
aa(lp4
S'distance'
p5
aF80.99374008178711
aa(lp6
S'timestamp'
p7
aF7.938345909118652
aatp8
Rp9
.ccollections
OrderedDict
p0
((lp1
(lp2
S'state'
p3
aI0
aa(lp4
S'distance'
p5
aF80.99374008178711
aa(lp6
S'timestamp'
p7
aF7.946513891220093
aatp8
Rp9
.ccollections
OrderedDict
p0
((lp1
(lp2
S'state'
p3
aI0
aa(lp4
S'distance'
p5
aF80.99374008178711
aa(lp6
S'timestamp'
p7
aF7.946949005126953
aatp8
Rp9
.ccollections
OrderedDict
p0
((lp1
(lp2
S'state'
p3
aI0
aa(lp4
S'distance'
p5
aF80.99374008178711
aa(lp6
S'timestamp'
p7
aF7.956521987915039
aatp8
Rp9
.ccollections
OrderedDict
p0
((lp1
(lp2
S'state'
p3
aI0
aa(lp4
S'distance'
p5
aF80.99374008178711
aa(lp6
S'timestamp'
p7
aF7.957087993621826
aatp8
Rp9
.ccollections
OrderedDict
p0
((lp1
(lp2
S'state'
p3
aI0
aa(lp4
S'distance'
p5
aF80.99374008178711
aa(lp6
S'timestamp'
p7
aF7.976438999176025
aatp8
Rp9
.ccollections
OrderedDict
p0
((lp1
(lp2
S'state'
p3
aI0
aa(lp4
S'distance'
p5
aF80.99374008178711
aa(lp6
S'timestamp'
p7
aF7.986802816390991
aatp8
Rp9
.ccollections
OrderedDict
p0
((lp1
(lp2
S'state'
p3
aI0
aa(lp4
S'distance'
p5
aF80.99374008178711
aa(lp6
S'timestamp'
p7
aF7.986886024475098
aatp8
Rp9
.ccollections
OrderedDict
p0
((lp1
(lp2
S'state'
p3
aI0
aa(lp4
S'distance'
p5
aF80.99374008178711
aa(lp6
S'timestamp'
p7
aF7.989187002182007
aatp8
Rp9
.ccollections
OrderedDict
p0
((lp1
(lp2
S'state'
p3
aI0
aa(lp4
S'distance'
p5
aF80.99374008178711
aa(lp6
S'timestamp'
p7
aF7.989255905151367
aatp8
Rp9
.ccollections
OrderedDict
p0
((lp1
(lp2
S'state'
p3
aI0
aa(lp4
S'distance'
p5
aF80.99374008178711
aa(lp6
S'timestamp'
p7
aF7.9966139793396
aatp8
Rp9
.ccollections
OrderedDict
p0
((lp1
(lp2
S'state'
p3
aI0
aa(lp4
S'distance'
p5
aF80.99374008178711
aa(lp6
S'timestamp'
p7
aF7.997016906738281
aatp8
Rp9
.ccollections
OrderedDict
p0
((lp1
(lp2
S'state'
p3
aI0
aa(lp4
S'distance'
p5
aF80.99374008178711
aa(lp6
S'timestamp'
p7
aF7.997939825057983
aatp8
Rp9
.ccollections
OrderedDict
p0
((lp1
(lp2
S'state'
p3
aI0
aa(lp4
S'distance'
p5
aF80.99374008178711
aa(lp6
S'timestamp'
p7
aF8.006531953811646
aatp8
Rp9
.ccollections
OrderedDict
p0
((lp1
(lp2
S'state'
p3
aI0
aa(lp4
S'distance'
p5
aF80.99374008178711
aa(lp6
S'timestamp'
p7
aF8.00694489479065
aatp8
Rp9
.