ccollections
OrderedDict
p0
((lp1
(lp2
S'state'
p3
aI0
aa(lp4
S'distance'
p5
aNaa(lp6
S'timestamp'
p7
aF0.008872032165527344
aatp8
Rp9
.ccollections
OrderedDict
p0
((lp1
(lp2
S'state'
p3
aI0
aa(lp4
S'distance'
p5
aNaa(lp6
S'timestamp'
p7
aF0.008952140808105469
aatp8
Rp9
.ccollections
OrderedDict
p0
((lp1
(lp2
S'state'
p3
aI0
aa(lp4
S'distance'
p5
aNaa(lp6
S'timestamp'
p7
aF0.024586200714111328
aatp8
Rp9
.ccollections
OrderedDict
p0
((lp1
(lp2
S'state'
p3
aI0
aa(lp4
S'distance'
p5
aNaa(lp6
S'timestamp'
p7
aF0.024912118911743164
aatp8
Rp9
.ccollections
OrderedDict
p0
((lp1
(lp2
S'state'
p3
aI0
aa(lp4
S'distance'
p5
aNaa(lp6
S'timestamp'
p7
aF0.02973198890686035
aatp8
Rp9
.ccollections
OrderedDict
p0
((lp1
(lp2
S'state'
p3
aI0
aa(lp4
S'distance'
p5
aNaa(lp6
S'timestamp'
p7
aF0.03001999855041504
aatp8
Rp9
.ccollections
OrderedDict
p0
((lp1
(lp2
S'state'
p3
aI0
aa(lp4
S'distance'
p5
aNaa(lp6
S'timestamp'
p7
aF0.04693317413330078
aatp8
Rp9
.ccollections
OrderedDict
p0
((lp1
(lp2
S'state'
p3
aI0
aa(lp4
S'distance'
p5
aNaa(lp6
S'timestamp'
p7
aF0.04715299606323242
aatp8
Rp9
.ccollections
OrderedDict
p0
((lp1
(lp2
S'state'
p3
aI0
aa(lp4
S'distance'
p5
aNaa(lp6
S'timestamp'
p7
aF0.0488581657409668
aatp8
Rp9
.ccollections
OrderedDict
p0
((lp1
(lp2
S'state'
p3
aI0
aa(lp4
S'distance'
p5
aNaa(lp6
S'timestamp'
p7
aF0.04901719093322754
aatp8
Rp9
.ccollections
OrderedDict
p0
((lp1
(lp2
S'state'
p3
aI0
aa(lp4
S'distance'
p5
aNaa(lp6
S'timestamp'
p7
aF0.058338165283203125
aatp8
Rp9
.ccollections
OrderedDict
p0
((lp1
(lp2
S'state'
p3
aI0
aa(lp4
S'distance'
p5
aNaa(lp6
S'timestamp'
p7
aF0.05854606628417969
aatp8
Rp9
.ccollections
OrderedDict
p0
((lp1
(lp2
S'state'
p3
aI0
aa(lp4
S'distance'
p5
aNaa(lp6
S'timestamp'
p7
aF0.06806015968322754
aatp8
Rp9
.ccollections
OrderedDict
p0
((lp1
(lp2
S'state'
p3
aI0
aa(lp4
S'distance'
p5
aNaa(lp6
S'timestamp'
p7
aF0.06847310066223145
aatp8
Rp9
.ccollections
OrderedDict
p0
((lp1
(lp2
S'state'
p3
aI0
aa(lp4
S'distance'
p5
aNaa(lp6
S'timestamp'
p7
aF0.07834911346435547
aatp8
Rp9
.ccollections
OrderedDict
p0
((lp1
(lp2
S'state'
p3
aI0
aa(lp4
S'distance'
p5
aNaa(lp6
S'timestamp'
p7
aF0.07842302322387695
aatp8
Rp9
.ccollections
OrderedDict
p0
((lp1
(lp2
S'state'
p3
aI0
aa(lp4
S'distance'
p5
aNaa(lp6
S'timestamp'
p7
aF0.09965801239013672
aatp8
Rp9
.ccollections
OrderedDict
p0
((lp1
(lp2
S'state'
p3
aI0
aa(lp4
S'distance'
p5
aNaa(lp6
S'timestamp'
p7
aF0.1003270149230957
aatp8
Rp9
.ccollections
OrderedDict
p0
((lp1
(lp2
S'state'
p3
aI0
aa(lp4
S'distance'
p5
aNaa(lp6
S'timestamp'
p7
aF0.10131406784057617
aatp8
Rp9
.ccollections
OrderedDict
p0
((lp1
(lp2
S'state'
p3
aI0
aa(lp4
S'distance'
p5
aNaa(lp6
S'timestamp'
p7
aF0.10195612907409668
aatp8
Rp9
.ccollections
OrderedDict
p0
((lp1
(lp2
S'state'
p3
aI0
aa(lp4
S'distance'
p5
aNaa(lp6
S'timestamp'
p7
aF0.10953617095947266
aatp8
Rp9
.ccollections
OrderedDict
p0
((lp1
(lp2
S'state'
p3
aI0
aa(lp4
S'distance'
p5
aNaa(lp6
S'timestamp'
p7
aF0.10989499092102051
aatp8
Rp9
.ccollections
OrderedDict
p0
((lp1
(lp2
S'state'
p3
aI0
aa(lp4
S'distance'
p5
aNaa(lp6
S'timestamp'
p7
aF0.11827898025512695
aatp8
Rp9
.ccollections
OrderedDict
p0
((lp1
(lp2
S'state'
p3
aI0
aa(lp4
S'distance'
p5
aNaa(lp6
S'timestamp'
p7
aF0.11896514892578125
aatp8
Rp9
.ccollections
OrderedDict
p0
((lp1
(lp2
S'state'
p3
aI0
aa(lp4
S'distance'
p5
aNaa(lp6
S'timestamp'
p7
aF0.1281740665435791
aatp8
Rp9
.ccollections
OrderedDict
p0
((lp1
(lp2
S'state'
p3
aI0
aa(lp4
S'distance'
p5
aNaa(lp6
S'timestamp'
p7
aF0.12859416007995605
aatp8
Rp9
.ccollections
OrderedDict
p0
((lp1
(lp2
S'state'
p3
aI0
aa(lp4
S'distance'
p5
aNaa(lp6
S'timestamp'
p7
aF0.1377241611480713
aatp8
Rp9
.ccollections
OrderedDict
p0
((lp1
(lp2
S'state'
p3
aI0
aa(lp4
S'distance'
p5
aNaa(lp6
S'timestamp'
p7
aF0.13827800750732422
aatp8
Rp9
.ccollections
OrderedDict
p0
((lp1
(lp2
S'state'
p3
aI0
aa(lp4
S'distance'
p5
aNaa(lp6
S'timestamp'
p7
aF0.14754605293273926
aatp8
Rp9
.ccollections
OrderedDict
p0
((lp1
(lp2
S'state'
p3
aI0
aa(lp4
S'distance'
p5
aNaa(lp6
S'timestamp'
p7
aF0.1483321189880371
aatp8
Rp9
.ccollections
OrderedDict
p0
((lp1
(lp2
S'state'
p3
aI0
aa(lp4
S'distance'
p5
aNaa(lp6
S'timestamp'
p7
aF0.15758800506591797
aatp8
Rp9
.ccollections
OrderedDict
p0
((lp1
(lp2
S'state'
p3
aI0
aa(lp4
S'distance'
p5
aNaa(lp6
S'timestamp'
p7
aF0.158217191696167
aatp8
Rp9
.ccollections
OrderedDict
p0
((lp1
(lp2
S'state'
p3
aI0
aa(lp4
S'distance'
p5
aNaa(lp6
S'timestamp'
p7
aF0.16782212257385254
aatp8
Rp9
.ccollections
OrderedDict
p0
((lp1
(lp2
S'state'
p3
aI0
aa(lp4
S'distance'
p5
aNaa(lp6
S'timestamp'
p7
aF0.16833209991455078
aatp8
Rp9
.ccollections
OrderedDict
p0
((lp1
(lp2
S'state'
p3
aI0
aa(lp4
S'distance'
p5
aNaa(lp6
S'timestamp'
p7
aF0.17786717414855957
aatp8
Rp9
.ccollections
OrderedDict
p0
((lp1
(lp2
S'state'
p3
aI0
aa(lp4
S'distance'
p5
aNaa(lp6
S'timestamp'
p7
aF0.17828106880187988
aatp8
Rp9
.ccollections
OrderedDict
p0
((lp1
(lp2
S'state'
p3
aI0
aa(lp4
S'distance'
p5
aNaa(lp6
S'timestamp'
p7
aF0.18770217895507812
aatp8
Rp9
.ccollections
OrderedDict
p0
((lp1
(lp2
S'state'
p3
aI0
aa(lp4
S'distance'
p5
aNaa(lp6
S'timestamp'
p7
aF0.18829011917114258
aatp8
Rp9
.ccollections
OrderedDict
p0
((lp1
(lp2
S'state'
p3
aI0
aa(lp4
S'distance'
p5
aNaa(lp6
S'timestamp'
p7
aF0.19773507118225098
aatp8
Rp9
.ccollections
OrderedDict
p0
((lp1
(lp2
S'state'
p3
aI0
aa(lp4
S'distance'
p5
aNaa(lp6
S'timestamp'
p7
aF0.1981830596923828
aatp8
Rp9
.ccollections
OrderedDict
p0
((lp1
(lp2
S'state'
p3
aI0
aa(lp4
S'distance'
p5
aNaa(lp6
S'timestamp'
p7
aF0.21801304817199707
aatp8
Rp9
.ccollections
OrderedDict
p0
((lp1
(lp2
S'state'
p3
aI0
aa(lp4
S'distance'
p5
aNaa(lp6
S'timestamp'
p7
aF0.21813011169433594
aatp8
Rp9
.ccollections
OrderedDict
p0
((lp1
(lp2
S'state'
p3
aI0
aa(lp4
S'distance'
p5
aNaa(lp6
S'timestamp'
p7
aF0.21985316276550293
aatp8
Rp9
.ccollections
OrderedDict
p0
((lp1
(lp2
S'state'
p3
aI0
aa(lp4
S'distance'
p5
aNaa(lp6
S'timestamp'
p7
aF0.22170400619506836
aatp8
Rp9
.ccollections
OrderedDict
p0
((lp1
(lp2
S'state'
p3
aI0
aa(lp4
S'distance'
p5
aNaa(lp6
S'timestamp'
p7
aF0.22816920280456543
aatp8
Rp9
.ccollections
OrderedDict
p0
((lp1
(lp2
S'state'
p3
aI0
aa(lp4
S'distance'
p5
aNaa(lp6
S'timestamp'
p7
aF0.2282881736755371
aatp8
Rp9
.ccollections
OrderedDict
p0
((lp1
(lp2
S'state'
p3
aI0
aa(lp4
S'distance'
p5
aNaa(lp6
S'timestamp'
p7
aF0.23776602745056152
aatp8
Rp9
.ccollections
OrderedDict
p0
((lp1
(lp2
S'state'
p3
aI0
aa(lp4
S'distance'
p5
aNaa(lp6
S'timestamp'
p7
aF0.23819208145141602
aatp8
Rp9
.ccollections
OrderedDict
p0
((lp1
(lp2
S'state'
p3
aI0
aa(lp4
S'distance'
p5
aNaa(lp6
S'timestamp'
p7
aF0.2580101490020752
aatp8
Rp9
.ccollections
OrderedDict
p0
((lp1
(lp2
S'state'
p3
aI0
aa(lp4
S'distance'
p5
aNaa(lp6
S'timestamp'
p7
aF0.25826001167297363
aatp8
Rp9
.ccollections
OrderedDict
p0
((lp1
(lp2
S'state'
p3
aI0
aa(lp4
S'distance'
p5
aNaa(lp6
S'timestamp'
p7
aF0.25937318801879883
aatp8
Rp9
.ccollections
OrderedDict
p0
((lp1
(lp2
S'state'
p3
aI0
aa(lp4
S'distance'
p5
aNaa(lp6
S'timestamp'
p7
aF0.26062512397766113
aatp8
Rp9
.ccollections
OrderedDict
p0
((lp1
(lp2
S'state'
p3
aI0
aa(lp4
S'distance'
p5
aNaa(lp6
S'timestamp'
p7
aF0.26814818382263184
aatp8
Rp9
.ccollections
OrderedDict
p0
((lp1
(lp2
S'state'
p3
aI0
aa(lp4
S'distance'
p5
aNaa(lp6
S'timestamp'
p7
aF0.2682771682739258
aatp8
Rp9
.ccollections
OrderedDict
p0
((lp1
(lp2
S'state'
p3
aI0
aa(lp4
S'distance'
p5
aNaa(lp6
S'timestamp'
p7
aF0.2785830497741699
aatp8
Rp9
.ccollections
OrderedDict
p0
((lp1
(lp2
S'state'
p3
aI0
aa(lp4
S'distance'
p5
aNaa(lp6
S'timestamp'
p7
aF0.2786681652069092
aatp8
Rp9
.ccollections
OrderedDict
p0
((lp1
(lp2
S'state'
p3
aI0
aa(lp4
S'distance'
p5
aNaa(lp6
S'timestamp'
p7
aF0.2885591983795166
aatp8
Rp9
.ccollections
OrderedDict
p0
((lp1
(lp2
S'state'
p3
aI0
aa(lp4
S'distance'
p5
aNaa(lp6
S'timestamp'
p7
aF0.2888190746307373
aatp8
Rp9
.ccollections
OrderedDict
p0
((lp1
(lp2
S'state'
p3
aI0
aa(lp4
S'distance'
p5
aNaa(lp6
S'timestamp'
p7
aF0.3000152111053467
aatp8
Rp9
.ccollections
OrderedDict
p0
((lp1
(lp2
S'state'
p3
aI0
aa(lp4
S'distance'
p5
aNaa(lp6
S'timestamp'
p7
aF0.30069899559020996
aatp8
Rp9
.ccollections
OrderedDict
p0
((lp1
(lp2
S'state'
p3
aI0
aa(lp4
S'distance'
p5
aNaa(lp6
S'timestamp'
p7
aF0.3081381320953369
aatp8
Rp9
.ccollections
OrderedDict
p0
((lp1
(lp2
S'state'
p3
aI0
aa(lp4
S'distance'
p5
aNaa(lp6
S'timestamp'
p7
aF0.3085360527038574
aatp8
Rp9
.ccollections
OrderedDict
p0
((lp1
(lp2
S'state'
p3
aI0
aa(lp4
S'distance'
p5
aNaa(lp6
S'timestamp'
p7
aF0.3176860809326172
aatp8
Rp9
.ccollections
OrderedDict
p0
((lp1
(lp2
S'state'
p3
aI0
aa(lp4
S'distance'
p5
aNaa(lp6
S'timestamp'
p7
aF0.3187220096588135
aatp8
Rp9
.ccollections
OrderedDict
p0
((lp1
(lp2
S'state'
p3
aI0
aa(lp4
S'distance'
p5
aNaa(lp6
S'timestamp'
p7
aF0.3276371955871582
aatp8
Rp9
.ccollections
OrderedDict
p0
((lp1
(lp2
S'state'
p3
aI0
aa(lp4
S'distance'
p5
aNaa(lp6
S'timestamp'
p7
aF0.32815098762512207
aatp8
Rp9
.ccollections
OrderedDict
p0
((lp1
(lp2
S'state'
p3
aI0
aa(lp4
S'distance'
p5
aNaa(lp6
S'timestamp'
p7
aF0.33814001083374023
aatp8
Rp9
.ccollections
OrderedDict
p0
((lp1
(lp2
S'state'
p3
aI0
aa(lp4
S'distance'
p5
aNaa(lp6
S'timestamp'
p7
aF0.3382132053375244
aatp8
Rp9
.ccollections
OrderedDict
p0
((lp1
(lp2
S'state'
p3
aI0
aa(lp4
S'distance'
p5
aNaa(lp6
S'timestamp'
p7
aF0.34767603874206543
aatp8
Rp9
.ccollections
OrderedDict
p0
((lp1
(lp2
S'state'
p3
aI0
aa(lp4
S'distance'
p5
aNaa(lp6
S'timestamp'
p7
aF0.3484621047973633
aatp8
Rp9
.ccollections
OrderedDict
p0
((lp1
(lp2
S'state'
p3
aI0
aa(lp4
S'distance'
p5
aNaa(lp6
S'timestamp'
p7
aF0.3576231002807617
aatp8
Rp9
.ccollections
OrderedDict
p0
((lp1
(lp2
S'state'
p3
aI0
aa(lp4
S'distance'
p5
aNaa(lp6
S'timestamp'
p7
aF0.3582282066345215
aatp8
Rp9
.ccollections
OrderedDict
p0
((lp1
(lp2
S'state'
p3
aI0
aa(lp4
S'distance'
p5
aNaa(lp6
S'timestamp'
p7
aF0.36790919303894043
aatp8
Rp9
.ccollections
OrderedDict
p0
((lp1
(lp2
S'state'
p3
aI0
aa(lp4
S'distance'
p5
aNaa(lp6
S'timestamp'
p7
aF0.36870718002319336
aatp8
Rp9
.ccollections
OrderedDict
p0
((lp1
(lp2
S'state'
p3
aI0
aa(lp4
S'distance'
p5
aNaa(lp6
S'timestamp'
p7
aF0.37808799743652344
aatp8
Rp9
.ccollections
OrderedDict
p0
((lp1
(lp2
S'state'
p3
aI0
aa(lp4
S'distance'
p5
aNaa(lp6
S'timestamp'
p7
aF0.3782041072845459
aatp8
Rp9
.ccollections
OrderedDict
p0
((lp1
(lp2
S'state'
p3
aI0
aa(lp4
S'distance'
p5
aNaa(lp6
S'timestamp'
p7
aF0.3876800537109375
aatp8
Rp9
.ccollections
OrderedDict
p0
((lp1
(lp2
S'state'
p3
aI0
aa(lp4
S'distance'
p5
aNaa(lp6
S'timestamp'
p7
aF0.3884410858154297
aatp8
Rp9
.ccollections
OrderedDict
p0
((lp1
(lp2
S'state'
p3
aI0
aa(lp4
S'distance'
p5
aNaa(lp6
S'timestamp'
p7
aF0.4078090190887451
aatp8
Rp9
.ccollections
OrderedDict
p0
((lp1
(lp2
S'state'
p3
aI0
aa(lp4
S'distance'
p5
aNaa(lp6
S'timestamp'
p7
aF0.4081571102142334
aatp8
Rp9
.ccollections
OrderedDict
p0
((lp1
(lp2
S'state'
p3
aI0
aa(lp4
S'distance'
p5
aNaa(lp6
S'timestamp'
p7
aF0.40926098823547363
aatp8
Rp9
.ccollections
OrderedDict
p0
((lp1
(lp2
S'state'
p3
aI0
aa(lp4
S'distance'
p5
aNaa(lp6
S'timestamp'
p7
aF0.4105989933013916
aatp8
Rp9
.ccollections
OrderedDict
p0
((lp1
(lp2
S'state'
p3
aI0
aa(lp4
S'distance'
p5
aNaa(lp6
S'timestamp'
p7
aF0.41840219497680664
aatp8
Rp9
.ccollections
OrderedDict
p0
((lp1
(lp2
S'state'
p3
aI0
aa(lp4
S'distance'
p5
aNaa(lp6
S'timestamp'
p7
aF0.4196171760559082
aatp8
Rp9
.ccollections
OrderedDict
p0
((lp1
(lp2
S'state'
p3
aI0
aa(lp4
S'distance'
p5
aNaa(lp6
S'timestamp'
p7
aF0.4276130199432373
aatp8
Rp9
.ccollections
OrderedDict
p0
((lp1
(lp2
S'state'
p3
aI0
aa(lp4
S'distance'
p5
aNaa(lp6
S'timestamp'
p7
aF0.428987979888916
aatp8
Rp9
.ccollections
OrderedDict
p0
((lp1
(lp2
S'state'
p3
aI0
aa(lp4
S'distance'
p5
aNaa(lp6
S'timestamp'
p7
aF0.43799901008605957
aatp8
Rp9
.ccollections
OrderedDict
p0
((lp1
(lp2
S'state'
p3
aI0
aa(lp4
S'distance'
p5
aNaa(lp6
S'timestamp'
p7
aF0.4382340908050537
aatp8
Rp9
.ccollections
OrderedDict
p0
((lp1
(lp2
S'state'
p3
aI0
aa(lp4
S'distance'
p5
aNaa(lp6
S'timestamp'
p7
aF0.44805216789245605
aatp8
Rp9
.ccollections
OrderedDict
p0
((lp1
(lp2
S'state'
p3
aI0
aa(lp4
S'distance'
p5
aNaa(lp6
S'timestamp'
p7
aF0.44815897941589355
aatp8
Rp9
.ccollections
OrderedDict
p0
((lp1
(lp2
S'state'
p3
aI0
aa(lp4
S'distance'
p5
aNaa(lp6
S'timestamp'
p7
aF0.4580061435699463
aatp8
Rp9
.ccollections
OrderedDict
p0
((lp1
(lp2
S'state'
p3
aI0
aa(lp4
S'distance'
p5
aNaa(lp6
S'timestamp'
p7
aF0.4584691524505615
aatp8
Rp9
.ccollections
OrderedDict
p0
((lp1
(lp2
S'state'
p3
aI0
aa(lp4
S'distance'
p5
aNaa(lp6
S'timestamp'
p7
aF0.4685029983520508
aatp8
Rp9
.ccollections
OrderedDict
p0
((lp1
(lp2
S'state'
p3
aI0
aa(lp4
S'distance'
p5
aNaa(lp6
S'timestamp'
p7
aF0.4686582088470459
aatp8
Rp9
.ccollections
OrderedDict
p0
((lp1
(lp2
S'state'
p3
aI0
aa(lp4
S'distance'
p5
aNaa(lp6
S'timestamp'
p7
aF0.47850704193115234
aatp8
Rp9
.ccollections
OrderedDict
p0
((lp1
(lp2
S'state'
p3
aI0
aa(lp4
S'distance'
p5
aNaa(lp6
S'timestamp'
p7
aF0.47869420051574707
aatp8
Rp9
.ccollections
OrderedDict
p0
((lp1
(lp2
S'state'
p3
aI0
aa(lp4
S'distance'
p5
aNaa(lp6
S'timestamp'
p7
aF0.48879408836364746
aatp8
Rp9
.ccollections
OrderedDict
p0
((lp1
(lp2
S'state'
p3
aI0
aa(lp4
S'distance'
p5
aNaa(lp6
S'timestamp'
p7
aF0.48896312713623047
aatp8
Rp9
.ccollections
OrderedDict
p0
((lp1
(lp2
S'state'
p3
aI0
aa(lp4
S'distance'
p5
aNaa(lp6
S'timestamp'
p7
aF0.4980781078338623
aatp8
Rp9
.ccollections
OrderedDict
p0
((lp1
(lp2
S'state'
p3
aI0
aa(lp4
S'distance'
p5
aNaa(lp6
S'timestamp'
p7
aF0.4986231327056885
aatp8
Rp9
.ccollections
OrderedDict
p0
((lp1
(lp2
S'state'
p3
aI0
aa(lp4
S'distance'
p5
aNaa(lp6
S'timestamp'
p7
aF0.5076911449432373
aatp8
Rp9
.ccollections
OrderedDict
p0
((lp1
(lp2
S'state'
p3
aI0
aa(lp4
S'distance'
p5
aNaa(lp6
S'timestamp'
p7
aF0.5082700252532959
aatp8
Rp9
.ccollections
OrderedDict
p0
((lp1
(lp2
S'state'
p3
aI0
aa(lp4
S'distance'
p5
aNaa(lp6
S'timestamp'
p7
aF0.5179409980773926
aatp8
Rp9
.ccollections
OrderedDict
p0
((lp1
(lp2
S'state'
p3
aI0
aa(lp4
S'distance'
p5
aNaa(lp6
S'timestamp'
p7
aF0.5180950164794922
aatp8
Rp9
.ccollections
OrderedDict
p0
((lp1
(lp2
S'state'
p3
aI0
aa(lp4
S'distance'
p5
aNaa(lp6
S'timestamp'
p7
aF0.5286121368408203
aatp8
Rp9
.ccollections
OrderedDict
p0
((lp1
(lp2
S'state'
p3
aI0
aa(lp4
S'distance'
p5
aNaa(lp6
S'timestamp'
p7
aF0.5290341377258301
aatp8
Rp9
.ccollections
OrderedDict
p0
((lp1
(lp2
S'state'
p3
aI0
aa(lp4
S'distance'
p5
aNaa(lp6
S'timestamp'
p7
aF0.5384941101074219
aatp8
Rp9
.ccollections
OrderedDict
p0
((lp1
(lp2
S'state'
p3
aI0
aa(lp4
S'distance'
p5
aNaa(lp6
S'timestamp'
p7
aF0.5386550426483154
aatp8
Rp9
.ccollections
OrderedDict
p0
((lp1
(lp2
S'state'
p3
aI0
aa(lp4
S'distance'
p5
aNaa(lp6
S'timestamp'
p7
aF0.5479171276092529
aatp8
Rp9
.ccollections
OrderedDict
p0
((lp1
(lp2
S'state'
p3
aI0
aa(lp4
S'distance'
p5
aNaa(lp6
S'timestamp'
p7
aF0.5488741397857666
aatp8
Rp9
.ccollections
OrderedDict
p0
((lp1
(lp2
S'state'
p3
aI0
aa(lp4
S'distance'
p5
aNaa(lp6
S'timestamp'
p7
aF0.5581490993499756
aatp8
Rp9
.ccollections
OrderedDict
p0
((lp1
(lp2
S'state'
p3
aI0
aa(lp4
S'distance'
p5
aNaa(lp6
S'timestamp'
p7
aF0.5582270622253418
aatp8
Rp9
.ccollections
OrderedDict
p0
((lp1
(lp2
S'state'
p3
aI0
aa(lp4
S'distance'
p5
aNaa(lp6
S'timestamp'
p7
aF0.5682330131530762
aatp8
Rp9
.ccollections
OrderedDict
p0
((lp1
(lp2
S'state'
p3
aI0
aa(lp4
S'distance'
p5
aNaa(lp6
S'timestamp'
p7
aF0.5683090686798096
aatp8
Rp9
.ccollections
OrderedDict
p0
((lp1
(lp2
S'state'
p3
aI0
aa(lp4
S'distance'
p5
aNaa(lp6
S'timestamp'
p7
aF0.5781350135803223
aatp8
Rp9
.ccollections
OrderedDict
p0
((lp1
(lp2
S'state'
p3
aI0
aa(lp4
S'distance'
p5
aNaa(lp6
S'timestamp'
p7
aF0.5783321857452393
aatp8
Rp9
.ccollections
OrderedDict
p0
((lp1
(lp2
S'state'
p3
aI0
aa(lp4
S'distance'
p5
aNaa(lp6
S'timestamp'
p7
aF0.5877161026000977
aatp8
Rp9
.ccollections
OrderedDict
p0
((lp1
(lp2
S'state'
p3
aI0
aa(lp4
S'distance'
p5
aNaa(lp6
S'timestamp'
p7
aF0.5883350372314453
aatp8
Rp9
.ccollections
OrderedDict
p0
((lp1
(lp2
S'state'
p3
aI0
aa(lp4
S'distance'
p5
aNaa(lp6
S'timestamp'
p7
aF0.5988631248474121
aatp8
Rp9
.ccollections
OrderedDict
p0
((lp1
(lp2
S'state'
p3
aI0
aa(lp4
S'distance'
p5
aNaa(lp6
S'timestamp'
p7
aF0.5994939804077148
aatp8
Rp9
.ccollections
OrderedDict
p0
((lp1
(lp2
S'state'
p3
aI0
aa(lp4
S'distance'
p5
aNaa(lp6
S'timestamp'
p7
aF0.6089332103729248
aatp8
Rp9
.ccollections
OrderedDict
p0
((lp1
(lp2
S'state'
p3
aI0
aa(lp4
S'distance'
p5
aNaa(lp6
S'timestamp'
p7
aF0.6099979877471924
aatp8
Rp9
.ccollections
OrderedDict
p0
((lp1
(lp2
S'state'
p3
aI0
aa(lp4
S'distance'
p5
aNaa(lp6
S'timestamp'
p7
aF0.618894100189209
aatp8
Rp9
.ccollections
OrderedDict
p0
((lp1
(lp2
S'state'
p3
aI0
aa(lp4
S'distance'
p5
aNaa(lp6
S'timestamp'
p7
aF0.6191990375518799
aatp8
Rp9
.ccollections
OrderedDict
p0
((lp1
(lp2
S'state'
p3
aI0
aa(lp4
S'distance'
p5
aNaa(lp6
S'timestamp'
p7
aF0.628756046295166
aatp8
Rp9
.ccollections
OrderedDict
p0
((lp1
(lp2
S'state'
p3
aI0
aa(lp4
S'distance'
p5
aNaa(lp6
S'timestamp'
p7
aF0.6293320655822754
aatp8
Rp9
.ccollections
OrderedDict
p0
((lp1
(lp2
S'state'
p3
aI0
aa(lp4
S'distance'
p5
aNaa(lp6
S'timestamp'
p7
aF0.6478140354156494
aatp8
Rp9
.ccollections
OrderedDict
p0
((lp1
(lp2
S'state'
p3
aI0
aa(lp4
S'distance'
p5
aNaa(lp6
S'timestamp'
p7
aF0.6487600803375244
aatp8
Rp9
.ccollections
OrderedDict
p0
((lp1
(lp2
S'state'
p3
aI0
aa(lp4
S'distance'
p5
aNaa(lp6
S'timestamp'
p7
aF0.6490600109100342
aatp8
Rp9
.ccollections
OrderedDict
p0
((lp1
(lp2
S'state'
p3
aI0
aa(lp4
S'distance'
p5
aNaa(lp6
S'timestamp'
p7
aF0.64935302734375
aatp8
Rp9
.ccollections
OrderedDict
p0
((lp1
(lp2
S'state'
p3
aI0
aa(lp4
S'distance'
p5
aNaa(lp6
S'timestamp'
p7
aF0.6585001945495605
aatp8
Rp9
.ccollections
OrderedDict
p0
((lp1
(lp2
S'state'
p3
aI0
aa(lp4
S'distance'
p5
aNaa(lp6
S'timestamp'
p7
aF0.6589620113372803
aatp8
Rp9
.ccollections
OrderedDict
p0
((lp1
(lp2
S'state'
p3
aI0
aa(lp4
S'distance'
p5
aNaa(lp6
S'timestamp'
p7
aF0.668938159942627
aatp8
Rp9
.ccollections
OrderedDict
p0
((lp1
(lp2
S'state'
p3
aI0
aa(lp4
S'distance'
p5
aNaa(lp6
S'timestamp'
p7
aF0.6690351963043213
aatp8
Rp9
.ccollections
OrderedDict
p0
((lp1
(lp2
S'state'
p3
aI0
aa(lp4
S'distance'
p5
aNaa(lp6
S'timestamp'
p7
aF0.6776821613311768
aatp8
Rp9
.ccollections
OrderedDict
p0
((lp1
(lp2
S'state'
p3
aI0
aa(lp4
S'distance'
p5
aNaa(lp6
S'timestamp'
p7
aF0.67842698097229
aatp8
Rp9
.ccollections
OrderedDict
p0
((lp1
(lp2
S'state'
p3
aI0
aa(lp4
S'distance'
p5
aNaa(lp6
S'timestamp'
p7
aF0.6876881122589111
aatp8
Rp9
.ccollections
OrderedDict
p0
((lp1
(lp2
S'state'
p3
aI0
aa(lp4
S'distance'
p5
aNaa(lp6
S'timestamp'
p7
aF0.6884000301361084
aatp8
Rp9
.ccollections
OrderedDict
p0
((lp1
(lp2
S'state'
p3
aI0
aa(lp4
S'distance'
p5
aNaa(lp6
S'timestamp'
p7
aF0.697641134262085
aatp8
Rp9
.ccollections
OrderedDict
p0
((lp1
(lp2
S'state'
p3
aI0
aa(lp4
S'distance'
p5
aNaa(lp6
S'timestamp'
p7
aF0.6981461048126221
aatp8
Rp9
.ccollections
OrderedDict
p0
((lp1
(lp2
S'state'
p3
aI0
aa(lp4
S'distance'
p5
aNaa(lp6
S'timestamp'
p7
aF0.7080380916595459
aatp8
Rp9
.ccollections
OrderedDict
p0
((lp1
(lp2
S'state'
p3
aI0
aa(lp4
S'distance'
p5
aNaa(lp6
S'timestamp'
p7
aF0.7081701755523682
aatp8
Rp9
.ccollections
OrderedDict
p0
((lp1
(lp2
S'state'
p3
aI0
aa(lp4
S'distance'
p5
aNaa(lp6
S'timestamp'
p7
aF0.718101978302002
aatp8
Rp9
.ccollections
OrderedDict
p0
((lp1
(lp2
S'state'
p3
aI0
aa(lp4
S'distance'
p5
aNaa(lp6
S'timestamp'
p7
aF0.718379020690918
aatp8
Rp9
.ccollections
OrderedDict
p0
((lp1
(lp2
S'state'
p3
aI0
aa(lp4
S'distance'
p5
aNaa(lp6
S'timestamp'
p7
aF0.7275791168212891
aatp8
Rp9
.ccollections
OrderedDict
p0
((lp1
(lp2
S'state'
p3
aI0
aa(lp4
S'distance'
p5
aNaa(lp6
S'timestamp'
p7
aF0.7284891605377197
aatp8
Rp9
.ccollections
OrderedDict
p0
((lp1
(lp2
S'state'
p3
aI0
aa(lp4
S'distance'
p5
aNaa(lp6
S'timestamp'
p7
aF0.7425131797790527
aatp8
Rp9
.ccollections
OrderedDict
p0
((lp1
(lp2
S'state'
p3
aI0
aa(lp4
S'distance'
p5
aNaa(lp6
S'timestamp'
p7
aF0.7434790134429932
aatp8
Rp9
.ccollections
OrderedDict
p0
((lp1
(lp2
S'state'
p3
aI0
aa(lp4
S'distance'
p5
aNaa(lp6
S'timestamp'
p7
aF0.7476880550384521
aatp8
Rp9
.ccollections
OrderedDict
p0
((lp1
(lp2
S'state'
p3
aI0
aa(lp4
S'distance'
p5
aNaa(lp6
S'timestamp'
p7
aF0.7481741905212402
aatp8
Rp9
.ccollections
OrderedDict
p0
((lp1
(lp2
S'state'
p3
aI0
aa(lp4
S'distance'
p5
aNaa(lp6
S'timestamp'
p7
aF0.7588160037994385
aatp8
Rp9
.ccollections
OrderedDict
p0
((lp1
(lp2
S'state'
p3
aI0
aa(lp4
S'distance'
p5
aNaa(lp6
S'timestamp'
p7
aF0.7588870525360107
aatp8
Rp9
.ccollections
OrderedDict
p0
((lp1
(lp2
S'state'
p3
aI0
aa(lp4
S'distance'
p5
aNaa(lp6
S'timestamp'
p7
aF0.7681469917297363
aatp8
Rp9
.ccollections
OrderedDict
p0
((lp1
(lp2
S'state'
p3
aI0
aa(lp4
S'distance'
p5
aNaa(lp6
S'timestamp'
p7
aF0.7682290077209473
aatp8
Rp9
.ccollections
OrderedDict
p0
((lp1
(lp2
S'state'
p3
aI0
aa(lp4
S'distance'
p5
aNaa(lp6
S'timestamp'
p7
aF0.7780141830444336
aatp8
Rp9
.ccollections
OrderedDict
p0
((lp1
(lp2
S'state'
p3
aI0
aa(lp4
S'distance'
p5
aNaa(lp6
S'timestamp'
p7
aF0.7786281108856201
aatp8
Rp9
.ccollections
OrderedDict
p0
((lp1
(lp2
S'state'
p3
aI0
aa(lp4
S'distance'
p5
aNaa(lp6
S'timestamp'
p7
aF0.7884471416473389
aatp8
Rp9
.ccollections
OrderedDict
p0
((lp1
(lp2
S'state'
p3
aI0
aa(lp4
S'distance'
p5
aNaa(lp6
S'timestamp'
p7
aF0.788621187210083
aatp8
Rp9
.ccollections
OrderedDict
p0
((lp1
(lp2
S'state'
p3
aI0
aa(lp4
S'distance'
p5
aNaa(lp6
S'timestamp'
p7
aF0.797929048538208
aatp8
Rp9
.ccollections
OrderedDict
p0
((lp1
(lp2
S'state'
p3
aI0
aa(lp4
S'distance'
p5
aNaa(lp6
S'timestamp'
p7
aF0.7984840869903564
aatp8
Rp9
.ccollections
OrderedDict
p0
((lp1
(lp2
S'state'
p3
aI0
aa(lp4
S'distance'
p5
aNaa(lp6
S'timestamp'
p7
aF0.808568000793457
aatp8
Rp9
.ccollections
OrderedDict
p0
((lp1
(lp2
S'state'
p3
aI0
aa(lp4
S'distance'
p5
aNaa(lp6
S'timestamp'
p7
aF0.8086810111999512
aatp8
Rp9
.ccollections
OrderedDict
p0
((lp1
(lp2
S'state'
p3
aI0
aa(lp4
S'distance'
p5
aNaa(lp6
S'timestamp'
p7
aF0.8282961845397949
aatp8
Rp9
.ccollections
OrderedDict
p0
((lp1
(lp2
S'state'
p3
aI0
aa(lp4
S'distance'
p5
aNaa(lp6
S'timestamp'
p7
aF0.8286070823669434
aatp8
Rp9
.ccollections
OrderedDict
p0
((lp1
(lp2
S'state'
p3
aI0
aa(lp4
S'distance'
p5
aNaa(lp6
S'timestamp'
p7
aF0.8297309875488281
aatp8
Rp9
.ccollections
OrderedDict
p0
((lp1
(lp2
S'state'
p3
aI0
aa(lp4
S'distance'
p5
aNaa(lp6
S'timestamp'
p7
aF0.8314611911773682
aatp8
Rp9
.ccollections
OrderedDict
p0
((lp1
(lp2
S'state'
p3
aI0
aa(lp4
S'distance'
p5
aNaa(lp6
S'timestamp'
p7
aF0.8377251625061035
aatp8
Rp9
.ccollections
OrderedDict
p0
((lp1
(lp2
S'state'
p3
aI0
aa(lp4
S'distance'
p5
aNaa(lp6
S'timestamp'
p7
aF0.8403260707855225
aatp8
Rp9
.ccollections
OrderedDict
p0
((lp1
(lp2
S'state'
p3
aI0
aa(lp4
S'distance'
p5
aNaa(lp6
S'timestamp'
p7
aF0.8482069969177246
aatp8
Rp9
.ccollections
OrderedDict
p0
((lp1
(lp2
S'state'
p3
aI0
aa(lp4
S'distance'
p5
aNaa(lp6
S'timestamp'
p7
aF0.8483572006225586
aatp8
Rp9
.ccollections
OrderedDict
p0
((lp1
(lp2
S'state'
p3
aI0
aa(lp4
S'distance'
p5
aNaa(lp6
S'timestamp'
p7
aF0.8594751358032227
aatp8
Rp9
.ccollections
OrderedDict
p0
((lp1
(lp2
S'state'
p3
aI0
aa(lp4
S'distance'
p5
aNaa(lp6
S'timestamp'
p7
aF0.859544038772583
aatp8
Rp9
.ccollections
OrderedDict
p0
((lp1
(lp2
S'state'
p3
aI0
aa(lp4
S'distance'
p5
aNaa(lp6
S'timestamp'
p7
aF0.8685472011566162
aatp8
Rp9
.ccollections
OrderedDict
p0
((lp1
(lp2
S'state'
p3
aI0
aa(lp4
S'distance'
p5
aNaa(lp6
S'timestamp'
p7
aF0.8692011833190918
aatp8
Rp9
.ccollections
OrderedDict
p0
((lp1
(lp2
S'state'
p3
aI0
aa(lp4
S'distance'
p5
aNaa(lp6
S'timestamp'
p7
aF0.8778510093688965
aatp8
Rp9
.ccollections
OrderedDict
p0
((lp1
(lp2
S'state'
p3
aI0
aa(lp4
S'distance'
p5
aNaa(lp6
S'timestamp'
p7
aF0.8784971237182617
aatp8
Rp9
.ccollections
OrderedDict
p0
((lp1
(lp2
S'state'
p3
aI0
aa(lp4
S'distance'
p5
aNaa(lp6
S'timestamp'
p7
aF0.8879601955413818
aatp8
Rp9
.ccollections
OrderedDict
p0
((lp1
(lp2
S'state'
p3
aI0
aa(lp4
S'distance'
p5
aNaa(lp6
S'timestamp'
p7
aF0.88875412940979
aatp8
Rp9
.ccollections
OrderedDict
p0
((lp1
(lp2
S'state'
p3
aI0
aa(lp4
S'distance'
p5
aNaa(lp6
S'timestamp'
p7
aF0.8981730937957764
aatp8
Rp9
.ccollections
OrderedDict
p0
((lp1
(lp2
S'state'
p3
aI0
aa(lp4
S'distance'
p5
aNaa(lp6
S'timestamp'
p7
aF0.8982551097869873
aatp8
Rp9
.ccollections
OrderedDict
p0
((lp1
(lp2
S'state'
p3
aI0
aa(lp4
S'distance'
p5
aNaa(lp6
S'timestamp'
p7
aF0.9084270000457764
aatp8
Rp9
.ccollections
OrderedDict
p0
((lp1
(lp2
S'state'
p3
aI0
aa(lp4
S'distance'
p5
aNaa(lp6
S'timestamp'
p7
aF0.9085650444030762
aatp8
Rp9
.ccollections
OrderedDict
p0
((lp1
(lp2
S'state'
p3
aI0
aa(lp4
S'distance'
p5
aNaa(lp6
S'timestamp'
p7
aF0.9190390110015869
aatp8
Rp9
.ccollections
OrderedDict
p0
((lp1
(lp2
S'state'
p3
aI0
aa(lp4
S'distance'
p5
aNaa(lp6
S'timestamp'
p7
aF0.9192230701446533
aatp8
Rp9
.ccollections
OrderedDict
p0
((lp1
(lp2
S'state'
p3
aI0
aa(lp4
S'distance'
p5
aNaa(lp6
S'timestamp'
p7
aF0.9284670352935791
aatp8
Rp9
.ccollections
OrderedDict
p0
((lp1
(lp2
S'state'
p3
aI0
aa(lp4
S'distance'
p5
aNaa(lp6
S'timestamp'
p7
aF0.9286761283874512
aatp8
Rp9
.ccollections
OrderedDict
p0
((lp1
(lp2
S'state'
p3
aI0
aa(lp4
S'distance'
p5
aNaa(lp6
S'timestamp'
p7
aF0.9381911754608154
aatp8
Rp9
.ccollections
OrderedDict
p0
((lp1
(lp2
S'state'
p3
aI0
aa(lp4
S'distance'
p5
aNaa(lp6
S'timestamp'
p7
aF0.9382710456848145
aatp8
Rp9
.ccollections
OrderedDict
p0
((lp1
(lp2
S'state'
p3
aI0
aa(lp4
S'distance'
p5
aNaa(lp6
S'timestamp'
p7
aF0.9479820728302002
aatp8
Rp9
.ccollections
OrderedDict
p0
((lp1
(lp2
S'state'
p3
aI0
aa(lp4
S'distance'
p5
aNaa(lp6
S'timestamp'
p7
aF0.9482500553131104
aatp8
Rp9
.ccollections
OrderedDict
p0
((lp1
(lp2
S'state'
p3
aI0
aa(lp4
S'distance'
p5
aNaa(lp6
S'timestamp'
p7
aF0.9583730697631836
aatp8
Rp9
.ccollections
OrderedDict
p0
((lp1
(lp2
S'state'
p3
aI0
aa(lp4
S'distance'
p5
aNaa(lp6
S'timestamp'
p7
aF0.9587700366973877
aatp8
Rp9
.ccollections
OrderedDict
p0
((lp1
(lp2
S'state'
p3
aI0
aa(lp4
S'distance'
p5
aNaa(lp6
S'timestamp'
p7
aF0.9681961536407471
aatp8
Rp9
.ccollections
OrderedDict
p0
((lp1
(lp2
S'state'
p3
aI0
aa(lp4
S'distance'
p5
aNaa(lp6
S'timestamp'
p7
aF0.9682810306549072
aatp8
Rp9
.ccollections
OrderedDict
p0
((lp1
(lp2
S'state'
p3
aI0
aa(lp4
S'distance'
p5
aNaa(lp6
S'timestamp'
p7
aF0.9778671264648438
aatp8
Rp9
.ccollections
OrderedDict
p0
((lp1
(lp2
S'state'
p3
aI0
aa(lp4
S'distance'
p5
aNaa(lp6
S'timestamp'
p7
aF0.9785339832305908
aatp8
Rp9
.ccollections
OrderedDict
p0
((lp1
(lp2
S'state'
p3
aI0
aa(lp4
S'distance'
p5
aNaa(lp6
S'timestamp'
p7
aF0.9980051517486572
aatp8
Rp9
.ccollections
OrderedDict
p0
((lp1
(lp2
S'state'
p3
aI0
aa(lp4
S'distance'
p5
aNaa(lp6
S'timestamp'
p7
aF0.9988300800323486
aatp8
Rp9
.ccollections
OrderedDict
p0
((lp1
(lp2
S'state'
p3
aI0
aa(lp4
S'distance'
p5
aNaa(lp6
S'timestamp'
p7
aF0.9997341632843018
aatp8
Rp9
.ccollections
OrderedDict
p0
((lp1
(lp2
S'state'
p3
aI0
aa(lp4
S'distance'
p5
aNaa(lp6
S'timestamp'
p7
aF1.001751184463501
aatp8
Rp9
.ccollections
OrderedDict
p0
((lp1
(lp2
S'state'
p3
aI0
aa(lp4
S'distance'
p5
aNaa(lp6
S'timestamp'
p7
aF1.0080680847167969
aatp8
Rp9
.ccollections
OrderedDict
p0
((lp1
(lp2
S'state'
p3
aI0
aa(lp4
S'distance'
p5
aNaa(lp6
S'timestamp'
p7
aF1.0082170963287354
aatp8
Rp9
.ccollections
OrderedDict
p0
((lp1
(lp2
S'state'
p3
aI0
aa(lp4
S'distance'
p5
aNaa(lp6
S'timestamp'
p7
aF1.0477490425109863
aatp8
Rp9
.ccollections
OrderedDict
p0
((lp1
(lp2
S'state'
p3
aI0
aa(lp4
S'distance'
p5
aNaa(lp6
S'timestamp'
p7
aF1.0481970310211182
aatp8
Rp9
.ccollections
OrderedDict
p0
((lp1
(lp2
S'state'
p3
aI0
aa(lp4
S'distance'
p5
aNaa(lp6
S'timestamp'
p7
aF1.049617052078247
aatp8
Rp9
.ccollections
OrderedDict
p0
((lp1
(lp2
S'state'
p3
aI0
aa(lp4
S'distance'
p5
aNaa(lp6
S'timestamp'
p7
aF1.0512580871582031
aatp8
Rp9
.ccollections
OrderedDict
p0
((lp1
(lp2
S'state'
p3
aI0
aa(lp4
S'distance'
p5
aNaa(lp6
S'timestamp'
p7
aF1.0576751232147217
aatp8
Rp9
.ccollections
OrderedDict
p0
((lp1
(lp2
S'state'
p3
aI0
aa(lp4
S'distance'
p5
aNaa(lp6
S'timestamp'
p7
aF1.0591270923614502
aatp8
Rp9
.ccollections
OrderedDict
p0
((lp1
(lp2
S'state'
p3
aI0
aa(lp4
S'distance'
p5
aNaa(lp6
S'timestamp'
p7
aF1.0593841075897217
aatp8
Rp9
.ccollections
OrderedDict
p0
((lp1
(lp2
S'state'
p3
aI0
aa(lp4
S'distance'
p5
aNaa(lp6
S'timestamp'
p7
aF1.0600640773773193
aatp8
Rp9
.ccollections
OrderedDict
p0
((lp1
(lp2
S'state'
p3
aI0
aa(lp4
S'distance'
p5
aNaa(lp6
S'timestamp'
p7
aF1.067878007888794
aatp8
Rp9
.ccollections
OrderedDict
p0
((lp1
(lp2
S'state'
p3
aI0
aa(lp4
S'distance'
p5
aNaa(lp6
S'timestamp'
p7
aF1.0682260990142822
aatp8
Rp9
.ccollections
OrderedDict
p0
((lp1
(lp2
S'state'
p3
aI0
aa(lp4
S'distance'
p5
aNaa(lp6
S'timestamp'
p7
aF1.0687651634216309
aatp8
Rp9
.ccollections
OrderedDict
p0
((lp1
(lp2
S'state'
p3
aI0
aa(lp4
S'distance'
p5
aNaa(lp6
S'timestamp'
p7
aF1.069087028503418
aatp8
Rp9
.ccollections
OrderedDict
p0
((lp1
(lp2
S'state'
p3
aI0
aa(lp4
S'distance'
p5
aNaa(lp6
S'timestamp'
p7
aF1.0780181884765625
aatp8
Rp9
.ccollections
OrderedDict
p0
((lp1
(lp2
S'state'
p3
aI0
aa(lp4
S'distance'
p5
aNaa(lp6
S'timestamp'
p7
aF1.0789401531219482
aatp8
Rp9
.ccollections
OrderedDict
p0
((lp1
(lp2
S'state'
p3
aI0
aa(lp4
S'distance'
p5
aNaa(lp6
S'timestamp'
p7
aF1.0881600379943848
aatp8
Rp9
.ccollections
OrderedDict
p0
((lp1
(lp2
S'state'
p3
aI0
aa(lp4
S'distance'
p5
aNaa(lp6
S'timestamp'
p7
aF1.0882420539855957
aatp8
Rp9
.ccollections
OrderedDict
p0
((lp1
(lp2
S'state'
p3
aI0
aa(lp4
S'distance'
p5
aNaa(lp6
S'timestamp'
p7
aF1.098376989364624
aatp8
Rp9
.ccollections
OrderedDict
p0
((lp1
(lp2
S'state'
p3
aI0
aa(lp4
S'distance'
p5
aNaa(lp6
S'timestamp'
p7
aF1.0984551906585693
aatp8
Rp9
.ccollections
OrderedDict
p0
((lp1
(lp2
S'state'
p3
aI0
aa(lp4
S'distance'
p5
aNaa(lp6
S'timestamp'
p7
aF1.107983112335205
aatp8
Rp9
.ccollections
OrderedDict
p0
((lp1
(lp2
S'state'
p3
aI0
aa(lp4
S'distance'
p5
aNaa(lp6
S'timestamp'
p7
aF1.1094160079956055
aatp8
Rp9
.ccollections
OrderedDict
p0
((lp1
(lp2
S'state'
p3
aI0
aa(lp4
S'distance'
p5
aNaa(lp6
S'timestamp'
p7
aF1.118502140045166
aatp8
Rp9
.ccollections
OrderedDict
p0
((lp1
(lp2
S'state'
p3
aI0
aa(lp4
S'distance'
p5
aNaa(lp6
S'timestamp'
p7
aF1.1188230514526367
aatp8
Rp9
.ccollections
OrderedDict
p0
((lp1
(lp2
S'state'
p3
aI0
aa(lp4
S'distance'
p5
aNaa(lp6
S'timestamp'
p7
aF1.1277580261230469
aatp8
Rp9
.ccollections
OrderedDict
p0
((lp1
(lp2
S'state'
p3
aI0
aa(lp4
S'distance'
p5
aNaa(lp6
S'timestamp'
p7
aF1.12860107421875
aatp8
Rp9
.ccollections
OrderedDict
p0
((lp1
(lp2
S'state'
p3
aI0
aa(lp4
S'distance'
p5
aNaa(lp6
S'timestamp'
p7
aF1.1382911205291748
aatp8
Rp9
.ccollections
OrderedDict
p0
((lp1
(lp2
S'state'
p3
aI0
aa(lp4
S'distance'
p5
aNaa(lp6
S'timestamp'
p7
aF1.1383709907531738
aatp8
Rp9
.ccollections
OrderedDict
p0
((lp1
(lp2
S'state'
p3
aI0
aa(lp4
S'distance'
p5
aNaa(lp6
S'timestamp'
p7
aF1.1477940082550049
aatp8
Rp9
.ccollections
OrderedDict
p0
((lp1
(lp2
S'state'
p3
aI0
aa(lp4
S'distance'
p5
aNaa(lp6
S'timestamp'
p7
aF1.1480731964111328
aatp8
Rp9
.ccollections
OrderedDict
p0
((lp1
(lp2
S'state'
p3
aI0
aa(lp4
S'distance'
p5
aNaa(lp6
S'timestamp'
p7
aF1.1586551666259766
aatp8
Rp9
.ccollections
OrderedDict
p0
((lp1
(lp2
S'state'
p3
aI0
aa(lp4
S'distance'
p5
aNaa(lp6
S'timestamp'
p7
aF1.1588530540466309
aatp8
Rp9
.ccollections
OrderedDict
p0
((lp1
(lp2
S'state'
p3
aI0
aa(lp4
S'distance'
p5
aNaa(lp6
S'timestamp'
p7
aF1.1691300868988037
aatp8
Rp9
.ccollections
OrderedDict
p0
((lp1
(lp2
S'state'
p3
aI0
aa(lp4
S'distance'
p5
aNaa(lp6
S'timestamp'
p7
aF1.1693921089172363
aatp8
Rp9
.ccollections
OrderedDict
p0
((lp1
(lp2
S'state'
p3
aI0
aa(lp4
S'distance'
p5
aNaa(lp6
S'timestamp'
p7
aF1.1777901649475098
aatp8
Rp9
.ccollections
OrderedDict
p0
((lp1
(lp2
S'state'
p3
aI0
aa(lp4
S'distance'
p5
aNaa(lp6
S'timestamp'
p7
aF1.1783010959625244
aatp8
Rp9
.ccollections
OrderedDict
p0
((lp1
(lp2
S'state'
p3
aI0
aa(lp4
S'distance'
p5
aNaa(lp6
S'timestamp'
p7
aF1.1882030963897705
aatp8
Rp9
.ccollections
OrderedDict
p0
((lp1
(lp2
S'state'
p3
aI0
aa(lp4
S'distance'
p5
aNaa(lp6
S'timestamp'
p7
aF1.1883010864257812
aatp8
Rp9
.ccollections
OrderedDict
p0
((lp1
(lp2
S'state'
p3
aI0
aa(lp4
S'distance'
p5
aNaa(lp6
S'timestamp'
p7
aF1.198500156402588
aatp8
Rp9
.ccollections
OrderedDict
p0
((lp1
(lp2
S'state'
p3
aI0
aa(lp4
S'distance'
p5
aNaa(lp6
S'timestamp'
p7
aF1.198763132095337
aatp8
Rp9
.ccollections
OrderedDict
p0
((lp1
(lp2
S'state'
p3
aI0
aa(lp4
S'distance'
p5
aNaa(lp6
S'timestamp'
p7
aF1.2099170684814453
aatp8
Rp9
.ccollections
OrderedDict
p0
((lp1
(lp2
S'state'
p3
aI0
aa(lp4
S'distance'
p5
aNaa(lp6
S'timestamp'
p7
aF1.210414171218872
aatp8
Rp9
.ccollections
OrderedDict
p0
((lp1
(lp2
S'state'
p3
aI0
aa(lp4
S'distance'
p5
aNaa(lp6
S'timestamp'
p7
aF1.2195661067962646
aatp8
Rp9
.ccollections
OrderedDict
p0
((lp1
(lp2
S'state'
p3
aI0
aa(lp4
S'distance'
p5
aNaa(lp6
S'timestamp'
p7
aF1.2218680381774902
aatp8
Rp9
.ccollections
OrderedDict
p0
((lp1
(lp2
S'state'
p3
aI0
aa(lp4
S'distance'
p5
aNaa(lp6
S'timestamp'
p7
aF1.2280631065368652
aatp8
Rp9
.ccollections
OrderedDict
p0
((lp1
(lp2
S'state'
p3
aI0
aa(lp4
S'distance'
p5
aNaa(lp6
S'timestamp'
p7
aF1.2284832000732422
aatp8
Rp9
.ccollections
OrderedDict
p0
((lp1
(lp2
S'state'
p3
aI0
aa(lp4
S'distance'
p5
aNaa(lp6
S'timestamp'
p7
aF1.2387831211090088
aatp8
Rp9
.ccollections
OrderedDict
p0
((lp1
(lp2
S'state'
p3
aI0
aa(lp4
S'distance'
p5
aNaa(lp6
S'timestamp'
p7
aF1.2396430969238281
aatp8
Rp9
.ccollections
OrderedDict
p0
((lp1
(lp2
S'state'
p3
aI0
aa(lp4
S'distance'
p5
aNaa(lp6
S'timestamp'
p7
aF1.247987985610962
aatp8
Rp9
.ccollections
OrderedDict
p0
((lp1
(lp2
S'state'
p3
aI0
aa(lp4
S'distance'
p5
aNaa(lp6
S'timestamp'
p7
aF1.2493422031402588
aatp8
Rp9
.ccollections
OrderedDict
p0
((lp1
(lp2
S'state'
p3
aI0
aa(lp4
S'distance'
p5
aNaa(lp6
S'timestamp'
p7
aF1.2580821514129639
aatp8
Rp9
.ccollections
OrderedDict
p0
((lp1
(lp2
S'state'
p3
aI0
aa(lp4
S'distance'
p5
aNaa(lp6
S'timestamp'
p7
aF1.25816011428833
aatp8
Rp9
.ccollections
OrderedDict
p0
((lp1
(lp2
S'state'
p3
aI0
aa(lp4
S'distance'
p5
aNaa(lp6
S'timestamp'
p7
aF1.2679600715637207
aatp8
Rp9
.ccollections
OrderedDict
p0
((lp1
(lp2
S'state'
p3
aI0
aa(lp4
S'distance'
p5
aNaa(lp6
S'timestamp'
p7
aF1.2682030200958252
aatp8
Rp9
.ccollections
OrderedDict
p0
((lp1
(lp2
S'state'
p3
aI0
aa(lp4
S'distance'
p5
aNaa(lp6
S'timestamp'
p7
aF1.288715124130249
aatp8
Rp9
.ccollections
OrderedDict
p0
((lp1
(lp2
S'state'
p3
aI0
aa(lp4
S'distance'
p5
aNaa(lp6
S'timestamp'
p7
aF1.2887990474700928
aatp8
Rp9
.ccollections
OrderedDict
p0
((lp1
(lp2
S'state'
p3
aI0
aa(lp4
S'distance'
p5
aNaa(lp6
S'timestamp'
p7
aF1.2888691425323486
aatp8
Rp9
.ccollections
OrderedDict
p0
((lp1
(lp2
S'state'
p3
aI0
aa(lp4
S'distance'
p5
aNaa(lp6
S'timestamp'
p7
aF1.2900331020355225
aatp8
Rp9
.ccollections
OrderedDict
p0
((lp1
(lp2
S'state'
p3
aI0
aa(lp4
S'distance'
p5
aNaa(lp6
S'timestamp'
p7
aF1.298201084136963
aatp8
Rp9
.ccollections
OrderedDict
p0
((lp1
(lp2
S'state'
p3
aI0
aa(lp4
S'distance'
p5
aNaa(lp6
S'timestamp'
p7
aF1.298279047012329
aatp8
Rp9
.ccollections
OrderedDict
p0
((lp1
(lp2
S'state'
p3
aI0
aa(lp4
S'distance'
p5
aNaa(lp6
S'timestamp'
p7
aF1.3076250553131104
aatp8
Rp9
.ccollections
OrderedDict
p0
((lp1
(lp2
S'state'
p3
aI0
aa(lp4
S'distance'
p5
aNaa(lp6
S'timestamp'
p7
aF1.308129072189331
aatp8
Rp9
.ccollections
OrderedDict
p0
((lp1
(lp2
S'state'
p3
aI0
aa(lp4
S'distance'
p5
aNaa(lp6
S'timestamp'
p7
aF1.3280141353607178
aatp8
Rp9
.ccollections
OrderedDict
p0
((lp1
(lp2
S'state'
p3
aI0
aa(lp4
S'distance'
p5
aNaa(lp6
S'timestamp'
p7
aF1.3283979892730713
aatp8
Rp9
.ccollections
OrderedDict
p0
((lp1
(lp2
S'state'
p3
aI0
aa(lp4
S'distance'
p5
aNaa(lp6
S'timestamp'
p7
aF1.3285980224609375
aatp8
Rp9
.ccollections
OrderedDict
p0
((lp1
(lp2
S'state'
p3
aI0
aa(lp4
S'distance'
p5
aNaa(lp6
S'timestamp'
p7
aF1.3292319774627686
aatp8
Rp9
.ccollections
OrderedDict
p0
((lp1
(lp2
S'state'
p3
aI0
aa(lp4
S'distance'
p5
aNaa(lp6
S'timestamp'
p7
aF1.3480701446533203
aatp8
Rp9
.ccollections
OrderedDict
p0
((lp1
(lp2
S'state'
p3
aI0
aa(lp4
S'distance'
p5
aNaa(lp6
S'timestamp'
p7
aF1.3481810092926025
aatp8
Rp9
.ccollections
OrderedDict
p0
((lp1
(lp2
S'state'
p3
aI0
aa(lp4
S'distance'
p5
aNaa(lp6
S'timestamp'
p7
aF1.3490180969238281
aatp8
Rp9
.ccollections
OrderedDict
p0
((lp1
(lp2
S'state'
p3
aI0
aa(lp4
S'distance'
p5
aNaa(lp6
S'timestamp'
p7
aF1.3500452041625977
aatp8
Rp9
.ccollections
OrderedDict
p0
((lp1
(lp2
S'state'
p3
aI0
aa(lp4
S'distance'
p5
aNaa(lp6
S'timestamp'
p7
aF1.35874605178833
aatp8
Rp9
.ccollections
OrderedDict
p0
((lp1
(lp2
S'state'
p3
aI0
aa(lp4
S'distance'
p5
aNaa(lp6
S'timestamp'
p7
aF1.3588271141052246
aatp8
Rp9
.ccollections
OrderedDict
p0
((lp1
(lp2
S'state'
p3
aI0
aa(lp4
S'distance'
p5
aNaa(lp6
S'timestamp'
p7
aF1.3675460815429688
aatp8
Rp9
.ccollections
OrderedDict
p0
((lp1
(lp2
S'state'
p3
aI0
aa(lp4
S'distance'
p5
aNaa(lp6
S'timestamp'
p7
aF1.3681390285491943
aatp8
Rp9
.ccollections
OrderedDict
p0
((lp1
(lp2
S'state'
p3
aI0
aa(lp4
S'distance'
p5
aNaa(lp6
S'timestamp'
p7
aF1.3804821968078613
aatp8
Rp9
.ccollections
OrderedDict
p0
((lp1
(lp2
S'state'
p3
aI0
aa(lp4
S'distance'
p5
aNaa(lp6
S'timestamp'
p7
aF1.3808681964874268
aatp8
Rp9
.ccollections
OrderedDict
p0
((lp1
(lp2
S'state'
p3
aI0
aa(lp4
S'distance'
p5
aNaa(lp6
S'timestamp'
p7
aF1.4005041122436523
aatp8
Rp9
.ccollections
OrderedDict
p0
((lp1
(lp2
S'state'
p3
aI0
aa(lp4
S'distance'
p5
aNaa(lp6
S'timestamp'
p7
aF1.4010300636291504
aatp8
Rp9
.ccollections
OrderedDict
p0
((lp1
(lp2
S'state'
p3
aI0
aa(lp4
S'distance'
p5
aNaa(lp6
S'timestamp'
p7
aF1.4088671207427979
aatp8
Rp9
.ccollections
OrderedDict
p0
((lp1
(lp2
S'state'
p3
aI0
aa(lp4
S'distance'
p5
aNaa(lp6
S'timestamp'
p7
aF1.4093081951141357
aatp8
Rp9
.ccollections
OrderedDict
p0
((lp1
(lp2
S'state'
p3
aI0
aa(lp4
S'distance'
p5
aNaa(lp6
S'timestamp'
p7
aF1.4177141189575195
aatp8
Rp9
.ccollections
OrderedDict
p0
((lp1
(lp2
S'state'
p3
aI0
aa(lp4
S'distance'
p5
aNaa(lp6
S'timestamp'
p7
aF1.4181950092315674
aatp8
Rp9
.ccollections
OrderedDict
p0
((lp1
(lp2
S'state'
p3
aI0
aa(lp4
S'distance'
p5
aNaa(lp6
S'timestamp'
p7
aF1.4381530284881592
aatp8
Rp9
.ccollections
OrderedDict
p0
((lp1
(lp2
S'state'
p3
aI0
aa(lp4
S'distance'
p5
aNaa(lp6
S'timestamp'
p7
aF1.43837308883667
aatp8
Rp9
.ccollections
OrderedDict
p0
((lp1
(lp2
S'state'
p3
aI0
aa(lp4
S'distance'
p5
aNaa(lp6
S'timestamp'
p7
aF1.4402751922607422
aatp8
Rp9
.ccollections
OrderedDict
p0
((lp1
(lp2
S'state'
p3
aI0
aa(lp4
S'distance'
p5
aNaa(lp6
S'timestamp'
p7
aF1.4405272006988525
aatp8
Rp9
.ccollections
OrderedDict
p0
((lp1
(lp2
S'state'
p3
aI0
aa(lp4
S'distance'
p5
aNaa(lp6
S'timestamp'
p7
aF1.4478161334991455
aatp8
Rp9
.ccollections
OrderedDict
p0
((lp1
(lp2
S'state'
p3
aI0
aa(lp4
S'distance'
p5
aNaa(lp6
S'timestamp'
p7
aF1.448754072189331
aatp8
Rp9
.ccollections
OrderedDict
p0
((lp1
(lp2
S'state'
p3
aI0
aa(lp4
S'distance'
p5
aNaa(lp6
S'timestamp'
p7
aF1.4490151405334473
aatp8
Rp9
.ccollections
OrderedDict
p0
((lp1
(lp2
S'state'
p3
aI0
aa(lp4
S'distance'
p5
aNaa(lp6
S'timestamp'
p7
aF1.4495460987091064
aatp8
Rp9
.ccollections
OrderedDict
p0
((lp1
(lp2
S'state'
p3
aI0
aa(lp4
S'distance'
p5
aNaa(lp6
S'timestamp'
p7
aF1.4578781127929688
aatp8
Rp9
.ccollections
OrderedDict
p0
((lp1
(lp2
S'state'
p3
aI0
aa(lp4
S'distance'
p5
aNaa(lp6
S'timestamp'
p7
aF1.4588520526885986
aatp8
Rp9
.ccollections
OrderedDict
p0
((lp1
(lp2
S'state'
p3
aI0
aa(lp4
S'distance'
p5
aNaa(lp6
S'timestamp'
p7
aF1.4682600498199463
aatp8
Rp9
.ccollections
OrderedDict
p0
((lp1
(lp2
S'state'
p3
aI0
aa(lp4
S'distance'
p5
aNaa(lp6
S'timestamp'
p7
aF1.468337059020996
aatp8
Rp9
.ccollections
OrderedDict
p0
((lp1
(lp2
S'state'
p3
aI0
aa(lp4
S'distance'
p5
aNaa(lp6
S'timestamp'
p7
aF1.4776990413665771
aatp8
Rp9
.ccollections
OrderedDict
p0
((lp1
(lp2
S'state'
p3
aI0
aa(lp4
S'distance'
p5
aNaa(lp6
S'timestamp'
p7
aF1.479227066040039
aatp8
Rp9
.ccollections
OrderedDict
p0
((lp1
(lp2
S'state'
p3
aI0
aa(lp4
S'distance'
p5
aNaa(lp6
S'timestamp'
p7
aF1.487598180770874
aatp8
Rp9
.ccollections
OrderedDict
p0
((lp1
(lp2
S'state'
p3
aI0
aa(lp4
S'distance'
p5
aNaa(lp6
S'timestamp'
p7
aF1.4882190227508545
aatp8
Rp9
.ccollections
OrderedDict
p0
((lp1
(lp2
S'state'
p3
aI0
aa(lp4
S'distance'
p5
aNaa(lp6
S'timestamp'
p7
aF1.4975581169128418
aatp8
Rp9
.ccollections
OrderedDict
p0
((lp1
(lp2
S'state'
p3
aI0
aa(lp4
S'distance'
p5
aNaa(lp6
S'timestamp'
p7
aF1.4983510971069336
aatp8
Rp9
.ccollections
OrderedDict
p0
((lp1
(lp2
S'state'
p3
aI0
aa(lp4
S'distance'
p5
aNaa(lp6
S'timestamp'
p7
aF1.508270025253296
aatp8
Rp9
.ccollections
OrderedDict
p0
((lp1
(lp2
S'state'
p3
aI0
aa(lp4
S'distance'
p5
aNaa(lp6
S'timestamp'
p7
aF1.5083460807800293
aatp8
Rp9
.ccollections
OrderedDict
p0
((lp1
(lp2
S'state'
p3
aI0
aa(lp4
S'distance'
p5
aNaa(lp6
S'timestamp'
p7
aF1.5183792114257812
aatp8
Rp9
.ccollections
OrderedDict
p0
((lp1
(lp2
S'state'
p3
aI0
aa(lp4
S'distance'
p5
aNaa(lp6
S'timestamp'
p7
aF1.5189011096954346
aatp8
Rp9
.ccollections
OrderedDict
p0
((lp1
(lp2
S'state'
p3
aI0
aa(lp4
S'distance'
p5
aNaa(lp6
S'timestamp'
p7
aF1.5278871059417725
aatp8
Rp9
.ccollections
OrderedDict
p0
((lp1
(lp2
S'state'
p3
aI0
aa(lp4
S'distance'
p5
aNaa(lp6
S'timestamp'
p7
aF1.5281341075897217
aatp8
Rp9
.ccollections
OrderedDict
p0
((lp1
(lp2
S'state'
p3
aI0
aa(lp4
S'distance'
p5
aNaa(lp6
S'timestamp'
p7
aF1.5378451347351074
aatp8
Rp9
.ccollections
OrderedDict
p0
((lp1
(lp2
S'state'
p3
aI0
aa(lp4
S'distance'
p5
aNaa(lp6
S'timestamp'
p7
aF1.5389461517333984
aatp8
Rp9
.ccollections
OrderedDict
p0
((lp1
(lp2
S'state'
p3
aI0
aa(lp4
S'distance'
p5
aNaa(lp6
S'timestamp'
p7
aF1.5583171844482422
aatp8
Rp9
.ccollections
OrderedDict
p0
((lp1
(lp2
S'state'
p3
aI0
aa(lp4
S'distance'
p5
aNaa(lp6
S'timestamp'
p7
aF1.5584180355072021
aatp8
Rp9
.ccollections
OrderedDict
p0
((lp1
(lp2
S'state'
p3
aI0
aa(lp4
S'distance'
p5
aNaa(lp6
S'timestamp'
p7
aF1.5590250492095947
aatp8
Rp9
.ccollections
OrderedDict
p0
((lp1
(lp2
S'state'
p3
aI0
aa(lp4
S'distance'
p5
aNaa(lp6
S'timestamp'
p7
aF1.5601401329040527
aatp8
Rp9
.ccollections
OrderedDict
p0
((lp1
(lp2
S'state'
p3
aI0
aa(lp4
S'distance'
p5
aNaa(lp6
S'timestamp'
p7
aF1.5679640769958496
aatp8
Rp9
.ccollections
OrderedDict
p0
((lp1
(lp2
S'state'
p3
aI0
aa(lp4
S'distance'
p5
aNaa(lp6
S'timestamp'
p7
aF1.568404197692871
aatp8
Rp9
.ccollections
OrderedDict
p0
((lp1
(lp2
S'state'
p3
aI0
aa(lp4
S'distance'
p5
aNaa(lp6
S'timestamp'
p7
aF1.5781521797180176
aatp8
Rp9
.ccollections
OrderedDict
p0
((lp1
(lp2
S'state'
p3
aI0
aa(lp4
S'distance'
p5
aNaa(lp6
S'timestamp'
p7
aF1.5785419940948486
aatp8
Rp9
.ccollections
OrderedDict
p0
((lp1
(lp2
S'state'
p3
aI0
aa(lp4
S'distance'
p5
aNaa(lp6
S'timestamp'
p7
aF1.5885601043701172
aatp8
Rp9
.ccollections
OrderedDict
p0
((lp1
(lp2
S'state'
p3
aI0
aa(lp4
S'distance'
p5
aNaa(lp6
S'timestamp'
p7
aF1.5890731811523438
aatp8
Rp9
.ccollections
OrderedDict
p0
((lp1
(lp2
S'state'
p3
aI0
aa(lp4
S'distance'
p5
aNaa(lp6
S'timestamp'
p7
aF1.6080009937286377
aatp8
Rp9
.ccollections
OrderedDict
p0
((lp1
(lp2
S'state'
p3
aI0
aa(lp4
S'distance'
p5
aNaa(lp6
S'timestamp'
p7
aF1.6087651252746582
aatp8
Rp9
.ccollections
OrderedDict
p0
((lp1
(lp2
S'state'
p3
aI0
aa(lp4
S'distance'
p5
aNaa(lp6
S'timestamp'
p7
aF1.609375
aatp8
Rp9
.ccollections
OrderedDict
p0
((lp1
(lp2
S'state'
p3
aI0
aa(lp4
S'distance'
p5
aNaa(lp6
S'timestamp'
p7
aF1.6094551086425781
aatp8
Rp9
.ccollections
OrderedDict
p0
((lp1
(lp2
S'state'
p3
aI0
aa(lp4
S'distance'
p5
aNaa(lp6
S'timestamp'
p7
aF1.617760181427002
aatp8
Rp9
.ccollections
OrderedDict
p0
((lp1
(lp2
S'state'
p3
aI0
aa(lp4
S'distance'
p5
aNaa(lp6
S'timestamp'
p7
aF1.6180751323699951
aatp8
Rp9
.ccollections
OrderedDict
p0
((lp1
(lp2
S'state'
p3
aI0
aa(lp4
S'distance'
p5
aNaa(lp6
S'timestamp'
p7
aF1.6279799938201904
aatp8
Rp9
.ccollections
OrderedDict
p0
((lp1
(lp2
S'state'
p3
aI0
aa(lp4
S'distance'
p5
aNaa(lp6
S'timestamp'
p7
aF1.6284151077270508
aatp8
Rp9
.ccollections
OrderedDict
p0
((lp1
(lp2
S'state'
p3
aI0
aa(lp4
S'distance'
p5
aNaa(lp6
S'timestamp'
p7
aF1.6376512050628662
aatp8
Rp9
.ccollections
OrderedDict
p0
((lp1
(lp2
S'state'
p3
aI0
aa(lp4
S'distance'
p5
aNaa(lp6
S'timestamp'
p7
aF1.6382701396942139
aatp8
Rp9
.ccollections
OrderedDict
p0
((lp1
(lp2
S'state'
p3
aI0
aa(lp4
S'distance'
p5
aNaa(lp6
S'timestamp'
p7
aF1.6477441787719727
aatp8
Rp9
.ccollections
OrderedDict
p0
((lp1
(lp2
S'state'
p3
aI0
aa(lp4
S'distance'
p5
aNaa(lp6
S'timestamp'
p7
aF1.6482930183410645
aatp8
Rp9
.ccollections
OrderedDict
p0
((lp1
(lp2
S'state'
p3
aI0
aa(lp4
S'distance'
p5
aNaa(lp6
S'timestamp'
p7
aF1.6674671173095703
aatp8
Rp9
.ccollections
OrderedDict
p0
((lp1
(lp2
S'state'
p3
aI0
aa(lp4
S'distance'
p5
aNaa(lp6
S'timestamp'
p7
aF1.6683080196380615
aatp8
Rp9
.ccollections
OrderedDict
p0
((lp1
(lp2
S'state'
p3
aI0
aa(lp4
S'distance'
p5
aNaa(lp6
S'timestamp'
p7
aF1.6700520515441895
aatp8
Rp9
.ccollections
OrderedDict
p0
((lp1
(lp2
S'state'
p3
aI0
aa(lp4
S'distance'
p5
aNaa(lp6
S'timestamp'
p7
aF1.6711640357971191
aatp8
Rp9
.ccollections
OrderedDict
p0
((lp1
(lp2
S'state'
p3
aI0
aa(lp4
S'distance'
p5
aNaa(lp6
S'timestamp'
p7
aF1.6775670051574707
aatp8
Rp9
.ccollections
OrderedDict
p0
((lp1
(lp2
S'state'
p3
aI0
aa(lp4
S'distance'
p5
aNaa(lp6
S'timestamp'
p7
aF1.6780290603637695
aatp8
Rp9
.ccollections
OrderedDict
p0
((lp1
(lp2
S'state'
p3
aI0
aa(lp4
S'distance'
p5
aNaa(lp6
S'timestamp'
p7
aF1.6976261138916016
aatp8
Rp9
.ccollections
OrderedDict
p0
((lp1
(lp2
S'state'
p3
aI0
aa(lp4
S'distance'
p5
aNaa(lp6
S'timestamp'
p7
aF1.698146104812622
aatp8
Rp9
.ccollections
OrderedDict
p0
((lp1
(lp2
S'state'
p3
aI0
aa(lp4
S'distance'
p5
aNaa(lp6
S'timestamp'
p7
aF1.6989781856536865
aatp8
Rp9
.ccollections
OrderedDict
p0
((lp1
(lp2
S'state'
p3
aI0
aa(lp4
S'distance'
p5
aNaa(lp6
S'timestamp'
p7
aF1.6990511417388916
aatp8
Rp9
.ccollections
OrderedDict
p0
((lp1
(lp2
S'state'
p3
aI0
aa(lp4
S'distance'
p5
aNaa(lp6
S'timestamp'
p7
aF1.7178161144256592
aatp8
Rp9
.ccollections
OrderedDict
p0
((lp1
(lp2
S'state'
p3
aI0
aa(lp4
S'distance'
p5
aNaa(lp6
S'timestamp'
p7
aF1.718428134918213
aatp8
Rp9
.ccollections
OrderedDict
p0
((lp1
(lp2
S'state'
p3
aI0
aa(lp4
S'distance'
p5
aNaa(lp6
S'timestamp'
p7
aF1.7185142040252686
aatp8
Rp9
.ccollections
OrderedDict
p0
((lp1
(lp2
S'state'
p3
aI0
aa(lp4
S'distance'
p5
aNaa(lp6
S'timestamp'
p7
aF1.7197949886322021
aatp8
Rp9
.ccollections
OrderedDict
p0
((lp1
(lp2
S'state'
p3
aI0
aa(lp4
S'distance'
p5
aNaa(lp6
S'timestamp'
p7
aF1.727715015411377
aatp8
Rp9
.ccollections
OrderedDict
p0
((lp1
(lp2
S'state'
p3
aI0
aa(lp4
S'distance'
p5
aNaa(lp6
S'timestamp'
p7
aF1.7280480861663818
aatp8
Rp9
.ccollections
OrderedDict
p0
((lp1
(lp2
S'state'
p3
aI0
aa(lp4
S'distance'
p5
aNaa(lp6
S'timestamp'
p7
aF1.737471103668213
aatp8
Rp9
.ccollections
OrderedDict
p0
((lp1
(lp2
S'state'
p3
aI0
aa(lp4
S'distance'
p5
aNaa(lp6
S'timestamp'
p7
aF1.738185167312622
aatp8
Rp9
.ccollections
OrderedDict
p0
((lp1
(lp2
S'state'
p3
aI0
aa(lp4
S'distance'
p5
aNaa(lp6
S'timestamp'
p7
aF1.7475721836090088
aatp8
Rp9
.ccollections
OrderedDict
p0
((lp1
(lp2
S'state'
p3
aI0
aa(lp4
S'distance'
p5
aNaa(lp6
S'timestamp'
p7
aF1.7482471466064453
aatp8
Rp9
.ccollections
OrderedDict
p0
((lp1
(lp2
S'state'
p3
aI0
aa(lp4
S'distance'
p5
aNaa(lp6
S'timestamp'
p7
aF1.758284091949463
aatp8
Rp9
.ccollections
OrderedDict
p0
((lp1
(lp2
S'state'
p3
aI0
aa(lp4
S'distance'
p5
aNaa(lp6
S'timestamp'
p7
aF1.7587811946868896
aatp8
Rp9
.ccollections
OrderedDict
p0
((lp1
(lp2
S'state'
p3
aI0
aa(lp4
S'distance'
p5
aNaa(lp6
S'timestamp'
p7
aF1.768779993057251
aatp8
Rp9
.ccollections
OrderedDict
p0
((lp1
(lp2
S'state'
p3
aI0
aa(lp4
S'distance'
p5
aNaa(lp6
S'timestamp'
p7
aF1.7688560485839844
aatp8
Rp9
.ccollections
OrderedDict
p0
((lp1
(lp2
S'state'
p3
aI0
aa(lp4
S'distance'
p5
aNaa(lp6
S'timestamp'
p7
aF1.7785060405731201
aatp8
Rp9
.ccollections
OrderedDict
p0
((lp1
(lp2
S'state'
p3
aI0
aa(lp4
S'distance'
p5
aNaa(lp6
S'timestamp'
p7
aF1.7786991596221924
aatp8
Rp9
.ccollections
OrderedDict
p0
((lp1
(lp2
S'state'
p3
aI0
aa(lp4
S'distance'
p5
aNaa(lp6
S'timestamp'
p7
aF1.788470983505249
aatp8
Rp9
.ccollections
OrderedDict
p0
((lp1
(lp2
S'state'
p3
aI0
aa(lp4
S'distance'
p5
aNaa(lp6
S'timestamp'
p7
aF1.7978150844573975
aatp8
Rp9
.ccollections
OrderedDict
p0
((lp1
(lp2
S'state'
p3
aI0
aa(lp4
S'distance'
p5
aNaa(lp6
S'timestamp'
p7
aF1.7982962131500244
aatp8
Rp9
.ccollections
OrderedDict
p0
((lp1
(lp2
S'state'
p3
aI0
aa(lp4
S'distance'
p5
aNaa(lp6
S'timestamp'
p7
aF1.7986161708831787
aatp8
Rp9
.ccollections
OrderedDict
p0
((lp1
(lp2
S'state'
p3
aI400
aa(lp4
S'distance'
p5
aNaa(lp6
S'timestamp'
p7
aF1.8090941905975342
aatp8
Rp9
.ccollections
OrderedDict
p0
((lp1
(lp2
S'state'
p3
aI400
aa(lp4
S'distance'
p5
aNaa(lp6
S'timestamp'
p7
aF1.8094451427459717
aatp8
Rp9
.ccollections
OrderedDict
p0
((lp1
(lp2
S'state'
p3
aI400
aa(lp4
S'distance'
p5
aNaa(lp6
S'timestamp'
p7
aF1.8190829753875732
aatp8
Rp9
.ccollections
OrderedDict
p0
((lp1
(lp2
S'state'
p3
aI400
aa(lp4
S'distance'
p5
aNaa(lp6
S'timestamp'
p7
aF1.819404125213623
aatp8
Rp9
.ccollections
OrderedDict
p0
((lp1
(lp2
S'state'
p3
aI400
aa(lp4
S'distance'
p5
aNaa(lp6
S'timestamp'
p7
aF1.8394811153411865
aatp8
Rp9
.ccollections
OrderedDict
p0
((lp1
(lp2
S'state'
p3
aI400
aa(lp4
S'distance'
p5
aNaa(lp6
S'timestamp'
p7
aF1.8411359786987305
aatp8
Rp9
.ccollections
OrderedDict
p0
((lp1
(lp2
S'state'
p3
aI400
aa(lp4
S'distance'
p5
aNaa(lp6
S'timestamp'
p7
aF1.8444910049438477
aatp8
Rp9
.ccollections
OrderedDict
p0
((lp1
(lp2
S'state'
p3
aI400
aa(lp4
S'distance'
p5
aNaa(lp6
S'timestamp'
p7
aF1.8450491428375244
aatp8
Rp9
.ccollections
OrderedDict
p0
((lp1
(lp2
S'state'
p3
aI400
aa(lp4
S'distance'
p5
aNaa(lp6
S'timestamp'
p7
aF1.853053092956543
aatp8
Rp9
.ccollections
OrderedDict
p0
((lp1
(lp2
S'state'
p3
aI400
aa(lp4
S'distance'
p5
aNaa(lp6
S'timestamp'
p7
aF1.8545520305633545
aatp8
Rp9
.ccollections
OrderedDict
p0
((lp1
(lp2
S'state'
p3
aI400
aa(lp4
S'distance'
p5
aNaa(lp6
S'timestamp'
p7
aF1.8587441444396973
aatp8
Rp9
.ccollections
OrderedDict
p0
((lp1
(lp2
S'state'
p3
aI400
aa(lp4
S'distance'
p5
aNaa(lp6
S'timestamp'
p7
aF1.8594820499420166
aatp8
Rp9
.ccollections
OrderedDict
p0
((lp1
(lp2
S'state'
p3
aI400
aa(lp4
S'distance'
p5
aNaa(lp6
S'timestamp'
p7
aF1.8687100410461426
aatp8
Rp9
.ccollections
OrderedDict
p0
((lp1
(lp2
S'state'
p3
aI400
aa(lp4
S'distance'
p5
aNaa(lp6
S'timestamp'
p7
aF1.8693311214447021
aatp8
Rp9
.ccollections
OrderedDict
p0
((lp1
(lp2
S'state'
p3
aI400
aa(lp4
S'distance'
p5
aNaa(lp6
S'timestamp'
p7
aF1.8894801139831543
aatp8
Rp9
.ccollections
OrderedDict
p0
((lp1
(lp2
S'state'
p3
aI400
aa(lp4
S'distance'
p5
aNaa(lp6
S'timestamp'
p7
aF1.890212059020996
aatp8
Rp9
.ccollections
OrderedDict
p0
((lp1
(lp2
S'state'
p3
aI400
aa(lp4
S'distance'
p5
aNaa(lp6
S'timestamp'
p7
aF1.8977460861206055
aatp8
Rp9
.ccollections
OrderedDict
p0
((lp1
(lp2
S'state'
p3
aI400
aa(lp4
S'distance'
p5
aNaa(lp6
S'timestamp'
p7
aF1.89839506149292
aatp8
Rp9
.ccollections
OrderedDict
p0
((lp1
(lp2
S'state'
p3
aI400
aa(lp4
S'distance'
p5
aNaa(lp6
S'timestamp'
p7
aF1.90506911277771
aatp8
Rp9
.ccollections
OrderedDict
p0
((lp1
(lp2
S'state'
p3
aI400
aa(lp4
S'distance'
p5
aNaa(lp6
S'timestamp'
p7
aF1.906818151473999
aatp8
Rp9
.ccollections
OrderedDict
p0
((lp1
(lp2
S'state'
p3
aI400
aa(lp4
S'distance'
p5
aNaa(lp6
S'timestamp'
p7
aF1.9115312099456787
aatp8
Rp9
.ccollections
OrderedDict
p0
((lp1
(lp2
S'state'
p3
aI400
aa(lp4
S'distance'
p5
aNaa(lp6
S'timestamp'
p7
aF1.9119181632995605
aatp8
Rp9
.ccollections
OrderedDict
p0
((lp1
(lp2
S'state'
p3
aI400
aa(lp4
S'distance'
p5
aNaa(lp6
S'timestamp'
p7
aF1.919006109237671
aatp8
Rp9
.ccollections
OrderedDict
p0
((lp1
(lp2
S'state'
p3
aI400
aa(lp4
S'distance'
p5
aNaa(lp6
S'timestamp'
p7
aF1.919800043106079
aatp8
Rp9
.ccollections
OrderedDict
p0
((lp1
(lp2
S'state'
p3
aI400
aa(lp4
S'distance'
p5
aNaa(lp6
S'timestamp'
p7
aF1.9296660423278809
aatp8
Rp9
.ccollections
OrderedDict
p0
((lp1
(lp2
S'state'
p3
aI400
aa(lp4
S'distance'
p5
aNaa(lp6
S'timestamp'
p7
aF1.929948091506958
aatp8
Rp9
.ccollections
OrderedDict
p0
((lp1
(lp2
S'state'
p3
aI400
aa(lp4
S'distance'
p5
aNaa(lp6
S'timestamp'
p7
aF1.9390671253204346
aatp8
Rp9
.ccollections
OrderedDict
p0
((lp1
(lp2
S'state'
p3
aI400
aa(lp4
S'distance'
p5
aNaa(lp6
S'timestamp'
p7
aF1.939772129058838
aatp8
Rp9
.ccollections
OrderedDict
p0
((lp1
(lp2
S'state'
p3
aI400
aa(lp4
S'distance'
p5
aNaa(lp6
S'timestamp'
p7
aF1.9526951313018799
aatp8
Rp9
.ccollections
OrderedDict
p0
((lp1
(lp2
S'state'
p3
aI400
aa(lp4
S'distance'
p5
aNaa(lp6
S'timestamp'
p7
aF1.9531750679016113
aatp8
Rp9
.ccollections
OrderedDict
p0
((lp1
(lp2
S'state'
p3
aI400
aa(lp4
S'distance'
p5
aNaa(lp6
S'timestamp'
p7
aF1.9590551853179932
aatp8
Rp9
.ccollections
OrderedDict
p0
((lp1
(lp2
S'state'
p3
aI400
aa(lp4
S'distance'
p5
aNaa(lp6
S'timestamp'
p7
aF1.9599590301513672
aatp8
Rp9
.ccollections
OrderedDict
p0
((lp1
(lp2
S'state'
p3
aI400
aa(lp4
S'distance'
p5
aNaa(lp6
S'timestamp'
p7
aF1.969114065170288
aatp8
Rp9
.ccollections
OrderedDict
p0
((lp1
(lp2
S'state'
p3
aI400
aa(lp4
S'distance'
p5
aNaa(lp6
S'timestamp'
p7
aF1.9702789783477783
aatp8
Rp9
.ccollections
OrderedDict
p0
((lp1
(lp2
S'state'
p3
aI400
aa(lp4
S'distance'
p5
aNaa(lp6
S'timestamp'
p7
aF1.9800760746002197
aatp8
Rp9
.ccollections
OrderedDict
p0
((lp1
(lp2
S'state'
p3
aI400
aa(lp4
S'distance'
p5
aNaa(lp6
S'timestamp'
p7
aF1.9805309772491455
aatp8
Rp9
.ccollections
OrderedDict
p0
((lp1
(lp2
S'state'
p3
aI400
aa(lp4
S'distance'
p5
aNaa(lp6
S'timestamp'
p7
aF1.9883902072906494
aatp8
Rp9
.ccollections
OrderedDict
p0
((lp1
(lp2
S'state'
p3
aI400
aa(lp4
S'distance'
p5
aNaa(lp6
S'timestamp'
p7
aF1.9888131618499756
aatp8
Rp9
.ccollections
OrderedDict
p0
((lp1
(lp2
S'state'
p3
aI400
aa(lp4
S'distance'
p5
aNaa(lp6
S'timestamp'
p7
aF1.99863600730896
aatp8
Rp9
.ccollections
OrderedDict
p0
((lp1
(lp2
S'state'
p3
aI400
aa(lp4
S'distance'
p5
aNaa(lp6
S'timestamp'
p7
aF1.9998931884765625
aatp8
Rp9
.ccollections
OrderedDict
p0
((lp1
(lp2
S'state'
p3
aI400
aa(lp4
S'distance'
p5
aNaa(lp6
S'timestamp'
p7
aF2.007939100265503
aatp8
Rp9
.ccollections
OrderedDict
p0
((lp1
(lp2
S'state'
p3
aI400
aa(lp4
S'distance'
p5
aNaa(lp6
S'timestamp'
p7
aF2.0088601112365723
aatp8
Rp9
.ccollections
OrderedDict
p0
((lp1
(lp2
S'state'
p3
aI400
aa(lp4
S'distance'
p5
aNaa(lp6
S'timestamp'
p7
aF2.0190601348876953
aatp8
Rp9
.ccollections
OrderedDict
p0
((lp1
(lp2
S'state'
p3
aI400
aa(lp4
S'distance'
p5
aNaa(lp6
S'timestamp'
p7
aF2.0193400382995605
aatp8
Rp9
.ccollections
OrderedDict
p0
((lp1
(lp2
S'state'
p3
aI400
aa(lp4
S'distance'
p5
aNaa(lp6
S'timestamp'
p7
aF2.0295441150665283
aatp8
Rp9
.ccollections
OrderedDict
p0
((lp1
(lp2
S'state'
p3
aI400
aa(lp4
S'distance'
p5
aNaa(lp6
S'timestamp'
p7
aF2.0299839973449707
aatp8
Rp9
.ccollections
OrderedDict
p0
((lp1
(lp2
S'state'
p3
aI400
aa(lp4
S'distance'
p5
aNaa(lp6
S'timestamp'
p7
aF2.0390679836273193
aatp8
Rp9
.ccollections
OrderedDict
p0
((lp1
(lp2
S'state'
p3
aI400
aa(lp4
S'distance'
p5
aNaa(lp6
S'timestamp'
p7
aF2.040395975112915
aatp8
Rp9
.ccollections
OrderedDict
p0
((lp1
(lp2
S'state'
p3
aI400
aa(lp4
S'distance'
p5
aNaa(lp6
S'timestamp'
p7
aF2.0489749908447266
aatp8
Rp9
.ccollections
OrderedDict
p0
((lp1
(lp2
S'state'
p3
aI400
aa(lp4
S'distance'
p5
aNaa(lp6
S'timestamp'
p7
aF2.0498931407928467
aatp8
Rp9
.ccollections
OrderedDict
p0
((lp1
(lp2
S'state'
p3
aI400
aa(lp4
S'distance'
p5
aNaa(lp6
S'timestamp'
p7
aF2.059648036956787
aatp8
Rp9
.ccollections
OrderedDict
p0
((lp1
(lp2
S'state'
p3
aI400
aa(lp4
S'distance'
p5
aNaa(lp6
S'timestamp'
p7
aF2.0604171752929688
aatp8
Rp9
.ccollections
OrderedDict
p0
((lp1
(lp2
S'state'
p3
aI400
aa(lp4
S'distance'
p5
aNaa(lp6
S'timestamp'
p7
aF2.0683610439300537
aatp8
Rp9
.ccollections
OrderedDict
p0
((lp1
(lp2
S'state'
p3
aI400
aa(lp4
S'distance'
p5
aNaa(lp6
S'timestamp'
p7
aF2.0686511993408203
aatp8
Rp9
.ccollections
OrderedDict
p0
((lp1
(lp2
S'state'
p3
aI400
aa(lp4
S'distance'
p5
aNaa(lp6
S'timestamp'
p7
aF2.0778520107269287
aatp8
Rp9
.ccollections
OrderedDict
p0
((lp1
(lp2
S'state'
p3
aI400
aa(lp4
S'distance'
p5
aNaa(lp6
S'timestamp'
p7
aF2.0786471366882324
aatp8
Rp9
.ccollections
OrderedDict
p0
((lp1
(lp2
S'state'
p3
aI400
aa(lp4
S'distance'
p5
aNaa(lp6
S'timestamp'
p7
aF2.0878891944885254
aatp8
Rp9
.ccollections
OrderedDict
p0
((lp1
(lp2
S'state'
p3
aI400
aa(lp4
S'distance'
p5
aNaa(lp6
S'timestamp'
p7
aF2.088635206222534
aatp8
Rp9
.ccollections
OrderedDict
p0
((lp1
(lp2
S'state'
p3
aI400
aa(lp4
S'distance'
p5
aNaa(lp6
S'timestamp'
p7
aF2.097943067550659
aatp8
Rp9
.ccollections
OrderedDict
p0
((lp1
(lp2
S'state'
p3
aI400
aa(lp4
S'distance'
p5
aNaa(lp6
S'timestamp'
p7
aF2.0986011028289795
aatp8
Rp9
.ccollections
OrderedDict
p0
((lp1
(lp2
S'state'
p3
aI400
aa(lp4
S'distance'
p5
aNaa(lp6
S'timestamp'
p7
aF2.1082401275634766
aatp8
Rp9
.ccollections
OrderedDict
p0
((lp1
(lp2
S'state'
p3
aI400
aa(lp4
S'distance'
p5
aNaa(lp6
S'timestamp'
p7
aF2.108445167541504
aatp8
Rp9
.ccollections
OrderedDict
p0
((lp1
(lp2
S'state'
p3
aI400
aa(lp4
S'distance'
p5
aNaa(lp6
S'timestamp'
p7
aF2.1186439990997314
aatp8
Rp9
.ccollections
OrderedDict
p0
((lp1
(lp2
S'state'
p3
aI400
aa(lp4
S'distance'
p5
aNaa(lp6
S'timestamp'
p7
aF2.1188161373138428
aatp8
Rp9
.ccollections
OrderedDict
p0
((lp1
(lp2
S'state'
p3
aI400
aa(lp4
S'distance'
p5
aNaa(lp6
S'timestamp'
p7
aF2.127857208251953
aatp8
Rp9
.ccollections
OrderedDict
p0
((lp1
(lp2
S'state'
p3
aI400
aa(lp4
S'distance'
p5
aNaa(lp6
S'timestamp'
p7
aF2.128347158432007
aatp8
Rp9
.ccollections
OrderedDict
p0
((lp1
(lp2
S'state'
p3
aI400
aa(lp4
S'distance'
p5
aNaa(lp6
S'timestamp'
p7
aF2.1382081508636475
aatp8
Rp9
.ccollections
OrderedDict
p0
((lp1
(lp2
S'state'
p3
aI400
aa(lp4
S'distance'
p5
aNaa(lp6
S'timestamp'
p7
aF2.139552116394043
aatp8
Rp9
.ccollections
OrderedDict
p0
((lp1
(lp2
S'state'
p3
aI400
aa(lp4
S'distance'
p5
aNaa(lp6
S'timestamp'
p7
aF2.1488001346588135
aatp8
Rp9
.ccollections
OrderedDict
p0
((lp1
(lp2
S'state'
p3
aI400
aa(lp4
S'distance'
p5
aNaa(lp6
S'timestamp'
p7
aF2.149867057800293
aatp8
Rp9
.ccollections
OrderedDict
p0
((lp1
(lp2
S'state'
p3
aI400
aa(lp4
S'distance'
p5
aNaa(lp6
S'timestamp'
p7
aF2.161792039871216
aatp8
Rp9
.ccollections
OrderedDict
p0
((lp1
(lp2
S'state'
p3
aI400
aa(lp4
S'distance'
p5
aNaa(lp6
S'timestamp'
p7
aF2.162095069885254
aatp8
Rp9
.ccollections
OrderedDict
p0
((lp1
(lp2
S'state'
p3
aI400
aa(lp4
S'distance'
p5
aNaa(lp6
S'timestamp'
p7
aF2.168606996536255
aatp8
Rp9
.ccollections
OrderedDict
p0
((lp1
(lp2
S'state'
p3
aI400
aa(lp4
S'distance'
p5
aNaa(lp6
S'timestamp'
p7
aF2.16886305809021
aatp8
Rp9
.ccollections
OrderedDict
p0
((lp1
(lp2
S'state'
p3
aI400
aa(lp4
S'distance'
p5
aNaa(lp6
S'timestamp'
p7
aF2.178532123565674
aatp8
Rp9
.ccollections
OrderedDict
p0
((lp1
(lp2
S'state'
p3
aI400
aa(lp4
S'distance'
p5
aNaa(lp6
S'timestamp'
p7
aF2.1786651611328125
aatp8
Rp9
.ccollections
OrderedDict
p0
((lp1
(lp2
S'state'
p3
aI400
aa(lp4
S'distance'
p5
aNaa(lp6
S'timestamp'
p7
aF2.1883480548858643
aatp8
Rp9
.ccollections
OrderedDict
p0
((lp1
(lp2
S'state'
p3
aI400
aa(lp4
S'distance'
p5
aNaa(lp6
S'timestamp'
p7
aF2.188516139984131
aatp8
Rp9
.ccollections
OrderedDict
p0
((lp1
(lp2
S'state'
p3
aI400
aa(lp4
S'distance'
p5
aNaa(lp6
S'timestamp'
p7
aF2.197843074798584
aatp8
Rp9
.ccollections
OrderedDict
p0
((lp1
(lp2
S'state'
p3
aI400
aa(lp4
S'distance'
p5
aNaa(lp6
S'timestamp'
p7
aF2.1983821392059326
aatp8
Rp9
.ccollections
OrderedDict
p0
((lp1
(lp2
S'state'
p3
aI400
aa(lp4
S'distance'
p5
aNaa(lp6
S'timestamp'
p7
aF2.208031177520752
aatp8
Rp9
.ccollections
OrderedDict
p0
((lp1
(lp2
S'state'
p3
aI400
aa(lp4
S'distance'
p5
aNaa(lp6
S'timestamp'
p7
aF2.2087600231170654
aatp8
Rp9
.ccollections
OrderedDict
p0
((lp1
(lp2
S'state'
p3
aI400
aa(lp4
S'distance'
p5
aNaa(lp6
S'timestamp'
p7
aF2.2283501625061035
aatp8
Rp9
.ccollections
OrderedDict
p0
((lp1
(lp2
S'state'
p3
aI400
aa(lp4
S'distance'
p5
aNaa(lp6
S'timestamp'
p7
aF2.228538990020752
aatp8
Rp9
.ccollections
OrderedDict
p0
((lp1
(lp2
S'state'
p3
aI400
aa(lp4
S'distance'
p5
aNaa(lp6
S'timestamp'
p7
aF2.2294650077819824
aatp8
Rp9
.ccollections
OrderedDict
p0
((lp1
(lp2
S'state'
p3
aI400
aa(lp4
S'distance'
p5
aNaa(lp6
S'timestamp'
p7
aF2.2301971912384033
aatp8
Rp9
.ccollections
OrderedDict
p0
((lp1
(lp2
S'state'
p3
aI400
aa(lp4
S'distance'
p5
aNaa(lp6
S'timestamp'
p7
aF2.2378292083740234
aatp8
Rp9
.ccollections
OrderedDict
p0
((lp1
(lp2
S'state'
p3
aI400
aa(lp4
S'distance'
p5
aNaa(lp6
S'timestamp'
p7
aF2.238619089126587
aatp8
Rp9
.ccollections
OrderedDict
p0
((lp1
(lp2
S'state'
p3
aI400
aa(lp4
S'distance'
p5
aNaa(lp6
S'timestamp'
p7
aF2.2479050159454346
aatp8
Rp9
.ccollections
OrderedDict
p0
((lp1
(lp2
S'state'
p3
aI400
aa(lp4
S'distance'
p5
aNaa(lp6
S'timestamp'
p7
aF2.248345136642456
aatp8
Rp9
.ccollections
OrderedDict
p0
((lp1
(lp2
S'state'
p3
aI400
aa(lp4
S'distance'
p5
aNaa(lp6
S'timestamp'
p7
aF2.2579710483551025
aatp8
Rp9
.ccollections
OrderedDict
p0
((lp1
(lp2
S'state'
p3
aI400
aa(lp4
S'distance'
p5
aNaa(lp6
S'timestamp'
p7
aF2.2585740089416504
aatp8
Rp9
.ccollections
OrderedDict
p0
((lp1
(lp2
S'state'
p3
aI400
aa(lp4
S'distance'
p5
aNaa(lp6
S'timestamp'
p7
aF2.268968105316162
aatp8
Rp9
.ccollections
OrderedDict
p0
((lp1
(lp2
S'state'
p3
aI400
aa(lp4
S'distance'
p5
aNaa(lp6
S'timestamp'
p7
aF2.2692441940307617
aatp8
Rp9
.ccollections
OrderedDict
p0
((lp1
(lp2
S'state'
p3
aI400
aa(lp4
S'distance'
p5
aNaa(lp6
S'timestamp'
p7
aF2.2776451110839844
aatp8
Rp9
.ccollections
OrderedDict
p0
((lp1
(lp2
S'state'
p3
aI400
aa(lp4
S'distance'
p5
aNaa(lp6
S'timestamp'
p7
aF2.2782251834869385
aatp8
Rp9
.ccollections
OrderedDict
p0
((lp1
(lp2
S'state'
p3
aI400
aa(lp4
S'distance'
p5
aNaa(lp6
S'timestamp'
p7
aF2.2877349853515625
aatp8
Rp9
.ccollections
OrderedDict
p0
((lp1
(lp2
S'state'
p3
aI400
aa(lp4
S'distance'
p5
aNaa(lp6
S'timestamp'
p7
aF2.288220167160034
aatp8
Rp9
.ccollections
OrderedDict
p0
((lp1
(lp2
S'state'
p3
aI400
aa(lp4
S'distance'
p5
aNaa(lp6
S'timestamp'
p7
aF2.297600030899048
aatp8
Rp9
.ccollections
OrderedDict
p0
((lp1
(lp2
S'state'
p3
aI400
aa(lp4
S'distance'
p5
aNaa(lp6
S'timestamp'
p7
aF2.2982301712036133
aatp8
Rp9
.ccollections
OrderedDict
p0
((lp1
(lp2
S'state'
p3
aI400
aa(lp4
S'distance'
p5
aNaa(lp6
S'timestamp'
p7
aF2.3075551986694336
aatp8
Rp9
.ccollections
OrderedDict
p0
((lp1
(lp2
S'state'
p3
aI400
aa(lp4
S'distance'
p5
aNaa(lp6
S'timestamp'
p7
aF2.308305025100708
aatp8
Rp9
.ccollections
OrderedDict
p0
((lp1
(lp2
S'state'
p3
aI400
aa(lp4
S'distance'
p5
aNaa(lp6
S'timestamp'
p7
aF2.3181841373443604
aatp8
Rp9
.ccollections
OrderedDict
p0
((lp1
(lp2
S'state'
p3
aI400
aa(lp4
S'distance'
p5
aNaa(lp6
S'timestamp'
p7
aF2.318533182144165
aatp8
Rp9
.ccollections
OrderedDict
p0
((lp1
(lp2
S'state'
p3
aI400
aa(lp4
S'distance'
p5
aNaa(lp6
S'timestamp'
p7
aF2.32791805267334
aatp8
Rp9
.ccollections
OrderedDict
p0
((lp1
(lp2
S'state'
p3
aI400
aa(lp4
S'distance'
p5
aNaa(lp6
S'timestamp'
p7
aF2.3283090591430664
aatp8
Rp9
.ccollections
OrderedDict
p0
((lp1
(lp2
S'state'
p3
aI400
aa(lp4
S'distance'
p5
aNaa(lp6
S'timestamp'
p7
aF2.338637113571167
aatp8
Rp9
.ccollections
OrderedDict
p0
((lp1
(lp2
S'state'
p3
aI400
aa(lp4
S'distance'
p5
aNaa(lp6
S'timestamp'
p7
aF2.3388030529022217
aatp8
Rp9
.ccollections
OrderedDict
p0
((lp1
(lp2
S'state'
p3
aI400
aa(lp4
S'distance'
p5
aNaa(lp6
S'timestamp'
p7
aF2.3481810092926025
aatp8
Rp9
.ccollections
OrderedDict
p0
((lp1
(lp2
S'state'
p3
aI400
aa(lp4
S'distance'
p5
aNaa(lp6
S'timestamp'
p7
aF2.348736047744751
aatp8
Rp9
.ccollections
OrderedDict
p0
((lp1
(lp2
S'state'
p3
aI400
aa(lp4
S'distance'
p5
aNaa(lp6
S'timestamp'
p7
aF2.3578200340270996
aatp8
Rp9
.ccollections
OrderedDict
p0
((lp1
(lp2
S'state'
p3
aI400
aa(lp4
S'distance'
p5
aNaa(lp6
S'timestamp'
p7
aF2.3582041263580322
aatp8
Rp9
.ccollections
OrderedDict
p0
((lp1
(lp2
S'state'
p3
aI400
aa(lp4
S'distance'
p5
aNaa(lp6
S'timestamp'
p7
aF2.3676931858062744
aatp8
Rp9
.ccollections
OrderedDict
p0
((lp1
(lp2
S'state'
p3
aI400
aa(lp4
S'distance'
p5
aNaa(lp6
S'timestamp'
p7
aF2.368561029434204
aatp8
Rp9
.ccollections
OrderedDict
p0
((lp1
(lp2
S'state'
p3
aI400
aa(lp4
S'distance'
p5
aNaa(lp6
S'timestamp'
p7
aF2.3776681423187256
aatp8
Rp9
.ccollections
OrderedDict
p0
((lp1
(lp2
S'state'
p3
aI400
aa(lp4
S'distance'
p5
aNaa(lp6
S'timestamp'
p7
aF2.3781790733337402
aatp8
Rp9
.ccollections
OrderedDict
p0
((lp1
(lp2
S'state'
p3
aI400
aa(lp4
S'distance'
p5
aNaa(lp6
S'timestamp'
p7
aF2.387608051300049
aatp8
Rp9
.ccollections
OrderedDict
p0
((lp1
(lp2
S'state'
p3
aI400
aa(lp4
S'distance'
p5
aNaa(lp6
S'timestamp'
p7
aF2.3882501125335693
aatp8
Rp9
.ccollections
OrderedDict
p0
((lp1
(lp2
S'state'
p3
aI400
aa(lp4
S'distance'
p5
aNaa(lp6
S'timestamp'
p7
aF2.3984451293945312
aatp8
Rp9
.ccollections
OrderedDict
p0
((lp1
(lp2
S'state'
p3
aI400
aa(lp4
S'distance'
p5
aNaa(lp6
S'timestamp'
p7
aF2.3988261222839355
aatp8
Rp9
.ccollections
OrderedDict
p0
((lp1
(lp2
S'state'
p3
aI400
aa(lp4
S'distance'
p5
aNaa(lp6
S'timestamp'
p7
aF2.408172130584717
aatp8
Rp9
.ccollections
OrderedDict
p0
((lp1
(lp2
S'state'
p3
aI400
aa(lp4
S'distance'
p5
aNaa(lp6
S'timestamp'
p7
aF2.409419059753418
aatp8
Rp9
.ccollections
OrderedDict
p0
((lp1
(lp2
S'state'
p3
aI400
aa(lp4
S'distance'
p5
aNaa(lp6
S'timestamp'
p7
aF2.4190289974212646
aatp8
Rp9
.ccollections
OrderedDict
p0
((lp1
(lp2
S'state'
p3
aI400
aa(lp4
S'distance'
p5
aNaa(lp6
S'timestamp'
p7
aF2.4204840660095215
aatp8
Rp9
.ccollections
OrderedDict
p0
((lp1
(lp2
S'state'
p3
aI400
aa(lp4
S'distance'
p5
aNaa(lp6
S'timestamp'
p7
aF2.429047107696533
aatp8
Rp9
.ccollections
OrderedDict
p0
((lp1
(lp2
S'state'
p3
aI400
aa(lp4
S'distance'
p5
aNaa(lp6
S'timestamp'
p7
aF2.4298760890960693
aatp8
Rp9
.ccollections
OrderedDict
p0
((lp1
(lp2
S'state'
p3
aI400
aa(lp4
S'distance'
p5
aNaa(lp6
S'timestamp'
p7
aF2.4394969940185547
aatp8
Rp9
.ccollections
OrderedDict
p0
((lp1
(lp2
S'state'
p3
aI400
aa(lp4
S'distance'
p5
aNaa(lp6
S'timestamp'
p7
aF2.4397430419921875
aatp8
Rp9
.ccollections
OrderedDict
p0
((lp1
(lp2
S'state'
p3
aI400
aa(lp4
S'distance'
p5
aNaa(lp6
S'timestamp'
p7
aF2.448740005493164
aatp8
Rp9
.ccollections
OrderedDict
p0
((lp1
(lp2
S'state'
p3
aI400
aa(lp4
S'distance'
p5
aNaa(lp6
S'timestamp'
p7
aF2.44885516166687
aatp8
Rp9
.ccollections
OrderedDict
p0
((lp1
(lp2
S'state'
p3
aI400
aa(lp4
S'distance'
p5
aNaa(lp6
S'timestamp'
p7
aF2.4595301151275635
aatp8
Rp9
.ccollections
OrderedDict
p0
((lp1
(lp2
S'state'
p3
aI400
aa(lp4
S'distance'
p5
aNaa(lp6
S'timestamp'
p7
aF2.459984064102173
aatp8
Rp9
.ccollections
OrderedDict
p0
((lp1
(lp2
S'state'
p3
aI400
aa(lp4
S'distance'
p5
aNaa(lp6
S'timestamp'
p7
aF2.469336986541748
aatp8
Rp9
.ccollections
OrderedDict
p0
((lp1
(lp2
S'state'
p3
aI400
aa(lp4
S'distance'
p5
aNaa(lp6
S'timestamp'
p7
aF2.4694650173187256
aatp8
Rp9
.ccollections
OrderedDict
p0
((lp1
(lp2
S'state'
p3
aI400
aa(lp4
S'distance'
p5
aNaa(lp6
S'timestamp'
p7
aF2.478264093399048
aatp8
Rp9
.ccollections
OrderedDict
p0
((lp1
(lp2
S'state'
p3
aI400
aa(lp4
S'distance'
p5
aNaa(lp6
S'timestamp'
p7
aF2.478468179702759
aatp8
Rp9
.ccollections
OrderedDict
p0
((lp1
(lp2
S'state'
p3
aI400
aa(lp4
S'distance'
p5
aNaa(lp6
S'timestamp'
p7
aF2.490622043609619
aatp8
Rp9
.ccollections
OrderedDict
p0
((lp1
(lp2
S'state'
p3
aI400
aa(lp4
S'distance'
p5
aNaa(lp6
S'timestamp'
p7
aF2.490812063217163
aatp8
Rp9
.ccollections
OrderedDict
p0
((lp1
(lp2
S'state'
p3
aI400
aa(lp4
S'distance'
p5
aNaa(lp6
S'timestamp'
p7
aF2.500286102294922
aatp8
Rp9
.ccollections
OrderedDict
p0
((lp1
(lp2
S'state'
p3
aI400
aa(lp4
S'distance'
p5
aNaa(lp6
S'timestamp'
p7
aF2.5023109912872314
aatp8
Rp9
.ccollections
OrderedDict
p0
((lp1
(lp2
S'state'
p3
aI400
aa(lp4
S'distance'
p5
aNaa(lp6
S'timestamp'
p7
aF2.5100131034851074
aatp8
Rp9
.ccollections
OrderedDict
p0
((lp1
(lp2
S'state'
p3
aI400
aa(lp4
S'distance'
p5
aNaa(lp6
S'timestamp'
p7
aF2.510690212249756
aatp8
Rp9
.ccollections
OrderedDict
p0
((lp1
(lp2
S'state'
p3
aI400
aa(lp4
S'distance'
p5
aNaa(lp6
S'timestamp'
p7
aF2.522395133972168
aatp8
Rp9
.ccollections
OrderedDict
p0
((lp1
(lp2
S'state'
p3
aI400
aa(lp4
S'distance'
p5
aNaa(lp6
S'timestamp'
p7
aF2.5231590270996094
aatp8
Rp9
.ccollections
OrderedDict
p0
((lp1
(lp2
S'state'
p3
aI400
aa(lp4
S'distance'
p5
aNaa(lp6
S'timestamp'
p7
aF2.5307090282440186
aatp8
Rp9
.ccollections
OrderedDict
p0
((lp1
(lp2
S'state'
p3
aI400
aa(lp4
S'distance'
p5
aNaa(lp6
S'timestamp'
p7
aF2.532379150390625
aatp8
Rp9
.ccollections
OrderedDict
p0
((lp1
(lp2
S'state'
p3
aI400
aa(lp4
S'distance'
p5
aNaa(lp6
S'timestamp'
p7
aF2.5388782024383545
aatp8
Rp9
.ccollections
OrderedDict
p0
((lp1
(lp2
S'state'
p3
aI400
aa(lp4
S'distance'
p5
aNaa(lp6
S'timestamp'
p7
aF2.53902006149292
aatp8
Rp9
.ccollections
OrderedDict
p0
((lp1
(lp2
S'state'
p3
aI400
aa(lp4
S'distance'
p5
aNaa(lp6
S'timestamp'
p7
aF2.5478320121765137
aatp8
Rp9
.ccollections
OrderedDict
p0
((lp1
(lp2
S'state'
p3
aI400
aa(lp4
S'distance'
p5
aNaa(lp6
S'timestamp'
p7
aF2.5492889881134033
aatp8
Rp9
.ccollections
OrderedDict
p0
((lp1
(lp2
S'state'
p3
aI400
aa(lp4
S'distance'
p5
aNaa(lp6
S'timestamp'
p7
aF2.5578160285949707
aatp8
Rp9
.ccollections
OrderedDict
p0
((lp1
(lp2
S'state'
p3
aI400
aa(lp4
S'distance'
p5
aNaa(lp6
S'timestamp'
p7
aF2.559216022491455
aatp8
Rp9
.ccollections
OrderedDict
p0
((lp1
(lp2
S'state'
p3
aI400
aa(lp4
S'distance'
p5
aNaa(lp6
S'timestamp'
p7
aF2.5686941146850586
aatp8
Rp9
.ccollections
OrderedDict
p0
((lp1
(lp2
S'state'
p3
aI400
aa(lp4
S'distance'
p5
aNaa(lp6
S'timestamp'
p7
aF2.5694870948791504
aatp8
Rp9
.ccollections
OrderedDict
p0
((lp1
(lp2
S'state'
p3
aI0
aa(lp4
S'distance'
p5
aNaa(lp6
S'timestamp'
p7
aF3.1898820400238037
aatp8
Rp9
.ccollections
OrderedDict
p0
((lp1
(lp2
S'state'
p3
aI0
aa(lp4
S'distance'
p5
aNaa(lp6
S'timestamp'
p7
aF3.190122127532959
aatp8
Rp9
.ccollections
OrderedDict
p0
((lp1
(lp2
S'state'
p3
aI0
aa(lp4
S'distance'
p5
aNaa(lp6
S'timestamp'
p7
aF3.206888198852539
aatp8
Rp9
.ccollections
OrderedDict
p0
((lp1
(lp2
S'state'
p3
aI0
aa(lp4
S'distance'
p5
aNaa(lp6
S'timestamp'
p7
aF3.2201480865478516
aatp8
Rp9
.ccollections
OrderedDict
p0
((lp1
(lp2
S'state'
p3
aI0
aa(lp4
S'distance'
p5
aNaa(lp6
S'timestamp'
p7
aF3.2203900814056396
aatp8
Rp9
.ccollections
OrderedDict
p0
((lp1
(lp2
S'state'
p3
aI0
aa(lp4
S'distance'
p5
aNaa(lp6
S'timestamp'
p7
aF3.220586061477661
aatp8
Rp9
.ccollections
OrderedDict
p0
((lp1
(lp2
S'state'
p3
aI0
aa(lp4
S'distance'
p5
aNaa(lp6
S'timestamp'
p7
aF3.2281270027160645
aatp8
Rp9
.ccollections
OrderedDict
p0
((lp1
(lp2
S'state'
p3
aI0
aa(lp4
S'distance'
p5
aNaa(lp6
S'timestamp'
p7
aF3.228243112564087
aatp8
Rp9
.ccollections
OrderedDict
p0
((lp1
(lp2
S'state'
p3
aI0
aa(lp4
S'distance'
p5
aNaa(lp6
S'timestamp'
p7
aF3.2294490337371826
aatp8
Rp9
.ccollections
OrderedDict
p0
((lp1
(lp2
S'state'
p3
aI0
aa(lp4
S'distance'
p5
aNaa(lp6
S'timestamp'
p7
aF3.2302560806274414
aatp8
Rp9
.ccollections
OrderedDict
p0
((lp1
(lp2
S'state'
p3
aI0
aa(lp4
S'distance'
p5
aNaa(lp6
S'timestamp'
p7
aF3.2401621341705322
aatp8
Rp9
.ccollections
OrderedDict
p0
((lp1
(lp2
S'state'
p3
aI0
aa(lp4
S'distance'
p5
aNaa(lp6
S'timestamp'
p7
aF3.2403900623321533
aatp8
Rp9
.ccollections
OrderedDict
p0
((lp1
(lp2
S'state'
p3
aI0
aa(lp4
S'distance'
p5
aNaa(lp6
S'timestamp'
p7
aF3.2476160526275635
aatp8
Rp9
.ccollections
OrderedDict
p0
((lp1
(lp2
S'state'
p3
aI0
aa(lp4
S'distance'
p5
aNaa(lp6
S'timestamp'
p7
aF3.248509168624878
aatp8
Rp9
.ccollections
OrderedDict
p0
((lp1
(lp2
S'state'
p3
aI0
aa(lp4
S'distance'
p5
aNaa(lp6
S'timestamp'
p7
aF3.2588860988616943
aatp8
Rp9
.ccollections
OrderedDict
p0
((lp1
(lp2
S'state'
p3
aI0
aa(lp4
S'distance'
p5
aNaa(lp6
S'timestamp'
p7
aF3.258998155593872
aatp8
Rp9
.ccollections
OrderedDict
p0
((lp1
(lp2
S'state'
p3
aI0
aa(lp4
S'distance'
p5
aNaa(lp6
S'timestamp'
p7
aF3.3091092109680176
aatp8
Rp9
.ccollections
OrderedDict
p0
((lp1
(lp2
S'state'
p3
aI0
aa(lp4
S'distance'
p5
aNaa(lp6
S'timestamp'
p7
aF3.3094141483306885
aatp8
Rp9
.ccollections
OrderedDict
p0
((lp1
(lp2
S'state'
p3
aI0
aa(lp4
S'distance'
p5
aNaa(lp6
S'timestamp'
p7
aF3.3098042011260986
aatp8
Rp9
.ccollections
OrderedDict
p0
((lp1
(lp2
S'state'
p3
aI0
aa(lp4
S'distance'
p5
aNaa(lp6
S'timestamp'
p7
aF3.310826063156128
aatp8
Rp9
.ccollections
OrderedDict
p0
((lp1
(lp2
S'state'
p3
aI0
aa(lp4
S'distance'
p5
aNaa(lp6
S'timestamp'
p7
aF3.3114280700683594
aatp8
Rp9
.ccollections
OrderedDict
p0
((lp1
(lp2
S'state'
p3
aI0
aa(lp4
S'distance'
p5
aNaa(lp6
S'timestamp'
p7
aF3.3115501403808594
aatp8
Rp9
.ccollections
OrderedDict
p0
((lp1
(lp2
S'state'
p3
aI0
aa(lp4
S'distance'
p5
aNaa(lp6
S'timestamp'
p7
aF3.31257700920105
aatp8
Rp9
.ccollections
OrderedDict
p0
((lp1
(lp2
S'state'
p3
aI0
aa(lp4
S'distance'
p5
aNaa(lp6
S'timestamp'
p7
aF3.3138580322265625
aatp8
Rp9
.ccollections
OrderedDict
p0
((lp1
(lp2
S'state'
p3
aI0
aa(lp4
S'distance'
p5
aNaa(lp6
S'timestamp'
p7
aF3.3140640258789062
aatp8
Rp9
.ccollections
OrderedDict
p0
((lp1
(lp2
S'state'
p3
aI0
aa(lp4
S'distance'
p5
aNaa(lp6
S'timestamp'
p7
aF3.314225196838379
aatp8
Rp9
.ccollections
OrderedDict
p0
((lp1
(lp2
S'state'
p3
aI0
aa(lp4
S'distance'
p5
aNaa(lp6
S'timestamp'
p7
aF3.3177831172943115
aatp8
Rp9
.ccollections
OrderedDict
p0
((lp1
(lp2
S'state'
p3
aI0
aa(lp4
S'distance'
p5
aNaa(lp6
S'timestamp'
p7
aF3.3183510303497314
aatp8
Rp9
.ccollections
OrderedDict
p0
((lp1
(lp2
S'state'
p3
aI0
aa(lp4
S'distance'
p5
aNaa(lp6
S'timestamp'
p7
aF3.3277320861816406
aatp8
Rp9
.ccollections
OrderedDict
p0
((lp1
(lp2
S'state'
p3
aI0
aa(lp4
S'distance'
p5
aNaa(lp6
S'timestamp'
p7
aF3.3295130729675293
aatp8
Rp9
.ccollections
OrderedDict
p0
((lp1
(lp2
S'state'
p3
aI0
aa(lp4
S'distance'
p5
aNaa(lp6
S'timestamp'
p7
aF3.3376591205596924
aatp8
Rp9
.ccollections
OrderedDict
p0
((lp1
(lp2
S'state'
p3
aI0
aa(lp4
S'distance'
p5
aNaa(lp6
S'timestamp'
p7
aF3.3382070064544678
aatp8
Rp9
.ccollections
OrderedDict
p0
((lp1
(lp2
S'state'
p3
aI0
aa(lp4
S'distance'
p5
aNaa(lp6
S'timestamp'
p7
aF3.347513198852539
aatp8
Rp9
.ccollections
OrderedDict
p0
((lp1
(lp2
S'state'
p3
aI0
aa(lp4
S'distance'
p5
aNaa(lp6
S'timestamp'
p7
aF3.348215103149414
aatp8
Rp9
.ccollections
OrderedDict
p0
((lp1
(lp2
S'state'
p3
aI0
aa(lp4
S'distance'
p5
aNaa(lp6
S'timestamp'
p7
aF3.357485055923462
aatp8
Rp9
.ccollections
OrderedDict
p0
((lp1
(lp2
S'state'
p3
aI0
aa(lp4
S'distance'
p5
aNaa(lp6
S'timestamp'
p7
aF3.3581271171569824
aatp8
Rp9
.ccollections
OrderedDict
p0
((lp1
(lp2
S'state'
p3
aI0
aa(lp4
S'distance'
p5
aNaa(lp6
S'timestamp'
p7
aF3.3677711486816406
aatp8
Rp9
.ccollections
OrderedDict
p0
((lp1
(lp2
S'state'
p3
aI0
aa(lp4
S'distance'
p5
aNaa(lp6
S'timestamp'
p7
aF3.3681840896606445
aatp8
Rp9
.ccollections
OrderedDict
p0
((lp1
(lp2
S'state'
p3
aI0
aa(lp4
S'distance'
p5
aNaa(lp6
S'timestamp'
p7
aF3.3782260417938232
aatp8
Rp9
.ccollections
OrderedDict
p0
((lp1
(lp2
S'state'
p3
aI0
aa(lp4
S'distance'
p5
aNaa(lp6
S'timestamp'
p7
aF3.3789260387420654
aatp8
Rp9
.ccollections
OrderedDict
p0
((lp1
(lp2
S'state'
p3
aI0
aa(lp4
S'distance'
p5
aNaa(lp6
S'timestamp'
p7
aF3.388942003250122
aatp8
Rp9
.ccollections
OrderedDict
p0
((lp1
(lp2
S'state'
p3
aI0
aa(lp4
S'distance'
p5
aNaa(lp6
S'timestamp'
p7
aF3.3890230655670166
aatp8
Rp9
.ccollections
OrderedDict
p0
((lp1
(lp2
S'state'
p3
aI0
aa(lp4
S'distance'
p5
aNaa(lp6
S'timestamp'
p7
aF3.3977510929107666
aatp8
Rp9
.ccollections
OrderedDict
p0
((lp1
(lp2
S'state'
p3
aI0
aa(lp4
S'distance'
p5
aNaa(lp6
S'timestamp'
p7
aF3.398203134536743
aatp8
Rp9
.ccollections
OrderedDict
p0
((lp1
(lp2
S'state'
p3
aI0
aa(lp4
S'distance'
p5
aNaa(lp6
S'timestamp'
p7
aF3.4080071449279785
aatp8
Rp9
.ccollections
OrderedDict
p0
((lp1
(lp2
S'state'
p3
aI0
aa(lp4
S'distance'
p5
aNaa(lp6
S'timestamp'
p7
aF3.4081380367279053
aatp8
Rp9
.ccollections
OrderedDict
p0
((lp1
(lp2
S'state'
p3
aI0
aa(lp4
S'distance'
p5
aNaa(lp6
S'timestamp'
p7
aF3.418166160583496
aatp8
Rp9
.ccollections
OrderedDict
p0
((lp1
(lp2
S'state'
p3
aI0
aa(lp4
S'distance'
p5
aNaa(lp6
S'timestamp'
p7
aF3.4182450771331787
aatp8
Rp9
.ccollections
OrderedDict
p0
((lp1
(lp2
S'state'
p3
aI0
aa(lp4
S'distance'
p5
aNaa(lp6
S'timestamp'
p7
aF3.42887020111084
aatp8
Rp9
.ccollections
OrderedDict
p0
((lp1
(lp2
S'state'
p3
aI0
aa(lp4
S'distance'
p5
aNaa(lp6
S'timestamp'
p7
aF3.4291582107543945
aatp8
Rp9
.ccollections
OrderedDict
p0
((lp1
(lp2
S'state'
p3
aI0
aa(lp4
S'distance'
p5
aNaa(lp6
S'timestamp'
p7
aF3.4397289752960205
aatp8
Rp9
.ccollections
OrderedDict
p0
((lp1
(lp2
S'state'
p3
aI0
aa(lp4
S'distance'
p5
aNaa(lp6
S'timestamp'
p7
aF3.4402360916137695
aatp8
Rp9
.ccollections
OrderedDict
p0
((lp1
(lp2
S'state'
p3
aI0
aa(lp4
S'distance'
p5
aNaa(lp6
S'timestamp'
p7
aF3.4592041969299316
aatp8
Rp9
.ccollections
OrderedDict
p0
((lp1
(lp2
S'state'
p3
aI0
aa(lp4
S'distance'
p5
aNaa(lp6
S'timestamp'
p7
aF3.4595870971679688
aatp8
Rp9
.ccollections
OrderedDict
p0
((lp1
(lp2
S'state'
p3
aI0
aa(lp4
S'distance'
p5
aNaa(lp6
S'timestamp'
p7
aF3.45977520942688
aatp8
Rp9
.ccollections
OrderedDict
p0
((lp1
(lp2
S'state'
p3
aI0
aa(lp4
S'distance'
p5
aNaa(lp6
S'timestamp'
p7
aF3.459904193878174
aatp8
Rp9
.ccollections
OrderedDict
p0
((lp1
(lp2
S'state'
p3
aI0
aa(lp4
S'distance'
p5
aNaa(lp6
S'timestamp'
p7
aF3.468398094177246
aatp8
Rp9
.ccollections
OrderedDict
p0
((lp1
(lp2
S'state'
p3
aI0
aa(lp4
S'distance'
p5
aNaa(lp6
S'timestamp'
p7
aF3.4685051441192627
aatp8
Rp9
.ccollections
OrderedDict
p0
((lp1
(lp2
S'state'
p3
aI0
aa(lp4
S'distance'
p5
aNaa(lp6
S'timestamp'
p7
aF3.4880809783935547
aatp8
Rp9
.ccollections
OrderedDict
p0
((lp1
(lp2
S'state'
p3
aI0
aa(lp4
S'distance'
p5
aNaa(lp6
S'timestamp'
p7
aF3.488337993621826
aatp8
Rp9
.ccollections
OrderedDict
p0
((lp1
(lp2
S'state'
p3
aI0
aa(lp4
S'distance'
p5
aNaa(lp6
S'timestamp'
p7
aF3.4884090423583984
aatp8
Rp9
.ccollections
OrderedDict
p0
((lp1
(lp2
S'state'
p3
aI0
aa(lp4
S'distance'
p5
aNaa(lp6
S'timestamp'
p7
aF3.489593029022217
aatp8
Rp9
.ccollections
OrderedDict
p0
((lp1
(lp2
S'state'
p3
aI0
aa(lp4
S'distance'
p5
aNaa(lp6
S'timestamp'
p7
aF3.5088391304016113
aatp8
Rp9
.ccollections
OrderedDict
p0
((lp1
(lp2
S'state'
p3
aI0
aa(lp4
S'distance'
p5
aNaa(lp6
S'timestamp'
p7
aF3.5089709758758545
aatp8
Rp9
.ccollections
OrderedDict
p0
((lp1
(lp2
S'state'
p3
aI0
aa(lp4
S'distance'
p5
aNaa(lp6
S'timestamp'
p7
aF3.5106441974639893
aatp8
Rp9
.ccollections
OrderedDict
p0
((lp1
(lp2
S'state'
p3
aI0
aa(lp4
S'distance'
p5
aNaa(lp6
S'timestamp'
p7
aF3.5125701427459717
aatp8
Rp9
.ccollections
OrderedDict
p0
((lp1
(lp2
S'state'
p3
aI0
aa(lp4
S'distance'
p5
aNaa(lp6
S'timestamp'
p7
aF3.5181021690368652
aatp8
Rp9
.ccollections
OrderedDict
p0
((lp1
(lp2
S'state'
p3
aI0
aa(lp4
S'distance'
p5
aNaa(lp6
S'timestamp'
p7
aF3.5181801319122314
aatp8
Rp9
.ccollections
OrderedDict
p0
((lp1
(lp2
S'state'
p3
aI0
aa(lp4
S'distance'
p5
aNaa(lp6
S'timestamp'
p7
aF3.5275261402130127
aatp8
Rp9
.ccollections
OrderedDict
p0
((lp1
(lp2
S'state'
p3
aI0
aa(lp4
S'distance'
p5
aNaa(lp6
S'timestamp'
p7
aF3.5280771255493164
aatp8
Rp9
.ccollections
OrderedDict
p0
((lp1
(lp2
S'state'
p3
aI0
aa(lp4
S'distance'
p5
aNaa(lp6
S'timestamp'
p7
aF3.5478391647338867
aatp8
Rp9
.ccollections
OrderedDict
p0
((lp1
(lp2
S'state'
p3
aI0
aa(lp4
S'distance'
p5
aNaa(lp6
S'timestamp'
p7
aF3.5479230880737305
aatp8
Rp9
.ccollections
OrderedDict
p0
((lp1
(lp2
S'state'
p3
aI0
aa(lp4
S'distance'
p5
aNaa(lp6
S'timestamp'
p7
aF3.5490450859069824
aatp8
Rp9
.ccollections
OrderedDict
p0
((lp1
(lp2
S'state'
p3
aI0
aa(lp4
S'distance'
p5
aNaa(lp6
S'timestamp'
p7
aF3.549781084060669
aatp8
Rp9
.ccollections
OrderedDict
p0
((lp1
(lp2
S'state'
p3
aI0
aa(lp4
S'distance'
p5
aNaa(lp6
S'timestamp'
p7
aF3.558927059173584
aatp8
Rp9
.ccollections
OrderedDict
p0
((lp1
(lp2
S'state'
p3
aI0
aa(lp4
S'distance'
p5
aNaa(lp6
S'timestamp'
p7
aF3.559148073196411
aatp8
Rp9
.ccollections
OrderedDict
p0
((lp1
(lp2
S'state'
p3
aI0
aa(lp4
S'distance'
p5
aNaa(lp6
S'timestamp'
p7
aF3.5680761337280273
aatp8
Rp9
.ccollections
OrderedDict
p0
((lp1
(lp2
S'state'
p3
aI0
aa(lp4
S'distance'
p5
aNaa(lp6
S'timestamp'
p7
aF3.5681910514831543
aatp8
Rp9
.ccollections
OrderedDict
p0
((lp1
(lp2
S'state'
p3
aI0
aa(lp4
S'distance'
p5
aNaa(lp6
S'timestamp'
p7
aF3.5881941318511963
aatp8
Rp9
.ccollections
OrderedDict
p0
((lp1
(lp2
S'state'
p3
aI0
aa(lp4
S'distance'
p5
aNaa(lp6
S'timestamp'
p7
aF3.588438034057617
aatp8
Rp9
.ccollections
OrderedDict
p0
((lp1
(lp2
S'state'
p3
aI0
aa(lp4
S'distance'
p5
aNaa(lp6
S'timestamp'
p7
aF3.588560104370117
aatp8
Rp9
.ccollections
OrderedDict
p0
((lp1
(lp2
S'state'
p3
aI0
aa(lp4
S'distance'
p5
aNaa(lp6
S'timestamp'
p7
aF3.58919620513916
aatp8
Rp9
.ccollections
OrderedDict
p0
((lp1
(lp2
S'state'
p3
aI0
aa(lp4
S'distance'
p5
aNaa(lp6
S'timestamp'
p7
aF3.6208460330963135
aatp8
Rp9
.ccollections
OrderedDict
p0
((lp1
(lp2
S'state'
p3
aI400
aa(lp4
S'distance'
p5
aNaa(lp6
S'timestamp'
p7
aF3.6229870319366455
aatp8
Rp9
.ccollections
OrderedDict
p0
((lp1
(lp2
S'state'
p3
aI400
aa(lp4
S'distance'
p5
aNaa(lp6
S'timestamp'
p7
aF3.6255810260772705
aatp8
Rp9
.ccollections
OrderedDict
p0
((lp1
(lp2
S'state'
p3
aI400
aa(lp4
S'distance'
p5
aNaa(lp6
S'timestamp'
p7
aF3.635690212249756
aatp8
Rp9
.ccollections
OrderedDict
p0
((lp1
(lp2
S'state'
p3
aI400
aa(lp4
S'distance'
p5
aNaa(lp6
S'timestamp'
p7
aF3.6359190940856934
aatp8
Rp9
.ccollections
OrderedDict
p0
((lp1
(lp2
S'state'
p3
aI400
aa(lp4
S'distance'
p5
aNaa(lp6
S'timestamp'
p7
aF3.6363420486450195
aatp8
Rp9
.ccollections
OrderedDict
p0
((lp1
(lp2
S'state'
p3
aI400
aa(lp4
S'distance'
p5
aNaa(lp6
S'timestamp'
p7
aF3.636564016342163
aatp8
Rp9
.ccollections
OrderedDict
p0
((lp1
(lp2
S'state'
p3
aI400
aa(lp4
S'distance'
p5
aNaa(lp6
S'timestamp'
p7
aF3.637481212615967
aatp8
Rp9
.ccollections
OrderedDict
p0
((lp1
(lp2
S'state'
p3
aI400
aa(lp4
S'distance'
p5
aNaa(lp6
S'timestamp'
p7
aF3.6405441761016846
aatp8
Rp9
.ccollections
OrderedDict
p0
((lp1
(lp2
S'state'
p3
aI400
aa(lp4
S'distance'
p5
aNaa(lp6
S'timestamp'
p7
aF3.6406850814819336
aatp8
Rp9
.ccollections
OrderedDict
p0
((lp1
(lp2
S'state'
p3
aI400
aa(lp4
S'distance'
p5
aNaa(lp6
S'timestamp'
p7
aF3.6534910202026367
aatp8
Rp9
.ccollections
OrderedDict
p0
((lp1
(lp2
S'state'
p3
aI400
aa(lp4
S'distance'
p5
aNaa(lp6
S'timestamp'
p7
aF3.6538071632385254
aatp8
Rp9
.ccollections
OrderedDict
p0
((lp1
(lp2
S'state'
p3
aI400
aa(lp4
S'distance'
p5
aNaa(lp6
S'timestamp'
p7
aF3.6625430583953857
aatp8
Rp9
.ccollections
OrderedDict
p0
((lp1
(lp2
S'state'
p3
aI400
aa(lp4
S'distance'
p5
aNaa(lp6
S'timestamp'
p7
aF3.665609121322632
aatp8
Rp9
.ccollections
OrderedDict
p0
((lp1
(lp2
S'state'
p3
aI400
aa(lp4
S'distance'
p5
aNaa(lp6
S'timestamp'
p7
aF3.6858789920806885
aatp8
Rp9
.ccollections
OrderedDict
p0
((lp1
(lp2
S'state'
p3
aI400
aa(lp4
S'distance'
p5
aNaa(lp6
S'timestamp'
p7
aF3.6913599967956543
aatp8
Rp9
.ccollections
OrderedDict
p0
((lp1
(lp2
S'state'
p3
aI400
aa(lp4
S'distance'
p5
aNaa(lp6
S'timestamp'
p7
aF3.691927194595337
aatp8
Rp9
.ccollections
OrderedDict
p0
((lp1
(lp2
S'state'
p3
aI400
aa(lp4
S'distance'
p5
aNaa(lp6
S'timestamp'
p7
aF3.692682981491089
aatp8
Rp9
.ccollections
OrderedDict
p0
((lp1
(lp2
S'state'
p3
aI400
aa(lp4
S'distance'
p5
aNaa(lp6
S'timestamp'
p7
aF3.698273181915283
aatp8
Rp9
.ccollections
OrderedDict
p0
((lp1
(lp2
S'state'
p3
aI400
aa(lp4
S'distance'
p5
aNaa(lp6
S'timestamp'
p7
aF3.699907064437866
aatp8
Rp9
.ccollections
OrderedDict
p0
((lp1
(lp2
S'state'
p3
aI400
aa(lp4
S'distance'
p5
aNaa(lp6
S'timestamp'
p7
aF3.701223134994507
aatp8
Rp9
.ccollections
OrderedDict
p0
((lp1
(lp2
S'state'
p3
aI400
aa(lp4
S'distance'
p5
aNaa(lp6
S'timestamp'
p7
aF3.702921152114868
aatp8
Rp9
.ccollections
OrderedDict
p0
((lp1
(lp2
S'state'
p3
aI400
aa(lp4
S'distance'
p5
aNaa(lp6
S'timestamp'
p7
aF3.708872079849243
aatp8
Rp9
.ccollections
OrderedDict
p0
((lp1
(lp2
S'state'
p3
aI400
aa(lp4
S'distance'
p5
aNaa(lp6
S'timestamp'
p7
aF3.70894718170166
aatp8
Rp9
.ccollections
OrderedDict
p0
((lp1
(lp2
S'state'
p3
aI400
aa(lp4
S'distance'
p5
aNaa(lp6
S'timestamp'
p7
aF3.7180590629577637
aatp8
Rp9
.ccollections
OrderedDict
p0
((lp1
(lp2
S'state'
p3
aI400
aa(lp4
S'distance'
p5
aNaa(lp6
S'timestamp'
p7
aF3.7181811332702637
aatp8
Rp9
.ccollections
OrderedDict
p0
((lp1
(lp2
S'state'
p3
aI400
aa(lp4
S'distance'
p5
aNaa(lp6
S'timestamp'
p7
aF3.727750062942505
aatp8
Rp9
.ccollections
OrderedDict
p0
((lp1
(lp2
S'state'
p3
aI400
aa(lp4
S'distance'
p5
aNaa(lp6
S'timestamp'
p7
aF3.72821307182312
aatp8
Rp9
.ccollections
OrderedDict
p0
((lp1
(lp2
S'state'
p3
aI400
aa(lp4
S'distance'
p5
aNaa(lp6
S'timestamp'
p7
aF3.737779140472412
aatp8
Rp9
.ccollections
OrderedDict
p0
((lp1
(lp2
S'state'
p3
aI400
aa(lp4
S'distance'
p5
aNaa(lp6
S'timestamp'
p7
aF3.738178014755249
aatp8
Rp9
.ccollections
OrderedDict
p0
((lp1
(lp2
S'state'
p3
aI400
aa(lp4
S'distance'
p5
aNaa(lp6
S'timestamp'
p7
aF3.7481842041015625
aatp8
Rp9
.ccollections
OrderedDict
p0
((lp1
(lp2
S'state'
p3
aI400
aa(lp4
S'distance'
p5
aNaa(lp6
S'timestamp'
p7
aF3.7488181591033936
aatp8
Rp9
.ccollections
OrderedDict
p0
((lp1
(lp2
S'state'
p3
aI400
aa(lp4
S'distance'
p5
aNaa(lp6
S'timestamp'
p7
aF3.7680511474609375
aatp8
Rp9
.ccollections
OrderedDict
p0
((lp1
(lp2
S'state'
p3
aI400
aa(lp4
S'distance'
p5
aNaa(lp6
S'timestamp'
p7
aF3.7687270641326904
aatp8
Rp9
.ccollections
OrderedDict
p0
((lp1
(lp2
S'state'
p3
aI400
aa(lp4
S'distance'
p5
aNaa(lp6
S'timestamp'
p7
aF3.7689402103424072
aatp8
Rp9
.ccollections
OrderedDict
p0
((lp1
(lp2
S'state'
p3
aI400
aa(lp4
S'distance'
p5
aNaa(lp6
S'timestamp'
p7
aF3.769987106323242
aatp8
Rp9
.ccollections
OrderedDict
p0
((lp1
(lp2
S'state'
p3
aI400
aa(lp4
S'distance'
p5
aNaa(lp6
S'timestamp'
p7
aF3.7778990268707275
aatp8
Rp9
.ccollections
OrderedDict
p0
((lp1
(lp2
S'state'
p3
aI400
aa(lp4
S'distance'
p5
aNaa(lp6
S'timestamp'
p7
aF3.7780230045318604
aatp8
Rp9
.ccollections
OrderedDict
p0
((lp1
(lp2
S'state'
p3
aI400
aa(lp4
S'distance'
p5
aNaa(lp6
S'timestamp'
p7
aF3.7881550788879395
aatp8
Rp9
.ccollections
OrderedDict
p0
((lp1
(lp2
S'state'
p3
aI400
aa(lp4
S'distance'
p5
aNaa(lp6
S'timestamp'
p7
aF3.7882330417633057
aatp8
Rp9
.ccollections
OrderedDict
p0
((lp1
(lp2
S'state'
p3
aI400
aa(lp4
S'distance'
p5
aNaa(lp6
S'timestamp'
p7
aF3.7981841564178467
aatp8
Rp9
.ccollections
OrderedDict
p0
((lp1
(lp2
S'state'
p3
aI400
aa(lp4
S'distance'
p5
aNaa(lp6
S'timestamp'
p7
aF3.798696994781494
aatp8
Rp9
.ccollections
OrderedDict
p0
((lp1
(lp2
S'state'
p3
aI400
aa(lp4
S'distance'
p5
aNaa(lp6
S'timestamp'
p7
aF3.8081300258636475
aatp8
Rp9
.ccollections
OrderedDict
p0
((lp1
(lp2
S'state'
p3
aI400
aa(lp4
S'distance'
p5
aNaa(lp6
S'timestamp'
p7
aF3.8082101345062256
aatp8
Rp9
.ccollections
OrderedDict
p0
((lp1
(lp2
S'state'
p3
aI400
aa(lp4
S'distance'
p5
aNaa(lp6
S'timestamp'
p7
aF3.8186120986938477
aatp8
Rp9
.ccollections
OrderedDict
p0
((lp1
(lp2
S'state'
p3
aI400
aa(lp4
S'distance'
p5
aNaa(lp6
S'timestamp'
p7
aF3.818693161010742
aatp8
Rp9
.ccollections
OrderedDict
p0
((lp1
(lp2
S'state'
p3
aI400
aa(lp4
S'distance'
p5
aNaa(lp6
S'timestamp'
p7
aF3.8277740478515625
aatp8
Rp9
.ccollections
OrderedDict
p0
((lp1
(lp2
S'state'
p3
aI400
aa(lp4
S'distance'
p5
aNaa(lp6
S'timestamp'
p7
aF3.8282999992370605
aatp8
Rp9
.ccollections
OrderedDict
p0
((lp1
(lp2
S'state'
p3
aI400
aa(lp4
S'distance'
p5
aNaa(lp6
S'timestamp'
p7
aF3.8384881019592285
aatp8
Rp9
.ccollections
OrderedDict
p0
((lp1
(lp2
S'state'
p3
aI400
aa(lp4
S'distance'
p5
aNaa(lp6
S'timestamp'
p7
aF3.838560104370117
aatp8
Rp9
.ccollections
OrderedDict
p0
((lp1
(lp2
S'state'
p3
aI400
aa(lp4
S'distance'
p5
aNaa(lp6
S'timestamp'
p7
aF3.8477280139923096
aatp8
Rp9
.ccollections
OrderedDict
p0
((lp1
(lp2
S'state'
p3
aI400
aa(lp4
S'distance'
p5
aNaa(lp6
S'timestamp'
p7
aF3.8483312129974365
aatp8
Rp9
.ccollections
OrderedDict
p0
((lp1
(lp2
S'state'
p3
aI400
aa(lp4
S'distance'
p5
aNaa(lp6
S'timestamp'
p7
aF3.8581039905548096
aatp8
Rp9
.ccollections
OrderedDict
p0
((lp1
(lp2
S'state'
p3
aI400
aa(lp4
S'distance'
p5
aNaa(lp6
S'timestamp'
p7
aF3.8581860065460205
aatp8
Rp9
.ccollections
OrderedDict
p0
((lp1
(lp2
S'state'
p3
aI400
aa(lp4
S'distance'
p5
aNaa(lp6
S'timestamp'
p7
aF3.8678669929504395
aatp8
Rp9
.ccollections
OrderedDict
p0
((lp1
(lp2
S'state'
p3
aI400
aa(lp4
S'distance'
p5
aNaa(lp6
S'timestamp'
p7
aF3.8684539794921875
aatp8
Rp9
.ccollections
OrderedDict
p0
((lp1
(lp2
S'state'
p3
aI400
aa(lp4
S'distance'
p5
aNaa(lp6
S'timestamp'
p7
aF3.8779051303863525
aatp8
Rp9
.ccollections
OrderedDict
p0
((lp1
(lp2
S'state'
p3
aI400
aa(lp4
S'distance'
p5
aNaa(lp6
S'timestamp'
p7
aF3.8780391216278076
aatp8
Rp9
.ccollections
OrderedDict
p0
((lp1
(lp2
S'state'
p3
aI400
aa(lp4
S'distance'
p5
aNaa(lp6
S'timestamp'
p7
aF3.8876349925994873
aatp8
Rp9
.ccollections
OrderedDict
p0
((lp1
(lp2
S'state'
p3
aI400
aa(lp4
S'distance'
p5
aNaa(lp6
S'timestamp'
p7
aF3.888078212738037
aatp8
Rp9
.ccollections
OrderedDict
p0
((lp1
(lp2
S'state'
p3
aI400
aa(lp4
S'distance'
p5
aNaa(lp6
S'timestamp'
p7
aF3.897830009460449
aatp8
Rp9
.ccollections
OrderedDict
p0
((lp1
(lp2
S'state'
p3
aI400
aa(lp4
S'distance'
p5
aNaa(lp6
S'timestamp'
p7
aF3.899152994155884
aatp8
Rp9
.ccollections
OrderedDict
p0
((lp1
(lp2
S'state'
p3
aI400
aa(lp4
S'distance'
p5
aNaa(lp6
S'timestamp'
p7
aF3.91760516166687
aatp8
Rp9
.ccollections
OrderedDict
p0
((lp1
(lp2
S'state'
p3
aI400
aa(lp4
S'distance'
p5
aNaa(lp6
S'timestamp'
p7
aF3.9180541038513184
aatp8
Rp9
.ccollections
OrderedDict
p0
((lp1
(lp2
S'state'
p3
aI400
aa(lp4
S'distance'
p5
aNaa(lp6
S'timestamp'
p7
aF3.9184000492095947
aatp8
Rp9
.ccollections
OrderedDict
p0
((lp1
(lp2
S'state'
p3
aI400
aa(lp4
S'distance'
p5
aNaa(lp6
S'timestamp'
p7
aF3.919335126876831
aatp8
Rp9
.ccollections
OrderedDict
p0
((lp1
(lp2
S'state'
p3
aI400
aa(lp4
S'distance'
p5
aNaa(lp6
S'timestamp'
p7
aF3.9275901317596436
aatp8
Rp9
.ccollections
OrderedDict
p0
((lp1
(lp2
S'state'
p3
aI400
aa(lp4
S'distance'
p5
aNaa(lp6
S'timestamp'
p7
aF3.9280710220336914
aatp8
Rp9
.ccollections
OrderedDict
p0
((lp1
(lp2
S'state'
p3
aI400
aa(lp4
S'distance'
p5
aNaa(lp6
S'timestamp'
p7
aF3.9376330375671387
aatp8
Rp9
.ccollections
OrderedDict
p0
((lp1
(lp2
S'state'
p3
aI400
aa(lp4
S'distance'
p5
aNaa(lp6
S'timestamp'
p7
aF3.9381730556488037
aatp8
Rp9
.ccollections
OrderedDict
p0
((lp1
(lp2
S'state'
p3
aI400
aa(lp4
S'distance'
p5
aNaa(lp6
S'timestamp'
p7
aF3.948190212249756
aatp8
Rp9
.ccollections
OrderedDict
p0
((lp1
(lp2
S'state'
p3
aI400
aa(lp4
S'distance'
p5
aNaa(lp6
S'timestamp'
p7
aF3.9486241340637207
aatp8
Rp9
.ccollections
OrderedDict
p0
((lp1
(lp2
S'state'
p3
aI400
aa(lp4
S'distance'
p5
aNaa(lp6
S'timestamp'
p7
aF3.95762300491333
aatp8
Rp9
.ccollections
OrderedDict
p0
((lp1
(lp2
S'state'
p3
aI400
aa(lp4
S'distance'
p5
aNaa(lp6
S'timestamp'
p7
aF3.958165168762207
aatp8
Rp9
.ccollections
OrderedDict
p0
((lp1
(lp2
S'state'
p3
aI400
aa(lp4
S'distance'
p5
aNaa(lp6
S'timestamp'
p7
aF3.968003034591675
aatp8
Rp9
.ccollections
OrderedDict
p0
((lp1
(lp2
S'state'
p3
aI400
aa(lp4
S'distance'
p5
aNaa(lp6
S'timestamp'
p7
aF3.968083143234253
aatp8
Rp9
.ccollections
OrderedDict
p0
((lp1
(lp2
S'state'
p3
aI400
aa(lp4
S'distance'
p5
aNaa(lp6
S'timestamp'
p7
aF3.977680206298828
aatp8
Rp9
.ccollections
OrderedDict
p0
((lp1
(lp2
S'state'
p3
aI400
aa(lp4
S'distance'
p5
aNaa(lp6
S'timestamp'
p7
aF3.978126049041748
aatp8
Rp9
.ccollections
OrderedDict
p0
((lp1
(lp2
S'state'
p3
aI400
aa(lp4
S'distance'
p5
aNaa(lp6
S'timestamp'
p7
aF3.988335132598877
aatp8
Rp9
.ccollections
OrderedDict
p0
((lp1
(lp2
S'state'
p3
aI400
aa(lp4
S'distance'
p5
aNaa(lp6
S'timestamp'
p7
aF3.988927125930786
aatp8
Rp9
.ccollections
OrderedDict
p0
((lp1
(lp2
S'state'
p3
aI400
aa(lp4
S'distance'
p5
aNaa(lp6
S'timestamp'
p7
aF3.9975860118865967
aatp8
Rp9
.ccollections
OrderedDict
p0
((lp1
(lp2
S'state'
p3
aI400
aa(lp4
S'distance'
p5
aNaa(lp6
S'timestamp'
p7
aF3.9988150596618652
aatp8
Rp9
.ccollections
OrderedDict
p0
((lp1
(lp2
S'state'
p3
aI400
aa(lp4
S'distance'
p5
aNaa(lp6
S'timestamp'
p7
aF4.007765054702759
aatp8
Rp9
.ccollections
OrderedDict
p0
((lp1
(lp2
S'state'
p3
aI400
aa(lp4
S'distance'
p5
aNaa(lp6
S'timestamp'
p7
aF4.008876085281372
aatp8
Rp9
.ccollections
OrderedDict
p0
((lp1
(lp2
S'state'
p3
aI400
aa(lp4
S'distance'
p5
aNaa(lp6
S'timestamp'
p7
aF4.019458055496216
aatp8
Rp9
.ccollections
OrderedDict
p0
((lp1
(lp2
S'state'
p3
aI400
aa(lp4
S'distance'
p5
aNaa(lp6
S'timestamp'
p7
aF4.020071029663086
aatp8
Rp9
.ccollections
OrderedDict
p0
((lp1
(lp2
S'state'
p3
aI400
aa(lp4
S'distance'
p5
aNaa(lp6
S'timestamp'
p7
aF4.028159141540527
aatp8
Rp9
.ccollections
OrderedDict
p0
((lp1
(lp2
S'state'
p3
aI400
aa(lp4
S'distance'
p5
aNaa(lp6
S'timestamp'
p7
aF4.028232097625732
aatp8
Rp9
.ccollections
OrderedDict
p0
((lp1
(lp2
S'state'
p3
aI400
aa(lp4
S'distance'
p5
aNaa(lp6
S'timestamp'
p7
aF4.041733026504517
aatp8
Rp9
.ccollections
OrderedDict
p0
((lp1
(lp2
S'state'
p3
aI400
aa(lp4
S'distance'
p5
aNaa(lp6
S'timestamp'
p7
aF4.042011976242065
aatp8
Rp9
.ccollections
OrderedDict
p0
((lp1
(lp2
S'state'
p3
aI400
aa(lp4
S'distance'
p5
aNaa(lp6
S'timestamp'
p7
aF4.0477612018585205
aatp8
Rp9
.ccollections
OrderedDict
p0
((lp1
(lp2
S'state'
p3
aI400
aa(lp4
S'distance'
p5
aNaa(lp6
S'timestamp'
p7
aF4.0479981899261475
aatp8
Rp9
.ccollections
OrderedDict
p0
((lp1
(lp2
S'state'
p3
aI400
aa(lp4
S'distance'
p5
aNaa(lp6
S'timestamp'
p7
aF4.057674169540405
aatp8
Rp9
.ccollections
OrderedDict
p0
((lp1
(lp2
S'state'
p3
aI400
aa(lp4
S'distance'
p5
aNaa(lp6
S'timestamp'
p7
aF4.058071136474609
aatp8
Rp9
.ccollections
OrderedDict
p0
((lp1
(lp2
S'state'
p3
aI400
aa(lp4
S'distance'
p5
aNaa(lp6
S'timestamp'
p7
aF4.067872047424316
aatp8
Rp9
.ccollections
OrderedDict
p0
((lp1
(lp2
S'state'
p3
aI400
aa(lp4
S'distance'
p5
aNaa(lp6
S'timestamp'
p7
aF4.068263053894043
aatp8
Rp9
.ccollections
OrderedDict
p0
((lp1
(lp2
S'state'
p3
aI400
aa(lp4
S'distance'
p5
aNaa(lp6
S'timestamp'
p7
aF4.077506065368652
aatp8
Rp9
.ccollections
OrderedDict
p0
((lp1
(lp2
S'state'
p3
aI400
aa(lp4
S'distance'
p5
aNaa(lp6
S'timestamp'
p7
aF4.078092098236084
aatp8
Rp9
.ccollections
OrderedDict
p0
((lp1
(lp2
S'state'
p3
aI400
aa(lp4
S'distance'
p5
aNaa(lp6
S'timestamp'
p7
aF4.0874340534210205
aatp8
Rp9
.ccollections
OrderedDict
p0
((lp1
(lp2
S'state'
p3
aI400
aa(lp4
S'distance'
p5
aNaa(lp6
S'timestamp'
p7
aF4.0880420207977295
aatp8
Rp9
.ccollections
OrderedDict
p0
((lp1
(lp2
S'state'
p3
aI400
aa(lp4
S'distance'
p5
aNaa(lp6
S'timestamp'
p7
aF4.097681045532227
aatp8
Rp9
.ccollections
OrderedDict
p0
((lp1
(lp2
S'state'
p3
aI400
aa(lp4
S'distance'
p5
aNaa(lp6
S'timestamp'
p7
aF4.097937107086182
aatp8
Rp9
.ccollections
OrderedDict
p0
((lp1
(lp2
S'state'
p3
aI400
aa(lp4
S'distance'
p5
aNaa(lp6
S'timestamp'
p7
aF4.107616186141968
aatp8
Rp9
.ccollections
OrderedDict
p0
((lp1
(lp2
S'state'
p3
aI400
aa(lp4
S'distance'
p5
aNaa(lp6
S'timestamp'
p7
aF4.108192205429077
aatp8
Rp9
.ccollections
OrderedDict
p0
((lp1
(lp2
S'state'
p3
aI400
aa(lp4
S'distance'
p5
aNaa(lp6
S'timestamp'
p7
aF4.117842197418213
aatp8
Rp9
.ccollections
OrderedDict
p0
((lp1
(lp2
S'state'
p3
aI400
aa(lp4
S'distance'
p5
aNaa(lp6
S'timestamp'
p7
aF4.118836164474487
aatp8
Rp9
.ccollections
OrderedDict
p0
((lp1
(lp2
S'state'
p3
aI400
aa(lp4
S'distance'
p5
aNaa(lp6
S'timestamp'
p7
aF4.1275670528411865
aatp8
Rp9
.ccollections
OrderedDict
p0
((lp1
(lp2
S'state'
p3
aI400
aa(lp4
S'distance'
p5
aNaa(lp6
S'timestamp'
p7
aF4.128079175949097
aatp8
Rp9
.ccollections
OrderedDict
p0
((lp1
(lp2
S'state'
p3
aI400
aa(lp4
S'distance'
p5
aNaa(lp6
S'timestamp'
p7
aF4.137601137161255
aatp8
Rp9
.ccollections
OrderedDict
p0
((lp1
(lp2
S'state'
p3
aI400
aa(lp4
S'distance'
p5
aNaa(lp6
S'timestamp'
p7
aF4.138228178024292
aatp8
Rp9
.ccollections
OrderedDict
p0
((lp1
(lp2
S'state'
p3
aI400
aa(lp4
S'distance'
p5
aNaa(lp6
S'timestamp'
p7
aF4.147642135620117
aatp8
Rp9
.ccollections
OrderedDict
p0
((lp1
(lp2
S'state'
p3
aI400
aa(lp4
S'distance'
p5
aNaa(lp6
S'timestamp'
p7
aF4.14805006980896
aatp8
Rp9
.ccollections
OrderedDict
p0
((lp1
(lp2
S'state'
p3
aI400
aa(lp4
S'distance'
p5
aNaa(lp6
S'timestamp'
p7
aF4.167692184448242
aatp8
Rp9
.ccollections
OrderedDict
p0
((lp1
(lp2
S'state'
p3
aI400
aa(lp4
S'distance'
p5
aNaa(lp6
S'timestamp'
p7
aF4.168142080307007
aatp8
Rp9
.ccollections
OrderedDict
p0
((lp1
(lp2
S'state'
p3
aI400
aa(lp4
S'distance'
p5
aNaa(lp6
S'timestamp'
p7
aF4.169787168502808
aatp8
Rp9
.ccollections
OrderedDict
p0
((lp1
(lp2
S'state'
p3
aI400
aa(lp4
S'distance'
p5
aNaa(lp6
S'timestamp'
p7
aF4.170580148696899
aatp8
Rp9
.ccollections
OrderedDict
p0
((lp1
(lp2
S'state'
p3
aI400
aa(lp4
S'distance'
p5
aNaa(lp6
S'timestamp'
p7
aF4.178131103515625
aatp8
Rp9
.ccollections
OrderedDict
p0
((lp1
(lp2
S'state'
p3
aI400
aa(lp4
S'distance'
p5
aNaa(lp6
S'timestamp'
p7
aF4.178796052932739
aatp8
Rp9
.ccollections
OrderedDict
p0
((lp1
(lp2
S'state'
p3
aI400
aa(lp4
S'distance'
p5
aNaa(lp6
S'timestamp'
p7
aF4.197856187820435
aatp8
Rp9
.ccollections
OrderedDict
p0
((lp1
(lp2
S'state'
p3
aI400
aa(lp4
S'distance'
p5
aNaa(lp6
S'timestamp'
p7
aF4.198288202285767
aatp8
Rp9
.ccollections
OrderedDict
p0
((lp1
(lp2
S'state'
p3
aI400
aa(lp4
S'distance'
p5
aNaa(lp6
S'timestamp'
p7
aF4.1986470222473145
aatp8
Rp9
.ccollections
OrderedDict
p0
((lp1
(lp2
S'state'
p3
aI400
aa(lp4
S'distance'
p5
aNaa(lp6
S'timestamp'
p7
aF4.199465990066528
aatp8
Rp9
.ccollections
OrderedDict
p0
((lp1
(lp2
S'state'
p3
aI400
aa(lp4
S'distance'
p5
aNaa(lp6
S'timestamp'
p7
aF4.2077929973602295
aatp8
Rp9
.ccollections
OrderedDict
p0
((lp1
(lp2
S'state'
p3
aI400
aa(lp4
S'distance'
p5
aNaa(lp6
S'timestamp'
p7
aF4.207937002182007
aatp8
Rp9
.ccollections
OrderedDict
p0
((lp1
(lp2
S'state'
p3
aI400
aa(lp4
S'distance'
p5
aNaa(lp6
S'timestamp'
p7
aF4.218674182891846
aatp8
Rp9
.ccollections
OrderedDict
p0
((lp1
(lp2
S'state'
p3
aI400
aa(lp4
S'distance'
p5
aNaa(lp6
S'timestamp'
p7
aF4.219020128250122
aatp8
Rp9
.ccollections
OrderedDict
p0
((lp1
(lp2
S'state'
p3
aI400
aa(lp4
S'distance'
p5
aNaa(lp6
S'timestamp'
p7
aF4.227886199951172
aatp8
Rp9
.ccollections
OrderedDict
p0
((lp1
(lp2
S'state'
p3
aI400
aa(lp4
S'distance'
p5
aNaa(lp6
S'timestamp'
p7
aF4.2284321784973145
aatp8
Rp9
.ccollections
OrderedDict
p0
((lp1
(lp2
S'state'
p3
aI400
aa(lp4
S'distance'
p5
aNaa(lp6
S'timestamp'
p7
aF4.238093137741089
aatp8
Rp9
.ccollections
OrderedDict
p0
((lp1
(lp2
S'state'
p3
aI400
aa(lp4
S'distance'
p5
aNaa(lp6
S'timestamp'
p7
aF4.238270998001099
aatp8
Rp9
.ccollections
OrderedDict
p0
((lp1
(lp2
S'state'
p3
aI400
aa(lp4
S'distance'
p5
aNaa(lp6
S'timestamp'
p7
aF4.248074054718018
aatp8
Rp9
.ccollections
OrderedDict
p0
((lp1
(lp2
S'state'
p3
aI400
aa(lp4
S'distance'
p5
aNaa(lp6
S'timestamp'
p7
aF4.248476028442383
aatp8
Rp9
.ccollections
OrderedDict
p0
((lp1
(lp2
S'state'
p3
aI400
aa(lp4
S'distance'
p5
aNaa(lp6
S'timestamp'
p7
aF4.257452011108398
aatp8
Rp9
.ccollections
OrderedDict
p0
((lp1
(lp2
S'state'
p3
aI400
aa(lp4
S'distance'
p5
aNaa(lp6
S'timestamp'
p7
aF4.25831413269043
aatp8
Rp9
.ccollections
OrderedDict
p0
((lp1
(lp2
S'state'
p3
aI400
aa(lp4
S'distance'
p5
aNaa(lp6
S'timestamp'
p7
aF4.267493009567261
aatp8
Rp9
.ccollections
OrderedDict
p0
((lp1
(lp2
S'state'
p3
aI400
aa(lp4
S'distance'
p5
aNaa(lp6
S'timestamp'
p7
aF4.268136978149414
aatp8
Rp9
.ccollections
OrderedDict
p0
((lp1
(lp2
S'state'
p3
aI400
aa(lp4
S'distance'
p5
aNaa(lp6
S'timestamp'
p7
aF4.297471046447754
aatp8
Rp9
.ccollections
OrderedDict
p0
((lp1
(lp2
S'state'
p3
aI400
aa(lp4
S'distance'
p5
aNaa(lp6
S'timestamp'
p7
aF4.297863006591797
aatp8
Rp9
.ccollections
OrderedDict
p0
((lp1
(lp2
S'state'
p3
aI400
aa(lp4
S'distance'
p5
aNaa(lp6
S'timestamp'
p7
aF4.298504114151001
aatp8
Rp9
.ccollections
OrderedDict
p0
((lp1
(lp2
S'state'
p3
aI400
aa(lp4
S'distance'
p5
aNaa(lp6
S'timestamp'
p7
aF4.299195051193237
aatp8
Rp9
.ccollections
OrderedDict
p0
((lp1
(lp2
S'state'
p3
aI400
aa(lp4
S'distance'
p5
aNaa(lp6
S'timestamp'
p7
aF4.307672023773193
aatp8
Rp9
.ccollections
OrderedDict
p0
((lp1
(lp2
S'state'
p3
aI400
aa(lp4
S'distance'
p5
aNaa(lp6
S'timestamp'
p7
aF4.30815315246582
aatp8
Rp9
.ccollections
OrderedDict
p0
((lp1
(lp2
S'state'
p3
aI400
aa(lp4
S'distance'
p5
aNaa(lp6
S'timestamp'
p7
aF4.308422088623047
aatp8
Rp9
.ccollections
OrderedDict
p0
((lp1
(lp2
S'state'
p3
aI400
aa(lp4
S'distance'
p5
aNaa(lp6
S'timestamp'
p7
aF4.309319019317627
aatp8
Rp9
.ccollections
OrderedDict
p0
((lp1
(lp2
S'state'
p3
aI400
aa(lp4
S'distance'
p5
aNaa(lp6
S'timestamp'
p7
aF4.31752610206604
aatp8
Rp9
.ccollections
OrderedDict
p0
((lp1
(lp2
S'state'
p3
aI400
aa(lp4
S'distance'
p5
aNaa(lp6
S'timestamp'
p7
aF4.3183979988098145
aatp8
Rp9
.ccollections
OrderedDict
p0
((lp1
(lp2
S'state'
p3
aI400
aa(lp4
S'distance'
p5
aNaa(lp6
S'timestamp'
p7
aF4.327555179595947
aatp8
Rp9
.ccollections
OrderedDict
p0
((lp1
(lp2
S'state'
p3
aI400
aa(lp4
S'distance'
p5
aNaa(lp6
S'timestamp'
p7
aF4.328207015991211
aatp8
Rp9
.ccollections
OrderedDict
p0
((lp1
(lp2
S'state'
p3
aI400
aa(lp4
S'distance'
p5
aNaa(lp6
S'timestamp'
p7
aF4.337785005569458
aatp8
Rp9
.ccollections
OrderedDict
p0
((lp1
(lp2
S'state'
p3
aI400
aa(lp4
S'distance'
p5
aNaa(lp6
S'timestamp'
p7
aF4.338159084320068
aatp8
Rp9
.ccollections
OrderedDict
p0
((lp1
(lp2
S'state'
p3
aI400
aa(lp4
S'distance'
p5
aNaa(lp6
S'timestamp'
p7
aF4.357954978942871
aatp8
Rp9
.ccollections
OrderedDict
p0
((lp1
(lp2
S'state'
p3
aI400
aa(lp4
S'distance'
p5
aNaa(lp6
S'timestamp'
p7
aF4.359654188156128
aatp8
Rp9
.ccollections
OrderedDict
p0
((lp1
(lp2
S'state'
p3
aI400
aa(lp4
S'distance'
p5
aNaa(lp6
S'timestamp'
p7
aF4.360002040863037
aatp8
Rp9
.ccollections
OrderedDict
p0
((lp1
(lp2
S'state'
p3
aI400
aa(lp4
S'distance'
p5
aNaa(lp6
S'timestamp'
p7
aF4.360337018966675
aatp8
Rp9
.ccollections
OrderedDict
p0
((lp1
(lp2
S'state'
p3
aI400
aa(lp4
S'distance'
p5
aNaa(lp6
S'timestamp'
p7
aF4.367748022079468
aatp8
Rp9
.ccollections
OrderedDict
p0
((lp1
(lp2
S'state'
p3
aI400
aa(lp4
S'distance'
p5
aNaa(lp6
S'timestamp'
p7
aF4.3683412075042725
aatp8
Rp9
.ccollections
OrderedDict
p0
((lp1
(lp2
S'state'
p3
aI400
aa(lp4
S'distance'
p5
aNaa(lp6
S'timestamp'
p7
aF4.37757420539856
aatp8
Rp9
.ccollections
OrderedDict
p0
((lp1
(lp2
S'state'
p3
aI400
aa(lp4
S'distance'
p5
aNaa(lp6
S'timestamp'
p7
aF4.378737211227417
aatp8
Rp9
.ccollections
OrderedDict
p0
((lp1
(lp2
S'state'
p3
aI400
aa(lp4
S'distance'
p5
aNaa(lp6
S'timestamp'
p7
aF4.3886191844940186
aatp8
Rp9
.ccollections
OrderedDict
p0
((lp1
(lp2
S'state'
p3
aI400
aa(lp4
S'distance'
p5
aNaa(lp6
S'timestamp'
p7
aF4.38879919052124
aatp8
Rp9
.ccollections
OrderedDict
p0
((lp1
(lp2
S'state'
p3
aI400
aa(lp4
S'distance'
p5
aNaa(lp6
S'timestamp'
p7
aF4.407751083374023
aatp8
Rp9
.ccollections
OrderedDict
p0
((lp1
(lp2
S'state'
p3
aI400
aa(lp4
S'distance'
p5
aNaa(lp6
S'timestamp'
p7
aF4.40788197517395
aatp8
Rp9
.ccollections
OrderedDict
p0
((lp1
(lp2
S'state'
p3
aI400
aa(lp4
S'distance'
p5
aNaa(lp6
S'timestamp'
p7
aF4.409438133239746
aatp8
Rp9
.ccollections
OrderedDict
p0
((lp1
(lp2
S'state'
p3
aI400
aa(lp4
S'distance'
p5
aNaa(lp6
S'timestamp'
p7
aF4.410079002380371
aatp8
Rp9
.ccollections
OrderedDict
p0
((lp1
(lp2
S'state'
p3
aI400
aa(lp4
S'distance'
p5
aNaa(lp6
S'timestamp'
p7
aF4.417582035064697
aatp8
Rp9
.ccollections
OrderedDict
p0
((lp1
(lp2
S'state'
p3
aI400
aa(lp4
S'distance'
p5
aNaa(lp6
S'timestamp'
p7
aF4.418631076812744
aatp8
Rp9
.ccollections
OrderedDict
p0
((lp1
(lp2
S'state'
p3
aI400
aa(lp4
S'distance'
p5
aNaa(lp6
S'timestamp'
p7
aF4.427791118621826
aatp8
Rp9
.ccollections
OrderedDict
p0
((lp1
(lp2
S'state'
p3
aI400
aa(lp4
S'distance'
p5
aNaa(lp6
S'timestamp'
p7
aF4.4284679889678955
aatp8
Rp9
.ccollections
OrderedDict
p0
((lp1
(lp2
S'state'
p3
aI400
aa(lp4
S'distance'
p5
aNaa(lp6
S'timestamp'
p7
aF4.4378981590271
aatp8
Rp9
.ccollections
OrderedDict
p0
((lp1
(lp2
S'state'
p3
aI400
aa(lp4
S'distance'
p5
aNaa(lp6
S'timestamp'
p7
aF4.438760042190552
aatp8
Rp9
.ccollections
OrderedDict
p0
((lp1
(lp2
S'state'
p3
aI400
aa(lp4
S'distance'
p5
aNaa(lp6
S'timestamp'
p7
aF4.4478981494903564
aatp8
Rp9
.ccollections
OrderedDict
p0
((lp1
(lp2
S'state'
p3
aI400
aa(lp4
S'distance'
p5
aNaa(lp6
S'timestamp'
p7
aF4.448185205459595
aatp8
Rp9
.ccollections
OrderedDict
p0
((lp1
(lp2
S'state'
p3
aI400
aa(lp4
S'distance'
p5
aNaa(lp6
S'timestamp'
p7
aF4.458860158920288
aatp8
Rp9
.ccollections
OrderedDict
p0
((lp1
(lp2
S'state'
p3
aI400
aa(lp4
S'distance'
p5
aNaa(lp6
S'timestamp'
p7
aF4.459485054016113
aatp8
Rp9
.ccollections
OrderedDict
p0
((lp1
(lp2
S'state'
p3
aI400
aa(lp4
S'distance'
p5
aNaa(lp6
S'timestamp'
p7
aF4.4677770137786865
aatp8
Rp9
.ccollections
OrderedDict
p0
((lp1
(lp2
S'state'
p3
aI400
aa(lp4
S'distance'
p5
aNaa(lp6
S'timestamp'
p7
aF4.468213081359863
aatp8
Rp9
.ccollections
OrderedDict
p0
((lp1
(lp2
S'state'
p3
aI400
aa(lp4
S'distance'
p5
aNaa(lp6
S'timestamp'
p7
aF4.47863507270813
aatp8
Rp9
.ccollections
OrderedDict
p0
((lp1
(lp2
S'state'
p3
aI400
aa(lp4
S'distance'
p5
aNaa(lp6
S'timestamp'
p7
aF4.478713035583496
aatp8
Rp9
.ccollections
OrderedDict
p0
((lp1
(lp2
S'state'
p3
aI400
aa(lp4
S'distance'
p5
aNaa(lp6
S'timestamp'
p7
aF4.487925052642822
aatp8
Rp9
.ccollections
OrderedDict
p0
((lp1
(lp2
S'state'
p3
aI400
aa(lp4
S'distance'
p5
aNaa(lp6
S'timestamp'
p7
aF4.4881911277771
aatp8
Rp9
.ccollections
OrderedDict
p0
((lp1
(lp2
S'state'
p3
aI400
aa(lp4
S'distance'
p5
aNaa(lp6
S'timestamp'
p7
aF4.497959136962891
aatp8
Rp9
.ccollections
OrderedDict
p0
((lp1
(lp2
S'state'
p3
aI400
aa(lp4
S'distance'
p5
aNaa(lp6
S'timestamp'
p7
aF4.498135089874268
aatp8
Rp9
.ccollections
OrderedDict
p0
((lp1
(lp2
S'state'
p3
aI400
aa(lp4
S'distance'
p5
aNaa(lp6
S'timestamp'
p7
aF4.507889986038208
aatp8
Rp9
.ccollections
OrderedDict
p0
((lp1
(lp2
S'state'
p3
aI400
aa(lp4
S'distance'
p5
aNaa(lp6
S'timestamp'
p7
aF4.50817608833313
aatp8
Rp9
.ccollections
OrderedDict
p0
((lp1
(lp2
S'state'
p3
aI400
aa(lp4
S'distance'
p5
aNaa(lp6
S'timestamp'
p7
aF4.519078016281128
aatp8
Rp9
.ccollections
OrderedDict
p0
((lp1
(lp2
S'state'
p3
aI400
aa(lp4
S'distance'
p5
aNaa(lp6
S'timestamp'
p7
aF4.519379138946533
aatp8
Rp9
.ccollections
OrderedDict
p0
((lp1
(lp2
S'state'
p3
aI400
aa(lp4
S'distance'
p5
aNaa(lp6
S'timestamp'
p7
aF4.527790069580078
aatp8
Rp9
.ccollections
OrderedDict
p0
((lp1
(lp2
S'state'
p3
aI400
aa(lp4
S'distance'
p5
aNaa(lp6
S'timestamp'
p7
aF4.52857518196106
aatp8
Rp9
.ccollections
OrderedDict
p0
((lp1
(lp2
S'state'
p3
aI400
aa(lp4
S'distance'
p5
aNaa(lp6
S'timestamp'
p7
aF4.5377421379089355
aatp8
Rp9
.ccollections
OrderedDict
p0
((lp1
(lp2
S'state'
p3
aI400
aa(lp4
S'distance'
p5
aNaa(lp6
S'timestamp'
p7
aF4.5381550788879395
aatp8
Rp9
.ccollections
OrderedDict
p0
((lp1
(lp2
S'state'
p3
aI400
aa(lp4
S'distance'
p5
aNaa(lp6
S'timestamp'
p7
aF4.547968149185181
aatp8
Rp9
.ccollections
OrderedDict
p0
((lp1
(lp2
S'state'
p3
aI400
aa(lp4
S'distance'
p5
aNaa(lp6
S'timestamp'
p7
aF4.5486860275268555
aatp8
Rp9
.ccollections
OrderedDict
p0
((lp1
(lp2
S'state'
p3
aI400
aa(lp4
S'distance'
p5
aNaa(lp6
S'timestamp'
p7
aF4.558193206787109
aatp8
Rp9
.ccollections
OrderedDict
p0
((lp1
(lp2
S'state'
p3
aI400
aa(lp4
S'distance'
p5
aNaa(lp6
S'timestamp'
p7
aF4.5584211349487305
aatp8
Rp9
.ccollections
OrderedDict
p0
((lp1
(lp2
S'state'
p3
aI400
aa(lp4
S'distance'
p5
aNaa(lp6
S'timestamp'
p7
aF4.568404197692871
aatp8
Rp9
.ccollections
OrderedDict
p0
((lp1
(lp2
S'state'
p3
aI400
aa(lp4
S'distance'
p5
aNaa(lp6
S'timestamp'
p7
aF4.568485975265503
aatp8
Rp9
.ccollections
OrderedDict
p0
((lp1
(lp2
S'state'
p3
aI400
aa(lp4
S'distance'
p5
aNaa(lp6
S'timestamp'
p7
aF4.577591180801392
aatp8
Rp9
.ccollections
OrderedDict
p0
((lp1
(lp2
S'state'
p3
aI400
aa(lp4
S'distance'
p5
aNaa(lp6
S'timestamp'
p7
aF4.5783350467681885
aatp8
Rp9
.ccollections
OrderedDict
p0
((lp1
(lp2
S'state'
p3
aI400
aa(lp4
S'distance'
p5
aNaa(lp6
S'timestamp'
p7
aF4.597504138946533
aatp8
Rp9
.ccollections
OrderedDict
p0
((lp1
(lp2
S'state'
p3
aI400
aa(lp4
S'distance'
p5
aNaa(lp6
S'timestamp'
p7
aF4.597809076309204
aatp8
Rp9
.ccollections
OrderedDict
p0
((lp1
(lp2
S'state'
p3
aI400
aa(lp4
S'distance'
p5
aNaa(lp6
S'timestamp'
p7
aF4.599179983139038
aatp8
Rp9
.ccollections
OrderedDict
p0
((lp1
(lp2
S'state'
p3
aI400
aa(lp4
S'distance'
p5
aNaa(lp6
S'timestamp'
p7
aF4.60006308555603
aatp8
Rp9
.ccollections
OrderedDict
p0
((lp1
(lp2
S'state'
p3
aI400
aa(lp4
S'distance'
p5
aNaa(lp6
S'timestamp'
p7
aF4.607419013977051
aatp8
Rp9
.ccollections
OrderedDict
p0
((lp1
(lp2
S'state'
p3
aI400
aa(lp4
S'distance'
p5
aNaa(lp6
S'timestamp'
p7
aF4.608225107192993
aatp8
Rp9
.ccollections
OrderedDict
p0
((lp1
(lp2
S'state'
p3
aI400
aa(lp4
S'distance'
p5
aNaa(lp6
S'timestamp'
p7
aF4.618552207946777
aatp8
Rp9
.ccollections
OrderedDict
p0
((lp1
(lp2
S'state'
p3
aI400
aa(lp4
S'distance'
p5
aNaa(lp6
S'timestamp'
p7
aF4.618990182876587
aatp8
Rp9
.ccollections
OrderedDict
p0
((lp1
(lp2
S'state'
p3
aI400
aa(lp4
S'distance'
p5
aNaa(lp6
S'timestamp'
p7
aF4.627608060836792
aatp8
Rp9
.ccollections
OrderedDict
p0
((lp1
(lp2
S'state'
p3
aI400
aa(lp4
S'distance'
p5
aNaa(lp6
S'timestamp'
p7
aF4.62807297706604
aatp8
Rp9
.ccollections
OrderedDict
p0
((lp1
(lp2
S'state'
p3
aI400
aa(lp4
S'distance'
p5
aNaa(lp6
S'timestamp'
p7
aF4.63836407661438
aatp8
Rp9
.ccollections
OrderedDict
p0
((lp1
(lp2
S'state'
p3
aI400
aa(lp4
S'distance'
p5
aNaa(lp6
S'timestamp'
p7
aF4.638499021530151
aatp8
Rp9
.ccollections
OrderedDict
p0
((lp1
(lp2
S'state'
p3
aI400
aa(lp4
S'distance'
p5
aNaa(lp6
S'timestamp'
p7
aF4.658468008041382
aatp8
Rp9
.ccollections
OrderedDict
p0
((lp1
(lp2
S'state'
p3
aI400
aa(lp4
S'distance'
p5
aNaa(lp6
S'timestamp'
p7
aF4.660068035125732
aatp8
Rp9
.ccollections
OrderedDict
p0
((lp1
(lp2
S'state'
p3
aI400
aa(lp4
S'distance'
p5
aNaa(lp6
S'timestamp'
p7
aF4.662883043289185
aatp8
Rp9
.ccollections
OrderedDict
p0
((lp1
(lp2
S'state'
p3
aI400
aa(lp4
S'distance'
p5
aNaa(lp6
S'timestamp'
p7
aF4.665187120437622
aatp8
Rp9
.ccollections
OrderedDict
p0
((lp1
(lp2
S'state'
p3
aI400
aa(lp4
S'distance'
p5
aNaa(lp6
S'timestamp'
p7
aF4.67569899559021
aatp8
Rp9
.ccollections
OrderedDict
p0
((lp1
(lp2
S'state'
p3
aI400
aa(lp4
S'distance'
p5
aNaa(lp6
S'timestamp'
p7
aF4.679632186889648
aatp8
Rp9
.ccollections
OrderedDict
p0
((lp1
(lp2
S'state'
p3
aI400
aa(lp4
S'distance'
p5
aNaa(lp6
S'timestamp'
p7
aF4.680344104766846
aatp8
Rp9
.ccollections
OrderedDict
p0
((lp1
(lp2
S'state'
p3
aI400
aa(lp4
S'distance'
p5
aNaa(lp6
S'timestamp'
p7
aF4.68886399269104
aatp8
Rp9
.ccollections
OrderedDict
p0
((lp1
(lp2
S'state'
p3
aI400
aa(lp4
S'distance'
p5
aNaa(lp6
S'timestamp'
p7
aF4.726720094680786
aatp8
Rp9
.ccollections
OrderedDict
p0
((lp1
(lp2
S'state'
p3
aI400
aa(lp4
S'distance'
p5
aNaa(lp6
S'timestamp'
p7
aF4.727325201034546
aatp8
Rp9
.ccollections
OrderedDict
p0
((lp1
(lp2
S'state'
p3
aI400
aa(lp4
S'distance'
p5
aNaa(lp6
S'timestamp'
p7
aF4.727504014968872
aatp8
Rp9
.ccollections
OrderedDict
p0
((lp1
(lp2
S'state'
p3
aI400
aa(lp4
S'distance'
p5
aNaa(lp6
S'timestamp'
p7
aF4.730065107345581
aatp8
Rp9
.ccollections
OrderedDict
p0
((lp1
(lp2
S'state'
p3
aI400
aa(lp4
S'distance'
p5
aNaa(lp6
S'timestamp'
p7
aF4.730331182479858
aatp8
Rp9
.ccollections
OrderedDict
p0
((lp1
(lp2
S'state'
p3
aI400
aa(lp4
S'distance'
p5
aNaa(lp6
S'timestamp'
p7
aF4.731372117996216
aatp8
Rp9
.ccollections
OrderedDict
p0
((lp1
(lp2
S'state'
p3
aI400
aa(lp4
S'distance'
p5
aNaa(lp6
S'timestamp'
p7
aF4.731492042541504
aatp8
Rp9
.ccollections
OrderedDict
p0
((lp1
(lp2
S'state'
p3
aI400
aa(lp4
S'distance'
p5
aNaa(lp6
S'timestamp'
p7
aF4.731774091720581
aatp8
Rp9
.ccollections
OrderedDict
p0
((lp1
(lp2
S'state'
p3
aI400
aa(lp4
S'distance'
p5
aNaa(lp6
S'timestamp'
p7
aF4.731896162033081
aatp8
Rp9
.ccollections
OrderedDict
p0
((lp1
(lp2
S'state'
p3
aI400
aa(lp4
S'distance'
p5
aNaa(lp6
S'timestamp'
p7
aF4.732935190200806
aatp8
Rp9
.ccollections
OrderedDict
p0
((lp1
(lp2
S'state'
p3
aI400
aa(lp4
S'distance'
p5
aNaa(lp6
S'timestamp'
p7
aF4.740323066711426
aatp8
Rp9
.ccollections
OrderedDict
p0
((lp1
(lp2
S'state'
p3
aI400
aa(lp4
S'distance'
p5
aNaa(lp6
S'timestamp'
p7
aF4.7403950691223145
aatp8
Rp9
.ccollections
OrderedDict
p0
((lp1
(lp2
S'state'
p3
aI400
aa(lp4
S'distance'
p5
aNaa(lp6
S'timestamp'
p7
aF4.747528076171875
aatp8
Rp9
.ccollections
OrderedDict
p0
((lp1
(lp2
S'state'
p3
aI400
aa(lp4
S'distance'
p5
aNaa(lp6
S'timestamp'
p7
aF4.748927116394043
aatp8
Rp9
.ccollections
OrderedDict
p0
((lp1
(lp2
S'state'
p3
aI400
aa(lp4
S'distance'
p5
aNaa(lp6
S'timestamp'
p7
aF4.758362054824829
aatp8
Rp9
.ccollections
OrderedDict
p0
((lp1
(lp2
S'state'
p3
aI400
aa(lp4
S'distance'
p5
aNaa(lp6
S'timestamp'
p7
aF4.758472204208374
aatp8
Rp9
.ccollections
OrderedDict
p0
((lp1
(lp2
S'state'
p3
aI400
aa(lp4
S'distance'
p5
aNaa(lp6
S'timestamp'
p7
aF4.777844190597534
aatp8
Rp9
.ccollections
OrderedDict
p0
((lp1
(lp2
S'state'
p3
aI400
aa(lp4
S'distance'
p5
aNaa(lp6
S'timestamp'
p7
aF4.778228998184204
aatp8
Rp9
.ccollections
OrderedDict
p0
((lp1
(lp2
S'state'
p3
aI400
aa(lp4
S'distance'
p5
aNaa(lp6
S'timestamp'
p7
aF4.779023170471191
aatp8
Rp9
.ccollections
OrderedDict
p0
((lp1
(lp2
S'state'
p3
aI400
aa(lp4
S'distance'
p5
aNaa(lp6
S'timestamp'
p7
aF4.77910304069519
aatp8
Rp9
.ccollections
OrderedDict
p0
((lp1
(lp2
S'state'
p3
aI400
aa(lp4
S'distance'
p5
aNaa(lp6
S'timestamp'
p7
aF4.788393020629883
aatp8
Rp9
.ccollections
OrderedDict
p0
((lp1
(lp2
S'state'
p3
aI400
aa(lp4
S'distance'
p5
aNaa(lp6
S'timestamp'
p7
aF4.788763999938965
aatp8
Rp9
.ccollections
OrderedDict
p0
((lp1
(lp2
S'state'
p3
aI400
aa(lp4
S'distance'
p5
aNaa(lp6
S'timestamp'
p7
aF4.797895193099976
aatp8
Rp9
.ccollections
OrderedDict
p0
((lp1
(lp2
S'state'
p3
aI400
aa(lp4
S'distance'
p5
aNaa(lp6
S'timestamp'
p7
aF4.798277139663696
aatp8
Rp9
.ccollections
OrderedDict
p0
((lp1
(lp2
S'state'
p3
aI400
aa(lp4
S'distance'
p5
aNaa(lp6
S'timestamp'
p7
aF4.808138132095337
aatp8
Rp9
.ccollections
OrderedDict
p0
((lp1
(lp2
S'state'
p3
aI400
aa(lp4
S'distance'
p5
aNaa(lp6
S'timestamp'
p7
aF4.808641195297241
aatp8
Rp9
.ccollections
OrderedDict
p0
((lp1
(lp2
S'state'
p3
aI400
aa(lp4
S'distance'
p5
aNaa(lp6
S'timestamp'
p7
aF4.820795059204102
aatp8
Rp9
.ccollections
OrderedDict
p0
((lp1
(lp2
S'state'
p3
aI400
aa(lp4
S'distance'
p5
aNaa(lp6
S'timestamp'
p7
aF4.822502136230469
aatp8
Rp9
.ccollections
OrderedDict
p0
((lp1
(lp2
S'state'
p3
aI400
aa(lp4
S'distance'
p5
aNaa(lp6
S'timestamp'
p7
aF4.828715085983276
aatp8
Rp9
.ccollections
OrderedDict
p0
((lp1
(lp2
S'state'
p3
aI400
aa(lp4
S'distance'
p5
aNaa(lp6
S'timestamp'
p7
aF4.829543113708496
aatp8
Rp9
.ccollections
OrderedDict
p0
((lp1
(lp2
S'state'
p3
aI400
aa(lp4
S'distance'
p5
aNaa(lp6
S'timestamp'
p7
aF4.84646201133728
aatp8
Rp9
.ccollections
OrderedDict
p0
((lp1
(lp2
S'state'
p3
aI400
aa(lp4
S'distance'
p5
aNaa(lp6
S'timestamp'
p7
aF4.84659218788147
aatp8
Rp9
.ccollections
OrderedDict
p0
((lp1
(lp2
S'state'
p3
aI400
aa(lp4
S'distance'
p5
aNaa(lp6
S'timestamp'
p7
aF4.848541975021362
aatp8
Rp9
.ccollections
OrderedDict
p0
((lp1
(lp2
S'state'
p3
aI400
aa(lp4
S'distance'
p5
aNaa(lp6
S'timestamp'
p7
aF4.85233211517334
aatp8
Rp9
.ccollections
OrderedDict
p0
((lp1
(lp2
S'state'
p3
aI400
aa(lp4
S'distance'
p5
aNaa(lp6
S'timestamp'
p7
aF4.864434003829956
aatp8
Rp9
.ccollections
OrderedDict
p0
((lp1
(lp2
S'state'
p3
aI400
aa(lp4
S'distance'
p5
aNaa(lp6
S'timestamp'
p7
aF4.864688158035278
aatp8
Rp9
.ccollections
OrderedDict
p0
((lp1
(lp2
S'state'
p3
aI400
aa(lp4
S'distance'
p5
aNaa(lp6
S'timestamp'
p7
aF4.870403051376343
aatp8
Rp9
.ccollections
OrderedDict
p0
((lp1
(lp2
S'state'
p3
aI400
aa(lp4
S'distance'
p5
aNaa(lp6
S'timestamp'
p7
aF4.871252059936523
aatp8
Rp9
.ccollections
OrderedDict
p0
((lp1
(lp2
S'state'
p3
aI400
aa(lp4
S'distance'
p5
aNaa(lp6
S'timestamp'
p7
aF4.879425048828125
aatp8
Rp9
.ccollections
OrderedDict
p0
((lp1
(lp2
S'state'
p3
aI400
aa(lp4
S'distance'
p5
aNaa(lp6
S'timestamp'
p7
aF4.880016088485718
aatp8
Rp9
.ccollections
OrderedDict
p0
((lp1
(lp2
S'state'
p3
aI400
aa(lp4
S'distance'
p5
aNaa(lp6
S'timestamp'
p7
aF4.888588190078735
aatp8
Rp9
.ccollections
OrderedDict
p0
((lp1
(lp2
S'state'
p3
aI0
aa(lp4
S'distance'
p5
aNaa(lp6
S'timestamp'
p7
aF5.46969199180603
aatp8
Rp9
.ccollections
OrderedDict
p0
((lp1
(lp2
S'state'
p3
aI0
aa(lp4
S'distance'
p5
aNaa(lp6
S'timestamp'
p7
aF5.469861030578613
aatp8
Rp9
.ccollections
OrderedDict
p0
((lp1
(lp2
S'state'
p3
aI0
aa(lp4
S'distance'
p5
aNaa(lp6
S'timestamp'
p7
aF5.4749250411987305
aatp8
Rp9
.ccollections
OrderedDict
p0
((lp1
(lp2
S'state'
p3
aI0
aa(lp4
S'distance'
p5
aNaa(lp6
S'timestamp'
p7
aF5.492065191268921
aatp8
Rp9
.ccollections
OrderedDict
p0
((lp1
(lp2
S'state'
p3
aI0
aa(lp4
S'distance'
p5
aNaa(lp6
S'timestamp'
p7
aF5.49319314956665
aatp8
Rp9
.ccollections
OrderedDict
p0
((lp1
(lp2
S'state'
p3
aI0
aa(lp4
S'distance'
p5
aNaa(lp6
S'timestamp'
p7
aF5.493741989135742
aatp8
Rp9
.ccollections
OrderedDict
p0
((lp1
(lp2
S'state'
p3
aI0
aa(lp4
S'distance'
p5
aNaa(lp6
S'timestamp'
p7
aF5.49452018737793
aatp8
Rp9
.ccollections
OrderedDict
p0
((lp1
(lp2
S'state'
p3
aI0
aa(lp4
S'distance'
p5
aNaa(lp6
S'timestamp'
p7
aF5.4954400062561035
aatp8
Rp9
.ccollections
OrderedDict
p0
((lp1
(lp2
S'state'
p3
aI0
aa(lp4
S'distance'
p5
aNaa(lp6
S'timestamp'
p7
aF5.4975950717926025
aatp8
Rp9
.ccollections
OrderedDict
p0
((lp1
(lp2
S'state'
p3
aI0
aa(lp4
S'distance'
p5
aNaa(lp6
S'timestamp'
p7
aF5.5013861656188965
aatp8
Rp9
.ccollections
OrderedDict
p0
((lp1
(lp2
S'state'
p3
aI0
aa(lp4
S'distance'
p5
aNaa(lp6
S'timestamp'
p7
aF5.501483201980591
aatp8
Rp9
.ccollections
OrderedDict
p0
((lp1
(lp2
S'state'
p3
aI0
aa(lp4
S'distance'
p5
aNaa(lp6
S'timestamp'
p7
aF5.507812976837158
aatp8
Rp9
.ccollections
OrderedDict
p0
((lp1
(lp2
S'state'
p3
aI0
aa(lp4
S'distance'
p5
aNaa(lp6
S'timestamp'
p7
aF5.5083091259002686
aatp8
Rp9
.ccollections
OrderedDict
p0
((lp1
(lp2
S'state'
p3
aI0
aa(lp4
S'distance'
p5
aNaa(lp6
S'timestamp'
p7
aF5.53759503364563
aatp8
Rp9
.ccollections
OrderedDict
p0
((lp1
(lp2
S'state'
p3
aI0
aa(lp4
S'distance'
p5
aNaa(lp6
S'timestamp'
p7
aF5.538122177124023
aatp8
Rp9
.ccollections
OrderedDict
p0
((lp1
(lp2
S'state'
p3
aI0
aa(lp4
S'distance'
p5
aNaa(lp6
S'timestamp'
p7
aF5.539828062057495
aatp8
Rp9
.ccollections
OrderedDict
p0
((lp1
(lp2
S'state'
p3
aI0
aa(lp4
S'distance'
p5
aNaa(lp6
S'timestamp'
p7
aF5.540624141693115
aatp8
Rp9
.ccollections
OrderedDict
p0
((lp1
(lp2
S'state'
p3
aI0
aa(lp4
S'distance'
p5
aNaa(lp6
S'timestamp'
p7
aF5.547415018081665
aatp8
Rp9
.ccollections
OrderedDict
p0
((lp1
(lp2
S'state'
p3
aI0
aa(lp4
S'distance'
p5
aNaa(lp6
S'timestamp'
p7
aF5.548376083374023
aatp8
Rp9
.ccollections
OrderedDict
p0
((lp1
(lp2
S'state'
p3
aI0
aa(lp4
S'distance'
p5
aNaa(lp6
S'timestamp'
p7
aF5.548691034317017
aatp8
Rp9
.ccollections
OrderedDict
p0
((lp1
(lp2
S'state'
p3
aI0
aa(lp4
S'distance'
p5
aNaa(lp6
S'timestamp'
p7
aF5.549204111099243
aatp8
Rp9
.ccollections
OrderedDict
p0
((lp1
(lp2
S'state'
p3
aI0
aa(lp4
S'distance'
p5
aNaa(lp6
S'timestamp'
p7
aF5.557964086532593
aatp8
Rp9
.ccollections
OrderedDict
p0
((lp1
(lp2
S'state'
p3
aI0
aa(lp4
S'distance'
p5
aNaa(lp6
S'timestamp'
p7
aF5.558089017868042
aatp8
Rp9
.ccollections
OrderedDict
p0
((lp1
(lp2
S'state'
p3
aI0
aa(lp4
S'distance'
p5
aNaa(lp6
S'timestamp'
p7
aF5.567541122436523
aatp8
Rp9
.ccollections
OrderedDict
p0
((lp1
(lp2
S'state'
p3
aI0
aa(lp4
S'distance'
p5
aNaa(lp6
S'timestamp'
p7
aF5.56817102432251
aatp8
Rp9
.ccollections
OrderedDict
p0
((lp1
(lp2
S'state'
p3
aI0
aa(lp4
S'distance'
p5
aNaa(lp6
S'timestamp'
p7
aF5.577562093734741
aatp8
Rp9
.ccollections
OrderedDict
p0
((lp1
(lp2
S'state'
p3
aI0
aa(lp4
S'distance'
p5
aNaa(lp6
S'timestamp'
p7
aF5.578183174133301
aatp8
Rp9
.ccollections
OrderedDict
p0
((lp1
(lp2
S'state'
p3
aI0
aa(lp4
S'distance'
p5
aNaa(lp6
S'timestamp'
p7
aF5.5875279903411865
aatp8
Rp9
.ccollections
OrderedDict
p0
((lp1
(lp2
S'state'
p3
aI0
aa(lp4
S'distance'
p5
aNaa(lp6
S'timestamp'
p7
aF5.588238000869751
aatp8
Rp9
.ccollections
OrderedDict
p0
((lp1
(lp2
S'state'
p3
aI0
aa(lp4
S'distance'
p5
aNaa(lp6
S'timestamp'
p7
aF5.617568016052246
aatp8
Rp9
.ccollections
OrderedDict
p0
((lp1
(lp2
S'state'
p3
aI0
aa(lp4
S'distance'
p5
aNaa(lp6
S'timestamp'
p7
aF5.618256092071533
aatp8
Rp9
.ccollections
OrderedDict
p0
((lp1
(lp2
S'state'
p3
aI0
aa(lp4
S'distance'
p5
aNaa(lp6
S'timestamp'
p7
aF5.6187121868133545
aatp8
Rp9
.ccollections
OrderedDict
p0
((lp1
(lp2
S'state'
p3
aI0
aa(lp4
S'distance'
p5
aNaa(lp6
S'timestamp'
p7
aF5.619168043136597
aatp8
Rp9
.ccollections
OrderedDict
p0
((lp1
(lp2
S'state'
p3
aI0
aa(lp4
S'distance'
p5
aNaa(lp6
S'timestamp'
p7
aF5.628113031387329
aatp8
Rp9
.ccollections
OrderedDict
p0
((lp1
(lp2
S'state'
p3
aI0
aa(lp4
S'distance'
p5
aNaa(lp6
S'timestamp'
p7
aF5.628305196762085
aatp8
Rp9
.ccollections
OrderedDict
p0
((lp1
(lp2
S'state'
p3
aI0
aa(lp4
S'distance'
p5
aNaa(lp6
S'timestamp'
p7
aF5.647889137268066
aatp8
Rp9
.ccollections
OrderedDict
p0
((lp1
(lp2
S'state'
p3
aI0
aa(lp4
S'distance'
p5
aNaa(lp6
S'timestamp'
p7
aF5.64814019203186
aatp8
Rp9
.ccollections
OrderedDict
p0
((lp1
(lp2
S'state'
p3
aI0
aa(lp4
S'distance'
p5
aNaa(lp6
S'timestamp'
p7
aF5.648919105529785
aatp8
Rp9
.ccollections
OrderedDict
p0
((lp1
(lp2
S'state'
p3
aI0
aa(lp4
S'distance'
p5
aNaa(lp6
S'timestamp'
p7
aF5.649044990539551
aatp8
Rp9
.ccollections
OrderedDict
p0
((lp1
(lp2
S'state'
p3
aI0
aa(lp4
S'distance'
p5
aNaa(lp6
S'timestamp'
p7
aF5.6575400829315186
aatp8
Rp9
.ccollections
OrderedDict
p0
((lp1
(lp2
S'state'
p3
aI0
aa(lp4
S'distance'
p5
aNaa(lp6
S'timestamp'
p7
aF5.657952070236206
aatp8
Rp9
.ccollections
OrderedDict
p0
((lp1
(lp2
S'state'
p3
aI0
aa(lp4
S'distance'
p5
aNaa(lp6
S'timestamp'
p7
aF5.658992052078247
aatp8
Rp9
.ccollections
OrderedDict
p0
((lp1
(lp2
S'state'
p3
aI0
aa(lp4
S'distance'
p5
aNaa(lp6
S'timestamp'
p7
aF5.659078121185303
aatp8
Rp9
.ccollections
OrderedDict
p0
((lp1
(lp2
S'state'
p3
aI0
aa(lp4
S'distance'
p5
aNaa(lp6
S'timestamp'
p7
aF5.668068170547485
aatp8
Rp9
.ccollections
OrderedDict
p0
((lp1
(lp2
S'state'
p3
aI0
aa(lp4
S'distance'
p5
aNaa(lp6
S'timestamp'
p7
aF5.668178081512451
aatp8
Rp9
.ccollections
OrderedDict
p0
((lp1
(lp2
S'state'
p3
aI0
aa(lp4
S'distance'
p5
aNaa(lp6
S'timestamp'
p7
aF5.6876959800720215
aatp8
Rp9
.ccollections
OrderedDict
p0
((lp1
(lp2
S'state'
p3
aI0
aa(lp4
S'distance'
p5
aNaa(lp6
S'timestamp'
p7
aF5.698223114013672
aatp8
Rp9
.ccollections
OrderedDict
p0
((lp1
(lp2
S'state'
p3
aI0
aa(lp4
S'distance'
p5
aNaa(lp6
S'timestamp'
p7
aF5.6983561515808105
aatp8
Rp9
.ccollections
OrderedDict
p0
((lp1
(lp2
S'state'
p3
aI0
aa(lp4
S'distance'
p5
aNaa(lp6
S'timestamp'
p7
aF5.698426008224487
aatp8
Rp9
.ccollections
OrderedDict
p0
((lp1
(lp2
S'state'
p3
aI400
aa(lp4
S'distance'
p5
aNaa(lp6
S'timestamp'
p7
aF5.69940710067749
aatp8
Rp9
.ccollections
OrderedDict
p0
((lp1
(lp2
S'state'
p3
aI400
aa(lp4
S'distance'
p5
aNaa(lp6
S'timestamp'
p7
aF5.707825183868408
aatp8
Rp9
.ccollections
OrderedDict
p0
((lp1
(lp2
S'state'
p3
aI400
aa(lp4
S'distance'
p5
aNaa(lp6
S'timestamp'
p7
aF5.707985162734985
aatp8
Rp9
.ccollections
OrderedDict
p0
((lp1
(lp2
S'state'
p3
aI400
aa(lp4
S'distance'
p5
aNaa(lp6
S'timestamp'
p7
aF5.708974123001099
aatp8
Rp9
.ccollections
OrderedDict
p0
((lp1
(lp2
S'state'
p3
aI400
aa(lp4
S'distance'
p5
aNaa(lp6
S'timestamp'
p7
aF5.72956919670105
aatp8
Rp9
.ccollections
OrderedDict
p0
((lp1
(lp2
S'state'
p3
aI400
aa(lp4
S'distance'
p5
aNaa(lp6
S'timestamp'
p7
aF5.730942010879517
aatp8
Rp9
.ccollections
OrderedDict
p0
((lp1
(lp2
S'state'
p3
aI400
aa(lp4
S'distance'
p5
aNaa(lp6
S'timestamp'
p7
aF5.74126410484314
aatp8
Rp9
.ccollections
OrderedDict
p0
((lp1
(lp2
S'state'
p3
aI400
aa(lp4
S'distance'
p5
aNaa(lp6
S'timestamp'
p7
aF5.741509199142456
aatp8
Rp9
.ccollections
OrderedDict
p0
((lp1
(lp2
S'state'
p3
aI400
aa(lp4
S'distance'
p5
aNaa(lp6
S'timestamp'
p7
aF5.742048025131226
aatp8
Rp9
.ccollections
OrderedDict
p0
((lp1
(lp2
S'state'
p3
aI400
aa(lp4
S'distance'
p5
aNaa(lp6
S'timestamp'
p7
aF5.742455005645752
aatp8
Rp9
.ccollections
OrderedDict
p0
((lp1
(lp2
S'state'
p3
aI400
aa(lp4
S'distance'
p5
aNaa(lp6
S'timestamp'
p7
aF5.748685121536255
aatp8
Rp9
.ccollections
OrderedDict
p0
((lp1
(lp2
S'state'
p3
aI400
aa(lp4
S'distance'
p5
aNaa(lp6
S'timestamp'
p7
aF5.761535167694092
aatp8
Rp9
.ccollections
OrderedDict
p0
((lp1
(lp2
S'state'
p3
aI400
aa(lp4
S'distance'
p5
aNaa(lp6
S'timestamp'
p7
aF5.770327091217041
aatp8
Rp9
.ccollections
OrderedDict
p0
((lp1
(lp2
S'state'
p3
aI400
aa(lp4
S'distance'
p5
aNaa(lp6
S'timestamp'
p7
aF5.772492170333862
aatp8
Rp9
.ccollections
OrderedDict
p0
((lp1
(lp2
S'state'
p3
aI400
aa(lp4
S'distance'
p5
aNaa(lp6
S'timestamp'
p7
aF5.7733399868011475
aatp8
Rp9
.ccollections
OrderedDict
p0
((lp1
(lp2
S'state'
p3
aI400
aa(lp4
S'distance'
p5
aNaa(lp6
S'timestamp'
p7
aF5.773957014083862
aatp8
Rp9
.ccollections
OrderedDict
p0
((lp1
(lp2
S'state'
p3
aI400
aa(lp4
S'distance'
p5
aNaa(lp6
S'timestamp'
p7
aF5.778282165527344
aatp8
Rp9
.ccollections
OrderedDict
p0
((lp1
(lp2
S'state'
p3
aI400
aa(lp4
S'distance'
p5
aNaa(lp6
S'timestamp'
p7
aF5.779355049133301
aatp8
Rp9
.ccollections
OrderedDict
p0
((lp1
(lp2
S'state'
p3
aI400
aa(lp4
S'distance'
p5
aNaa(lp6
S'timestamp'
p7
aF5.788022994995117
aatp8
Rp9
.ccollections
OrderedDict
p0
((lp1
(lp2
S'state'
p3
aI400
aa(lp4
S'distance'
p5
aNaa(lp6
S'timestamp'
p7
aF5.788165092468262
aatp8
Rp9
.ccollections
OrderedDict
p0
((lp1
(lp2
S'state'
p3
aI400
aa(lp4
S'distance'
p5
aNaa(lp6
S'timestamp'
p7
aF5.797649145126343
aatp8
Rp9
.ccollections
OrderedDict
p0
((lp1
(lp2
S'state'
p3
aI400
aa(lp4
S'distance'
p5
aNaa(lp6
S'timestamp'
p7
aF5.798105001449585
aatp8
Rp9
.ccollections
OrderedDict
p0
((lp1
(lp2
S'state'
p3
aI400
aa(lp4
S'distance'
p5
aNaa(lp6
S'timestamp'
p7
aF5.807581186294556
aatp8
Rp9
.ccollections
OrderedDict
p0
((lp1
(lp2
S'state'
p3
aI400
aa(lp4
S'distance'
p5
aNaa(lp6
S'timestamp'
p7
aF5.808037042617798
aatp8
Rp9
.ccollections
OrderedDict
p0
((lp1
(lp2
S'state'
p3
aI400
aa(lp4
S'distance'
p5
aNaa(lp6
S'timestamp'
p7
aF5.819009065628052
aatp8
Rp9
.ccollections
OrderedDict
p0
((lp1
(lp2
S'state'
p3
aI400
aa(lp4
S'distance'
p5
aNaa(lp6
S'timestamp'
p7
aF5.819087982177734
aatp8
Rp9
.ccollections
OrderedDict
p0
((lp1
(lp2
S'state'
p3
aI400
aa(lp4
S'distance'
p5
aNaa(lp6
S'timestamp'
p7
aF5.827640056610107
aatp8
Rp9
.ccollections
OrderedDict
p0
((lp1
(lp2
S'state'
p3
aI400
aa(lp4
S'distance'
p5
aNaa(lp6
S'timestamp'
p7
aF5.828132152557373
aatp8
Rp9
.ccollections
OrderedDict
p0
((lp1
(lp2
S'state'
p3
aI400
aa(lp4
S'distance'
p5
aNaa(lp6
S'timestamp'
p7
aF5.838136196136475
aatp8
Rp9
.ccollections
OrderedDict
p0
((lp1
(lp2
S'state'
p3
aI400
aa(lp4
S'distance'
p5
aNaa(lp6
S'timestamp'
p7
aF5.838340997695923
aatp8
Rp9
.ccollections
OrderedDict
p0
((lp1
(lp2
S'state'
p3
aI400
aa(lp4
S'distance'
p5
aNaa(lp6
S'timestamp'
p7
aF5.848376035690308
aatp8
Rp9
.ccollections
OrderedDict
p0
((lp1
(lp2
S'state'
p3
aI400
aa(lp4
S'distance'
p5
aNaa(lp6
S'timestamp'
p7
aF5.848468065261841
aatp8
Rp9
.ccollections
OrderedDict
p0
((lp1
(lp2
S'state'
p3
aI400
aa(lp4
S'distance'
p5
aNaa(lp6
S'timestamp'
p7
aF5.8682701587677
aatp8
Rp9
.ccollections
OrderedDict
p0
((lp1
(lp2
S'state'
p3
aI400
aa(lp4
S'distance'
p5
aNaa(lp6
S'timestamp'
p7
aF5.868380069732666
aatp8
Rp9
.ccollections
OrderedDict
p0
((lp1
(lp2
S'state'
p3
aI400
aa(lp4
S'distance'
p5
aNaa(lp6
S'timestamp'
p7
aF5.86846399307251
aatp8
Rp9
.ccollections
OrderedDict
p0
((lp1
(lp2
S'state'
p3
aI400
aa(lp4
S'distance'
p5
aNaa(lp6
S'timestamp'
p7
aF5.868987083435059
aatp8
Rp9
.ccollections
OrderedDict
p0
((lp1
(lp2
S'state'
p3
aI400
aa(lp4
S'distance'
p5
aNaa(lp6
S'timestamp'
p7
aF5.877676010131836
aatp8
Rp9
.ccollections
OrderedDict
p0
((lp1
(lp2
S'state'
p3
aI400
aa(lp4
S'distance'
p5
aNaa(lp6
S'timestamp'
p7
aF5.878050088882446
aatp8
Rp9
.ccollections
OrderedDict
p0
((lp1
(lp2
S'state'
p3
aI400
aa(lp4
S'distance'
p5
aNaa(lp6
S'timestamp'
p7
aF5.887723207473755
aatp8
Rp9
.ccollections
OrderedDict
p0
((lp1
(lp2
S'state'
p3
aI400
aa(lp4
S'distance'
p5
aNaa(lp6
S'timestamp'
p7
aF5.888185024261475
aatp8
Rp9
.ccollections
OrderedDict
p0
((lp1
(lp2
S'state'
p3
aI400
aa(lp4
S'distance'
p5
aNaa(lp6
S'timestamp'
p7
aF5.897704124450684
aatp8
Rp9
.ccollections
OrderedDict
p0
((lp1
(lp2
S'state'
p3
aI400
aa(lp4
S'distance'
p5
aNaa(lp6
S'timestamp'
p7
aF5.898000001907349
aatp8
Rp9
.ccollections
OrderedDict
p0
((lp1
(lp2
S'state'
p3
aI400
aa(lp4
S'distance'
p5
aNaa(lp6
S'timestamp'
p7
aF5.9076550006866455
aatp8
Rp9
.ccollections
OrderedDict
p0
((lp1
(lp2
S'state'
p3
aI400
aa(lp4
S'distance'
p5
aNaa(lp6
S'timestamp'
p7
aF5.9080212116241455
aatp8
Rp9
.ccollections
OrderedDict
p0
((lp1
(lp2
S'state'
p3
aI400
aa(lp4
S'distance'
p5
aNaa(lp6
S'timestamp'
p7
aF5.918365001678467
aatp8
Rp9
.ccollections
OrderedDict
p0
((lp1
(lp2
S'state'
p3
aI400
aa(lp4
S'distance'
p5
aNaa(lp6
S'timestamp'
p7
aF5.918658018112183
aatp8
Rp9
.ccollections
OrderedDict
p0
((lp1
(lp2
S'state'
p3
aI400
aa(lp4
S'distance'
p5
aNaa(lp6
S'timestamp'
p7
aF5.92774510383606
aatp8
Rp9
.ccollections
OrderedDict
p0
((lp1
(lp2
S'state'
p3
aI400
aa(lp4
S'distance'
p5
aNaa(lp6
S'timestamp'
p7
aF5.927990198135376
aatp8
Rp9
.ccollections
OrderedDict
p0
((lp1
(lp2
S'state'
p3
aI400
aa(lp4
S'distance'
p5
aNaa(lp6
S'timestamp'
p7
aF5.937515020370483
aatp8
Rp9
.ccollections
OrderedDict
p0
((lp1
(lp2
S'state'
p3
aI400
aa(lp4
S'distance'
p5
aNaa(lp6
S'timestamp'
p7
aF5.938161134719849
aatp8
Rp9
.ccollections
OrderedDict
p0
((lp1
(lp2
S'state'
p3
aI400
aa(lp4
S'distance'
p5
aNaa(lp6
S'timestamp'
p7
aF5.948216199874878
aatp8
Rp9
.ccollections
OrderedDict
p0
((lp1
(lp2
S'state'
p3
aI400
aa(lp4
S'distance'
p5
aNaa(lp6
S'timestamp'
p7
aF5.948618173599243
aatp8
Rp9
.ccollections
OrderedDict
p0
((lp1
(lp2
S'state'
p3
aI400
aa(lp4
S'distance'
p5
aNaa(lp6
S'timestamp'
p7
aF5.958189010620117
aatp8
Rp9
.ccollections
OrderedDict
p0
((lp1
(lp2
S'state'
p3
aI400
aa(lp4
S'distance'
p5
aNaa(lp6
S'timestamp'
p7
aF5.958336114883423
aatp8
Rp9
.ccollections
OrderedDict
p0
((lp1
(lp2
S'state'
p3
aI400
aa(lp4
S'distance'
p5
aNaa(lp6
S'timestamp'
p7
aF5.96752405166626
aatp8
Rp9
.ccollections
OrderedDict
p0
((lp1
(lp2
S'state'
p3
aI400
aa(lp4
S'distance'
p5
aNaa(lp6
S'timestamp'
p7
aF5.9691081047058105
aatp8
Rp9
.ccollections
OrderedDict
p0
((lp1
(lp2
S'state'
p3
aI400
aa(lp4
S'distance'
p5
aNaa(lp6
S'timestamp'
p7
aF5.977589130401611
aatp8
Rp9
.ccollections
OrderedDict
p0
((lp1
(lp2
S'state'
p3
aI400
aa(lp4
S'distance'
p5
aNaa(lp6
S'timestamp'
p7
aF5.9784910678863525
aatp8
Rp9
.ccollections
OrderedDict
p0
((lp1
(lp2
S'state'
p3
aI400
aa(lp4
S'distance'
p5
aNaa(lp6
S'timestamp'
p7
aF5.98808217048645
aatp8
Rp9
.ccollections
OrderedDict
p0
((lp1
(lp2
S'state'
p3
aI400
aa(lp4
S'distance'
p5
aNaa(lp6
S'timestamp'
p7
aF5.988542079925537
aatp8
Rp9
.ccollections
OrderedDict
p0
((lp1
(lp2
S'state'
p3
aI400
aa(lp4
S'distance'
p5
aNaa(lp6
S'timestamp'
p7
aF6.007824182510376
aatp8
Rp9
.ccollections
OrderedDict
p0
((lp1
(lp2
S'state'
p3
aI400
aa(lp4
S'distance'
p5
aNaa(lp6
S'timestamp'
p7
aF6.0079450607299805
aatp8
Rp9
.ccollections
OrderedDict
p0
((lp1
(lp2
S'state'
p3
aI400
aa(lp4
S'distance'
p5
aNaa(lp6
S'timestamp'
p7
aF6.008803129196167
aatp8
Rp9
.ccollections
OrderedDict
p0
((lp1
(lp2
S'state'
p3
aI400
aa(lp4
S'distance'
p5
aNaa(lp6
S'timestamp'
p7
aF6.017776012420654
aatp8
Rp9
.ccollections
OrderedDict
p0
((lp1
(lp2
S'state'
p3
aI400
aa(lp4
S'distance'
p5
aNaa(lp6
S'timestamp'
p7
aF6.029098033905029
aatp8
Rp9
.ccollections
OrderedDict
p0
((lp1
(lp2
S'state'
p3
aI400
aa(lp4
S'distance'
p5
aNaa(lp6
S'timestamp'
p7
aF6.029780149459839
aatp8
Rp9
.ccollections
OrderedDict
p0
((lp1
(lp2
S'state'
p3
aI400
aa(lp4
S'distance'
p5
aNaa(lp6
S'timestamp'
p7
aF6.032495021820068
aatp8
Rp9
.ccollections
OrderedDict
p0
((lp1
(lp2
S'state'
p3
aI400
aa(lp4
S'distance'
p5
aNaa(lp6
S'timestamp'
p7
aF6.032860040664673
aatp8
Rp9
.ccollections
OrderedDict
p0
((lp1
(lp2
S'state'
p3
aI400
aa(lp4
S'distance'
p5
aNaa(lp6
S'timestamp'
p7
aF6.042250156402588
aatp8
Rp9
.ccollections
OrderedDict
p0
((lp1
(lp2
S'state'
p3
aI400
aa(lp4
S'distance'
p5
aNaa(lp6
S'timestamp'
p7
aF6.0424652099609375
aatp8
Rp9
.ccollections
OrderedDict
p0
((lp1
(lp2
S'state'
p3
aI400
aa(lp4
S'distance'
p5
aNaa(lp6
S'timestamp'
p7
aF6.048466205596924
aatp8
Rp9
.ccollections
OrderedDict
p0
((lp1
(lp2
S'state'
p3
aI400
aa(lp4
S'distance'
p5
aNaa(lp6
S'timestamp'
p7
aF6.048768997192383
aatp8
Rp9
.ccollections
OrderedDict
p0
((lp1
(lp2
S'state'
p3
aI400
aa(lp4
S'distance'
p5
aNaa(lp6
S'timestamp'
p7
aF6.057396173477173
aatp8
Rp9
.ccollections
OrderedDict
p0
((lp1
(lp2
S'state'
p3
aI400
aa(lp4
S'distance'
p5
aNaa(lp6
S'timestamp'
p7
aF6.058113098144531
aatp8
Rp9
.ccollections
OrderedDict
p0
((lp1
(lp2
S'state'
p3
aI400
aa(lp4
S'distance'
p5
aNaa(lp6
S'timestamp'
p7
aF6.067454099655151
aatp8
Rp9
.ccollections
OrderedDict
p0
((lp1
(lp2
S'state'
p3
aI400
aa(lp4
S'distance'
p5
aNaa(lp6
S'timestamp'
p7
aF6.067955017089844
aatp8
Rp9
.ccollections
OrderedDict
p0
((lp1
(lp2
S'state'
p3
aI400
aa(lp4
S'distance'
p5
aNaa(lp6
S'timestamp'
p7
aF6.0775041580200195
aatp8
Rp9
.ccollections
OrderedDict
p0
((lp1
(lp2
S'state'
p3
aI400
aa(lp4
S'distance'
p5
aNaa(lp6
S'timestamp'
p7
aF6.078035116195679
aatp8
Rp9
.ccollections
OrderedDict
p0
((lp1
(lp2
S'state'
p3
aI400
aa(lp4
S'distance'
p5
aNaa(lp6
S'timestamp'
p7
aF6.087416172027588
aatp8
Rp9
.ccollections
OrderedDict
p0
((lp1
(lp2
S'state'
p3
aI400
aa(lp4
S'distance'
p5
aNaa(lp6
S'timestamp'
p7
aF6.0880420207977295
aatp8
Rp9
.ccollections
OrderedDict
p0
((lp1
(lp2
S'state'
p3
aI400
aa(lp4
S'distance'
p5
aNaa(lp6
S'timestamp'
p7
aF6.097408056259155
aatp8
Rp9
.ccollections
OrderedDict
p0
((lp1
(lp2
S'state'
p3
aI400
aa(lp4
S'distance'
p5
aNaa(lp6
S'timestamp'
p7
aF6.098180055618286
aatp8
Rp9
.ccollections
OrderedDict
p0
((lp1
(lp2
S'state'
p3
aI400
aa(lp4
S'distance'
p5
aNaa(lp6
S'timestamp'
p7
aF6.1076500415802
aatp8
Rp9
.ccollections
OrderedDict
p0
((lp1
(lp2
S'state'
p3
aI400
aa(lp4
S'distance'
p5
aNaa(lp6
S'timestamp'
p7
aF6.1079511642456055
aatp8
Rp9
.ccollections
OrderedDict
p0
((lp1
(lp2
S'state'
p3
aI400
aa(lp4
S'distance'
p5
aNaa(lp6
S'timestamp'
p7
aF6.117323160171509
aatp8
Rp9
.ccollections
OrderedDict
p0
((lp1
(lp2
S'state'
p3
aI400
aa(lp4
S'distance'
p5
aNaa(lp6
S'timestamp'
p7
aF6.118154048919678
aatp8
Rp9
.ccollections
OrderedDict
p0
((lp1
(lp2
S'state'
p3
aI400
aa(lp4
S'distance'
p5
aNaa(lp6
S'timestamp'
p7
aF6.127369165420532
aatp8
Rp9
.ccollections
OrderedDict
p0
((lp1
(lp2
S'state'
p3
aI400
aa(lp4
S'distance'
p5
aNaa(lp6
S'timestamp'
p7
aF6.127948045730591
aatp8
Rp9
.ccollections
OrderedDict
p0
((lp1
(lp2
S'state'
p3
aI400
aa(lp4
S'distance'
p5
aNaa(lp6
S'timestamp'
p7
aF6.137593984603882
aatp8
Rp9
.ccollections
OrderedDict
p0
((lp1
(lp2
S'state'
p3
aI400
aa(lp4
S'distance'
p5
aNaa(lp6
S'timestamp'
p7
aF6.138023138046265
aatp8
Rp9
.ccollections
OrderedDict
p0
((lp1
(lp2
S'state'
p3
aI400
aa(lp4
S'distance'
p5
aNaa(lp6
S'timestamp'
p7
aF6.147553205490112
aatp8
Rp9
.ccollections
OrderedDict
p0
((lp1
(lp2
S'state'
p3
aI400
aa(lp4
S'distance'
p5
aNaa(lp6
S'timestamp'
p7
aF6.148547172546387
aatp8
Rp9
.ccollections
OrderedDict
p0
((lp1
(lp2
S'state'
p3
aI400
aa(lp4
S'distance'
p5
aNaa(lp6
S'timestamp'
p7
aF6.158130168914795
aatp8
Rp9
.ccollections
OrderedDict
p0
((lp1
(lp2
S'state'
p3
aI400
aa(lp4
S'distance'
p5
aNaa(lp6
S'timestamp'
p7
aF6.158208131790161
aatp8
Rp9
.ccollections
OrderedDict
p0
((lp1
(lp2
S'state'
p3
aI400
aa(lp4
S'distance'
p5
aNaa(lp6
S'timestamp'
p7
aF6.16758918762207
aatp8
Rp9
.ccollections
OrderedDict
p0
((lp1
(lp2
S'state'
p3
aI400
aa(lp4
S'distance'
p5
aNaa(lp6
S'timestamp'
p7
aF6.168171167373657
aatp8
Rp9
.ccollections
OrderedDict
p0
((lp1
(lp2
S'state'
p3
aI400
aa(lp4
S'distance'
p5
aNaa(lp6
S'timestamp'
p7
aF6.177679061889648
aatp8
Rp9
.ccollections
OrderedDict
p0
((lp1
(lp2
S'state'
p3
aI400
aa(lp4
S'distance'
p5
aNaa(lp6
S'timestamp'
p7
aF6.1780500411987305
aatp8
Rp9
.ccollections
OrderedDict
p0
((lp1
(lp2
S'state'
p3
aI400
aa(lp4
S'distance'
p5
aNaa(lp6
S'timestamp'
p7
aF6.187994003295898
aatp8
Rp9
.ccollections
OrderedDict
p0
((lp1
(lp2
S'state'
p3
aI400
aa(lp4
S'distance'
p5
aNaa(lp6
S'timestamp'
p7
aF6.188420057296753
aatp8
Rp9
.ccollections
OrderedDict
p0
((lp1
(lp2
S'state'
p3
aI400
aa(lp4
S'distance'
p5
aNaa(lp6
S'timestamp'
p7
aF6.198166131973267
aatp8
Rp9
.ccollections
OrderedDict
p0
((lp1
(lp2
S'state'
p3
aI400
aa(lp4
S'distance'
p5
aNaa(lp6
S'timestamp'
p7
aF6.19842004776001
aatp8
Rp9
.ccollections
OrderedDict
p0
((lp1
(lp2
S'state'
p3
aI400
aa(lp4
S'distance'
p5
aNaa(lp6
S'timestamp'
p7
aF6.207719087600708
aatp8
Rp9
.ccollections
OrderedDict
p0
((lp1
(lp2
S'state'
p3
aI400
aa(lp4
S'distance'
p5
aNaa(lp6
S'timestamp'
p7
aF6.208240032196045
aatp8
Rp9
.ccollections
OrderedDict
p0
((lp1
(lp2
S'state'
p3
aI400
aa(lp4
S'distance'
p5
aNaa(lp6
S'timestamp'
p7
aF6.217783212661743
aatp8
Rp9
.ccollections
OrderedDict
p0
((lp1
(lp2
S'state'
p3
aI400
aa(lp4
S'distance'
p5
aNaa(lp6
S'timestamp'
p7
aF6.2182111740112305
aatp8
Rp9
.ccollections
OrderedDict
p0
((lp1
(lp2
S'state'
p3
aI400
aa(lp4
S'distance'
p5
aNaa(lp6
S'timestamp'
p7
aF6.227596044540405
aatp8
Rp9
.ccollections
OrderedDict
p0
((lp1
(lp2
S'state'
p3
aI400
aa(lp4
S'distance'
p5
aNaa(lp6
S'timestamp'
p7
aF6.228159189224243
aatp8
Rp9
.ccollections
OrderedDict
p0
((lp1
(lp2
S'state'
p3
aI400
aa(lp4
S'distance'
p5
aNaa(lp6
S'timestamp'
p7
aF6.247503995895386
aatp8
Rp9
.ccollections
OrderedDict
p0
((lp1
(lp2
S'state'
p3
aI400
aa(lp4
S'distance'
p5
aNaa(lp6
S'timestamp'
p7
aF6.248700141906738
aatp8
Rp9
.ccollections
OrderedDict
p0
((lp1
(lp2
S'state'
p3
aI400
aa(lp4
S'distance'
p5
aNaa(lp6
S'timestamp'
p7
aF6.249608993530273
aatp8
Rp9
.ccollections
OrderedDict
p0
((lp1
(lp2
S'state'
p3
aI400
aa(lp4
S'distance'
p5
aNaa(lp6
S'timestamp'
p7
aF6.250591993331909
aatp8
Rp9
.ccollections
OrderedDict
p0
((lp1
(lp2
S'state'
p3
aI400
aa(lp4
S'distance'
p5
aNaa(lp6
S'timestamp'
p7
aF6.2575531005859375
aatp8
Rp9
.ccollections
OrderedDict
p0
((lp1
(lp2
S'state'
p3
aI400
aa(lp4
S'distance'
p5
aNaa(lp6
S'timestamp'
p7
aF6.257947206497192
aatp8
Rp9
.ccollections
OrderedDict
p0
((lp1
(lp2
S'state'
p3
aI400
aa(lp4
S'distance'
p5
aNaa(lp6
S'timestamp'
p7
aF6.2674970626831055
aatp8
Rp9
.ccollections
OrderedDict
p0
((lp1
(lp2
S'state'
p3
aI400
aa(lp4
S'distance'
p5
aNaa(lp6
S'timestamp'
p7
aF6.267956018447876
aatp8
Rp9
.ccollections
OrderedDict
p0
((lp1
(lp2
S'state'
p3
aI400
aa(lp4
S'distance'
p5
aNaa(lp6
S'timestamp'
p7
aF6.278184175491333
aatp8
Rp9
.ccollections
OrderedDict
p0
((lp1
(lp2
S'state'
p3
aI400
aa(lp4
S'distance'
p5
aNaa(lp6
S'timestamp'
p7
aF6.278268098831177
aatp8
Rp9
.ccollections
OrderedDict
p0
((lp1
(lp2
S'state'
p3
aI400
aa(lp4
S'distance'
p5
aNaa(lp6
S'timestamp'
p7
aF6.287978172302246
aatp8
Rp9
.ccollections
OrderedDict
p0
((lp1
(lp2
S'state'
p3
aI400
aa(lp4
S'distance'
p5
aNaa(lp6
S'timestamp'
p7
aF6.2894511222839355
aatp8
Rp9
.ccollections
OrderedDict
p0
((lp1
(lp2
S'state'
p3
aI400
aa(lp4
S'distance'
p5
aNaa(lp6
S'timestamp'
p7
aF6.297826051712036
aatp8
Rp9
.ccollections
OrderedDict
p0
((lp1
(lp2
S'state'
p3
aI400
aa(lp4
S'distance'
p5
aNaa(lp6
S'timestamp'
p7
aF6.298400163650513
aatp8
Rp9
.ccollections
OrderedDict
p0
((lp1
(lp2
S'state'
p3
aI400
aa(lp4
S'distance'
p5
aNaa(lp6
S'timestamp'
p7
aF6.307788133621216
aatp8
Rp9
.ccollections
OrderedDict
p0
((lp1
(lp2
S'state'
p3
aI400
aa(lp4
S'distance'
p5
aNaa(lp6
S'timestamp'
p7
aF6.3079750537872314
aatp8
Rp9
.ccollections
OrderedDict
p0
((lp1
(lp2
S'state'
p3
aI400
aa(lp4
S'distance'
p5
aNaa(lp6
S'timestamp'
p7
aF6.318825006484985
aatp8
Rp9
.ccollections
OrderedDict
p0
((lp1
(lp2
S'state'
p3
aI400
aa(lp4
S'distance'
p5
aNaa(lp6
S'timestamp'
p7
aF6.319463014602661
aatp8
Rp9
.ccollections
OrderedDict
p0
((lp1
(lp2
S'state'
p3
aI400
aa(lp4
S'distance'
p5
aNaa(lp6
S'timestamp'
p7
aF6.327491044998169
aatp8
Rp9
.ccollections
OrderedDict
p0
((lp1
(lp2
S'state'
p3
aI400
aa(lp4
S'distance'
p5
aNaa(lp6
S'timestamp'
p7
aF6.328030109405518
aatp8
Rp9
.ccollections
OrderedDict
p0
((lp1
(lp2
S'state'
p3
aI400
aa(lp4
S'distance'
p5
aNaa(lp6
S'timestamp'
p7
aF6.337629079818726
aatp8
Rp9
.ccollections
OrderedDict
p0
((lp1
(lp2
S'state'
p3
aI400
aa(lp4
S'distance'
p5
aNaa(lp6
S'timestamp'
p7
aF6.337985992431641
aatp8
Rp9
.ccollections
OrderedDict
p0
((lp1
(lp2
S'state'
p3
aI400
aa(lp4
S'distance'
p5
aNaa(lp6
S'timestamp'
p7
aF6.348315000534058
aatp8
Rp9
.ccollections
OrderedDict
p0
((lp1
(lp2
S'state'
p3
aI400
aa(lp4
S'distance'
p5
aNaa(lp6
S'timestamp'
p7
aF6.348390102386475
aatp8
Rp9
.ccollections
OrderedDict
p0
((lp1
(lp2
S'state'
p3
aI400
aa(lp4
S'distance'
p5
aNaa(lp6
S'timestamp'
p7
aF6.357725143432617
aatp8
Rp9
.ccollections
OrderedDict
p0
((lp1
(lp2
S'state'
p3
aI400
aa(lp4
S'distance'
p5
aNaa(lp6
S'timestamp'
p7
aF6.358323097229004
aatp8
Rp9
.ccollections
OrderedDict
p0
((lp1
(lp2
S'state'
p3
aI400
aa(lp4
S'distance'
p5
aNaa(lp6
S'timestamp'
p7
aF6.367570161819458
aatp8
Rp9
.ccollections
OrderedDict
p0
((lp1
(lp2
S'state'
p3
aI400
aa(lp4
S'distance'
p5
aNaa(lp6
S'timestamp'
p7
aF6.3683271408081055
aatp8
Rp9
.ccollections
OrderedDict
p0
((lp1
(lp2
S'state'
p3
aI400
aa(lp4
S'distance'
p5
aNaa(lp6
S'timestamp'
p7
aF6.377624988555908
aatp8
Rp9
.ccollections
OrderedDict
p0
((lp1
(lp2
S'state'
p3
aI400
aa(lp4
S'distance'
p5
aNaa(lp6
S'timestamp'
p7
aF6.3780481815338135
aatp8
Rp9
.ccollections
OrderedDict
p0
((lp1
(lp2
S'state'
p3
aI400
aa(lp4
S'distance'
p5
aNaa(lp6
S'timestamp'
p7
aF6.388008117675781
aatp8
Rp9
.ccollections
OrderedDict
p0
((lp1
(lp2
S'state'
p3
aI400
aa(lp4
S'distance'
p5
aNaa(lp6
S'timestamp'
p7
aF6.388231039047241
aatp8
Rp9
.ccollections
OrderedDict
p0
((lp1
(lp2
S'state'
p3
aI400
aa(lp4
S'distance'
p5
aNaa(lp6
S'timestamp'
p7
aF6.39881706237793
aatp8
Rp9
.ccollections
OrderedDict
p0
((lp1
(lp2
S'state'
p3
aI400
aa(lp4
S'distance'
p5
aNaa(lp6
S'timestamp'
p7
aF6.399023056030273
aatp8
Rp9
.ccollections
OrderedDict
p0
((lp1
(lp2
S'state'
p3
aI400
aa(lp4
S'distance'
p5
aNaa(lp6
S'timestamp'
p7
aF6.418462038040161
aatp8
Rp9
.ccollections
OrderedDict
p0
((lp1
(lp2
S'state'
p3
aI400
aa(lp4
S'distance'
p5
aNaa(lp6
S'timestamp'
p7
aF6.419198036193848
aatp8
Rp9
.ccollections
OrderedDict
p0
((lp1
(lp2
S'state'
p3
aI400
aa(lp4
S'distance'
p5
aNaa(lp6
S'timestamp'
p7
aF6.420001983642578
aatp8
Rp9
.ccollections
OrderedDict
p0
((lp1
(lp2
S'state'
p3
aI400
aa(lp4
S'distance'
p5
aNaa(lp6
S'timestamp'
p7
aF6.420871019363403
aatp8
Rp9
.ccollections
OrderedDict
p0
((lp1
(lp2
S'state'
p3
aI400
aa(lp4
S'distance'
p5
aNaa(lp6
S'timestamp'
p7
aF6.4279701709747314
aatp8
Rp9
.ccollections
OrderedDict
p0
((lp1
(lp2
S'state'
p3
aI400
aa(lp4
S'distance'
p5
aNaa(lp6
S'timestamp'
p7
aF6.4286839962005615
aatp8
Rp9
.ccollections
OrderedDict
p0
((lp1
(lp2
S'state'
p3
aI400
aa(lp4
S'distance'
p5
aNaa(lp6
S'timestamp'
p7
aF6.437403202056885
aatp8
Rp9
.ccollections
OrderedDict
p0
((lp1
(lp2
S'state'
p3
aI400
aa(lp4
S'distance'
p5
aNaa(lp6
S'timestamp'
p7
aF6.438213109970093
aatp8
Rp9
.ccollections
OrderedDict
p0
((lp1
(lp2
S'state'
p3
aI400
aa(lp4
S'distance'
p5
aNaa(lp6
S'timestamp'
p7
aF6.457812070846558
aatp8
Rp9
.ccollections
OrderedDict
p0
((lp1
(lp2
S'state'
p3
aI400
aa(lp4
S'distance'
p5
aNaa(lp6
S'timestamp'
p7
aF6.458153009414673
aatp8
Rp9
.ccollections
OrderedDict
p0
((lp1
(lp2
S'state'
p3
aI400
aa(lp4
S'distance'
p5
aNaa(lp6
S'timestamp'
p7
aF6.458991050720215
aatp8
Rp9
.ccollections
OrderedDict
p0
((lp1
(lp2
S'state'
p3
aI400
aa(lp4
S'distance'
p5
aNaa(lp6
S'timestamp'
p7
aF6.459856033325195
aatp8
Rp9
.ccollections
OrderedDict
p0
((lp1
(lp2
S'state'
p3
aI400
aa(lp4
S'distance'
p5
aNaa(lp6
S'timestamp'
p7
aF6.468139171600342
aatp8
Rp9
.ccollections
OrderedDict
p0
((lp1
(lp2
S'state'
p3
aI400
aa(lp4
S'distance'
p5
aNaa(lp6
S'timestamp'
p7
aF6.468536138534546
aatp8
Rp9
.ccollections
OrderedDict
p0
((lp1
(lp2
S'state'
p3
aI400
aa(lp4
S'distance'
p5
aNaa(lp6
S'timestamp'
p7
aF6.479541063308716
aatp8
Rp9
.ccollections
OrderedDict
p0
((lp1
(lp2
S'state'
p3
aI400
aa(lp4
S'distance'
p5
aNaa(lp6
S'timestamp'
p7
aF6.479631185531616
aatp8
Rp9
.ccollections
OrderedDict
p0
((lp1
(lp2
S'state'
p3
aI400
aa(lp4
S'distance'
p5
aNaa(lp6
S'timestamp'
p7
aF6.487922191619873
aatp8
Rp9
.ccollections
OrderedDict
p0
((lp1
(lp2
S'state'
p3
aI400
aa(lp4
S'distance'
p5
aNaa(lp6
S'timestamp'
p7
aF6.488015174865723
aatp8
Rp9
.ccollections
OrderedDict
p0
((lp1
(lp2
S'state'
p3
aI400
aa(lp4
S'distance'
p5
aNaa(lp6
S'timestamp'
p7
aF6.497591018676758
aatp8
Rp9
.ccollections
OrderedDict
p0
((lp1
(lp2
S'state'
p3
aI400
aa(lp4
S'distance'
p5
aNaa(lp6
S'timestamp'
p7
aF6.498399019241333
aatp8
Rp9
.ccollections
OrderedDict
p0
((lp1
(lp2
S'state'
p3
aI400
aa(lp4
S'distance'
p5
aNaa(lp6
S'timestamp'
p7
aF6.507637023925781
aatp8
Rp9
.ccollections
OrderedDict
p0
((lp1
(lp2
S'state'
p3
aI400
aa(lp4
S'distance'
p5
aNaa(lp6
S'timestamp'
p7
aF6.508202075958252
aatp8
Rp9
.ccollections
OrderedDict
p0
((lp1
(lp2
S'state'
p3
aI400
aa(lp4
S'distance'
p5
aNaa(lp6
S'timestamp'
p7
aF6.517463207244873
aatp8
Rp9
.ccollections
OrderedDict
p0
((lp1
(lp2
S'state'
p3
aI400
aa(lp4
S'distance'
p5
aNaa(lp6
S'timestamp'
p7
aF6.5180840492248535
aatp8
Rp9
.ccollections
OrderedDict
p0
((lp1
(lp2
S'state'
p3
aI400
aa(lp4
S'distance'
p5
aNaa(lp6
S'timestamp'
p7
aF6.527643203735352
aatp8
Rp9
.ccollections
OrderedDict
p0
((lp1
(lp2
S'state'
p3
aI400
aa(lp4
S'distance'
p5
aNaa(lp6
S'timestamp'
p7
aF6.528014183044434
aatp8
Rp9
.ccollections
OrderedDict
p0
((lp1
(lp2
S'state'
p3
aI400
aa(lp4
S'distance'
p5
aNaa(lp6
S'timestamp'
p7
aF6.5374391078948975
aatp8
Rp9
.ccollections
OrderedDict
p0
((lp1
(lp2
S'state'
p3
aI400
aa(lp4
S'distance'
p5
aNaa(lp6
S'timestamp'
p7
aF6.538058042526245
aatp8
Rp9
.ccollections
OrderedDict
p0
((lp1
(lp2
S'state'
p3
aI400
aa(lp4
S'distance'
p5
aNaa(lp6
S'timestamp'
p7
aF6.547469139099121
aatp8
Rp9
.ccollections
OrderedDict
p0
((lp1
(lp2
S'state'
p3
aI400
aa(lp4
S'distance'
p5
aNaa(lp6
S'timestamp'
p7
aF6.548070192337036
aatp8
Rp9
.ccollections
OrderedDict
p0
((lp1
(lp2
S'state'
p3
aI400
aa(lp4
S'distance'
p5
aNaa(lp6
S'timestamp'
p7
aF6.557929992675781
aatp8
Rp9
.ccollections
OrderedDict
p0
((lp1
(lp2
S'state'
p3
aI400
aa(lp4
S'distance'
p5
aNaa(lp6
S'timestamp'
p7
aF6.558013200759888
aatp8
Rp9
.ccollections
OrderedDict
p0
((lp1
(lp2
S'state'
p3
aI400
aa(lp4
S'distance'
p5
aNaa(lp6
S'timestamp'
p7
aF6.567562103271484
aatp8
Rp9
.ccollections
OrderedDict
p0
((lp1
(lp2
S'state'
p3
aI400
aa(lp4
S'distance'
p5
aNaa(lp6
S'timestamp'
p7
aF6.569385051727295
aatp8
Rp9
.ccollections
OrderedDict
p0
((lp1
(lp2
S'state'
p3
aI400
aa(lp4
S'distance'
p5
aNaa(lp6
S'timestamp'
p7
aF6.578384160995483
aatp8
Rp9
.ccollections
OrderedDict
p0
((lp1
(lp2
S'state'
p3
aI400
aa(lp4
S'distance'
p5
aNaa(lp6
S'timestamp'
p7
aF6.578552007675171
aatp8
Rp9
.ccollections
OrderedDict
p0
((lp1
(lp2
S'state'
p3
aI400
aa(lp4
S'distance'
p5
aNaa(lp6
S'timestamp'
p7
aF6.588515996932983
aatp8
Rp9
.ccollections
OrderedDict
p0
((lp1
(lp2
S'state'
p3
aI400
aa(lp4
S'distance'
p5
aNaa(lp6
S'timestamp'
p7
aF6.588698148727417
aatp8
Rp9
.ccollections
OrderedDict
p0
((lp1
(lp2
S'state'
p3
aI0
aa(lp4
S'distance'
p5
aNaa(lp6
S'timestamp'
p7
aF7.182796001434326
aatp8
Rp9
.ccollections
OrderedDict
p0
((lp1
(lp2
S'state'
p3
aI0
aa(lp4
S'distance'
p5
aNaa(lp6
S'timestamp'
p7
aF7.183075189590454
aatp8
Rp9
.ccollections
OrderedDict
p0
((lp1
(lp2
S'state'
p3
aI0
aa(lp4
S'distance'
p5
aNaa(lp6
S'timestamp'
p7
aF7.183305025100708
aatp8
Rp9
.ccollections
OrderedDict
p0
((lp1
(lp2
S'state'
p3
aI0
aa(lp4
S'distance'
p5
aNaa(lp6
S'timestamp'
p7
aF7.190670013427734
aatp8
Rp9
.ccollections
OrderedDict
p0
((lp1
(lp2
S'state'
p3
aI0
aa(lp4
S'distance'
p5
aNaa(lp6
S'timestamp'
p7
aF7.213320016860962
aatp8
Rp9
.ccollections
OrderedDict
p0
((lp1
(lp2
S'state'
p3
aI0
aa(lp4
S'distance'
p5
aNaa(lp6
S'timestamp'
p7
aF7.213452100753784
aatp8
Rp9
.ccollections
OrderedDict
p0
((lp1
(lp2
S'state'
p3
aI0
aa(lp4
S'distance'
p5
aNaa(lp6
S'timestamp'
p7
aF7.213613033294678
aatp8
Rp9
.ccollections
OrderedDict
p0
((lp1
(lp2
S'state'
p3
aI0
aa(lp4
S'distance'
p5
aNaa(lp6
S'timestamp'
p7
aF7.213726043701172
aatp8
Rp9
.ccollections
OrderedDict
p0
((lp1
(lp2
S'state'
p3
aI0
aa(lp4
S'distance'
p5
aNaa(lp6
S'timestamp'
p7
aF7.21415114402771
aatp8
Rp9
.ccollections
OrderedDict
p0
((lp1
(lp2
S'state'
p3
aI0
aa(lp4
S'distance'
p5
aNaa(lp6
S'timestamp'
p7
aF7.223905086517334
aatp8
Rp9
.ccollections
OrderedDict
p0
((lp1
(lp2
S'state'
p3
aI0
aa(lp4
S'distance'
p5
aNaa(lp6
S'timestamp'
p7
aF7.22421407699585
aatp8
Rp9
.ccollections
OrderedDict
p0
((lp1
(lp2
S'state'
p3
aI0
aa(lp4
S'distance'
p5
aNaa(lp6
S'timestamp'
p7
aF7.247660160064697
aatp8
Rp9
.ccollections
OrderedDict
p0
((lp1
(lp2
S'state'
p3
aI0
aa(lp4
S'distance'
p5
aNaa(lp6
S'timestamp'
p7
aF7.24832010269165
aatp8
Rp9
.ccollections
OrderedDict
p0
((lp1
(lp2
S'state'
p3
aI0
aa(lp4
S'distance'
p5
aNaa(lp6
S'timestamp'
p7
aF7.249104022979736
aatp8
Rp9
.ccollections
OrderedDict
p0
((lp1
(lp2
S'state'
p3
aI0
aa(lp4
S'distance'
p5
aNaa(lp6
S'timestamp'
p7
aF7.2494471073150635
aatp8
Rp9
.ccollections
OrderedDict
p0
((lp1
(lp2
S'state'
p3
aI0
aa(lp4
S'distance'
p5
aNaa(lp6
S'timestamp'
p7
aF7.257741212844849
aatp8
Rp9
.ccollections
OrderedDict
p0
((lp1
(lp2
S'state'
p3
aI0
aa(lp4
S'distance'
p5
aNaa(lp6
S'timestamp'
p7
aF7.257974147796631
aatp8
Rp9
.ccollections
OrderedDict
p0
((lp1
(lp2
S'state'
p3
aI0
aa(lp4
S'distance'
p5
aNaa(lp6
S'timestamp'
p7
aF7.2590742111206055
aatp8
Rp9
.ccollections
OrderedDict
p0
((lp1
(lp2
S'state'
p3
aI0
aa(lp4
S'distance'
p5
aNaa(lp6
S'timestamp'
p7
aF7.259903192520142
aatp8
Rp9
.ccollections
OrderedDict
p0
((lp1
(lp2
S'state'
p3
aI0
aa(lp4
S'distance'
p5
aNaa(lp6
S'timestamp'
p7
aF7.267385005950928
aatp8
Rp9
.ccollections
OrderedDict
p0
((lp1
(lp2
S'state'
p3
aI0
aa(lp4
S'distance'
p5
aNaa(lp6
S'timestamp'
p7
aF7.2681190967559814
aatp8
Rp9
.ccollections
OrderedDict
p0
((lp1
(lp2
S'state'
p3
aI0
aa(lp4
S'distance'
p5
aNaa(lp6
S'timestamp'
p7
aF7.277374029159546
aatp8
Rp9
.ccollections
OrderedDict
p0
((lp1
(lp2
S'state'
p3
aI0
aa(lp4
S'distance'
p5
aNaa(lp6
S'timestamp'
p7
aF7.2779200077056885
aatp8
Rp9
.ccollections
OrderedDict
p0
((lp1
(lp2
S'state'
p3
aI0
aa(lp4
S'distance'
p5
aNaa(lp6
S'timestamp'
p7
aF7.287391185760498
aatp8
Rp9
.ccollections
OrderedDict
p0
((lp1
(lp2
S'state'
p3
aI0
aa(lp4
S'distance'
p5
aNaa(lp6
S'timestamp'
p7
aF7.28786301612854
aatp8
Rp9
.ccollections
OrderedDict
p0
((lp1
(lp2
S'state'
p3
aI0
aa(lp4
S'distance'
p5
aNaa(lp6
S'timestamp'
p7
aF7.297563076019287
aatp8
Rp9
.ccollections
OrderedDict
p0
((lp1
(lp2
S'state'
p3
aI0
aa(lp4
S'distance'
p5
aNaa(lp6
S'timestamp'
p7
aF7.297892093658447
aatp8
Rp9
.ccollections
OrderedDict
p0
((lp1
(lp2
S'state'
p3
aI0
aa(lp4
S'distance'
p5
aNaa(lp6
S'timestamp'
p7
aF7.317749977111816
aatp8
Rp9
.ccollections
OrderedDict
p0
((lp1
(lp2
S'state'
p3
aI0
aa(lp4
S'distance'
p5
aNaa(lp6
S'timestamp'
p7
aF7.318850994110107
aatp8
Rp9
.ccollections
OrderedDict
p0
((lp1
(lp2
S'state'
p3
aI0
aa(lp4
S'distance'
p5
aNaa(lp6
S'timestamp'
p7
aF7.318946123123169
aatp8
Rp9
.ccollections
OrderedDict
p0
((lp1
(lp2
S'state'
p3
aI0
aa(lp4
S'distance'
p5
aNaa(lp6
S'timestamp'
p7
aF7.319236993789673
aatp8
Rp9
.ccollections
OrderedDict
p0
((lp1
(lp2
S'state'
p3
aI0
aa(lp4
S'distance'
p5
aNaa(lp6
S'timestamp'
p7
aF7.327581167221069
aatp8
Rp9
.ccollections
OrderedDict
p0
((lp1
(lp2
S'state'
p3
aI0
aa(lp4
S'distance'
p5
aNaa(lp6
S'timestamp'
p7
aF7.327954053878784
aatp8
Rp9
.ccollections
OrderedDict
p0
((lp1
(lp2
S'state'
p3
aI0
aa(lp4
S'distance'
p5
aNaa(lp6
S'timestamp'
p7
aF7.337382078170776
aatp8
Rp9
.ccollections
OrderedDict
p0
((lp1
(lp2
S'state'
p3
aI0
aa(lp4
S'distance'
p5
aNaa(lp6
S'timestamp'
p7
aF7.338195085525513
aatp8
Rp9
.ccollections
OrderedDict
p0
((lp1
(lp2
S'state'
p3
aI0
aa(lp4
S'distance'
p5
aNaa(lp6
S'timestamp'
p7
aF7.348150014877319
aatp8
Rp9
.ccollections
OrderedDict
p0
((lp1
(lp2
S'state'
p3
aI0
aa(lp4
S'distance'
p5
aNaa(lp6
S'timestamp'
p7
aF7.348391056060791
aatp8
Rp9
.ccollections
OrderedDict
p0
((lp1
(lp2
S'state'
p3
aI0
aa(lp4
S'distance'
p5
aNaa(lp6
S'timestamp'
p7
aF7.358035087585449
aatp8
Rp9
.ccollections
OrderedDict
p0
((lp1
(lp2
S'state'
p3
aI0
aa(lp4
S'distance'
p5
aNaa(lp6
S'timestamp'
p7
aF7.358128070831299
aatp8
Rp9
.ccollections
OrderedDict
p0
((lp1
(lp2
S'state'
p3
aI0
aa(lp4
S'distance'
p5
aNaa(lp6
S'timestamp'
p7
aF7.367655038833618
aatp8
Rp9
.ccollections
OrderedDict
p0
((lp1
(lp2
S'state'
p3
aI0
aa(lp4
S'distance'
p5
aNaa(lp6
S'timestamp'
p7
aF7.36781907081604
aatp8
Rp9
.ccollections
OrderedDict
p0
((lp1
(lp2
S'state'
p3
aI0
aa(lp4
S'distance'
p5
aNaa(lp6
S'timestamp'
p7
aF7.377437114715576
aatp8
Rp9
.ccollections
OrderedDict
p0
((lp1
(lp2
S'state'
p3
aI0
aa(lp4
S'distance'
p5
aNaa(lp6
S'timestamp'
p7
aF7.37804102897644
aatp8
Rp9
.ccollections
OrderedDict
p0
((lp1
(lp2
S'state'
p3
aI0
aa(lp4
S'distance'
p5
aNaa(lp6
S'timestamp'
p7
aF7.388695001602173
aatp8
Rp9
.ccollections
OrderedDict
p0
((lp1
(lp2
S'state'
p3
aI0
aa(lp4
S'distance'
p5
aNaa(lp6
S'timestamp'
p7
aF7.3891282081604
aatp8
Rp9
.ccollections
OrderedDict
p0
((lp1
(lp2
S'state'
p3
aI0
aa(lp4
S'distance'
p5
aNaa(lp6
S'timestamp'
p7
aF7.397504091262817
aatp8
Rp9
.ccollections
OrderedDict
p0
((lp1
(lp2
S'state'
p3
aI0
aa(lp4
S'distance'
p5
aNaa(lp6
S'timestamp'
p7
aF7.398077011108398
aatp8
Rp9
.ccollections
OrderedDict
p0
((lp1
(lp2
S'state'
p3
aI0
aa(lp4
S'distance'
p5
aNaa(lp6
S'timestamp'
p7
aF7.40767502784729
aatp8
Rp9
.ccollections
OrderedDict
p0
((lp1
(lp2
S'state'
p3
aI0
aa(lp4
S'distance'
p5
aNaa(lp6
S'timestamp'
p7
aF7.407808065414429
aatp8
Rp9
.ccollections
OrderedDict
p0
((lp1
(lp2
S'state'
p3
aI0
aa(lp4
S'distance'
p5
aNaa(lp6
S'timestamp'
p7
aF7.41762900352478
aatp8
Rp9
.ccollections
OrderedDict
p0
((lp1
(lp2
S'state'
p3
aI0
aa(lp4
S'distance'
p5
aNaa(lp6
S'timestamp'
p7
aF7.417874097824097
aatp8
Rp9
.ccollections
OrderedDict
p0
((lp1
(lp2
S'state'
p3
aI0
aa(lp4
S'distance'
p5
aNaa(lp6
S'timestamp'
p7
aF7.428516149520874
aatp8
Rp9
.ccollections
OrderedDict
p0
((lp1
(lp2
S'state'
p3
aI0
aa(lp4
S'distance'
p5
aNaa(lp6
S'timestamp'
p7
aF7.428908109664917
aatp8
Rp9
.ccollections
OrderedDict
p0
((lp1
(lp2
S'state'
p3
aI0
aa(lp4
S'distance'
p5
aNaa(lp6
S'timestamp'
p7
aF7.43753719329834
aatp8
Rp9
.ccollections
OrderedDict
p0
((lp1
(lp2
S'state'
p3
aI0
aa(lp4
S'distance'
p5
aNaa(lp6
S'timestamp'
p7
aF7.437851190567017
aatp8
Rp9
.ccollections
OrderedDict
p0
((lp1
(lp2
S'state'
p3
aI0
aa(lp4
S'distance'
p5
aNaa(lp6
S'timestamp'
p7
aF7.447578191757202
aatp8
Rp9
.ccollections
OrderedDict
p0
((lp1
(lp2
S'state'
p3
aI0
aa(lp4
S'distance'
p5
aNaa(lp6
S'timestamp'
p7
aF7.447899103164673
aatp8
Rp9
.ccollections
OrderedDict
p0
((lp1
(lp2
S'state'
p3
aI0
aa(lp4
S'distance'
p5
aNaa(lp6
S'timestamp'
p7
aF7.458662986755371
aatp8
Rp9
.ccollections
OrderedDict
p0
((lp1
(lp2
S'state'
p3
aI0
aa(lp4
S'distance'
p5
aNaa(lp6
S'timestamp'
p7
aF7.45876407623291
aatp8
Rp9
.ccollections
OrderedDict
p0
((lp1
(lp2
S'state'
p3
aI0
aa(lp4
S'distance'
p5
aNaa(lp6
S'timestamp'
p7
aF7.468393087387085
aatp8
Rp9
.ccollections
OrderedDict
p0
((lp1
(lp2
S'state'
p3
aI0
aa(lp4
S'distance'
p5
aNaa(lp6
S'timestamp'
p7
aF7.468469142913818
aatp8
Rp9
.ccollections
OrderedDict
p0
((lp1
(lp2
S'state'
p3
aI0
aa(lp4
S'distance'
p5
aNaa(lp6
S'timestamp'
p7
aF7.477930068969727
aatp8
Rp9
.ccollections
OrderedDict
p0
((lp1
(lp2
S'state'
p3
aI0
aa(lp4
S'distance'
p5
aNaa(lp6
S'timestamp'
p7
aF7.478008985519409
aatp8
Rp9
.ccollections
OrderedDict
p0
((lp1
(lp2
S'state'
p3
aI0
aa(lp4
S'distance'
p5
aNaa(lp6
S'timestamp'
p7
aF7.487616062164307
aatp8
Rp9
.ccollections
OrderedDict
p0
((lp1
(lp2
S'state'
p3
aI0
aa(lp4
S'distance'
p5
aNaa(lp6
S'timestamp'
p7
aF7.487878084182739
aatp8
Rp9
.ccollections
OrderedDict
p0
((lp1
(lp2
S'state'
p3
aI0
aa(lp4
S'distance'
p5
aNaa(lp6
S'timestamp'
p7
aF7.497634172439575
aatp8
Rp9
.ccollections
OrderedDict
p0
((lp1
(lp2
S'state'
p3
aI0
aa(lp4
S'distance'
p5
aNaa(lp6
S'timestamp'
p7
aF7.498064041137695
aatp8
Rp9
.ccollections
OrderedDict
p0
((lp1
(lp2
S'state'
p3
aI0
aa(lp4
S'distance'
p5
aNaa(lp6
S'timestamp'
p7
aF7.508074998855591
aatp8
Rp9
.ccollections
OrderedDict
p0
((lp1
(lp2
S'state'
p3
aI0
aa(lp4
S'distance'
p5
aNaa(lp6
S'timestamp'
p7
aF7.508249998092651
aatp8
Rp9
.ccollections
OrderedDict
p0
((lp1
(lp2
S'state'
p3
aI0
aa(lp4
S'distance'
p5
aNaa(lp6
S'timestamp'
p7
aF7.517573118209839
aatp8
Rp9
.ccollections
OrderedDict
p0
((lp1
(lp2
S'state'
p3
aI0
aa(lp4
S'distance'
p5
aNaa(lp6
S'timestamp'
p7
aF7.518210172653198
aatp8
Rp9
.ccollections
OrderedDict
p0
((lp1
(lp2
S'state'
p3
aI0
aa(lp4
S'distance'
p5
aNaa(lp6
S'timestamp'
p7
aF7.528185129165649
aatp8
Rp9
.ccollections
OrderedDict
p0
((lp1
(lp2
S'state'
p3
aI0
aa(lp4
S'distance'
p5
aNaa(lp6
S'timestamp'
p7
aF7.528300046920776
aatp8
Rp9
.ccollections
OrderedDict
p0
((lp1
(lp2
S'state'
p3
aI0
aa(lp4
S'distance'
p5
aNaa(lp6
S'timestamp'
p7
aF7.548622131347656
aatp8
Rp9
.ccollections
OrderedDict
p0
((lp1
(lp2
S'state'
p3
aI0
aa(lp4
S'distance'
p5
aNaa(lp6
S'timestamp'
p7
aF7.548704147338867
aatp8
Rp9
.ccollections
OrderedDict
p0
((lp1
(lp2
S'state'
p3
aI0
aa(lp4
S'distance'
p5
aNaa(lp6
S'timestamp'
p7
aF7.548829078674316
aatp8
Rp9
.ccollections
OrderedDict
p0
((lp1
(lp2
S'state'
p3
aI0
aa(lp4
S'distance'
p5
aNaa(lp6
S'timestamp'
p7
aF7.54889702796936
aatp8
Rp9
.ccollections
OrderedDict
p0
((lp1
(lp2
S'state'
p3
aI0
aa(lp4
S'distance'
p5
aNaa(lp6
S'timestamp'
p7
aF7.557790994644165
aatp8
Rp9
.ccollections
OrderedDict
p0
((lp1
(lp2
S'state'
p3
aI0
aa(lp4
S'distance'
p5
aNaa(lp6
S'timestamp'
p7
aF7.557870149612427
aatp8
Rp9
.ccollections
OrderedDict
p0
((lp1
(lp2
S'state'
p3
aI0
aa(lp4
S'distance'
p5
aNaa(lp6
S'timestamp'
p7
aF7.567873001098633
aatp8
Rp9
.ccollections
OrderedDict
p0
((lp1
(lp2
S'state'
p3
aI0
aa(lp4
S'distance'
p5
aNaa(lp6
S'timestamp'
p7
aF7.568027019500732
aatp8
Rp9
.ccollections
OrderedDict
p0
((lp1
(lp2
S'state'
p3
aI0
aa(lp4
S'distance'
p5
aNaa(lp6
S'timestamp'
p7
aF7.577939033508301
aatp8
Rp9
.ccollections
OrderedDict
p0
((lp1
(lp2
S'state'
p3
aI0
aa(lp4
S'distance'
p5
aNaa(lp6
S'timestamp'
p7
aF7.578201055526733
aatp8
Rp9
.ccollections
OrderedDict
p0
((lp1
(lp2
S'state'
p3
aI0
aa(lp4
S'distance'
p5
aNaa(lp6
S'timestamp'
p7
aF7.587645053863525
aatp8
Rp9
.ccollections
OrderedDict
p0
((lp1
(lp2
S'state'
p3
aI0
aa(lp4
S'distance'
p5
aNaa(lp6
S'timestamp'
p7
aF7.587895154953003
aatp8
Rp9
.ccollections
OrderedDict
p0
((lp1
(lp2
S'state'
p3
aI0
aa(lp4
S'distance'
p5
aNaa(lp6
S'timestamp'
p7
aF7.5976691246032715
aatp8
Rp9
.ccollections
OrderedDict
p0
((lp1
(lp2
S'state'
p3
aI0
aa(lp4
S'distance'
p5
aNaa(lp6
S'timestamp'
p7
aF7.598059177398682
aatp8
Rp9
.ccollections
OrderedDict
p0
((lp1
(lp2
S'state'
p3
aI0
aa(lp4
S'distance'
p5
aNaa(lp6
S'timestamp'
p7
aF7.608690023422241
aatp8
Rp9
.ccollections
OrderedDict
p0
((lp1
(lp2
S'state'
p3
aI0
aa(lp4
S'distance'
p5
aNaa(lp6
S'timestamp'
p7
aF7.60885214805603
aatp8
Rp9
.ccollections
OrderedDict
p0
((lp1
(lp2
S'state'
p3
aI0
aa(lp4
S'distance'
p5
aNaa(lp6
S'timestamp'
p7
aF7.617753982543945
aatp8
Rp9
.ccollections
OrderedDict
p0
((lp1
(lp2
S'state'
p3
aI0
aa(lp4
S'distance'
p5
aNaa(lp6
S'timestamp'
p7
aF7.617842197418213
aatp8
Rp9
.ccollections
OrderedDict
p0
((lp1
(lp2
S'state'
p3
aI0
aa(lp4
S'distance'
p5
aNaa(lp6
S'timestamp'
p7
aF7.6281960010528564
aatp8
Rp9
.ccollections
OrderedDict
p0
((lp1
(lp2
S'state'
p3
aI0
aa(lp4
S'distance'
p5
aNaa(lp6
S'timestamp'
p7
aF7.6287150382995605
aatp8
Rp9
.ccollections
OrderedDict
p0
((lp1
(lp2
S'state'
p3
aI0
aa(lp4
S'distance'
p5
aNaa(lp6
S'timestamp'
p7
aF7.638306140899658
aatp8
Rp9
.ccollections
OrderedDict
p0
((lp1
(lp2
S'state'
p3
aI0
aa(lp4
S'distance'
p5
aNaa(lp6
S'timestamp'
p7
aF7.638384103775024
aatp8
Rp9
.ccollections
OrderedDict
p0
((lp1
(lp2
S'state'
p3
aI0
aa(lp4
S'distance'
p5
aNaa(lp6
S'timestamp'
p7
aF7.657449007034302
aatp8
Rp9
.ccollections
OrderedDict
p0
((lp1
(lp2
S'state'
p3
aI0
aa(lp4
S'distance'
p5
aNaa(lp6
S'timestamp'
p7
aF7.658016204833984
aatp8
Rp9
.ccollections
OrderedDict
p0
((lp1
(lp2
S'state'
p3
aI0
aa(lp4
S'distance'
p5
aNaa(lp6
S'timestamp'
p7
aF7.6596221923828125
aatp8
Rp9
.ccollections
OrderedDict
p0
((lp1
(lp2
S'state'
p3
aI0
aa(lp4
S'distance'
p5
aNaa(lp6
S'timestamp'
p7
aF7.660564184188843
aatp8
Rp9
.ccollections
OrderedDict
p0
((lp1
(lp2
S'state'
p3
aI0
aa(lp4
S'distance'
p5
aNaa(lp6
S'timestamp'
p7
aF7.668431043624878
aatp8
Rp9
.ccollections
OrderedDict
p0
((lp1
(lp2
S'state'
p3
aI0
aa(lp4
S'distance'
p5
aNaa(lp6
S'timestamp'
p7
aF7.677589178085327
aatp8
Rp9
.ccollections
OrderedDict
p0
((lp1
(lp2
S'state'
p3
aI0
aa(lp4
S'distance'
p5
aNaa(lp6
S'timestamp'
p7
aF7.678211212158203
aatp8
Rp9
.ccollections
OrderedDict
p0
((lp1
(lp2
S'state'
p3
aI0
aa(lp4
S'distance'
p5
aNaa(lp6
S'timestamp'
p7
aF7.678534030914307
aatp8
Rp9
.ccollections
OrderedDict
p0
((lp1
(lp2
S'state'
p3
aI0
aa(lp4
S'distance'
p5
aNaa(lp6
S'timestamp'
p7
aF7.688173055648804
aatp8
Rp9
.ccollections
OrderedDict
p0
((lp1
(lp2
S'state'
p3
aI0
aa(lp4
S'distance'
p5
aNaa(lp6
S'timestamp'
p7
aF7.688807010650635
aatp8
Rp9
.ccollections
OrderedDict
p0
((lp1
(lp2
S'state'
p3
aI0
aa(lp4
S'distance'
p5
aNaa(lp6
S'timestamp'
p7
aF7.6979780197143555
aatp8
Rp9
.ccollections
OrderedDict
p0
((lp1
(lp2
S'state'
p3
aI0
aa(lp4
S'distance'
p5
aNaa(lp6
S'timestamp'
p7
aF7.698055028915405
aatp8
Rp9
.ccollections
OrderedDict
p0
((lp1
(lp2
S'state'
p3
aI0
aa(lp4
S'distance'
p5
aNaa(lp6
S'timestamp'
p7
aF7.707962989807129
aatp8
Rp9
.ccollections
OrderedDict
p0
((lp1
(lp2
S'state'
p3
aI0
aa(lp4
S'distance'
p5
aNaa(lp6
S'timestamp'
p7
aF7.708245038986206
aatp8
Rp9
.ccollections
OrderedDict
p0
((lp1
(lp2
S'state'
p3
aI0
aa(lp4
S'distance'
p5
aNaa(lp6
S'timestamp'
p7
aF7.717871189117432
aatp8
Rp9
.ccollections
OrderedDict
p0
((lp1
(lp2
S'state'
p3
aI0
aa(lp4
S'distance'
p5
aNaa(lp6
S'timestamp'
p7
aF7.718157052993774
aatp8
Rp9
.ccollections
OrderedDict
p0
((lp1
(lp2
S'state'
p3
aI0
aa(lp4
S'distance'
p5
aNaa(lp6
S'timestamp'
p7
aF7.727610111236572
aatp8
Rp9
.ccollections
OrderedDict
p0
((lp1
(lp2
S'state'
p3
aI0
aa(lp4
S'distance'
p5
aNaa(lp6
S'timestamp'
p7
aF7.728021144866943
aatp8
Rp9
.ccollections
OrderedDict
p0
((lp1
(lp2
S'state'
p3
aI0
aa(lp4
S'distance'
p5
aNaa(lp6
S'timestamp'
p7
aF7.73755407333374
aatp8
Rp9
.ccollections
OrderedDict
p0
((lp1
(lp2
S'state'
p3
aI0
aa(lp4
S'distance'
p5
aNaa(lp6
S'timestamp'
p7
aF7.738314151763916
aatp8
Rp9
.ccollections
OrderedDict
p0
((lp1
(lp2
S'state'
p3
aI0
aa(lp4
S'distance'
p5
aNaa(lp6
S'timestamp'
p7
aF7.757812023162842
aatp8
Rp9
.ccollections
OrderedDict
p0
((lp1
(lp2
S'state'
p3
aI0
aa(lp4
S'distance'
p5
aNaa(lp6
S'timestamp'
p7
aF7.758501052856445
aatp8
Rp9
.ccollections
OrderedDict
p0
((lp1
(lp2
S'state'
p3
aI0
aa(lp4
S'distance'
p5
aNaa(lp6
S'timestamp'
p7
aF7.759150981903076
aatp8
Rp9
.ccollections
OrderedDict
p0
((lp1
(lp2
S'state'
p3
aI0
aa(lp4
S'distance'
p5
aNaa(lp6
S'timestamp'
p7
aF7.76082706451416
aatp8
Rp9
.ccollections
OrderedDict
p0
((lp1
(lp2
S'state'
p3
aI0
aa(lp4
S'distance'
p5
aNaa(lp6
S'timestamp'
p7
aF7.767419099807739
aatp8
Rp9
.ccollections
OrderedDict
p0
((lp1
(lp2
S'state'
p3
aI0
aa(lp4
S'distance'
p5
aNaa(lp6
S'timestamp'
p7
aF7.767965078353882
aatp8
Rp9
.ccollections
OrderedDict
p0
((lp1
(lp2
S'state'
p3
aI0
aa(lp4
S'distance'
p5
aNaa(lp6
S'timestamp'
p7
aF7.788127183914185
aatp8
Rp9
.ccollections
OrderedDict
p0
((lp1
(lp2
S'state'
p3
aI0
aa(lp4
S'distance'
p5
aNaa(lp6
S'timestamp'
p7
aF7.788679122924805
aatp8
Rp9
.ccollections
OrderedDict
p0
((lp1
(lp2
S'state'
p3
aI0
aa(lp4
S'distance'
p5
aNaa(lp6
S'timestamp'
p7
aF7.789674997329712
aatp8
Rp9
.ccollections
OrderedDict
p0
((lp1
(lp2
S'state'
p3
aI0
aa(lp4
S'distance'
p5
aNaa(lp6
S'timestamp'
p7
aF7.7906270027160645
aatp8
Rp9
.ccollections
OrderedDict
p0
((lp1
(lp2
S'state'
p3
aI0
aa(lp4
S'distance'
p5
aNaa(lp6
S'timestamp'
p7
aF7.7974841594696045
aatp8
Rp9
.ccollections
OrderedDict
p0
((lp1
(lp2
S'state'
p3
aI0
aa(lp4
S'distance'
p5
aNaa(lp6
S'timestamp'
p7
aF7.7978081703186035
aatp8
Rp9
.ccollections
OrderedDict
p0
((lp1
(lp2
S'state'
p3
aI0
aa(lp4
S'distance'
p5
aNaa(lp6
S'timestamp'
p7
aF7.809118986129761
aatp8
Rp9
.ccollections
OrderedDict
p0
((lp1
(lp2
S'state'
p3
aI0
aa(lp4
S'distance'
p5
aNaa(lp6
S'timestamp'
p7
aF7.809576034545898
aatp8
Rp9
.ccollections
OrderedDict
p0
((lp1
(lp2
S'state'
p3
aI0
aa(lp4
S'distance'
p5
aNaa(lp6
S'timestamp'
p7
aF7.81755518913269
aatp8
Rp9
.ccollections
OrderedDict
p0
((lp1
(lp2
S'state'
p3
aI0
aa(lp4
S'distance'
p5
aNaa(lp6
S'timestamp'
p7
aF7.818088054656982
aatp8
Rp9
.ccollections
OrderedDict
p0
((lp1
(lp2
S'state'
p3
aI0
aa(lp4
S'distance'
p5
aNaa(lp6
S'timestamp'
p7
aF7.840391159057617
aatp8
Rp9
.ccollections
OrderedDict
p0
((lp1
(lp2
S'state'
p3
aI0
aa(lp4
S'distance'
p5
aNaa(lp6
S'timestamp'
p7
aF7.840708017349243
aatp8
Rp9
.ccollections
OrderedDict
p0
((lp1
(lp2
S'state'
p3
aI0
aa(lp4
S'distance'
p5
aNaa(lp6
S'timestamp'
p7
aF7.8410561084747314
aatp8
Rp9
.ccollections
OrderedDict
p0
((lp1
(lp2
S'state'
p3
aI0
aa(lp4
S'distance'
p5
aNaa(lp6
S'timestamp'
p7
aF7.841838121414185
aatp8
Rp9
.ccollections
OrderedDict
p0
((lp1
(lp2
S'state'
p3
aI0
aa(lp4
S'distance'
p5
aNaa(lp6
S'timestamp'
p7
aF7.848376989364624
aatp8
Rp9
.ccollections
OrderedDict
p0
((lp1
(lp2
S'state'
p3
aI0
aa(lp4
S'distance'
p5
aNaa(lp6
S'timestamp'
p7
aF7.8485071659088135
aatp8
Rp9
.ccollections
OrderedDict
p0
((lp1
(lp2
S'state'
p3
aI0
aa(lp4
S'distance'
p5
aNaa(lp6
S'timestamp'
p7
aF7.857547998428345
aatp8
Rp9
.ccollections
OrderedDict
p0
((lp1
(lp2
S'state'
p3
aI0
aa(lp4
S'distance'
p5
aNaa(lp6
S'timestamp'
p7
aF7.85822319984436
aatp8
Rp9
.ccollections
OrderedDict
p0
((lp1
(lp2
S'state'
p3
aI0
aa(lp4
S'distance'
p5
aNaa(lp6
S'timestamp'
p7
aF7.8674399852752686
aatp8
Rp9
.ccollections
OrderedDict
p0
((lp1
(lp2
S'state'
p3
aI0
aa(lp4
S'distance'
p5
aNaa(lp6
S'timestamp'
p7
aF7.86863112449646
aatp8
Rp9
.ccollections
OrderedDict
p0
((lp1
(lp2
S'state'
p3
aI0
aa(lp4
S'distance'
p5
aNaa(lp6
S'timestamp'
p7
aF7.877434015274048
aatp8
Rp9
.ccollections
OrderedDict
p0
((lp1
(lp2
S'state'
p3
aI0
aa(lp4
S'distance'
p5
aNaa(lp6
S'timestamp'
p7
aF7.878937005996704
aatp8
Rp9
.ccollections
OrderedDict
p0
((lp1
(lp2
S'state'
p3
aI0
aa(lp4
S'distance'
p5
aNaa(lp6
S'timestamp'
p7
aF7.887469053268433
aatp8
Rp9
.ccollections
OrderedDict
p0
((lp1
(lp2
S'state'
p3
aI0
aa(lp4
S'distance'
p5
aNaa(lp6
S'timestamp'
p7
aF7.8886401653289795
aatp8
Rp9
.ccollections
OrderedDict
p0
((lp1
(lp2
S'state'
p3
aI0
aa(lp4
S'distance'
p5
aNaa(lp6
S'timestamp'
p7
aF7.897235155105591
aatp8
Rp9
.ccollections
OrderedDict
p0
((lp1
(lp2
S'state'
p3
aI0
aa(lp4
S'distance'
p5
aNaa(lp6
S'timestamp'
p7
aF7.898349046707153
aatp8
Rp9
.ccollections
OrderedDict
p0
((lp1
(lp2
S'state'
p3
aI0
aa(lp4
S'distance'
p5
aNaa(lp6
S'timestamp'
p7
aF7.907934188842773
aatp8
Rp9
.ccollections
OrderedDict
p0
((lp1
(lp2
S'state'
p3
aI0
aa(lp4
S'distance'
p5
aNaa(lp6
S'timestamp'
p7
aF7.908013105392456
aatp8
Rp9
.ccollections
OrderedDict
p0
((lp1
(lp2
S'state'
p3
aI0
aa(lp4
S'distance'
p5
aNaa(lp6
S'timestamp'
p7
aF7.918361186981201
aatp8
Rp9
.ccollections
OrderedDict
p0
((lp1
(lp2
S'state'
p3
aI0
aa(lp4
S'distance'
p5
aNaa(lp6
S'timestamp'
p7
aF7.91907000541687
aatp8
Rp9
.ccollections
OrderedDict
p0
((lp1
(lp2
S'state'
p3
aI0
aa(lp4
S'distance'
p5
aNaa(lp6
S'timestamp'
p7
aF7.927599191665649
aatp8
Rp9
.ccollections
OrderedDict
p0
((lp1
(lp2
S'state'
p3
aI0
aa(lp4
S'distance'
p5
aNaa(lp6
S'timestamp'
p7
aF7.927882194519043
aatp8
Rp9
.ccollections
OrderedDict
p0
((lp1
(lp2
S'state'
p3
aI0
aa(lp4
S'distance'
p5
aNaa(lp6
S'timestamp'
p7
aF7.937448024749756
aatp8
Rp9
.ccollections
OrderedDict
p0
((lp1
(lp2
S'state'
p3
aI0
aa(lp4
S'distance'
p5
aNaa(lp6
S'timestamp'
p7
aF7.938169002532959
aatp8
Rp9
.ccollections
OrderedDict
p0
((lp1
(lp2
S'state'
p3
aI0
aa(lp4
S'distance'
p5
aNaa(lp6
S'timestamp'
p7
aF7.9489710330963135
aatp8
Rp9
.ccollections
OrderedDict
p0
((lp1
(lp2
S'state'
p3
aI0
aa(lp4
S'distance'
p5
aNaa(lp6
S'timestamp'
p7
aF7.949118137359619
aatp8
Rp9
.ccollections
OrderedDict
p0
((lp1
(lp2
S'state'
p3
aI0
aa(lp4
S'distance'
p5
aNaa(lp6
S'timestamp'
p7
aF7.958173990249634
aatp8
Rp9
.ccollections
OrderedDict
p0
((lp1
(lp2
S'state'
p3
aI0
aa(lp4
S'distance'
p5
aNaa(lp6
S'timestamp'
p7
aF7.958402156829834
aatp8
Rp9
.ccollections
OrderedDict
p0
((lp1
(lp2
S'state'
p3
aI0
aa(lp4
S'distance'
p5
aNaa(lp6
S'timestamp'
p7
aF7.967743158340454
aatp8
Rp9
.ccollections
OrderedDict
p0
((lp1
(lp2
S'state'
p3
aI0
aa(lp4
S'distance'
p5
aNaa(lp6
S'timestamp'
p7
aF7.967892169952393
aatp8
Rp9
.ccollections
OrderedDict
p0
((lp1
(lp2
S'state'
p3
aI0
aa(lp4
S'distance'
p5
aNaa(lp6
S'timestamp'
p7
aF7.9872801303863525
aatp8
Rp9
.ccollections
OrderedDict
p0
((lp1
(lp2
S'state'
p3
aI0
aa(lp4
S'distance'
p5
aNaa(lp6
S'timestamp'
p7
aF7.988346099853516
aatp8
Rp9
.ccollections
OrderedDict
p0
((lp1
(lp2
S'state'
p3
aI0
aa(lp4
S'distance'
p5
aNaa(lp6
S'timestamp'
p7
aF7.988470077514648
aatp8
Rp9
.ccollections
OrderedDict
p0
((lp1
(lp2
S'state'
p3
aI0
aa(lp4
S'distance'
p5
aNaa(lp6
S'timestamp'
p7
aF7.988802194595337
aatp8
Rp9
.ccollections
OrderedDict
p0
((lp1
(lp2
S'state'
p3
aI0
aa(lp4
S'distance'
p5
aNaa(lp6
S'timestamp'
p7
aF7.998291015625
aatp8
Rp9
.ccollections
OrderedDict
p0
((lp1
(lp2
S'state'
p3
aI0
aa(lp4
S'distance'
p5
aNaa(lp6
S'timestamp'
p7
aF7.998483180999756
aatp8
Rp9
.