ccollections
OrderedDict
p0
((lp1
(lp2
S'state'
p3
aI0
aa(lp4
S'distance'
p5
aF367.89449310302734
aa(lp6
S'timestamp'
p7
aF0.013314008712768555
aatp8
Rp9
.ccollections
OrderedDict
p0
((lp1
(lp2
S'state'
p3
aI0
aa(lp4
S'distance'
p5
aF367.89449310302734
aa(lp6
S'timestamp'
p7
aF0.01406407356262207
aatp8
Rp9
.ccollections
OrderedDict
p0
((lp1
(lp2
S'state'
p3
aI0
aa(lp4
S'distance'
p5
aF367.89449310302734
aa(lp6
S'timestamp'
p7
aF0.015815019607543945
aatp8
Rp9
.ccollections
OrderedDict
p0
((lp1
(lp2
S'state'
p3
aI0
aa(lp4
S'distance'
p5
aF367.89449310302734
aa(lp6
S'timestamp'
p7
aF0.015888214111328125
aatp8
Rp9
.ccollections
OrderedDict
p0
((lp1
(lp2
S'state'
p3
aI0
aa(lp4
S'distance'
p5
aF367.89449310302734
aa(lp6
S'timestamp'
p7
aF0.024485111236572266
aatp8
Rp9
.ccollections
OrderedDict
p0
((lp1
(lp2
S'state'
p3
aI0
aa(lp4
S'distance'
p5
aF367.89449310302734
aa(lp6
S'timestamp'
p7
aF0.0248410701751709
aatp8
Rp9
.ccollections
OrderedDict
p0
((lp1
(lp2
S'state'
p3
aI0
aa(lp4
S'distance'
p5
aF367.89449310302734
aa(lp6
S'timestamp'
p7
aF0.048159122467041016
aatp8
Rp9
.ccollections
OrderedDict
p0
((lp1
(lp2
S'state'
p3
aI0
aa(lp4
S'distance'
p5
aF367.89449310302734
aa(lp6
S'timestamp'
p7
aF0.04896807670593262
aatp8
Rp9
.ccollections
OrderedDict
p0
((lp1
(lp2
S'state'
p3
aI0
aa(lp4
S'distance'
p5
aF367.89449310302734
aa(lp6
S'timestamp'
p7
aF0.05200815200805664
aatp8
Rp9
.ccollections
OrderedDict
p0
((lp1
(lp2
S'state'
p3
aI0
aa(lp4
S'distance'
p5
aF367.89449310302734
aa(lp6
S'timestamp'
p7
aF0.056632041931152344
aatp8
Rp9
.ccollections
OrderedDict
p0
((lp1
(lp2
S'state'
p3
aI0
aa(lp4
S'distance'
p5
aF367.89449310302734
aa(lp6
S'timestamp'
p7
aF0.0578770637512207
aatp8
Rp9
.ccollections
OrderedDict
p0
((lp1
(lp2
S'state'
p3
aI0
aa(lp4
S'distance'
p5
aF367.89449310302734
aa(lp6
S'timestamp'
p7
aF0.058579206466674805
aatp8
Rp9
.ccollections
OrderedDict
p0
((lp1
(lp2
S'state'
p3
aI0
aa(lp4
S'distance'
p5
aF367.89449310302734
aa(lp6
S'timestamp'
p7
aF0.06557416915893555
aatp8
Rp9
.ccollections
OrderedDict
p0
((lp1
(lp2
S'state'
p3
aI0
aa(lp4
S'distance'
p5
aF367.89449310302734
aa(lp6
S'timestamp'
p7
aF0.06619501113891602
aatp8
Rp9
.ccollections
OrderedDict
p0
((lp1
(lp2
S'state'
p3
aI0
aa(lp4
S'distance'
p5
aF367.89449310302734
aa(lp6
S'timestamp'
p7
aF0.07561111450195312
aatp8
Rp9
.ccollections
OrderedDict
p0
((lp1
(lp2
S'state'
p3
aI0
aa(lp4
S'distance'
p5
aF367.89449310302734
aa(lp6
S'timestamp'
p7
aF0.07575201988220215
aatp8
Rp9
.ccollections
OrderedDict
p0
((lp1
(lp2
S'state'
p3
aI0
aa(lp4
S'distance'
p5
aF367.89449310302734
aa(lp6
S'timestamp'
p7
aF0.0843360424041748
aatp8
Rp9
.ccollections
OrderedDict
p0
((lp1
(lp2
S'state'
p3
aI0
aa(lp4
S'distance'
p5
aF367.89449310302734
aa(lp6
S'timestamp'
p7
aF0.08440518379211426
aatp8
Rp9
.ccollections
OrderedDict
p0
((lp1
(lp2
S'state'
p3
aI0
aa(lp4
S'distance'
p5
aF367.89449310302734
aa(lp6
S'timestamp'
p7
aF0.0939321517944336
aatp8
Rp9
.ccollections
OrderedDict
p0
((lp1
(lp2
S'state'
p3
aI0
aa(lp4
S'distance'
p5
aF367.89449310302734
aa(lp6
S'timestamp'
p7
aF0.09507513046264648
aatp8
Rp9
.ccollections
OrderedDict
p0
((lp1
(lp2
S'state'
p3
aI0
aa(lp4
S'distance'
p5
aF367.89449310302734
aa(lp6
S'timestamp'
p7
aF0.10391521453857422
aatp8
Rp9
.ccollections
OrderedDict
p0
((lp1
(lp2
S'state'
p3
aI0
aa(lp4
S'distance'
p5
aF367.89449310302734
aa(lp6
S'timestamp'
p7
aF0.10418510437011719
aatp8
Rp9
.ccollections
OrderedDict
p0
((lp1
(lp2
S'state'
p3
aI0
aa(lp4
S'distance'
p5
aF367.89449310302734
aa(lp6
S'timestamp'
p7
aF0.11382508277893066
aatp8
Rp9
.ccollections
OrderedDict
p0
((lp1
(lp2
S'state'
p3
aI0
aa(lp4
S'distance'
p5
aF367.89449310302734
aa(lp6
S'timestamp'
p7
aF0.12406301498413086
aatp8
Rp9
.ccollections
OrderedDict
p0
((lp1
(lp2
S'state'
p3
aI0
aa(lp4
S'distance'
p5
aF367.89449310302734
aa(lp6
S'timestamp'
p7
aF0.13409805297851562
aatp8
Rp9
.ccollections
OrderedDict
p0
((lp1
(lp2
S'state'
p3
aI0
aa(lp4
S'distance'
p5
aF367.89449310302734
aa(lp6
S'timestamp'
p7
aF0.13571906089782715
aatp8
Rp9
.ccollections
OrderedDict
p0
((lp1
(lp2
S'state'
p3
aI0
aa(lp4
S'distance'
p5
aF367.89449310302734
aa(lp6
S'timestamp'
p7
aF0.13579106330871582
aatp8
Rp9
.ccollections
OrderedDict
p0
((lp1
(lp2
S'state'
p3
aI0
aa(lp4
S'distance'
p5
aF367.89449310302734
aa(lp6
S'timestamp'
p7
aF0.13585615158081055
aatp8
Rp9
.ccollections
OrderedDict
p0
((lp1
(lp2
S'state'
p3
aI0
aa(lp4
S'distance'
p5
aF367.89449310302734
aa(lp6
S'timestamp'
p7
aF0.14372014999389648
aatp8
Rp9
.ccollections
OrderedDict
p0
((lp1
(lp2
S'state'
p3
aI0
aa(lp4
S'distance'
p5
aF367.89449310302734
aa(lp6
S'timestamp'
p7
aF0.15454816818237305
aatp8
Rp9
.ccollections
OrderedDict
p0
((lp1
(lp2
S'state'
p3
aI0
aa(lp4
S'distance'
p5
aF367.89449310302734
aa(lp6
S'timestamp'
p7
aF0.15501117706298828
aatp8
Rp9
.ccollections
OrderedDict
p0
((lp1
(lp2
S'state'
p3
aI0
aa(lp4
S'distance'
p5
aF367.89449310302734
aa(lp6
S'timestamp'
p7
aF0.15605711936950684
aatp8
Rp9
.ccollections
OrderedDict
p0
((lp1
(lp2
S'state'
p3
aI0
aa(lp4
S'distance'
p5
aF367.89449310302734
aa(lp6
S'timestamp'
p7
aF0.16408014297485352
aatp8
Rp9
.ccollections
OrderedDict
p0
((lp1
(lp2
S'state'
p3
aI0
aa(lp4
S'distance'
p5
aF367.89449310302734
aa(lp6
S'timestamp'
p7
aF0.17438912391662598
aatp8
Rp9
.ccollections
OrderedDict
p0
((lp1
(lp2
S'state'
p3
aI0
aa(lp4
S'distance'
p5
aF367.89449310302734
aa(lp6
S'timestamp'
p7
aF0.174530029296875
aatp8
Rp9
.ccollections
OrderedDict
p0
((lp1
(lp2
S'state'
p3
aI0
aa(lp4
S'distance'
p5
aF367.89449310302734
aa(lp6
S'timestamp'
p7
aF0.1746070384979248
aatp8
Rp9
.ccollections
OrderedDict
p0
((lp1
(lp2
S'state'
p3
aI0
aa(lp4
S'distance'
p5
aF367.89449310302734
aa(lp6
S'timestamp'
p7
aF0.1835920810699463
aatp8
Rp9
.ccollections
OrderedDict
p0
((lp1
(lp2
S'state'
p3
aI0
aa(lp4
S'distance'
p5
aF367.89449310302734
aa(lp6
S'timestamp'
p7
aF0.184190034866333
aatp8
Rp9
.ccollections
OrderedDict
p0
((lp1
(lp2
S'state'
p3
aI0
aa(lp4
S'distance'
p5
aF367.89449310302734
aa(lp6
S'timestamp'
p7
aF0.1948552131652832
aatp8
Rp9
.ccollections
OrderedDict
p0
((lp1
(lp2
S'state'
p3
aI0
aa(lp4
S'distance'
p5
aF367.89449310302734
aa(lp6
S'timestamp'
p7
aF0.19493317604064941
aatp8
Rp9
.ccollections
OrderedDict
p0
((lp1
(lp2
S'state'
p3
aI0
aa(lp4
S'distance'
p5
aF367.89449310302734
aa(lp6
S'timestamp'
p7
aF0.2039031982421875
aatp8
Rp9
.ccollections
OrderedDict
p0
((lp1
(lp2
S'state'
p3
aI0
aa(lp4
S'distance'
p5
aF367.89449310302734
aa(lp6
S'timestamp'
p7
aF0.20449399948120117
aatp8
Rp9
.ccollections
OrderedDict
p0
((lp1
(lp2
S'state'
p3
aI0
aa(lp4
S'distance'
p5
aF367.89449310302734
aa(lp6
S'timestamp'
p7
aF0.21387314796447754
aatp8
Rp9
.ccollections
OrderedDict
p0
((lp1
(lp2
S'state'
p3
aI0
aa(lp4
S'distance'
p5
aF367.89449310302734
aa(lp6
S'timestamp'
p7
aF0.21435904502868652
aatp8
Rp9
.ccollections
OrderedDict
p0
((lp1
(lp2
S'state'
p3
aI0
aa(lp4
S'distance'
p5
aF367.89449310302734
aa(lp6
S'timestamp'
p7
aF0.2242879867553711
aatp8
Rp9
.ccollections
OrderedDict
p0
((lp1
(lp2
S'state'
p3
aI0
aa(lp4
S'distance'
p5
aF367.89449310302734
aa(lp6
S'timestamp'
p7
aF0.22475814819335938
aatp8
Rp9
.ccollections
OrderedDict
p0
((lp1
(lp2
S'state'
p3
aI0
aa(lp4
S'distance'
p5
aF367.89449310302734
aa(lp6
S'timestamp'
p7
aF0.23404312133789062
aatp8
Rp9
.ccollections
OrderedDict
p0
((lp1
(lp2
S'state'
p3
aI0
aa(lp4
S'distance'
p5
aF367.89449310302734
aa(lp6
S'timestamp'
p7
aF0.2439861297607422
aatp8
Rp9
.ccollections
OrderedDict
p0
((lp1
(lp2
S'state'
p3
aI0
aa(lp4
S'distance'
p5
aF367.89449310302734
aa(lp6
S'timestamp'
p7
aF0.24406814575195312
aatp8
Rp9
.ccollections
OrderedDict
p0
((lp1
(lp2
S'state'
p3
aI0
aa(lp4
S'distance'
p5
aF367.89449310302734
aa(lp6
S'timestamp'
p7
aF0.2448561191558838
aatp8
Rp9
.ccollections
OrderedDict
p0
((lp1
(lp2
S'state'
p3
aI0
aa(lp4
S'distance'
p5
aF367.89449310302734
aa(lp6
S'timestamp'
p7
aF0.25338006019592285
aatp8
Rp9
.ccollections
OrderedDict
p0
((lp1
(lp2
S'state'
p3
aI0
aa(lp4
S'distance'
p5
aF367.89449310302734
aa(lp6
S'timestamp'
p7
aF0.2538890838623047
aatp8
Rp9
.ccollections
OrderedDict
p0
((lp1
(lp2
S'state'
p3
aI0
aa(lp4
S'distance'
p5
aF367.89449310302734
aa(lp6
S'timestamp'
p7
aF0.2643091678619385
aatp8
Rp9
.ccollections
OrderedDict
p0
((lp1
(lp2
S'state'
p3
aI0
aa(lp4
S'distance'
p5
aF367.89449310302734
aa(lp6
S'timestamp'
p7
aF0.26544713973999023
aatp8
Rp9
.ccollections
OrderedDict
p0
((lp1
(lp2
S'state'
p3
aI0
aa(lp4
S'distance'
p5
aF367.89449310302734
aa(lp6
S'timestamp'
p7
aF0.2739560604095459
aatp8
Rp9
.ccollections
OrderedDict
p0
((lp1
(lp2
S'state'
p3
aI0
aa(lp4
S'distance'
p5
aF367.89449310302734
aa(lp6
S'timestamp'
p7
aF0.28458499908447266
aatp8
Rp9
.ccollections
OrderedDict
p0
((lp1
(lp2
S'state'
p3
aI0
aa(lp4
S'distance'
p5
aF367.89449310302734
aa(lp6
S'timestamp'
p7
aF0.2849240303039551
aatp8
Rp9
.ccollections
OrderedDict
p0
((lp1
(lp2
S'state'
p3
aI0
aa(lp4
S'distance'
p5
aF367.89449310302734
aa(lp6
S'timestamp'
p7
aF0.2850010395050049
aatp8
Rp9
.ccollections
OrderedDict
p0
((lp1
(lp2
S'state'
p3
aI0
aa(lp4
S'distance'
p5
aF367.89449310302734
aa(lp6
S'timestamp'
p7
aF0.30469608306884766
aatp8
Rp9
.ccollections
OrderedDict
p0
((lp1
(lp2
S'state'
p3
aI0
aa(lp4
S'distance'
p5
aF367.89449310302734
aa(lp6
S'timestamp'
p7
aF0.3053760528564453
aatp8
Rp9
.ccollections
OrderedDict
p0
((lp1
(lp2
S'state'
p3
aI0
aa(lp4
S'distance'
p5
aF367.89449310302734
aa(lp6
S'timestamp'
p7
aF0.3058490753173828
aatp8
Rp9
.ccollections
OrderedDict
p0
((lp1
(lp2
S'state'
p3
aI0
aa(lp4
S'distance'
p5
aF367.89449310302734
aa(lp6
S'timestamp'
p7
aF0.3062021732330322
aatp8
Rp9
.ccollections
OrderedDict
p0
((lp1
(lp2
S'state'
p3
aI0
aa(lp4
S'distance'
p5
aF367.89449310302734
aa(lp6
S'timestamp'
p7
aF0.32396721839904785
aatp8
Rp9
.ccollections
OrderedDict
p0
((lp1
(lp2
S'state'
p3
aI0
aa(lp4
S'distance'
p5
aF367.89449310302734
aa(lp6
S'timestamp'
p7
aF0.32404518127441406
aatp8
Rp9
.ccollections
OrderedDict
p0
((lp1
(lp2
S'state'
p3
aI0
aa(lp4
S'distance'
p5
aF367.89449310302734
aa(lp6
S'timestamp'
p7
aF0.3255951404571533
aatp8
Rp9
.ccollections
OrderedDict
p0
((lp1
(lp2
S'state'
p3
aI0
aa(lp4
S'distance'
p5
aF367.89449310302734
aa(lp6
S'timestamp'
p7
aF0.3266141414642334
aatp8
Rp9
.ccollections
OrderedDict
p0
((lp1
(lp2
S'state'
p3
aI0
aa(lp4
S'distance'
p5
aF367.89449310302734
aa(lp6
S'timestamp'
p7
aF0.3349621295928955
aatp8
Rp9
.ccollections
OrderedDict
p0
((lp1
(lp2
S'state'
p3
aI0
aa(lp4
S'distance'
p5
aF367.89449310302734
aa(lp6
S'timestamp'
p7
aF0.3352031707763672
aatp8
Rp9
.ccollections
OrderedDict
p0
((lp1
(lp2
S'state'
p3
aI0
aa(lp4
S'distance'
p5
aF367.89449310302734
aa(lp6
S'timestamp'
p7
aF0.35393214225769043
aatp8
Rp9
.ccollections
OrderedDict
p0
((lp1
(lp2
S'state'
p3
aI0
aa(lp4
S'distance'
p5
aF367.89449310302734
aa(lp6
S'timestamp'
p7
aF0.3541262149810791
aatp8
Rp9
.ccollections
OrderedDict
p0
((lp1
(lp2
S'state'
p3
aI0
aa(lp4
S'distance'
p5
aF367.89449310302734
aa(lp6
S'timestamp'
p7
aF0.3547232151031494
aatp8
Rp9
.ccollections
OrderedDict
p0
((lp1
(lp2
S'state'
p3
aI0
aa(lp4
S'distance'
p5
aF367.89449310302734
aa(lp6
S'timestamp'
p7
aF0.3640871047973633
aatp8
Rp9
.ccollections
OrderedDict
p0
((lp1
(lp2
S'state'
p3
aI0
aa(lp4
S'distance'
p5
aF367.89449310302734
aa(lp6
S'timestamp'
p7
aF0.3643331527709961
aatp8
Rp9
.ccollections
OrderedDict
p0
((lp1
(lp2
S'state'
p3
aI0
aa(lp4
S'distance'
p5
aF367.89449310302734
aa(lp6
S'timestamp'
p7
aF0.3653130531311035
aatp8
Rp9
.ccollections
OrderedDict
p0
((lp1
(lp2
S'state'
p3
aI0
aa(lp4
S'distance'
p5
aF367.89449310302734
aa(lp6
S'timestamp'
p7
aF0.3741450309753418
aatp8
Rp9
.ccollections
OrderedDict
p0
((lp1
(lp2
S'state'
p3
aI0
aa(lp4
S'distance'
p5
aF367.89449310302734
aa(lp6
S'timestamp'
p7
aF0.3849771022796631
aatp8
Rp9
.ccollections
OrderedDict
p0
((lp1
(lp2
S'state'
p3
aI0
aa(lp4
S'distance'
p5
aF367.89449310302734
aa(lp6
S'timestamp'
p7
aF0.38520216941833496
aatp8
Rp9
.ccollections
OrderedDict
p0
((lp1
(lp2
S'state'
p3
aI0
aa(lp4
S'distance'
p5
aF367.89449310302734
aa(lp6
S'timestamp'
p7
aF0.38535308837890625
aatp8
Rp9
.ccollections
OrderedDict
p0
((lp1
(lp2
S'state'
p3
aI0
aa(lp4
S'distance'
p5
aF367.89449310302734
aa(lp6
S'timestamp'
p7
aF0.39415907859802246
aatp8
Rp9
.ccollections
OrderedDict
p0
((lp1
(lp2
S'state'
p3
aI0
aa(lp4
S'distance'
p5
aF367.89449310302734
aa(lp6
S'timestamp'
p7
aF0.39423704147338867
aatp8
Rp9
.ccollections
OrderedDict
p0
((lp1
(lp2
S'state'
p3
aI0
aa(lp4
S'distance'
p5
aF367.89449310302734
aa(lp6
S'timestamp'
p7
aF0.4034299850463867
aatp8
Rp9
.ccollections
OrderedDict
p0
((lp1
(lp2
S'state'
p3
aI0
aa(lp4
S'distance'
p5
aF367.89449310302734
aa(lp6
S'timestamp'
p7
aF0.4039571285247803
aatp8
Rp9
.ccollections
OrderedDict
p0
((lp1
(lp2
S'state'
p3
aI0
aa(lp4
S'distance'
p5
aF367.89449310302734
aa(lp6
S'timestamp'
p7
aF0.4145960807800293
aatp8
Rp9
.ccollections
OrderedDict
p0
((lp1
(lp2
S'state'
p3
aI0
aa(lp4
S'distance'
p5
aF367.89449310302734
aa(lp6
S'timestamp'
p7
aF0.41467809677124023
aatp8
Rp9
.ccollections
OrderedDict
p0
((lp1
(lp2
S'state'
p3
aI0
aa(lp4
S'distance'
p5
aF367.89449310302734
aa(lp6
S'timestamp'
p7
aF0.4339261054992676
aatp8
Rp9
.ccollections
OrderedDict
p0
((lp1
(lp2
S'state'
p3
aI0
aa(lp4
S'distance'
p5
aF367.89449310302734
aa(lp6
S'timestamp'
p7
aF0.43405914306640625
aatp8
Rp9
.ccollections
OrderedDict
p0
((lp1
(lp2
S'state'
p3
aI0
aa(lp4
S'distance'
p5
aF367.89449310302734
aa(lp6
S'timestamp'
p7
aF0.4348130226135254
aatp8
Rp9
.ccollections
OrderedDict
p0
((lp1
(lp2
S'state'
p3
aI0
aa(lp4
S'distance'
p5
aF367.89449310302734
aa(lp6
S'timestamp'
p7
aF0.43488216400146484
aatp8
Rp9
.ccollections
OrderedDict
p0
((lp1
(lp2
S'state'
p3
aI0
aa(lp4
S'distance'
p5
aF367.89449310302734
aa(lp6
S'timestamp'
p7
aF0.4440782070159912
aatp8
Rp9
.ccollections
OrderedDict
p0
((lp1
(lp2
S'state'
p3
aI0
aa(lp4
S'distance'
p5
aF367.89449310302734
aa(lp6
S'timestamp'
p7
aF0.44416213035583496
aatp8
Rp9
.ccollections
OrderedDict
p0
((lp1
(lp2
S'state'
p3
aI0
aa(lp4
S'distance'
p5
aF367.89449310302734
aa(lp6
S'timestamp'
p7
aF0.45462918281555176
aatp8
Rp9
.ccollections
OrderedDict
p0
((lp1
(lp2
S'state'
p3
aI0
aa(lp4
S'distance'
p5
aF367.89449310302734
aa(lp6
S'timestamp'
p7
aF0.45477914810180664
aatp8
Rp9
.ccollections
OrderedDict
p0
((lp1
(lp2
S'state'
p3
aI0
aa(lp4
S'distance'
p5
aF367.89449310302734
aa(lp6
S'timestamp'
p7
aF0.46430301666259766
aatp8
Rp9
.ccollections
OrderedDict
p0
((lp1
(lp2
S'state'
p3
aI0
aa(lp4
S'distance'
p5
aF367.89449310302734
aa(lp6
S'timestamp'
p7
aF0.46503710746765137
aatp8
Rp9
.ccollections
OrderedDict
p0
((lp1
(lp2
S'state'
p3
aI0
aa(lp4
S'distance'
p5
aF367.89449310302734
aa(lp6
S'timestamp'
p7
aF0.47394800186157227
aatp8
Rp9
.ccollections
OrderedDict
p0
((lp1
(lp2
S'state'
p3
aI0
aa(lp4
S'distance'
p5
aF367.89449310302734
aa(lp6
S'timestamp'
p7
aF0.4747891426086426
aatp8
Rp9
.ccollections
OrderedDict
p0
((lp1
(lp2
S'state'
p3
aI0
aa(lp4
S'distance'
p5
aF367.89449310302734
aa(lp6
S'timestamp'
p7
aF0.48393821716308594
aatp8
Rp9
.ccollections
OrderedDict
p0
((lp1
(lp2
S'state'
p3
aI0
aa(lp4
S'distance'
p5
aF367.89449310302734
aa(lp6
S'timestamp'
p7
aF0.4841430187225342
aatp8
Rp9
.ccollections
OrderedDict
p0
((lp1
(lp2
S'state'
p3
aI0
aa(lp4
S'distance'
p5
aF367.89449310302734
aa(lp6
S'timestamp'
p7
aF0.4939711093902588
aatp8
Rp9
.ccollections
OrderedDict
p0
((lp1
(lp2
S'state'
p3
aI0
aa(lp4
S'distance'
p5
aF367.89449310302734
aa(lp6
S'timestamp'
p7
aF0.49420619010925293
aatp8
Rp9
.ccollections
OrderedDict
p0
((lp1
(lp2
S'state'
p3
aI0
aa(lp4
S'distance'
p5
aF367.89449310302734
aa(lp6
S'timestamp'
p7
aF0.5134811401367188
aatp8
Rp9
.ccollections
OrderedDict
p0
((lp1
(lp2
S'state'
p3
aI0
aa(lp4
S'distance'
p5
aF367.89449310302734
aa(lp6
S'timestamp'
p7
aF0.5248100757598877
aatp8
Rp9
.ccollections
OrderedDict
p0
((lp1
(lp2
S'state'
p3
aI0
aa(lp4
S'distance'
p5
aF367.89449310302734
aa(lp6
S'timestamp'
p7
aF0.5265200138092041
aatp8
Rp9
.ccollections
OrderedDict
p0
((lp1
(lp2
S'state'
p3
aI0
aa(lp4
S'distance'
p5
aF367.89449310302734
aa(lp6
S'timestamp'
p7
aF0.526616096496582
aatp8
Rp9
.ccollections
OrderedDict
p0
((lp1
(lp2
S'state'
p3
aI0
aa(lp4
S'distance'
p5
aF367.89449310302734
aa(lp6
S'timestamp'
p7
aF0.5266871452331543
aatp8
Rp9
.ccollections
OrderedDict
p0
((lp1
(lp2
S'state'
p3
aI0
aa(lp4
S'distance'
p5
aF367.89449310302734
aa(lp6
S'timestamp'
p7
aF0.5337281227111816
aatp8
Rp9
.ccollections
OrderedDict
p0
((lp1
(lp2
S'state'
p3
aI0
aa(lp4
S'distance'
p5
aF367.89449310302734
aa(lp6
S'timestamp'
p7
aF0.5338010787963867
aatp8
Rp9
.ccollections
OrderedDict
p0
((lp1
(lp2
S'state'
p3
aI0
aa(lp4
S'distance'
p5
aF367.89449310302734
aa(lp6
S'timestamp'
p7
aF0.5347790718078613
aatp8
Rp9
.ccollections
OrderedDict
p0
((lp1
(lp2
S'state'
p3
aI0
aa(lp4
S'distance'
p5
aF367.89449310302734
aa(lp6
S'timestamp'
p7
aF0.5441551208496094
aatp8
Rp9
.ccollections
OrderedDict
p0
((lp1
(lp2
S'state'
p3
aI0
aa(lp4
S'distance'
p5
aF367.89449310302734
aa(lp6
S'timestamp'
p7
aF0.5442700386047363
aatp8
Rp9
.ccollections
OrderedDict
p0
((lp1
(lp2
S'state'
p3
aI0
aa(lp4
S'distance'
p5
aF367.89449310302734
aa(lp6
S'timestamp'
p7
aF0.564716100692749
aatp8
Rp9
.ccollections
OrderedDict
p0
((lp1
(lp2
S'state'
p3
aI0
aa(lp4
S'distance'
p5
aF367.89449310302734
aa(lp6
S'timestamp'
p7
aF0.564810037612915
aatp8
Rp9
.ccollections
OrderedDict
p0
((lp1
(lp2
S'state'
p3
aI0
aa(lp4
S'distance'
p5
aF367.89449310302734
aa(lp6
S'timestamp'
p7
aF0.5649151802062988
aatp8
Rp9
.ccollections
OrderedDict
p0
((lp1
(lp2
S'state'
p3
aI0
aa(lp4
S'distance'
p5
aF367.89449310302734
aa(lp6
S'timestamp'
p7
aF0.5650060176849365
aatp8
Rp9
.ccollections
OrderedDict
p0
((lp1
(lp2
S'state'
p3
aI0
aa(lp4
S'distance'
p5
aF367.89449310302734
aa(lp6
S'timestamp'
p7
aF0.5734541416168213
aatp8
Rp9
.ccollections
OrderedDict
p0
((lp1
(lp2
S'state'
p3
aI0
aa(lp4
S'distance'
p5
aF367.89449310302734
aa(lp6
S'timestamp'
p7
aF0.5745201110839844
aatp8
Rp9
.ccollections
OrderedDict
p0
((lp1
(lp2
S'state'
p3
aI0
aa(lp4
S'distance'
p5
aF367.89449310302734
aa(lp6
S'timestamp'
p7
aF0.5837621688842773
aatp8
Rp9
.ccollections
OrderedDict
p0
((lp1
(lp2
S'state'
p3
aI0
aa(lp4
S'distance'
p5
aF367.89449310302734
aa(lp6
S'timestamp'
p7
aF0.5838379859924316
aatp8
Rp9
.ccollections
OrderedDict
p0
((lp1
(lp2
S'state'
p3
aI0
aa(lp4
S'distance'
p5
aF367.89449310302734
aa(lp6
S'timestamp'
p7
aF0.593548059463501
aatp8
Rp9
.ccollections
OrderedDict
p0
((lp1
(lp2
S'state'
p3
aI0
aa(lp4
S'distance'
p5
aF367.89449310302734
aa(lp6
S'timestamp'
p7
aF0.594163179397583
aatp8
Rp9
.ccollections
OrderedDict
p0
((lp1
(lp2
S'state'
p3
aI0
aa(lp4
S'distance'
p5
aF367.89449310302734
aa(lp6
S'timestamp'
p7
aF0.6349060535430908
aatp8
Rp9
.ccollections
OrderedDict
p0
((lp1
(lp2
S'state'
p3
aI0
aa(lp4
S'distance'
p5
aF367.89449310302734
aa(lp6
S'timestamp'
p7
aF0.6374061107635498
aatp8
Rp9
.ccollections
OrderedDict
p0
((lp1
(lp2
S'state'
p3
aI0
aa(lp4
S'distance'
p5
aF367.89449310302734
aa(lp6
S'timestamp'
p7
aF0.638498067855835
aatp8
Rp9
.ccollections
OrderedDict
p0
((lp1
(lp2
S'state'
p3
aI0
aa(lp4
S'distance'
p5
aF367.89449310302734
aa(lp6
S'timestamp'
p7
aF0.6386570930480957
aatp8
Rp9
.ccollections
OrderedDict
p0
((lp1
(lp2
S'state'
p3
aI0
aa(lp4
S'distance'
p5
aF367.89449310302734
aa(lp6
S'timestamp'
p7
aF0.6651821136474609
aatp8
Rp9
.ccollections
OrderedDict
p0
((lp1
(lp2
S'state'
p3
aI0
aa(lp4
S'distance'
p5
aF367.89449310302734
aa(lp6
S'timestamp'
p7
aF0.665438175201416
aatp8
Rp9
.ccollections
OrderedDict
p0
((lp1
(lp2
S'state'
p3
aI0
aa(lp4
S'distance'
p5
aF367.89449310302734
aa(lp6
S'timestamp'
p7
aF0.6741280555725098
aatp8
Rp9
.ccollections
OrderedDict
p0
((lp1
(lp2
S'state'
p3
aI0
aa(lp4
S'distance'
p5
aF367.89449310302734
aa(lp6
S'timestamp'
p7
aF0.6743631362915039
aatp8
Rp9
.ccollections
OrderedDict
p0
((lp1
(lp2
S'state'
p3
aI0
aa(lp4
S'distance'
p5
aF367.89449310302734
aa(lp6
S'timestamp'
p7
aF0.6747291088104248
aatp8
Rp9
.ccollections
OrderedDict
p0
((lp1
(lp2
S'state'
p3
aI0
aa(lp4
S'distance'
p5
aF367.89449310302734
aa(lp6
S'timestamp'
p7
aF0.6748690605163574
aatp8
Rp9
.ccollections
OrderedDict
p0
((lp1
(lp2
S'state'
p3
aI0
aa(lp4
S'distance'
p5
aF367.89449310302734
aa(lp6
S'timestamp'
p7
aF0.6936831474304199
aatp8
Rp9
.ccollections
OrderedDict
p0
((lp1
(lp2
S'state'
p3
aI0
aa(lp4
S'distance'
p5
aF367.89449310302734
aa(lp6
S'timestamp'
p7
aF0.6937801837921143
aatp8
Rp9
.ccollections
OrderedDict
p0
((lp1
(lp2
S'state'
p3
aI0
aa(lp4
S'distance'
p5
aF367.89449310302734
aa(lp6
S'timestamp'
p7
aF0.6947340965270996
aatp8
Rp9
.ccollections
OrderedDict
p0
((lp1
(lp2
S'state'
p3
aI0
aa(lp4
S'distance'
p5
aF367.89449310302734
aa(lp6
S'timestamp'
p7
aF0.6957521438598633
aatp8
Rp9
.ccollections
OrderedDict
p0
((lp1
(lp2
S'state'
p3
aI0
aa(lp4
S'distance'
p5
aF367.89449310302734
aa(lp6
S'timestamp'
p7
aF0.7050051689147949
aatp8
Rp9
.ccollections
OrderedDict
p0
((lp1
(lp2
S'state'
p3
aI0
aa(lp4
S'distance'
p5
aF367.89449310302734
aa(lp6
S'timestamp'
p7
aF0.7052230834960938
aatp8
Rp9
.ccollections
OrderedDict
p0
((lp1
(lp2
S'state'
p3
aI0
aa(lp4
S'distance'
p5
aF367.89449310302734
aa(lp6
S'timestamp'
p7
aF0.7054891586303711
aatp8
Rp9
.ccollections
OrderedDict
p0
((lp1
(lp2
S'state'
p3
aI0
aa(lp4
S'distance'
p5
aF367.89449310302734
aa(lp6
S'timestamp'
p7
aF0.7059121131896973
aatp8
Rp9
.ccollections
OrderedDict
p0
((lp1
(lp2
S'state'
p3
aI0
aa(lp4
S'distance'
p5
aF367.89449310302734
aa(lp6
S'timestamp'
p7
aF0.7138190269470215
aatp8
Rp9
.ccollections
OrderedDict
p0
((lp1
(lp2
S'state'
p3
aI0
aa(lp4
S'distance'
p5
aF367.89449310302734
aa(lp6
S'timestamp'
p7
aF0.7138941287994385
aatp8
Rp9
.ccollections
OrderedDict
p0
((lp1
(lp2
S'state'
p3
aI0
aa(lp4
S'distance'
p5
aF367.89449310302734
aa(lp6
S'timestamp'
p7
aF0.7147891521453857
aatp8
Rp9
.ccollections
OrderedDict
p0
((lp1
(lp2
S'state'
p3
aI0
aa(lp4
S'distance'
p5
aF367.89449310302734
aa(lp6
S'timestamp'
p7
aF0.7157731056213379
aatp8
Rp9
.ccollections
OrderedDict
p0
((lp1
(lp2
S'state'
p3
aI0
aa(lp4
S'distance'
p5
aF367.89449310302734
aa(lp6
S'timestamp'
p7
aF0.7243010997772217
aatp8
Rp9
.ccollections
OrderedDict
p0
((lp1
(lp2
S'state'
p3
aI0
aa(lp4
S'distance'
p5
aF367.89449310302734
aa(lp6
S'timestamp'
p7
aF0.7247910499572754
aatp8
Rp9
.ccollections
OrderedDict
p0
((lp1
(lp2
S'state'
p3
aI0
aa(lp4
S'distance'
p5
aF367.89449310302734
aa(lp6
S'timestamp'
p7
aF0.7249290943145752
aatp8
Rp9
.ccollections
OrderedDict
p0
((lp1
(lp2
S'state'
p3
aI0
aa(lp4
S'distance'
p5
aF367.89449310302734
aa(lp6
S'timestamp'
p7
aF0.725701093673706
aatp8
Rp9
.ccollections
OrderedDict
p0
((lp1
(lp2
S'state'
p3
aI0
aa(lp4
S'distance'
p5
aF367.89449310302734
aa(lp6
S'timestamp'
p7
aF0.7333340644836426
aatp8
Rp9
.ccollections
OrderedDict
p0
((lp1
(lp2
S'state'
p3
aI0
aa(lp4
S'distance'
p5
aF367.89449310302734
aa(lp6
S'timestamp'
p7
aF0.7341241836547852
aatp8
Rp9
.ccollections
OrderedDict
p0
((lp1
(lp2
S'state'
p3
aI0
aa(lp4
S'distance'
p5
aF367.89449310302734
aa(lp6
S'timestamp'
p7
aF0.7433891296386719
aatp8
Rp9
.ccollections
OrderedDict
p0
((lp1
(lp2
S'state'
p3
aI0
aa(lp4
S'distance'
p5
aF367.89449310302734
aa(lp6
S'timestamp'
p7
aF0.7448890209197998
aatp8
Rp9
.ccollections
OrderedDict
p0
((lp1
(lp2
S'state'
p3
aI0
aa(lp4
S'distance'
p5
aF367.89449310302734
aa(lp6
S'timestamp'
p7
aF0.7534670829772949
aatp8
Rp9
.ccollections
OrderedDict
p0
((lp1
(lp2
S'state'
p3
aI0
aa(lp4
S'distance'
p5
aF367.89449310302734
aa(lp6
S'timestamp'
p7
aF0.7541241645812988
aatp8
Rp9
.ccollections
OrderedDict
p0
((lp1
(lp2
S'state'
p3
aI0
aa(lp4
S'distance'
p5
aF367.89449310302734
aa(lp6
S'timestamp'
p7
aF0.7641282081604004
aatp8
Rp9
.ccollections
OrderedDict
p0
((lp1
(lp2
S'state'
p3
aI0
aa(lp4
S'distance'
p5
aF367.89449310302734
aa(lp6
S'timestamp'
p7
aF0.7642850875854492
aatp8
Rp9
.ccollections
OrderedDict
p0
((lp1
(lp2
S'state'
p3
aI0
aa(lp4
S'distance'
p5
aF367.89449310302734
aa(lp6
S'timestamp'
p7
aF0.774118185043335
aatp8
Rp9
.ccollections
OrderedDict
p0
((lp1
(lp2
S'state'
p3
aI0
aa(lp4
S'distance'
p5
aF367.89449310302734
aa(lp6
S'timestamp'
p7
aF0.774198055267334
aatp8
Rp9
.ccollections
OrderedDict
p0
((lp1
(lp2
S'state'
p3
aI0
aa(lp4
S'distance'
p5
aF367.89449310302734
aa(lp6
S'timestamp'
p7
aF0.7833540439605713
aatp8
Rp9
.ccollections
OrderedDict
p0
((lp1
(lp2
S'state'
p3
aI0
aa(lp4
S'distance'
p5
aF367.89449310302734
aa(lp6
S'timestamp'
p7
aF0.7845330238342285
aatp8
Rp9
.ccollections
OrderedDict
p0
((lp1
(lp2
S'state'
p3
aI0
aa(lp4
S'distance'
p5
aF367.89449310302734
aa(lp6
S'timestamp'
p7
aF0.794152021408081
aatp8
Rp9
.ccollections
OrderedDict
p0
((lp1
(lp2
S'state'
p3
aI0
aa(lp4
S'distance'
p5
aF367.89449310302734
aa(lp6
S'timestamp'
p7
aF0.794274091720581
aatp8
Rp9
.ccollections
OrderedDict
p0
((lp1
(lp2
S'state'
p3
aI0
aa(lp4
S'distance'
p5
aF367.89449310302734
aa(lp6
S'timestamp'
p7
aF0.8039450645446777
aatp8
Rp9
.ccollections
OrderedDict
p0
((lp1
(lp2
S'state'
p3
aI0
aa(lp4
S'distance'
p5
aF367.89449310302734
aa(lp6
S'timestamp'
p7
aF0.8043801784515381
aatp8
Rp9
.ccollections
OrderedDict
p0
((lp1
(lp2
S'state'
p3
aI0
aa(lp4
S'distance'
p5
aF367.89449310302734
aa(lp6
S'timestamp'
p7
aF0.8139150142669678
aatp8
Rp9
.ccollections
OrderedDict
p0
((lp1
(lp2
S'state'
p3
aI0
aa(lp4
S'distance'
p5
aF367.89449310302734
aa(lp6
S'timestamp'
p7
aF0.8141171932220459
aatp8
Rp9
.ccollections
OrderedDict
p0
((lp1
(lp2
S'state'
p3
aI0
aa(lp4
S'distance'
p5
aF367.89449310302734
aa(lp6
S'timestamp'
p7
aF0.8241422176361084
aatp8
Rp9
.ccollections
OrderedDict
p0
((lp1
(lp2
S'state'
p3
aI0
aa(lp4
S'distance'
p5
aF367.89449310302734
aa(lp6
S'timestamp'
p7
aF0.8247790336608887
aatp8
Rp9
.ccollections
OrderedDict
p0
((lp1
(lp2
S'state'
p3
aI0
aa(lp4
S'distance'
p5
aF367.89449310302734
aa(lp6
S'timestamp'
p7
aF0.8335142135620117
aatp8
Rp9
.ccollections
OrderedDict
p0
((lp1
(lp2
S'state'
p3
aI0
aa(lp4
S'distance'
p5
aF367.89449310302734
aa(lp6
S'timestamp'
p7
aF0.8339080810546875
aatp8
Rp9
.ccollections
OrderedDict
p0
((lp1
(lp2
S'state'
p3
aI0
aa(lp4
S'distance'
p5
aF367.89449310302734
aa(lp6
S'timestamp'
p7
aF0.8539481163024902
aatp8
Rp9
.ccollections
OrderedDict
p0
((lp1
(lp2
S'state'
p3
aI0
aa(lp4
S'distance'
p5
aF367.89449310302734
aa(lp6
S'timestamp'
p7
aF0.8541171550750732
aatp8
Rp9
.ccollections
OrderedDict
p0
((lp1
(lp2
S'state'
p3
aI0
aa(lp4
S'distance'
p5
aF367.89449310302734
aa(lp6
S'timestamp'
p7
aF0.8562760353088379
aatp8
Rp9
.ccollections
OrderedDict
p0
((lp1
(lp2
S'state'
p3
aI0
aa(lp4
S'distance'
p5
aF367.89449310302734
aa(lp6
S'timestamp'
p7
aF0.8563470840454102
aatp8
Rp9
.ccollections
OrderedDict
p0
((lp1
(lp2
S'state'
p3
aI0
aa(lp4
S'distance'
p5
aF367.89449310302734
aa(lp6
S'timestamp'
p7
aF0.8634891510009766
aatp8
Rp9
.ccollections
OrderedDict
p0
((lp1
(lp2
S'state'
p3
aI0
aa(lp4
S'distance'
p5
aF367.89449310302734
aa(lp6
S'timestamp'
p7
aF0.8641111850738525
aatp8
Rp9
.ccollections
OrderedDict
p0
((lp1
(lp2
S'state'
p3
aI0
aa(lp4
S'distance'
p5
aF367.89449310302734
aa(lp6
S'timestamp'
p7
aF0.8735251426696777
aatp8
Rp9
.ccollections
OrderedDict
p0
((lp1
(lp2
S'state'
p3
aI0
aa(lp4
S'distance'
p5
aF367.89449310302734
aa(lp6
S'timestamp'
p7
aF0.8740830421447754
aatp8
Rp9
.ccollections
OrderedDict
p0
((lp1
(lp2
S'state'
p3
aI0
aa(lp4
S'distance'
p5
aF367.89449310302734
aa(lp6
S'timestamp'
p7
aF0.883512020111084
aatp8
Rp9
.ccollections
OrderedDict
p0
((lp1
(lp2
S'state'
p3
aI0
aa(lp4
S'distance'
p5
aF367.89449310302734
aa(lp6
S'timestamp'
p7
aF0.893388032913208
aatp8
Rp9
.ccollections
OrderedDict
p0
((lp1
(lp2
S'state'
p3
aI0
aa(lp4
S'distance'
p5
aF367.89449310302734
aa(lp6
S'timestamp'
p7
aF0.8949329853057861
aatp8
Rp9
.ccollections
OrderedDict
p0
((lp1
(lp2
S'state'
p3
aI0
aa(lp4
S'distance'
p5
aF367.89449310302734
aa(lp6
S'timestamp'
p7
aF0.8953690528869629
aatp8
Rp9
.ccollections
OrderedDict
p0
((lp1
(lp2
S'state'
p3
aI0
aa(lp4
S'distance'
p5
aF367.89449310302734
aa(lp6
S'timestamp'
p7
aF0.903602123260498
aatp8
Rp9
.ccollections
OrderedDict
p0
((lp1
(lp2
S'state'
p3
aI0
aa(lp4
S'distance'
p5
aF367.89449310302734
aa(lp6
S'timestamp'
p7
aF0.9049890041351318
aatp8
Rp9
.ccollections
OrderedDict
p0
((lp1
(lp2
S'state'
p3
aI0
aa(lp4
S'distance'
p5
aF367.89449310302734
aa(lp6
S'timestamp'
p7
aF0.9135000705718994
aatp8
Rp9
.ccollections
OrderedDict
p0
((lp1
(lp2
S'state'
p3
aI0
aa(lp4
S'distance'
p5
aF367.89449310302734
aa(lp6
S'timestamp'
p7
aF0.9146871566772461
aatp8
Rp9
.ccollections
OrderedDict
p0
((lp1
(lp2
S'state'
p3
aI0
aa(lp4
S'distance'
p5
aF367.89449310302734
aa(lp6
S'timestamp'
p7
aF0.9235332012176514
aatp8
Rp9
.ccollections
OrderedDict
p0
((lp1
(lp2
S'state'
p3
aI0
aa(lp4
S'distance'
p5
aF367.89449310302734
aa(lp6
S'timestamp'
p7
aF0.9245350360870361
aatp8
Rp9
.ccollections
OrderedDict
p0
((lp1
(lp2
S'state'
p3
aI0
aa(lp4
S'distance'
p5
aF367.89449310302734
aa(lp6
S'timestamp'
p7
aF0.9334189891815186
aatp8
Rp9
.ccollections
OrderedDict
p0
((lp1
(lp2
S'state'
p3
aI0
aa(lp4
S'distance'
p5
aF367.89449310302734
aa(lp6
S'timestamp'
p7
aF0.9346179962158203
aatp8
Rp9
.ccollections
OrderedDict
p0
((lp1
(lp2
S'state'
p3
aI0
aa(lp4
S'distance'
p5
aF367.89449310302734
aa(lp6
S'timestamp'
p7
aF0.943662166595459
aatp8
Rp9
.ccollections
OrderedDict
p0
((lp1
(lp2
S'state'
p3
aI0
aa(lp4
S'distance'
p5
aF367.89449310302734
aa(lp6
S'timestamp'
p7
aF0.9442172050476074
aatp8
Rp9
.ccollections
OrderedDict
p0
((lp1
(lp2
S'state'
p3
aI0
aa(lp4
S'distance'
p5
aF367.89449310302734
aa(lp6
S'timestamp'
p7
aF0.95359206199646
aatp8
Rp9
.ccollections
OrderedDict
p0
((lp1
(lp2
S'state'
p3
aI0
aa(lp4
S'distance'
p5
aF367.89449310302734
aa(lp6
S'timestamp'
p7
aF0.953991174697876
aatp8
Rp9
.ccollections
OrderedDict
p0
((lp1
(lp2
S'state'
p3
aI0
aa(lp4
S'distance'
p5
aF367.89449310302734
aa(lp6
S'timestamp'
p7
aF0.9633190631866455
aatp8
Rp9
.ccollections
OrderedDict
p0
((lp1
(lp2
S'state'
p3
aI0
aa(lp4
S'distance'
p5
aF367.89449310302734
aa(lp6
S'timestamp'
p7
aF0.963994026184082
aatp8
Rp9
.ccollections
OrderedDict
p0
((lp1
(lp2
S'state'
p3
aI0
aa(lp4
S'distance'
p5
aF367.89449310302734
aa(lp6
S'timestamp'
p7
aF0.9735250473022461
aatp8
Rp9
.ccollections
OrderedDict
p0
((lp1
(lp2
S'state'
p3
aI0
aa(lp4
S'distance'
p5
aF367.89449310302734
aa(lp6
S'timestamp'
p7
aF0.9743621349334717
aatp8
Rp9
.ccollections
OrderedDict
p0
((lp1
(lp2
S'state'
p3
aI0
aa(lp4
S'distance'
p5
aF367.89449310302734
aa(lp6
S'timestamp'
p7
aF0.985241174697876
aatp8
Rp9
.ccollections
OrderedDict
p0
((lp1
(lp2
S'state'
p3
aI0
aa(lp4
S'distance'
p5
aF367.89449310302734
aa(lp6
S'timestamp'
p7
aF0.9854130744934082
aatp8
Rp9
.ccollections
OrderedDict
p0
((lp1
(lp2
S'state'
p3
aI0
aa(lp4
S'distance'
p5
aF367.89449310302734
aa(lp6
S'timestamp'
p7
aF0.9938411712646484
aatp8
Rp9
.ccollections
OrderedDict
p0
((lp1
(lp2
S'state'
p3
aI0
aa(lp4
S'distance'
p5
aF367.89449310302734
aa(lp6
S'timestamp'
p7
aF0.9939701557159424
aatp8
Rp9
.ccollections
OrderedDict
p0
((lp1
(lp2
S'state'
p3
aI0
aa(lp4
S'distance'
p5
aF367.89449310302734
aa(lp6
S'timestamp'
p7
aF1.0037732124328613
aatp8
Rp9
.ccollections
OrderedDict
p0
((lp1
(lp2
S'state'
p3
aI0
aa(lp4
S'distance'
p5
aF367.89449310302734
aa(lp6
S'timestamp'
p7
aF1.0039401054382324
aatp8
Rp9
.ccollections
OrderedDict
p0
((lp1
(lp2
S'state'
p3
aI0
aa(lp4
S'distance'
p5
aF367.89449310302734
aa(lp6
S'timestamp'
p7
aF1.0133850574493408
aatp8
Rp9
.ccollections
OrderedDict
p0
((lp1
(lp2
S'state'
p3
aI0
aa(lp4
S'distance'
p5
aF367.89449310302734
aa(lp6
S'timestamp'
p7
aF1.0145540237426758
aatp8
Rp9
.ccollections
OrderedDict
p0
((lp1
(lp2
S'state'
p3
aI0
aa(lp4
S'distance'
p5
aF367.89449310302734
aa(lp6
S'timestamp'
p7
aF1.0235040187835693
aatp8
Rp9
.ccollections
OrderedDict
p0
((lp1
(lp2
S'state'
p3
aI0
aa(lp4
S'distance'
p5
aF367.89449310302734
aa(lp6
S'timestamp'
p7
aF1.0255401134490967
aatp8
Rp9
.ccollections
OrderedDict
p0
((lp1
(lp2
S'state'
p3
aI0
aa(lp4
S'distance'
p5
aF367.89449310302734
aa(lp6
S'timestamp'
p7
aF1.0335781574249268
aatp8
Rp9
.ccollections
OrderedDict
p0
((lp1
(lp2
S'state'
p3
aI0
aa(lp4
S'distance'
p5
aF367.89449310302734
aa(lp6
S'timestamp'
p7
aF1.03422212600708
aatp8
Rp9
.ccollections
OrderedDict
p0
((lp1
(lp2
S'state'
p3
aI0
aa(lp4
S'distance'
p5
aF367.89449310302734
aa(lp6
S'timestamp'
p7
aF1.0434861183166504
aatp8
Rp9
.ccollections
OrderedDict
p0
((lp1
(lp2
S'state'
p3
aI0
aa(lp4
S'distance'
p5
aF367.89449310302734
aa(lp6
S'timestamp'
p7
aF1.0441460609436035
aatp8
Rp9
.ccollections
OrderedDict
p0
((lp1
(lp2
S'state'
p3
aI0
aa(lp4
S'distance'
p5
aF367.89449310302734
aa(lp6
S'timestamp'
p7
aF1.0547780990600586
aatp8
Rp9
.ccollections
OrderedDict
p0
((lp1
(lp2
S'state'
p3
aI0
aa(lp4
S'distance'
p5
aF367.89449310302734
aa(lp6
S'timestamp'
p7
aF1.05491304397583
aatp8
Rp9
.ccollections
OrderedDict
p0
((lp1
(lp2
S'state'
p3
aI0
aa(lp4
S'distance'
p5
aF367.89449310302734
aa(lp6
S'timestamp'
p7
aF1.0635790824890137
aatp8
Rp9
.ccollections
OrderedDict
p0
((lp1
(lp2
S'state'
p3
aI0
aa(lp4
S'distance'
p5
aF367.89449310302734
aa(lp6
S'timestamp'
p7
aF1.064488172531128
aatp8
Rp9
.ccollections
OrderedDict
p0
((lp1
(lp2
S'state'
p3
aI0
aa(lp4
S'distance'
p5
aF367.89449310302734
aa(lp6
S'timestamp'
p7
aF1.073599100112915
aatp8
Rp9
.ccollections
OrderedDict
p0
((lp1
(lp2
S'state'
p3
aI0
aa(lp4
S'distance'
p5
aF367.89449310302734
aa(lp6
S'timestamp'
p7
aF1.0749180316925049
aatp8
Rp9
.ccollections
OrderedDict
p0
((lp1
(lp2
S'state'
p3
aI0
aa(lp4
S'distance'
p5
aF367.89449310302734
aa(lp6
S'timestamp'
p7
aF1.0835671424865723
aatp8
Rp9
.ccollections
OrderedDict
p0
((lp1
(lp2
S'state'
p3
aI0
aa(lp4
S'distance'
p5
aF367.89449310302734
aa(lp6
S'timestamp'
p7
aF1.084106206893921
aatp8
Rp9
.ccollections
OrderedDict
p0
((lp1
(lp2
S'state'
p3
aI0
aa(lp4
S'distance'
p5
aF367.89449310302734
aa(lp6
S'timestamp'
p7
aF1.0934100151062012
aatp8
Rp9
.ccollections
OrderedDict
p0
((lp1
(lp2
S'state'
p3
aI0
aa(lp4
S'distance'
p5
aF367.89449310302734
aa(lp6
S'timestamp'
p7
aF1.0939981937408447
aatp8
Rp9
.ccollections
OrderedDict
p0
((lp1
(lp2
S'state'
p3
aI0
aa(lp4
S'distance'
p5
aF367.89449310302734
aa(lp6
S'timestamp'
p7
aF1.104905128479004
aatp8
Rp9
.ccollections
OrderedDict
p0
((lp1
(lp2
S'state'
p3
aI0
aa(lp4
S'distance'
p5
aF367.89449310302734
aa(lp6
S'timestamp'
p7
aF1.1051239967346191
aatp8
Rp9
.ccollections
OrderedDict
p0
((lp1
(lp2
S'state'
p3
aI0
aa(lp4
S'distance'
p5
aF367.89449310302734
aa(lp6
S'timestamp'
p7
aF1.1139659881591797
aatp8
Rp9
.ccollections
OrderedDict
p0
((lp1
(lp2
S'state'
p3
aI0
aa(lp4
S'distance'
p5
aF367.89449310302734
aa(lp6
S'timestamp'
p7
aF1.1152701377868652
aatp8
Rp9
.ccollections
OrderedDict
p0
((lp1
(lp2
S'state'
p3
aI0
aa(lp4
S'distance'
p5
aF367.89449310302734
aa(lp6
S'timestamp'
p7
aF1.1231679916381836
aatp8
Rp9
.ccollections
OrderedDict
p0
((lp1
(lp2
S'state'
p3
aI0
aa(lp4
S'distance'
p5
aF367.89449310302734
aa(lp6
S'timestamp'
p7
aF1.124338150024414
aatp8
Rp9
.ccollections
OrderedDict
p0
((lp1
(lp2
S'state'
p3
aI0
aa(lp4
S'distance'
p5
aF367.89449310302734
aa(lp6
S'timestamp'
p7
aF1.1340320110321045
aatp8
Rp9
.ccollections
OrderedDict
p0
((lp1
(lp2
S'state'
p3
aI0
aa(lp4
S'distance'
p5
aF367.89449310302734
aa(lp6
S'timestamp'
p7
aF1.1342511177062988
aatp8
Rp9
.ccollections
OrderedDict
p0
((lp1
(lp2
S'state'
p3
aI0
aa(lp4
S'distance'
p5
aF367.89449310302734
aa(lp6
S'timestamp'
p7
aF1.1436131000518799
aatp8
Rp9
.ccollections
OrderedDict
p0
((lp1
(lp2
S'state'
p3
aI0
aa(lp4
S'distance'
p5
aF367.89449310302734
aa(lp6
S'timestamp'
p7
aF1.1452441215515137
aatp8
Rp9
.ccollections
OrderedDict
p0
((lp1
(lp2
S'state'
p3
aI0
aa(lp4
S'distance'
p5
aF367.89449310302734
aa(lp6
S'timestamp'
p7
aF1.1535420417785645
aatp8
Rp9
.ccollections
OrderedDict
p0
((lp1
(lp2
S'state'
p3
aI0
aa(lp4
S'distance'
p5
aF367.89449310302734
aa(lp6
S'timestamp'
p7
aF1.154129981994629
aatp8
Rp9
.ccollections
OrderedDict
p0
((lp1
(lp2
S'state'
p3
aI0
aa(lp4
S'distance'
p5
aF367.89449310302734
aa(lp6
S'timestamp'
p7
aF1.1634070873260498
aatp8
Rp9
.ccollections
OrderedDict
p0
((lp1
(lp2
S'state'
p3
aI0
aa(lp4
S'distance'
p5
aF367.89449310302734
aa(lp6
S'timestamp'
p7
aF1.164330005645752
aatp8
Rp9
.ccollections
OrderedDict
p0
((lp1
(lp2
S'state'
p3
aI0
aa(lp4
S'distance'
p5
aF367.89449310302734
aa(lp6
S'timestamp'
p7
aF1.1736640930175781
aatp8
Rp9
.ccollections
OrderedDict
p0
((lp1
(lp2
S'state'
p3
aI0
aa(lp4
S'distance'
p5
aF367.89449310302734
aa(lp6
S'timestamp'
p7
aF1.184037208557129
aatp8
Rp9
.ccollections
OrderedDict
p0
((lp1
(lp2
S'state'
p3
aI0
aa(lp4
S'distance'
p5
aF367.89449310302734
aa(lp6
S'timestamp'
p7
aF1.1850171089172363
aatp8
Rp9
.ccollections
OrderedDict
p0
((lp1
(lp2
S'state'
p3
aI0
aa(lp4
S'distance'
p5
aF367.89449310302734
aa(lp6
S'timestamp'
p7
aF1.1851530075073242
aatp8
Rp9
.ccollections
OrderedDict
p0
((lp1
(lp2
S'state'
p3
aI0
aa(lp4
S'distance'
p5
aF367.89449310302734
aa(lp6
S'timestamp'
p7
aF1.1939520835876465
aatp8
Rp9
.ccollections
OrderedDict
p0
((lp1
(lp2
S'state'
p3
aI0
aa(lp4
S'distance'
p5
aF367.89449310302734
aa(lp6
S'timestamp'
p7
aF1.1941421031951904
aatp8
Rp9
.ccollections
OrderedDict
p0
((lp1
(lp2
S'state'
p3
aI0
aa(lp4
S'distance'
p5
aF367.89449310302734
aa(lp6
S'timestamp'
p7
aF1.2034502029418945
aatp8
Rp9
.ccollections
OrderedDict
p0
((lp1
(lp2
S'state'
p3
aI0
aa(lp4
S'distance'
p5
aF367.89449310302734
aa(lp6
S'timestamp'
p7
aF1.204512119293213
aatp8
Rp9
.ccollections
OrderedDict
p0
((lp1
(lp2
S'state'
p3
aI0
aa(lp4
S'distance'
p5
aF367.89449310302734
aa(lp6
S'timestamp'
p7
aF1.2181031703948975
aatp8
Rp9
.ccollections
OrderedDict
p0
((lp1
(lp2
S'state'
p3
aI0
aa(lp4
S'distance'
p5
aF367.89449310302734
aa(lp6
S'timestamp'
p7
aF1.218883991241455
aatp8
Rp9
.ccollections
OrderedDict
p0
((lp1
(lp2
S'state'
p3
aI0
aa(lp4
S'distance'
p5
aF367.89449310302734
aa(lp6
S'timestamp'
p7
aF1.2269010543823242
aatp8
Rp9
.ccollections
OrderedDict
p0
((lp1
(lp2
S'state'
p3
aI0
aa(lp4
S'distance'
p5
aF367.89449310302734
aa(lp6
S'timestamp'
p7
aF1.2282710075378418
aatp8
Rp9
.ccollections
OrderedDict
p0
((lp1
(lp2
S'state'
p3
aI0
aa(lp4
S'distance'
p5
aF367.89449310302734
aa(lp6
S'timestamp'
p7
aF1.2442491054534912
aatp8
Rp9
.ccollections
OrderedDict
p0
((lp1
(lp2
S'state'
p3
aI0
aa(lp4
S'distance'
p5
aF367.89449310302734
aa(lp6
S'timestamp'
p7
aF1.2451131343841553
aatp8
Rp9
.ccollections
OrderedDict
p0
((lp1
(lp2
S'state'
p3
aI0
aa(lp4
S'distance'
p5
aF367.89449310302734
aa(lp6
S'timestamp'
p7
aF1.2453441619873047
aatp8
Rp9
.ccollections
OrderedDict
p0
((lp1
(lp2
S'state'
p3
aI0
aa(lp4
S'distance'
p5
aF367.89449310302734
aa(lp6
S'timestamp'
p7
aF1.2466130256652832
aatp8
Rp9
.ccollections
OrderedDict
p0
((lp1
(lp2
S'state'
p3
aI0
aa(lp4
S'distance'
p5
aF367.89449310302734
aa(lp6
S'timestamp'
p7
aF1.2536911964416504
aatp8
Rp9
.ccollections
OrderedDict
p0
((lp1
(lp2
S'state'
p3
aI0
aa(lp4
S'distance'
p5
aF367.89449310302734
aa(lp6
S'timestamp'
p7
aF1.2542140483856201
aatp8
Rp9
.ccollections
OrderedDict
p0
((lp1
(lp2
S'state'
p3
aI0
aa(lp4
S'distance'
p5
aF367.89449310302734
aa(lp6
S'timestamp'
p7
aF1.263418197631836
aatp8
Rp9
.ccollections
OrderedDict
p0
((lp1
(lp2
S'state'
p3
aI0
aa(lp4
S'distance'
p5
aF367.89449310302734
aa(lp6
S'timestamp'
p7
aF1.2646920680999756
aatp8
Rp9
.ccollections
OrderedDict
p0
((lp1
(lp2
S'state'
p3
aI0
aa(lp4
S'distance'
p5
aF367.89449310302734
aa(lp6
S'timestamp'
p7
aF1.273414134979248
aatp8
Rp9
.ccollections
OrderedDict
p0
((lp1
(lp2
S'state'
p3
aI0
aa(lp4
S'distance'
p5
aF367.89449310302734
aa(lp6
S'timestamp'
p7
aF1.2740671634674072
aatp8
Rp9
.ccollections
OrderedDict
p0
((lp1
(lp2
S'state'
p3
aI0
aa(lp4
S'distance'
p5
aF367.89449310302734
aa(lp6
S'timestamp'
p7
aF1.2835240364074707
aatp8
Rp9
.ccollections
OrderedDict
p0
((lp1
(lp2
S'state'
p3
aI0
aa(lp4
S'distance'
p5
aF367.89449310302734
aa(lp6
S'timestamp'
p7
aF1.2842011451721191
aatp8
Rp9
.ccollections
OrderedDict
p0
((lp1
(lp2
S'state'
p3
aI0
aa(lp4
S'distance'
p5
aF367.89449310302734
aa(lp6
S'timestamp'
p7
aF1.2936971187591553
aatp8
Rp9
.ccollections
OrderedDict
p0
((lp1
(lp2
S'state'
p3
aI0
aa(lp4
S'distance'
p5
aF367.89449310302734
aa(lp6
S'timestamp'
p7
aF1.2942850589752197
aatp8
Rp9
.ccollections
OrderedDict
p0
((lp1
(lp2
S'state'
p3
aI0
aa(lp4
S'distance'
p5
aF367.89449310302734
aa(lp6
S'timestamp'
p7
aF1.3037002086639404
aatp8
Rp9
.ccollections
OrderedDict
p0
((lp1
(lp2
S'state'
p3
aI0
aa(lp4
S'distance'
p5
aF367.89449310302734
aa(lp6
S'timestamp'
p7
aF1.3045871257781982
aatp8
Rp9
.ccollections
OrderedDict
p0
((lp1
(lp2
S'state'
p3
aI0
aa(lp4
S'distance'
p5
aF367.89449310302734
aa(lp6
S'timestamp'
p7
aF1.3135230541229248
aatp8
Rp9
.ccollections
OrderedDict
p0
((lp1
(lp2
S'state'
p3
aI0
aa(lp4
S'distance'
p5
aF367.89449310302734
aa(lp6
S'timestamp'
p7
aF1.3143041133880615
aatp8
Rp9
.ccollections
OrderedDict
p0
((lp1
(lp2
S'state'
p3
aI0
aa(lp4
S'distance'
p5
aF367.89449310302734
aa(lp6
S'timestamp'
p7
aF1.323477029800415
aatp8
Rp9
.ccollections
OrderedDict
p0
((lp1
(lp2
S'state'
p3
aI0
aa(lp4
S'distance'
p5
aF367.89449310302734
aa(lp6
S'timestamp'
p7
aF1.3243091106414795
aatp8
Rp9
.ccollections
OrderedDict
p0
((lp1
(lp2
S'state'
p3
aI0
aa(lp4
S'distance'
p5
aF367.89449310302734
aa(lp6
S'timestamp'
p7
aF1.333554983139038
aatp8
Rp9
.ccollections
OrderedDict
p0
((lp1
(lp2
S'state'
p3
aI0
aa(lp4
S'distance'
p5
aF367.89449310302734
aa(lp6
S'timestamp'
p7
aF1.334130048751831
aatp8
Rp9
.ccollections
OrderedDict
p0
((lp1
(lp2
S'state'
p3
aI0
aa(lp4
S'distance'
p5
aF367.89449310302734
aa(lp6
S'timestamp'
p7
aF1.3435730934143066
aatp8
Rp9
.ccollections
OrderedDict
p0
((lp1
(lp2
S'state'
p3
aI0
aa(lp4
S'distance'
p5
aF367.89449310302734
aa(lp6
S'timestamp'
p7
aF1.3446011543273926
aatp8
Rp9
.ccollections
OrderedDict
p0
((lp1
(lp2
S'state'
p3
aI0
aa(lp4
S'distance'
p5
aF367.89449310302734
aa(lp6
S'timestamp'
p7
aF1.3534891605377197
aatp8
Rp9
.ccollections
OrderedDict
p0
((lp1
(lp2
S'state'
p3
aI0
aa(lp4
S'distance'
p5
aF367.89449310302734
aa(lp6
S'timestamp'
p7
aF1.3542571067810059
aatp8
Rp9
.ccollections
OrderedDict
p0
((lp1
(lp2
S'state'
p3
aI0
aa(lp4
S'distance'
p5
aF367.89449310302734
aa(lp6
S'timestamp'
p7
aF1.363720178604126
aatp8
Rp9
.ccollections
OrderedDict
p0
((lp1
(lp2
S'state'
p3
aI0
aa(lp4
S'distance'
p5
aF367.89449310302734
aa(lp6
S'timestamp'
p7
aF1.3641631603240967
aatp8
Rp9
.ccollections
OrderedDict
p0
((lp1
(lp2
S'state'
p3
aI0
aa(lp4
S'distance'
p5
aF367.89449310302734
aa(lp6
S'timestamp'
p7
aF1.3736860752105713
aatp8
Rp9
.ccollections
OrderedDict
p0
((lp1
(lp2
S'state'
p3
aI0
aa(lp4
S'distance'
p5
aF367.89449310302734
aa(lp6
S'timestamp'
p7
aF1.3741650581359863
aatp8
Rp9
.ccollections
OrderedDict
p0
((lp1
(lp2
S'state'
p3
aI0
aa(lp4
S'distance'
p5
aF367.89449310302734
aa(lp6
S'timestamp'
p7
aF1.3835091590881348
aatp8
Rp9
.ccollections
OrderedDict
p0
((lp1
(lp2
S'state'
p3
aI0
aa(lp4
S'distance'
p5
aF367.89449310302734
aa(lp6
S'timestamp'
p7
aF1.3844690322875977
aatp8
Rp9
.ccollections
OrderedDict
p0
((lp1
(lp2
S'state'
p3
aI0
aa(lp4
S'distance'
p5
aF367.89449310302734
aa(lp6
S'timestamp'
p7
aF1.3937511444091797
aatp8
Rp9
.ccollections
OrderedDict
p0
((lp1
(lp2
S'state'
p3
aI0
aa(lp4
S'distance'
p5
aF367.89449310302734
aa(lp6
S'timestamp'
p7
aF1.3942630290985107
aatp8
Rp9
.ccollections
OrderedDict
p0
((lp1
(lp2
S'state'
p3
aI0
aa(lp4
S'distance'
p5
aF367.89449310302734
aa(lp6
S'timestamp'
p7
aF1.4037041664123535
aatp8
Rp9
.ccollections
OrderedDict
p0
((lp1
(lp2
S'state'
p3
aI0
aa(lp4
S'distance'
p5
aF367.89449310302734
aa(lp6
S'timestamp'
p7
aF1.4045300483703613
aatp8
Rp9
.ccollections
OrderedDict
p0
((lp1
(lp2
S'state'
p3
aI0
aa(lp4
S'distance'
p5
aF367.89449310302734
aa(lp6
S'timestamp'
p7
aF1.4135921001434326
aatp8
Rp9
.ccollections
OrderedDict
p0
((lp1
(lp2
S'state'
p3
aI0
aa(lp4
S'distance'
p5
aF367.89449310302734
aa(lp6
S'timestamp'
p7
aF1.4148480892181396
aatp8
Rp9
.ccollections
OrderedDict
p0
((lp1
(lp2
S'state'
p3
aI0
aa(lp4
S'distance'
p5
aF367.89449310302734
aa(lp6
S'timestamp'
p7
aF1.4235970973968506
aatp8
Rp9
.ccollections
OrderedDict
p0
((lp1
(lp2
S'state'
p3
aI0
aa(lp4
S'distance'
p5
aF367.89449310302734
aa(lp6
S'timestamp'
p7
aF1.4249281883239746
aatp8
Rp9
.ccollections
OrderedDict
p0
((lp1
(lp2
S'state'
p3
aI0
aa(lp4
S'distance'
p5
aF367.89449310302734
aa(lp6
S'timestamp'
p7
aF1.4336791038513184
aatp8
Rp9
.ccollections
OrderedDict
p0
((lp1
(lp2
S'state'
p3
aI0
aa(lp4
S'distance'
p5
aF367.89449310302734
aa(lp6
S'timestamp'
p7
aF1.4341180324554443
aatp8
Rp9
.ccollections
OrderedDict
p0
((lp1
(lp2
S'state'
p3
aI0
aa(lp4
S'distance'
p5
aF367.89449310302734
aa(lp6
S'timestamp'
p7
aF1.4441351890563965
aatp8
Rp9
.ccollections
OrderedDict
p0
((lp1
(lp2
S'state'
p3
aI0
aa(lp4
S'distance'
p5
aF367.89449310302734
aa(lp6
S'timestamp'
p7
aF1.4443120956420898
aatp8
Rp9
.ccollections
OrderedDict
p0
((lp1
(lp2
S'state'
p3
aI0
aa(lp4
S'distance'
p5
aF367.89449310302734
aa(lp6
S'timestamp'
p7
aF1.4534831047058105
aatp8
Rp9
.ccollections
OrderedDict
p0
((lp1
(lp2
S'state'
p3
aI0
aa(lp4
S'distance'
p5
aF367.89449310302734
aa(lp6
S'timestamp'
p7
aF1.4541079998016357
aatp8
Rp9
.ccollections
OrderedDict
p0
((lp1
(lp2
S'state'
p3
aI0
aa(lp4
S'distance'
p5
aF367.89449310302734
aa(lp6
S'timestamp'
p7
aF1.4636080265045166
aatp8
Rp9
.ccollections
OrderedDict
p0
((lp1
(lp2
S'state'
p3
aI0
aa(lp4
S'distance'
p5
aF367.89449310302734
aa(lp6
S'timestamp'
p7
aF1.4653701782226562
aatp8
Rp9
.ccollections
OrderedDict
p0
((lp1
(lp2
S'state'
p3
aI0
aa(lp4
S'distance'
p5
aF367.89449310302734
aa(lp6
S'timestamp'
p7
aF1.4740312099456787
aatp8
Rp9
.ccollections
OrderedDict
p0
((lp1
(lp2
S'state'
p3
aI0
aa(lp4
S'distance'
p5
aF367.89449310302734
aa(lp6
S'timestamp'
p7
aF1.474255084991455
aatp8
Rp9
.ccollections
OrderedDict
p0
((lp1
(lp2
S'state'
p3
aI0
aa(lp4
S'distance'
p5
aF367.89449310302734
aa(lp6
S'timestamp'
p7
aF1.4839251041412354
aatp8
Rp9
.ccollections
OrderedDict
p0
((lp1
(lp2
S'state'
p3
aI0
aa(lp4
S'distance'
p5
aF367.89449310302734
aa(lp6
S'timestamp'
p7
aF1.484079122543335
aatp8
Rp9
.ccollections
OrderedDict
p0
((lp1
(lp2
S'state'
p3
aI0
aa(lp4
S'distance'
p5
aF367.89449310302734
aa(lp6
S'timestamp'
p7
aF1.4940111637115479
aatp8
Rp9
.ccollections
OrderedDict
p0
((lp1
(lp2
S'state'
p3
aI0
aa(lp4
S'distance'
p5
aF367.89449310302734
aa(lp6
S'timestamp'
p7
aF1.4942011833190918
aatp8
Rp9
.ccollections
OrderedDict
p0
((lp1
(lp2
S'state'
p3
aI0
aa(lp4
S'distance'
p5
aF367.89449310302734
aa(lp6
S'timestamp'
p7
aF1.5035200119018555
aatp8
Rp9
.ccollections
OrderedDict
p0
((lp1
(lp2
S'state'
p3
aI0
aa(lp4
S'distance'
p5
aF367.89449310302734
aa(lp6
S'timestamp'
p7
aF1.504350185394287
aatp8
Rp9
.ccollections
OrderedDict
p0
((lp1
(lp2
S'state'
p3
aI0
aa(lp4
S'distance'
p5
aF367.89449310302734
aa(lp6
S'timestamp'
p7
aF1.5239222049713135
aatp8
Rp9
.ccollections
OrderedDict
p0
((lp1
(lp2
S'state'
p3
aI0
aa(lp4
S'distance'
p5
aF367.89449310302734
aa(lp6
S'timestamp'
p7
aF1.524165153503418
aatp8
Rp9
.ccollections
OrderedDict
p0
((lp1
(lp2
S'state'
p3
aI0
aa(lp4
S'distance'
p5
aF367.89449310302734
aa(lp6
S'timestamp'
p7
aF1.5254931449890137
aatp8
Rp9
.ccollections
OrderedDict
p0
((lp1
(lp2
S'state'
p3
aI0
aa(lp4
S'distance'
p5
aF367.89449310302734
aa(lp6
S'timestamp'
p7
aF1.5264301300048828
aatp8
Rp9
.ccollections
OrderedDict
p0
((lp1
(lp2
S'state'
p3
aI0
aa(lp4
S'distance'
p5
aF367.89449310302734
aa(lp6
S'timestamp'
p7
aF1.5339760780334473
aatp8
Rp9
.ccollections
OrderedDict
p0
((lp1
(lp2
S'state'
p3
aI0
aa(lp4
S'distance'
p5
aF367.89449310302734
aa(lp6
S'timestamp'
p7
aF1.5341382026672363
aatp8
Rp9
.ccollections
OrderedDict
p0
((lp1
(lp2
S'state'
p3
aI0
aa(lp4
S'distance'
p5
aF367.89449310302734
aa(lp6
S'timestamp'
p7
aF1.5535261631011963
aatp8
Rp9
.ccollections
OrderedDict
p0
((lp1
(lp2
S'state'
p3
aI0
aa(lp4
S'distance'
p5
aF367.89449310302734
aa(lp6
S'timestamp'
p7
aF1.5539050102233887
aatp8
Rp9
.ccollections
OrderedDict
p0
((lp1
(lp2
S'state'
p3
aI0
aa(lp4
S'distance'
p5
aF367.89449310302734
aa(lp6
S'timestamp'
p7
aF1.555217981338501
aatp8
Rp9
.ccollections
OrderedDict
p0
((lp1
(lp2
S'state'
p3
aI0
aa(lp4
S'distance'
p5
aF367.89449310302734
aa(lp6
S'timestamp'
p7
aF1.5555150508880615
aatp8
Rp9
.ccollections
OrderedDict
p0
((lp1
(lp2
S'state'
p3
aI0
aa(lp4
S'distance'
p5
aF367.89449310302734
aa(lp6
S'timestamp'
p7
aF1.5636930465698242
aatp8
Rp9
.ccollections
OrderedDict
p0
((lp1
(lp2
S'state'
p3
aI0
aa(lp4
S'distance'
p5
aF367.89449310302734
aa(lp6
S'timestamp'
p7
aF1.564256191253662
aatp8
Rp9
.ccollections
OrderedDict
p0
((lp1
(lp2
S'state'
p3
aI0
aa(lp4
S'distance'
p5
aF367.89449310302734
aa(lp6
S'timestamp'
p7
aF1.5735490322113037
aatp8
Rp9
.ccollections
OrderedDict
p0
((lp1
(lp2
S'state'
p3
aI0
aa(lp4
S'distance'
p5
aF367.89449310302734
aa(lp6
S'timestamp'
p7
aF1.5742361545562744
aatp8
Rp9
.ccollections
OrderedDict
p0
((lp1
(lp2
S'state'
p3
aI0
aa(lp4
S'distance'
p5
aF367.89449310302734
aa(lp6
S'timestamp'
p7
aF1.5841481685638428
aatp8
Rp9
.ccollections
OrderedDict
p0
((lp1
(lp2
S'state'
p3
aI0
aa(lp4
S'distance'
p5
aF367.89449310302734
aa(lp6
S'timestamp'
p7
aF1.5843231678009033
aatp8
Rp9
.ccollections
OrderedDict
p0
((lp1
(lp2
S'state'
p3
aI0
aa(lp4
S'distance'
p5
aF367.89449310302734
aa(lp6
S'timestamp'
p7
aF1.594391107559204
aatp8
Rp9
.ccollections
OrderedDict
p0
((lp1
(lp2
S'state'
p3
aI0
aa(lp4
S'distance'
p5
aF367.89449310302734
aa(lp6
S'timestamp'
p7
aF1.5947210788726807
aatp8
Rp9
.ccollections
OrderedDict
p0
((lp1
(lp2
S'state'
p3
aI0
aa(lp4
S'distance'
p5
aF367.89449310302734
aa(lp6
S'timestamp'
p7
aF1.6039772033691406
aatp8
Rp9
.ccollections
OrderedDict
p0
((lp1
(lp2
S'state'
p3
aI0
aa(lp4
S'distance'
p5
aF367.89449310302734
aa(lp6
S'timestamp'
p7
aF1.6041741371154785
aatp8
Rp9
.ccollections
OrderedDict
p0
((lp1
(lp2
S'state'
p3
aI0
aa(lp4
S'distance'
p5
aF367.89449310302734
aa(lp6
S'timestamp'
p7
aF1.6136670112609863
aatp8
Rp9
.ccollections
OrderedDict
p0
((lp1
(lp2
S'state'
p3
aI0
aa(lp4
S'distance'
p5
aF367.89449310302734
aa(lp6
S'timestamp'
p7
aF1.6148641109466553
aatp8
Rp9
.ccollections
OrderedDict
p0
((lp1
(lp2
S'state'
p3
aI0
aa(lp4
S'distance'
p5
aF367.89449310302734
aa(lp6
S'timestamp'
p7
aF1.6236791610717773
aatp8
Rp9
.ccollections
OrderedDict
p0
((lp1
(lp2
S'state'
p3
aI0
aa(lp4
S'distance'
p5
aF367.89449310302734
aa(lp6
S'timestamp'
p7
aF1.6254022121429443
aatp8
Rp9
.ccollections
OrderedDict
p0
((lp1
(lp2
S'state'
p3
aI0
aa(lp4
S'distance'
p5
aF367.89449310302734
aa(lp6
S'timestamp'
p7
aF1.6336250305175781
aatp8
Rp9
.ccollections
OrderedDict
p0
((lp1
(lp2
S'state'
p3
aI0
aa(lp4
S'distance'
p5
aF367.89449310302734
aa(lp6
S'timestamp'
p7
aF1.635033130645752
aatp8
Rp9
.ccollections
OrderedDict
p0
((lp1
(lp2
S'state'
p3
aI0
aa(lp4
S'distance'
p5
aF367.89449310302734
aa(lp6
S'timestamp'
p7
aF1.6436882019042969
aatp8
Rp9
.ccollections
OrderedDict
p0
((lp1
(lp2
S'state'
p3
aI0
aa(lp4
S'distance'
p5
aF367.89449310302734
aa(lp6
S'timestamp'
p7
aF1.6442999839782715
aatp8
Rp9
.ccollections
OrderedDict
p0
((lp1
(lp2
S'state'
p3
aI0
aa(lp4
S'distance'
p5
aF367.89449310302734
aa(lp6
S'timestamp'
p7
aF1.664208173751831
aatp8
Rp9
.ccollections
OrderedDict
p0
((lp1
(lp2
S'state'
p3
aI0
aa(lp4
S'distance'
p5
aF367.89449310302734
aa(lp6
S'timestamp'
p7
aF1.6645240783691406
aatp8
Rp9
.ccollections
OrderedDict
p0
((lp1
(lp2
S'state'
p3
aI0
aa(lp4
S'distance'
p5
aF367.89449310302734
aa(lp6
S'timestamp'
p7
aF1.6652231216430664
aatp8
Rp9
.ccollections
OrderedDict
p0
((lp1
(lp2
S'state'
p3
aI0
aa(lp4
S'distance'
p5
aF367.89449310302734
aa(lp6
S'timestamp'
p7
aF1.6660220623016357
aatp8
Rp9
.ccollections
OrderedDict
p0
((lp1
(lp2
S'state'
p3
aI0
aa(lp4
S'distance'
p5
aF367.89449310302734
aa(lp6
S'timestamp'
p7
aF1.6739201545715332
aatp8
Rp9
.ccollections
OrderedDict
p0
((lp1
(lp2
S'state'
p3
aI0
aa(lp4
S'distance'
p5
aF367.89449310302734
aa(lp6
S'timestamp'
p7
aF1.6740469932556152
aatp8
Rp9
.ccollections
OrderedDict
p0
((lp1
(lp2
S'state'
p3
aI0
aa(lp4
S'distance'
p5
aF367.89449310302734
aa(lp6
S'timestamp'
p7
aF1.6839971542358398
aatp8
Rp9
.ccollections
OrderedDict
p0
((lp1
(lp2
S'state'
p3
aI0
aa(lp4
S'distance'
p5
aF367.89449310302734
aa(lp6
S'timestamp'
p7
aF1.684305191040039
aatp8
Rp9
.ccollections
OrderedDict
p0
((lp1
(lp2
S'state'
p3
aI0
aa(lp4
S'distance'
p5
aF367.89449310302734
aa(lp6
S'timestamp'
p7
aF1.6936051845550537
aatp8
Rp9
.ccollections
OrderedDict
p0
((lp1
(lp2
S'state'
p3
aI0
aa(lp4
S'distance'
p5
aF367.89449310302734
aa(lp6
S'timestamp'
p7
aF1.6947171688079834
aatp8
Rp9
.ccollections
OrderedDict
p0
((lp1
(lp2
S'state'
p3
aI0
aa(lp4
S'distance'
p5
aF367.89449310302734
aa(lp6
S'timestamp'
p7
aF1.7042109966278076
aatp8
Rp9
.ccollections
OrderedDict
p0
((lp1
(lp2
S'state'
p3
aI0
aa(lp4
S'distance'
p5
aF367.89449310302734
aa(lp6
S'timestamp'
p7
aF1.704646110534668
aatp8
Rp9
.ccollections
OrderedDict
p0
((lp1
(lp2
S'state'
p3
aI0
aa(lp4
S'distance'
p5
aF367.89449310302734
aa(lp6
S'timestamp'
p7
aF1.724109172821045
aatp8
Rp9
.ccollections
OrderedDict
p0
((lp1
(lp2
S'state'
p3
aI0
aa(lp4
S'distance'
p5
aF367.89449310302734
aa(lp6
S'timestamp'
p7
aF1.724287986755371
aatp8
Rp9
.ccollections
OrderedDict
p0
((lp1
(lp2
S'state'
p3
aI0
aa(lp4
S'distance'
p5
aF367.89449310302734
aa(lp6
S'timestamp'
p7
aF1.7258801460266113
aatp8
Rp9
.ccollections
OrderedDict
p0
((lp1
(lp2
S'state'
p3
aI0
aa(lp4
S'distance'
p5
aF367.89449310302734
aa(lp6
S'timestamp'
p7
aF1.726011037826538
aatp8
Rp9
.ccollections
OrderedDict
p0
((lp1
(lp2
S'state'
p3
aI0
aa(lp4
S'distance'
p5
aF367.89449310302734
aa(lp6
S'timestamp'
p7
aF1.7336091995239258
aatp8
Rp9
.ccollections
OrderedDict
p0
((lp1
(lp2
S'state'
p3
aI0
aa(lp4
S'distance'
p5
aF367.89449310302734
aa(lp6
S'timestamp'
p7
aF1.7342541217803955
aatp8
Rp9
.ccollections
OrderedDict
p0
((lp1
(lp2
S'state'
p3
aI0
aa(lp4
S'distance'
p5
aF367.89449310302734
aa(lp6
S'timestamp'
p7
aF1.743678092956543
aatp8
Rp9
.ccollections
OrderedDict
p0
((lp1
(lp2
S'state'
p3
aI0
aa(lp4
S'distance'
p5
aF367.89449310302734
aa(lp6
S'timestamp'
p7
aF1.7445080280303955
aatp8
Rp9
.ccollections
OrderedDict
p0
((lp1
(lp2
S'state'
p3
aI0
aa(lp4
S'distance'
p5
aF367.89449310302734
aa(lp6
S'timestamp'
p7
aF1.7536721229553223
aatp8
Rp9
.ccollections
OrderedDict
p0
((lp1
(lp2
S'state'
p3
aI0
aa(lp4
S'distance'
p5
aF367.89449310302734
aa(lp6
S'timestamp'
p7
aF1.7546861171722412
aatp8
Rp9
.ccollections
OrderedDict
p0
((lp1
(lp2
S'state'
p3
aI0
aa(lp4
S'distance'
p5
aF367.89449310302734
aa(lp6
S'timestamp'
p7
aF1.7641100883483887
aatp8
Rp9
.ccollections
OrderedDict
p0
((lp1
(lp2
S'state'
p3
aI0
aa(lp4
S'distance'
p5
aF367.89449310302734
aa(lp6
S'timestamp'
p7
aF1.7641851902008057
aatp8
Rp9
.ccollections
OrderedDict
p0
((lp1
(lp2
S'state'
p3
aI0
aa(lp4
S'distance'
p5
aF367.89449310302734
aa(lp6
S'timestamp'
p7
aF1.7736680507659912
aatp8
Rp9
.ccollections
OrderedDict
p0
((lp1
(lp2
S'state'
p3
aI0
aa(lp4
S'distance'
p5
aF367.89449310302734
aa(lp6
S'timestamp'
p7
aF1.7741789817810059
aatp8
Rp9
.ccollections
OrderedDict
p0
((lp1
(lp2
S'state'
p3
aI0
aa(lp4
S'distance'
p5
aF367.89449310302734
aa(lp6
S'timestamp'
p7
aF1.784142017364502
aatp8
Rp9
.ccollections
OrderedDict
p0
((lp1
(lp2
S'state'
p3
aI0
aa(lp4
S'distance'
p5
aF367.89449310302734
aa(lp6
S'timestamp'
p7
aF1.784440040588379
aatp8
Rp9
.ccollections
OrderedDict
p0
((lp1
(lp2
S'state'
p3
aI0
aa(lp4
S'distance'
p5
aF367.89449310302734
aa(lp6
S'timestamp'
p7
aF1.8039860725402832
aatp8
Rp9
.ccollections
OrderedDict
p0
((lp1
(lp2
S'state'
p3
aI0
aa(lp4
S'distance'
p5
aF367.89449310302734
aa(lp6
S'timestamp'
p7
aF1.805455207824707
aatp8
Rp9
.ccollections
OrderedDict
p0
((lp1
(lp2
S'state'
p3
aI0
aa(lp4
S'distance'
p5
aF367.89449310302734
aa(lp6
S'timestamp'
p7
aF1.8179931640625
aatp8
Rp9
.ccollections
OrderedDict
p0
((lp1
(lp2
S'state'
p3
aI0
aa(lp4
S'distance'
p5
aF367.89449310302734
aa(lp6
S'timestamp'
p7
aF1.8189411163330078
aatp8
Rp9
.ccollections
OrderedDict
p0
((lp1
(lp2
S'state'
p3
aI400
aa(lp4
S'distance'
p5
aF367.89449310302734
aa(lp6
S'timestamp'
p7
aF1.8228909969329834
aatp8
Rp9
.ccollections
OrderedDict
p0
((lp1
(lp2
S'state'
p3
aI400
aa(lp4
S'distance'
p5
aF367.89449310302734
aa(lp6
S'timestamp'
p7
aF1.8353140354156494
aatp8
Rp9
.ccollections
OrderedDict
p0
((lp1
(lp2
S'state'
p3
aI400
aa(lp4
S'distance'
p5
aF367.89449310302734
aa(lp6
S'timestamp'
p7
aF1.836604118347168
aatp8
Rp9
.ccollections
OrderedDict
p0
((lp1
(lp2
S'state'
p3
aI400
aa(lp4
S'distance'
p5
aF367.89449310302734
aa(lp6
S'timestamp'
p7
aF1.8374691009521484
aatp8
Rp9
.ccollections
OrderedDict
p0
((lp1
(lp2
S'state'
p3
aI400
aa(lp4
S'distance'
p5
aF367.89449310302734
aa(lp6
S'timestamp'
p7
aF1.837705135345459
aatp8
Rp9
.ccollections
OrderedDict
p0
((lp1
(lp2
S'state'
p3
aI400
aa(lp4
S'distance'
p5
aF367.89449310302734
aa(lp6
S'timestamp'
p7
aF1.8378570079803467
aatp8
Rp9
.ccollections
OrderedDict
p0
((lp1
(lp2
S'state'
p3
aI400
aa(lp4
S'distance'
p5
aF367.89449310302734
aa(lp6
S'timestamp'
p7
aF1.8829560279846191
aatp8
Rp9
.ccollections
OrderedDict
p0
((lp1
(lp2
S'state'
p3
aI400
aa(lp4
S'distance'
p5
aF367.89449310302734
aa(lp6
S'timestamp'
p7
aF1.8840742111206055
aatp8
Rp9
.ccollections
OrderedDict
p0
((lp1
(lp2
S'state'
p3
aI400
aa(lp4
S'distance'
p5
aF367.89449310302734
aa(lp6
S'timestamp'
p7
aF1.8848991394042969
aatp8
Rp9
.ccollections
OrderedDict
p0
((lp1
(lp2
S'state'
p3
aI400
aa(lp4
S'distance'
p5
aF367.89449310302734
aa(lp6
S'timestamp'
p7
aF1.8852500915527344
aatp8
Rp9
.ccollections
OrderedDict
p0
((lp1
(lp2
S'state'
p3
aI400
aa(lp4
S'distance'
p5
aF367.89449310302734
aa(lp6
S'timestamp'
p7
aF1.8860111236572266
aatp8
Rp9
.ccollections
OrderedDict
p0
((lp1
(lp2
S'state'
p3
aI400
aa(lp4
S'distance'
p5
aF367.89449310302734
aa(lp6
S'timestamp'
p7
aF1.8956351280212402
aatp8
Rp9
.ccollections
OrderedDict
p0
((lp1
(lp2
S'state'
p3
aI400
aa(lp4
S'distance'
p5
aF367.89449310302734
aa(lp6
S'timestamp'
p7
aF1.8962111473083496
aatp8
Rp9
.ccollections
OrderedDict
p0
((lp1
(lp2
S'state'
p3
aI400
aa(lp4
S'distance'
p5
aF367.89449310302734
aa(lp6
S'timestamp'
p7
aF1.8970351219177246
aatp8
Rp9
.ccollections
OrderedDict
p0
((lp1
(lp2
S'state'
p3
aI400
aa(lp4
S'distance'
p5
aF367.89449310302734
aa(lp6
S'timestamp'
p7
aF1.8972551822662354
aatp8
Rp9
.ccollections
OrderedDict
p0
((lp1
(lp2
S'state'
p3
aI400
aa(lp4
S'distance'
p5
aF367.89449310302734
aa(lp6
S'timestamp'
p7
aF1.909980058670044
aatp8
Rp9
.ccollections
OrderedDict
p0
((lp1
(lp2
S'state'
p3
aI400
aa(lp4
S'distance'
p5
aF367.89449310302734
aa(lp6
S'timestamp'
p7
aF1.9102270603179932
aatp8
Rp9
.ccollections
OrderedDict
p0
((lp1
(lp2
S'state'
p3
aI400
aa(lp4
S'distance'
p5
aF367.89449310302734
aa(lp6
S'timestamp'
p7
aF1.9104130268096924
aatp8
Rp9
.ccollections
OrderedDict
p0
((lp1
(lp2
S'state'
p3
aI400
aa(lp4
S'distance'
p5
aF367.89449310302734
aa(lp6
S'timestamp'
p7
aF1.9113731384277344
aatp8
Rp9
.ccollections
OrderedDict
p0
((lp1
(lp2
S'state'
p3
aI400
aa(lp4
S'distance'
p5
aF367.89449310302734
aa(lp6
S'timestamp'
p7
aF1.9115550518035889
aatp8
Rp9
.ccollections
OrderedDict
p0
((lp1
(lp2
S'state'
p3
aI400
aa(lp4
S'distance'
p5
aF367.89449310302734
aa(lp6
S'timestamp'
p7
aF1.914736032485962
aatp8
Rp9
.ccollections
OrderedDict
p0
((lp1
(lp2
S'state'
p3
aI400
aa(lp4
S'distance'
p5
aF367.89449310302734
aa(lp6
S'timestamp'
p7
aF1.9149940013885498
aatp8
Rp9
.ccollections
OrderedDict
p0
((lp1
(lp2
S'state'
p3
aI400
aa(lp4
S'distance'
p5
aF367.89449310302734
aa(lp6
S'timestamp'
p7
aF1.9348101615905762
aatp8
Rp9
.ccollections
OrderedDict
p0
((lp1
(lp2
S'state'
p3
aI400
aa(lp4
S'distance'
p5
aF367.89449310302734
aa(lp6
S'timestamp'
p7
aF1.9348900318145752
aatp8
Rp9
.ccollections
OrderedDict
p0
((lp1
(lp2
S'state'
p3
aI400
aa(lp4
S'distance'
p5
aF367.89449310302734
aa(lp6
S'timestamp'
p7
aF1.9366450309753418
aatp8
Rp9
.ccollections
OrderedDict
p0
((lp1
(lp2
S'state'
p3
aI400
aa(lp4
S'distance'
p5
aF367.89449310302734
aa(lp6
S'timestamp'
p7
aF1.937122106552124
aatp8
Rp9
.ccollections
OrderedDict
p0
((lp1
(lp2
S'state'
p3
aI400
aa(lp4
S'distance'
p5
aF367.89449310302734
aa(lp6
S'timestamp'
p7
aF1.9437592029571533
aatp8
Rp9
.ccollections
OrderedDict
p0
((lp1
(lp2
S'state'
p3
aI400
aa(lp4
S'distance'
p5
aF367.89449310302734
aa(lp6
S'timestamp'
p7
aF1.9444010257720947
aatp8
Rp9
.ccollections
OrderedDict
p0
((lp1
(lp2
S'state'
p3
aI400
aa(lp4
S'distance'
p5
aF367.89449310302734
aa(lp6
S'timestamp'
p7
aF1.9651100635528564
aatp8
Rp9
.ccollections
OrderedDict
p0
((lp1
(lp2
S'state'
p3
aI400
aa(lp4
S'distance'
p5
aF367.89449310302734
aa(lp6
S'timestamp'
p7
aF1.9658350944519043
aatp8
Rp9
.ccollections
OrderedDict
p0
((lp1
(lp2
S'state'
p3
aI400
aa(lp4
S'distance'
p5
aF367.89449310302734
aa(lp6
S'timestamp'
p7
aF1.9659101963043213
aatp8
Rp9
.ccollections
OrderedDict
p0
((lp1
(lp2
S'state'
p3
aI400
aa(lp4
S'distance'
p5
aF367.89449310302734
aa(lp6
S'timestamp'
p7
aF1.9659759998321533
aatp8
Rp9
.ccollections
OrderedDict
p0
((lp1
(lp2
S'state'
p3
aI400
aa(lp4
S'distance'
p5
aF367.89449310302734
aa(lp6
S'timestamp'
p7
aF1.9736909866333008
aatp8
Rp9
.ccollections
OrderedDict
p0
((lp1
(lp2
S'state'
p3
aI400
aa(lp4
S'distance'
p5
aF367.89449310302734
aa(lp6
S'timestamp'
p7
aF1.9742891788482666
aatp8
Rp9
.ccollections
OrderedDict
p0
((lp1
(lp2
S'state'
p3
aI400
aa(lp4
S'distance'
p5
aF367.89449310302734
aa(lp6
S'timestamp'
p7
aF1.9847590923309326
aatp8
Rp9
.ccollections
OrderedDict
p0
((lp1
(lp2
S'state'
p3
aI400
aa(lp4
S'distance'
p5
aF367.89449310302734
aa(lp6
S'timestamp'
p7
aF1.9848670959472656
aatp8
Rp9
.ccollections
OrderedDict
p0
((lp1
(lp2
S'state'
p3
aI400
aa(lp4
S'distance'
p5
aF367.89449310302734
aa(lp6
S'timestamp'
p7
aF1.9937081336975098
aatp8
Rp9
.ccollections
OrderedDict
p0
((lp1
(lp2
S'state'
p3
aI400
aa(lp4
S'distance'
p5
aF367.89449310302734
aa(lp6
S'timestamp'
p7
aF2.0037221908569336
aatp8
Rp9
.ccollections
OrderedDict
p0
((lp1
(lp2
S'state'
p3
aI400
aa(lp4
S'distance'
p5
aF367.89449310302734
aa(lp6
S'timestamp'
p7
aF2.004521131515503
aatp8
Rp9
.ccollections
OrderedDict
p0
((lp1
(lp2
S'state'
p3
aI400
aa(lp4
S'distance'
p5
aF367.89449310302734
aa(lp6
S'timestamp'
p7
aF2.0052430629730225
aatp8
Rp9
.ccollections
OrderedDict
p0
((lp1
(lp2
S'state'
p3
aI400
aa(lp4
S'distance'
p5
aF367.89449310302734
aa(lp6
S'timestamp'
p7
aF2.01377010345459
aatp8
Rp9
.ccollections
OrderedDict
p0
((lp1
(lp2
S'state'
p3
aI400
aa(lp4
S'distance'
p5
aF367.89449310302734
aa(lp6
S'timestamp'
p7
aF2.0146710872650146
aatp8
Rp9
.ccollections
OrderedDict
p0
((lp1
(lp2
S'state'
p3
aI400
aa(lp4
S'distance'
p5
aF367.89449310302734
aa(lp6
S'timestamp'
p7
aF2.0238242149353027
aatp8
Rp9
.ccollections
OrderedDict
p0
((lp1
(lp2
S'state'
p3
aI400
aa(lp4
S'distance'
p5
aF367.89449310302734
aa(lp6
S'timestamp'
p7
aF2.0250420570373535
aatp8
Rp9
.ccollections
OrderedDict
p0
((lp1
(lp2
S'state'
p3
aI400
aa(lp4
S'distance'
p5
aF367.89449310302734
aa(lp6
S'timestamp'
p7
aF2.0342299938201904
aatp8
Rp9
.ccollections
OrderedDict
p0
((lp1
(lp2
S'state'
p3
aI400
aa(lp4
S'distance'
p5
aF367.89449310302734
aa(lp6
S'timestamp'
p7
aF2.034487009048462
aatp8
Rp9
.ccollections
OrderedDict
p0
((lp1
(lp2
S'state'
p3
aI400
aa(lp4
S'distance'
p5
aF367.89449310302734
aa(lp6
S'timestamp'
p7
aF2.0441510677337646
aatp8
Rp9
.ccollections
OrderedDict
p0
((lp1
(lp2
S'state'
p3
aI400
aa(lp4
S'distance'
p5
aF367.89449310302734
aa(lp6
S'timestamp'
p7
aF2.0446250438690186
aatp8
Rp9
.ccollections
OrderedDict
p0
((lp1
(lp2
S'state'
p3
aI400
aa(lp4
S'distance'
p5
aF367.89449310302734
aa(lp6
S'timestamp'
p7
aF2.0540621280670166
aatp8
Rp9
.ccollections
OrderedDict
p0
((lp1
(lp2
S'state'
p3
aI400
aa(lp4
S'distance'
p5
aF367.89449310302734
aa(lp6
S'timestamp'
p7
aF2.054267168045044
aatp8
Rp9
.ccollections
OrderedDict
p0
((lp1
(lp2
S'state'
p3
aI400
aa(lp4
S'distance'
p5
aF367.89449310302734
aa(lp6
S'timestamp'
p7
aF2.064228057861328
aatp8
Rp9
.ccollections
OrderedDict
p0
((lp1
(lp2
S'state'
p3
aI400
aa(lp4
S'distance'
p5
aF367.89449310302734
aa(lp6
S'timestamp'
p7
aF2.0643491744995117
aatp8
Rp9
.ccollections
OrderedDict
p0
((lp1
(lp2
S'state'
p3
aI400
aa(lp4
S'distance'
p5
aF367.89449310302734
aa(lp6
S'timestamp'
p7
aF2.0741770267486572
aatp8
Rp9
.ccollections
OrderedDict
p0
((lp1
(lp2
S'state'
p3
aI400
aa(lp4
S'distance'
p5
aF367.89449310302734
aa(lp6
S'timestamp'
p7
aF2.0750131607055664
aatp8
Rp9
.ccollections
OrderedDict
p0
((lp1
(lp2
S'state'
p3
aI400
aa(lp4
S'distance'
p5
aF367.89449310302734
aa(lp6
S'timestamp'
p7
aF2.095561981201172
aatp8
Rp9
.ccollections
OrderedDict
p0
((lp1
(lp2
S'state'
p3
aI400
aa(lp4
S'distance'
p5
aF367.89449310302734
aa(lp6
S'timestamp'
p7
aF2.0957820415496826
aatp8
Rp9
.ccollections
OrderedDict
p0
((lp1
(lp2
S'state'
p3
aI400
aa(lp4
S'distance'
p5
aF367.89449310302734
aa(lp6
S'timestamp'
p7
aF2.0967161655426025
aatp8
Rp9
.ccollections
OrderedDict
p0
((lp1
(lp2
S'state'
p3
aI400
aa(lp4
S'distance'
p5
aF367.89449310302734
aa(lp6
S'timestamp'
p7
aF2.098266124725342
aatp8
Rp9
.ccollections
OrderedDict
p0
((lp1
(lp2
S'state'
p3
aI400
aa(lp4
S'distance'
p5
aF367.89449310302734
aa(lp6
S'timestamp'
p7
aF2.104297161102295
aatp8
Rp9
.ccollections
OrderedDict
p0
((lp1
(lp2
S'state'
p3
aI400
aa(lp4
S'distance'
p5
aF367.89449310302734
aa(lp6
S'timestamp'
p7
aF2.104992151260376
aatp8
Rp9
.ccollections
OrderedDict
p0
((lp1
(lp2
S'state'
p3
aI400
aa(lp4
S'distance'
p5
aF367.89449310302734
aa(lp6
S'timestamp'
p7
aF2.114320993423462
aatp8
Rp9
.ccollections
OrderedDict
p0
((lp1
(lp2
S'state'
p3
aI400
aa(lp4
S'distance'
p5
aF367.89449310302734
aa(lp6
S'timestamp'
p7
aF2.114420175552368
aatp8
Rp9
.ccollections
OrderedDict
p0
((lp1
(lp2
S'state'
p3
aI400
aa(lp4
S'distance'
p5
aF367.89449310302734
aa(lp6
S'timestamp'
p7
aF2.1244070529937744
aatp8
Rp9
.ccollections
OrderedDict
p0
((lp1
(lp2
S'state'
p3
aI400
aa(lp4
S'distance'
p5
aF367.89449310302734
aa(lp6
S'timestamp'
p7
aF2.124544143676758
aatp8
Rp9
.ccollections
OrderedDict
p0
((lp1
(lp2
S'state'
p3
aI400
aa(lp4
S'distance'
p5
aF367.89449310302734
aa(lp6
S'timestamp'
p7
aF2.1342060565948486
aatp8
Rp9
.ccollections
OrderedDict
p0
((lp1
(lp2
S'state'
p3
aI400
aa(lp4
S'distance'
p5
aF367.89449310302734
aa(lp6
S'timestamp'
p7
aF2.1343090534210205
aatp8
Rp9
.ccollections
OrderedDict
p0
((lp1
(lp2
S'state'
p3
aI400
aa(lp4
S'distance'
p5
aF367.89449310302734
aa(lp6
S'timestamp'
p7
aF2.1450371742248535
aatp8
Rp9
.ccollections
OrderedDict
p0
((lp1
(lp2
S'state'
p3
aI400
aa(lp4
S'distance'
p5
aF367.89449310302734
aa(lp6
S'timestamp'
p7
aF2.1451570987701416
aatp8
Rp9
.ccollections
OrderedDict
p0
((lp1
(lp2
S'state'
p3
aI400
aa(lp4
S'distance'
p5
aF367.89449310302734
aa(lp6
S'timestamp'
p7
aF2.154365062713623
aatp8
Rp9
.ccollections
OrderedDict
p0
((lp1
(lp2
S'state'
p3
aI400
aa(lp4
S'distance'
p5
aF367.89449310302734
aa(lp6
S'timestamp'
p7
aF2.154499053955078
aatp8
Rp9
.ccollections
OrderedDict
p0
((lp1
(lp2
S'state'
p3
aI400
aa(lp4
S'distance'
p5
aF367.89449310302734
aa(lp6
S'timestamp'
p7
aF2.16464900970459
aatp8
Rp9
.ccollections
OrderedDict
p0
((lp1
(lp2
S'state'
p3
aI400
aa(lp4
S'distance'
p5
aF367.89449310302734
aa(lp6
S'timestamp'
p7
aF2.164736032485962
aatp8
Rp9
.ccollections
OrderedDict
p0
((lp1
(lp2
S'state'
p3
aI400
aa(lp4
S'distance'
p5
aF367.89449310302734
aa(lp6
S'timestamp'
p7
aF2.1737852096557617
aatp8
Rp9
.ccollections
OrderedDict
p0
((lp1
(lp2
S'state'
p3
aI400
aa(lp4
S'distance'
p5
aF367.89449310302734
aa(lp6
S'timestamp'
p7
aF2.1745190620422363
aatp8
Rp9
.ccollections
OrderedDict
p0
((lp1
(lp2
S'state'
p3
aI400
aa(lp4
S'distance'
p5
aF367.89449310302734
aa(lp6
S'timestamp'
p7
aF2.1842610836029053
aatp8
Rp9
.ccollections
OrderedDict
p0
((lp1
(lp2
S'state'
p3
aI400
aa(lp4
S'distance'
p5
aF367.89449310302734
aa(lp6
S'timestamp'
p7
aF2.1849911212921143
aatp8
Rp9
.ccollections
OrderedDict
p0
((lp1
(lp2
S'state'
p3
aI400
aa(lp4
S'distance'
p5
aF367.89449310302734
aa(lp6
S'timestamp'
p7
aF2.194949150085449
aatp8
Rp9
.ccollections
OrderedDict
p0
((lp1
(lp2
S'state'
p3
aI400
aa(lp4
S'distance'
p5
aF367.89449310302734
aa(lp6
S'timestamp'
p7
aF2.195028066635132
aatp8
Rp9
.ccollections
OrderedDict
p0
((lp1
(lp2
S'state'
p3
aI400
aa(lp4
S'distance'
p5
aF367.89449310302734
aa(lp6
S'timestamp'
p7
aF2.203914165496826
aatp8
Rp9
.ccollections
OrderedDict
p0
((lp1
(lp2
S'state'
p3
aI400
aa(lp4
S'distance'
p5
aF367.89449310302734
aa(lp6
S'timestamp'
p7
aF2.204149007797241
aatp8
Rp9
.ccollections
OrderedDict
p0
((lp1
(lp2
S'state'
p3
aI400
aa(lp4
S'distance'
p5
aF367.89449310302734
aa(lp6
S'timestamp'
p7
aF2.21478009223938
aatp8
Rp9
.ccollections
OrderedDict
p0
((lp1
(lp2
S'state'
p3
aI400
aa(lp4
S'distance'
p5
aF367.89449310302734
aa(lp6
S'timestamp'
p7
aF2.215212106704712
aatp8
Rp9
.ccollections
OrderedDict
p0
((lp1
(lp2
S'state'
p3
aI400
aa(lp4
S'distance'
p5
aF367.89449310302734
aa(lp6
S'timestamp'
p7
aF2.2237629890441895
aatp8
Rp9
.ccollections
OrderedDict
p0
((lp1
(lp2
S'state'
p3
aI400
aa(lp4
S'distance'
p5
aF367.89449310302734
aa(lp6
S'timestamp'
p7
aF2.2244842052459717
aatp8
Rp9
.ccollections
OrderedDict
p0
((lp1
(lp2
S'state'
p3
aI400
aa(lp4
S'distance'
p5
aF367.89449310302734
aa(lp6
S'timestamp'
p7
aF2.2336912155151367
aatp8
Rp9
.ccollections
OrderedDict
p0
((lp1
(lp2
S'state'
p3
aI400
aa(lp4
S'distance'
p5
aF367.89449310302734
aa(lp6
S'timestamp'
p7
aF2.2346110343933105
aatp8
Rp9
.ccollections
OrderedDict
p0
((lp1
(lp2
S'state'
p3
aI400
aa(lp4
S'distance'
p5
aF367.89449310302734
aa(lp6
S'timestamp'
p7
aF2.2441461086273193
aatp8
Rp9
.ccollections
OrderedDict
p0
((lp1
(lp2
S'state'
p3
aI400
aa(lp4
S'distance'
p5
aF367.89449310302734
aa(lp6
S'timestamp'
p7
aF2.244286060333252
aatp8
Rp9
.ccollections
OrderedDict
p0
((lp1
(lp2
S'state'
p3
aI400
aa(lp4
S'distance'
p5
aF367.89449310302734
aa(lp6
S'timestamp'
p7
aF2.2539451122283936
aatp8
Rp9
.ccollections
OrderedDict
p0
((lp1
(lp2
S'state'
p3
aI400
aa(lp4
S'distance'
p5
aF367.89449310302734
aa(lp6
S'timestamp'
p7
aF2.254505157470703
aatp8
Rp9
.ccollections
OrderedDict
p0
((lp1
(lp2
S'state'
p3
aI400
aa(lp4
S'distance'
p5
aF367.89449310302734
aa(lp6
S'timestamp'
p7
aF2.264517068862915
aatp8
Rp9
.ccollections
OrderedDict
p0
((lp1
(lp2
S'state'
p3
aI400
aa(lp4
S'distance'
p5
aF367.89449310302734
aa(lp6
S'timestamp'
p7
aF2.264686107635498
aatp8
Rp9
.ccollections
OrderedDict
p0
((lp1
(lp2
S'state'
p3
aI400
aa(lp4
S'distance'
p5
aF367.89449310302734
aa(lp6
S'timestamp'
p7
aF2.2739081382751465
aatp8
Rp9
.ccollections
OrderedDict
p0
((lp1
(lp2
S'state'
p3
aI400
aa(lp4
S'distance'
p5
aF367.89449310302734
aa(lp6
S'timestamp'
p7
aF2.2744669914245605
aatp8
Rp9
.ccollections
OrderedDict
p0
((lp1
(lp2
S'state'
p3
aI400
aa(lp4
S'distance'
p5
aF367.89449310302734
aa(lp6
S'timestamp'
p7
aF2.2844061851501465
aatp8
Rp9
.ccollections
OrderedDict
p0
((lp1
(lp2
S'state'
p3
aI400
aa(lp4
S'distance'
p5
aF367.89449310302734
aa(lp6
S'timestamp'
p7
aF2.2856080532073975
aatp8
Rp9
.ccollections
OrderedDict
p0
((lp1
(lp2
S'state'
p3
aI400
aa(lp4
S'distance'
p5
aF367.89449310302734
aa(lp6
S'timestamp'
p7
aF2.2938830852508545
aatp8
Rp9
.ccollections
OrderedDict
p0
((lp1
(lp2
S'state'
p3
aI400
aa(lp4
S'distance'
p5
aF367.89449310302734
aa(lp6
S'timestamp'
p7
aF2.295034170150757
aatp8
Rp9
.ccollections
OrderedDict
p0
((lp1
(lp2
S'state'
p3
aI400
aa(lp4
S'distance'
p5
aF367.89449310302734
aa(lp6
S'timestamp'
p7
aF2.3038971424102783
aatp8
Rp9
.ccollections
OrderedDict
p0
((lp1
(lp2
S'state'
p3
aI400
aa(lp4
S'distance'
p5
aF367.89449310302734
aa(lp6
S'timestamp'
p7
aF2.305572032928467
aatp8
Rp9
.ccollections
OrderedDict
p0
((lp1
(lp2
S'state'
p3
aI400
aa(lp4
S'distance'
p5
aF367.89449310302734
aa(lp6
S'timestamp'
p7
aF2.313800096511841
aatp8
Rp9
.ccollections
OrderedDict
p0
((lp1
(lp2
S'state'
p3
aI400
aa(lp4
S'distance'
p5
aF367.89449310302734
aa(lp6
S'timestamp'
p7
aF2.314279079437256
aatp8
Rp9
.ccollections
OrderedDict
p0
((lp1
(lp2
S'state'
p3
aI400
aa(lp4
S'distance'
p5
aF367.89449310302734
aa(lp6
S'timestamp'
p7
aF2.3237240314483643
aatp8
Rp9
.ccollections
OrderedDict
p0
((lp1
(lp2
S'state'
p3
aI400
aa(lp4
S'distance'
p5
aF367.89449310302734
aa(lp6
S'timestamp'
p7
aF2.324907064437866
aatp8
Rp9
.ccollections
OrderedDict
p0
((lp1
(lp2
S'state'
p3
aI400
aa(lp4
S'distance'
p5
aF367.89449310302734
aa(lp6
S'timestamp'
p7
aF2.3341541290283203
aatp8
Rp9
.ccollections
OrderedDict
p0
((lp1
(lp2
S'state'
p3
aI400
aa(lp4
S'distance'
p5
aF367.89449310302734
aa(lp6
S'timestamp'
p7
aF2.3343091011047363
aatp8
Rp9
.ccollections
OrderedDict
p0
((lp1
(lp2
S'state'
p3
aI400
aa(lp4
S'distance'
p5
aF367.89449310302734
aa(lp6
S'timestamp'
p7
aF2.343609094619751
aatp8
Rp9
.ccollections
OrderedDict
p0
((lp1
(lp2
S'state'
p3
aI400
aa(lp4
S'distance'
p5
aF367.89449310302734
aa(lp6
S'timestamp'
p7
aF2.3445000648498535
aatp8
Rp9
.ccollections
OrderedDict
p0
((lp1
(lp2
S'state'
p3
aI400
aa(lp4
S'distance'
p5
aF367.89449310302734
aa(lp6
S'timestamp'
p7
aF2.3650941848754883
aatp8
Rp9
.ccollections
OrderedDict
p0
((lp1
(lp2
S'state'
p3
aI400
aa(lp4
S'distance'
p5
aF367.89449310302734
aa(lp6
S'timestamp'
p7
aF2.3658080101013184
aatp8
Rp9
.ccollections
OrderedDict
p0
((lp1
(lp2
S'state'
p3
aI400
aa(lp4
S'distance'
p5
aF367.89449310302734
aa(lp6
S'timestamp'
p7
aF2.365922212600708
aatp8
Rp9
.ccollections
OrderedDict
p0
((lp1
(lp2
S'state'
p3
aI400
aa(lp4
S'distance'
p5
aF367.89449310302734
aa(lp6
S'timestamp'
p7
aF2.366028070449829
aatp8
Rp9
.ccollections
OrderedDict
p0
((lp1
(lp2
S'state'
p3
aI400
aa(lp4
S'distance'
p5
aF367.89449310302734
aa(lp6
S'timestamp'
p7
aF2.373840093612671
aatp8
Rp9
.ccollections
OrderedDict
p0
((lp1
(lp2
S'state'
p3
aI400
aa(lp4
S'distance'
p5
aF367.89449310302734
aa(lp6
S'timestamp'
p7
aF2.3743650913238525
aatp8
Rp9
.ccollections
OrderedDict
p0
((lp1
(lp2
S'state'
p3
aI400
aa(lp4
S'distance'
p5
aF367.89449310302734
aa(lp6
S'timestamp'
p7
aF2.383751153945923
aatp8
Rp9
.ccollections
OrderedDict
p0
((lp1
(lp2
S'state'
p3
aI400
aa(lp4
S'distance'
p5
aF367.89449310302734
aa(lp6
S'timestamp'
p7
aF2.384413003921509
aatp8
Rp9
.ccollections
OrderedDict
p0
((lp1
(lp2
S'state'
p3
aI400
aa(lp4
S'distance'
p5
aF367.89449310302734
aa(lp6
S'timestamp'
p7
aF2.3936991691589355
aatp8
Rp9
.ccollections
OrderedDict
p0
((lp1
(lp2
S'state'
p3
aI400
aa(lp4
S'distance'
p5
aF367.89449310302734
aa(lp6
S'timestamp'
p7
aF2.3945071697235107
aatp8
Rp9
.ccollections
OrderedDict
p0
((lp1
(lp2
S'state'
p3
aI400
aa(lp4
S'distance'
p5
aF367.89449310302734
aa(lp6
S'timestamp'
p7
aF2.423866033554077
aatp8
Rp9
.ccollections
OrderedDict
p0
((lp1
(lp2
S'state'
p3
aI400
aa(lp4
S'distance'
p5
aF367.89449310302734
aa(lp6
S'timestamp'
p7
aF2.424391984939575
aatp8
Rp9
.ccollections
OrderedDict
p0
((lp1
(lp2
S'state'
p3
aI400
aa(lp4
S'distance'
p5
aF367.89449310302734
aa(lp6
S'timestamp'
p7
aF2.426068067550659
aatp8
Rp9
.ccollections
OrderedDict
p0
((lp1
(lp2
S'state'
p3
aI400
aa(lp4
S'distance'
p5
aF367.89449310302734
aa(lp6
S'timestamp'
p7
aF2.427000045776367
aatp8
Rp9
.ccollections
OrderedDict
p0
((lp1
(lp2
S'state'
p3
aI400
aa(lp4
S'distance'
p5
aF367.89449310302734
aa(lp6
S'timestamp'
p7
aF2.433746099472046
aatp8
Rp9
.ccollections
OrderedDict
p0
((lp1
(lp2
S'state'
p3
aI400
aa(lp4
S'distance'
p5
aF367.89449310302734
aa(lp6
S'timestamp'
p7
aF2.4342520236968994
aatp8
Rp9
.ccollections
OrderedDict
p0
((lp1
(lp2
S'state'
p3
aI400
aa(lp4
S'distance'
p5
aF367.89449310302734
aa(lp6
S'timestamp'
p7
aF2.4346539974212646
aatp8
Rp9
.ccollections
OrderedDict
p0
((lp1
(lp2
S'state'
p3
aI400
aa(lp4
S'distance'
p5
aF367.89449310302734
aa(lp6
S'timestamp'
p7
aF2.4350101947784424
aatp8
Rp9
.ccollections
OrderedDict
p0
((lp1
(lp2
S'state'
p3
aI0
aa(lp4
S'distance'
p5
aF367.89449310302734
aa(lp6
S'timestamp'
p7
aF2.4446771144866943
aatp8
Rp9
.ccollections
OrderedDict
p0
((lp1
(lp2
S'state'
p3
aI0
aa(lp4
S'distance'
p5
aF264.8061828613281
aa(lp6
S'timestamp'
p7
aF3.0681049823760986
aatp8
Rp9
.ccollections
OrderedDict
p0
((lp1
(lp2
S'state'
p3
aI0
aa(lp4
S'distance'
p5
aF264.8061828613281
aa(lp6
S'timestamp'
p7
aF3.0707080364227295
aatp8
Rp9
.ccollections
OrderedDict
p0
((lp1
(lp2
S'state'
p3
aI0
aa(lp4
S'distance'
p5
aF264.8061828613281
aa(lp6
S'timestamp'
p7
aF3.071359157562256
aatp8
Rp9
.ccollections
OrderedDict
p0
((lp1
(lp2
S'state'
p3
aI0
aa(lp4
S'distance'
p5
aF264.8061828613281
aa(lp6
S'timestamp'
p7
aF3.071531057357788
aatp8
Rp9
.ccollections
OrderedDict
p0
((lp1
(lp2
S'state'
p3
aI0
aa(lp4
S'distance'
p5
aF264.8061828613281
aa(lp6
S'timestamp'
p7
aF3.0718882083892822
aatp8
Rp9
.ccollections
OrderedDict
p0
((lp1
(lp2
S'state'
p3
aI0
aa(lp4
S'distance'
p5
aF264.8061828613281
aa(lp6
S'timestamp'
p7
aF3.0719990730285645
aatp8
Rp9
.ccollections
OrderedDict
p0
((lp1
(lp2
S'state'
p3
aI0
aa(lp4
S'distance'
p5
aF264.8061828613281
aa(lp6
S'timestamp'
p7
aF3.0720951557159424
aatp8
Rp9
.ccollections
OrderedDict
p0
((lp1
(lp2
S'state'
p3
aI0
aa(lp4
S'distance'
p5
aF264.8061828613281
aa(lp6
S'timestamp'
p7
aF3.072165012359619
aatp8
Rp9
.ccollections
OrderedDict
p0
((lp1
(lp2
S'state'
p3
aI0
aa(lp4
S'distance'
p5
aF264.8061828613281
aa(lp6
S'timestamp'
p7
aF3.0722479820251465
aatp8
Rp9
.ccollections
OrderedDict
p0
((lp1
(lp2
S'state'
p3
aI0
aa(lp4
S'distance'
p5
aF264.8061828613281
aa(lp6
S'timestamp'
p7
aF3.0750210285186768
aatp8
Rp9
.ccollections
OrderedDict
p0
((lp1
(lp2
S'state'
p3
aI0
aa(lp4
S'distance'
p5
aF264.8061828613281
aa(lp6
S'timestamp'
p7
aF3.0751750469207764
aatp8
Rp9
.ccollections
OrderedDict
p0
((lp1
(lp2
S'state'
p3
aI0
aa(lp4
S'distance'
p5
aF264.8061828613281
aa(lp6
S'timestamp'
p7
aF3.0938069820404053
aatp8
Rp9
.ccollections
OrderedDict
p0
((lp1
(lp2
S'state'
p3
aI0
aa(lp4
S'distance'
p5
aF264.8061828613281
aa(lp6
S'timestamp'
p7
aF3.1037650108337402
aatp8
Rp9
.ccollections
OrderedDict
p0
((lp1
(lp2
S'state'
p3
aI0
aa(lp4
S'distance'
p5
aF264.8061828613281
aa(lp6
S'timestamp'
p7
aF3.1047801971435547
aatp8
Rp9
.ccollections
OrderedDict
p0
((lp1
(lp2
S'state'
p3
aI0
aa(lp4
S'distance'
p5
aF264.8061828613281
aa(lp6
S'timestamp'
p7
aF3.105579137802124
aatp8
Rp9
.ccollections
OrderedDict
p0
((lp1
(lp2
S'state'
p3
aI0
aa(lp4
S'distance'
p5
aF264.8061828613281
aa(lp6
S'timestamp'
p7
aF3.106966018676758
aatp8
Rp9
.ccollections
OrderedDict
p0
((lp1
(lp2
S'state'
p3
aI0
aa(lp4
S'distance'
p5
aF264.8061828613281
aa(lp6
S'timestamp'
p7
aF3.1147351264953613
aatp8
Rp9
.ccollections
OrderedDict
p0
((lp1
(lp2
S'state'
p3
aI0
aa(lp4
S'distance'
p5
aF264.8061828613281
aa(lp6
S'timestamp'
p7
aF3.1148931980133057
aatp8
Rp9
.ccollections
OrderedDict
p0
((lp1
(lp2
S'state'
p3
aI0
aa(lp4
S'distance'
p5
aF264.8061828613281
aa(lp6
S'timestamp'
p7
aF3.115741014480591
aatp8
Rp9
.ccollections
OrderedDict
p0
((lp1
(lp2
S'state'
p3
aI0
aa(lp4
S'distance'
p5
aF264.8061828613281
aa(lp6
S'timestamp'
p7
aF3.124514102935791
aatp8
Rp9
.ccollections
OrderedDict
p0
((lp1
(lp2
S'state'
p3
aI0
aa(lp4
S'distance'
p5
aF264.8061828613281
aa(lp6
S'timestamp'
p7
aF3.1246020793914795
aatp8
Rp9
.ccollections
OrderedDict
p0
((lp1
(lp2
S'state'
p3
aI0
aa(lp4
S'distance'
p5
aF264.8061828613281
aa(lp6
S'timestamp'
p7
aF3.1338891983032227
aatp8
Rp9
.ccollections
OrderedDict
p0
((lp1
(lp2
S'state'
p3
aI0
aa(lp4
S'distance'
p5
aF264.8061828613281
aa(lp6
S'timestamp'
p7
aF3.1344170570373535
aatp8
Rp9
.ccollections
OrderedDict
p0
((lp1
(lp2
S'state'
p3
aI0
aa(lp4
S'distance'
p5
aF264.8061828613281
aa(lp6
S'timestamp'
p7
aF3.143662214279175
aatp8
Rp9
.ccollections
OrderedDict
p0
((lp1
(lp2
S'state'
p3
aI0
aa(lp4
S'distance'
p5
aF264.8061828613281
aa(lp6
S'timestamp'
p7
aF3.144566059112549
aatp8
Rp9
.ccollections
OrderedDict
p0
((lp1
(lp2
S'state'
p3
aI0
aa(lp4
S'distance'
p5
aF264.8061828613281
aa(lp6
S'timestamp'
p7
aF3.154163122177124
aatp8
Rp9
.ccollections
OrderedDict
p0
((lp1
(lp2
S'state'
p3
aI0
aa(lp4
S'distance'
p5
aF264.8061828613281
aa(lp6
S'timestamp'
p7
aF3.1638569831848145
aatp8
Rp9
.ccollections
OrderedDict
p0
((lp1
(lp2
S'state'
p3
aI0
aa(lp4
S'distance'
p5
aF264.8061828613281
aa(lp6
S'timestamp'
p7
aF3.1646862030029297
aatp8
Rp9
.ccollections
OrderedDict
p0
((lp1
(lp2
S'state'
p3
aI0
aa(lp4
S'distance'
p5
aF264.8061828613281
aa(lp6
S'timestamp'
p7
aF3.1650640964508057
aatp8
Rp9
.ccollections
OrderedDict
p0
((lp1
(lp2
S'state'
p3
aI0
aa(lp4
S'distance'
p5
aF264.8061828613281
aa(lp6
S'timestamp'
p7
aF3.174283981323242
aatp8
Rp9
.ccollections
OrderedDict
p0
((lp1
(lp2
S'state'
p3
aI0
aa(lp4
S'distance'
p5
aF264.8061828613281
aa(lp6
S'timestamp'
p7
aF3.1750731468200684
aatp8
Rp9
.ccollections
OrderedDict
p0
((lp1
(lp2
S'state'
p3
aI0
aa(lp4
S'distance'
p5
aF264.8061828613281
aa(lp6
S'timestamp'
p7
aF3.183817148208618
aatp8
Rp9
.ccollections
OrderedDict
p0
((lp1
(lp2
S'state'
p3
aI0
aa(lp4
S'distance'
p5
aF264.8061828613281
aa(lp6
S'timestamp'
p7
aF3.1848080158233643
aatp8
Rp9
.ccollections
OrderedDict
p0
((lp1
(lp2
S'state'
p3
aI0
aa(lp4
S'distance'
p5
aF264.8061828613281
aa(lp6
S'timestamp'
p7
aF3.194162130355835
aatp8
Rp9
.ccollections
OrderedDict
p0
((lp1
(lp2
S'state'
p3
aI0
aa(lp4
S'distance'
p5
aF264.8061828613281
aa(lp6
S'timestamp'
p7
aF3.194493055343628
aatp8
Rp9
.ccollections
OrderedDict
p0
((lp1
(lp2
S'state'
p3
aI0
aa(lp4
S'distance'
p5
aF264.8061828613281
aa(lp6
S'timestamp'
p7
aF3.2043402194976807
aatp8
Rp9
.ccollections
OrderedDict
p0
((lp1
(lp2
S'state'
p3
aI0
aa(lp4
S'distance'
p5
aF264.8061828613281
aa(lp6
S'timestamp'
p7
aF3.204456090927124
aatp8
Rp9
.ccollections
OrderedDict
p0
((lp1
(lp2
S'state'
p3
aI0
aa(lp4
S'distance'
p5
aF264.8061828613281
aa(lp6
S'timestamp'
p7
aF3.2238471508026123
aatp8
Rp9
.ccollections
OrderedDict
p0
((lp1
(lp2
S'state'
p3
aI0
aa(lp4
S'distance'
p5
aF264.8061828613281
aa(lp6
S'timestamp'
p7
aF3.22481107711792
aatp8
Rp9
.ccollections
OrderedDict
p0
((lp1
(lp2
S'state'
p3
aI0
aa(lp4
S'distance'
p5
aF264.8061828613281
aa(lp6
S'timestamp'
p7
aF3.225804090499878
aatp8
Rp9
.ccollections
OrderedDict
p0
((lp1
(lp2
S'state'
p3
aI0
aa(lp4
S'distance'
p5
aF264.8061828613281
aa(lp6
S'timestamp'
p7
aF3.2267701625823975
aatp8
Rp9
.ccollections
OrderedDict
p0
((lp1
(lp2
S'state'
p3
aI0
aa(lp4
S'distance'
p5
aF264.8061828613281
aa(lp6
S'timestamp'
p7
aF3.233964204788208
aatp8
Rp9
.ccollections
OrderedDict
p0
((lp1
(lp2
S'state'
p3
aI0
aa(lp4
S'distance'
p5
aF264.8061828613281
aa(lp6
S'timestamp'
p7
aF3.2343862056732178
aatp8
Rp9
.ccollections
OrderedDict
p0
((lp1
(lp2
S'state'
p3
aI0
aa(lp4
S'distance'
p5
aF264.8061828613281
aa(lp6
S'timestamp'
p7
aF3.244265079498291
aatp8
Rp9
.ccollections
OrderedDict
p0
((lp1
(lp2
S'state'
p3
aI0
aa(lp4
S'distance'
p5
aF264.8061828613281
aa(lp6
S'timestamp'
p7
aF3.24442720413208
aatp8
Rp9
.ccollections
OrderedDict
p0
((lp1
(lp2
S'state'
p3
aI0
aa(lp4
S'distance'
p5
aF264.8061828613281
aa(lp6
S'timestamp'
p7
aF3.2642641067504883
aatp8
Rp9
.ccollections
OrderedDict
p0
((lp1
(lp2
S'state'
p3
aI0
aa(lp4
S'distance'
p5
aF264.8061828613281
aa(lp6
S'timestamp'
p7
aF3.2647931575775146
aatp8
Rp9
.ccollections
OrderedDict
p0
((lp1
(lp2
S'state'
p3
aI0
aa(lp4
S'distance'
p5
aF264.8061828613281
aa(lp6
S'timestamp'
p7
aF3.2649030685424805
aatp8
Rp9
.ccollections
OrderedDict
p0
((lp1
(lp2
S'state'
p3
aI0
aa(lp4
S'distance'
p5
aF264.8061828613281
aa(lp6
S'timestamp'
p7
aF3.2655820846557617
aatp8
Rp9
.ccollections
OrderedDict
p0
((lp1
(lp2
S'state'
p3
aI0
aa(lp4
S'distance'
p5
aF264.8061828613281
aa(lp6
S'timestamp'
p7
aF3.2739641666412354
aatp8
Rp9
.ccollections
OrderedDict
p0
((lp1
(lp2
S'state'
p3
aI0
aa(lp4
S'distance'
p5
aF264.8061828613281
aa(lp6
S'timestamp'
p7
aF3.2744791507720947
aatp8
Rp9
.ccollections
OrderedDict
p0
((lp1
(lp2
S'state'
p3
aI0
aa(lp4
S'distance'
p5
aF264.8061828613281
aa(lp6
S'timestamp'
p7
aF3.2944300174713135
aatp8
Rp9
.ccollections
OrderedDict
p0
((lp1
(lp2
S'state'
p3
aI0
aa(lp4
S'distance'
p5
aF264.8061828613281
aa(lp6
S'timestamp'
p7
aF3.2946231365203857
aatp8
Rp9
.ccollections
OrderedDict
p0
((lp1
(lp2
S'state'
p3
aI0
aa(lp4
S'distance'
p5
aF264.8061828613281
aa(lp6
S'timestamp'
p7
aF3.2952260971069336
aatp8
Rp9
.ccollections
OrderedDict
p0
((lp1
(lp2
S'state'
p3
aI0
aa(lp4
S'distance'
p5
aF264.8061828613281
aa(lp6
S'timestamp'
p7
aF3.295999050140381
aatp8
Rp9
.ccollections
OrderedDict
p0
((lp1
(lp2
S'state'
p3
aI0
aa(lp4
S'distance'
p5
aF264.8061828613281
aa(lp6
S'timestamp'
p7
aF3.303915023803711
aatp8
Rp9
.ccollections
OrderedDict
p0
((lp1
(lp2
S'state'
p3
aI0
aa(lp4
S'distance'
p5
aF264.8061828613281
aa(lp6
S'timestamp'
p7
aF3.304417133331299
aatp8
Rp9
.ccollections
OrderedDict
p0
((lp1
(lp2
S'state'
p3
aI0
aa(lp4
S'distance'
p5
aF264.8061828613281
aa(lp6
S'timestamp'
p7
aF3.3148632049560547
aatp8
Rp9
.ccollections
OrderedDict
p0
((lp1
(lp2
S'state'
p3
aI0
aa(lp4
S'distance'
p5
aF264.8061828613281
aa(lp6
S'timestamp'
p7
aF3.314998149871826
aatp8
Rp9
.ccollections
OrderedDict
p0
((lp1
(lp2
S'state'
p3
aI0
aa(lp4
S'distance'
p5
aF264.8061828613281
aa(lp6
S'timestamp'
p7
aF3.3340470790863037
aatp8
Rp9
.ccollections
OrderedDict
p0
((lp1
(lp2
S'state'
p3
aI0
aa(lp4
S'distance'
p5
aF264.8061828613281
aa(lp6
S'timestamp'
p7
aF3.3346660137176514
aatp8
Rp9
.ccollections
OrderedDict
p0
((lp1
(lp2
S'state'
p3
aI0
aa(lp4
S'distance'
p5
aF264.8061828613281
aa(lp6
S'timestamp'
p7
aF3.3353431224823
aatp8
Rp9
.ccollections
OrderedDict
p0
((lp1
(lp2
S'state'
p3
aI0
aa(lp4
S'distance'
p5
aF264.8061828613281
aa(lp6
S'timestamp'
p7
aF3.335530996322632
aatp8
Rp9
.ccollections
OrderedDict
p0
((lp1
(lp2
S'state'
p3
aI400
aa(lp4
S'distance'
p5
aF264.8061828613281
aa(lp6
S'timestamp'
p7
aF3.344283103942871
aatp8
Rp9
.ccollections
OrderedDict
p0
((lp1
(lp2
S'state'
p3
aI400
aa(lp4
S'distance'
p5
aF264.8061828613281
aa(lp6
S'timestamp'
p7
aF3.3444111347198486
aatp8
Rp9
.ccollections
OrderedDict
p0
((lp1
(lp2
S'state'
p3
aI400
aa(lp4
S'distance'
p5
aF264.8061828613281
aa(lp6
S'timestamp'
p7
aF3.3538780212402344
aatp8
Rp9
.ccollections
OrderedDict
p0
((lp1
(lp2
S'state'
p3
aI400
aa(lp4
S'distance'
p5
aF264.8061828613281
aa(lp6
S'timestamp'
p7
aF3.370065212249756
aatp8
Rp9
.ccollections
OrderedDict
p0
((lp1
(lp2
S'state'
p3
aI400
aa(lp4
S'distance'
p5
aF264.8061828613281
aa(lp6
S'timestamp'
p7
aF3.3769450187683105
aatp8
Rp9
.ccollections
OrderedDict
p0
((lp1
(lp2
S'state'
p3
aI400
aa(lp4
S'distance'
p5
aF264.8061828613281
aa(lp6
S'timestamp'
p7
aF3.377164125442505
aatp8
Rp9
.ccollections
OrderedDict
p0
((lp1
(lp2
S'state'
p3
aI400
aa(lp4
S'distance'
p5
aF264.8061828613281
aa(lp6
S'timestamp'
p7
aF3.377465009689331
aatp8
Rp9
.ccollections
OrderedDict
p0
((lp1
(lp2
S'state'
p3
aI400
aa(lp4
S'distance'
p5
aF264.8061828613281
aa(lp6
S'timestamp'
p7
aF3.3780171871185303
aatp8
Rp9
.ccollections
OrderedDict
p0
((lp1
(lp2
S'state'
p3
aI400
aa(lp4
S'distance'
p5
aF264.8061828613281
aa(lp6
S'timestamp'
p7
aF3.3862850666046143
aatp8
Rp9
.ccollections
OrderedDict
p0
((lp1
(lp2
S'state'
p3
aI400
aa(lp4
S'distance'
p5
aF264.8061828613281
aa(lp6
S'timestamp'
p7
aF3.3884570598602295
aatp8
Rp9
.ccollections
OrderedDict
p0
((lp1
(lp2
S'state'
p3
aI400
aa(lp4
S'distance'
p5
aF264.8061828613281
aa(lp6
S'timestamp'
p7
aF3.3964271545410156
aatp8
Rp9
.ccollections
OrderedDict
p0
((lp1
(lp2
S'state'
p3
aI400
aa(lp4
S'distance'
p5
aF264.8061828613281
aa(lp6
S'timestamp'
p7
aF3.3974080085754395
aatp8
Rp9
.ccollections
OrderedDict
p0
((lp1
(lp2
S'state'
p3
aI400
aa(lp4
S'distance'
p5
aF264.8061828613281
aa(lp6
S'timestamp'
p7
aF3.408658981323242
aatp8
Rp9
.ccollections
OrderedDict
p0
((lp1
(lp2
S'state'
p3
aI400
aa(lp4
S'distance'
p5
aF264.8061828613281
aa(lp6
S'timestamp'
p7
aF3.4090402126312256
aatp8
Rp9
.ccollections
OrderedDict
p0
((lp1
(lp2
S'state'
p3
aI400
aa(lp4
S'distance'
p5
aF264.8061828613281
aa(lp6
S'timestamp'
p7
aF3.435353994369507
aatp8
Rp9
.ccollections
OrderedDict
p0
((lp1
(lp2
S'state'
p3
aI400
aa(lp4
S'distance'
p5
aF264.8061828613281
aa(lp6
S'timestamp'
p7
aF3.4359521865844727
aatp8
Rp9
.ccollections
OrderedDict
p0
((lp1
(lp2
S'state'
p3
aI400
aa(lp4
S'distance'
p5
aF264.8061828613281
aa(lp6
S'timestamp'
p7
aF3.4360392093658447
aatp8
Rp9
.ccollections
OrderedDict
p0
((lp1
(lp2
S'state'
p3
aI400
aa(lp4
S'distance'
p5
aF264.8061828613281
aa(lp6
S'timestamp'
p7
aF3.4373362064361572
aatp8
Rp9
.ccollections
OrderedDict
p0
((lp1
(lp2
S'state'
p3
aI400
aa(lp4
S'distance'
p5
aF264.8061828613281
aa(lp6
S'timestamp'
p7
aF3.4451980590820312
aatp8
Rp9
.ccollections
OrderedDict
p0
((lp1
(lp2
S'state'
p3
aI400
aa(lp4
S'distance'
p5
aF264.8061828613281
aa(lp6
S'timestamp'
p7
aF3.4454431533813477
aatp8
Rp9
.ccollections
OrderedDict
p0
((lp1
(lp2
S'state'
p3
aI400
aa(lp4
S'distance'
p5
aF264.8061828613281
aa(lp6
S'timestamp'
p7
aF3.44585919380188
aatp8
Rp9
.ccollections
OrderedDict
p0
((lp1
(lp2
S'state'
p3
aI400
aa(lp4
S'distance'
p5
aF264.8061828613281
aa(lp6
S'timestamp'
p7
aF3.4460630416870117
aatp8
Rp9
.ccollections
OrderedDict
p0
((lp1
(lp2
S'state'
p3
aI400
aa(lp4
S'distance'
p5
aF264.8061828613281
aa(lp6
S'timestamp'
p7
aF3.4544219970703125
aatp8
Rp9
.ccollections
OrderedDict
p0
((lp1
(lp2
S'state'
p3
aI400
aa(lp4
S'distance'
p5
aF264.8061828613281
aa(lp6
S'timestamp'
p7
aF3.4551310539245605
aatp8
Rp9
.ccollections
OrderedDict
p0
((lp1
(lp2
S'state'
p3
aI400
aa(lp4
S'distance'
p5
aF264.8061828613281
aa(lp6
S'timestamp'
p7
aF3.4639511108398438
aatp8
Rp9
.ccollections
OrderedDict
p0
((lp1
(lp2
S'state'
p3
aI400
aa(lp4
S'distance'
p5
aF264.8061828613281
aa(lp6
S'timestamp'
p7
aF3.464552164077759
aatp8
Rp9
.ccollections
OrderedDict
p0
((lp1
(lp2
S'state'
p3
aI400
aa(lp4
S'distance'
p5
aF264.8061828613281
aa(lp6
S'timestamp'
p7
aF3.4739201068878174
aatp8
Rp9
.ccollections
OrderedDict
p0
((lp1
(lp2
S'state'
p3
aI400
aa(lp4
S'distance'
p5
aF264.8061828613281
aa(lp6
S'timestamp'
p7
aF3.474776029586792
aatp8
Rp9
.ccollections
OrderedDict
p0
((lp1
(lp2
S'state'
p3
aI400
aa(lp4
S'distance'
p5
aF264.8061828613281
aa(lp6
S'timestamp'
p7
aF3.4844369888305664
aatp8
Rp9
.ccollections
OrderedDict
p0
((lp1
(lp2
S'state'
p3
aI400
aa(lp4
S'distance'
p5
aF264.8061828613281
aa(lp6
S'timestamp'
p7
aF3.4846041202545166
aatp8
Rp9
.ccollections
OrderedDict
p0
((lp1
(lp2
S'state'
p3
aI400
aa(lp4
S'distance'
p5
aF264.8061828613281
aa(lp6
S'timestamp'
p7
aF3.4943690299987793
aatp8
Rp9
.ccollections
OrderedDict
p0
((lp1
(lp2
S'state'
p3
aI400
aa(lp4
S'distance'
p5
aF264.8061828613281
aa(lp6
S'timestamp'
p7
aF3.4947991371154785
aatp8
Rp9
.ccollections
OrderedDict
p0
((lp1
(lp2
S'state'
p3
aI400
aa(lp4
S'distance'
p5
aF264.8061828613281
aa(lp6
S'timestamp'
p7
aF3.503831148147583
aatp8
Rp9
.ccollections
OrderedDict
p0
((lp1
(lp2
S'state'
p3
aI400
aa(lp4
S'distance'
p5
aF264.8061828613281
aa(lp6
S'timestamp'
p7
aF3.5046181678771973
aatp8
Rp9
.ccollections
OrderedDict
p0
((lp1
(lp2
S'state'
p3
aI400
aa(lp4
S'distance'
p5
aF264.8061828613281
aa(lp6
S'timestamp'
p7
aF3.5147571563720703
aatp8
Rp9
.ccollections
OrderedDict
p0
((lp1
(lp2
S'state'
p3
aI400
aa(lp4
S'distance'
p5
aF264.8061828613281
aa(lp6
S'timestamp'
p7
aF3.51485013961792
aatp8
Rp9
.ccollections
OrderedDict
p0
((lp1
(lp2
S'state'
p3
aI400
aa(lp4
S'distance'
p5
aF264.8061828613281
aa(lp6
S'timestamp'
p7
aF3.5245091915130615
aatp8
Rp9
.ccollections
OrderedDict
p0
((lp1
(lp2
S'state'
p3
aI400
aa(lp4
S'distance'
p5
aF264.8061828613281
aa(lp6
S'timestamp'
p7
aF3.524614095687866
aatp8
Rp9
.ccollections
OrderedDict
p0
((lp1
(lp2
S'state'
p3
aI400
aa(lp4
S'distance'
p5
aF264.8061828613281
aa(lp6
S'timestamp'
p7
aF3.534269094467163
aatp8
Rp9
.ccollections
OrderedDict
p0
((lp1
(lp2
S'state'
p3
aI400
aa(lp4
S'distance'
p5
aF264.8061828613281
aa(lp6
S'timestamp'
p7
aF3.534852981567383
aatp8
Rp9
.ccollections
OrderedDict
p0
((lp1
(lp2
S'state'
p3
aI400
aa(lp4
S'distance'
p5
aF264.8061828613281
aa(lp6
S'timestamp'
p7
aF3.544532060623169
aatp8
Rp9
.ccollections
OrderedDict
p0
((lp1
(lp2
S'state'
p3
aI400
aa(lp4
S'distance'
p5
aF264.8061828613281
aa(lp6
S'timestamp'
p7
aF3.5446832180023193
aatp8
Rp9
.ccollections
OrderedDict
p0
((lp1
(lp2
S'state'
p3
aI400
aa(lp4
S'distance'
p5
aF264.8061828613281
aa(lp6
S'timestamp'
p7
aF3.5557031631469727
aatp8
Rp9
.ccollections
OrderedDict
p0
((lp1
(lp2
S'state'
p3
aI400
aa(lp4
S'distance'
p5
aF264.8061828613281
aa(lp6
S'timestamp'
p7
aF3.5558321475982666
aatp8
Rp9
.ccollections
OrderedDict
p0
((lp1
(lp2
S'state'
p3
aI400
aa(lp4
S'distance'
p5
aF264.8061828613281
aa(lp6
S'timestamp'
p7
aF3.5782151222229004
aatp8
Rp9
.ccollections
OrderedDict
p0
((lp1
(lp2
S'state'
p3
aI400
aa(lp4
S'distance'
p5
aF264.8061828613281
aa(lp6
S'timestamp'
p7
aF3.578433036804199
aatp8
Rp9
.ccollections
OrderedDict
p0
((lp1
(lp2
S'state'
p3
aI400
aa(lp4
S'distance'
p5
aF264.8061828613281
aa(lp6
S'timestamp'
p7
aF3.578963041305542
aatp8
Rp9
.ccollections
OrderedDict
p0
((lp1
(lp2
S'state'
p3
aI400
aa(lp4
S'distance'
p5
aF264.8061828613281
aa(lp6
S'timestamp'
p7
aF3.5899760723114014
aatp8
Rp9
.ccollections
OrderedDict
p0
((lp1
(lp2
S'state'
p3
aI400
aa(lp4
S'distance'
p5
aF264.8061828613281
aa(lp6
S'timestamp'
p7
aF3.595564126968384
aatp8
Rp9
.ccollections
OrderedDict
p0
((lp1
(lp2
S'state'
p3
aI400
aa(lp4
S'distance'
p5
aF264.8061828613281
aa(lp6
S'timestamp'
p7
aF3.6213572025299072
aatp8
Rp9
.ccollections
OrderedDict
p0
((lp1
(lp2
S'state'
p3
aI400
aa(lp4
S'distance'
p5
aF264.8061828613281
aa(lp6
S'timestamp'
p7
aF3.622141122817993
aatp8
Rp9
.ccollections
OrderedDict
p0
((lp1
(lp2
S'state'
p3
aI400
aa(lp4
S'distance'
p5
aF264.8061828613281
aa(lp6
S'timestamp'
p7
aF3.6225321292877197
aatp8
Rp9
.ccollections
OrderedDict
p0
((lp1
(lp2
S'state'
p3
aI400
aa(lp4
S'distance'
p5
aF264.8061828613281
aa(lp6
S'timestamp'
p7
aF3.622681140899658
aatp8
Rp9
.ccollections
OrderedDict
p0
((lp1
(lp2
S'state'
p3
aI400
aa(lp4
S'distance'
p5
aF264.8061828613281
aa(lp6
S'timestamp'
p7
aF3.62298321723938
aatp8
Rp9
.ccollections
OrderedDict
p0
((lp1
(lp2
S'state'
p3
aI400
aa(lp4
S'distance'
p5
aF264.8061828613281
aa(lp6
S'timestamp'
p7
aF3.6231350898742676
aatp8
Rp9
.ccollections
OrderedDict
p0
((lp1
(lp2
S'state'
p3
aI400
aa(lp4
S'distance'
p5
aF264.8061828613281
aa(lp6
S'timestamp'
p7
aF3.6233060359954834
aatp8
Rp9
.ccollections
OrderedDict
p0
((lp1
(lp2
S'state'
p3
aI400
aa(lp4
S'distance'
p5
aF264.8061828613281
aa(lp6
S'timestamp'
p7
aF3.6483590602874756
aatp8
Rp9
.ccollections
OrderedDict
p0
((lp1
(lp2
S'state'
p3
aI400
aa(lp4
S'distance'
p5
aF264.8061828613281
aa(lp6
S'timestamp'
p7
aF3.6486661434173584
aatp8
Rp9
.ccollections
OrderedDict
p0
((lp1
(lp2
S'state'
p3
aI400
aa(lp4
S'distance'
p5
aF264.8061828613281
aa(lp6
S'timestamp'
p7
aF3.6490390300750732
aatp8
Rp9
.ccollections
OrderedDict
p0
((lp1
(lp2
S'state'
p3
aI400
aa(lp4
S'distance'
p5
aF264.8061828613281
aa(lp6
S'timestamp'
p7
aF3.651973009109497
aatp8
Rp9
.ccollections
OrderedDict
p0
((lp1
(lp2
S'state'
p3
aI400
aa(lp4
S'distance'
p5
aF264.8061828613281
aa(lp6
S'timestamp'
p7
aF3.652238130569458
aatp8
Rp9
.ccollections
OrderedDict
p0
((lp1
(lp2
S'state'
p3
aI400
aa(lp4
S'distance'
p5
aF264.8061828613281
aa(lp6
S'timestamp'
p7
aF3.652536153793335
aatp8
Rp9
.ccollections
OrderedDict
p0
((lp1
(lp2
S'state'
p3
aI400
aa(lp4
S'distance'
p5
aF264.8061828613281
aa(lp6
S'timestamp'
p7
aF3.6554510593414307
aatp8
Rp9
.ccollections
OrderedDict
p0
((lp1
(lp2
S'state'
p3
aI400
aa(lp4
S'distance'
p5
aF264.8061828613281
aa(lp6
S'timestamp'
p7
aF3.6558640003204346
aatp8
Rp9
.ccollections
OrderedDict
p0
((lp1
(lp2
S'state'
p3
aI400
aa(lp4
S'distance'
p5
aF264.8061828613281
aa(lp6
S'timestamp'
p7
aF3.7338972091674805
aatp8
Rp9
.ccollections
OrderedDict
p0
((lp1
(lp2
S'state'
p3
aI400
aa(lp4
S'distance'
p5
aF264.8061828613281
aa(lp6
S'timestamp'
p7
aF3.73409104347229
aatp8
Rp9
.ccollections
OrderedDict
p0
((lp1
(lp2
S'state'
p3
aI400
aa(lp4
S'distance'
p5
aF264.8061828613281
aa(lp6
S'timestamp'
p7
aF3.734802007675171
aatp8
Rp9
.ccollections
OrderedDict
p0
((lp1
(lp2
S'state'
p3
aI400
aa(lp4
S'distance'
p5
aF264.8061828613281
aa(lp6
S'timestamp'
p7
aF3.7357571125030518
aatp8
Rp9
.ccollections
OrderedDict
p0
((lp1
(lp2
S'state'
p3
aI400
aa(lp4
S'distance'
p5
aF264.8061828613281
aa(lp6
S'timestamp'
p7
aF3.746514081954956
aatp8
Rp9
.ccollections
OrderedDict
p0
((lp1
(lp2
S'state'
p3
aI400
aa(lp4
S'distance'
p5
aF264.8061828613281
aa(lp6
S'timestamp'
p7
aF3.7472610473632812
aatp8
Rp9
.ccollections
OrderedDict
p0
((lp1
(lp2
S'state'
p3
aI400
aa(lp4
S'distance'
p5
aF264.8061828613281
aa(lp6
S'timestamp'
p7
aF3.747502088546753
aatp8
Rp9
.ccollections
OrderedDict
p0
((lp1
(lp2
S'state'
p3
aI400
aa(lp4
S'distance'
p5
aF264.8061828613281
aa(lp6
S'timestamp'
p7
aF3.7478091716766357
aatp8
Rp9
.ccollections
OrderedDict
p0
((lp1
(lp2
S'state'
p3
aI400
aa(lp4
S'distance'
p5
aF264.8061828613281
aa(lp6
S'timestamp'
p7
aF3.752080202102661
aatp8
Rp9
.ccollections
OrderedDict
p0
((lp1
(lp2
S'state'
p3
aI400
aa(lp4
S'distance'
p5
aF264.8061828613281
aa(lp6
S'timestamp'
p7
aF3.752286195755005
aatp8
Rp9
.ccollections
OrderedDict
p0
((lp1
(lp2
S'state'
p3
aI400
aa(lp4
S'distance'
p5
aF264.8061828613281
aa(lp6
S'timestamp'
p7
aF3.7525579929351807
aatp8
Rp9
.ccollections
OrderedDict
p0
((lp1
(lp2
S'state'
p3
aI400
aa(lp4
S'distance'
p5
aF264.8061828613281
aa(lp6
S'timestamp'
p7
aF3.7572741508483887
aatp8
Rp9
.ccollections
OrderedDict
p0
((lp1
(lp2
S'state'
p3
aI400
aa(lp4
S'distance'
p5
aF264.8061828613281
aa(lp6
S'timestamp'
p7
aF3.7592520713806152
aatp8
Rp9
.ccollections
OrderedDict
p0
((lp1
(lp2
S'state'
p3
aI400
aa(lp4
S'distance'
p5
aF264.8061828613281
aa(lp6
S'timestamp'
p7
aF3.7594711780548096
aatp8
Rp9
.ccollections
OrderedDict
p0
((lp1
(lp2
S'state'
p3
aI400
aa(lp4
S'distance'
p5
aF264.8061828613281
aa(lp6
S'timestamp'
p7
aF3.759819984436035
aatp8
Rp9
.ccollections
OrderedDict
p0
((lp1
(lp2
S'state'
p3
aI400
aa(lp4
S'distance'
p5
aF264.8061828613281
aa(lp6
S'timestamp'
p7
aF3.7599480152130127
aatp8
Rp9
.ccollections
OrderedDict
p0
((lp1
(lp2
S'state'
p3
aI400
aa(lp4
S'distance'
p5
aF264.8061828613281
aa(lp6
S'timestamp'
p7
aF3.7600631713867188
aatp8
Rp9
.ccollections
OrderedDict
p0
((lp1
(lp2
S'state'
p3
aI400
aa(lp4
S'distance'
p5
aF264.8061828613281
aa(lp6
S'timestamp'
p7
aF3.7609221935272217
aatp8
Rp9
.ccollections
OrderedDict
p0
((lp1
(lp2
S'state'
p3
aI400
aa(lp4
S'distance'
p5
aF264.8061828613281
aa(lp6
S'timestamp'
p7
aF3.766857147216797
aatp8
Rp9
.ccollections
OrderedDict
p0
((lp1
(lp2
S'state'
p3
aI400
aa(lp4
S'distance'
p5
aF264.8061828613281
aa(lp6
S'timestamp'
p7
aF3.7735941410064697
aatp8
Rp9
.ccollections
OrderedDict
p0
((lp1
(lp2
S'state'
p3
aI400
aa(lp4
S'distance'
p5
aF264.8061828613281
aa(lp6
S'timestamp'
p7
aF3.773827075958252
aatp8
Rp9
.ccollections
OrderedDict
p0
((lp1
(lp2
S'state'
p3
aI400
aa(lp4
S'distance'
p5
aF264.8061828613281
aa(lp6
S'timestamp'
p7
aF3.7740390300750732
aatp8
Rp9
.ccollections
OrderedDict
p0
((lp1
(lp2
S'state'
p3
aI400
aa(lp4
S'distance'
p5
aF264.8061828613281
aa(lp6
S'timestamp'
p7
aF3.7770609855651855
aatp8
Rp9
.ccollections
OrderedDict
p0
((lp1
(lp2
S'state'
p3
aI400
aa(lp4
S'distance'
p5
aF264.8061828613281
aa(lp6
S'timestamp'
p7
aF3.78422212600708
aatp8
Rp9
.ccollections
OrderedDict
p0
((lp1
(lp2
S'state'
p3
aI400
aa(lp4
S'distance'
p5
aF264.8061828613281
aa(lp6
S'timestamp'
p7
aF3.784431219100952
aatp8
Rp9
.ccollections
OrderedDict
p0
((lp1
(lp2
S'state'
p3
aI400
aa(lp4
S'distance'
p5
aF264.8061828613281
aa(lp6
S'timestamp'
p7
aF3.787809133529663
aatp8
Rp9
.ccollections
OrderedDict
p0
((lp1
(lp2
S'state'
p3
aI400
aa(lp4
S'distance'
p5
aF264.8061828613281
aa(lp6
S'timestamp'
p7
aF3.796358108520508
aatp8
Rp9
.ccollections
OrderedDict
p0
((lp1
(lp2
S'state'
p3
aI400
aa(lp4
S'distance'
p5
aF264.8061828613281
aa(lp6
S'timestamp'
p7
aF3.7988321781158447
aatp8
Rp9
.ccollections
OrderedDict
p0
((lp1
(lp2
S'state'
p3
aI400
aa(lp4
S'distance'
p5
aF264.8061828613281
aa(lp6
S'timestamp'
p7
aF3.807061195373535
aatp8
Rp9
.ccollections
OrderedDict
p0
((lp1
(lp2
S'state'
p3
aI400
aa(lp4
S'distance'
p5
aF264.8061828613281
aa(lp6
S'timestamp'
p7
aF3.8073081970214844
aatp8
Rp9
.ccollections
OrderedDict
p0
((lp1
(lp2
S'state'
p3
aI400
aa(lp4
S'distance'
p5
aF264.8061828613281
aa(lp6
S'timestamp'
p7
aF3.814300060272217
aatp8
Rp9
.ccollections
OrderedDict
p0
((lp1
(lp2
S'state'
p3
aI400
aa(lp4
S'distance'
p5
aF264.8061828613281
aa(lp6
S'timestamp'
p7
aF3.8162121772766113
aatp8
Rp9
.ccollections
OrderedDict
p0
((lp1
(lp2
S'state'
p3
aI400
aa(lp4
S'distance'
p5
aF264.8061828613281
aa(lp6
S'timestamp'
p7
aF3.839172124862671
aatp8
Rp9
.ccollections
OrderedDict
p0
((lp1
(lp2
S'state'
p3
aI400
aa(lp4
S'distance'
p5
aF264.8061828613281
aa(lp6
S'timestamp'
p7
aF3.83988618850708
aatp8
Rp9
.ccollections
OrderedDict
p0
((lp1
(lp2
S'state'
p3
aI400
aa(lp4
S'distance'
p5
aF264.8061828613281
aa(lp6
S'timestamp'
p7
aF3.840635061264038
aatp8
Rp9
.ccollections
OrderedDict
p0
((lp1
(lp2
S'state'
p3
aI400
aa(lp4
S'distance'
p5
aF264.8061828613281
aa(lp6
S'timestamp'
p7
aF3.8421010971069336
aatp8
Rp9
.ccollections
OrderedDict
p0
((lp1
(lp2
S'state'
p3
aI400
aa(lp4
S'distance'
p5
aF264.8061828613281
aa(lp6
S'timestamp'
p7
aF3.8457159996032715
aatp8
Rp9
.ccollections
OrderedDict
p0
((lp1
(lp2
S'state'
p3
aI400
aa(lp4
S'distance'
p5
aF264.8061828613281
aa(lp6
S'timestamp'
p7
aF3.8560521602630615
aatp8
Rp9
.ccollections
OrderedDict
p0
((lp1
(lp2
S'state'
p3
aI400
aa(lp4
S'distance'
p5
aF264.8061828613281
aa(lp6
S'timestamp'
p7
aF3.8568131923675537
aatp8
Rp9
.ccollections
OrderedDict
p0
((lp1
(lp2
S'state'
p3
aI400
aa(lp4
S'distance'
p5
aF264.8061828613281
aa(lp6
S'timestamp'
p7
aF3.8572471141815186
aatp8
Rp9
.ccollections
OrderedDict
p0
((lp1
(lp2
S'state'
p3
aI400
aa(lp4
S'distance'
p5
aF264.8061828613281
aa(lp6
S'timestamp'
p7
aF3.86584210395813
aatp8
Rp9
.ccollections
OrderedDict
p0
((lp1
(lp2
S'state'
p3
aI400
aa(lp4
S'distance'
p5
aF264.8061828613281
aa(lp6
S'timestamp'
p7
aF3.866281032562256
aatp8
Rp9
.ccollections
OrderedDict
p0
((lp1
(lp2
S'state'
p3
aI400
aa(lp4
S'distance'
p5
aF264.8061828613281
aa(lp6
S'timestamp'
p7
aF3.8758301734924316
aatp8
Rp9
.ccollections
OrderedDict
p0
((lp1
(lp2
S'state'
p3
aI400
aa(lp4
S'distance'
p5
aF264.8061828613281
aa(lp6
S'timestamp'
p7
aF3.8772621154785156
aatp8
Rp9
.ccollections
OrderedDict
p0
((lp1
(lp2
S'state'
p3
aI400
aa(lp4
S'distance'
p5
aF264.8061828613281
aa(lp6
S'timestamp'
p7
aF3.884676218032837
aatp8
Rp9
.ccollections
OrderedDict
p0
((lp1
(lp2
S'state'
p3
aI400
aa(lp4
S'distance'
p5
aF264.8061828613281
aa(lp6
S'timestamp'
p7
aF3.8865129947662354
aatp8
Rp9
.ccollections
OrderedDict
p0
((lp1
(lp2
S'state'
p3
aI400
aa(lp4
S'distance'
p5
aF264.8061828613281
aa(lp6
S'timestamp'
p7
aF3.895768165588379
aatp8
Rp9
.ccollections
OrderedDict
p0
((lp1
(lp2
S'state'
p3
aI400
aa(lp4
S'distance'
p5
aF264.8061828613281
aa(lp6
S'timestamp'
p7
aF3.8970470428466797
aatp8
Rp9
.ccollections
OrderedDict
p0
((lp1
(lp2
S'state'
p3
aI400
aa(lp4
S'distance'
p5
aF264.8061828613281
aa(lp6
S'timestamp'
p7
aF3.9053092002868652
aatp8
Rp9
.ccollections
OrderedDict
p0
((lp1
(lp2
S'state'
p3
aI400
aa(lp4
S'distance'
p5
aF264.8061828613281
aa(lp6
S'timestamp'
p7
aF3.9068241119384766
aatp8
Rp9
.ccollections
OrderedDict
p0
((lp1
(lp2
S'state'
p3
aI400
aa(lp4
S'distance'
p5
aF264.8061828613281
aa(lp6
S'timestamp'
p7
aF3.915417194366455
aatp8
Rp9
.ccollections
OrderedDict
p0
((lp1
(lp2
S'state'
p3
aI400
aa(lp4
S'distance'
p5
aF264.8061828613281
aa(lp6
S'timestamp'
p7
aF3.9157981872558594
aatp8
Rp9
.ccollections
OrderedDict
p0
((lp1
(lp2
S'state'
p3
aI400
aa(lp4
S'distance'
p5
aF264.8061828613281
aa(lp6
S'timestamp'
p7
aF3.9242451190948486
aatp8
Rp9
.ccollections
OrderedDict
p0
((lp1
(lp2
S'state'
p3
aI400
aa(lp4
S'distance'
p5
aF264.8061828613281
aa(lp6
S'timestamp'
p7
aF3.9250271320343018
aatp8
Rp9
.ccollections
OrderedDict
p0
((lp1
(lp2
S'state'
p3
aI400
aa(lp4
S'distance'
p5
aF264.8061828613281
aa(lp6
S'timestamp'
p7
aF3.9364750385284424
aatp8
Rp9
.ccollections
OrderedDict
p0
((lp1
(lp2
S'state'
p3
aI400
aa(lp4
S'distance'
p5
aF264.8061828613281
aa(lp6
S'timestamp'
p7
aF3.9366722106933594
aatp8
Rp9
.ccollections
OrderedDict
p0
((lp1
(lp2
S'state'
p3
aI400
aa(lp4
S'distance'
p5
aF264.8061828613281
aa(lp6
S'timestamp'
p7
aF3.9463469982147217
aatp8
Rp9
.ccollections
OrderedDict
p0
((lp1
(lp2
S'state'
p3
aI400
aa(lp4
S'distance'
p5
aF264.8061828613281
aa(lp6
S'timestamp'
p7
aF3.946714162826538
aatp8
Rp9
.ccollections
OrderedDict
p0
((lp1
(lp2
S'state'
p3
aI400
aa(lp4
S'distance'
p5
aF264.8061828613281
aa(lp6
S'timestamp'
p7
aF3.9554860591888428
aatp8
Rp9
.ccollections
OrderedDict
p0
((lp1
(lp2
S'state'
p3
aI400
aa(lp4
S'distance'
p5
aF264.8061828613281
aa(lp6
S'timestamp'
p7
aF3.9563980102539062
aatp8
Rp9
.ccollections
OrderedDict
p0
((lp1
(lp2
S'state'
p3
aI400
aa(lp4
S'distance'
p5
aF264.8061828613281
aa(lp6
S'timestamp'
p7
aF3.9659950733184814
aatp8
Rp9
.ccollections
OrderedDict
p0
((lp1
(lp2
S'state'
p3
aI400
aa(lp4
S'distance'
p5
aF264.8061828613281
aa(lp6
S'timestamp'
p7
aF3.9664111137390137
aatp8
Rp9
.ccollections
OrderedDict
p0
((lp1
(lp2
S'state'
p3
aI400
aa(lp4
S'distance'
p5
aF264.8061828613281
aa(lp6
S'timestamp'
p7
aF3.9742050170898438
aatp8
Rp9
.ccollections
OrderedDict
p0
((lp1
(lp2
S'state'
p3
aI400
aa(lp4
S'distance'
p5
aF264.8061828613281
aa(lp6
S'timestamp'
p7
aF3.975429058074951
aatp8
Rp9
.ccollections
OrderedDict
p0
((lp1
(lp2
S'state'
p3
aI400
aa(lp4
S'distance'
p5
aF264.8061828613281
aa(lp6
S'timestamp'
p7
aF3.984927177429199
aatp8
Rp9
.ccollections
OrderedDict
p0
((lp1
(lp2
S'state'
p3
aI400
aa(lp4
S'distance'
p5
aF264.8061828613281
aa(lp6
S'timestamp'
p7
aF3.9855380058288574
aatp8
Rp9
.ccollections
OrderedDict
p0
((lp1
(lp2
S'state'
p3
aI400
aa(lp4
S'distance'
p5
aF264.8061828613281
aa(lp6
S'timestamp'
p7
aF3.995565176010132
aatp8
Rp9
.ccollections
OrderedDict
p0
((lp1
(lp2
S'state'
p3
aI400
aa(lp4
S'distance'
p5
aF264.8061828613281
aa(lp6
S'timestamp'
p7
aF3.9971871376037598
aatp8
Rp9
.ccollections
OrderedDict
p0
((lp1
(lp2
S'state'
p3
aI400
aa(lp4
S'distance'
p5
aF264.8061828613281
aa(lp6
S'timestamp'
p7
aF4.005504131317139
aatp8
Rp9
.ccollections
OrderedDict
p0
((lp1
(lp2
S'state'
p3
aI400
aa(lp4
S'distance'
p5
aF264.8061828613281
aa(lp6
S'timestamp'
p7
aF4.006014108657837
aatp8
Rp9
.ccollections
OrderedDict
p0
((lp1
(lp2
S'state'
p3
aI400
aa(lp4
S'distance'
p5
aF264.8061828613281
aa(lp6
S'timestamp'
p7
aF4.015748023986816
aatp8
Rp9
.ccollections
OrderedDict
p0
((lp1
(lp2
S'state'
p3
aI400
aa(lp4
S'distance'
p5
aF264.8061828613281
aa(lp6
S'timestamp'
p7
aF4.016331195831299
aatp8
Rp9
.ccollections
OrderedDict
p0
((lp1
(lp2
S'state'
p3
aI400
aa(lp4
S'distance'
p5
aF264.8061828613281
aa(lp6
S'timestamp'
p7
aF4.026156187057495
aatp8
Rp9
.ccollections
OrderedDict
p0
((lp1
(lp2
S'state'
p3
aI400
aa(lp4
S'distance'
p5
aF264.8061828613281
aa(lp6
S'timestamp'
p7
aF4.026973009109497
aatp8
Rp9
.ccollections
OrderedDict
p0
((lp1
(lp2
S'state'
p3
aI400
aa(lp4
S'distance'
p5
aF264.8061828613281
aa(lp6
S'timestamp'
p7
aF4.037214040756226
aatp8
Rp9
.ccollections
OrderedDict
p0
((lp1
(lp2
S'state'
p3
aI400
aa(lp4
S'distance'
p5
aF264.8061828613281
aa(lp6
S'timestamp'
p7
aF4.037414073944092
aatp8
Rp9
.ccollections
OrderedDict
p0
((lp1
(lp2
S'state'
p3
aI400
aa(lp4
S'distance'
p5
aF264.8061828613281
aa(lp6
S'timestamp'
p7
aF4.057142019271851
aatp8
Rp9
.ccollections
OrderedDict
p0
((lp1
(lp2
S'state'
p3
aI400
aa(lp4
S'distance'
p5
aF264.8061828613281
aa(lp6
S'timestamp'
p7
aF4.0573601722717285
aatp8
Rp9
.ccollections
OrderedDict
p0
((lp1
(lp2
S'state'
p3
aI400
aa(lp4
S'distance'
p5
aF264.8061828613281
aa(lp6
S'timestamp'
p7
aF4.0575010776519775
aatp8
Rp9
.ccollections
OrderedDict
p0
((lp1
(lp2
S'state'
p3
aI400
aa(lp4
S'distance'
p5
aF264.8061828613281
aa(lp6
S'timestamp'
p7
aF4.058718204498291
aatp8
Rp9
.ccollections
OrderedDict
p0
((lp1
(lp2
S'state'
p3
aI400
aa(lp4
S'distance'
p5
aF264.8061828613281
aa(lp6
S'timestamp'
p7
aF4.064903020858765
aatp8
Rp9
.ccollections
OrderedDict
p0
((lp1
(lp2
S'state'
p3
aI400
aa(lp4
S'distance'
p5
aF264.8061828613281
aa(lp6
S'timestamp'
p7
aF4.068677186965942
aatp8
Rp9
.ccollections
OrderedDict
p0
((lp1
(lp2
S'state'
p3
aI400
aa(lp4
S'distance'
p5
aF264.8061828613281
aa(lp6
S'timestamp'
p7
aF4.075631141662598
aatp8
Rp9
.ccollections
OrderedDict
p0
((lp1
(lp2
S'state'
p3
aI400
aa(lp4
S'distance'
p5
aF264.8061828613281
aa(lp6
S'timestamp'
p7
aF4.075874090194702
aatp8
Rp9
.ccollections
OrderedDict
p0
((lp1
(lp2
S'state'
p3
aI400
aa(lp4
S'distance'
p5
aF264.8061828613281
aa(lp6
S'timestamp'
p7
aF4.0858800411224365
aatp8
Rp9
.ccollections
OrderedDict
p0
((lp1
(lp2
S'state'
p3
aI400
aa(lp4
S'distance'
p5
aF264.8061828613281
aa(lp6
S'timestamp'
p7
aF4.088083028793335
aatp8
Rp9
.ccollections
OrderedDict
p0
((lp1
(lp2
S'state'
p3
aI400
aa(lp4
S'distance'
p5
aF264.8061828613281
aa(lp6
S'timestamp'
p7
aF4.104813098907471
aatp8
Rp9
.ccollections
OrderedDict
p0
((lp1
(lp2
S'state'
p3
aI400
aa(lp4
S'distance'
p5
aF264.8061828613281
aa(lp6
S'timestamp'
p7
aF4.10522198677063
aatp8
Rp9
.ccollections
OrderedDict
p0
((lp1
(lp2
S'state'
p3
aI400
aa(lp4
S'distance'
p5
aF264.8061828613281
aa(lp6
S'timestamp'
p7
aF4.107763051986694
aatp8
Rp9
.ccollections
OrderedDict
p0
((lp1
(lp2
S'state'
p3
aI400
aa(lp4
S'distance'
p5
aF264.8061828613281
aa(lp6
S'timestamp'
p7
aF4.108752012252808
aatp8
Rp9
.ccollections
OrderedDict
p0
((lp1
(lp2
S'state'
p3
aI400
aa(lp4
S'distance'
p5
aF264.8061828613281
aa(lp6
S'timestamp'
p7
aF4.114380121231079
aatp8
Rp9
.ccollections
OrderedDict
p0
((lp1
(lp2
S'state'
p3
aI400
aa(lp4
S'distance'
p5
aF264.8061828613281
aa(lp6
S'timestamp'
p7
aF4.114845037460327
aatp8
Rp9
.ccollections
OrderedDict
p0
((lp1
(lp2
S'state'
p3
aI400
aa(lp4
S'distance'
p5
aF264.8061828613281
aa(lp6
S'timestamp'
p7
aF4.125030994415283
aatp8
Rp9
.ccollections
OrderedDict
p0
((lp1
(lp2
S'state'
p3
aI400
aa(lp4
S'distance'
p5
aF264.8061828613281
aa(lp6
S'timestamp'
p7
aF4.12676215171814
aatp8
Rp9
.ccollections
OrderedDict
p0
((lp1
(lp2
S'state'
p3
aI400
aa(lp4
S'distance'
p5
aF264.8061828613281
aa(lp6
S'timestamp'
p7
aF4.135452032089233
aatp8
Rp9
.ccollections
OrderedDict
p0
((lp1
(lp2
S'state'
p3
aI400
aa(lp4
S'distance'
p5
aF264.8061828613281
aa(lp6
S'timestamp'
p7
aF4.135822057723999
aatp8
Rp9
.ccollections
OrderedDict
p0
((lp1
(lp2
S'state'
p3
aI400
aa(lp4
S'distance'
p5
aF264.8061828613281
aa(lp6
S'timestamp'
p7
aF4.144901990890503
aatp8
Rp9
.ccollections
OrderedDict
p0
((lp1
(lp2
S'state'
p3
aI400
aa(lp4
S'distance'
p5
aF264.8061828613281
aa(lp6
S'timestamp'
p7
aF4.145698070526123
aatp8
Rp9
.ccollections
OrderedDict
p0
((lp1
(lp2
S'state'
p3
aI400
aa(lp4
S'distance'
p5
aF264.8061828613281
aa(lp6
S'timestamp'
p7
aF4.164842128753662
aatp8
Rp9
.ccollections
OrderedDict
p0
((lp1
(lp2
S'state'
p3
aI400
aa(lp4
S'distance'
p5
aF264.8061828613281
aa(lp6
S'timestamp'
p7
aF4.168083190917969
aatp8
Rp9
.ccollections
OrderedDict
p0
((lp1
(lp2
S'state'
p3
aI400
aa(lp4
S'distance'
p5
aF264.8061828613281
aa(lp6
S'timestamp'
p7
aF4.168302059173584
aatp8
Rp9
.ccollections
OrderedDict
p0
((lp1
(lp2
S'state'
p3
aI400
aa(lp4
S'distance'
p5
aF264.8061828613281
aa(lp6
S'timestamp'
p7
aF4.168434143066406
aatp8
Rp9
.ccollections
OrderedDict
p0
((lp1
(lp2
S'state'
p3
aI400
aa(lp4
S'distance'
p5
aF264.8061828613281
aa(lp6
S'timestamp'
p7
aF4.175439119338989
aatp8
Rp9
.ccollections
OrderedDict
p0
((lp1
(lp2
S'state'
p3
aI0
aa(lp4
S'distance'
p5
aF264.8061828613281
aa(lp6
S'timestamp'
p7
aF4.176129102706909
aatp8
Rp9
.ccollections
OrderedDict
p0
((lp1
(lp2
S'state'
p3
aI0
aa(lp4
S'distance'
p5
aF168.85807418823242
aa(lp6
S'timestamp'
p7
aF4.8172571659088135
aatp8
Rp9
.ccollections
OrderedDict
p0
((lp1
(lp2
S'state'
p3
aI0
aa(lp4
S'distance'
p5
aF168.85807418823242
aa(lp6
S'timestamp'
p7
aF4.817468166351318
aatp8
Rp9
.ccollections
OrderedDict
p0
((lp1
(lp2
S'state'
p3
aI0
aa(lp4
S'distance'
p5
aF168.85807418823242
aa(lp6
S'timestamp'
p7
aF4.817921161651611
aatp8
Rp9
.ccollections
OrderedDict
p0
((lp1
(lp2
S'state'
p3
aI0
aa(lp4
S'distance'
p5
aF168.85807418823242
aa(lp6
S'timestamp'
p7
aF4.853470087051392
aatp8
Rp9
.ccollections
OrderedDict
p0
((lp1
(lp2
S'state'
p3
aI0
aa(lp4
S'distance'
p5
aF168.85807418823242
aa(lp6
S'timestamp'
p7
aF4.877585172653198
aatp8
Rp9
.ccollections
OrderedDict
p0
((lp1
(lp2
S'state'
p3
aI0
aa(lp4
S'distance'
p5
aF168.85807418823242
aa(lp6
S'timestamp'
p7
aF4.8779120445251465
aatp8
Rp9
.ccollections
OrderedDict
p0
((lp1
(lp2
S'state'
p3
aI0
aa(lp4
S'distance'
p5
aF168.85807418823242
aa(lp6
S'timestamp'
p7
aF4.878050088882446
aatp8
Rp9
.ccollections
OrderedDict
p0
((lp1
(lp2
S'state'
p3
aI0
aa(lp4
S'distance'
p5
aF168.85807418823242
aa(lp6
S'timestamp'
p7
aF4.878406047821045
aatp8
Rp9
.ccollections
OrderedDict
p0
((lp1
(lp2
S'state'
p3
aI0
aa(lp4
S'distance'
p5
aF168.85807418823242
aa(lp6
S'timestamp'
p7
aF4.882699012756348
aatp8
Rp9
.ccollections
OrderedDict
p0
((lp1
(lp2
S'state'
p3
aI0
aa(lp4
S'distance'
p5
aF168.85807418823242
aa(lp6
S'timestamp'
p7
aF4.883709192276001
aatp8
Rp9
.ccollections
OrderedDict
p0
((lp1
(lp2
S'state'
p3
aI0
aa(lp4
S'distance'
p5
aF168.85807418823242
aa(lp6
S'timestamp'
p7
aF4.884198188781738
aatp8
Rp9
.ccollections
OrderedDict
p0
((lp1
(lp2
S'state'
p3
aI0
aa(lp4
S'distance'
p5
aF168.85807418823242
aa(lp6
S'timestamp'
p7
aF4.884373188018799
aatp8
Rp9
.ccollections
OrderedDict
p0
((lp1
(lp2
S'state'
p3
aI0
aa(lp4
S'distance'
p5
aF168.85807418823242
aa(lp6
S'timestamp'
p7
aF4.884659051895142
aatp8
Rp9
.ccollections
OrderedDict
p0
((lp1
(lp2
S'state'
p3
aI0
aa(lp4
S'distance'
p5
aF168.85807418823242
aa(lp6
S'timestamp'
p7
aF4.885503053665161
aatp8
Rp9
.ccollections
OrderedDict
p0
((lp1
(lp2
S'state'
p3
aI0
aa(lp4
S'distance'
p5
aF168.85807418823242
aa(lp6
S'timestamp'
p7
aF4.889106035232544
aatp8
Rp9
.ccollections
OrderedDict
p0
((lp1
(lp2
S'state'
p3
aI0
aa(lp4
S'distance'
p5
aF168.85807418823242
aa(lp6
S'timestamp'
p7
aF4.889631986618042
aatp8
Rp9
.ccollections
OrderedDict
p0
((lp1
(lp2
S'state'
p3
aI0
aa(lp4
S'distance'
p5
aF168.85807418823242
aa(lp6
S'timestamp'
p7
aF4.89187216758728
aatp8
Rp9
.ccollections
OrderedDict
p0
((lp1
(lp2
S'state'
p3
aI0
aa(lp4
S'distance'
p5
aF168.85807418823242
aa(lp6
S'timestamp'
p7
aF4.896008014678955
aatp8
Rp9
.ccollections
OrderedDict
p0
((lp1
(lp2
S'state'
p3
aI0
aa(lp4
S'distance'
p5
aF168.85807418823242
aa(lp6
S'timestamp'
p7
aF4.899142026901245
aatp8
Rp9
.ccollections
OrderedDict
p0
((lp1
(lp2
S'state'
p3
aI0
aa(lp4
S'distance'
p5
aF168.85807418823242
aa(lp6
S'timestamp'
p7
aF4.904654026031494
aatp8
Rp9
.ccollections
OrderedDict
p0
((lp1
(lp2
S'state'
p3
aI0
aa(lp4
S'distance'
p5
aF168.85807418823242
aa(lp6
S'timestamp'
p7
aF4.93532919883728
aatp8
Rp9
.ccollections
OrderedDict
p0
((lp1
(lp2
S'state'
p3
aI0
aa(lp4
S'distance'
p5
aF168.85807418823242
aa(lp6
S'timestamp'
p7
aF4.935580015182495
aatp8
Rp9
.ccollections
OrderedDict
p0
((lp1
(lp2
S'state'
p3
aI0
aa(lp4
S'distance'
p5
aF168.85807418823242
aa(lp6
S'timestamp'
p7
aF4.937812089920044
aatp8
Rp9
.ccollections
OrderedDict
p0
((lp1
(lp2
S'state'
p3
aI0
aa(lp4
S'distance'
p5
aF168.85807418823242
aa(lp6
S'timestamp'
p7
aF4.938220024108887
aatp8
Rp9
.ccollections
OrderedDict
p0
((lp1
(lp2
S'state'
p3
aI0
aa(lp4
S'distance'
p5
aF168.85807418823242
aa(lp6
S'timestamp'
p7
aF4.945641040802002
aatp8
Rp9
.ccollections
OrderedDict
p0
((lp1
(lp2
S'state'
p3
aI0
aa(lp4
S'distance'
p5
aF168.85807418823242
aa(lp6
S'timestamp'
p7
aF4.9459919929504395
aatp8
Rp9
.ccollections
OrderedDict
p0
((lp1
(lp2
S'state'
p3
aI0
aa(lp4
S'distance'
p5
aF168.85807418823242
aa(lp6
S'timestamp'
p7
aF4.947943210601807
aatp8
Rp9
.ccollections
OrderedDict
p0
((lp1
(lp2
S'state'
p3
aI0
aa(lp4
S'distance'
p5
aF168.85807418823242
aa(lp6
S'timestamp'
p7
aF4.9481141567230225
aatp8
Rp9
.ccollections
OrderedDict
p0
((lp1
(lp2
S'state'
p3
aI0
aa(lp4
S'distance'
p5
aF168.85807418823242
aa(lp6
S'timestamp'
p7
aF4.955713987350464
aatp8
Rp9
.ccollections
OrderedDict
p0
((lp1
(lp2
S'state'
p3
aI0
aa(lp4
S'distance'
p5
aF168.85807418823242
aa(lp6
S'timestamp'
p7
aF4.9558210372924805
aatp8
Rp9
.ccollections
OrderedDict
p0
((lp1
(lp2
S'state'
p3
aI0
aa(lp4
S'distance'
p5
aF168.85807418823242
aa(lp6
S'timestamp'
p7
aF4.956048011779785
aatp8
Rp9
.ccollections
OrderedDict
p0
((lp1
(lp2
S'state'
p3
aI0
aa(lp4
S'distance'
p5
aF168.85807418823242
aa(lp6
S'timestamp'
p7
aF4.98532509803772
aatp8
Rp9
.ccollections
OrderedDict
p0
((lp1
(lp2
S'state'
p3
aI0
aa(lp4
S'distance'
p5
aF168.85807418823242
aa(lp6
S'timestamp'
p7
aF4.985460042953491
aatp8
Rp9
.ccollections
OrderedDict
p0
((lp1
(lp2
S'state'
p3
aI0
aa(lp4
S'distance'
p5
aF168.85807418823242
aa(lp6
S'timestamp'
p7
aF4.98679518699646
aatp8
Rp9
.ccollections
OrderedDict
p0
((lp1
(lp2
S'state'
p3
aI0
aa(lp4
S'distance'
p5
aF168.85807418823242
aa(lp6
S'timestamp'
p7
aF4.988113164901733
aatp8
Rp9
.ccollections
OrderedDict
p0
((lp1
(lp2
S'state'
p3
aI0
aa(lp4
S'distance'
p5
aF168.85807418823242
aa(lp6
S'timestamp'
p7
aF5.004184007644653
aatp8
Rp9
.ccollections
OrderedDict
p0
((lp1
(lp2
S'state'
p3
aI0
aa(lp4
S'distance'
p5
aF168.85807418823242
aa(lp6
S'timestamp'
p7
aF5.006643056869507
aatp8
Rp9
.ccollections
OrderedDict
p0
((lp1
(lp2
S'state'
p3
aI0
aa(lp4
S'distance'
p5
aF168.85807418823242
aa(lp6
S'timestamp'
p7
aF5.006730079650879
aatp8
Rp9
.ccollections
OrderedDict
p0
((lp1
(lp2
S'state'
p3
aI0
aa(lp4
S'distance'
p5
aF168.85807418823242
aa(lp6
S'timestamp'
p7
aF5.006964206695557
aatp8
Rp9
.ccollections
OrderedDict
p0
((lp1
(lp2
S'state'
p3
aI0
aa(lp4
S'distance'
p5
aF168.85807418823242
aa(lp6
S'timestamp'
p7
aF5.0140321254730225
aatp8
Rp9
.ccollections
OrderedDict
p0
((lp1
(lp2
S'state'
p3
aI0
aa(lp4
S'distance'
p5
aF168.85807418823242
aa(lp6
S'timestamp'
p7
aF5.014775037765503
aatp8
Rp9
.ccollections
OrderedDict
p0
((lp1
(lp2
S'state'
p3
aI0
aa(lp4
S'distance'
p5
aF168.85807418823242
aa(lp6
S'timestamp'
p7
aF5.015905141830444
aatp8
Rp9
.ccollections
OrderedDict
p0
((lp1
(lp2
S'state'
p3
aI0
aa(lp4
S'distance'
p5
aF168.85807418823242
aa(lp6
S'timestamp'
p7
aF5.016501188278198
aatp8
Rp9
.ccollections
OrderedDict
p0
((lp1
(lp2
S'state'
p3
aI0
aa(lp4
S'distance'
p5
aF168.85807418823242
aa(lp6
S'timestamp'
p7
aF5.024193048477173
aatp8
Rp9
.ccollections
OrderedDict
p0
((lp1
(lp2
S'state'
p3
aI0
aa(lp4
S'distance'
p5
aF168.85807418823242
aa(lp6
S'timestamp'
p7
aF5.035667181015015
aatp8
Rp9
.ccollections
OrderedDict
p0
((lp1
(lp2
S'state'
p3
aI0
aa(lp4
S'distance'
p5
aF168.85807418823242
aa(lp6
S'timestamp'
p7
aF5.035928010940552
aatp8
Rp9
.ccollections
OrderedDict
p0
((lp1
(lp2
S'state'
p3
aI0
aa(lp4
S'distance'
p5
aF168.85807418823242
aa(lp6
S'timestamp'
p7
aF5.037766218185425
aatp8
Rp9
.ccollections
OrderedDict
p0
((lp1
(lp2
S'state'
p3
aI0
aa(lp4
S'distance'
p5
aF168.85807418823242
aa(lp6
S'timestamp'
p7
aF5.044048070907593
aatp8
Rp9
.ccollections
OrderedDict
p0
((lp1
(lp2
S'state'
p3
aI0
aa(lp4
S'distance'
p5
aF168.85807418823242
aa(lp6
S'timestamp'
p7
aF5.044728994369507
aatp8
Rp9
.ccollections
OrderedDict
p0
((lp1
(lp2
S'state'
p3
aI0
aa(lp4
S'distance'
p5
aF168.85807418823242
aa(lp6
S'timestamp'
p7
aF5.054234981536865
aatp8
Rp9
.ccollections
OrderedDict
p0
((lp1
(lp2
S'state'
p3
aI0
aa(lp4
S'distance'
p5
aF168.85807418823242
aa(lp6
S'timestamp'
p7
aF5.055592060089111
aatp8
Rp9
.ccollections
OrderedDict
p0
((lp1
(lp2
S'state'
p3
aI0
aa(lp4
S'distance'
p5
aF168.85807418823242
aa(lp6
S'timestamp'
p7
aF5.065944194793701
aatp8
Rp9
.ccollections
OrderedDict
p0
((lp1
(lp2
S'state'
p3
aI0
aa(lp4
S'distance'
p5
aF168.85807418823242
aa(lp6
S'timestamp'
p7
aF5.066176176071167
aatp8
Rp9
.ccollections
OrderedDict
p0
((lp1
(lp2
S'state'
p3
aI0
aa(lp4
S'distance'
p5
aF168.85807418823242
aa(lp6
S'timestamp'
p7
aF5.074091196060181
aatp8
Rp9
.ccollections
OrderedDict
p0
((lp1
(lp2
S'state'
p3
aI0
aa(lp4
S'distance'
p5
aF168.85807418823242
aa(lp6
S'timestamp'
p7
aF5.075324058532715
aatp8
Rp9
.ccollections
OrderedDict
p0
((lp1
(lp2
S'state'
p3
aI0
aa(lp4
S'distance'
p5
aF168.85807418823242
aa(lp6
S'timestamp'
p7
aF5.084107160568237
aatp8
Rp9
.ccollections
OrderedDict
p0
((lp1
(lp2
S'state'
p3
aI0
aa(lp4
S'distance'
p5
aF168.85807418823242
aa(lp6
S'timestamp'
p7
aF5.084612131118774
aatp8
Rp9
.ccollections
OrderedDict
p0
((lp1
(lp2
S'state'
p3
aI0
aa(lp4
S'distance'
p5
aF168.85807418823242
aa(lp6
S'timestamp'
p7
aF5.094089031219482
aatp8
Rp9
.ccollections
OrderedDict
p0
((lp1
(lp2
S'state'
p3
aI0
aa(lp4
S'distance'
p5
aF168.85807418823242
aa(lp6
S'timestamp'
p7
aF5.09517502784729
aatp8
Rp9
.ccollections
OrderedDict
p0
((lp1
(lp2
S'state'
p3
aI0
aa(lp4
S'distance'
p5
aF168.85807418823242
aa(lp6
S'timestamp'
p7
aF5.1043641567230225
aatp8
Rp9
.ccollections
OrderedDict
p0
((lp1
(lp2
S'state'
p3
aI0
aa(lp4
S'distance'
p5
aF168.85807418823242
aa(lp6
S'timestamp'
p7
aF5.105605125427246
aatp8
Rp9
.ccollections
OrderedDict
p0
((lp1
(lp2
S'state'
p3
aI0
aa(lp4
S'distance'
p5
aF168.85807418823242
aa(lp6
S'timestamp'
p7
aF5.114265203475952
aatp8
Rp9
.ccollections
OrderedDict
p0
((lp1
(lp2
S'state'
p3
aI0
aa(lp4
S'distance'
p5
aF168.85807418823242
aa(lp6
S'timestamp'
p7
aF5.1156370639801025
aatp8
Rp9
.ccollections
OrderedDict
p0
((lp1
(lp2
S'state'
p3
aI0
aa(lp4
S'distance'
p5
aF168.85807418823242
aa(lp6
S'timestamp'
p7
aF5.125514984130859
aatp8
Rp9
.ccollections
OrderedDict
p0
((lp1
(lp2
S'state'
p3
aI0
aa(lp4
S'distance'
p5
aF168.85807418823242
aa(lp6
S'timestamp'
p7
aF5.1259942054748535
aatp8
Rp9
.ccollections
OrderedDict
p0
((lp1
(lp2
S'state'
p3
aI0
aa(lp4
S'distance'
p5
aF168.85807418823242
aa(lp6
S'timestamp'
p7
aF5.136170148849487
aatp8
Rp9
.ccollections
OrderedDict
p0
((lp1
(lp2
S'state'
p3
aI0
aa(lp4
S'distance'
p5
aF168.85807418823242
aa(lp6
S'timestamp'
p7
aF5.136419057846069
aatp8
Rp9
.ccollections
OrderedDict
p0
((lp1
(lp2
S'state'
p3
aI0
aa(lp4
S'distance'
p5
aF168.85807418823242
aa(lp6
S'timestamp'
p7
aF5.146534204483032
aatp8
Rp9
.ccollections
OrderedDict
p0
((lp1
(lp2
S'state'
p3
aI0
aa(lp4
S'distance'
p5
aF168.85807418823242
aa(lp6
S'timestamp'
p7
aF5.152283191680908
aatp8
Rp9
.ccollections
OrderedDict
p0
((lp1
(lp2
S'state'
p3
aI400
aa(lp4
S'distance'
p5
aF168.85807418823242
aa(lp6
S'timestamp'
p7
aF5.1589930057525635
aatp8
Rp9
.ccollections
OrderedDict
p0
((lp1
(lp2
S'state'
p3
aI400
aa(lp4
S'distance'
p5
aF168.85807418823242
aa(lp6
S'timestamp'
p7
aF5.159207105636597
aatp8
Rp9
.ccollections
OrderedDict
p0
((lp1
(lp2
S'state'
p3
aI400
aa(lp4
S'distance'
p5
aF168.85807418823242
aa(lp6
S'timestamp'
p7
aF5.167277097702026
aatp8
Rp9
.ccollections
OrderedDict
p0
((lp1
(lp2
S'state'
p3
aI400
aa(lp4
S'distance'
p5
aF168.85807418823242
aa(lp6
S'timestamp'
p7
aF5.179185152053833
aatp8
Rp9
.ccollections
OrderedDict
p0
((lp1
(lp2
S'state'
p3
aI400
aa(lp4
S'distance'
p5
aF168.85807418823242
aa(lp6
S'timestamp'
p7
aF5.1936821937561035
aatp8
Rp9
.ccollections
OrderedDict
p0
((lp1
(lp2
S'state'
p3
aI400
aa(lp4
S'distance'
p5
aF168.85807418823242
aa(lp6
S'timestamp'
p7
aF5.194298028945923
aatp8
Rp9
.ccollections
OrderedDict
p0
((lp1
(lp2
S'state'
p3
aI400
aa(lp4
S'distance'
p5
aF168.85807418823242
aa(lp6
S'timestamp'
p7
aF5.194593191146851
aatp8
Rp9
.ccollections
OrderedDict
p0
((lp1
(lp2
S'state'
p3
aI400
aa(lp4
S'distance'
p5
aF168.85807418823242
aa(lp6
S'timestamp'
p7
aF5.194807052612305
aatp8
Rp9
.ccollections
OrderedDict
p0
((lp1
(lp2
S'state'
p3
aI400
aa(lp4
S'distance'
p5
aF168.85807418823242
aa(lp6
S'timestamp'
p7
aF5.197494983673096
aatp8
Rp9
.ccollections
OrderedDict
p0
((lp1
(lp2
S'state'
p3
aI400
aa(lp4
S'distance'
p5
aF168.85807418823242
aa(lp6
S'timestamp'
p7
aF5.197912216186523
aatp8
Rp9
.ccollections
OrderedDict
p0
((lp1
(lp2
S'state'
p3
aI400
aa(lp4
S'distance'
p5
aF168.85807418823242
aa(lp6
S'timestamp'
p7
aF5.215173006057739
aatp8
Rp9
.ccollections
OrderedDict
p0
((lp1
(lp2
S'state'
p3
aI400
aa(lp4
S'distance'
p5
aF168.85807418823242
aa(lp6
S'timestamp'
p7
aF5.2164270877838135
aatp8
Rp9
.ccollections
OrderedDict
p0
((lp1
(lp2
S'state'
p3
aI400
aa(lp4
S'distance'
p5
aF168.85807418823242
aa(lp6
S'timestamp'
p7
aF5.2191162109375
aatp8
Rp9
.ccollections
OrderedDict
p0
((lp1
(lp2
S'state'
p3
aI400
aa(lp4
S'distance'
p5
aF168.85807418823242
aa(lp6
S'timestamp'
p7
aF5.22717809677124
aatp8
Rp9
.ccollections
OrderedDict
p0
((lp1
(lp2
S'state'
p3
aI400
aa(lp4
S'distance'
p5
aF168.85807418823242
aa(lp6
S'timestamp'
p7
aF5.2274169921875
aatp8
Rp9
.ccollections
OrderedDict
p0
((lp1
(lp2
S'state'
p3
aI400
aa(lp4
S'distance'
p5
aF168.85807418823242
aa(lp6
S'timestamp'
p7
aF5.228138208389282
aatp8
Rp9
.ccollections
OrderedDict
p0
((lp1
(lp2
S'state'
p3
aI400
aa(lp4
S'distance'
p5
aF168.85807418823242
aa(lp6
S'timestamp'
p7
aF5.243719100952148
aatp8
Rp9
.ccollections
OrderedDict
p0
((lp1
(lp2
S'state'
p3
aI400
aa(lp4
S'distance'
p5
aF168.85807418823242
aa(lp6
S'timestamp'
p7
aF5.247212171554565
aatp8
Rp9
.ccollections
OrderedDict
p0
((lp1
(lp2
S'state'
p3
aI400
aa(lp4
S'distance'
p5
aF168.85807418823242
aa(lp6
S'timestamp'
p7
aF5.256887197494507
aatp8
Rp9
.ccollections
OrderedDict
p0
((lp1
(lp2
S'state'
p3
aI400
aa(lp4
S'distance'
p5
aF168.85807418823242
aa(lp6
S'timestamp'
p7
aF5.2571210861206055
aatp8
Rp9
.ccollections
OrderedDict
p0
((lp1
(lp2
S'state'
p3
aI400
aa(lp4
S'distance'
p5
aF168.85807418823242
aa(lp6
S'timestamp'
p7
aF5.257361173629761
aatp8
Rp9
.ccollections
OrderedDict
p0
((lp1
(lp2
S'state'
p3
aI400
aa(lp4
S'distance'
p5
aF168.85807418823242
aa(lp6
S'timestamp'
p7
aF5.257929086685181
aatp8
Rp9
.ccollections
OrderedDict
p0
((lp1
(lp2
S'state'
p3
aI400
aa(lp4
S'distance'
p5
aF168.85807418823242
aa(lp6
S'timestamp'
p7
aF5.272139072418213
aatp8
Rp9
.ccollections
OrderedDict
p0
((lp1
(lp2
S'state'
p3
aI400
aa(lp4
S'distance'
p5
aF168.85807418823242
aa(lp6
S'timestamp'
p7
aF5.272322177886963
aatp8
Rp9
.ccollections
OrderedDict
p0
((lp1
(lp2
S'state'
p3
aI400
aa(lp4
S'distance'
p5
aF168.85807418823242
aa(lp6
S'timestamp'
p7
aF5.277119159698486
aatp8
Rp9
.ccollections
OrderedDict
p0
((lp1
(lp2
S'state'
p3
aI400
aa(lp4
S'distance'
p5
aF168.85807418823242
aa(lp6
S'timestamp'
p7
aF5.2772932052612305
aatp8
Rp9
.ccollections
OrderedDict
p0
((lp1
(lp2
S'state'
p3
aI400
aa(lp4
S'distance'
p5
aF168.85807418823242
aa(lp6
S'timestamp'
p7
aF5.3005290031433105
aatp8
Rp9
.ccollections
OrderedDict
p0
((lp1
(lp2
S'state'
p3
aI400
aa(lp4
S'distance'
p5
aF168.85807418823242
aa(lp6
S'timestamp'
p7
aF5.307852029800415
aatp8
Rp9
.ccollections
OrderedDict
p0
((lp1
(lp2
S'state'
p3
aI400
aa(lp4
S'distance'
p5
aF168.85807418823242
aa(lp6
S'timestamp'
p7
aF5.3087451457977295
aatp8
Rp9
.ccollections
OrderedDict
p0
((lp1
(lp2
S'state'
p3
aI400
aa(lp4
S'distance'
p5
aF168.85807418823242
aa(lp6
S'timestamp'
p7
aF5.3091161251068115
aatp8
Rp9
.ccollections
OrderedDict
p0
((lp1
(lp2
S'state'
p3
aI400
aa(lp4
S'distance'
p5
aF168.85807418823242
aa(lp6
S'timestamp'
p7
aF5.320795059204102
aatp8
Rp9
.ccollections
OrderedDict
p0
((lp1
(lp2
S'state'
p3
aI400
aa(lp4
S'distance'
p5
aF168.85807418823242
aa(lp6
S'timestamp'
p7
aF5.321011066436768
aatp8
Rp9
.ccollections
OrderedDict
p0
((lp1
(lp2
S'state'
p3
aI400
aa(lp4
S'distance'
p5
aF168.85807418823242
aa(lp6
S'timestamp'
p7
aF5.322352170944214
aatp8
Rp9
.ccollections
OrderedDict
p0
((lp1
(lp2
S'state'
p3
aI400
aa(lp4
S'distance'
p5
aF168.85807418823242
aa(lp6
S'timestamp'
p7
aF5.322625160217285
aatp8
Rp9
.ccollections
OrderedDict
p0
((lp1
(lp2
S'state'
p3
aI400
aa(lp4
S'distance'
p5
aF168.85807418823242
aa(lp6
S'timestamp'
p7
aF5.325016021728516
aatp8
Rp9
.ccollections
OrderedDict
p0
((lp1
(lp2
S'state'
p3
aI400
aa(lp4
S'distance'
p5
aF168.85807418823242
aa(lp6
S'timestamp'
p7
aF5.334248065948486
aatp8
Rp9
.ccollections
OrderedDict
p0
((lp1
(lp2
S'state'
p3
aI400
aa(lp4
S'distance'
p5
aF168.85807418823242
aa(lp6
S'timestamp'
p7
aF5.334825038909912
aatp8
Rp9
.ccollections
OrderedDict
p0
((lp1
(lp2
S'state'
p3
aI400
aa(lp4
S'distance'
p5
aF168.85807418823242
aa(lp6
S'timestamp'
p7
aF5.335604190826416
aatp8
Rp9
.ccollections
OrderedDict
p0
((lp1
(lp2
S'state'
p3
aI400
aa(lp4
S'distance'
p5
aF168.85807418823242
aa(lp6
S'timestamp'
p7
aF5.344274044036865
aatp8
Rp9
.ccollections
OrderedDict
p0
((lp1
(lp2
S'state'
p3
aI400
aa(lp4
S'distance'
p5
aF168.85807418823242
aa(lp6
S'timestamp'
p7
aF5.346513986587524
aatp8
Rp9
.ccollections
OrderedDict
p0
((lp1
(lp2
S'state'
p3
aI400
aa(lp4
S'distance'
p5
aF168.85807418823242
aa(lp6
S'timestamp'
p7
aF5.355054140090942
aatp8
Rp9
.ccollections
OrderedDict
p0
((lp1
(lp2
S'state'
p3
aI400
aa(lp4
S'distance'
p5
aF168.85807418823242
aa(lp6
S'timestamp'
p7
aF5.355208158493042
aatp8
Rp9
.ccollections
OrderedDict
p0
((lp1
(lp2
S'state'
p3
aI400
aa(lp4
S'distance'
p5
aF168.85807418823242
aa(lp6
S'timestamp'
p7
aF5.364310026168823
aatp8
Rp9
.ccollections
OrderedDict
p0
((lp1
(lp2
S'state'
p3
aI400
aa(lp4
S'distance'
p5
aF168.85807418823242
aa(lp6
S'timestamp'
p7
aF5.365133047103882
aatp8
Rp9
.ccollections
OrderedDict
p0
((lp1
(lp2
S'state'
p3
aI400
aa(lp4
S'distance'
p5
aF168.85807418823242
aa(lp6
S'timestamp'
p7
aF5.375545024871826
aatp8
Rp9
.ccollections
OrderedDict
p0
((lp1
(lp2
S'state'
p3
aI400
aa(lp4
S'distance'
p5
aF168.85807418823242
aa(lp6
S'timestamp'
p7
aF5.375638008117676
aatp8
Rp9
.ccollections
OrderedDict
p0
((lp1
(lp2
S'state'
p3
aI400
aa(lp4
S'distance'
p5
aF168.85807418823242
aa(lp6
S'timestamp'
p7
aF5.384340047836304
aatp8
Rp9
.ccollections
OrderedDict
p0
((lp1
(lp2
S'state'
p3
aI400
aa(lp4
S'distance'
p5
aF168.85807418823242
aa(lp6
S'timestamp'
p7
aF5.385439157485962
aatp8
Rp9
.ccollections
OrderedDict
p0
((lp1
(lp2
S'state'
p3
aI400
aa(lp4
S'distance'
p5
aF168.85807418823242
aa(lp6
S'timestamp'
p7
aF5.394244194030762
aatp8
Rp9
.ccollections
OrderedDict
p0
((lp1
(lp2
S'state'
p3
aI400
aa(lp4
S'distance'
p5
aF168.85807418823242
aa(lp6
S'timestamp'
p7
aF5.394893169403076
aatp8
Rp9
.ccollections
OrderedDict
p0
((lp1
(lp2
S'state'
p3
aI400
aa(lp4
S'distance'
p5
aF168.85807418823242
aa(lp6
S'timestamp'
p7
aF5.404702186584473
aatp8
Rp9
.ccollections
OrderedDict
p0
((lp1
(lp2
S'state'
p3
aI400
aa(lp4
S'distance'
p5
aF168.85807418823242
aa(lp6
S'timestamp'
p7
aF5.405031204223633
aatp8
Rp9
.ccollections
OrderedDict
p0
((lp1
(lp2
S'state'
p3
aI400
aa(lp4
S'distance'
p5
aF168.85807418823242
aa(lp6
S'timestamp'
p7
aF5.414375066757202
aatp8
Rp9
.ccollections
OrderedDict
p0
((lp1
(lp2
S'state'
p3
aI400
aa(lp4
S'distance'
p5
aF168.85807418823242
aa(lp6
S'timestamp'
p7
aF5.414924144744873
aatp8
Rp9
.ccollections
OrderedDict
p0
((lp1
(lp2
S'state'
p3
aI400
aa(lp4
S'distance'
p5
aF168.85807418823242
aa(lp6
S'timestamp'
p7
aF5.424313068389893
aatp8
Rp9
.ccollections
OrderedDict
p0
((lp1
(lp2
S'state'
p3
aI400
aa(lp4
S'distance'
p5
aF168.85807418823242
aa(lp6
S'timestamp'
p7
aF5.424975156784058
aatp8
Rp9
.ccollections
OrderedDict
p0
((lp1
(lp2
S'state'
p3
aI400
aa(lp4
S'distance'
p5
aF168.85807418823242
aa(lp6
S'timestamp'
p7
aF5.449609041213989
aatp8
Rp9
.ccollections
OrderedDict
p0
((lp1
(lp2
S'state'
p3
aI400
aa(lp4
S'distance'
p5
aF168.85807418823242
aa(lp6
S'timestamp'
p7
aF5.450074195861816
aatp8
Rp9
.ccollections
OrderedDict
p0
((lp1
(lp2
S'state'
p3
aI400
aa(lp4
S'distance'
p5
aF168.85807418823242
aa(lp6
S'timestamp'
p7
aF5.450201034545898
aatp8
Rp9
.ccollections
OrderedDict
p0
((lp1
(lp2
S'state'
p3
aI400
aa(lp4
S'distance'
p5
aF168.85807418823242
aa(lp6
S'timestamp'
p7
aF5.451419115066528
aatp8
Rp9
.ccollections
OrderedDict
p0
((lp1
(lp2
S'state'
p3
aI400
aa(lp4
S'distance'
p5
aF168.85807418823242
aa(lp6
S'timestamp'
p7
aF5.456243991851807
aatp8
Rp9
.ccollections
OrderedDict
p0
((lp1
(lp2
S'state'
p3
aI400
aa(lp4
S'distance'
p5
aF168.85807418823242
aa(lp6
S'timestamp'
p7
aF5.456484079360962
aatp8
Rp9
.ccollections
OrderedDict
p0
((lp1
(lp2
S'state'
p3
aI400
aa(lp4
S'distance'
p5
aF168.85807418823242
aa(lp6
S'timestamp'
p7
aF5.464959144592285
aatp8
Rp9
.ccollections
OrderedDict
p0
((lp1
(lp2
S'state'
p3
aI400
aa(lp4
S'distance'
p5
aF168.85807418823242
aa(lp6
S'timestamp'
p7
aF5.4654741287231445
aatp8
Rp9
.ccollections
OrderedDict
p0
((lp1
(lp2
S'state'
p3
aI400
aa(lp4
S'distance'
p5
aF168.85807418823242
aa(lp6
S'timestamp'
p7
aF5.474167108535767
aatp8
Rp9
.ccollections
OrderedDict
p0
((lp1
(lp2
S'state'
p3
aI400
aa(lp4
S'distance'
p5
aF168.85807418823242
aa(lp6
S'timestamp'
p7
aF5.474738121032715
aatp8
Rp9
.ccollections
OrderedDict
p0
((lp1
(lp2
S'state'
p3
aI400
aa(lp4
S'distance'
p5
aF168.85807418823242
aa(lp6
S'timestamp'
p7
aF5.494222164154053
aatp8
Rp9
.ccollections
OrderedDict
p0
((lp1
(lp2
S'state'
p3
aI400
aa(lp4
S'distance'
p5
aF168.85807418823242
aa(lp6
S'timestamp'
p7
aF5.496117115020752
aatp8
Rp9
.ccollections
OrderedDict
p0
((lp1
(lp2
S'state'
p3
aI400
aa(lp4
S'distance'
p5
aF168.85807418823242
aa(lp6
S'timestamp'
p7
aF5.497315168380737
aatp8
Rp9
.ccollections
OrderedDict
p0
((lp1
(lp2
S'state'
p3
aI400
aa(lp4
S'distance'
p5
aF168.85807418823242
aa(lp6
S'timestamp'
p7
aF5.497400999069214
aatp8
Rp9
.ccollections
OrderedDict
p0
((lp1
(lp2
S'state'
p3
aI400
aa(lp4
S'distance'
p5
aF168.85807418823242
aa(lp6
S'timestamp'
p7
aF5.514617204666138
aatp8
Rp9
.ccollections
OrderedDict
p0
((lp1
(lp2
S'state'
p3
aI400
aa(lp4
S'distance'
p5
aF168.85807418823242
aa(lp6
S'timestamp'
p7
aF5.515067100524902
aatp8
Rp9
.ccollections
OrderedDict
p0
((lp1
(lp2
S'state'
p3
aI400
aa(lp4
S'distance'
p5
aF168.85807418823242
aa(lp6
S'timestamp'
p7
aF5.51550817489624
aatp8
Rp9
.ccollections
OrderedDict
p0
((lp1
(lp2
S'state'
p3
aI400
aa(lp4
S'distance'
p5
aF168.85807418823242
aa(lp6
S'timestamp'
p7
aF5.5156919956207275
aatp8
Rp9
.ccollections
OrderedDict
p0
((lp1
(lp2
S'state'
p3
aI400
aa(lp4
S'distance'
p5
aF168.85807418823242
aa(lp6
S'timestamp'
p7
aF5.524693012237549
aatp8
Rp9
.ccollections
OrderedDict
p0
((lp1
(lp2
S'state'
p3
aI400
aa(lp4
S'distance'
p5
aF168.85807418823242
aa(lp6
S'timestamp'
p7
aF5.524796009063721
aatp8
Rp9
.ccollections
OrderedDict
p0
((lp1
(lp2
S'state'
p3
aI400
aa(lp4
S'distance'
p5
aF168.85807418823242
aa(lp6
S'timestamp'
p7
aF5.534235000610352
aatp8
Rp9
.ccollections
OrderedDict
p0
((lp1
(lp2
S'state'
p3
aI400
aa(lp4
S'distance'
p5
aF168.85807418823242
aa(lp6
S'timestamp'
p7
aF5.535353183746338
aatp8
Rp9
.ccollections
OrderedDict
p0
((lp1
(lp2
S'state'
p3
aI400
aa(lp4
S'distance'
p5
aF168.85807418823242
aa(lp6
S'timestamp'
p7
aF5.544124126434326
aatp8
Rp9
.ccollections
OrderedDict
p0
((lp1
(lp2
S'state'
p3
aI400
aa(lp4
S'distance'
p5
aF168.85807418823242
aa(lp6
S'timestamp'
p7
aF5.544804096221924
aatp8
Rp9
.ccollections
OrderedDict
p0
((lp1
(lp2
S'state'
p3
aI400
aa(lp4
S'distance'
p5
aF168.85807418823242
aa(lp6
S'timestamp'
p7
aF5.554232120513916
aatp8
Rp9
.ccollections
OrderedDict
p0
((lp1
(lp2
S'state'
p3
aI400
aa(lp4
S'distance'
p5
aF168.85807418823242
aa(lp6
S'timestamp'
p7
aF5.554648160934448
aatp8
Rp9
.ccollections
OrderedDict
p0
((lp1
(lp2
S'state'
p3
aI400
aa(lp4
S'distance'
p5
aF168.85807418823242
aa(lp6
S'timestamp'
p7
aF5.564168214797974
aatp8
Rp9
.ccollections
OrderedDict
p0
((lp1
(lp2
S'state'
p3
aI400
aa(lp4
S'distance'
p5
aF168.85807418823242
aa(lp6
S'timestamp'
p7
aF5.574158191680908
aatp8
Rp9
.ccollections
OrderedDict
p0
((lp1
(lp2
S'state'
p3
aI400
aa(lp4
S'distance'
p5
aF168.85807418823242
aa(lp6
S'timestamp'
p7
aF5.574659109115601
aatp8
Rp9
.ccollections
OrderedDict
p0
((lp1
(lp2
S'state'
p3
aI400
aa(lp4
S'distance'
p5
aF168.85807418823242
aa(lp6
S'timestamp'
p7
aF5.575618028640747
aatp8
Rp9
.ccollections
OrderedDict
p0
((lp1
(lp2
S'state'
p3
aI400
aa(lp4
S'distance'
p5
aF168.85807418823242
aa(lp6
S'timestamp'
p7
aF5.58456015586853
aatp8
Rp9
.ccollections
OrderedDict
p0
((lp1
(lp2
S'state'
p3
aI400
aa(lp4
S'distance'
p5
aF168.85807418823242
aa(lp6
S'timestamp'
p7
aF5.584690093994141
aatp8
Rp9
.ccollections
OrderedDict
p0
((lp1
(lp2
S'state'
p3
aI400
aa(lp4
S'distance'
p5
aF168.85807418823242
aa(lp6
S'timestamp'
p7
aF5.594266176223755
aatp8
Rp9
.ccollections
OrderedDict
p0
((lp1
(lp2
S'state'
p3
aI400
aa(lp4
S'distance'
p5
aF168.85807418823242
aa(lp6
S'timestamp'
p7
aF5.594912052154541
aatp8
Rp9
.ccollections
OrderedDict
p0
((lp1
(lp2
S'state'
p3
aI400
aa(lp4
S'distance'
p5
aF168.85807418823242
aa(lp6
S'timestamp'
p7
aF5.603985071182251
aatp8
Rp9
.ccollections
OrderedDict
p0
((lp1
(lp2
S'state'
p3
aI400
aa(lp4
S'distance'
p5
aF168.85807418823242
aa(lp6
S'timestamp'
p7
aF5.604676008224487
aatp8
Rp9
.ccollections
OrderedDict
p0
((lp1
(lp2
S'state'
p3
aI400
aa(lp4
S'distance'
p5
aF168.85807418823242
aa(lp6
S'timestamp'
p7
aF5.614298105239868
aatp8
Rp9
.ccollections
OrderedDict
p0
((lp1
(lp2
S'state'
p3
aI400
aa(lp4
S'distance'
p5
aF168.85807418823242
aa(lp6
S'timestamp'
p7
aF5.614767074584961
aatp8
Rp9
.ccollections
OrderedDict
p0
((lp1
(lp2
S'state'
p3
aI400
aa(lp4
S'distance'
p5
aF168.85807418823242
aa(lp6
S'timestamp'
p7
aF5.623996019363403
aatp8
Rp9
.ccollections
OrderedDict
p0
((lp1
(lp2
S'state'
p3
aI400
aa(lp4
S'distance'
p5
aF168.85807418823242
aa(lp6
S'timestamp'
p7
aF5.624881982803345
aatp8
Rp9
.ccollections
OrderedDict
p0
((lp1
(lp2
S'state'
p3
aI400
aa(lp4
S'distance'
p5
aF168.85807418823242
aa(lp6
S'timestamp'
p7
aF5.63422417640686
aatp8
Rp9
.ccollections
OrderedDict
p0
((lp1
(lp2
S'state'
p3
aI400
aa(lp4
S'distance'
p5
aF168.85807418823242
aa(lp6
S'timestamp'
p7
aF5.6348021030426025
aatp8
Rp9
.ccollections
OrderedDict
p0
((lp1
(lp2
S'state'
p3
aI400
aa(lp4
S'distance'
p5
aF168.85807418823242
aa(lp6
S'timestamp'
p7
aF5.644522190093994
aatp8
Rp9
.ccollections
OrderedDict
p0
((lp1
(lp2
S'state'
p3
aI400
aa(lp4
S'distance'
p5
aF168.85807418823242
aa(lp6
S'timestamp'
p7
aF5.644702196121216
aatp8
Rp9
.ccollections
OrderedDict
p0
((lp1
(lp2
S'state'
p3
aI400
aa(lp4
S'distance'
p5
aF168.85807418823242
aa(lp6
S'timestamp'
p7
aF5.654330015182495
aatp8
Rp9
.ccollections
OrderedDict
p0
((lp1
(lp2
S'state'
p3
aI400
aa(lp4
S'distance'
p5
aF168.85807418823242
aa(lp6
S'timestamp'
p7
aF5.654739141464233
aatp8
Rp9
.ccollections
OrderedDict
p0
((lp1
(lp2
S'state'
p3
aI400
aa(lp4
S'distance'
p5
aF168.85807418823242
aa(lp6
S'timestamp'
p7
aF5.664136171340942
aatp8
Rp9
.ccollections
OrderedDict
p0
((lp1
(lp2
S'state'
p3
aI400
aa(lp4
S'distance'
p5
aF168.85807418823242
aa(lp6
S'timestamp'
p7
aF5.665389060974121
aatp8
Rp9
.ccollections
OrderedDict
p0
((lp1
(lp2
S'state'
p3
aI400
aa(lp4
S'distance'
p5
aF168.85807418823242
aa(lp6
S'timestamp'
p7
aF5.6741321086883545
aatp8
Rp9
.ccollections
OrderedDict
p0
((lp1
(lp2
S'state'
p3
aI400
aa(lp4
S'distance'
p5
aF168.85807418823242
aa(lp6
S'timestamp'
p7
aF5.67484712600708
aatp8
Rp9
.ccollections
OrderedDict
p0
((lp1
(lp2
S'state'
p3
aI400
aa(lp4
S'distance'
p5
aF168.85807418823242
aa(lp6
S'timestamp'
p7
aF5.684550046920776
aatp8
Rp9
.ccollections
OrderedDict
p0
((lp1
(lp2
S'state'
p3
aI400
aa(lp4
S'distance'
p5
aF168.85807418823242
aa(lp6
S'timestamp'
p7
aF5.684693098068237
aatp8
Rp9
.ccollections
OrderedDict
p0
((lp1
(lp2
S'state'
p3
aI400
aa(lp4
S'distance'
p5
aF168.85807418823242
aa(lp6
S'timestamp'
p7
aF5.694768190383911
aatp8
Rp9
.ccollections
OrderedDict
p0
((lp1
(lp2
S'state'
p3
aI400
aa(lp4
S'distance'
p5
aF168.85807418823242
aa(lp6
S'timestamp'
p7
aF5.694989204406738
aatp8
Rp9
.ccollections
OrderedDict
p0
((lp1
(lp2
S'state'
p3
aI400
aa(lp4
S'distance'
p5
aF168.85807418823242
aa(lp6
S'timestamp'
p7
aF5.704694032669067
aatp8
Rp9
.ccollections
OrderedDict
p0
((lp1
(lp2
S'state'
p3
aI400
aa(lp4
S'distance'
p5
aF168.85807418823242
aa(lp6
S'timestamp'
p7
aF5.705157041549683
aatp8
Rp9
.ccollections
OrderedDict
p0
((lp1
(lp2
S'state'
p3
aI400
aa(lp4
S'distance'
p5
aF168.85807418823242
aa(lp6
S'timestamp'
p7
aF5.714253187179565
aatp8
Rp9
.ccollections
OrderedDict
p0
((lp1
(lp2
S'state'
p3
aI400
aa(lp4
S'distance'
p5
aF168.85807418823242
aa(lp6
S'timestamp'
p7
aF5.715099096298218
aatp8
Rp9
.ccollections
OrderedDict
p0
((lp1
(lp2
S'state'
p3
aI400
aa(lp4
S'distance'
p5
aF168.85807418823242
aa(lp6
S'timestamp'
p7
aF5.724231004714966
aatp8
Rp9
.ccollections
OrderedDict
p0
((lp1
(lp2
S'state'
p3
aI400
aa(lp4
S'distance'
p5
aF168.85807418823242
aa(lp6
S'timestamp'
p7
aF5.724828004837036
aatp8
Rp9
.ccollections
OrderedDict
p0
((lp1
(lp2
S'state'
p3
aI400
aa(lp4
S'distance'
p5
aF168.85807418823242
aa(lp6
S'timestamp'
p7
aF5.734211206436157
aatp8
Rp9
.ccollections
OrderedDict
p0
((lp1
(lp2
S'state'
p3
aI400
aa(lp4
S'distance'
p5
aF168.85807418823242
aa(lp6
S'timestamp'
p7
aF5.735337018966675
aatp8
Rp9
.ccollections
OrderedDict
p0
((lp1
(lp2
S'state'
p3
aI400
aa(lp4
S'distance'
p5
aF168.85807418823242
aa(lp6
S'timestamp'
p7
aF5.744742155075073
aatp8
Rp9
.ccollections
OrderedDict
p0
((lp1
(lp2
S'state'
p3
aI400
aa(lp4
S'distance'
p5
aF168.85807418823242
aa(lp6
S'timestamp'
p7
aF5.745213985443115
aatp8
Rp9
.ccollections
OrderedDict
p0
((lp1
(lp2
S'state'
p3
aI400
aa(lp4
S'distance'
p5
aF168.85807418823242
aa(lp6
S'timestamp'
p7
aF5.754119157791138
aatp8
Rp9
.ccollections
OrderedDict
p0
((lp1
(lp2
S'state'
p3
aI400
aa(lp4
S'distance'
p5
aF168.85807418823242
aa(lp6
S'timestamp'
p7
aF5.755267143249512
aatp8
Rp9
.ccollections
OrderedDict
p0
((lp1
(lp2
S'state'
p3
aI400
aa(lp4
S'distance'
p5
aF168.85807418823242
aa(lp6
S'timestamp'
p7
aF5.764219045639038
aatp8
Rp9
.ccollections
OrderedDict
p0
((lp1
(lp2
S'state'
p3
aI400
aa(lp4
S'distance'
p5
aF168.85807418823242
aa(lp6
S'timestamp'
p7
aF5.765156984329224
aatp8
Rp9
.ccollections
OrderedDict
p0
((lp1
(lp2
S'state'
p3
aI400
aa(lp4
S'distance'
p5
aF168.85807418823242
aa(lp6
S'timestamp'
p7
aF5.784584045410156
aatp8
Rp9
.ccollections
OrderedDict
p0
((lp1
(lp2
S'state'
p3
aI400
aa(lp4
S'distance'
p5
aF168.85807418823242
aa(lp6
S'timestamp'
p7
aF5.784717082977295
aatp8
Rp9
.ccollections
OrderedDict
p0
((lp1
(lp2
S'state'
p3
aI400
aa(lp4
S'distance'
p5
aF168.85807418823242
aa(lp6
S'timestamp'
p7
aF5.7866051197052
aatp8
Rp9
.ccollections
OrderedDict
p0
((lp1
(lp2
S'state'
p3
aI400
aa(lp4
S'distance'
p5
aF168.85807418823242
aa(lp6
S'timestamp'
p7
aF5.786699056625366
aatp8
Rp9
.ccollections
OrderedDict
p0
((lp1
(lp2
S'state'
p3
aI400
aa(lp4
S'distance'
p5
aF168.85807418823242
aa(lp6
S'timestamp'
p7
aF5.794310092926025
aatp8
Rp9
.ccollections
OrderedDict
p0
((lp1
(lp2
S'state'
p3
aI400
aa(lp4
S'distance'
p5
aF168.85807418823242
aa(lp6
S'timestamp'
p7
aF5.795436143875122
aatp8
Rp9
.ccollections
OrderedDict
p0
((lp1
(lp2
S'state'
p3
aI400
aa(lp4
S'distance'
p5
aF168.85807418823242
aa(lp6
S'timestamp'
p7
aF5.804228067398071
aatp8
Rp9
.ccollections
OrderedDict
p0
((lp1
(lp2
S'state'
p3
aI400
aa(lp4
S'distance'
p5
aF168.85807418823242
aa(lp6
S'timestamp'
p7
aF5.805143117904663
aatp8
Rp9
.ccollections
OrderedDict
p0
((lp1
(lp2
S'state'
p3
aI400
aa(lp4
S'distance'
p5
aF168.85807418823242
aa(lp6
S'timestamp'
p7
aF5.814157009124756
aatp8
Rp9
.ccollections
OrderedDict
p0
((lp1
(lp2
S'state'
p3
aI400
aa(lp4
S'distance'
p5
aF168.85807418823242
aa(lp6
S'timestamp'
p7
aF5.8152830600738525
aatp8
Rp9
.ccollections
OrderedDict
p0
((lp1
(lp2
S'state'
p3
aI400
aa(lp4
S'distance'
p5
aF168.85807418823242
aa(lp6
S'timestamp'
p7
aF5.824131011962891
aatp8
Rp9
.ccollections
OrderedDict
p0
((lp1
(lp2
S'state'
p3
aI400
aa(lp4
S'distance'
p5
aF168.85807418823242
aa(lp6
S'timestamp'
p7
aF5.8248021602630615
aatp8
Rp9
.ccollections
OrderedDict
p0
((lp1
(lp2
S'state'
p3
aI400
aa(lp4
S'distance'
p5
aF168.85807418823242
aa(lp6
S'timestamp'
p7
aF5.835391998291016
aatp8
Rp9
.ccollections
OrderedDict
p0
((lp1
(lp2
S'state'
p3
aI400
aa(lp4
S'distance'
p5
aF168.85807418823242
aa(lp6
S'timestamp'
p7
aF5.835782051086426
aatp8
Rp9
.ccollections
OrderedDict
p0
((lp1
(lp2
S'state'
p3
aI400
aa(lp4
S'distance'
p5
aF168.85807418823242
aa(lp6
S'timestamp'
p7
aF5.854907989501953
aatp8
Rp9
.ccollections
OrderedDict
p0
((lp1
(lp2
S'state'
p3
aI400
aa(lp4
S'distance'
p5
aF168.85807418823242
aa(lp6
S'timestamp'
p7
aF5.855142116546631
aatp8
Rp9
.ccollections
OrderedDict
p0
((lp1
(lp2
S'state'
p3
aI400
aa(lp4
S'distance'
p5
aF168.85807418823242
aa(lp6
S'timestamp'
p7
aF5.856161117553711
aatp8
Rp9
.ccollections
OrderedDict
p0
((lp1
(lp2
S'state'
p3
aI400
aa(lp4
S'distance'
p5
aF168.85807418823242
aa(lp6
S'timestamp'
p7
aF5.8569371700286865
aatp8
Rp9
.ccollections
OrderedDict
p0
((lp1
(lp2
S'state'
p3
aI400
aa(lp4
S'distance'
p5
aF168.85807418823242
aa(lp6
S'timestamp'
p7
aF5.864276170730591
aatp8
Rp9
.ccollections
OrderedDict
p0
((lp1
(lp2
S'state'
p3
aI400
aa(lp4
S'distance'
p5
aF168.85807418823242
aa(lp6
S'timestamp'
p7
aF5.8647780418396
aatp8
Rp9
.ccollections
OrderedDict
p0
((lp1
(lp2
S'state'
p3
aI400
aa(lp4
S'distance'
p5
aF168.85807418823242
aa(lp6
S'timestamp'
p7
aF5.874274015426636
aatp8
Rp9
.ccollections
OrderedDict
p0
((lp1
(lp2
S'state'
p3
aI400
aa(lp4
S'distance'
p5
aF168.85807418823242
aa(lp6
S'timestamp'
p7
aF5.874760150909424
aatp8
Rp9
.ccollections
OrderedDict
p0
((lp1
(lp2
S'state'
p3
aI400
aa(lp4
S'distance'
p5
aF168.85807418823242
aa(lp6
S'timestamp'
p7
aF5.884117126464844
aatp8
Rp9
.ccollections
OrderedDict
p0
((lp1
(lp2
S'state'
p3
aI400
aa(lp4
S'distance'
p5
aF168.85807418823242
aa(lp6
S'timestamp'
p7
aF5.884941101074219
aatp8
Rp9
.ccollections
OrderedDict
p0
((lp1
(lp2
S'state'
p3
aI400
aa(lp4
S'distance'
p5
aF168.85807418823242
aa(lp6
S'timestamp'
p7
aF5.904802083969116
aatp8
Rp9
.ccollections
OrderedDict
p0
((lp1
(lp2
S'state'
p3
aI400
aa(lp4
S'distance'
p5
aF168.85807418823242
aa(lp6
S'timestamp'
p7
aF5.905038118362427
aatp8
Rp9
.ccollections
OrderedDict
p0
((lp1
(lp2
S'state'
p3
aI400
aa(lp4
S'distance'
p5
aF168.85807418823242
aa(lp6
S'timestamp'
p7
aF5.9057910442352295
aatp8
Rp9
.ccollections
OrderedDict
p0
((lp1
(lp2
S'state'
p3
aI400
aa(lp4
S'distance'
p5
aF168.85807418823242
aa(lp6
S'timestamp'
p7
aF5.906673192977905
aatp8
Rp9
.ccollections
OrderedDict
p0
((lp1
(lp2
S'state'
p3
aI400
aa(lp4
S'distance'
p5
aF168.85807418823242
aa(lp6
S'timestamp'
p7
aF5.914781093597412
aatp8
Rp9
.ccollections
OrderedDict
p0
((lp1
(lp2
S'state'
p3
aI400
aa(lp4
S'distance'
p5
aF168.85807418823242
aa(lp6
S'timestamp'
p7
aF5.915006160736084
aatp8
Rp9
.ccollections
OrderedDict
p0
((lp1
(lp2
S'state'
p3
aI0
aa(lp4
S'distance'
p5
aF168.85807418823242
aa(lp6
S'timestamp'
p7
aF5.924199104309082
aatp8
Rp9
.ccollections
OrderedDict
p0
((lp1
(lp2
S'state'
p3
aI0
aa(lp4
S'distance'
p5
aF72.94365119934082
aa(lp6
S'timestamp'
p7
aF6.567016124725342
aatp8
Rp9
.ccollections
OrderedDict
p0
((lp1
(lp2
S'state'
p3
aI0
aa(lp4
S'distance'
p5
aF72.94365119934082
aa(lp6
S'timestamp'
p7
aF6.567234992980957
aatp8
Rp9
.ccollections
OrderedDict
p0
((lp1
(lp2
S'state'
p3
aI0
aa(lp4
S'distance'
p5
aF72.94365119934082
aa(lp6
S'timestamp'
p7
aF6.567424058914185
aatp8
Rp9
.ccollections
OrderedDict
p0
((lp1
(lp2
S'state'
p3
aI0
aa(lp4
S'distance'
p5
aF72.94365119934082
aa(lp6
S'timestamp'
p7
aF6.56768012046814
aatp8
Rp9
.ccollections
OrderedDict
p0
((lp1
(lp2
S'state'
p3
aI0
aa(lp4
S'distance'
p5
aF72.94365119934082
aa(lp6
S'timestamp'
p7
aF6.567849159240723
aatp8
Rp9
.ccollections
OrderedDict
p0
((lp1
(lp2
S'state'
p3
aI0
aa(lp4
S'distance'
p5
aF72.94365119934082
aa(lp6
S'timestamp'
p7
aF6.579223155975342
aatp8
Rp9
.ccollections
OrderedDict
p0
((lp1
(lp2
S'state'
p3
aI0
aa(lp4
S'distance'
p5
aF72.94365119934082
aa(lp6
S'timestamp'
p7
aF6.581385135650635
aatp8
Rp9
.ccollections
OrderedDict
p0
((lp1
(lp2
S'state'
p3
aI0
aa(lp4
S'distance'
p5
aF72.94365119934082
aa(lp6
S'timestamp'
p7
aF6.607485055923462
aatp8
Rp9
.ccollections
OrderedDict
p0
((lp1
(lp2
S'state'
p3
aI0
aa(lp4
S'distance'
p5
aF72.94365119934082
aa(lp6
S'timestamp'
p7
aF6.611204147338867
aatp8
Rp9
.ccollections
OrderedDict
p0
((lp1
(lp2
S'state'
p3
aI0
aa(lp4
S'distance'
p5
aF72.94365119934082
aa(lp6
S'timestamp'
p7
aF6.611544132232666
aatp8
Rp9
.ccollections
OrderedDict
p0
((lp1
(lp2
S'state'
p3
aI0
aa(lp4
S'distance'
p5
aF72.94365119934082
aa(lp6
S'timestamp'
p7
aF6.612091064453125
aatp8
Rp9
.ccollections
OrderedDict
p0
((lp1
(lp2
S'state'
p3
aI0
aa(lp4
S'distance'
p5
aF72.94365119934082
aa(lp6
S'timestamp'
p7
aF6.613345146179199
aatp8
Rp9
.ccollections
OrderedDict
p0
((lp1
(lp2
S'state'
p3
aI0
aa(lp4
S'distance'
p5
aF72.94365119934082
aa(lp6
S'timestamp'
p7
aF6.6138081550598145
aatp8
Rp9
.ccollections
OrderedDict
p0
((lp1
(lp2
S'state'
p3
aI0
aa(lp4
S'distance'
p5
aF72.94365119934082
aa(lp6
S'timestamp'
p7
aF6.634872198104858
aatp8
Rp9
.ccollections
OrderedDict
p0
((lp1
(lp2
S'state'
p3
aI0
aa(lp4
S'distance'
p5
aF72.94365119934082
aa(lp6
S'timestamp'
p7
aF6.636682987213135
aatp8
Rp9
.ccollections
OrderedDict
p0
((lp1
(lp2
S'state'
p3
aI0
aa(lp4
S'distance'
p5
aF72.94365119934082
aa(lp6
S'timestamp'
p7
aF6.637477159500122
aatp8
Rp9
.ccollections
OrderedDict
p0
((lp1
(lp2
S'state'
p3
aI0
aa(lp4
S'distance'
p5
aF72.94365119934082
aa(lp6
S'timestamp'
p7
aF6.6484410762786865
aatp8
Rp9
.ccollections
OrderedDict
p0
((lp1
(lp2
S'state'
p3
aI0
aa(lp4
S'distance'
p5
aF72.94365119934082
aa(lp6
S'timestamp'
p7
aF6.6486241817474365
aatp8
Rp9
.ccollections
OrderedDict
p0
((lp1
(lp2
S'state'
p3
aI0
aa(lp4
S'distance'
p5
aF72.94365119934082
aa(lp6
S'timestamp'
p7
aF6.6491382122039795
aatp8
Rp9
.ccollections
OrderedDict
p0
((lp1
(lp2
S'state'
p3
aI0
aa(lp4
S'distance'
p5
aF72.94365119934082
aa(lp6
S'timestamp'
p7
aF6.649492025375366
aatp8
Rp9
.ccollections
OrderedDict
p0
((lp1
(lp2
S'state'
p3
aI0
aa(lp4
S'distance'
p5
aF72.94365119934082
aa(lp6
S'timestamp'
p7
aF6.65390419960022
aatp8
Rp9
.ccollections
OrderedDict
p0
((lp1
(lp2
S'state'
p3
aI0
aa(lp4
S'distance'
p5
aF72.94365119934082
aa(lp6
S'timestamp'
p7
aF6.663156986236572
aatp8
Rp9
.ccollections
OrderedDict
p0
((lp1
(lp2
S'state'
p3
aI0
aa(lp4
S'distance'
p5
aF72.94365119934082
aa(lp6
S'timestamp'
p7
aF6.6632981300354
aatp8
Rp9
.ccollections
OrderedDict
p0
((lp1
(lp2
S'state'
p3
aI0
aa(lp4
S'distance'
p5
aF72.94365119934082
aa(lp6
S'timestamp'
p7
aF6.6684629917144775
aatp8
Rp9
.ccollections
OrderedDict
p0
((lp1
(lp2
S'state'
p3
aI0
aa(lp4
S'distance'
p5
aF72.94365119934082
aa(lp6
S'timestamp'
p7
aF6.668744087219238
aatp8
Rp9
.ccollections
OrderedDict
p0
((lp1
(lp2
S'state'
p3
aI0
aa(lp4
S'distance'
p5
aF72.94365119934082
aa(lp6
S'timestamp'
p7
aF6.675629138946533
aatp8
Rp9
.ccollections
OrderedDict
p0
((lp1
(lp2
S'state'
p3
aI0
aa(lp4
S'distance'
p5
aF72.94365119934082
aa(lp6
S'timestamp'
p7
aF6.675878047943115
aatp8
Rp9
.ccollections
OrderedDict
p0
((lp1
(lp2
S'state'
p3
aI0
aa(lp4
S'distance'
p5
aF72.94365119934082
aa(lp6
S'timestamp'
p7
aF6.685669183731079
aatp8
Rp9
.ccollections
OrderedDict
p0
((lp1
(lp2
S'state'
p3
aI0
aa(lp4
S'distance'
p5
aF72.94365119934082
aa(lp6
S'timestamp'
p7
aF6.686583995819092
aatp8
Rp9
.ccollections
OrderedDict
p0
((lp1
(lp2
S'state'
p3
aI0
aa(lp4
S'distance'
p5
aF72.94365119934082
aa(lp6
S'timestamp'
p7
aF6.695641040802002
aatp8
Rp9
.ccollections
OrderedDict
p0
((lp1
(lp2
S'state'
p3
aI0
aa(lp4
S'distance'
p5
aF72.94365119934082
aa(lp6
S'timestamp'
p7
aF6.696509122848511
aatp8
Rp9
.ccollections
OrderedDict
p0
((lp1
(lp2
S'state'
p3
aI0
aa(lp4
S'distance'
p5
aF72.94365119934082
aa(lp6
S'timestamp'
p7
aF6.705093145370483
aatp8
Rp9
.ccollections
OrderedDict
p0
((lp1
(lp2
S'state'
p3
aI0
aa(lp4
S'distance'
p5
aF72.94365119934082
aa(lp6
S'timestamp'
p7
aF6.705710172653198
aatp8
Rp9
.ccollections
OrderedDict
p0
((lp1
(lp2
S'state'
p3
aI0
aa(lp4
S'distance'
p5
aF72.94365119934082
aa(lp6
S'timestamp'
p7
aF6.716332197189331
aatp8
Rp9
.ccollections
OrderedDict
p0
((lp1
(lp2
S'state'
p3
aI0
aa(lp4
S'distance'
p5
aF72.94365119934082
aa(lp6
S'timestamp'
p7
aF6.716732025146484
aatp8
Rp9
.ccollections
OrderedDict
p0
((lp1
(lp2
S'state'
p3
aI0
aa(lp4
S'distance'
p5
aF72.94365119934082
aa(lp6
S'timestamp'
p7
aF6.7250871658325195
aatp8
Rp9
.ccollections
OrderedDict
p0
((lp1
(lp2
S'state'
p3
aI0
aa(lp4
S'distance'
p5
aF72.94365119934082
aa(lp6
S'timestamp'
p7
aF6.725475072860718
aatp8
Rp9
.ccollections
OrderedDict
p0
((lp1
(lp2
S'state'
p3
aI0
aa(lp4
S'distance'
p5
aF72.94365119934082
aa(lp6
S'timestamp'
p7
aF6.734759092330933
aatp8
Rp9
.ccollections
OrderedDict
p0
((lp1
(lp2
S'state'
p3
aI0
aa(lp4
S'distance'
p5
aF72.94365119934082
aa(lp6
S'timestamp'
p7
aF6.73573899269104
aatp8
Rp9
.ccollections
OrderedDict
p0
((lp1
(lp2
S'state'
p3
aI0
aa(lp4
S'distance'
p5
aF72.94365119934082
aa(lp6
S'timestamp'
p7
aF6.745652198791504
aatp8
Rp9
.ccollections
OrderedDict
p0
((lp1
(lp2
S'state'
p3
aI0
aa(lp4
S'distance'
p5
aF72.94365119934082
aa(lp6
S'timestamp'
p7
aF6.745920181274414
aatp8
Rp9
.ccollections
OrderedDict
p0
((lp1
(lp2
S'state'
p3
aI0
aa(lp4
S'distance'
p5
aF72.94365119934082
aa(lp6
S'timestamp'
p7
aF6.754565000534058
aatp8
Rp9
.ccollections
OrderedDict
p0
((lp1
(lp2
S'state'
p3
aI0
aa(lp4
S'distance'
p5
aF72.94365119934082
aa(lp6
S'timestamp'
p7
aF6.756188154220581
aatp8
Rp9
.ccollections
OrderedDict
p0
((lp1
(lp2
S'state'
p3
aI0
aa(lp4
S'distance'
p5
aF72.94365119934082
aa(lp6
S'timestamp'
p7
aF6.766177177429199
aatp8
Rp9
.ccollections
OrderedDict
p0
((lp1
(lp2
S'state'
p3
aI0
aa(lp4
S'distance'
p5
aF72.94365119934082
aa(lp6
S'timestamp'
p7
aF6.766805171966553
aatp8
Rp9
.ccollections
OrderedDict
p0
((lp1
(lp2
S'state'
p3
aI0
aa(lp4
S'distance'
p5
aF72.94365119934082
aa(lp6
S'timestamp'
p7
aF6.77462100982666
aatp8
Rp9
.ccollections
OrderedDict
p0
((lp1
(lp2
S'state'
p3
aI0
aa(lp4
S'distance'
p5
aF72.94365119934082
aa(lp6
S'timestamp'
p7
aF6.775197982788086
aatp8
Rp9
.ccollections
OrderedDict
p0
((lp1
(lp2
S'state'
p3
aI0
aa(lp4
S'distance'
p5
aF72.94365119934082
aa(lp6
S'timestamp'
p7
aF6.784408092498779
aatp8
Rp9
.ccollections
OrderedDict
p0
((lp1
(lp2
S'state'
p3
aI0
aa(lp4
S'distance'
p5
aF72.94365119934082
aa(lp6
S'timestamp'
p7
aF6.785175085067749
aatp8
Rp9
.ccollections
OrderedDict
p0
((lp1
(lp2
S'state'
p3
aI0
aa(lp4
S'distance'
p5
aF72.94365119934082
aa(lp6
S'timestamp'
p7
aF6.795732021331787
aatp8
Rp9
.ccollections
OrderedDict
p0
((lp1
(lp2
S'state'
p3
aI0
aa(lp4
S'distance'
p5
aF72.94365119934082
aa(lp6
S'timestamp'
p7
aF6.7961320877075195
aatp8
Rp9
.ccollections
OrderedDict
p0
((lp1
(lp2
S'state'
p3
aI0
aa(lp4
S'distance'
p5
aF72.94365119934082
aa(lp6
S'timestamp'
p7
aF6.806080102920532
aatp8
Rp9
.ccollections
OrderedDict
p0
((lp1
(lp2
S'state'
p3
aI0
aa(lp4
S'distance'
p5
aF72.94365119934082
aa(lp6
S'timestamp'
p7
aF6.806228160858154
aatp8
Rp9
.ccollections
OrderedDict
p0
((lp1
(lp2
S'state'
p3
aI0
aa(lp4
S'distance'
p5
aF72.94365119934082
aa(lp6
S'timestamp'
p7
aF6.8155601024627686
aatp8
Rp9
.ccollections
OrderedDict
p0
((lp1
(lp2
S'state'
p3
aI0
aa(lp4
S'distance'
p5
aF72.94365119934082
aa(lp6
S'timestamp'
p7
aF6.817442178726196
aatp8
Rp9
.ccollections
OrderedDict
p0
((lp1
(lp2
S'state'
p3
aI0
aa(lp4
S'distance'
p5
aF72.94365119934082
aa(lp6
S'timestamp'
p7
aF6.8258960247039795
aatp8
Rp9
.ccollections
OrderedDict
p0
((lp1
(lp2
S'state'
p3
aI0
aa(lp4
S'distance'
p5
aF72.94365119934082
aa(lp6
S'timestamp'
p7
aF6.8261191844940186
aatp8
Rp9
.ccollections
OrderedDict
p0
((lp1
(lp2
S'state'
p3
aI0
aa(lp4
S'distance'
p5
aF72.94365119934082
aa(lp6
S'timestamp'
p7
aF6.834425210952759
aatp8
Rp9
.ccollections
OrderedDict
p0
((lp1
(lp2
S'state'
p3
aI0
aa(lp4
S'distance'
p5
aF72.94365119934082
aa(lp6
S'timestamp'
p7
aF6.83556604385376
aatp8
Rp9
.ccollections
OrderedDict
p0
((lp1
(lp2
S'state'
p3
aI0
aa(lp4
S'distance'
p5
aF72.94365119934082
aa(lp6
S'timestamp'
p7
aF6.844225168228149
aatp8
Rp9
.ccollections
OrderedDict
p0
((lp1
(lp2
S'state'
p3
aI0
aa(lp4
S'distance'
p5
aF72.94365119934082
aa(lp6
S'timestamp'
p7
aF6.845360994338989
aatp8
Rp9
.ccollections
OrderedDict
p0
((lp1
(lp2
S'state'
p3
aI0
aa(lp4
S'distance'
p5
aF72.94365119934082
aa(lp6
S'timestamp'
p7
aF6.86487603187561
aatp8
Rp9
.ccollections
OrderedDict
p0
((lp1
(lp2
S'state'
p3
aI0
aa(lp4
S'distance'
p5
aF72.94365119934082
aa(lp6
S'timestamp'
p7
aF6.865511178970337
aatp8
Rp9
.ccollections
OrderedDict
p0
((lp1
(lp2
S'state'
p3
aI0
aa(lp4
S'distance'
p5
aF72.94365119934082
aa(lp6
S'timestamp'
p7
aF6.86693000793457
aatp8
Rp9
.ccollections
OrderedDict
p0
((lp1
(lp2
S'state'
p3
aI0
aa(lp4
S'distance'
p5
aF72.94365119934082
aa(lp6
S'timestamp'
p7
aF6.8680031299591064
aatp8
Rp9
.ccollections
OrderedDict
p0
((lp1
(lp2
S'state'
p3
aI0
aa(lp4
S'distance'
p5
aF72.94365119934082
aa(lp6
S'timestamp'
p7
aF6.875590085983276
aatp8
Rp9
.ccollections
OrderedDict
p0
((lp1
(lp2
S'state'
p3
aI0
aa(lp4
S'distance'
p5
aF72.94365119934082
aa(lp6
S'timestamp'
p7
aF6.884821176528931
aatp8
Rp9
.ccollections
OrderedDict
p0
((lp1
(lp2
S'state'
p3
aI0
aa(lp4
S'distance'
p5
aF72.94365119934082
aa(lp6
S'timestamp'
p7
aF6.88515305519104
aatp8
Rp9
.ccollections
OrderedDict
p0
((lp1
(lp2
S'state'
p3
aI0
aa(lp4
S'distance'
p5
aF72.94365119934082
aa(lp6
S'timestamp'
p7
aF6.8854169845581055
aatp8
Rp9
.ccollections
OrderedDict
p0
((lp1
(lp2
S'state'
p3
aI0
aa(lp4
S'distance'
p5
aF72.94365119934082
aa(lp6
S'timestamp'
p7
aF6.894369125366211
aatp8
Rp9
.ccollections
OrderedDict
p0
((lp1
(lp2
S'state'
p3
aI0
aa(lp4
S'distance'
p5
aF72.94365119934082
aa(lp6
S'timestamp'
p7
aF6.895573139190674
aatp8
Rp9
.ccollections
OrderedDict
p0
((lp1
(lp2
S'state'
p3
aI0
aa(lp4
S'distance'
p5
aF72.94365119934082
aa(lp6
S'timestamp'
p7
aF6.904384136199951
aatp8
Rp9
.ccollections
OrderedDict
p0
((lp1
(lp2
S'state'
p3
aI0
aa(lp4
S'distance'
p5
aF72.94365119934082
aa(lp6
S'timestamp'
p7
aF6.905533075332642
aatp8
Rp9
.ccollections
OrderedDict
p0
((lp1
(lp2
S'state'
p3
aI0
aa(lp4
S'distance'
p5
aF72.94365119934082
aa(lp6
S'timestamp'
p7
aF6.916550159454346
aatp8
Rp9
.ccollections
OrderedDict
p0
((lp1
(lp2
S'state'
p3
aI0
aa(lp4
S'distance'
p5
aF72.94365119934082
aa(lp6
S'timestamp'
p7
aF6.916719198226929
aatp8
Rp9
.ccollections
OrderedDict
p0
((lp1
(lp2
S'state'
p3
aI0
aa(lp4
S'distance'
p5
aF72.94365119934082
aa(lp6
S'timestamp'
p7
aF6.925628185272217
aatp8
Rp9
.ccollections
OrderedDict
p0
((lp1
(lp2
S'state'
p3
aI0
aa(lp4
S'distance'
p5
aF72.94365119934082
aa(lp6
S'timestamp'
p7
aF6.925801992416382
aatp8
Rp9
.ccollections
OrderedDict
p0
((lp1
(lp2
S'state'
p3
aI0
aa(lp4
S'distance'
p5
aF72.94365119934082
aa(lp6
S'timestamp'
p7
aF6.93452000617981
aatp8
Rp9
.ccollections
OrderedDict
p0
((lp1
(lp2
S'state'
p3
aI0
aa(lp4
S'distance'
p5
aF72.94365119934082
aa(lp6
S'timestamp'
p7
aF6.935695171356201
aatp8
Rp9
.ccollections
OrderedDict
p0
((lp1
(lp2
S'state'
p3
aI0
aa(lp4
S'distance'
p5
aF72.94365119934082
aa(lp6
S'timestamp'
p7
aF6.944562196731567
aatp8
Rp9
.ccollections
OrderedDict
p0
((lp1
(lp2
S'state'
p3
aI0
aa(lp4
S'distance'
p5
aF72.94365119934082
aa(lp6
S'timestamp'
p7
aF6.945890188217163
aatp8
Rp9
.ccollections
OrderedDict
p0
((lp1
(lp2
S'state'
p3
aI0
aa(lp4
S'distance'
p5
aF72.94365119934082
aa(lp6
S'timestamp'
p7
aF6.955283164978027
aatp8
Rp9
.ccollections
OrderedDict
p0
((lp1
(lp2
S'state'
p3
aI0
aa(lp4
S'distance'
p5
aF72.94365119934082
aa(lp6
S'timestamp'
p7
aF6.955397129058838
aatp8
Rp9
.ccollections
OrderedDict
p0
((lp1
(lp2
S'state'
p3
aI0
aa(lp4
S'distance'
p5
aF72.94365119934082
aa(lp6
S'timestamp'
p7
aF6.964651107788086
aatp8
Rp9
.ccollections
OrderedDict
p0
((lp1
(lp2
S'state'
p3
aI0
aa(lp4
S'distance'
p5
aF72.94365119934082
aa(lp6
S'timestamp'
p7
aF6.965705156326294
aatp8
Rp9
.ccollections
OrderedDict
p0
((lp1
(lp2
S'state'
p3
aI0
aa(lp4
S'distance'
p5
aF72.94365119934082
aa(lp6
S'timestamp'
p7
aF6.975058078765869
aatp8
Rp9
.ccollections
OrderedDict
p0
((lp1
(lp2
S'state'
p3
aI0
aa(lp4
S'distance'
p5
aF72.94365119934082
aa(lp6
S'timestamp'
p7
aF6.9752771854400635
aatp8
Rp9
.ccollections
OrderedDict
p0
((lp1
(lp2
S'state'
p3
aI0
aa(lp4
S'distance'
p5
aF72.94365119934082
aa(lp6
S'timestamp'
p7
aF6.984534025192261
aatp8
Rp9
.ccollections
OrderedDict
p0
((lp1
(lp2
S'state'
p3
aI0
aa(lp4
S'distance'
p5
aF72.94365119934082
aa(lp6
S'timestamp'
p7
aF6.985134124755859
aatp8
Rp9
.ccollections
OrderedDict
p0
((lp1
(lp2
S'state'
p3
aI0
aa(lp4
S'distance'
p5
aF72.94365119934082
aa(lp6
S'timestamp'
p7
aF6.994502067565918
aatp8
Rp9
.ccollections
OrderedDict
p0
((lp1
(lp2
S'state'
p3
aI0
aa(lp4
S'distance'
p5
aF72.94365119934082
aa(lp6
S'timestamp'
p7
aF6.9948461055755615
aatp8
Rp9
.ccollections
OrderedDict
p0
((lp1
(lp2
S'state'
p3
aI0
aa(lp4
S'distance'
p5
aF72.94365119934082
aa(lp6
S'timestamp'
p7
aF7.005198001861572
aatp8
Rp9
.ccollections
OrderedDict
p0
((lp1
(lp2
S'state'
p3
aI0
aa(lp4
S'distance'
p5
aF72.94365119934082
aa(lp6
S'timestamp'
p7
aF7.005352020263672
aatp8
Rp9
.ccollections
OrderedDict
p0
((lp1
(lp2
S'state'
p3
aI0
aa(lp4
S'distance'
p5
aF72.94365119934082
aa(lp6
S'timestamp'
p7
aF7.0145580768585205
aatp8
Rp9
.ccollections
OrderedDict
p0
((lp1
(lp2
S'state'
p3
aI0
aa(lp4
S'distance'
p5
aF72.94365119934082
aa(lp6
S'timestamp'
p7
aF7.015408039093018
aatp8
Rp9
.ccollections
OrderedDict
p0
((lp1
(lp2
S'state'
p3
aI0
aa(lp4
S'distance'
p5
aF72.94365119934082
aa(lp6
S'timestamp'
p7
aF7.025498151779175
aatp8
Rp9
.ccollections
OrderedDict
p0
((lp1
(lp2
S'state'
p3
aI0
aa(lp4
S'distance'
p5
aF72.94365119934082
aa(lp6
S'timestamp'
p7
aF7.025712013244629
aatp8
Rp9
.ccollections
OrderedDict
p0
((lp1
(lp2
S'state'
p3
aI0
aa(lp4
S'distance'
p5
aF72.94365119934082
aa(lp6
S'timestamp'
p7
aF7.034910202026367
aatp8
Rp9
.ccollections
OrderedDict
p0
((lp1
(lp2
S'state'
p3
aI0
aa(lp4
S'distance'
p5
aF72.94365119934082
aa(lp6
S'timestamp'
p7
aF7.055147171020508
aatp8
Rp9
.ccollections
OrderedDict
p0
((lp1
(lp2
S'state'
p3
aI0
aa(lp4
S'distance'
p5
aF72.94365119934082
aa(lp6
S'timestamp'
p7
aF7.0556800365448
aatp8
Rp9
.ccollections
OrderedDict
p0
((lp1
(lp2
S'state'
p3
aI0
aa(lp4
S'distance'
p5
aF72.94365119934082
aa(lp6
S'timestamp'
p7
aF7.056030988693237
aatp8
Rp9
.ccollections
OrderedDict
p0
((lp1
(lp2
S'state'
p3
aI0
aa(lp4
S'distance'
p5
aF72.94365119934082
aa(lp6
S'timestamp'
p7
aF7.056949138641357
aatp8
Rp9
.ccollections
OrderedDict
p0
((lp1
(lp2
S'state'
p3
aI0
aa(lp4
S'distance'
p5
aF72.94365119934082
aa(lp6
S'timestamp'
p7
aF7.064836025238037
aatp8
Rp9
.ccollections
OrderedDict
p0
((lp1
(lp2
S'state'
p3
aI0
aa(lp4
S'distance'
p5
aF72.94365119934082
aa(lp6
S'timestamp'
p7
aF7.065104007720947
aatp8
Rp9
.ccollections
OrderedDict
p0
((lp1
(lp2
S'state'
p3
aI0
aa(lp4
S'distance'
p5
aF72.94365119934082
aa(lp6
S'timestamp'
p7
aF7.07450008392334
aatp8
Rp9
.ccollections
OrderedDict
p0
((lp1
(lp2
S'state'
p3
aI0
aa(lp4
S'distance'
p5
aF72.94365119934082
aa(lp6
S'timestamp'
p7
aF7.075622081756592
aatp8
Rp9
.ccollections
OrderedDict
p0
((lp1
(lp2
S'state'
p3
aI0
aa(lp4
S'distance'
p5
aF72.94365119934082
aa(lp6
S'timestamp'
p7
aF7.075730085372925
aatp8
Rp9
.ccollections
OrderedDict
p0
((lp1
(lp2
S'state'
p3
aI0
aa(lp4
S'distance'
p5
aF72.94365119934082
aa(lp6
S'timestamp'
p7
aF7.085039138793945
aatp8
Rp9
.ccollections
OrderedDict
p0
((lp1
(lp2
S'state'
p3
aI0
aa(lp4
S'distance'
p5
aF72.94365119934082
aa(lp6
S'timestamp'
p7
aF7.08516001701355
aatp8
Rp9
.ccollections
OrderedDict
p0
((lp1
(lp2
S'state'
p3
aI0
aa(lp4
S'distance'
p5
aF72.94365119934082
aa(lp6
S'timestamp'
p7
aF7.094525098800659
aatp8
Rp9
.ccollections
OrderedDict
p0
((lp1
(lp2
S'state'
p3
aI0
aa(lp4
S'distance'
p5
aF72.94365119934082
aa(lp6
S'timestamp'
p7
aF7.096168041229248
aatp8
Rp9
.ccollections
OrderedDict
p0
((lp1
(lp2
S'state'
p3
aI0
aa(lp4
S'distance'
p5
aF72.94365119934082
aa(lp6
S'timestamp'
p7
aF7.105351209640503
aatp8
Rp9
.ccollections
OrderedDict
p0
((lp1
(lp2
S'state'
p3
aI0
aa(lp4
S'distance'
p5
aF72.94365119934082
aa(lp6
S'timestamp'
p7
aF7.114850044250488
aatp8
Rp9
.ccollections
OrderedDict
p0
((lp1
(lp2
S'state'
p3
aI0
aa(lp4
S'distance'
p5
aF72.94365119934082
aa(lp6
S'timestamp'
p7
aF7.115109205245972
aatp8
Rp9
.ccollections
OrderedDict
p0
((lp1
(lp2
S'state'
p3
aI0
aa(lp4
S'distance'
p5
aF72.94365119934082
aa(lp6
S'timestamp'
p7
aF7.115965127944946
aatp8
Rp9
.ccollections
OrderedDict
p0
((lp1
(lp2
S'state'
p3
aI0
aa(lp4
S'distance'
p5
aF72.94365119934082
aa(lp6
S'timestamp'
p7
aF7.124450206756592
aatp8
Rp9
.ccollections
OrderedDict
p0
((lp1
(lp2
S'state'
p3
aI0
aa(lp4
S'distance'
p5
aF72.94365119934082
aa(lp6
S'timestamp'
p7
aF7.125721216201782
aatp8
Rp9
.ccollections
OrderedDict
p0
((lp1
(lp2
S'state'
p3
aI0
aa(lp4
S'distance'
p5
aF72.94365119934082
aa(lp6
S'timestamp'
p7
aF7.134515047073364
aatp8
Rp9
.ccollections
OrderedDict
p0
((lp1
(lp2
S'state'
p3
aI0
aa(lp4
S'distance'
p5
aF72.94365119934082
aa(lp6
S'timestamp'
p7
aF7.136274099349976
aatp8
Rp9
.ccollections
OrderedDict
p0
((lp1
(lp2
S'state'
p3
aI0
aa(lp4
S'distance'
p5
aF72.94365119934082
aa(lp6
S'timestamp'
p7
aF7.145309209823608
aatp8
Rp9
.ccollections
OrderedDict
p0
((lp1
(lp2
S'state'
p3
aI0
aa(lp4
S'distance'
p5
aF72.94365119934082
aa(lp6
S'timestamp'
p7
aF7.145467042922974
aatp8
Rp9
.ccollections
OrderedDict
p0
((lp1
(lp2
S'state'
p3
aI0
aa(lp4
S'distance'
p5
aF72.94365119934082
aa(lp6
S'timestamp'
p7
aF7.164550065994263
aatp8
Rp9
.ccollections
OrderedDict
p0
((lp1
(lp2
S'state'
p3
aI0
aa(lp4
S'distance'
p5
aF72.94365119934082
aa(lp6
S'timestamp'
p7
aF7.1652891635894775
aatp8
Rp9
.ccollections
OrderedDict
p0
((lp1
(lp2
S'state'
p3
aI0
aa(lp4
S'distance'
p5
aF72.94365119934082
aa(lp6
S'timestamp'
p7
aF7.165679216384888
aatp8
Rp9
.ccollections
OrderedDict
p0
((lp1
(lp2
S'state'
p3
aI0
aa(lp4
S'distance'
p5
aF72.94365119934082
aa(lp6
S'timestamp'
p7
aF7.1666951179504395
aatp8
Rp9
.ccollections
OrderedDict
p0
((lp1
(lp2
S'state'
p3
aI0
aa(lp4
S'distance'
p5
aF72.94365119934082
aa(lp6
S'timestamp'
p7
aF7.185590982437134
aatp8
Rp9
.ccollections
OrderedDict
p0
((lp1
(lp2
S'state'
p3
aI0
aa(lp4
S'distance'
p5
aF72.94365119934082
aa(lp6
S'timestamp'
p7
aF7.195218086242676
aatp8
Rp9
.ccollections
OrderedDict
p0
((lp1
(lp2
S'state'
p3
aI0
aa(lp4
S'distance'
p5
aF72.94365119934082
aa(lp6
S'timestamp'
p7
aF7.1957080364227295
aatp8
Rp9
.ccollections
OrderedDict
p0
((lp1
(lp2
S'state'
p3
aI0
aa(lp4
S'distance'
p5
aF72.94365119934082
aa(lp6
S'timestamp'
p7
aF7.204609155654907
aatp8
Rp9
.ccollections
OrderedDict
p0
((lp1
(lp2
S'state'
p3
aI0
aa(lp4
S'distance'
p5
aF72.94365119934082
aa(lp6
S'timestamp'
p7
aF7.205648183822632
aatp8
Rp9
.ccollections
OrderedDict
p0
((lp1
(lp2
S'state'
p3
aI0
aa(lp4
S'distance'
p5
aF72.94365119934082
aa(lp6
S'timestamp'
p7
aF7.214906215667725
aatp8
Rp9
.ccollections
OrderedDict
p0
((lp1
(lp2
S'state'
p3
aI0
aa(lp4
S'distance'
p5
aF72.94365119934082
aa(lp6
S'timestamp'
p7
aF7.215903997421265
aatp8
Rp9
.ccollections
OrderedDict
p0
((lp1
(lp2
S'state'
p3
aI0
aa(lp4
S'distance'
p5
aF72.94365119934082
aa(lp6
S'timestamp'
p7
aF7.216081142425537
aatp8
Rp9
.ccollections
OrderedDict
p0
((lp1
(lp2
S'state'
p3
aI0
aa(lp4
S'distance'
p5
aF72.94365119934082
aa(lp6
S'timestamp'
p7
aF7.21719217300415
aatp8
Rp9
.ccollections
OrderedDict
p0
((lp1
(lp2
S'state'
p3
aI0
aa(lp4
S'distance'
p5
aF72.94365119934082
aa(lp6
S'timestamp'
p7
aF7.225239992141724
aatp8
Rp9
.ccollections
OrderedDict
p0
((lp1
(lp2
S'state'
p3
aI0
aa(lp4
S'distance'
p5
aF72.94365119934082
aa(lp6
S'timestamp'
p7
aF7.23535418510437
aatp8
Rp9
.ccollections
OrderedDict
p0
((lp1
(lp2
S'state'
p3
aI0
aa(lp4
S'distance'
p5
aF72.94365119934082
aa(lp6
S'timestamp'
p7
aF7.2377769947052
aatp8
Rp9
.ccollections
OrderedDict
p0
((lp1
(lp2
S'state'
p3
aI0
aa(lp4
S'distance'
p5
aF72.94365119934082
aa(lp6
S'timestamp'
p7
aF7.247479200363159
aatp8
Rp9
.ccollections
OrderedDict
p0
((lp1
(lp2
S'state'
p3
aI0
aa(lp4
S'distance'
p5
aF72.94365119934082
aa(lp6
S'timestamp'
p7
aF7.24808406829834
aatp8
Rp9
.ccollections
OrderedDict
p0
((lp1
(lp2
S'state'
p3
aI0
aa(lp4
S'distance'
p5
aF72.94365119934082
aa(lp6
S'timestamp'
p7
aF7.250904083251953
aatp8
Rp9
.ccollections
OrderedDict
p0
((lp1
(lp2
S'state'
p3
aI0
aa(lp4
S'distance'
p5
aF72.94365119934082
aa(lp6
S'timestamp'
p7
aF7.251358985900879
aatp8
Rp9
.ccollections
OrderedDict
p0
((lp1
(lp2
S'state'
p3
aI0
aa(lp4
S'distance'
p5
aF72.94365119934082
aa(lp6
S'timestamp'
p7
aF7.2574779987335205
aatp8
Rp9
.ccollections
OrderedDict
p0
((lp1
(lp2
S'state'
p3
aI0
aa(lp4
S'distance'
p5
aF72.94365119934082
aa(lp6
S'timestamp'
p7
aF7.257619142532349
aatp8
Rp9
.ccollections
OrderedDict
p0
((lp1
(lp2
S'state'
p3
aI0
aa(lp4
S'distance'
p5
aF72.94365119934082
aa(lp6
S'timestamp'
p7
aF7.267282009124756
aatp8
Rp9
.ccollections
OrderedDict
p0
((lp1
(lp2
S'state'
p3
aI0
aa(lp4
S'distance'
p5
aF72.94365119934082
aa(lp6
S'timestamp'
p7
aF7.268599987030029
aatp8
Rp9
.ccollections
OrderedDict
p0
((lp1
(lp2
S'state'
p3
aI0
aa(lp4
S'distance'
p5
aF72.94365119934082
aa(lp6
S'timestamp'
p7
aF7.277029037475586
aatp8
Rp9
.ccollections
OrderedDict
p0
((lp1
(lp2
S'state'
p3
aI0
aa(lp4
S'distance'
p5
aF72.94365119934082
aa(lp6
S'timestamp'
p7
aF7.277346134185791
aatp8
Rp9
.ccollections
OrderedDict
p0
((lp1
(lp2
S'state'
p3
aI0
aa(lp4
S'distance'
p5
aF72.94365119934082
aa(lp6
S'timestamp'
p7
aF7.298278093338013
aatp8
Rp9
.ccollections
OrderedDict
p0
((lp1
(lp2
S'state'
p3
aI0
aa(lp4
S'distance'
p5
aF72.94365119934082
aa(lp6
S'timestamp'
p7
aF7.2987000942230225
aatp8
Rp9
.ccollections
OrderedDict
p0
((lp1
(lp2
S'state'
p3
aI0
aa(lp4
S'distance'
p5
aF72.94365119934082
aa(lp6
S'timestamp'
p7
aF7.29887318611145
aatp8
Rp9
.ccollections
OrderedDict
p0
((lp1
(lp2
S'state'
p3
aI0
aa(lp4
S'distance'
p5
aF72.94365119934082
aa(lp6
S'timestamp'
p7
aF7.299177169799805
aatp8
Rp9
.ccollections
OrderedDict
p0
((lp1
(lp2
S'state'
p3
aI0
aa(lp4
S'distance'
p5
aF72.94365119934082
aa(lp6
S'timestamp'
p7
aF7.317502021789551
aatp8
Rp9
.ccollections
OrderedDict
p0
((lp1
(lp2
S'state'
p3
aI0
aa(lp4
S'distance'
p5
aF72.94365119934082
aa(lp6
S'timestamp'
p7
aF7.317732095718384
aatp8
Rp9
.ccollections
OrderedDict
p0
((lp1
(lp2
S'state'
p3
aI0
aa(lp4
S'distance'
p5
aF72.94365119934082
aa(lp6
S'timestamp'
p7
aF7.324934005737305
aatp8
Rp9
.ccollections
OrderedDict
p0
((lp1
(lp2
S'state'
p3
aI0
aa(lp4
S'distance'
p5
aF72.94365119934082
aa(lp6
S'timestamp'
p7
aF7.330425024032593
aatp8
Rp9
.ccollections
OrderedDict
p0
((lp1
(lp2
S'state'
p3
aI0
aa(lp4
S'distance'
p5
aF72.94365119934082
aa(lp6
S'timestamp'
p7
aF7.330696105957031
aatp8
Rp9
.ccollections
OrderedDict
p0
((lp1
(lp2
S'state'
p3
aI0
aa(lp4
S'distance'
p5
aF72.94365119934082
aa(lp6
S'timestamp'
p7
aF7.330880165100098
aatp8
Rp9
.ccollections
OrderedDict
p0
((lp1
(lp2
S'state'
p3
aI0
aa(lp4
S'distance'
p5
aF72.94365119934082
aa(lp6
S'timestamp'
p7
aF7.335837125778198
aatp8
Rp9
.ccollections
OrderedDict
p0
((lp1
(lp2
S'state'
p3
aI0
aa(lp4
S'distance'
p5
aF72.94365119934082
aa(lp6
S'timestamp'
p7
aF7.335961103439331
aatp8
Rp9
.ccollections
OrderedDict
p0
((lp1
(lp2
S'state'
p3
aI0
aa(lp4
S'distance'
p5
aF72.94365119934082
aa(lp6
S'timestamp'
p7
aF7.344644069671631
aatp8
Rp9
.ccollections
OrderedDict
p0
((lp1
(lp2
S'state'
p3
aI0
aa(lp4
S'distance'
p5
aF72.94365119934082
aa(lp6
S'timestamp'
p7
aF7.346121072769165
aatp8
Rp9
.ccollections
OrderedDict
p0
((lp1
(lp2
S'state'
p3
aI0
aa(lp4
S'distance'
p5
aF72.94365119934082
aa(lp6
S'timestamp'
p7
aF7.35457706451416
aatp8
Rp9
.ccollections
OrderedDict
p0
((lp1
(lp2
S'state'
p3
aI0
aa(lp4
S'distance'
p5
aF72.94365119934082
aa(lp6
S'timestamp'
p7
aF7.355219125747681
aatp8
Rp9
.ccollections
OrderedDict
p0
((lp1
(lp2
S'state'
p3
aI0
aa(lp4
S'distance'
p5
aF72.94365119934082
aa(lp6
S'timestamp'
p7
aF7.36449408531189
aatp8
Rp9
.ccollections
OrderedDict
p0
((lp1
(lp2
S'state'
p3
aI0
aa(lp4
S'distance'
p5
aF72.94365119934082
aa(lp6
S'timestamp'
p7
aF7.365354061126709
aatp8
Rp9
.ccollections
OrderedDict
p0
((lp1
(lp2
S'state'
p3
aI0
aa(lp4
S'distance'
p5
aF72.94365119934082
aa(lp6
S'timestamp'
p7
aF7.374499082565308
aatp8
Rp9
.ccollections
OrderedDict
p0
((lp1
(lp2
S'state'
p3
aI0
aa(lp4
S'distance'
p5
aF72.94365119934082
aa(lp6
S'timestamp'
p7
aF7.375169992446899
aatp8
Rp9
.ccollections
OrderedDict
p0
((lp1
(lp2
S'state'
p3
aI0
aa(lp4
S'distance'
p5
aF72.94365119934082
aa(lp6
S'timestamp'
p7
aF7.384832143783569
aatp8
Rp9
.ccollections
OrderedDict
p0
((lp1
(lp2
S'state'
p3
aI0
aa(lp4
S'distance'
p5
aF72.94365119934082
aa(lp6
S'timestamp'
p7
aF7.384949207305908
aatp8
Rp9
.ccollections
OrderedDict
p0
((lp1
(lp2
S'state'
p3
aI0
aa(lp4
S'distance'
p5
aF72.94365119934082
aa(lp6
S'timestamp'
p7
aF7.394520998001099
aatp8
Rp9
.ccollections
OrderedDict
p0
((lp1
(lp2
S'state'
p3
aI0
aa(lp4
S'distance'
p5
aF72.94365119934082
aa(lp6
S'timestamp'
p7
aF7.395223140716553
aatp8
Rp9
.ccollections
OrderedDict
p0
((lp1
(lp2
S'state'
p3
aI0
aa(lp4
S'distance'
p5
aF72.94365119934082
aa(lp6
S'timestamp'
p7
aF7.404496192932129
aatp8
Rp9
.ccollections
OrderedDict
p0
((lp1
(lp2
S'state'
p3
aI0
aa(lp4
S'distance'
p5
aF72.94365119934082
aa(lp6
S'timestamp'
p7
aF7.405259132385254
aatp8
Rp9
.ccollections
OrderedDict
p0
((lp1
(lp2
S'state'
p3
aI0
aa(lp4
S'distance'
p5
aF72.94365119934082
aa(lp6
S'timestamp'
p7
aF7.414659023284912
aatp8
Rp9
.ccollections
OrderedDict
p0
((lp1
(lp2
S'state'
p3
aI0
aa(lp4
S'distance'
p5
aF72.94365119934082
aa(lp6
S'timestamp'
p7
aF7.415114164352417
aatp8
Rp9
.ccollections
OrderedDict
p0
((lp1
(lp2
S'state'
p3
aI0
aa(lp4
S'distance'
p5
aF72.94365119934082
aa(lp6
S'timestamp'
p7
aF7.424568176269531
aatp8
Rp9
.ccollections
OrderedDict
p0
((lp1
(lp2
S'state'
p3
aI0
aa(lp4
S'distance'
p5
aF72.94365119934082
aa(lp6
S'timestamp'
p7
aF7.425319194793701
aatp8
Rp9
.ccollections
OrderedDict
p0
((lp1
(lp2
S'state'
p3
aI0
aa(lp4
S'distance'
p5
aF72.94365119934082
aa(lp6
S'timestamp'
p7
aF7.434283018112183
aatp8
Rp9
.ccollections
OrderedDict
p0
((lp1
(lp2
S'state'
p3
aI0
aa(lp4
S'distance'
p5
aF72.94365119934082
aa(lp6
S'timestamp'
p7
aF7.435003995895386
aatp8
Rp9
.ccollections
OrderedDict
p0
((lp1
(lp2
S'state'
p3
aI0
aa(lp4
S'distance'
p5
aF72.94365119934082
aa(lp6
S'timestamp'
p7
aF7.444390058517456
aatp8
Rp9
.ccollections
OrderedDict
p0
((lp1
(lp2
S'state'
p3
aI0
aa(lp4
S'distance'
p5
aF72.94365119934082
aa(lp6
S'timestamp'
p7
aF7.445134162902832
aatp8
Rp9
.ccollections
OrderedDict
p0
((lp1
(lp2
S'state'
p3
aI0
aa(lp4
S'distance'
p5
aF72.94365119934082
aa(lp6
S'timestamp'
p7
aF7.454564094543457
aatp8
Rp9
.ccollections
OrderedDict
p0
((lp1
(lp2
S'state'
p3
aI0
aa(lp4
S'distance'
p5
aF72.94365119934082
aa(lp6
S'timestamp'
p7
aF7.455128192901611
aatp8
Rp9
.ccollections
OrderedDict
p0
((lp1
(lp2
S'state'
p3
aI0
aa(lp4
S'distance'
p5
aF72.94365119934082
aa(lp6
S'timestamp'
p7
aF7.464698076248169
aatp8
Rp9
.ccollections
OrderedDict
p0
((lp1
(lp2
S'state'
p3
aI0
aa(lp4
S'distance'
p5
aF72.94365119934082
aa(lp6
S'timestamp'
p7
aF7.466678142547607
aatp8
Rp9
.ccollections
OrderedDict
p0
((lp1
(lp2
S'state'
p3
aI0
aa(lp4
S'distance'
p5
aF72.94365119934082
aa(lp6
S'timestamp'
p7
aF7.47458815574646
aatp8
Rp9
.ccollections
OrderedDict
p0
((lp1
(lp2
S'state'
p3
aI0
aa(lp4
S'distance'
p5
aF72.94365119934082
aa(lp6
S'timestamp'
p7
aF7.4759721755981445
aatp8
Rp9
.ccollections
OrderedDict
p0
((lp1
(lp2
S'state'
p3
aI0
aa(lp4
S'distance'
p5
aF72.94365119934082
aa(lp6
S'timestamp'
p7
aF7.484387159347534
aatp8
Rp9
.ccollections
OrderedDict
p0
((lp1
(lp2
S'state'
p3
aI0
aa(lp4
S'distance'
p5
aF72.94365119934082
aa(lp6
S'timestamp'
p7
aF7.485931158065796
aatp8
Rp9
.ccollections
OrderedDict
p0
((lp1
(lp2
S'state'
p3
aI0
aa(lp4
S'distance'
p5
aF72.94365119934082
aa(lp6
S'timestamp'
p7
aF7.494531154632568
aatp8
Rp9
.ccollections
OrderedDict
p0
((lp1
(lp2
S'state'
p3
aI0
aa(lp4
S'distance'
p5
aF72.94365119934082
aa(lp6
S'timestamp'
p7
aF7.495642185211182
aatp8
Rp9
.ccollections
OrderedDict
p0
((lp1
(lp2
S'state'
p3
aI0
aa(lp4
S'distance'
p5
aF72.94365119934082
aa(lp6
S'timestamp'
p7
aF7.504379034042358
aatp8
Rp9
.ccollections
OrderedDict
p0
((lp1
(lp2
S'state'
p3
aI0
aa(lp4
S'distance'
p5
aF72.94365119934082
aa(lp6
S'timestamp'
p7
aF7.505563020706177
aatp8
Rp9
.ccollections
OrderedDict
p0
((lp1
(lp2
S'state'
p3
aI0
aa(lp4
S'distance'
p5
aF72.94365119934082
aa(lp6
S'timestamp'
p7
aF7.514592170715332
aatp8
Rp9
.ccollections
OrderedDict
p0
((lp1
(lp2
S'state'
p3
aI0
aa(lp4
S'distance'
p5
aF72.94365119934082
aa(lp6
S'timestamp'
p7
aF7.515135049819946
aatp8
Rp9
.ccollections
OrderedDict
p0
((lp1
(lp2
S'state'
p3
aI0
aa(lp4
S'distance'
p5
aF72.94365119934082
aa(lp6
S'timestamp'
p7
aF7.534276008605957
aatp8
Rp9
.ccollections
OrderedDict
p0
((lp1
(lp2
S'state'
p3
aI0
aa(lp4
S'distance'
p5
aF72.94365119934082
aa(lp6
S'timestamp'
p7
aF7.53488302230835
aatp8
Rp9
.ccollections
OrderedDict
p0
((lp1
(lp2
S'state'
p3
aI0
aa(lp4
S'distance'
p5
aF72.94365119934082
aa(lp6
S'timestamp'
p7
aF7.5350542068481445
aatp8
Rp9
.ccollections
OrderedDict
p0
((lp1
(lp2
S'state'
p3
aI0
aa(lp4
S'distance'
p5
aF72.94365119934082
aa(lp6
S'timestamp'
p7
aF7.53609299659729
aatp8
Rp9
.ccollections
OrderedDict
p0
((lp1
(lp2
S'state'
p3
aI0
aa(lp4
S'distance'
p5
aF72.94365119934082
aa(lp6
S'timestamp'
p7
aF7.544402122497559
aatp8
Rp9
.ccollections
OrderedDict
p0
((lp1
(lp2
S'state'
p3
aI0
aa(lp4
S'distance'
p5
aF72.94365119934082
aa(lp6
S'timestamp'
p7
aF7.545274019241333
aatp8
Rp9
.ccollections
OrderedDict
p0
((lp1
(lp2
S'state'
p3
aI0
aa(lp4
S'distance'
p5
aF72.94365119934082
aa(lp6
S'timestamp'
p7
aF7.554500102996826
aatp8
Rp9
.ccollections
OrderedDict
p0
((lp1
(lp2
S'state'
p3
aI0
aa(lp4
S'distance'
p5
aF72.94365119934082
aa(lp6
S'timestamp'
p7
aF7.556249141693115
aatp8
Rp9
.ccollections
OrderedDict
p0
((lp1
(lp2
S'state'
p3
aI0
aa(lp4
S'distance'
p5
aF72.94365119934082
aa(lp6
S'timestamp'
p7
aF7.564563035964966
aatp8
Rp9
.ccollections
OrderedDict
p0
((lp1
(lp2
S'state'
p3
aI0
aa(lp4
S'distance'
p5
aF72.94365119934082
aa(lp6
S'timestamp'
p7
aF7.565216064453125
aatp8
Rp9
.ccollections
OrderedDict
p0
((lp1
(lp2
S'state'
p3
aI0
aa(lp4
S'distance'
p5
aF72.94365119934082
aa(lp6
S'timestamp'
p7
aF7.574563026428223
aatp8
Rp9
.ccollections
OrderedDict
p0
((lp1
(lp2
S'state'
p3
aI0
aa(lp4
S'distance'
p5
aF72.94365119934082
aa(lp6
S'timestamp'
p7
aF7.575331211090088
aatp8
Rp9
.ccollections
OrderedDict
p0
((lp1
(lp2
S'state'
p3
aI0
aa(lp4
S'distance'
p5
aF72.94365119934082
aa(lp6
S'timestamp'
p7
aF7.584979057312012
aatp8
Rp9
.ccollections
OrderedDict
p0
((lp1
(lp2
S'state'
p3
aI0
aa(lp4
S'distance'
p5
aF72.94365119934082
aa(lp6
S'timestamp'
p7
aF7.58573317527771
aatp8
Rp9
.ccollections
OrderedDict
p0
((lp1
(lp2
S'state'
p3
aI0
aa(lp4
S'distance'
p5
aF72.94365119934082
aa(lp6
S'timestamp'
p7
aF7.594627141952515
aatp8
Rp9
.ccollections
OrderedDict
p0
((lp1
(lp2
S'state'
p3
aI0
aa(lp4
S'distance'
p5
aF72.94365119934082
aa(lp6
S'timestamp'
p7
aF7.595837116241455
aatp8
Rp9
.ccollections
OrderedDict
p0
((lp1
(lp2
S'state'
p3
aI0
aa(lp4
S'distance'
p5
aF72.94365119934082
aa(lp6
S'timestamp'
p7
aF7.604514122009277
aatp8
Rp9
.ccollections
OrderedDict
p0
((lp1
(lp2
S'state'
p3
aI0
aa(lp4
S'distance'
p5
aF72.94365119934082
aa(lp6
S'timestamp'
p7
aF7.605254173278809
aatp8
Rp9
.ccollections
OrderedDict
p0
((lp1
(lp2
S'state'
p3
aI0
aa(lp4
S'distance'
p5
aF72.94365119934082
aa(lp6
S'timestamp'
p7
aF7.615450143814087
aatp8
Rp9
.ccollections
OrderedDict
p0
((lp1
(lp2
S'state'
p3
aI0
aa(lp4
S'distance'
p5
aF72.94365119934082
aa(lp6
S'timestamp'
p7
aF7.616020202636719
aatp8
Rp9
.ccollections
OrderedDict
p0
((lp1
(lp2
S'state'
p3
aI0
aa(lp4
S'distance'
p5
aF72.94365119934082
aa(lp6
S'timestamp'
p7
aF7.624337196350098
aatp8
Rp9
.ccollections
OrderedDict
p0
((lp1
(lp2
S'state'
p3
aI0
aa(lp4
S'distance'
p5
aF72.94365119934082
aa(lp6
S'timestamp'
p7
aF7.626791000366211
aatp8
Rp9
.ccollections
OrderedDict
p0
((lp1
(lp2
S'state'
p3
aI0
aa(lp4
S'distance'
p5
aF72.94365119934082
aa(lp6
S'timestamp'
p7
aF7.64485502243042
aatp8
Rp9
.ccollections
OrderedDict
p0
((lp1
(lp2
S'state'
p3
aI0
aa(lp4
S'distance'
p5
aF72.94365119934082
aa(lp6
S'timestamp'
p7
aF7.645032167434692
aatp8
Rp9
.ccollections
OrderedDict
p0
((lp1
(lp2
S'state'
p3
aI0
aa(lp4
S'distance'
p5
aF72.94365119934082
aa(lp6
S'timestamp'
p7
aF7.645925998687744
aatp8
Rp9
.ccollections
OrderedDict
p0
((lp1
(lp2
S'state'
p3
aI0
aa(lp4
S'distance'
p5
aF72.94365119934082
aa(lp6
S'timestamp'
p7
aF7.647181987762451
aatp8
Rp9
.ccollections
OrderedDict
p0
((lp1
(lp2
S'state'
p3
aI0
aa(lp4
S'distance'
p5
aF72.94365119934082
aa(lp6
S'timestamp'
p7
aF7.654356002807617
aatp8
Rp9
.ccollections
OrderedDict
p0
((lp1
(lp2
S'state'
p3
aI0
aa(lp4
S'distance'
p5
aF72.94365119934082
aa(lp6
S'timestamp'
p7
aF7.655391216278076
aatp8
Rp9
.ccollections
OrderedDict
p0
((lp1
(lp2
S'state'
p3
aI0
aa(lp4
S'distance'
p5
aF72.94365119934082
aa(lp6
S'timestamp'
p7
aF7.664571046829224
aatp8
Rp9
.ccollections
OrderedDict
p0
((lp1
(lp2
S'state'
p3
aI0
aa(lp4
S'distance'
p5
aF72.94365119934082
aa(lp6
S'timestamp'
p7
aF7.66618013381958
aatp8
Rp9
.ccollections
OrderedDict
p0
((lp1
(lp2
S'state'
p3
aI0
aa(lp4
S'distance'
p5
aF72.94365119934082
aa(lp6
S'timestamp'
p7
aF7.684843063354492
aatp8
Rp9
.ccollections
OrderedDict
p0
((lp1
(lp2
S'state'
p3
aI0
aa(lp4
S'distance'
p5
aF72.94365119934082
aa(lp6
S'timestamp'
p7
aF7.6852312088012695
aatp8
Rp9
.ccollections
OrderedDict
p0
((lp1
(lp2
S'state'
p3
aI0
aa(lp4
S'distance'
p5
aF72.94365119934082
aa(lp6
S'timestamp'
p7
aF7.686269998550415
aatp8
Rp9
.ccollections
OrderedDict
p0
((lp1
(lp2
S'state'
p3
aI0
aa(lp4
S'distance'
p5
aF72.94365119934082
aa(lp6
S'timestamp'
p7
aF7.686607122421265
aatp8
Rp9
.ccollections
OrderedDict
p0
((lp1
(lp2
S'state'
p3
aI0
aa(lp4
S'distance'
p5
aF72.94365119934082
aa(lp6
S'timestamp'
p7
aF7.695203065872192
aatp8
Rp9
.ccollections
OrderedDict
p0
((lp1
(lp2
S'state'
p3
aI0
aa(lp4
S'distance'
p5
aF72.94365119934082
aa(lp6
S'timestamp'
p7
aF7.69575309753418
aatp8
Rp9
.ccollections
OrderedDict
p0
((lp1
(lp2
S'state'
p3
aI0
aa(lp4
S'distance'
p5
aF72.94365119934082
aa(lp6
S'timestamp'
p7
aF7.704495191574097
aatp8
Rp9
.ccollections
OrderedDict
p0
((lp1
(lp2
S'state'
p3
aI0
aa(lp4
S'distance'
p5
aF72.94365119934082
aa(lp6
S'timestamp'
p7
aF7.705609083175659
aatp8
Rp9
.ccollections
OrderedDict
p0
((lp1
(lp2
S'state'
p3
aI0
aa(lp4
S'distance'
p5
aF72.94365119934082
aa(lp6
S'timestamp'
p7
aF7.71430516242981
aatp8
Rp9
.ccollections
OrderedDict
p0
((lp1
(lp2
S'state'
p3
aI0
aa(lp4
S'distance'
p5
aF72.94365119934082
aa(lp6
S'timestamp'
p7
aF7.715747117996216
aatp8
Rp9
.ccollections
OrderedDict
p0
((lp1
(lp2
S'state'
p3
aI0
aa(lp4
S'distance'
p5
aF72.94365119934082
aa(lp6
S'timestamp'
p7
aF7.7245612144470215
aatp8
Rp9
.ccollections
OrderedDict
p0
((lp1
(lp2
S'state'
p3
aI0
aa(lp4
S'distance'
p5
aF72.94365119934082
aa(lp6
S'timestamp'
p7
aF7.725041151046753
aatp8
Rp9
.ccollections
OrderedDict
p0
((lp1
(lp2
S'state'
p3
aI0
aa(lp4
S'distance'
p5
aF72.94365119934082
aa(lp6
S'timestamp'
p7
aF7.734570026397705
aatp8
Rp9
.ccollections
OrderedDict
p0
((lp1
(lp2
S'state'
p3
aI0
aa(lp4
S'distance'
p5
aF72.94365119934082
aa(lp6
S'timestamp'
p7
aF7.735512018203735
aatp8
Rp9
.ccollections
OrderedDict
p0
((lp1
(lp2
S'state'
p3
aI0
aa(lp4
S'distance'
p5
aF72.94365119934082
aa(lp6
S'timestamp'
p7
aF7.7445690631866455
aatp8
Rp9
.ccollections
OrderedDict
p0
((lp1
(lp2
S'state'
p3
aI0
aa(lp4
S'distance'
p5
aF72.94365119934082
aa(lp6
S'timestamp'
p7
aF7.745127201080322
aatp8
Rp9
.ccollections
OrderedDict
p0
((lp1
(lp2
S'state'
p3
aI0
aa(lp4
S'distance'
p5
aF72.94365119934082
aa(lp6
S'timestamp'
p7
aF7.755004167556763
aatp8
Rp9
.ccollections
OrderedDict
p0
((lp1
(lp2
S'state'
p3
aI0
aa(lp4
S'distance'
p5
aF72.94365119934082
aa(lp6
S'timestamp'
p7
aF7.756319046020508
aatp8
Rp9
.ccollections
OrderedDict
p0
((lp1
(lp2
S'state'
p3
aI0
aa(lp4
S'distance'
p5
aF72.94365119934082
aa(lp6
S'timestamp'
p7
aF7.764576196670532
aatp8
Rp9
.ccollections
OrderedDict
p0
((lp1
(lp2
S'state'
p3
aI0
aa(lp4
S'distance'
p5
aF72.94365119934082
aa(lp6
S'timestamp'
p7
aF7.765577077865601
aatp8
Rp9
.ccollections
OrderedDict
p0
((lp1
(lp2
S'state'
p3
aI0
aa(lp4
S'distance'
p5
aF72.94365119934082
aa(lp6
S'timestamp'
p7
aF7.774932146072388
aatp8
Rp9
.ccollections
OrderedDict
p0
((lp1
(lp2
S'state'
p3
aI0
aa(lp4
S'distance'
p5
aF72.94365119934082
aa(lp6
S'timestamp'
p7
aF7.775424003601074
aatp8
Rp9
.ccollections
OrderedDict
p0
((lp1
(lp2
S'state'
p3
aI0
aa(lp4
S'distance'
p5
aF72.94365119934082
aa(lp6
S'timestamp'
p7
aF7.785163164138794
aatp8
Rp9
.ccollections
OrderedDict
p0
((lp1
(lp2
S'state'
p3
aI0
aa(lp4
S'distance'
p5
aF72.94365119934082
aa(lp6
S'timestamp'
p7
aF7.785628080368042
aatp8
Rp9
.ccollections
OrderedDict
p0
((lp1
(lp2
S'state'
p3
aI0
aa(lp4
S'distance'
p5
aF72.94365119934082
aa(lp6
S'timestamp'
p7
aF7.79459810256958
aatp8
Rp9
.ccollections
OrderedDict
p0
((lp1
(lp2
S'state'
p3
aI0
aa(lp4
S'distance'
p5
aF72.94365119934082
aa(lp6
S'timestamp'
p7
aF7.795639991760254
aatp8
Rp9
.ccollections
OrderedDict
p0
((lp1
(lp2
S'state'
p3
aI0
aa(lp4
S'distance'
p5
aF72.94365119934082
aa(lp6
S'timestamp'
p7
aF7.804870128631592
aatp8
Rp9
.ccollections
OrderedDict
p0
((lp1
(lp2
S'state'
p3
aI0
aa(lp4
S'distance'
p5
aF72.94365119934082
aa(lp6
S'timestamp'
p7
aF7.805176019668579
aatp8
Rp9
.ccollections
OrderedDict
p0
((lp1
(lp2
S'state'
p3
aI0
aa(lp4
S'distance'
p5
aF72.94365119934082
aa(lp6
S'timestamp'
p7
aF7.814552068710327
aatp8
Rp9
.ccollections
OrderedDict
p0
((lp1
(lp2
S'state'
p3
aI0
aa(lp4
S'distance'
p5
aF72.94365119934082
aa(lp6
S'timestamp'
p7
aF7.815489053726196
aatp8
Rp9
.ccollections
OrderedDict
p0
((lp1
(lp2
S'state'
p3
aI0
aa(lp4
S'distance'
p5
aF72.94365119934082
aa(lp6
S'timestamp'
p7
aF7.824818134307861
aatp8
Rp9
.ccollections
OrderedDict
p0
((lp1
(lp2
S'state'
p3
aI0
aa(lp4
S'distance'
p5
aF72.94365119934082
aa(lp6
S'timestamp'
p7
aF7.825972080230713
aatp8
Rp9
.ccollections
OrderedDict
p0
((lp1
(lp2
S'state'
p3
aI0
aa(lp4
S'distance'
p5
aF72.94365119934082
aa(lp6
S'timestamp'
p7
aF7.834917068481445
aatp8
Rp9
.ccollections
OrderedDict
p0
((lp1
(lp2
S'state'
p3
aI0
aa(lp4
S'distance'
p5
aF72.94365119934082
aa(lp6
S'timestamp'
p7
aF7.839701175689697
aatp8
Rp9
.ccollections
OrderedDict
p0
((lp1
(lp2
S'state'
p3
aI0
aa(lp4
S'distance'
p5
aF72.94365119934082
aa(lp6
S'timestamp'
p7
aF7.854595184326172
aatp8
Rp9
.ccollections
OrderedDict
p0
((lp1
(lp2
S'state'
p3
aI400
aa(lp4
S'distance'
p5
aF72.94365119934082
aa(lp6
S'timestamp'
p7
aF7.855564117431641
aatp8
Rp9
.ccollections
OrderedDict
p0
((lp1
(lp2
S'state'
p3
aI400
aa(lp4
S'distance'
p5
aF72.94365119934082
aa(lp6
S'timestamp'
p7
aF7.87152099609375
aatp8
Rp9
.ccollections
OrderedDict
p0
((lp1
(lp2
S'state'
p3
aI400
aa(lp4
S'distance'
p5
aF72.94365119934082
aa(lp6
S'timestamp'
p7
aF7.87238621711731
aatp8
Rp9
.ccollections
OrderedDict
p0
((lp1
(lp2
S'state'
p3
aI400
aa(lp4
S'distance'
p5
aF72.94365119934082
aa(lp6
S'timestamp'
p7
aF7.872878074645996
aatp8
Rp9
.ccollections
OrderedDict
p0
((lp1
(lp2
S'state'
p3
aI400
aa(lp4
S'distance'
p5
aF72.94365119934082
aa(lp6
S'timestamp'
p7
aF7.878223180770874
aatp8
Rp9
.ccollections
OrderedDict
p0
((lp1
(lp2
S'state'
p3
aI400
aa(lp4
S'distance'
p5
aF72.94365119934082
aa(lp6
S'timestamp'
p7
aF7.87959098815918
aatp8
Rp9
.ccollections
OrderedDict
p0
((lp1
(lp2
S'state'
p3
aI400
aa(lp4
S'distance'
p5
aF72.94365119934082
aa(lp6
S'timestamp'
p7
aF7.890705108642578
aatp8
Rp9
.ccollections
OrderedDict
p0
((lp1
(lp2
S'state'
p3
aI400
aa(lp4
S'distance'
p5
aF72.94365119934082
aa(lp6
S'timestamp'
p7
aF7.92314600944519
aatp8
Rp9
.ccollections
OrderedDict
p0
((lp1
(lp2
S'state'
p3
aI400
aa(lp4
S'distance'
p5
aF72.94365119934082
aa(lp6
S'timestamp'
p7
aF7.9251580238342285
aatp8
Rp9
.ccollections
OrderedDict
p0
((lp1
(lp2
S'state'
p3
aI400
aa(lp4
S'distance'
p5
aF72.94365119934082
aa(lp6
S'timestamp'
p7
aF7.927960157394409
aatp8
Rp9
.ccollections
OrderedDict
p0
((lp1
(lp2
S'state'
p3
aI400
aa(lp4
S'distance'
p5
aF72.94365119934082
aa(lp6
S'timestamp'
p7
aF7.941296100616455
aatp8
Rp9
.ccollections
OrderedDict
p0
((lp1
(lp2
S'state'
p3
aI400
aa(lp4
S'distance'
p5
aF72.94365119934082
aa(lp6
S'timestamp'
p7
aF7.941827058792114
aatp8
Rp9
.ccollections
OrderedDict
p0
((lp1
(lp2
S'state'
p3
aI400
aa(lp4
S'distance'
p5
aF72.94365119934082
aa(lp6
S'timestamp'
p7
aF7.9451210498809814
aatp8
Rp9
.ccollections
OrderedDict
p0
((lp1
(lp2
S'state'
p3
aI400
aa(lp4
S'distance'
p5
aF72.94365119934082
aa(lp6
S'timestamp'
p7
aF7.945333003997803
aatp8
Rp9
.ccollections
OrderedDict
p0
((lp1
(lp2
S'state'
p3
aI400
aa(lp4
S'distance'
p5
aF72.94365119934082
aa(lp6
S'timestamp'
p7
aF7.94559907913208
aatp8
Rp9
.ccollections
OrderedDict
p0
((lp1
(lp2
S'state'
p3
aI400
aa(lp4
S'distance'
p5
aF72.94365119934082
aa(lp6
S'timestamp'
p7
aF7.955583095550537
aatp8
Rp9
.ccollections
OrderedDict
p0
((lp1
(lp2
S'state'
p3
aI400
aa(lp4
S'distance'
p5
aF72.94365119934082
aa(lp6
S'timestamp'
p7
aF7.955793142318726
aatp8
Rp9
.ccollections
OrderedDict
p0
((lp1
(lp2
S'state'
p3
aI400
aa(lp4
S'distance'
p5
aF72.94365119934082
aa(lp6
S'timestamp'
p7
aF7.958913087844849
aatp8
Rp9
.ccollections
OrderedDict
p0
((lp1
(lp2
S'state'
p3
aI400
aa(lp4
S'distance'
p5
aF72.94365119934082
aa(lp6
S'timestamp'
p7
aF7.959003210067749
aatp8
Rp9
.ccollections
OrderedDict
p0
((lp1
(lp2
S'state'
p3
aI400
aa(lp4
S'distance'
p5
aF72.94365119934082
aa(lp6
S'timestamp'
p7
aF7.966020107269287
aatp8
Rp9
.ccollections
OrderedDict
p0
((lp1
(lp2
S'state'
p3
aI400
aa(lp4
S'distance'
p5
aF72.94365119934082
aa(lp6
S'timestamp'
p7
aF7.975189208984375
aatp8
Rp9
.ccollections
OrderedDict
p0
((lp1
(lp2
S'state'
p3
aI400
aa(lp4
S'distance'
p5
aF72.94365119934082
aa(lp6
S'timestamp'
p7
aF7.975561141967773
aatp8
Rp9
.ccollections
OrderedDict
p0
((lp1
(lp2
S'state'
p3
aI400
aa(lp4
S'distance'
p5
aF72.94365119934082
aa(lp6
S'timestamp'
p7
aF7.976608037948608
aatp8
Rp9
.ccollections
OrderedDict
p0
((lp1
(lp2
S'state'
p3
aI400
aa(lp4
S'distance'
p5
aF72.94365119934082
aa(lp6
S'timestamp'
p7
aF7.976761102676392
aatp8
Rp9
.ccollections
OrderedDict
p0
((lp1
(lp2
S'state'
p3
aI400
aa(lp4
S'distance'
p5
aF72.94365119934082
aa(lp6
S'timestamp'
p7
aF7.995004177093506
aatp8
Rp9
.ccollections
OrderedDict
p0
((lp1
(lp2
S'state'
p3
aI400
aa(lp4
S'distance'
p5
aF72.94365119934082
aa(lp6
S'timestamp'
p7
aF7.995203018188477
aatp8
Rp9
.ccollections
OrderedDict
p0
((lp1
(lp2
S'state'
p3
aI400
aa(lp4
S'distance'
p5
aF72.94365119934082
aa(lp6
S'timestamp'
p7
aF7.99568510055542
aatp8
Rp9
.ccollections
OrderedDict
p0
((lp1
(lp2
S'state'
p3
aI400
aa(lp4
S'distance'
p5
aF72.94365119934082
aa(lp6
S'timestamp'
p7
aF7.99609112739563
aatp8
Rp9
.ccollections
OrderedDict
p0
((lp1
(lp2
S'state'
p3
aI400
aa(lp4
S'distance'
p5
aF72.94365119934082
aa(lp6
S'timestamp'
p7
aF8.004825115203857
aatp8
Rp9
.ccollections
OrderedDict
p0
((lp1
(lp2
S'state'
p3
aI400
aa(lp4
S'distance'
p5
aF72.94365119934082
aa(lp6
S'timestamp'
p7
aF8.004934072494507
aatp8
Rp9
.ccollections
OrderedDict
p0
((lp1
(lp2
S'state'
p3
aI400
aa(lp4
S'distance'
p5
aF72.94365119934082
aa(lp6
S'timestamp'
p7
aF8.00579309463501
aatp8
Rp9
.