ccollections
OrderedDict
p0
((lp1
(lp2
S'state'
p3
aI0
aa(lp4
S'distance'
p5
aF365.5734100341797
aa(lp6
S'timestamp'
p7
aF0.007920026779174805
aatp8
Rp9
.ccollections
OrderedDict
p0
((lp1
(lp2
S'state'
p3
aI0
aa(lp4
S'distance'
p5
aF365.5734100341797
aa(lp6
S'timestamp'
p7
aF0.008469104766845703
aatp8
Rp9
.ccollections
OrderedDict
p0
((lp1
(lp2
S'state'
p3
aI0
aa(lp4
S'distance'
p5
aF365.5734100341797
aa(lp6
S'timestamp'
p7
aF0.008594989776611328
aatp8
Rp9
.ccollections
OrderedDict
p0
((lp1
(lp2
S'state'
p3
aI0
aa(lp4
S'distance'
p5
aF365.5734100341797
aa(lp6
S'timestamp'
p7
aF0.016983985900878906
aatp8
Rp9
.ccollections
OrderedDict
p0
((lp1
(lp2
S'state'
p3
aI0
aa(lp4
S'distance'
p5
aF365.5734100341797
aa(lp6
S'timestamp'
p7
aF0.0178680419921875
aatp8
Rp9
.ccollections
OrderedDict
p0
((lp1
(lp2
S'state'
p3
aI0
aa(lp4
S'distance'
p5
aF365.5734100341797
aa(lp6
S'timestamp'
p7
aF0.028583049774169922
aatp8
Rp9
.ccollections
OrderedDict
p0
((lp1
(lp2
S'state'
p3
aI0
aa(lp4
S'distance'
p5
aF365.5734100341797
aa(lp6
S'timestamp'
p7
aF0.03191399574279785
aatp8
Rp9
.ccollections
OrderedDict
p0
((lp1
(lp2
S'state'
p3
aI0
aa(lp4
S'distance'
p5
aF365.5734100341797
aa(lp6
S'timestamp'
p7
aF0.04454302787780762
aatp8
Rp9
.ccollections
OrderedDict
p0
((lp1
(lp2
S'state'
p3
aI0
aa(lp4
S'distance'
p5
aF365.5734100341797
aa(lp6
S'timestamp'
p7
aF0.04474210739135742
aatp8
Rp9
.ccollections
OrderedDict
p0
((lp1
(lp2
S'state'
p3
aI0
aa(lp4
S'distance'
p5
aF365.5734100341797
aa(lp6
S'timestamp'
p7
aF0.04707193374633789
aatp8
Rp9
.ccollections
OrderedDict
p0
((lp1
(lp2
S'state'
p3
aI0
aa(lp4
S'distance'
p5
aF365.5734100341797
aa(lp6
S'timestamp'
p7
aF0.04794907569885254
aatp8
Rp9
.ccollections
OrderedDict
p0
((lp1
(lp2
S'state'
p3
aI0
aa(lp4
S'distance'
p5
aF365.5734100341797
aa(lp6
S'timestamp'
p7
aF0.05740499496459961
aatp8
Rp9
.ccollections
OrderedDict
p0
((lp1
(lp2
S'state'
p3
aI0
aa(lp4
S'distance'
p5
aF365.5734100341797
aa(lp6
S'timestamp'
p7
aF0.05751800537109375
aatp8
Rp9
.ccollections
OrderedDict
p0
((lp1
(lp2
S'state'
p3
aI0
aa(lp4
S'distance'
p5
aF365.5734100341797
aa(lp6
S'timestamp'
p7
aF0.0670320987701416
aatp8
Rp9
.ccollections
OrderedDict
p0
((lp1
(lp2
S'state'
p3
aI0
aa(lp4
S'distance'
p5
aF365.5734100341797
aa(lp6
S'timestamp'
p7
aF0.07864809036254883
aatp8
Rp9
.ccollections
OrderedDict
p0
((lp1
(lp2
S'state'
p3
aI0
aa(lp4
S'distance'
p5
aF365.5734100341797
aa(lp6
S'timestamp'
p7
aF0.07979798316955566
aatp8
Rp9
.ccollections
OrderedDict
p0
((lp1
(lp2
S'state'
p3
aI0
aa(lp4
S'distance'
p5
aF365.5734100341797
aa(lp6
S'timestamp'
p7
aF0.0808260440826416
aatp8
Rp9
.ccollections
OrderedDict
p0
((lp1
(lp2
S'state'
p3
aI0
aa(lp4
S'distance'
p5
aF365.5734100341797
aa(lp6
S'timestamp'
p7
aF0.09751701354980469
aatp8
Rp9
.ccollections
OrderedDict
p0
((lp1
(lp2
S'state'
p3
aI0
aa(lp4
S'distance'
p5
aF365.5734100341797
aa(lp6
S'timestamp'
p7
aF0.09773612022399902
aatp8
Rp9
.ccollections
OrderedDict
p0
((lp1
(lp2
S'state'
p3
aI0
aa(lp4
S'distance'
p5
aF365.5734100341797
aa(lp6
S'timestamp'
p7
aF0.09837007522583008
aatp8
Rp9
.ccollections
OrderedDict
p0
((lp1
(lp2
S'state'
p3
aI0
aa(lp4
S'distance'
p5
aF365.5734100341797
aa(lp6
S'timestamp'
p7
aF0.09929990768432617
aatp8
Rp9
.ccollections
OrderedDict
p0
((lp1
(lp2
S'state'
p3
aI0
aa(lp4
S'distance'
p5
aF365.5734100341797
aa(lp6
S'timestamp'
p7
aF0.10827493667602539
aatp8
Rp9
.ccollections
OrderedDict
p0
((lp1
(lp2
S'state'
p3
aI0
aa(lp4
S'distance'
p5
aF365.5734100341797
aa(lp6
S'timestamp'
p7
aF0.10885810852050781
aatp8
Rp9
.ccollections
OrderedDict
p0
((lp1
(lp2
S'state'
p3
aI0
aa(lp4
S'distance'
p5
aF365.5734100341797
aa(lp6
S'timestamp'
p7
aF0.11787199974060059
aatp8
Rp9
.ccollections
OrderedDict
p0
((lp1
(lp2
S'state'
p3
aI0
aa(lp4
S'distance'
p5
aF365.5734100341797
aa(lp6
S'timestamp'
p7
aF0.1195669174194336
aatp8
Rp9
.ccollections
OrderedDict
p0
((lp1
(lp2
S'state'
p3
aI0
aa(lp4
S'distance'
p5
aF365.5734100341797
aa(lp6
S'timestamp'
p7
aF0.12749600410461426
aatp8
Rp9
.ccollections
OrderedDict
p0
((lp1
(lp2
S'state'
p3
aI0
aa(lp4
S'distance'
p5
aF365.5734100341797
aa(lp6
S'timestamp'
p7
aF0.12789511680603027
aatp8
Rp9
.ccollections
OrderedDict
p0
((lp1
(lp2
S'state'
p3
aI0
aa(lp4
S'distance'
p5
aF365.5734100341797
aa(lp6
S'timestamp'
p7
aF0.13796091079711914
aatp8
Rp9
.ccollections
OrderedDict
p0
((lp1
(lp2
S'state'
p3
aI0
aa(lp4
S'distance'
p5
aF365.5734100341797
aa(lp6
S'timestamp'
p7
aF0.13803696632385254
aatp8
Rp9
.ccollections
OrderedDict
p0
((lp1
(lp2
S'state'
p3
aI0
aa(lp4
S'distance'
p5
aF365.5734100341797
aa(lp6
S'timestamp'
p7
aF0.1477808952331543
aatp8
Rp9
.ccollections
OrderedDict
p0
((lp1
(lp2
S'state'
p3
aI0
aa(lp4
S'distance'
p5
aF365.5734100341797
aa(lp6
S'timestamp'
p7
aF0.14790797233581543
aatp8
Rp9
.ccollections
OrderedDict
p0
((lp1
(lp2
S'state'
p3
aI0
aa(lp4
S'distance'
p5
aF365.5734100341797
aa(lp6
S'timestamp'
p7
aF0.15778303146362305
aatp8
Rp9
.ccollections
OrderedDict
p0
((lp1
(lp2
S'state'
p3
aI0
aa(lp4
S'distance'
p5
aF365.5734100341797
aa(lp6
S'timestamp'
p7
aF0.15843510627746582
aatp8
Rp9
.ccollections
OrderedDict
p0
((lp1
(lp2
S'state'
p3
aI0
aa(lp4
S'distance'
p5
aF365.5734100341797
aa(lp6
S'timestamp'
p7
aF0.16794610023498535
aatp8
Rp9
.ccollections
OrderedDict
p0
((lp1
(lp2
S'state'
p3
aI0
aa(lp4
S'distance'
p5
aF365.5734100341797
aa(lp6
S'timestamp'
p7
aF0.1682751178741455
aatp8
Rp9
.ccollections
OrderedDict
p0
((lp1
(lp2
S'state'
p3
aI0
aa(lp4
S'distance'
p5
aF365.5734100341797
aa(lp6
S'timestamp'
p7
aF0.17814207077026367
aatp8
Rp9
.ccollections
OrderedDict
p0
((lp1
(lp2
S'state'
p3
aI0
aa(lp4
S'distance'
p5
aF365.5734100341797
aa(lp6
S'timestamp'
p7
aF0.17844295501708984
aatp8
Rp9
.ccollections
OrderedDict
p0
((lp1
(lp2
S'state'
p3
aI0
aa(lp4
S'distance'
p5
aF365.5734100341797
aa(lp6
S'timestamp'
p7
aF0.18847298622131348
aatp8
Rp9
.ccollections
OrderedDict
p0
((lp1
(lp2
S'state'
p3
aI0
aa(lp4
S'distance'
p5
aF365.5734100341797
aa(lp6
S'timestamp'
p7
aF0.1888120174407959
aatp8
Rp9
.ccollections
OrderedDict
p0
((lp1
(lp2
S'state'
p3
aI0
aa(lp4
S'distance'
p5
aF365.5734100341797
aa(lp6
S'timestamp'
p7
aF0.19699597358703613
aatp8
Rp9
.ccollections
OrderedDict
p0
((lp1
(lp2
S'state'
p3
aI0
aa(lp4
S'distance'
p5
aF365.5734100341797
aa(lp6
S'timestamp'
p7
aF0.1981649398803711
aatp8
Rp9
.ccollections
OrderedDict
p0
((lp1
(lp2
S'state'
p3
aI0
aa(lp4
S'distance'
p5
aF365.5734100341797
aa(lp6
S'timestamp'
p7
aF0.20834803581237793
aatp8
Rp9
.ccollections
OrderedDict
p0
((lp1
(lp2
S'state'
p3
aI0
aa(lp4
S'distance'
p5
aF365.5734100341797
aa(lp6
S'timestamp'
p7
aF0.2084190845489502
aatp8
Rp9
.ccollections
OrderedDict
p0
((lp1
(lp2
S'state'
p3
aI0
aa(lp4
S'distance'
p5
aF365.5734100341797
aa(lp6
S'timestamp'
p7
aF0.2190990447998047
aatp8
Rp9
.ccollections
OrderedDict
p0
((lp1
(lp2
S'state'
p3
aI0
aa(lp4
S'distance'
p5
aF365.5734100341797
aa(lp6
S'timestamp'
p7
aF0.2192060947418213
aatp8
Rp9
.ccollections
OrderedDict
p0
((lp1
(lp2
S'state'
p3
aI0
aa(lp4
S'distance'
p5
aF365.5734100341797
aa(lp6
S'timestamp'
p7
aF0.2285630702972412
aatp8
Rp9
.ccollections
OrderedDict
p0
((lp1
(lp2
S'state'
p3
aI0
aa(lp4
S'distance'
p5
aF365.5734100341797
aa(lp6
S'timestamp'
p7
aF0.22866392135620117
aatp8
Rp9
.ccollections
OrderedDict
p0
((lp1
(lp2
S'state'
p3
aI0
aa(lp4
S'distance'
p5
aF365.5734100341797
aa(lp6
S'timestamp'
p7
aF0.23852992057800293
aatp8
Rp9
.ccollections
OrderedDict
p0
((lp1
(lp2
S'state'
p3
aI0
aa(lp4
S'distance'
p5
aF365.5734100341797
aa(lp6
S'timestamp'
p7
aF0.23886394500732422
aatp8
Rp9
.ccollections
OrderedDict
p0
((lp1
(lp2
S'state'
p3
aI0
aa(lp4
S'distance'
p5
aF365.5734100341797
aa(lp6
S'timestamp'
p7
aF0.25690197944641113
aatp8
Rp9
.ccollections
OrderedDict
p0
((lp1
(lp2
S'state'
p3
aI0
aa(lp4
S'distance'
p5
aF365.5734100341797
aa(lp6
S'timestamp'
p7
aF0.25754809379577637
aatp8
Rp9
.ccollections
OrderedDict
p0
((lp1
(lp2
S'state'
p3
aI0
aa(lp4
S'distance'
p5
aF365.5734100341797
aa(lp6
S'timestamp'
p7
aF0.2587459087371826
aatp8
Rp9
.ccollections
OrderedDict
p0
((lp1
(lp2
S'state'
p3
aI0
aa(lp4
S'distance'
p5
aF365.5734100341797
aa(lp6
S'timestamp'
p7
aF0.2593810558319092
aatp8
Rp9
.ccollections
OrderedDict
p0
((lp1
(lp2
S'state'
p3
aI0
aa(lp4
S'distance'
p5
aF365.5734100341797
aa(lp6
S'timestamp'
p7
aF0.2681701183319092
aatp8
Rp9
.ccollections
OrderedDict
p0
((lp1
(lp2
S'state'
p3
aI0
aa(lp4
S'distance'
p5
aF365.5734100341797
aa(lp6
S'timestamp'
p7
aF0.268704891204834
aatp8
Rp9
.ccollections
OrderedDict
p0
((lp1
(lp2
S'state'
p3
aI0
aa(lp4
S'distance'
p5
aF365.5734100341797
aa(lp6
S'timestamp'
p7
aF0.27779102325439453
aatp8
Rp9
.ccollections
OrderedDict
p0
((lp1
(lp2
S'state'
p3
aI0
aa(lp4
S'distance'
p5
aF365.5734100341797
aa(lp6
S'timestamp'
p7
aF0.2787749767303467
aatp8
Rp9
.ccollections
OrderedDict
p0
((lp1
(lp2
S'state'
p3
aI0
aa(lp4
S'distance'
p5
aF365.5734100341797
aa(lp6
S'timestamp'
p7
aF0.28731608390808105
aatp8
Rp9
.ccollections
OrderedDict
p0
((lp1
(lp2
S'state'
p3
aI0
aa(lp4
S'distance'
p5
aF365.5734100341797
aa(lp6
S'timestamp'
p7
aF0.2874889373779297
aatp8
Rp9
.ccollections
OrderedDict
p0
((lp1
(lp2
S'state'
p3
aI0
aa(lp4
S'distance'
p5
aF365.5734100341797
aa(lp6
S'timestamp'
p7
aF0.2975459098815918
aatp8
Rp9
.ccollections
OrderedDict
p0
((lp1
(lp2
S'state'
p3
aI0
aa(lp4
S'distance'
p5
aF365.5734100341797
aa(lp6
S'timestamp'
p7
aF0.29766201972961426
aatp8
Rp9
.ccollections
OrderedDict
p0
((lp1
(lp2
S'state'
p3
aI0
aa(lp4
S'distance'
p5
aF365.5734100341797
aa(lp6
S'timestamp'
p7
aF0.3076169490814209
aatp8
Rp9
.ccollections
OrderedDict
p0
((lp1
(lp2
S'state'
p3
aI0
aa(lp4
S'distance'
p5
aF365.5734100341797
aa(lp6
S'timestamp'
p7
aF0.3077569007873535
aatp8
Rp9
.ccollections
OrderedDict
p0
((lp1
(lp2
S'state'
p3
aI0
aa(lp4
S'distance'
p5
aF365.5734100341797
aa(lp6
S'timestamp'
p7
aF0.3177199363708496
aatp8
Rp9
.ccollections
OrderedDict
p0
((lp1
(lp2
S'state'
p3
aI0
aa(lp4
S'distance'
p5
aF365.5734100341797
aa(lp6
S'timestamp'
p7
aF0.3178410530090332
aatp8
Rp9
.ccollections
OrderedDict
p0
((lp1
(lp2
S'state'
p3
aI0
aa(lp4
S'distance'
p5
aF365.5734100341797
aa(lp6
S'timestamp'
p7
aF0.32810401916503906
aatp8
Rp9
.ccollections
OrderedDict
p0
((lp1
(lp2
S'state'
p3
aI0
aa(lp4
S'distance'
p5
aF365.5734100341797
aa(lp6
S'timestamp'
p7
aF0.32828307151794434
aatp8
Rp9
.ccollections
OrderedDict
p0
((lp1
(lp2
S'state'
p3
aI0
aa(lp4
S'distance'
p5
aF365.5734100341797
aa(lp6
S'timestamp'
p7
aF0.33745598793029785
aatp8
Rp9
.ccollections
OrderedDict
p0
((lp1
(lp2
S'state'
p3
aI0
aa(lp4
S'distance'
p5
aF365.5734100341797
aa(lp6
S'timestamp'
p7
aF0.33753395080566406
aatp8
Rp9
.ccollections
OrderedDict
p0
((lp1
(lp2
S'state'
p3
aI0
aa(lp4
S'distance'
p5
aF365.5734100341797
aa(lp6
S'timestamp'
p7
aF0.34673595428466797
aatp8
Rp9
.ccollections
OrderedDict
p0
((lp1
(lp2
S'state'
p3
aI0
aa(lp4
S'distance'
p5
aF365.5734100341797
aa(lp6
S'timestamp'
p7
aF0.34714198112487793
aatp8
Rp9
.ccollections
OrderedDict
p0
((lp1
(lp2
S'state'
p3
aI0
aa(lp4
S'distance'
p5
aF365.5734100341797
aa(lp6
S'timestamp'
p7
aF0.35698390007019043
aatp8
Rp9
.ccollections
OrderedDict
p0
((lp1
(lp2
S'state'
p3
aI0
aa(lp4
S'distance'
p5
aF365.5734100341797
aa(lp6
S'timestamp'
p7
aF0.3573780059814453
aatp8
Rp9
.ccollections
OrderedDict
p0
((lp1
(lp2
S'state'
p3
aI0
aa(lp4
S'distance'
p5
aF365.5734100341797
aa(lp6
S'timestamp'
p7
aF0.3678269386291504
aatp8
Rp9
.ccollections
OrderedDict
p0
((lp1
(lp2
S'state'
p3
aI0
aa(lp4
S'distance'
p5
aF365.5734100341797
aa(lp6
S'timestamp'
p7
aF0.3681650161743164
aatp8
Rp9
.ccollections
OrderedDict
p0
((lp1
(lp2
S'state'
p3
aI0
aa(lp4
S'distance'
p5
aF365.5734100341797
aa(lp6
S'timestamp'
p7
aF0.37728309631347656
aatp8
Rp9
.ccollections
OrderedDict
p0
((lp1
(lp2
S'state'
p3
aI0
aa(lp4
S'distance'
p5
aF365.5734100341797
aa(lp6
S'timestamp'
p7
aF0.3776888847351074
aatp8
Rp9
.ccollections
OrderedDict
p0
((lp1
(lp2
S'state'
p3
aI0
aa(lp4
S'distance'
p5
aF365.5734100341797
aa(lp6
S'timestamp'
p7
aF0.387908935546875
aatp8
Rp9
.ccollections
OrderedDict
p0
((lp1
(lp2
S'state'
p3
aI0
aa(lp4
S'distance'
p5
aF365.5734100341797
aa(lp6
S'timestamp'
p7
aF0.38843703269958496
aatp8
Rp9
.ccollections
OrderedDict
p0
((lp1
(lp2
S'state'
p3
aI0
aa(lp4
S'distance'
p5
aF365.5734100341797
aa(lp6
S'timestamp'
p7
aF0.39686107635498047
aatp8
Rp9
.ccollections
OrderedDict
p0
((lp1
(lp2
S'state'
p3
aI0
aa(lp4
S'distance'
p5
aF365.5734100341797
aa(lp6
S'timestamp'
p7
aF0.3976409435272217
aatp8
Rp9
.ccollections
OrderedDict
p0
((lp1
(lp2
S'state'
p3
aI0
aa(lp4
S'distance'
p5
aF365.5734100341797
aa(lp6
S'timestamp'
p7
aF0.4075920581817627
aatp8
Rp9
.ccollections
OrderedDict
p0
((lp1
(lp2
S'state'
p3
aI0
aa(lp4
S'distance'
p5
aF365.5734100341797
aa(lp6
S'timestamp'
p7
aF0.40831995010375977
aatp8
Rp9
.ccollections
OrderedDict
p0
((lp1
(lp2
S'state'
p3
aI0
aa(lp4
S'distance'
p5
aF365.5734100341797
aa(lp6
S'timestamp'
p7
aF0.4169139862060547
aatp8
Rp9
.ccollections
OrderedDict
p0
((lp1
(lp2
S'state'
p3
aI0
aa(lp4
S'distance'
p5
aF365.5734100341797
aa(lp6
S'timestamp'
p7
aF0.41808509826660156
aatp8
Rp9
.ccollections
OrderedDict
p0
((lp1
(lp2
S'state'
p3
aI0
aa(lp4
S'distance'
p5
aF365.5734100341797
aa(lp6
S'timestamp'
p7
aF0.4268651008605957
aatp8
Rp9
.ccollections
OrderedDict
p0
((lp1
(lp2
S'state'
p3
aI0
aa(lp4
S'distance'
p5
aF365.5734100341797
aa(lp6
S'timestamp'
p7
aF0.43744707107543945
aatp8
Rp9
.ccollections
OrderedDict
p0
((lp1
(lp2
S'state'
p3
aI0
aa(lp4
S'distance'
p5
aF365.5734100341797
aa(lp6
S'timestamp'
p7
aF0.44783711433410645
aatp8
Rp9
.ccollections
OrderedDict
p0
((lp1
(lp2
S'state'
p3
aI0
aa(lp4
S'distance'
p5
aF365.5734100341797
aa(lp6
S'timestamp'
p7
aF0.4481949806213379
aatp8
Rp9
.ccollections
OrderedDict
p0
((lp1
(lp2
S'state'
p3
aI0
aa(lp4
S'distance'
p5
aF365.5734100341797
aa(lp6
S'timestamp'
p7
aF0.4487950801849365
aatp8
Rp9
.ccollections
OrderedDict
p0
((lp1
(lp2
S'state'
p3
aI0
aa(lp4
S'distance'
p5
aF365.5734100341797
aa(lp6
S'timestamp'
p7
aF0.44997191429138184
aatp8
Rp9
.ccollections
OrderedDict
p0
((lp1
(lp2
S'state'
p3
aI0
aa(lp4
S'distance'
p5
aF365.5734100341797
aa(lp6
S'timestamp'
p7
aF0.4577350616455078
aatp8
Rp9
.ccollections
OrderedDict
p0
((lp1
(lp2
S'state'
p3
aI0
aa(lp4
S'distance'
p5
aF365.5734100341797
aa(lp6
S'timestamp'
p7
aF0.45787692070007324
aatp8
Rp9
.ccollections
OrderedDict
p0
((lp1
(lp2
S'state'
p3
aI0
aa(lp4
S'distance'
p5
aF365.5734100341797
aa(lp6
S'timestamp'
p7
aF0.46715688705444336
aatp8
Rp9
.ccollections
OrderedDict
p0
((lp1
(lp2
S'state'
p3
aI0
aa(lp4
S'distance'
p5
aF365.5734100341797
aa(lp6
S'timestamp'
p7
aF0.46767401695251465
aatp8
Rp9
.ccollections
OrderedDict
p0
((lp1
(lp2
S'state'
p3
aI0
aa(lp4
S'distance'
p5
aF365.5734100341797
aa(lp6
S'timestamp'
p7
aF0.47818493843078613
aatp8
Rp9
.ccollections
OrderedDict
p0
((lp1
(lp2
S'state'
p3
aI0
aa(lp4
S'distance'
p5
aF365.5734100341797
aa(lp6
S'timestamp'
p7
aF0.47918009757995605
aatp8
Rp9
.ccollections
OrderedDict
p0
((lp1
(lp2
S'state'
p3
aI0
aa(lp4
S'distance'
p5
aF365.5734100341797
aa(lp6
S'timestamp'
p7
aF0.4875950813293457
aatp8
Rp9
.ccollections
OrderedDict
p0
((lp1
(lp2
S'state'
p3
aI0
aa(lp4
S'distance'
p5
aF365.5734100341797
aa(lp6
S'timestamp'
p7
aF0.4883589744567871
aatp8
Rp9
.ccollections
OrderedDict
p0
((lp1
(lp2
S'state'
p3
aI0
aa(lp4
S'distance'
p5
aF365.5734100341797
aa(lp6
S'timestamp'
p7
aF0.4981389045715332
aatp8
Rp9
.ccollections
OrderedDict
p0
((lp1
(lp2
S'state'
p3
aI0
aa(lp4
S'distance'
p5
aF365.5734100341797
aa(lp6
S'timestamp'
p7
aF0.4982120990753174
aatp8
Rp9
.ccollections
OrderedDict
p0
((lp1
(lp2
S'state'
p3
aI0
aa(lp4
S'distance'
p5
aF365.5734100341797
aa(lp6
S'timestamp'
p7
aF0.5071148872375488
aatp8
Rp9
.ccollections
OrderedDict
p0
((lp1
(lp2
S'state'
p3
aI0
aa(lp4
S'distance'
p5
aF365.5734100341797
aa(lp6
S'timestamp'
p7
aF0.507288932800293
aatp8
Rp9
.ccollections
OrderedDict
p0
((lp1
(lp2
S'state'
p3
aI0
aa(lp4
S'distance'
p5
aF365.5734100341797
aa(lp6
S'timestamp'
p7
aF0.5178539752960205
aatp8
Rp9
.ccollections
OrderedDict
p0
((lp1
(lp2
S'state'
p3
aI0
aa(lp4
S'distance'
p5
aF365.5734100341797
aa(lp6
S'timestamp'
p7
aF0.517956018447876
aatp8
Rp9
.ccollections
OrderedDict
p0
((lp1
(lp2
S'state'
p3
aI0
aa(lp4
S'distance'
p5
aF365.5734100341797
aa(lp6
S'timestamp'
p7
aF0.5275170803070068
aatp8
Rp9
.ccollections
OrderedDict
p0
((lp1
(lp2
S'state'
p3
aI0
aa(lp4
S'distance'
p5
aF365.5734100341797
aa(lp6
S'timestamp'
p7
aF0.527703046798706
aatp8
Rp9
.ccollections
OrderedDict
p0
((lp1
(lp2
S'state'
p3
aI0
aa(lp4
S'distance'
p5
aF365.5734100341797
aa(lp6
S'timestamp'
p7
aF0.5377399921417236
aatp8
Rp9
.ccollections
OrderedDict
p0
((lp1
(lp2
S'state'
p3
aI0
aa(lp4
S'distance'
p5
aF365.5734100341797
aa(lp6
S'timestamp'
p7
aF0.5379669666290283
aatp8
Rp9
.ccollections
OrderedDict
p0
((lp1
(lp2
S'state'
p3
aI0
aa(lp4
S'distance'
p5
aF365.5734100341797
aa(lp6
S'timestamp'
p7
aF0.5469179153442383
aatp8
Rp9
.ccollections
OrderedDict
p0
((lp1
(lp2
S'state'
p3
aI0
aa(lp4
S'distance'
p5
aF365.5734100341797
aa(lp6
S'timestamp'
p7
aF0.5482490062713623
aatp8
Rp9
.ccollections
OrderedDict
p0
((lp1
(lp2
S'state'
p3
aI0
aa(lp4
S'distance'
p5
aF365.5734100341797
aa(lp6
S'timestamp'
p7
aF0.5573639869689941
aatp8
Rp9
.ccollections
OrderedDict
p0
((lp1
(lp2
S'state'
p3
aI0
aa(lp4
S'distance'
p5
aF365.5734100341797
aa(lp6
S'timestamp'
p7
aF0.558974027633667
aatp8
Rp9
.ccollections
OrderedDict
p0
((lp1
(lp2
S'state'
p3
aI0
aa(lp4
S'distance'
p5
aF365.5734100341797
aa(lp6
S'timestamp'
p7
aF0.5684690475463867
aatp8
Rp9
.ccollections
OrderedDict
p0
((lp1
(lp2
S'state'
p3
aI0
aa(lp4
S'distance'
p5
aF365.5734100341797
aa(lp6
S'timestamp'
p7
aF0.5688960552215576
aatp8
Rp9
.ccollections
OrderedDict
p0
((lp1
(lp2
S'state'
p3
aI0
aa(lp4
S'distance'
p5
aF365.5734100341797
aa(lp6
S'timestamp'
p7
aF0.5782968997955322
aatp8
Rp9
.ccollections
OrderedDict
p0
((lp1
(lp2
S'state'
p3
aI0
aa(lp4
S'distance'
p5
aF365.5734100341797
aa(lp6
S'timestamp'
p7
aF0.5783770084381104
aatp8
Rp9
.ccollections
OrderedDict
p0
((lp1
(lp2
S'state'
p3
aI0
aa(lp4
S'distance'
p5
aF365.5734100341797
aa(lp6
S'timestamp'
p7
aF0.5869419574737549
aatp8
Rp9
.ccollections
OrderedDict
p0
((lp1
(lp2
S'state'
p3
aI0
aa(lp4
S'distance'
p5
aF365.5734100341797
aa(lp6
S'timestamp'
p7
aF0.587285041809082
aatp8
Rp9
.ccollections
OrderedDict
p0
((lp1
(lp2
S'state'
p3
aI0
aa(lp4
S'distance'
p5
aF365.5734100341797
aa(lp6
S'timestamp'
p7
aF0.5965869426727295
aatp8
Rp9
.ccollections
OrderedDict
p0
((lp1
(lp2
S'state'
p3
aI0
aa(lp4
S'distance'
p5
aF365.5734100341797
aa(lp6
S'timestamp'
p7
aF0.5972499847412109
aatp8
Rp9
.ccollections
OrderedDict
p0
((lp1
(lp2
S'state'
p3
aI0
aa(lp4
S'distance'
p5
aF365.5734100341797
aa(lp6
S'timestamp'
p7
aF0.6071140766143799
aatp8
Rp9
.ccollections
OrderedDict
p0
((lp1
(lp2
S'state'
p3
aI0
aa(lp4
S'distance'
p5
aF365.5734100341797
aa(lp6
S'timestamp'
p7
aF0.6075348854064941
aatp8
Rp9
.ccollections
OrderedDict
p0
((lp1
(lp2
S'state'
p3
aI0
aa(lp4
S'distance'
p5
aF365.5734100341797
aa(lp6
S'timestamp'
p7
aF0.6177389621734619
aatp8
Rp9
.ccollections
OrderedDict
p0
((lp1
(lp2
S'state'
p3
aI0
aa(lp4
S'distance'
p5
aF365.5734100341797
aa(lp6
S'timestamp'
p7
aF0.6180610656738281
aatp8
Rp9
.ccollections
OrderedDict
p0
((lp1
(lp2
S'state'
p3
aI0
aa(lp4
S'distance'
p5
aF365.5734100341797
aa(lp6
S'timestamp'
p7
aF0.6276319026947021
aatp8
Rp9
.ccollections
OrderedDict
p0
((lp1
(lp2
S'state'
p3
aI0
aa(lp4
S'distance'
p5
aF365.5734100341797
aa(lp6
S'timestamp'
p7
aF0.6278109550476074
aatp8
Rp9
.ccollections
OrderedDict
p0
((lp1
(lp2
S'state'
p3
aI0
aa(lp4
S'distance'
p5
aF365.5734100341797
aa(lp6
S'timestamp'
p7
aF0.636760950088501
aatp8
Rp9
.ccollections
OrderedDict
p0
((lp1
(lp2
S'state'
p3
aI0
aa(lp4
S'distance'
p5
aF365.5734100341797
aa(lp6
S'timestamp'
p7
aF0.6382501125335693
aatp8
Rp9
.ccollections
OrderedDict
p0
((lp1
(lp2
S'state'
p3
aI0
aa(lp4
S'distance'
p5
aF365.5734100341797
aa(lp6
S'timestamp'
p7
aF0.6467270851135254
aatp8
Rp9
.ccollections
OrderedDict
p0
((lp1
(lp2
S'state'
p3
aI0
aa(lp4
S'distance'
p5
aF365.5734100341797
aa(lp6
S'timestamp'
p7
aF0.647676944732666
aatp8
Rp9
.ccollections
OrderedDict
p0
((lp1
(lp2
S'state'
p3
aI0
aa(lp4
S'distance'
p5
aF365.5734100341797
aa(lp6
S'timestamp'
p7
aF0.6567680835723877
aatp8
Rp9
.ccollections
OrderedDict
p0
((lp1
(lp2
S'state'
p3
aI0
aa(lp4
S'distance'
p5
aF365.5734100341797
aa(lp6
S'timestamp'
p7
aF0.6573879718780518
aatp8
Rp9
.ccollections
OrderedDict
p0
((lp1
(lp2
S'state'
p3
aI0
aa(lp4
S'distance'
p5
aF365.5734100341797
aa(lp6
S'timestamp'
p7
aF0.6666040420532227
aatp8
Rp9
.ccollections
OrderedDict
p0
((lp1
(lp2
S'state'
p3
aI0
aa(lp4
S'distance'
p5
aF365.5734100341797
aa(lp6
S'timestamp'
p7
aF0.6671109199523926
aatp8
Rp9
.ccollections
OrderedDict
p0
((lp1
(lp2
S'state'
p3
aI0
aa(lp4
S'distance'
p5
aF365.5734100341797
aa(lp6
S'timestamp'
p7
aF0.6767458915710449
aatp8
Rp9
.ccollections
OrderedDict
p0
((lp1
(lp2
S'state'
p3
aI0
aa(lp4
S'distance'
p5
aF365.5734100341797
aa(lp6
S'timestamp'
p7
aF0.6778790950775146
aatp8
Rp9
.ccollections
OrderedDict
p0
((lp1
(lp2
S'state'
p3
aI0
aa(lp4
S'distance'
p5
aF365.5734100341797
aa(lp6
S'timestamp'
p7
aF0.6867709159851074
aatp8
Rp9
.ccollections
OrderedDict
p0
((lp1
(lp2
S'state'
p3
aI0
aa(lp4
S'distance'
p5
aF365.5734100341797
aa(lp6
S'timestamp'
p7
aF0.687143087387085
aatp8
Rp9
.ccollections
OrderedDict
p0
((lp1
(lp2
S'state'
p3
aI0
aa(lp4
S'distance'
p5
aF365.5734100341797
aa(lp6
S'timestamp'
p7
aF0.6967940330505371
aatp8
Rp9
.ccollections
OrderedDict
p0
((lp1
(lp2
S'state'
p3
aI0
aa(lp4
S'distance'
p5
aF365.5734100341797
aa(lp6
S'timestamp'
p7
aF0.6978569030761719
aatp8
Rp9
.ccollections
OrderedDict
p0
((lp1
(lp2
S'state'
p3
aI0
aa(lp4
S'distance'
p5
aF365.5734100341797
aa(lp6
S'timestamp'
p7
aF0.7066390514373779
aatp8
Rp9
.ccollections
OrderedDict
p0
((lp1
(lp2
S'state'
p3
aI0
aa(lp4
S'distance'
p5
aF365.5734100341797
aa(lp6
S'timestamp'
p7
aF0.707097053527832
aatp8
Rp9
.ccollections
OrderedDict
p0
((lp1
(lp2
S'state'
p3
aI0
aa(lp4
S'distance'
p5
aF365.5734100341797
aa(lp6
S'timestamp'
p7
aF0.736962080001831
aatp8
Rp9
.ccollections
OrderedDict
p0
((lp1
(lp2
S'state'
p3
aI0
aa(lp4
S'distance'
p5
aF365.5734100341797
aa(lp6
S'timestamp'
p7
aF0.7373878955841064
aatp8
Rp9
.ccollections
OrderedDict
p0
((lp1
(lp2
S'state'
p3
aI0
aa(lp4
S'distance'
p5
aF365.5734100341797
aa(lp6
S'timestamp'
p7
aF0.737476110458374
aatp8
Rp9
.ccollections
OrderedDict
p0
((lp1
(lp2
S'state'
p3
aI0
aa(lp4
S'distance'
p5
aF365.5734100341797
aa(lp6
S'timestamp'
p7
aF0.7402338981628418
aatp8
Rp9
.ccollections
OrderedDict
p0
((lp1
(lp2
S'state'
p3
aI0
aa(lp4
S'distance'
p5
aF365.5734100341797
aa(lp6
S'timestamp'
p7
aF0.7467260360717773
aatp8
Rp9
.ccollections
OrderedDict
p0
((lp1
(lp2
S'state'
p3
aI0
aa(lp4
S'distance'
p5
aF365.5734100341797
aa(lp6
S'timestamp'
p7
aF0.7470591068267822
aatp8
Rp9
.ccollections
OrderedDict
p0
((lp1
(lp2
S'state'
p3
aI0
aa(lp4
S'distance'
p5
aF365.5734100341797
aa(lp6
S'timestamp'
p7
aF0.7475290298461914
aatp8
Rp9
.ccollections
OrderedDict
p0
((lp1
(lp2
S'state'
p3
aI0
aa(lp4
S'distance'
p5
aF365.5734100341797
aa(lp6
S'timestamp'
p7
aF0.7481029033660889
aatp8
Rp9
.ccollections
OrderedDict
p0
((lp1
(lp2
S'state'
p3
aI0
aa(lp4
S'distance'
p5
aF365.5734100341797
aa(lp6
S'timestamp'
p7
aF0.7567920684814453
aatp8
Rp9
.ccollections
OrderedDict
p0
((lp1
(lp2
S'state'
p3
aI0
aa(lp4
S'distance'
p5
aF365.5734100341797
aa(lp6
S'timestamp'
p7
aF0.757390022277832
aatp8
Rp9
.ccollections
OrderedDict
p0
((lp1
(lp2
S'state'
p3
aI0
aa(lp4
S'distance'
p5
aF365.5734100341797
aa(lp6
S'timestamp'
p7
aF0.7668139934539795
aatp8
Rp9
.ccollections
OrderedDict
p0
((lp1
(lp2
S'state'
p3
aI0
aa(lp4
S'distance'
p5
aF365.5734100341797
aa(lp6
S'timestamp'
p7
aF0.7676990032196045
aatp8
Rp9
.ccollections
OrderedDict
p0
((lp1
(lp2
S'state'
p3
aI0
aa(lp4
S'distance'
p5
aF365.5734100341797
aa(lp6
S'timestamp'
p7
aF0.7766280174255371
aatp8
Rp9
.ccollections
OrderedDict
p0
((lp1
(lp2
S'state'
p3
aI0
aa(lp4
S'distance'
p5
aF365.5734100341797
aa(lp6
S'timestamp'
p7
aF0.7771999835968018
aatp8
Rp9
.ccollections
OrderedDict
p0
((lp1
(lp2
S'state'
p3
aI0
aa(lp4
S'distance'
p5
aF365.5734100341797
aa(lp6
S'timestamp'
p7
aF0.7970108985900879
aatp8
Rp9
.ccollections
OrderedDict
p0
((lp1
(lp2
S'state'
p3
aI0
aa(lp4
S'distance'
p5
aF365.5734100341797
aa(lp6
S'timestamp'
p7
aF0.7971029281616211
aatp8
Rp9
.ccollections
OrderedDict
p0
((lp1
(lp2
S'state'
p3
aI0
aa(lp4
S'distance'
p5
aF365.5734100341797
aa(lp6
S'timestamp'
p7
aF0.7983291149139404
aatp8
Rp9
.ccollections
OrderedDict
p0
((lp1
(lp2
S'state'
p3
aI0
aa(lp4
S'distance'
p5
aF365.5734100341797
aa(lp6
S'timestamp'
p7
aF0.7992990016937256
aatp8
Rp9
.ccollections
OrderedDict
p0
((lp1
(lp2
S'state'
p3
aI0
aa(lp4
S'distance'
p5
aF365.5734100341797
aa(lp6
S'timestamp'
p7
aF0.806675910949707
aatp8
Rp9
.ccollections
OrderedDict
p0
((lp1
(lp2
S'state'
p3
aI0
aa(lp4
S'distance'
p5
aF365.5734100341797
aa(lp6
S'timestamp'
p7
aF0.8170070648193359
aatp8
Rp9
.ccollections
OrderedDict
p0
((lp1
(lp2
S'state'
p3
aI0
aa(lp4
S'distance'
p5
aF365.5734100341797
aa(lp6
S'timestamp'
p7
aF0.8173320293426514
aatp8
Rp9
.ccollections
OrderedDict
p0
((lp1
(lp2
S'state'
p3
aI0
aa(lp4
S'distance'
p5
aF365.5734100341797
aa(lp6
S'timestamp'
p7
aF0.8190140724182129
aatp8
Rp9
.ccollections
OrderedDict
p0
((lp1
(lp2
S'state'
p3
aI0
aa(lp4
S'distance'
p5
aF365.5734100341797
aa(lp6
S'timestamp'
p7
aF0.8266329765319824
aatp8
Rp9
.ccollections
OrderedDict
p0
((lp1
(lp2
S'state'
p3
aI0
aa(lp4
S'distance'
p5
aF365.5734100341797
aa(lp6
S'timestamp'
p7
aF0.8271288871765137
aatp8
Rp9
.ccollections
OrderedDict
p0
((lp1
(lp2
S'state'
p3
aI0
aa(lp4
S'distance'
p5
aF365.5734100341797
aa(lp6
S'timestamp'
p7
aF0.8366079330444336
aatp8
Rp9
.ccollections
OrderedDict
p0
((lp1
(lp2
S'state'
p3
aI0
aa(lp4
S'distance'
p5
aF365.5734100341797
aa(lp6
S'timestamp'
p7
aF0.8371798992156982
aatp8
Rp9
.ccollections
OrderedDict
p0
((lp1
(lp2
S'state'
p3
aI0
aa(lp4
S'distance'
p5
aF365.5734100341797
aa(lp6
S'timestamp'
p7
aF0.8466930389404297
aatp8
Rp9
.ccollections
OrderedDict
p0
((lp1
(lp2
S'state'
p3
aI0
aa(lp4
S'distance'
p5
aF365.5734100341797
aa(lp6
S'timestamp'
p7
aF0.8474690914154053
aatp8
Rp9
.ccollections
OrderedDict
p0
((lp1
(lp2
S'state'
p3
aI0
aa(lp4
S'distance'
p5
aF365.5734100341797
aa(lp6
S'timestamp'
p7
aF0.8567409515380859
aatp8
Rp9
.ccollections
OrderedDict
p0
((lp1
(lp2
S'state'
p3
aI0
aa(lp4
S'distance'
p5
aF365.5734100341797
aa(lp6
S'timestamp'
p7
aF0.8589930534362793
aatp8
Rp9
.ccollections
OrderedDict
p0
((lp1
(lp2
S'state'
p3
aI0
aa(lp4
S'distance'
p5
aF365.5734100341797
aa(lp6
S'timestamp'
p7
aF0.8671259880065918
aatp8
Rp9
.ccollections
OrderedDict
p0
((lp1
(lp2
S'state'
p3
aI0
aa(lp4
S'distance'
p5
aF365.5734100341797
aa(lp6
S'timestamp'
p7
aF0.8673920631408691
aatp8
Rp9
.ccollections
OrderedDict
p0
((lp1
(lp2
S'state'
p3
aI0
aa(lp4
S'distance'
p5
aF365.5734100341797
aa(lp6
S'timestamp'
p7
aF0.8767709732055664
aatp8
Rp9
.ccollections
OrderedDict
p0
((lp1
(lp2
S'state'
p3
aI0
aa(lp4
S'distance'
p5
aF365.5734100341797
aa(lp6
S'timestamp'
p7
aF0.8778970241546631
aatp8
Rp9
.ccollections
OrderedDict
p0
((lp1
(lp2
S'state'
p3
aI0
aa(lp4
S'distance'
p5
aF365.5734100341797
aa(lp6
S'timestamp'
p7
aF0.8866961002349854
aatp8
Rp9
.ccollections
OrderedDict
p0
((lp1
(lp2
S'state'
p3
aI0
aa(lp4
S'distance'
p5
aF365.5734100341797
aa(lp6
S'timestamp'
p7
aF0.887362003326416
aatp8
Rp9
.ccollections
OrderedDict
p0
((lp1
(lp2
S'state'
p3
aI0
aa(lp4
S'distance'
p5
aF365.5734100341797
aa(lp6
S'timestamp'
p7
aF0.8966400623321533
aatp8
Rp9
.ccollections
OrderedDict
p0
((lp1
(lp2
S'state'
p3
aI0
aa(lp4
S'distance'
p5
aF365.5734100341797
aa(lp6
S'timestamp'
p7
aF0.8971929550170898
aatp8
Rp9
.ccollections
OrderedDict
p0
((lp1
(lp2
S'state'
p3
aI0
aa(lp4
S'distance'
p5
aF365.5734100341797
aa(lp6
S'timestamp'
p7
aF0.9066400527954102
aatp8
Rp9
.ccollections
OrderedDict
p0
((lp1
(lp2
S'state'
p3
aI0
aa(lp4
S'distance'
p5
aF365.5734100341797
aa(lp6
S'timestamp'
p7
aF0.9073610305786133
aatp8
Rp9
.ccollections
OrderedDict
p0
((lp1
(lp2
S'state'
p3
aI0
aa(lp4
S'distance'
p5
aF365.5734100341797
aa(lp6
S'timestamp'
p7
aF0.9166650772094727
aatp8
Rp9
.ccollections
OrderedDict
p0
((lp1
(lp2
S'state'
p3
aI0
aa(lp4
S'distance'
p5
aF365.5734100341797
aa(lp6
S'timestamp'
p7
aF0.9171841144561768
aatp8
Rp9
.ccollections
OrderedDict
p0
((lp1
(lp2
S'state'
p3
aI0
aa(lp4
S'distance'
p5
aF365.5734100341797
aa(lp6
S'timestamp'
p7
aF0.9270980358123779
aatp8
Rp9
.ccollections
OrderedDict
p0
((lp1
(lp2
S'state'
p3
aI0
aa(lp4
S'distance'
p5
aF365.5734100341797
aa(lp6
S'timestamp'
p7
aF0.9276731014251709
aatp8
Rp9
.ccollections
OrderedDict
p0
((lp1
(lp2
S'state'
p3
aI0
aa(lp4
S'distance'
p5
aF365.5734100341797
aa(lp6
S'timestamp'
p7
aF0.9366269111633301
aatp8
Rp9
.ccollections
OrderedDict
p0
((lp1
(lp2
S'state'
p3
aI0
aa(lp4
S'distance'
p5
aF365.5734100341797
aa(lp6
S'timestamp'
p7
aF0.9379689693450928
aatp8
Rp9
.ccollections
OrderedDict
p0
((lp1
(lp2
S'state'
p3
aI0
aa(lp4
S'distance'
p5
aF365.5734100341797
aa(lp6
S'timestamp'
p7
aF0.9471750259399414
aatp8
Rp9
.ccollections
OrderedDict
p0
((lp1
(lp2
S'state'
p3
aI0
aa(lp4
S'distance'
p5
aF365.5734100341797
aa(lp6
S'timestamp'
p7
aF0.947268009185791
aatp8
Rp9
.ccollections
OrderedDict
p0
((lp1
(lp2
S'state'
p3
aI0
aa(lp4
S'distance'
p5
aF365.5734100341797
aa(lp6
S'timestamp'
p7
aF0.9570939540863037
aatp8
Rp9
.ccollections
OrderedDict
p0
((lp1
(lp2
S'state'
p3
aI0
aa(lp4
S'distance'
p5
aF365.5734100341797
aa(lp6
S'timestamp'
p7
aF0.9574179649353027
aatp8
Rp9
.ccollections
OrderedDict
p0
((lp1
(lp2
S'state'
p3
aI0
aa(lp4
S'distance'
p5
aF365.5734100341797
aa(lp6
S'timestamp'
p7
aF0.9666149616241455
aatp8
Rp9
.ccollections
OrderedDict
p0
((lp1
(lp2
S'state'
p3
aI0
aa(lp4
S'distance'
p5
aF365.5734100341797
aa(lp6
S'timestamp'
p7
aF0.9671649932861328
aatp8
Rp9
.ccollections
OrderedDict
p0
((lp1
(lp2
S'state'
p3
aI0
aa(lp4
S'distance'
p5
aF365.5734100341797
aa(lp6
S'timestamp'
p7
aF0.9766499996185303
aatp8
Rp9
.ccollections
OrderedDict
p0
((lp1
(lp2
S'state'
p3
aI0
aa(lp4
S'distance'
p5
aF365.5734100341797
aa(lp6
S'timestamp'
p7
aF0.9770190715789795
aatp8
Rp9
.ccollections
OrderedDict
p0
((lp1
(lp2
S'state'
p3
aI0
aa(lp4
S'distance'
p5
aF365.5734100341797
aa(lp6
S'timestamp'
p7
aF0.986738920211792
aatp8
Rp9
.ccollections
OrderedDict
p0
((lp1
(lp2
S'state'
p3
aI0
aa(lp4
S'distance'
p5
aF365.5734100341797
aa(lp6
S'timestamp'
p7
aF0.9871540069580078
aatp8
Rp9
.ccollections
OrderedDict
p0
((lp1
(lp2
S'state'
p3
aI0
aa(lp4
S'distance'
p5
aF365.5734100341797
aa(lp6
S'timestamp'
p7
aF1.0167250633239746
aatp8
Rp9
.ccollections
OrderedDict
p0
((lp1
(lp2
S'state'
p3
aI0
aa(lp4
S'distance'
p5
aF365.5734100341797
aa(lp6
S'timestamp'
p7
aF1.0184190273284912
aatp8
Rp9
.ccollections
OrderedDict
p0
((lp1
(lp2
S'state'
p3
aI0
aa(lp4
S'distance'
p5
aF365.5734100341797
aa(lp6
S'timestamp'
p7
aF1.018639087677002
aatp8
Rp9
.ccollections
OrderedDict
p0
((lp1
(lp2
S'state'
p3
aI0
aa(lp4
S'distance'
p5
aF365.5734100341797
aa(lp6
S'timestamp'
p7
aF1.0187389850616455
aatp8
Rp9
.ccollections
OrderedDict
p0
((lp1
(lp2
S'state'
p3
aI0
aa(lp4
S'distance'
p5
aF365.5734100341797
aa(lp6
S'timestamp'
p7
aF1.0367369651794434
aatp8
Rp9
.ccollections
OrderedDict
p0
((lp1
(lp2
S'state'
p3
aI0
aa(lp4
S'distance'
p5
aF365.5734100341797
aa(lp6
S'timestamp'
p7
aF1.0381569862365723
aatp8
Rp9
.ccollections
OrderedDict
p0
((lp1
(lp2
S'state'
p3
aI0
aa(lp4
S'distance'
p5
aF365.5734100341797
aa(lp6
S'timestamp'
p7
aF1.0382459163665771
aatp8
Rp9
.ccollections
OrderedDict
p0
((lp1
(lp2
S'state'
p3
aI0
aa(lp4
S'distance'
p5
aF365.5734100341797
aa(lp6
S'timestamp'
p7
aF1.038316011428833
aatp8
Rp9
.ccollections
OrderedDict
p0
((lp1
(lp2
S'state'
p3
aI0
aa(lp4
S'distance'
p5
aF365.5734100341797
aa(lp6
S'timestamp'
p7
aF1.0467169284820557
aatp8
Rp9
.ccollections
OrderedDict
p0
((lp1
(lp2
S'state'
p3
aI0
aa(lp4
S'distance'
p5
aF365.5734100341797
aa(lp6
S'timestamp'
p7
aF1.056786060333252
aatp8
Rp9
.ccollections
OrderedDict
p0
((lp1
(lp2
S'state'
p3
aI0
aa(lp4
S'distance'
p5
aF365.5734100341797
aa(lp6
S'timestamp'
p7
aF1.057013988494873
aatp8
Rp9
.ccollections
OrderedDict
p0
((lp1
(lp2
S'state'
p3
aI0
aa(lp4
S'distance'
p5
aF365.5734100341797
aa(lp6
S'timestamp'
p7
aF1.0583128929138184
aatp8
Rp9
.ccollections
OrderedDict
p0
((lp1
(lp2
S'state'
p3
aI0
aa(lp4
S'distance'
p5
aF365.5734100341797
aa(lp6
S'timestamp'
p7
aF1.058387041091919
aatp8
Rp9
.ccollections
OrderedDict
p0
((lp1
(lp2
S'state'
p3
aI0
aa(lp4
S'distance'
p5
aF365.5734100341797
aa(lp6
S'timestamp'
p7
aF1.0767560005187988
aatp8
Rp9
.ccollections
OrderedDict
p0
((lp1
(lp2
S'state'
p3
aI0
aa(lp4
S'distance'
p5
aF365.5734100341797
aa(lp6
S'timestamp'
p7
aF1.0773940086364746
aatp8
Rp9
.ccollections
OrderedDict
p0
((lp1
(lp2
S'state'
p3
aI0
aa(lp4
S'distance'
p5
aF365.5734100341797
aa(lp6
S'timestamp'
p7
aF1.0780301094055176
aatp8
Rp9
.ccollections
OrderedDict
p0
((lp1
(lp2
S'state'
p3
aI0
aa(lp4
S'distance'
p5
aF365.5734100341797
aa(lp6
S'timestamp'
p7
aF1.0790839195251465
aatp8
Rp9
.ccollections
OrderedDict
p0
((lp1
(lp2
S'state'
p3
aI0
aa(lp4
S'distance'
p5
aF365.5734100341797
aa(lp6
S'timestamp'
p7
aF1.0967259407043457
aatp8
Rp9
.ccollections
OrderedDict
p0
((lp1
(lp2
S'state'
p3
aI0
aa(lp4
S'distance'
p5
aF365.5734100341797
aa(lp6
S'timestamp'
p7
aF1.0983068943023682
aatp8
Rp9
.ccollections
OrderedDict
p0
((lp1
(lp2
S'state'
p3
aI0
aa(lp4
S'distance'
p5
aF365.5734100341797
aa(lp6
S'timestamp'
p7
aF1.098383903503418
aatp8
Rp9
.ccollections
OrderedDict
p0
((lp1
(lp2
S'state'
p3
aI0
aa(lp4
S'distance'
p5
aF365.5734100341797
aa(lp6
S'timestamp'
p7
aF1.0994949340820312
aatp8
Rp9
.ccollections
OrderedDict
p0
((lp1
(lp2
S'state'
p3
aI0
aa(lp4
S'distance'
p5
aF365.5734100341797
aa(lp6
S'timestamp'
p7
aF1.1068329811096191
aatp8
Rp9
.ccollections
OrderedDict
p0
((lp1
(lp2
S'state'
p3
aI0
aa(lp4
S'distance'
p5
aF365.5734100341797
aa(lp6
S'timestamp'
p7
aF1.1075348854064941
aatp8
Rp9
.ccollections
OrderedDict
p0
((lp1
(lp2
S'state'
p3
aI0
aa(lp4
S'distance'
p5
aF365.5734100341797
aa(lp6
S'timestamp'
p7
aF1.108112096786499
aatp8
Rp9
.ccollections
OrderedDict
p0
((lp1
(lp2
S'state'
p3
aI0
aa(lp4
S'distance'
p5
aF365.5734100341797
aa(lp6
S'timestamp'
p7
aF1.1169590950012207
aatp8
Rp9
.ccollections
OrderedDict
p0
((lp1
(lp2
S'state'
p3
aI0
aa(lp4
S'distance'
p5
aF365.5734100341797
aa(lp6
S'timestamp'
p7
aF1.1170480251312256
aatp8
Rp9
.ccollections
OrderedDict
p0
((lp1
(lp2
S'state'
p3
aI0
aa(lp4
S'distance'
p5
aF365.5734100341797
aa(lp6
S'timestamp'
p7
aF1.1265220642089844
aatp8
Rp9
.ccollections
OrderedDict
p0
((lp1
(lp2
S'state'
p3
aI0
aa(lp4
S'distance'
p5
aF365.5734100341797
aa(lp6
S'timestamp'
p7
aF1.1284699440002441
aatp8
Rp9
.ccollections
OrderedDict
p0
((lp1
(lp2
S'state'
p3
aI0
aa(lp4
S'distance'
p5
aF365.5734100341797
aa(lp6
S'timestamp'
p7
aF1.146596908569336
aatp8
Rp9
.ccollections
OrderedDict
p0
((lp1
(lp2
S'state'
p3
aI0
aa(lp4
S'distance'
p5
aF365.5734100341797
aa(lp6
S'timestamp'
p7
aF1.1479129791259766
aatp8
Rp9
.ccollections
OrderedDict
p0
((lp1
(lp2
S'state'
p3
aI0
aa(lp4
S'distance'
p5
aF365.5734100341797
aa(lp6
S'timestamp'
p7
aF1.1486549377441406
aatp8
Rp9
.ccollections
OrderedDict
p0
((lp1
(lp2
S'state'
p3
aI0
aa(lp4
S'distance'
p5
aF365.5734100341797
aa(lp6
S'timestamp'
p7
aF1.14872407913208
aatp8
Rp9
.ccollections
OrderedDict
p0
((lp1
(lp2
S'state'
p3
aI0
aa(lp4
S'distance'
p5
aF365.5734100341797
aa(lp6
S'timestamp'
p7
aF1.1568150520324707
aatp8
Rp9
.ccollections
OrderedDict
p0
((lp1
(lp2
S'state'
p3
aI0
aa(lp4
S'distance'
p5
aF365.5734100341797
aa(lp6
S'timestamp'
p7
aF1.157771110534668
aatp8
Rp9
.ccollections
OrderedDict
p0
((lp1
(lp2
S'state'
p3
aI0
aa(lp4
S'distance'
p5
aF365.5734100341797
aa(lp6
S'timestamp'
p7
aF1.1668329238891602
aatp8
Rp9
.ccollections
OrderedDict
p0
((lp1
(lp2
S'state'
p3
aI0
aa(lp4
S'distance'
p5
aF365.5734100341797
aa(lp6
S'timestamp'
p7
aF1.167510986328125
aatp8
Rp9
.ccollections
OrderedDict
p0
((lp1
(lp2
S'state'
p3
aI0
aa(lp4
S'distance'
p5
aF365.5734100341797
aa(lp6
S'timestamp'
p7
aF1.1767199039459229
aatp8
Rp9
.ccollections
OrderedDict
p0
((lp1
(lp2
S'state'
p3
aI0
aa(lp4
S'distance'
p5
aF365.5734100341797
aa(lp6
S'timestamp'
p7
aF1.186769962310791
aatp8
Rp9
.ccollections
OrderedDict
p0
((lp1
(lp2
S'state'
p3
aI0
aa(lp4
S'distance'
p5
aF365.5734100341797
aa(lp6
S'timestamp'
p7
aF1.187079906463623
aatp8
Rp9
.ccollections
OrderedDict
p0
((lp1
(lp2
S'state'
p3
aI0
aa(lp4
S'distance'
p5
aF365.5734100341797
aa(lp6
S'timestamp'
p7
aF1.1882669925689697
aatp8
Rp9
.ccollections
OrderedDict
p0
((lp1
(lp2
S'state'
p3
aI0
aa(lp4
S'distance'
p5
aF365.5734100341797
aa(lp6
S'timestamp'
p7
aF1.1967730522155762
aatp8
Rp9
.ccollections
OrderedDict
p0
((lp1
(lp2
S'state'
p3
aI0
aa(lp4
S'distance'
p5
aF365.5734100341797
aa(lp6
S'timestamp'
p7
aF1.1979799270629883
aatp8
Rp9
.ccollections
OrderedDict
p0
((lp1
(lp2
S'state'
p3
aI0
aa(lp4
S'distance'
p5
aF365.5734100341797
aa(lp6
S'timestamp'
p7
aF1.2082550525665283
aatp8
Rp9
.ccollections
OrderedDict
p0
((lp1
(lp2
S'state'
p3
aI0
aa(lp4
S'distance'
p5
aF365.5734100341797
aa(lp6
S'timestamp'
p7
aF1.208409070968628
aatp8
Rp9
.ccollections
OrderedDict
p0
((lp1
(lp2
S'state'
p3
aI0
aa(lp4
S'distance'
p5
aF365.5734100341797
aa(lp6
S'timestamp'
p7
aF1.2188749313354492
aatp8
Rp9
.ccollections
OrderedDict
p0
((lp1
(lp2
S'state'
p3
aI0
aa(lp4
S'distance'
p5
aF365.5734100341797
aa(lp6
S'timestamp'
p7
aF1.2223889827728271
aatp8
Rp9
.ccollections
OrderedDict
p0
((lp1
(lp2
S'state'
p3
aI0
aa(lp4
S'distance'
p5
aF365.5734100341797
aa(lp6
S'timestamp'
p7
aF1.228276014328003
aatp8
Rp9
.ccollections
OrderedDict
p0
((lp1
(lp2
S'state'
p3
aI0
aa(lp4
S'distance'
p5
aF365.5734100341797
aa(lp6
S'timestamp'
p7
aF1.228456974029541
aatp8
Rp9
.ccollections
OrderedDict
p0
((lp1
(lp2
S'state'
p3
aI0
aa(lp4
S'distance'
p5
aF365.5734100341797
aa(lp6
S'timestamp'
p7
aF1.236562967300415
aatp8
Rp9
.ccollections
OrderedDict
p0
((lp1
(lp2
S'state'
p3
aI0
aa(lp4
S'distance'
p5
aF365.5734100341797
aa(lp6
S'timestamp'
p7
aF1.2375459671020508
aatp8
Rp9
.ccollections
OrderedDict
p0
((lp1
(lp2
S'state'
p3
aI0
aa(lp4
S'distance'
p5
aF365.5734100341797
aa(lp6
S'timestamp'
p7
aF1.2567861080169678
aatp8
Rp9
.ccollections
OrderedDict
p0
((lp1
(lp2
S'state'
p3
aI0
aa(lp4
S'distance'
p5
aF365.5734100341797
aa(lp6
S'timestamp'
p7
aF1.2575569152832031
aatp8
Rp9
.ccollections
OrderedDict
p0
((lp1
(lp2
S'state'
p3
aI0
aa(lp4
S'distance'
p5
aF365.5734100341797
aa(lp6
S'timestamp'
p7
aF1.2581210136413574
aatp8
Rp9
.ccollections
OrderedDict
p0
((lp1
(lp2
S'state'
p3
aI0
aa(lp4
S'distance'
p5
aF365.5734100341797
aa(lp6
S'timestamp'
p7
aF1.2589828968048096
aatp8
Rp9
.ccollections
OrderedDict
p0
((lp1
(lp2
S'state'
p3
aI0
aa(lp4
S'distance'
p5
aF365.5734100341797
aa(lp6
S'timestamp'
p7
aF1.2670519351959229
aatp8
Rp9
.ccollections
OrderedDict
p0
((lp1
(lp2
S'state'
p3
aI0
aa(lp4
S'distance'
p5
aF365.5734100341797
aa(lp6
S'timestamp'
p7
aF1.2671730518341064
aatp8
Rp9
.ccollections
OrderedDict
p0
((lp1
(lp2
S'state'
p3
aI0
aa(lp4
S'distance'
p5
aF365.5734100341797
aa(lp6
S'timestamp'
p7
aF1.2767629623413086
aatp8
Rp9
.ccollections
OrderedDict
p0
((lp1
(lp2
S'state'
p3
aI0
aa(lp4
S'distance'
p5
aF365.5734100341797
aa(lp6
S'timestamp'
p7
aF1.277803897857666
aatp8
Rp9
.ccollections
OrderedDict
p0
((lp1
(lp2
S'state'
p3
aI0
aa(lp4
S'distance'
p5
aF365.5734100341797
aa(lp6
S'timestamp'
p7
aF1.2867279052734375
aatp8
Rp9
.ccollections
OrderedDict
p0
((lp1
(lp2
S'state'
p3
aI0
aa(lp4
S'distance'
p5
aF365.5734100341797
aa(lp6
S'timestamp'
p7
aF1.2875659465789795
aatp8
Rp9
.ccollections
OrderedDict
p0
((lp1
(lp2
S'state'
p3
aI0
aa(lp4
S'distance'
p5
aF365.5734100341797
aa(lp6
S'timestamp'
p7
aF1.2967190742492676
aatp8
Rp9
.ccollections
OrderedDict
p0
((lp1
(lp2
S'state'
p3
aI0
aa(lp4
S'distance'
p5
aF365.5734100341797
aa(lp6
S'timestamp'
p7
aF1.297785997390747
aatp8
Rp9
.ccollections
OrderedDict
p0
((lp1
(lp2
S'state'
p3
aI0
aa(lp4
S'distance'
p5
aF365.5734100341797
aa(lp6
S'timestamp'
p7
aF1.306765079498291
aatp8
Rp9
.ccollections
OrderedDict
p0
((lp1
(lp2
S'state'
p3
aI0
aa(lp4
S'distance'
p5
aF365.5734100341797
aa(lp6
S'timestamp'
p7
aF1.3079309463500977
aatp8
Rp9
.ccollections
OrderedDict
p0
((lp1
(lp2
S'state'
p3
aI0
aa(lp4
S'distance'
p5
aF365.5734100341797
aa(lp6
S'timestamp'
p7
aF1.3167409896850586
aatp8
Rp9
.ccollections
OrderedDict
p0
((lp1
(lp2
S'state'
p3
aI0
aa(lp4
S'distance'
p5
aF365.5734100341797
aa(lp6
S'timestamp'
p7
aF1.3173129558563232
aatp8
Rp9
.ccollections
OrderedDict
p0
((lp1
(lp2
S'state'
p3
aI0
aa(lp4
S'distance'
p5
aF365.5734100341797
aa(lp6
S'timestamp'
p7
aF1.3267929553985596
aatp8
Rp9
.ccollections
OrderedDict
p0
((lp1
(lp2
S'state'
p3
aI0
aa(lp4
S'distance'
p5
aF365.5734100341797
aa(lp6
S'timestamp'
p7
aF1.3278679847717285
aatp8
Rp9
.ccollections
OrderedDict
p0
((lp1
(lp2
S'state'
p3
aI0
aa(lp4
S'distance'
p5
aF365.5734100341797
aa(lp6
S'timestamp'
p7
aF1.3366739749908447
aatp8
Rp9
.ccollections
OrderedDict
p0
((lp1
(lp2
S'state'
p3
aI0
aa(lp4
S'distance'
p5
aF365.5734100341797
aa(lp6
S'timestamp'
p7
aF1.3374860286712646
aatp8
Rp9
.ccollections
OrderedDict
p0
((lp1
(lp2
S'state'
p3
aI0
aa(lp4
S'distance'
p5
aF365.5734100341797
aa(lp6
S'timestamp'
p7
aF1.3567891120910645
aatp8
Rp9
.ccollections
OrderedDict
p0
((lp1
(lp2
S'state'
p3
aI0
aa(lp4
S'distance'
p5
aF365.5734100341797
aa(lp6
S'timestamp'
p7
aF1.3571751117706299
aatp8
Rp9
.ccollections
OrderedDict
p0
((lp1
(lp2
S'state'
p3
aI0
aa(lp4
S'distance'
p5
aF365.5734100341797
aa(lp6
S'timestamp'
p7
aF1.3577380180358887
aatp8
Rp9
.ccollections
OrderedDict
p0
((lp1
(lp2
S'state'
p3
aI0
aa(lp4
S'distance'
p5
aF365.5734100341797
aa(lp6
S'timestamp'
p7
aF1.3580620288848877
aatp8
Rp9
.ccollections
OrderedDict
p0
((lp1
(lp2
S'state'
p3
aI0
aa(lp4
S'distance'
p5
aF365.5734100341797
aa(lp6
S'timestamp'
p7
aF1.3667540550231934
aatp8
Rp9
.ccollections
OrderedDict
p0
((lp1
(lp2
S'state'
p3
aI0
aa(lp4
S'distance'
p5
aF365.5734100341797
aa(lp6
S'timestamp'
p7
aF1.3683059215545654
aatp8
Rp9
.ccollections
OrderedDict
p0
((lp1
(lp2
S'state'
p3
aI0
aa(lp4
S'distance'
p5
aF365.5734100341797
aa(lp6
S'timestamp'
p7
aF1.37705397605896
aatp8
Rp9
.ccollections
OrderedDict
p0
((lp1
(lp2
S'state'
p3
aI0
aa(lp4
S'distance'
p5
aF365.5734100341797
aa(lp6
S'timestamp'
p7
aF1.377208948135376
aatp8
Rp9
.ccollections
OrderedDict
p0
((lp1
(lp2
S'state'
p3
aI0
aa(lp4
S'distance'
p5
aF365.5734100341797
aa(lp6
S'timestamp'
p7
aF1.3868229389190674
aatp8
Rp9
.ccollections
OrderedDict
p0
((lp1
(lp2
S'state'
p3
aI0
aa(lp4
S'distance'
p5
aF365.5734100341797
aa(lp6
S'timestamp'
p7
aF1.3881299495697021
aatp8
Rp9
.ccollections
OrderedDict
p0
((lp1
(lp2
S'state'
p3
aI0
aa(lp4
S'distance'
p5
aF365.5734100341797
aa(lp6
S'timestamp'
p7
aF1.397623062133789
aatp8
Rp9
.ccollections
OrderedDict
p0
((lp1
(lp2
S'state'
p3
aI0
aa(lp4
S'distance'
p5
aF365.5734100341797
aa(lp6
S'timestamp'
p7
aF1.3977398872375488
aatp8
Rp9
.ccollections
OrderedDict
p0
((lp1
(lp2
S'state'
p3
aI0
aa(lp4
S'distance'
p5
aF365.5734100341797
aa(lp6
S'timestamp'
p7
aF1.406757116317749
aatp8
Rp9
.ccollections
OrderedDict
p0
((lp1
(lp2
S'state'
p3
aI0
aa(lp4
S'distance'
p5
aF365.5734100341797
aa(lp6
S'timestamp'
p7
aF1.407668113708496
aatp8
Rp9
.ccollections
OrderedDict
p0
((lp1
(lp2
S'state'
p3
aI0
aa(lp4
S'distance'
p5
aF365.5734100341797
aa(lp6
S'timestamp'
p7
aF1.4167098999023438
aatp8
Rp9
.ccollections
OrderedDict
p0
((lp1
(lp2
S'state'
p3
aI0
aa(lp4
S'distance'
p5
aF365.5734100341797
aa(lp6
S'timestamp'
p7
aF1.418220043182373
aatp8
Rp9
.ccollections
OrderedDict
p0
((lp1
(lp2
S'state'
p3
aI0
aa(lp4
S'distance'
p5
aF365.5734100341797
aa(lp6
S'timestamp'
p7
aF1.4269371032714844
aatp8
Rp9
.ccollections
OrderedDict
p0
((lp1
(lp2
S'state'
p3
aI0
aa(lp4
S'distance'
p5
aF365.5734100341797
aa(lp6
S'timestamp'
p7
aF1.4277229309082031
aatp8
Rp9
.ccollections
OrderedDict
p0
((lp1
(lp2
S'state'
p3
aI0
aa(lp4
S'distance'
p5
aF365.5734100341797
aa(lp6
S'timestamp'
p7
aF1.4367070198059082
aatp8
Rp9
.ccollections
OrderedDict
p0
((lp1
(lp2
S'state'
p3
aI0
aa(lp4
S'distance'
p5
aF365.5734100341797
aa(lp6
S'timestamp'
p7
aF1.4377529621124268
aatp8
Rp9
.ccollections
OrderedDict
p0
((lp1
(lp2
S'state'
p3
aI0
aa(lp4
S'distance'
p5
aF365.5734100341797
aa(lp6
S'timestamp'
p7
aF1.4467170238494873
aatp8
Rp9
.ccollections
OrderedDict
p0
((lp1
(lp2
S'state'
p3
aI0
aa(lp4
S'distance'
p5
aF365.5734100341797
aa(lp6
S'timestamp'
p7
aF1.4475939273834229
aatp8
Rp9
.ccollections
OrderedDict
p0
((lp1
(lp2
S'state'
p3
aI0
aa(lp4
S'distance'
p5
aF365.5734100341797
aa(lp6
S'timestamp'
p7
aF1.456639051437378
aatp8
Rp9
.ccollections
OrderedDict
p0
((lp1
(lp2
S'state'
p3
aI0
aa(lp4
S'distance'
p5
aF365.5734100341797
aa(lp6
S'timestamp'
p7
aF1.4579401016235352
aatp8
Rp9
.ccollections
OrderedDict
p0
((lp1
(lp2
S'state'
p3
aI0
aa(lp4
S'distance'
p5
aF365.5734100341797
aa(lp6
S'timestamp'
p7
aF1.4685180187225342
aatp8
Rp9
.ccollections
OrderedDict
p0
((lp1
(lp2
S'state'
p3
aI0
aa(lp4
S'distance'
p5
aF365.5734100341797
aa(lp6
S'timestamp'
p7
aF1.46858811378479
aatp8
Rp9
.ccollections
OrderedDict
p0
((lp1
(lp2
S'state'
p3
aI0
aa(lp4
S'distance'
p5
aF365.5734100341797
aa(lp6
S'timestamp'
p7
aF1.4767670631408691
aatp8
Rp9
.ccollections
OrderedDict
p0
((lp1
(lp2
S'state'
p3
aI0
aa(lp4
S'distance'
p5
aF365.5734100341797
aa(lp6
S'timestamp'
p7
aF1.477734088897705
aatp8
Rp9
.ccollections
OrderedDict
p0
((lp1
(lp2
S'state'
p3
aI0
aa(lp4
S'distance'
p5
aF365.5734100341797
aa(lp6
S'timestamp'
p7
aF1.4867830276489258
aatp8
Rp9
.ccollections
OrderedDict
p0
((lp1
(lp2
S'state'
p3
aI0
aa(lp4
S'distance'
p5
aF365.5734100341797
aa(lp6
S'timestamp'
p7
aF1.4877629280090332
aatp8
Rp9
.ccollections
OrderedDict
p0
((lp1
(lp2
S'state'
p3
aI0
aa(lp4
S'distance'
p5
aF365.5734100341797
aa(lp6
S'timestamp'
p7
aF1.4967799186706543
aatp8
Rp9
.ccollections
OrderedDict
p0
((lp1
(lp2
S'state'
p3
aI0
aa(lp4
S'distance'
p5
aF365.5734100341797
aa(lp6
S'timestamp'
p7
aF1.497899055480957
aatp8
Rp9
.ccollections
OrderedDict
p0
((lp1
(lp2
S'state'
p3
aI0
aa(lp4
S'distance'
p5
aF365.5734100341797
aa(lp6
S'timestamp'
p7
aF1.5069100856781006
aatp8
Rp9
.ccollections
OrderedDict
p0
((lp1
(lp2
S'state'
p3
aI0
aa(lp4
S'distance'
p5
aF365.5734100341797
aa(lp6
S'timestamp'
p7
aF1.5077769756317139
aatp8
Rp9
.ccollections
OrderedDict
p0
((lp1
(lp2
S'state'
p3
aI0
aa(lp4
S'distance'
p5
aF365.5734100341797
aa(lp6
S'timestamp'
p7
aF1.5181670188903809
aatp8
Rp9
.ccollections
OrderedDict
p0
((lp1
(lp2
S'state'
p3
aI0
aa(lp4
S'distance'
p5
aF365.5734100341797
aa(lp6
S'timestamp'
p7
aF1.5182509422302246
aatp8
Rp9
.ccollections
OrderedDict
p0
((lp1
(lp2
S'state'
p3
aI0
aa(lp4
S'distance'
p5
aF365.5734100341797
aa(lp6
S'timestamp'
p7
aF1.5279839038848877
aatp8
Rp9
.ccollections
OrderedDict
p0
((lp1
(lp2
S'state'
p3
aI0
aa(lp4
S'distance'
p5
aF365.5734100341797
aa(lp6
S'timestamp'
p7
aF1.5280699729919434
aatp8
Rp9
.ccollections
OrderedDict
p0
((lp1
(lp2
S'state'
p3
aI0
aa(lp4
S'distance'
p5
aF365.5734100341797
aa(lp6
S'timestamp'
p7
aF1.5380558967590332
aatp8
Rp9
.ccollections
OrderedDict
p0
((lp1
(lp2
S'state'
p3
aI0
aa(lp4
S'distance'
p5
aF365.5734100341797
aa(lp6
S'timestamp'
p7
aF1.5381178855895996
aatp8
Rp9
.ccollections
OrderedDict
p0
((lp1
(lp2
S'state'
p3
aI0
aa(lp4
S'distance'
p5
aF365.5734100341797
aa(lp6
S'timestamp'
p7
aF1.5468120574951172
aatp8
Rp9
.ccollections
OrderedDict
p0
((lp1
(lp2
S'state'
p3
aI0
aa(lp4
S'distance'
p5
aF365.5734100341797
aa(lp6
S'timestamp'
p7
aF1.5573089122772217
aatp8
Rp9
.ccollections
OrderedDict
p0
((lp1
(lp2
S'state'
p3
aI0
aa(lp4
S'distance'
p5
aF365.5734100341797
aa(lp6
S'timestamp'
p7
aF1.5574040412902832
aatp8
Rp9
.ccollections
OrderedDict
p0
((lp1
(lp2
S'state'
p3
aI0
aa(lp4
S'distance'
p5
aF365.5734100341797
aa(lp6
S'timestamp'
p7
aF1.5576329231262207
aatp8
Rp9
.ccollections
OrderedDict
p0
((lp1
(lp2
S'state'
p3
aI0
aa(lp4
S'distance'
p5
aF365.5734100341797
aa(lp6
S'timestamp'
p7
aF1.566659927368164
aatp8
Rp9
.ccollections
OrderedDict
p0
((lp1
(lp2
S'state'
p3
aI0
aa(lp4
S'distance'
p5
aF365.5734100341797
aa(lp6
S'timestamp'
p7
aF1.56752610206604
aatp8
Rp9
.ccollections
OrderedDict
p0
((lp1
(lp2
S'state'
p3
aI0
aa(lp4
S'distance'
p5
aF365.5734100341797
aa(lp6
S'timestamp'
p7
aF1.576719045639038
aatp8
Rp9
.ccollections
OrderedDict
p0
((lp1
(lp2
S'state'
p3
aI0
aa(lp4
S'distance'
p5
aF365.5734100341797
aa(lp6
S'timestamp'
p7
aF1.5870459079742432
aatp8
Rp9
.ccollections
OrderedDict
p0
((lp1
(lp2
S'state'
p3
aI0
aa(lp4
S'distance'
p5
aF365.5734100341797
aa(lp6
S'timestamp'
p7
aF1.5872271060943604
aatp8
Rp9
.ccollections
OrderedDict
p0
((lp1
(lp2
S'state'
p3
aI0
aa(lp4
S'distance'
p5
aF365.5734100341797
aa(lp6
S'timestamp'
p7
aF1.588047981262207
aatp8
Rp9
.ccollections
OrderedDict
p0
((lp1
(lp2
S'state'
p3
aI0
aa(lp4
S'distance'
p5
aF365.5734100341797
aa(lp6
S'timestamp'
p7
aF1.5977890491485596
aatp8
Rp9
.ccollections
OrderedDict
p0
((lp1
(lp2
S'state'
p3
aI0
aa(lp4
S'distance'
p5
aF365.5734100341797
aa(lp6
S'timestamp'
p7
aF1.5978589057922363
aatp8
Rp9
.ccollections
OrderedDict
p0
((lp1
(lp2
S'state'
p3
aI0
aa(lp4
S'distance'
p5
aF365.5734100341797
aa(lp6
S'timestamp'
p7
aF1.6074581146240234
aatp8
Rp9
.ccollections
OrderedDict
p0
((lp1
(lp2
S'state'
p3
aI0
aa(lp4
S'distance'
p5
aF365.5734100341797
aa(lp6
S'timestamp'
p7
aF1.6075670719146729
aatp8
Rp9
.ccollections
OrderedDict
p0
((lp1
(lp2
S'state'
p3
aI0
aa(lp4
S'distance'
p5
aF365.5734100341797
aa(lp6
S'timestamp'
p7
aF1.6174209117889404
aatp8
Rp9
.ccollections
OrderedDict
p0
((lp1
(lp2
S'state'
p3
aI0
aa(lp4
S'distance'
p5
aF365.5734100341797
aa(lp6
S'timestamp'
p7
aF1.6175010204315186
aatp8
Rp9
.ccollections
OrderedDict
p0
((lp1
(lp2
S'state'
p3
aI0
aa(lp4
S'distance'
p5
aF365.5734100341797
aa(lp6
S'timestamp'
p7
aF1.6268389225006104
aatp8
Rp9
.ccollections
OrderedDict
p0
((lp1
(lp2
S'state'
p3
aI0
aa(lp4
S'distance'
p5
aF365.5734100341797
aa(lp6
S'timestamp'
p7
aF1.6279089450836182
aatp8
Rp9
.ccollections
OrderedDict
p0
((lp1
(lp2
S'state'
p3
aI0
aa(lp4
S'distance'
p5
aF365.5734100341797
aa(lp6
S'timestamp'
p7
aF1.637558937072754
aatp8
Rp9
.ccollections
OrderedDict
p0
((lp1
(lp2
S'state'
p3
aI0
aa(lp4
S'distance'
p5
aF365.5734100341797
aa(lp6
S'timestamp'
p7
aF1.6376299858093262
aatp8
Rp9
.ccollections
OrderedDict
p0
((lp1
(lp2
S'state'
p3
aI0
aa(lp4
S'distance'
p5
aF365.5734100341797
aa(lp6
S'timestamp'
p7
aF1.648442029953003
aatp8
Rp9
.ccollections
OrderedDict
p0
((lp1
(lp2
S'state'
p3
aI0
aa(lp4
S'distance'
p5
aF365.5734100341797
aa(lp6
S'timestamp'
p7
aF1.6485109329223633
aatp8
Rp9
.ccollections
OrderedDict
p0
((lp1
(lp2
S'state'
p3
aI0
aa(lp4
S'distance'
p5
aF365.5734100341797
aa(lp6
S'timestamp'
p7
aF1.657167911529541
aatp8
Rp9
.ccollections
OrderedDict
p0
((lp1
(lp2
S'state'
p3
aI0
aa(lp4
S'distance'
p5
aF365.5734100341797
aa(lp6
S'timestamp'
p7
aF1.6579821109771729
aatp8
Rp9
.ccollections
OrderedDict
p0
((lp1
(lp2
S'state'
p3
aI0
aa(lp4
S'distance'
p5
aF365.5734100341797
aa(lp6
S'timestamp'
p7
aF1.6666760444641113
aatp8
Rp9
.ccollections
OrderedDict
p0
((lp1
(lp2
S'state'
p3
aI0
aa(lp4
S'distance'
p5
aF365.5734100341797
aa(lp6
S'timestamp'
p7
aF1.668363094329834
aatp8
Rp9
.ccollections
OrderedDict
p0
((lp1
(lp2
S'state'
p3
aI0
aa(lp4
S'distance'
p5
aF365.5734100341797
aa(lp6
S'timestamp'
p7
aF1.6780049800872803
aatp8
Rp9
.ccollections
OrderedDict
p0
((lp1
(lp2
S'state'
p3
aI0
aa(lp4
S'distance'
p5
aF365.5734100341797
aa(lp6
S'timestamp'
p7
aF1.67808198928833
aatp8
Rp9
.ccollections
OrderedDict
p0
((lp1
(lp2
S'state'
p3
aI0
aa(lp4
S'distance'
p5
aF365.5734100341797
aa(lp6
S'timestamp'
p7
aF1.6868040561676025
aatp8
Rp9
.ccollections
OrderedDict
p0
((lp1
(lp2
S'state'
p3
aI0
aa(lp4
S'distance'
p5
aF365.5734100341797
aa(lp6
S'timestamp'
p7
aF1.68833589553833
aatp8
Rp9
.ccollections
OrderedDict
p0
((lp1
(lp2
S'state'
p3
aI0
aa(lp4
S'distance'
p5
aF365.5734100341797
aa(lp6
S'timestamp'
p7
aF1.6968390941619873
aatp8
Rp9
.ccollections
OrderedDict
p0
((lp1
(lp2
S'state'
p3
aI0
aa(lp4
S'distance'
p5
aF365.5734100341797
aa(lp6
S'timestamp'
p7
aF1.6977291107177734
aatp8
Rp9
.ccollections
OrderedDict
p0
((lp1
(lp2
S'state'
p3
aI0
aa(lp4
S'distance'
p5
aF365.5734100341797
aa(lp6
S'timestamp'
p7
aF1.7067439556121826
aatp8
Rp9
.ccollections
OrderedDict
p0
((lp1
(lp2
S'state'
p3
aI0
aa(lp4
S'distance'
p5
aF365.5734100341797
aa(lp6
S'timestamp'
p7
aF1.7072789669036865
aatp8
Rp9
.ccollections
OrderedDict
p0
((lp1
(lp2
S'state'
p3
aI400
aa(lp4
S'distance'
p5
aF365.5734100341797
aa(lp6
S'timestamp'
p7
aF1.7185180187225342
aatp8
Rp9
.ccollections
OrderedDict
p0
((lp1
(lp2
S'state'
p3
aI400
aa(lp4
S'distance'
p5
aF365.5734100341797
aa(lp6
S'timestamp'
p7
aF1.7185940742492676
aatp8
Rp9
.ccollections
OrderedDict
p0
((lp1
(lp2
S'state'
p3
aI400
aa(lp4
S'distance'
p5
aF365.5734100341797
aa(lp6
S'timestamp'
p7
aF1.727288007736206
aatp8
Rp9
.ccollections
OrderedDict
p0
((lp1
(lp2
S'state'
p3
aI400
aa(lp4
S'distance'
p5
aF365.5734100341797
aa(lp6
S'timestamp'
p7
aF1.7273600101470947
aatp8
Rp9
.ccollections
OrderedDict
p0
((lp1
(lp2
S'state'
p3
aI400
aa(lp4
S'distance'
p5
aF365.5734100341797
aa(lp6
S'timestamp'
p7
aF1.7514159679412842
aatp8
Rp9
.ccollections
OrderedDict
p0
((lp1
(lp2
S'state'
p3
aI400
aa(lp4
S'distance'
p5
aF365.5734100341797
aa(lp6
S'timestamp'
p7
aF1.7515549659729004
aatp8
Rp9
.ccollections
OrderedDict
p0
((lp1
(lp2
S'state'
p3
aI400
aa(lp4
S'distance'
p5
aF365.5734100341797
aa(lp6
S'timestamp'
p7
aF1.7517049312591553
aatp8
Rp9
.ccollections
OrderedDict
p0
((lp1
(lp2
S'state'
p3
aI400
aa(lp4
S'distance'
p5
aF365.5734100341797
aa(lp6
S'timestamp'
p7
aF1.7518401145935059
aatp8
Rp9
.ccollections
OrderedDict
p0
((lp1
(lp2
S'state'
p3
aI400
aa(lp4
S'distance'
p5
aF365.5734100341797
aa(lp6
S'timestamp'
p7
aF1.7584059238433838
aatp8
Rp9
.ccollections
OrderedDict
p0
((lp1
(lp2
S'state'
p3
aI400
aa(lp4
S'distance'
p5
aF365.5734100341797
aa(lp6
S'timestamp'
p7
aF1.758716106414795
aatp8
Rp9
.ccollections
OrderedDict
p0
((lp1
(lp2
S'state'
p3
aI400
aa(lp4
S'distance'
p5
aF365.5734100341797
aa(lp6
S'timestamp'
p7
aF1.7692270278930664
aatp8
Rp9
.ccollections
OrderedDict
p0
((lp1
(lp2
S'state'
p3
aI400
aa(lp4
S'distance'
p5
aF365.5734100341797
aa(lp6
S'timestamp'
p7
aF1.7695550918579102
aatp8
Rp9
.ccollections
OrderedDict
p0
((lp1
(lp2
S'state'
p3
aI400
aa(lp4
S'distance'
p5
aF365.5734100341797
aa(lp6
S'timestamp'
p7
aF1.780864953994751
aatp8
Rp9
.ccollections
OrderedDict
p0
((lp1
(lp2
S'state'
p3
aI400
aa(lp4
S'distance'
p5
aF365.5734100341797
aa(lp6
S'timestamp'
p7
aF1.7813220024108887
aatp8
Rp9
.ccollections
OrderedDict
p0
((lp1
(lp2
S'state'
p3
aI400
aa(lp4
S'distance'
p5
aF365.5734100341797
aa(lp6
S'timestamp'
p7
aF1.7971980571746826
aatp8
Rp9
.ccollections
OrderedDict
p0
((lp1
(lp2
S'state'
p3
aI400
aa(lp4
S'distance'
p5
aF365.5734100341797
aa(lp6
S'timestamp'
p7
aF1.7974820137023926
aatp8
Rp9
.ccollections
OrderedDict
p0
((lp1
(lp2
S'state'
p3
aI400
aa(lp4
S'distance'
p5
aF365.5734100341797
aa(lp6
S'timestamp'
p7
aF1.7976760864257812
aatp8
Rp9
.ccollections
OrderedDict
p0
((lp1
(lp2
S'state'
p3
aI400
aa(lp4
S'distance'
p5
aF365.5734100341797
aa(lp6
S'timestamp'
p7
aF1.7982020378112793
aatp8
Rp9
.ccollections
OrderedDict
p0
((lp1
(lp2
S'state'
p3
aI400
aa(lp4
S'distance'
p5
aF365.5734100341797
aa(lp6
S'timestamp'
p7
aF1.8069570064544678
aatp8
Rp9
.ccollections
OrderedDict
p0
((lp1
(lp2
S'state'
p3
aI400
aa(lp4
S'distance'
p5
aF365.5734100341797
aa(lp6
S'timestamp'
p7
aF1.8092310428619385
aatp8
Rp9
.ccollections
OrderedDict
p0
((lp1
(lp2
S'state'
p3
aI400
aa(lp4
S'distance'
p5
aF365.5734100341797
aa(lp6
S'timestamp'
p7
aF1.817214012145996
aatp8
Rp9
.ccollections
OrderedDict
p0
((lp1
(lp2
S'state'
p3
aI400
aa(lp4
S'distance'
p5
aF365.5734100341797
aa(lp6
S'timestamp'
p7
aF1.8174090385437012
aatp8
Rp9
.ccollections
OrderedDict
p0
((lp1
(lp2
S'state'
p3
aI400
aa(lp4
S'distance'
p5
aF365.5734100341797
aa(lp6
S'timestamp'
p7
aF1.8367431163787842
aatp8
Rp9
.ccollections
OrderedDict
p0
((lp1
(lp2
S'state'
p3
aI400
aa(lp4
S'distance'
p5
aF365.5734100341797
aa(lp6
S'timestamp'
p7
aF1.8373229503631592
aatp8
Rp9
.ccollections
OrderedDict
p0
((lp1
(lp2
S'state'
p3
aI400
aa(lp4
S'distance'
p5
aF365.5734100341797
aa(lp6
S'timestamp'
p7
aF1.8575310707092285
aatp8
Rp9
.ccollections
OrderedDict
p0
((lp1
(lp2
S'state'
p3
aI400
aa(lp4
S'distance'
p5
aF365.5734100341797
aa(lp6
S'timestamp'
p7
aF1.8577899932861328
aatp8
Rp9
.ccollections
OrderedDict
p0
((lp1
(lp2
S'state'
p3
aI400
aa(lp4
S'distance'
p5
aF365.5734100341797
aa(lp6
S'timestamp'
p7
aF1.8582630157470703
aatp8
Rp9
.ccollections
OrderedDict
p0
((lp1
(lp2
S'state'
p3
aI400
aa(lp4
S'distance'
p5
aF365.5734100341797
aa(lp6
S'timestamp'
p7
aF1.8587310314178467
aatp8
Rp9
.ccollections
OrderedDict
p0
((lp1
(lp2
S'state'
p3
aI400
aa(lp4
S'distance'
p5
aF365.5734100341797
aa(lp6
S'timestamp'
p7
aF1.8697290420532227
aatp8
Rp9
.ccollections
OrderedDict
p0
((lp1
(lp2
S'state'
p3
aI400
aa(lp4
S'distance'
p5
aF365.5734100341797
aa(lp6
S'timestamp'
p7
aF1.870008945465088
aatp8
Rp9
.ccollections
OrderedDict
p0
((lp1
(lp2
S'state'
p3
aI400
aa(lp4
S'distance'
p5
aF365.5734100341797
aa(lp6
S'timestamp'
p7
aF1.8704969882965088
aatp8
Rp9
.ccollections
OrderedDict
p0
((lp1
(lp2
S'state'
p3
aI400
aa(lp4
S'distance'
p5
aF365.5734100341797
aa(lp6
S'timestamp'
p7
aF1.870690107345581
aatp8
Rp9
.ccollections
OrderedDict
p0
((lp1
(lp2
S'state'
p3
aI400
aa(lp4
S'distance'
p5
aF365.5734100341797
aa(lp6
S'timestamp'
p7
aF1.87711501121521
aatp8
Rp9
.ccollections
OrderedDict
p0
((lp1
(lp2
S'state'
p3
aI400
aa(lp4
S'distance'
p5
aF365.5734100341797
aa(lp6
S'timestamp'
p7
aF1.8780710697174072
aatp8
Rp9
.ccollections
OrderedDict
p0
((lp1
(lp2
S'state'
p3
aI400
aa(lp4
S'distance'
p5
aF365.5734100341797
aa(lp6
S'timestamp'
p7
aF1.8920249938964844
aatp8
Rp9
.ccollections
OrderedDict
p0
((lp1
(lp2
S'state'
p3
aI400
aa(lp4
S'distance'
p5
aF365.5734100341797
aa(lp6
S'timestamp'
p7
aF1.892496109008789
aatp8
Rp9
.ccollections
OrderedDict
p0
((lp1
(lp2
S'state'
p3
aI400
aa(lp4
S'distance'
p5
aF365.5734100341797
aa(lp6
S'timestamp'
p7
aF1.9078481197357178
aatp8
Rp9
.ccollections
OrderedDict
p0
((lp1
(lp2
S'state'
p3
aI400
aa(lp4
S'distance'
p5
aF365.5734100341797
aa(lp6
S'timestamp'
p7
aF1.9081990718841553
aatp8
Rp9
.ccollections
OrderedDict
p0
((lp1
(lp2
S'state'
p3
aI400
aa(lp4
S'distance'
p5
aF365.5734100341797
aa(lp6
S'timestamp'
p7
aF1.9095869064331055
aatp8
Rp9
.ccollections
OrderedDict
p0
((lp1
(lp2
S'state'
p3
aI400
aa(lp4
S'distance'
p5
aF365.5734100341797
aa(lp6
S'timestamp'
p7
aF1.910888910293579
aatp8
Rp9
.ccollections
OrderedDict
p0
((lp1
(lp2
S'state'
p3
aI400
aa(lp4
S'distance'
p5
aF365.5734100341797
aa(lp6
S'timestamp'
p7
aF1.918576955795288
aatp8
Rp9
.ccollections
OrderedDict
p0
((lp1
(lp2
S'state'
p3
aI400
aa(lp4
S'distance'
p5
aF365.5734100341797
aa(lp6
S'timestamp'
p7
aF1.928189992904663
aatp8
Rp9
.ccollections
OrderedDict
p0
((lp1
(lp2
S'state'
p3
aI400
aa(lp4
S'distance'
p5
aF365.5734100341797
aa(lp6
S'timestamp'
p7
aF1.928689956665039
aatp8
Rp9
.ccollections
OrderedDict
p0
((lp1
(lp2
S'state'
p3
aI400
aa(lp4
S'distance'
p5
aF365.5734100341797
aa(lp6
S'timestamp'
p7
aF1.9289360046386719
aatp8
Rp9
.ccollections
OrderedDict
p0
((lp1
(lp2
S'state'
p3
aI400
aa(lp4
S'distance'
p5
aF365.5734100341797
aa(lp6
S'timestamp'
p7
aF1.9374520778656006
aatp8
Rp9
.ccollections
OrderedDict
p0
((lp1
(lp2
S'state'
p3
aI400
aa(lp4
S'distance'
p5
aF365.5734100341797
aa(lp6
S'timestamp'
p7
aF1.93768310546875
aatp8
Rp9
.ccollections
OrderedDict
p0
((lp1
(lp2
S'state'
p3
aI400
aa(lp4
S'distance'
p5
aF365.5734100341797
aa(lp6
S'timestamp'
p7
aF1.946794033050537
aatp8
Rp9
.ccollections
OrderedDict
p0
((lp1
(lp2
S'state'
p3
aI400
aa(lp4
S'distance'
p5
aF365.5734100341797
aa(lp6
S'timestamp'
p7
aF1.947396993637085
aatp8
Rp9
.ccollections
OrderedDict
p0
((lp1
(lp2
S'state'
p3
aI400
aa(lp4
S'distance'
p5
aF365.5734100341797
aa(lp6
S'timestamp'
p7
aF1.9574270248413086
aatp8
Rp9
.ccollections
OrderedDict
p0
((lp1
(lp2
S'state'
p3
aI400
aa(lp4
S'distance'
p5
aF365.5734100341797
aa(lp6
S'timestamp'
p7
aF1.9575459957122803
aatp8
Rp9
.ccollections
OrderedDict
p0
((lp1
(lp2
S'state'
p3
aI400
aa(lp4
S'distance'
p5
aF365.5734100341797
aa(lp6
S'timestamp'
p7
aF1.9666030406951904
aatp8
Rp9
.ccollections
OrderedDict
p0
((lp1
(lp2
S'state'
p3
aI400
aa(lp4
S'distance'
p5
aF365.5734100341797
aa(lp6
S'timestamp'
p7
aF1.9671380519866943
aatp8
Rp9
.ccollections
OrderedDict
p0
((lp1
(lp2
S'state'
p3
aI400
aa(lp4
S'distance'
p5
aF365.5734100341797
aa(lp6
S'timestamp'
p7
aF1.9768710136413574
aatp8
Rp9
.ccollections
OrderedDict
p0
((lp1
(lp2
S'state'
p3
aI400
aa(lp4
S'distance'
p5
aF365.5734100341797
aa(lp6
S'timestamp'
p7
aF1.9774560928344727
aatp8
Rp9
.ccollections
OrderedDict
p0
((lp1
(lp2
S'state'
p3
aI400
aa(lp4
S'distance'
p5
aF365.5734100341797
aa(lp6
S'timestamp'
p7
aF1.9868619441986084
aatp8
Rp9
.ccollections
OrderedDict
p0
((lp1
(lp2
S'state'
p3
aI400
aa(lp4
S'distance'
p5
aF365.5734100341797
aa(lp6
S'timestamp'
p7
aF1.9875218868255615
aatp8
Rp9
.ccollections
OrderedDict
p0
((lp1
(lp2
S'state'
p3
aI400
aa(lp4
S'distance'
p5
aF365.5734100341797
aa(lp6
S'timestamp'
p7
aF1.996725082397461
aatp8
Rp9
.ccollections
OrderedDict
p0
((lp1
(lp2
S'state'
p3
aI400
aa(lp4
S'distance'
p5
aF365.5734100341797
aa(lp6
S'timestamp'
p7
aF1.9972460269927979
aatp8
Rp9
.ccollections
OrderedDict
p0
((lp1
(lp2
S'state'
p3
aI400
aa(lp4
S'distance'
p5
aF365.5734100341797
aa(lp6
S'timestamp'
p7
aF2.0099520683288574
aatp8
Rp9
.ccollections
OrderedDict
p0
((lp1
(lp2
S'state'
p3
aI400
aa(lp4
S'distance'
p5
aF365.5734100341797
aa(lp6
S'timestamp'
p7
aF2.0101029872894287
aatp8
Rp9
.ccollections
OrderedDict
p0
((lp1
(lp2
S'state'
p3
aI400
aa(lp4
S'distance'
p5
aF365.5734100341797
aa(lp6
S'timestamp'
p7
aF2.0168559551239014
aatp8
Rp9
.ccollections
OrderedDict
p0
((lp1
(lp2
S'state'
p3
aI400
aa(lp4
S'distance'
p5
aF365.5734100341797
aa(lp6
S'timestamp'
p7
aF2.017256021499634
aatp8
Rp9
.ccollections
OrderedDict
p0
((lp1
(lp2
S'state'
p3
aI400
aa(lp4
S'distance'
p5
aF365.5734100341797
aa(lp6
S'timestamp'
p7
aF2.026815891265869
aatp8
Rp9
.ccollections
OrderedDict
p0
((lp1
(lp2
S'state'
p3
aI400
aa(lp4
S'distance'
p5
aF365.5734100341797
aa(lp6
S'timestamp'
p7
aF2.027846097946167
aatp8
Rp9
.ccollections
OrderedDict
p0
((lp1
(lp2
S'state'
p3
aI400
aa(lp4
S'distance'
p5
aF365.5734100341797
aa(lp6
S'timestamp'
p7
aF2.0368568897247314
aatp8
Rp9
.ccollections
OrderedDict
p0
((lp1
(lp2
S'state'
p3
aI400
aa(lp4
S'distance'
p5
aF365.5734100341797
aa(lp6
S'timestamp'
p7
aF2.037245035171509
aatp8
Rp9
.ccollections
OrderedDict
p0
((lp1
(lp2
S'state'
p3
aI400
aa(lp4
S'distance'
p5
aF365.5734100341797
aa(lp6
S'timestamp'
p7
aF2.046778917312622
aatp8
Rp9
.ccollections
OrderedDict
p0
((lp1
(lp2
S'state'
p3
aI400
aa(lp4
S'distance'
p5
aF365.5734100341797
aa(lp6
S'timestamp'
p7
aF2.0471749305725098
aatp8
Rp9
.ccollections
OrderedDict
p0
((lp1
(lp2
S'state'
p3
aI400
aa(lp4
S'distance'
p5
aF365.5734100341797
aa(lp6
S'timestamp'
p7
aF2.0571160316467285
aatp8
Rp9
.ccollections
OrderedDict
p0
((lp1
(lp2
S'state'
p3
aI400
aa(lp4
S'distance'
p5
aF365.5734100341797
aa(lp6
S'timestamp'
p7
aF2.0573248863220215
aatp8
Rp9
.ccollections
OrderedDict
p0
((lp1
(lp2
S'state'
p3
aI400
aa(lp4
S'distance'
p5
aF365.5734100341797
aa(lp6
S'timestamp'
p7
aF2.06809401512146
aatp8
Rp9
.ccollections
OrderedDict
p0
((lp1
(lp2
S'state'
p3
aI400
aa(lp4
S'distance'
p5
aF365.5734100341797
aa(lp6
S'timestamp'
p7
aF2.06894588470459
aatp8
Rp9
.ccollections
OrderedDict
p0
((lp1
(lp2
S'state'
p3
aI400
aa(lp4
S'distance'
p5
aF365.5734100341797
aa(lp6
S'timestamp'
p7
aF2.077033042907715
aatp8
Rp9
.ccollections
OrderedDict
p0
((lp1
(lp2
S'state'
p3
aI400
aa(lp4
S'distance'
p5
aF365.5734100341797
aa(lp6
S'timestamp'
p7
aF2.077306032180786
aatp8
Rp9
.ccollections
OrderedDict
p0
((lp1
(lp2
S'state'
p3
aI400
aa(lp4
S'distance'
p5
aF365.5734100341797
aa(lp6
S'timestamp'
p7
aF2.0866990089416504
aatp8
Rp9
.ccollections
OrderedDict
p0
((lp1
(lp2
S'state'
p3
aI400
aa(lp4
S'distance'
p5
aF365.5734100341797
aa(lp6
S'timestamp'
p7
aF2.087301015853882
aatp8
Rp9
.ccollections
OrderedDict
p0
((lp1
(lp2
S'state'
p3
aI400
aa(lp4
S'distance'
p5
aF365.5734100341797
aa(lp6
S'timestamp'
p7
aF2.096729040145874
aatp8
Rp9
.ccollections
OrderedDict
p0
((lp1
(lp2
S'state'
p3
aI400
aa(lp4
S'distance'
p5
aF365.5734100341797
aa(lp6
S'timestamp'
p7
aF2.097424030303955
aatp8
Rp9
.ccollections
OrderedDict
p0
((lp1
(lp2
S'state'
p3
aI400
aa(lp4
S'distance'
p5
aF365.5734100341797
aa(lp6
S'timestamp'
p7
aF2.106748104095459
aatp8
Rp9
.ccollections
OrderedDict
p0
((lp1
(lp2
S'state'
p3
aI400
aa(lp4
S'distance'
p5
aF365.5734100341797
aa(lp6
S'timestamp'
p7
aF2.1078200340270996
aatp8
Rp9
.ccollections
OrderedDict
p0
((lp1
(lp2
S'state'
p3
aI400
aa(lp4
S'distance'
p5
aF365.5734100341797
aa(lp6
S'timestamp'
p7
aF2.1166670322418213
aatp8
Rp9
.ccollections
OrderedDict
p0
((lp1
(lp2
S'state'
p3
aI400
aa(lp4
S'distance'
p5
aF365.5734100341797
aa(lp6
S'timestamp'
p7
aF2.1171939373016357
aatp8
Rp9
.ccollections
OrderedDict
p0
((lp1
(lp2
S'state'
p3
aI400
aa(lp4
S'distance'
p5
aF365.5734100341797
aa(lp6
S'timestamp'
p7
aF2.1266748905181885
aatp8
Rp9
.ccollections
OrderedDict
p0
((lp1
(lp2
S'state'
p3
aI400
aa(lp4
S'distance'
p5
aF365.5734100341797
aa(lp6
S'timestamp'
p7
aF2.128178119659424
aatp8
Rp9
.ccollections
OrderedDict
p0
((lp1
(lp2
S'state'
p3
aI400
aa(lp4
S'distance'
p5
aF365.5734100341797
aa(lp6
S'timestamp'
p7
aF2.1366560459136963
aatp8
Rp9
.ccollections
OrderedDict
p0
((lp1
(lp2
S'state'
p3
aI400
aa(lp4
S'distance'
p5
aF365.5734100341797
aa(lp6
S'timestamp'
p7
aF2.1382720470428467
aatp8
Rp9
.ccollections
OrderedDict
p0
((lp1
(lp2
S'state'
p3
aI400
aa(lp4
S'distance'
p5
aF365.5734100341797
aa(lp6
S'timestamp'
p7
aF2.146667957305908
aatp8
Rp9
.ccollections
OrderedDict
p0
((lp1
(lp2
S'state'
p3
aI400
aa(lp4
S'distance'
p5
aF365.5734100341797
aa(lp6
S'timestamp'
p7
aF2.1474859714508057
aatp8
Rp9
.ccollections
OrderedDict
p0
((lp1
(lp2
S'state'
p3
aI400
aa(lp4
S'distance'
p5
aF365.5734100341797
aa(lp6
S'timestamp'
p7
aF2.1573739051818848
aatp8
Rp9
.ccollections
OrderedDict
p0
((lp1
(lp2
S'state'
p3
aI400
aa(lp4
S'distance'
p5
aF365.5734100341797
aa(lp6
S'timestamp'
p7
aF2.157607078552246
aatp8
Rp9
.ccollections
OrderedDict
p0
((lp1
(lp2
S'state'
p3
aI400
aa(lp4
S'distance'
p5
aF365.5734100341797
aa(lp6
S'timestamp'
p7
aF2.1671249866485596
aatp8
Rp9
.ccollections
OrderedDict
p0
((lp1
(lp2
S'state'
p3
aI400
aa(lp4
S'distance'
p5
aF365.5734100341797
aa(lp6
S'timestamp'
p7
aF2.1673879623413086
aatp8
Rp9
.ccollections
OrderedDict
p0
((lp1
(lp2
S'state'
p3
aI400
aa(lp4
S'distance'
p5
aF365.5734100341797
aa(lp6
S'timestamp'
p7
aF2.176640033721924
aatp8
Rp9
.ccollections
OrderedDict
p0
((lp1
(lp2
S'state'
p3
aI400
aa(lp4
S'distance'
p5
aF365.5734100341797
aa(lp6
S'timestamp'
p7
aF2.1782479286193848
aatp8
Rp9
.ccollections
OrderedDict
p0
((lp1
(lp2
S'state'
p3
aI400
aa(lp4
S'distance'
p5
aF365.5734100341797
aa(lp6
S'timestamp'
p7
aF2.1867969036102295
aatp8
Rp9
.ccollections
OrderedDict
p0
((lp1
(lp2
S'state'
p3
aI400
aa(lp4
S'distance'
p5
aF365.5734100341797
aa(lp6
S'timestamp'
p7
aF2.1891119480133057
aatp8
Rp9
.ccollections
OrderedDict
p0
((lp1
(lp2
S'state'
p3
aI400
aa(lp4
S'distance'
p5
aF365.5734100341797
aa(lp6
S'timestamp'
p7
aF2.2070820331573486
aatp8
Rp9
.ccollections
OrderedDict
p0
((lp1
(lp2
S'state'
p3
aI400
aa(lp4
S'distance'
p5
aF365.5734100341797
aa(lp6
S'timestamp'
p7
aF2.207443952560425
aatp8
Rp9
.ccollections
OrderedDict
p0
((lp1
(lp2
S'state'
p3
aI400
aa(lp4
S'distance'
p5
aF365.5734100341797
aa(lp6
S'timestamp'
p7
aF2.2082619667053223
aatp8
Rp9
.ccollections
OrderedDict
p0
((lp1
(lp2
S'state'
p3
aI400
aa(lp4
S'distance'
p5
aF365.5734100341797
aa(lp6
S'timestamp'
p7
aF2.2085630893707275
aatp8
Rp9
.ccollections
OrderedDict
p0
((lp1
(lp2
S'state'
p3
aI400
aa(lp4
S'distance'
p5
aF365.5734100341797
aa(lp6
S'timestamp'
p7
aF2.2169110774993896
aatp8
Rp9
.ccollections
OrderedDict
p0
((lp1
(lp2
S'state'
p3
aI400
aa(lp4
S'distance'
p5
aF365.5734100341797
aa(lp6
S'timestamp'
p7
aF2.217700958251953
aatp8
Rp9
.ccollections
OrderedDict
p0
((lp1
(lp2
S'state'
p3
aI400
aa(lp4
S'distance'
p5
aF365.5734100341797
aa(lp6
S'timestamp'
p7
aF2.226660966873169
aatp8
Rp9
.ccollections
OrderedDict
p0
((lp1
(lp2
S'state'
p3
aI400
aa(lp4
S'distance'
p5
aF365.5734100341797
aa(lp6
S'timestamp'
p7
aF2.227540969848633
aatp8
Rp9
.ccollections
OrderedDict
p0
((lp1
(lp2
S'state'
p3
aI400
aa(lp4
S'distance'
p5
aF365.5734100341797
aa(lp6
S'timestamp'
p7
aF2.2367970943450928
aatp8
Rp9
.ccollections
OrderedDict
p0
((lp1
(lp2
S'state'
p3
aI400
aa(lp4
S'distance'
p5
aF365.5734100341797
aa(lp6
S'timestamp'
p7
aF2.237445116043091
aatp8
Rp9
.ccollections
OrderedDict
p0
((lp1
(lp2
S'state'
p3
aI400
aa(lp4
S'distance'
p5
aF365.5734100341797
aa(lp6
S'timestamp'
p7
aF2.2571001052856445
aatp8
Rp9
.ccollections
OrderedDict
p0
((lp1
(lp2
S'state'
p3
aI400
aa(lp4
S'distance'
p5
aF365.5734100341797
aa(lp6
S'timestamp'
p7
aF2.257596015930176
aatp8
Rp9
.ccollections
OrderedDict
p0
((lp1
(lp2
S'state'
p3
aI400
aa(lp4
S'distance'
p5
aF365.5734100341797
aa(lp6
S'timestamp'
p7
aF2.2583138942718506
aatp8
Rp9
.ccollections
OrderedDict
p0
((lp1
(lp2
S'state'
p3
aI400
aa(lp4
S'distance'
p5
aF365.5734100341797
aa(lp6
S'timestamp'
p7
aF2.2584269046783447
aatp8
Rp9
.ccollections
OrderedDict
p0
((lp1
(lp2
S'state'
p3
aI400
aa(lp4
S'distance'
p5
aF365.5734100341797
aa(lp6
S'timestamp'
p7
aF2.2667160034179688
aatp8
Rp9
.ccollections
OrderedDict
p0
((lp1
(lp2
S'state'
p3
aI400
aa(lp4
S'distance'
p5
aF365.5734100341797
aa(lp6
S'timestamp'
p7
aF2.267616033554077
aatp8
Rp9
.ccollections
OrderedDict
p0
((lp1
(lp2
S'state'
p3
aI400
aa(lp4
S'distance'
p5
aF365.5734100341797
aa(lp6
S'timestamp'
p7
aF2.276740074157715
aatp8
Rp9
.ccollections
OrderedDict
p0
((lp1
(lp2
S'state'
p3
aI400
aa(lp4
S'distance'
p5
aF365.5734100341797
aa(lp6
S'timestamp'
p7
aF2.277229070663452
aatp8
Rp9
.ccollections
OrderedDict
p0
((lp1
(lp2
S'state'
p3
aI400
aa(lp4
S'distance'
p5
aF365.5734100341797
aa(lp6
S'timestamp'
p7
aF2.2867369651794434
aatp8
Rp9
.ccollections
OrderedDict
p0
((lp1
(lp2
S'state'
p3
aI400
aa(lp4
S'distance'
p5
aF365.5734100341797
aa(lp6
S'timestamp'
p7
aF2.2967629432678223
aatp8
Rp9
.ccollections
OrderedDict
p0
((lp1
(lp2
S'state'
p3
aI400
aa(lp4
S'distance'
p5
aF365.5734100341797
aa(lp6
S'timestamp'
p7
aF2.2976489067077637
aatp8
Rp9
.ccollections
OrderedDict
p0
((lp1
(lp2
S'state'
p3
aI400
aa(lp4
S'distance'
p5
aF365.5734100341797
aa(lp6
S'timestamp'
p7
aF2.2980289459228516
aatp8
Rp9
.ccollections
OrderedDict
p0
((lp1
(lp2
S'state'
p3
aI400
aa(lp4
S'distance'
p5
aF365.5734100341797
aa(lp6
S'timestamp'
p7
aF2.3069400787353516
aatp8
Rp9
.ccollections
OrderedDict
p0
((lp1
(lp2
S'state'
p3
aI400
aa(lp4
S'distance'
p5
aF365.5734100341797
aa(lp6
S'timestamp'
p7
aF2.307439088821411
aatp8
Rp9
.ccollections
OrderedDict
p0
((lp1
(lp2
S'state'
p3
aI400
aa(lp4
S'distance'
p5
aF365.5734100341797
aa(lp6
S'timestamp'
p7
aF2.3167059421539307
aatp8
Rp9
.ccollections
OrderedDict
p0
((lp1
(lp2
S'state'
p3
aI400
aa(lp4
S'distance'
p5
aF365.5734100341797
aa(lp6
S'timestamp'
p7
aF2.317579984664917
aatp8
Rp9
.ccollections
OrderedDict
p0
((lp1
(lp2
S'state'
p3
aI400
aa(lp4
S'distance'
p5
aF365.5734100341797
aa(lp6
S'timestamp'
p7
aF2.3268239498138428
aatp8
Rp9
.ccollections
OrderedDict
p0
((lp1
(lp2
S'state'
p3
aI400
aa(lp4
S'distance'
p5
aF365.5734100341797
aa(lp6
S'timestamp'
p7
aF2.3271279335021973
aatp8
Rp9
.ccollections
OrderedDict
p0
((lp1
(lp2
S'state'
p3
aI400
aa(lp4
S'distance'
p5
aF365.5734100341797
aa(lp6
S'timestamp'
p7
aF2.3368520736694336
aatp8
Rp9
.ccollections
OrderedDict
p0
((lp1
(lp2
S'state'
p3
aI400
aa(lp4
S'distance'
p5
aF365.5734100341797
aa(lp6
S'timestamp'
p7
aF2.3373661041259766
aatp8
Rp9
.ccollections
OrderedDict
p0
((lp1
(lp2
S'state'
p3
aI400
aa(lp4
S'distance'
p5
aF365.5734100341797
aa(lp6
S'timestamp'
p7
aF2.3467519283294678
aatp8
Rp9
.ccollections
OrderedDict
p0
((lp1
(lp2
S'state'
p3
aI400
aa(lp4
S'distance'
p5
aF365.5734100341797
aa(lp6
S'timestamp'
p7
aF2.3474268913269043
aatp8
Rp9
.ccollections
OrderedDict
p0
((lp1
(lp2
S'state'
p3
aI400
aa(lp4
S'distance'
p5
aF365.5734100341797
aa(lp6
S'timestamp'
p7
aF2.356766939163208
aatp8
Rp9
.ccollections
OrderedDict
p0
((lp1
(lp2
S'state'
p3
aI400
aa(lp4
S'distance'
p5
aF365.5734100341797
aa(lp6
S'timestamp'
p7
aF2.3571178913116455
aatp8
Rp9
.ccollections
OrderedDict
p0
((lp1
(lp2
S'state'
p3
aI400
aa(lp4
S'distance'
p5
aF365.5734100341797
aa(lp6
S'timestamp'
p7
aF2.3668429851531982
aatp8
Rp9
.ccollections
OrderedDict
p0
((lp1
(lp2
S'state'
p3
aI400
aa(lp4
S'distance'
p5
aF365.5734100341797
aa(lp6
S'timestamp'
p7
aF2.367516040802002
aatp8
Rp9
.ccollections
OrderedDict
p0
((lp1
(lp2
S'state'
p3
aI400
aa(lp4
S'distance'
p5
aF365.5734100341797
aa(lp6
S'timestamp'
p7
aF2.3768270015716553
aatp8
Rp9
.ccollections
OrderedDict
p0
((lp1
(lp2
S'state'
p3
aI400
aa(lp4
S'distance'
p5
aF365.5734100341797
aa(lp6
S'timestamp'
p7
aF2.377490997314453
aatp8
Rp9
.ccollections
OrderedDict
p0
((lp1
(lp2
S'state'
p3
aI400
aa(lp4
S'distance'
p5
aF365.5734100341797
aa(lp6
S'timestamp'
p7
aF2.3867430686950684
aatp8
Rp9
.ccollections
OrderedDict
p0
((lp1
(lp2
S'state'
p3
aI400
aa(lp4
S'distance'
p5
aF365.5734100341797
aa(lp6
S'timestamp'
p7
aF2.387336015701294
aatp8
Rp9
.ccollections
OrderedDict
p0
((lp1
(lp2
S'state'
p3
aI400
aa(lp4
S'distance'
p5
aF365.5734100341797
aa(lp6
S'timestamp'
p7
aF2.3967459201812744
aatp8
Rp9
.ccollections
OrderedDict
p0
((lp1
(lp2
S'state'
p3
aI400
aa(lp4
S'distance'
p5
aF365.5734100341797
aa(lp6
S'timestamp'
p7
aF2.397818088531494
aatp8
Rp9
.ccollections
OrderedDict
p0
((lp1
(lp2
S'state'
p3
aI400
aa(lp4
S'distance'
p5
aF365.5734100341797
aa(lp6
S'timestamp'
p7
aF2.40693998336792
aatp8
Rp9
.ccollections
OrderedDict
p0
((lp1
(lp2
S'state'
p3
aI400
aa(lp4
S'distance'
p5
aF365.5734100341797
aa(lp6
S'timestamp'
p7
aF2.4078919887542725
aatp8
Rp9
.ccollections
OrderedDict
p0
((lp1
(lp2
S'state'
p3
aI400
aa(lp4
S'distance'
p5
aF365.5734100341797
aa(lp6
S'timestamp'
p7
aF2.4296679496765137
aatp8
Rp9
.ccollections
OrderedDict
p0
((lp1
(lp2
S'state'
p3
aI400
aa(lp4
S'distance'
p5
aF365.5734100341797
aa(lp6
S'timestamp'
p7
aF2.429874897003174
aatp8
Rp9
.ccollections
OrderedDict
p0
((lp1
(lp2
S'state'
p3
aI400
aa(lp4
S'distance'
p5
aF365.5734100341797
aa(lp6
S'timestamp'
p7
aF2.430816888809204
aatp8
Rp9
.ccollections
OrderedDict
p0
((lp1
(lp2
S'state'
p3
aI400
aa(lp4
S'distance'
p5
aF365.5734100341797
aa(lp6
S'timestamp'
p7
aF2.4309511184692383
aatp8
Rp9
.ccollections
OrderedDict
p0
((lp1
(lp2
S'state'
p3
aI400
aa(lp4
S'distance'
p5
aF365.5734100341797
aa(lp6
S'timestamp'
p7
aF2.4368960857391357
aatp8
Rp9
.ccollections
OrderedDict
p0
((lp1
(lp2
S'state'
p3
aI400
aa(lp4
S'distance'
p5
aF365.5734100341797
aa(lp6
S'timestamp'
p7
aF2.4376380443573
aatp8
Rp9
.ccollections
OrderedDict
p0
((lp1
(lp2
S'state'
p3
aI400
aa(lp4
S'distance'
p5
aF365.5734100341797
aa(lp6
S'timestamp'
p7
aF2.4467720985412598
aatp8
Rp9
.ccollections
OrderedDict
p0
((lp1
(lp2
S'state'
p3
aI400
aa(lp4
S'distance'
p5
aF365.5734100341797
aa(lp6
S'timestamp'
p7
aF2.4475209712982178
aatp8
Rp9
.ccollections
OrderedDict
p0
((lp1
(lp2
S'state'
p3
aI400
aa(lp4
S'distance'
p5
aF365.5734100341797
aa(lp6
S'timestamp'
p7
aF2.456845998764038
aatp8
Rp9
.ccollections
OrderedDict
p0
((lp1
(lp2
S'state'
p3
aI400
aa(lp4
S'distance'
p5
aF365.5734100341797
aa(lp6
S'timestamp'
p7
aF2.4575369358062744
aatp8
Rp9
.ccollections
OrderedDict
p0
((lp1
(lp2
S'state'
p3
aI400
aa(lp4
S'distance'
p5
aF365.5734100341797
aa(lp6
S'timestamp'
p7
aF2.4669110774993896
aatp8
Rp9
.ccollections
OrderedDict
p0
((lp1
(lp2
S'state'
p3
aI400
aa(lp4
S'distance'
p5
aF365.5734100341797
aa(lp6
S'timestamp'
p7
aF2.467129945755005
aatp8
Rp9
.ccollections
OrderedDict
p0
((lp1
(lp2
S'state'
p3
aI400
aa(lp4
S'distance'
p5
aF365.5734100341797
aa(lp6
S'timestamp'
p7
aF2.4768049716949463
aatp8
Rp9
.ccollections
OrderedDict
p0
((lp1
(lp2
S'state'
p3
aI400
aa(lp4
S'distance'
p5
aF365.5734100341797
aa(lp6
S'timestamp'
p7
aF2.477224111557007
aatp8
Rp9
.ccollections
OrderedDict
p0
((lp1
(lp2
S'state'
p3
aI400
aa(lp4
S'distance'
p5
aF365.5734100341797
aa(lp6
S'timestamp'
p7
aF2.4868218898773193
aatp8
Rp9
.ccollections
OrderedDict
p0
((lp1
(lp2
S'state'
p3
aI400
aa(lp4
S'distance'
p5
aF365.5734100341797
aa(lp6
S'timestamp'
p7
aF2.4875121116638184
aatp8
Rp9
.ccollections
OrderedDict
p0
((lp1
(lp2
S'state'
p3
aI400
aa(lp4
S'distance'
p5
aF365.5734100341797
aa(lp6
S'timestamp'
p7
aF2.4968810081481934
aatp8
Rp9
.ccollections
OrderedDict
p0
((lp1
(lp2
S'state'
p3
aI400
aa(lp4
S'distance'
p5
aF365.5734100341797
aa(lp6
S'timestamp'
p7
aF2.497570037841797
aatp8
Rp9
.ccollections
OrderedDict
p0
((lp1
(lp2
S'state'
p3
aI400
aa(lp4
S'distance'
p5
aF365.5734100341797
aa(lp6
S'timestamp'
p7
aF2.506983995437622
aatp8
Rp9
.ccollections
OrderedDict
p0
((lp1
(lp2
S'state'
p3
aI400
aa(lp4
S'distance'
p5
aF365.5734100341797
aa(lp6
S'timestamp'
p7
aF2.50724196434021
aatp8
Rp9
.ccollections
OrderedDict
p0
((lp1
(lp2
S'state'
p3
aI0
aa(lp4
S'distance'
p5
aF365.5734100341797
aa(lp6
S'timestamp'
p7
aF2.517970085144043
aatp8
Rp9
.ccollections
OrderedDict
p0
((lp1
(lp2
S'state'
p3
aI0
aa(lp4
S'distance'
p5
aF270.1139450073242
aa(lp6
S'timestamp'
p7
aF3.078526020050049
aatp8
Rp9
.ccollections
OrderedDict
p0
((lp1
(lp2
S'state'
p3
aI0
aa(lp4
S'distance'
p5
aF270.1139450073242
aa(lp6
S'timestamp'
p7
aF3.088452100753784
aatp8
Rp9
.ccollections
OrderedDict
p0
((lp1
(lp2
S'state'
p3
aI0
aa(lp4
S'distance'
p5
aF270.1139450073242
aa(lp6
S'timestamp'
p7
aF3.1057169437408447
aatp8
Rp9
.ccollections
OrderedDict
p0
((lp1
(lp2
S'state'
p3
aI0
aa(lp4
S'distance'
p5
aF270.1139450073242
aa(lp6
S'timestamp'
p7
aF3.1058919429779053
aatp8
Rp9
.ccollections
OrderedDict
p0
((lp1
(lp2
S'state'
p3
aI0
aa(lp4
S'distance'
p5
aF270.1139450073242
aa(lp6
S'timestamp'
p7
aF3.1081109046936035
aatp8
Rp9
.ccollections
OrderedDict
p0
((lp1
(lp2
S'state'
p3
aI0
aa(lp4
S'distance'
p5
aF270.1139450073242
aa(lp6
S'timestamp'
p7
aF3.108302116394043
aatp8
Rp9
.ccollections
OrderedDict
p0
((lp1
(lp2
S'state'
p3
aI0
aa(lp4
S'distance'
p5
aF270.1139450073242
aa(lp6
S'timestamp'
p7
aF3.109023094177246
aatp8
Rp9
.ccollections
OrderedDict
p0
((lp1
(lp2
S'state'
p3
aI0
aa(lp4
S'distance'
p5
aF270.1139450073242
aa(lp6
S'timestamp'
p7
aF3.117949962615967
aatp8
Rp9
.ccollections
OrderedDict
p0
((lp1
(lp2
S'state'
p3
aI0
aa(lp4
S'distance'
p5
aF270.1139450073242
aa(lp6
S'timestamp'
p7
aF3.1184239387512207
aatp8
Rp9
.ccollections
OrderedDict
p0
((lp1
(lp2
S'state'
p3
aI0
aa(lp4
S'distance'
p5
aF270.1139450073242
aa(lp6
S'timestamp'
p7
aF3.126979112625122
aatp8
Rp9
.ccollections
OrderedDict
p0
((lp1
(lp2
S'state'
p3
aI0
aa(lp4
S'distance'
p5
aF270.1139450073242
aa(lp6
S'timestamp'
p7
aF3.127906084060669
aatp8
Rp9
.ccollections
OrderedDict
p0
((lp1
(lp2
S'state'
p3
aI0
aa(lp4
S'distance'
p5
aF270.1139450073242
aa(lp6
S'timestamp'
p7
aF3.137377977371216
aatp8
Rp9
.ccollections
OrderedDict
p0
((lp1
(lp2
S'state'
p3
aI0
aa(lp4
S'distance'
p5
aF270.1139450073242
aa(lp6
S'timestamp'
p7
aF3.137550115585327
aatp8
Rp9
.ccollections
OrderedDict
p0
((lp1
(lp2
S'state'
p3
aI0
aa(lp4
S'distance'
p5
aF270.1139450073242
aa(lp6
S'timestamp'
p7
aF3.1668899059295654
aatp8
Rp9
.ccollections
OrderedDict
p0
((lp1
(lp2
S'state'
p3
aI0
aa(lp4
S'distance'
p5
aF270.1139450073242
aa(lp6
S'timestamp'
p7
aF3.1675209999084473
aatp8
Rp9
.ccollections
OrderedDict
p0
((lp1
(lp2
S'state'
p3
aI0
aa(lp4
S'distance'
p5
aF270.1139450073242
aa(lp6
S'timestamp'
p7
aF3.1680850982666016
aatp8
Rp9
.ccollections
OrderedDict
p0
((lp1
(lp2
S'state'
p3
aI0
aa(lp4
S'distance'
p5
aF270.1139450073242
aa(lp6
S'timestamp'
p7
aF3.168771982192993
aatp8
Rp9
.ccollections
OrderedDict
p0
((lp1
(lp2
S'state'
p3
aI0
aa(lp4
S'distance'
p5
aF270.1139450073242
aa(lp6
S'timestamp'
p7
aF3.177251100540161
aatp8
Rp9
.ccollections
OrderedDict
p0
((lp1
(lp2
S'state'
p3
aI0
aa(lp4
S'distance'
p5
aF270.1139450073242
aa(lp6
S'timestamp'
p7
aF3.177720069885254
aatp8
Rp9
.ccollections
OrderedDict
p0
((lp1
(lp2
S'state'
p3
aI0
aa(lp4
S'distance'
p5
aF270.1139450073242
aa(lp6
S'timestamp'
p7
aF3.1783530712127686
aatp8
Rp9
.ccollections
OrderedDict
p0
((lp1
(lp2
S'state'
p3
aI0
aa(lp4
S'distance'
p5
aF270.1139450073242
aa(lp6
S'timestamp'
p7
aF3.1784420013427734
aatp8
Rp9
.ccollections
OrderedDict
p0
((lp1
(lp2
S'state'
p3
aI0
aa(lp4
S'distance'
p5
aF270.1139450073242
aa(lp6
S'timestamp'
p7
aF3.1869099140167236
aatp8
Rp9
.ccollections
OrderedDict
p0
((lp1
(lp2
S'state'
p3
aI0
aa(lp4
S'distance'
p5
aF270.1139450073242
aa(lp6
S'timestamp'
p7
aF3.187664031982422
aatp8
Rp9
.ccollections
OrderedDict
p0
((lp1
(lp2
S'state'
p3
aI0
aa(lp4
S'distance'
p5
aF270.1139450073242
aa(lp6
S'timestamp'
p7
aF3.1969499588012695
aatp8
Rp9
.ccollections
OrderedDict
p0
((lp1
(lp2
S'state'
p3
aI0
aa(lp4
S'distance'
p5
aF270.1139450073242
aa(lp6
S'timestamp'
p7
aF3.198111057281494
aatp8
Rp9
.ccollections
OrderedDict
p0
((lp1
(lp2
S'state'
p3
aI0
aa(lp4
S'distance'
p5
aF270.1139450073242
aa(lp6
S'timestamp'
p7
aF3.2068800926208496
aatp8
Rp9
.ccollections
OrderedDict
p0
((lp1
(lp2
S'state'
p3
aI0
aa(lp4
S'distance'
p5
aF270.1139450073242
aa(lp6
S'timestamp'
p7
aF3.2074899673461914
aatp8
Rp9
.ccollections
OrderedDict
p0
((lp1
(lp2
S'state'
p3
aI0
aa(lp4
S'distance'
p5
aF270.1139450073242
aa(lp6
S'timestamp'
p7
aF3.2168869972229004
aatp8
Rp9
.ccollections
OrderedDict
p0
((lp1
(lp2
S'state'
p3
aI0
aa(lp4
S'distance'
p5
aF270.1139450073242
aa(lp6
S'timestamp'
p7
aF3.264230966567993
aatp8
Rp9
.ccollections
OrderedDict
p0
((lp1
(lp2
S'state'
p3
aI0
aa(lp4
S'distance'
p5
aF270.1139450073242
aa(lp6
S'timestamp'
p7
aF3.2647149562835693
aatp8
Rp9
.ccollections
OrderedDict
p0
((lp1
(lp2
S'state'
p3
aI0
aa(lp4
S'distance'
p5
aF270.1139450073242
aa(lp6
S'timestamp'
p7
aF3.265497922897339
aatp8
Rp9
.ccollections
OrderedDict
p0
((lp1
(lp2
S'state'
p3
aI0
aa(lp4
S'distance'
p5
aF270.1139450073242
aa(lp6
S'timestamp'
p7
aF3.2657010555267334
aatp8
Rp9
.ccollections
OrderedDict
p0
((lp1
(lp2
S'state'
p3
aI0
aa(lp4
S'distance'
p5
aF270.1139450073242
aa(lp6
S'timestamp'
p7
aF3.267879009246826
aatp8
Rp9
.ccollections
OrderedDict
p0
((lp1
(lp2
S'state'
p3
aI0
aa(lp4
S'distance'
p5
aF270.1139450073242
aa(lp6
S'timestamp'
p7
aF3.268354892730713
aatp8
Rp9
.ccollections
OrderedDict
p0
((lp1
(lp2
S'state'
p3
aI0
aa(lp4
S'distance'
p5
aF270.1139450073242
aa(lp6
S'timestamp'
p7
aF3.268765926361084
aatp8
Rp9
.ccollections
OrderedDict
p0
((lp1
(lp2
S'state'
p3
aI0
aa(lp4
S'distance'
p5
aF270.1139450073242
aa(lp6
S'timestamp'
p7
aF3.269404888153076
aatp8
Rp9
.ccollections
OrderedDict
p0
((lp1
(lp2
S'state'
p3
aI0
aa(lp4
S'distance'
p5
aF270.1139450073242
aa(lp6
S'timestamp'
p7
aF3.2696340084075928
aatp8
Rp9
.ccollections
OrderedDict
p0
((lp1
(lp2
S'state'
p3
aI0
aa(lp4
S'distance'
p5
aF270.1139450073242
aa(lp6
S'timestamp'
p7
aF3.2708349227905273
aatp8
Rp9
.ccollections
OrderedDict
p0
((lp1
(lp2
S'state'
p3
aI0
aa(lp4
S'distance'
p5
aF270.1139450073242
aa(lp6
S'timestamp'
p7
aF3.2716989517211914
aatp8
Rp9
.ccollections
OrderedDict
p0
((lp1
(lp2
S'state'
p3
aI0
aa(lp4
S'distance'
p5
aF270.1139450073242
aa(lp6
S'timestamp'
p7
aF3.2778029441833496
aatp8
Rp9
.ccollections
OrderedDict
p0
((lp1
(lp2
S'state'
p3
aI0
aa(lp4
S'distance'
p5
aF270.1139450073242
aa(lp6
S'timestamp'
p7
aF3.278136968612671
aatp8
Rp9
.ccollections
OrderedDict
p0
((lp1
(lp2
S'state'
p3
aI0
aa(lp4
S'distance'
p5
aF270.1139450073242
aa(lp6
S'timestamp'
p7
aF3.2876598834991455
aatp8
Rp9
.ccollections
OrderedDict
p0
((lp1
(lp2
S'state'
p3
aI0
aa(lp4
S'distance'
p5
aF270.1139450073242
aa(lp6
S'timestamp'
p7
aF3.2884349822998047
aatp8
Rp9
.ccollections
OrderedDict
p0
((lp1
(lp2
S'state'
p3
aI0
aa(lp4
S'distance'
p5
aF270.1139450073242
aa(lp6
S'timestamp'
p7
aF3.306842088699341
aatp8
Rp9
.ccollections
OrderedDict
p0
((lp1
(lp2
S'state'
p3
aI0
aa(lp4
S'distance'
p5
aF270.1139450073242
aa(lp6
S'timestamp'
p7
aF3.317486047744751
aatp8
Rp9
.ccollections
OrderedDict
p0
((lp1
(lp2
S'state'
p3
aI0
aa(lp4
S'distance'
p5
aF270.1139450073242
aa(lp6
S'timestamp'
p7
aF3.3182530403137207
aatp8
Rp9
.ccollections
OrderedDict
p0
((lp1
(lp2
S'state'
p3
aI0
aa(lp4
S'distance'
p5
aF270.1139450073242
aa(lp6
S'timestamp'
p7
aF3.318341016769409
aatp8
Rp9
.ccollections
OrderedDict
p0
((lp1
(lp2
S'state'
p3
aI0
aa(lp4
S'distance'
p5
aF270.1139450073242
aa(lp6
S'timestamp'
p7
aF3.3184139728546143
aatp8
Rp9
.ccollections
OrderedDict
p0
((lp1
(lp2
S'state'
p3
aI0
aa(lp4
S'distance'
p5
aF270.1139450073242
aa(lp6
S'timestamp'
p7
aF3.3268380165100098
aatp8
Rp9
.ccollections
OrderedDict
p0
((lp1
(lp2
S'state'
p3
aI0
aa(lp4
S'distance'
p5
aF270.1139450073242
aa(lp6
S'timestamp'
p7
aF3.3278839588165283
aatp8
Rp9
.ccollections
OrderedDict
p0
((lp1
(lp2
S'state'
p3
aI0
aa(lp4
S'distance'
p5
aF270.1139450073242
aa(lp6
S'timestamp'
p7
aF3.32796311378479
aatp8
Rp9
.ccollections
OrderedDict
p0
((lp1
(lp2
S'state'
p3
aI0
aa(lp4
S'distance'
p5
aF270.1139450073242
aa(lp6
S'timestamp'
p7
aF3.3369739055633545
aatp8
Rp9
.ccollections
OrderedDict
p0
((lp1
(lp2
S'state'
p3
aI0
aa(lp4
S'distance'
p5
aF270.1139450073242
aa(lp6
S'timestamp'
p7
aF3.3380250930786133
aatp8
Rp9
.ccollections
OrderedDict
p0
((lp1
(lp2
S'state'
p3
aI0
aa(lp4
S'distance'
p5
aF270.1139450073242
aa(lp6
S'timestamp'
p7
aF3.34688401222229
aatp8
Rp9
.ccollections
OrderedDict
p0
((lp1
(lp2
S'state'
p3
aI0
aa(lp4
S'distance'
p5
aF270.1139450073242
aa(lp6
S'timestamp'
p7
aF3.3475871086120605
aatp8
Rp9
.ccollections
OrderedDict
p0
((lp1
(lp2
S'state'
p3
aI0
aa(lp4
S'distance'
p5
aF270.1139450073242
aa(lp6
S'timestamp'
p7
aF3.3680899143218994
aatp8
Rp9
.ccollections
OrderedDict
p0
((lp1
(lp2
S'state'
p3
aI0
aa(lp4
S'distance'
p5
aF270.1139450073242
aa(lp6
S'timestamp'
p7
aF3.3681640625
aatp8
Rp9
.ccollections
OrderedDict
p0
((lp1
(lp2
S'state'
p3
aI0
aa(lp4
S'distance'
p5
aF270.1139450073242
aa(lp6
S'timestamp'
p7
aF3.3682289123535156
aatp8
Rp9
.ccollections
OrderedDict
p0
((lp1
(lp2
S'state'
p3
aI0
aa(lp4
S'distance'
p5
aF270.1139450073242
aa(lp6
S'timestamp'
p7
aF3.3684170246124268
aatp8
Rp9
.ccollections
OrderedDict
p0
((lp1
(lp2
S'state'
p3
aI0
aa(lp4
S'distance'
p5
aF270.1139450073242
aa(lp6
S'timestamp'
p7
aF3.376842975616455
aatp8
Rp9
.ccollections
OrderedDict
p0
((lp1
(lp2
S'state'
p3
aI0
aa(lp4
S'distance'
p5
aF270.1139450073242
aa(lp6
S'timestamp'
p7
aF3.377887010574341
aatp8
Rp9
.ccollections
OrderedDict
p0
((lp1
(lp2
S'state'
p3
aI0
aa(lp4
S'distance'
p5
aF270.1139450073242
aa(lp6
S'timestamp'
p7
aF3.386976957321167
aatp8
Rp9
.ccollections
OrderedDict
p0
((lp1
(lp2
S'state'
p3
aI0
aa(lp4
S'distance'
p5
aF270.1139450073242
aa(lp6
S'timestamp'
p7
aF3.388711929321289
aatp8
Rp9
.ccollections
OrderedDict
p0
((lp1
(lp2
S'state'
p3
aI0
aa(lp4
S'distance'
p5
aF270.1139450073242
aa(lp6
S'timestamp'
p7
aF3.396919012069702
aatp8
Rp9
.ccollections
OrderedDict
p0
((lp1
(lp2
S'state'
p3
aI0
aa(lp4
S'distance'
p5
aF270.1139450073242
aa(lp6
S'timestamp'
p7
aF3.4070749282836914
aatp8
Rp9
.ccollections
OrderedDict
p0
((lp1
(lp2
S'state'
p3
aI0
aa(lp4
S'distance'
p5
aF270.1139450073242
aa(lp6
S'timestamp'
p7
aF3.4077069759368896
aatp8
Rp9
.ccollections
OrderedDict
p0
((lp1
(lp2
S'state'
p3
aI0
aa(lp4
S'distance'
p5
aF270.1139450073242
aa(lp6
S'timestamp'
p7
aF3.4077858924865723
aatp8
Rp9
.ccollections
OrderedDict
p0
((lp1
(lp2
S'state'
p3
aI0
aa(lp4
S'distance'
p5
aF270.1139450073242
aa(lp6
S'timestamp'
p7
aF3.4178569316864014
aatp8
Rp9
.ccollections
OrderedDict
p0
((lp1
(lp2
S'state'
p3
aI0
aa(lp4
S'distance'
p5
aF270.1139450073242
aa(lp6
S'timestamp'
p7
aF3.417931079864502
aatp8
Rp9
.ccollections
OrderedDict
p0
((lp1
(lp2
S'state'
p3
aI0
aa(lp4
S'distance'
p5
aF270.1139450073242
aa(lp6
S'timestamp'
p7
aF3.427506923675537
aatp8
Rp9
.ccollections
OrderedDict
p0
((lp1
(lp2
S'state'
p3
aI0
aa(lp4
S'distance'
p5
aF270.1139450073242
aa(lp6
S'timestamp'
p7
aF3.428291082382202
aatp8
Rp9
.ccollections
OrderedDict
p0
((lp1
(lp2
S'state'
p3
aI0
aa(lp4
S'distance'
p5
aF270.1139450073242
aa(lp6
S'timestamp'
p7
aF3.437037944793701
aatp8
Rp9
.ccollections
OrderedDict
p0
((lp1
(lp2
S'state'
p3
aI0
aa(lp4
S'distance'
p5
aF270.1139450073242
aa(lp6
S'timestamp'
p7
aF3.438788890838623
aatp8
Rp9
.ccollections
OrderedDict
p0
((lp1
(lp2
S'state'
p3
aI0
aa(lp4
S'distance'
p5
aF270.1139450073242
aa(lp6
S'timestamp'
p7
aF3.446820020675659
aatp8
Rp9
.ccollections
OrderedDict
p0
((lp1
(lp2
S'state'
p3
aI0
aa(lp4
S'distance'
p5
aF270.1139450073242
aa(lp6
S'timestamp'
p7
aF3.447835922241211
aatp8
Rp9
.ccollections
OrderedDict
p0
((lp1
(lp2
S'state'
p3
aI0
aa(lp4
S'distance'
p5
aF270.1139450073242
aa(lp6
S'timestamp'
p7
aF3.4673171043395996
aatp8
Rp9
.ccollections
OrderedDict
p0
((lp1
(lp2
S'state'
p3
aI0
aa(lp4
S'distance'
p5
aF270.1139450073242
aa(lp6
S'timestamp'
p7
aF3.467439889907837
aatp8
Rp9
.ccollections
OrderedDict
p0
((lp1
(lp2
S'state'
p3
aI0
aa(lp4
S'distance'
p5
aF270.1139450073242
aa(lp6
S'timestamp'
p7
aF3.4689459800720215
aatp8
Rp9
.ccollections
OrderedDict
p0
((lp1
(lp2
S'state'
p3
aI0
aa(lp4
S'distance'
p5
aF270.1139450073242
aa(lp6
S'timestamp'
p7
aF3.469019889831543
aatp8
Rp9
.ccollections
OrderedDict
p0
((lp1
(lp2
S'state'
p3
aI0
aa(lp4
S'distance'
p5
aF270.1139450073242
aa(lp6
S'timestamp'
p7
aF3.4769139289855957
aatp8
Rp9
.ccollections
OrderedDict
p0
((lp1
(lp2
S'state'
p3
aI0
aa(lp4
S'distance'
p5
aF270.1139450073242
aa(lp6
S'timestamp'
p7
aF3.4785308837890625
aatp8
Rp9
.ccollections
OrderedDict
p0
((lp1
(lp2
S'state'
p3
aI0
aa(lp4
S'distance'
p5
aF270.1139450073242
aa(lp6
S'timestamp'
p7
aF3.4869630336761475
aatp8
Rp9
.ccollections
OrderedDict
p0
((lp1
(lp2
S'state'
p3
aI0
aa(lp4
S'distance'
p5
aF270.1139450073242
aa(lp6
S'timestamp'
p7
aF3.4880828857421875
aatp8
Rp9
.ccollections
OrderedDict
p0
((lp1
(lp2
S'state'
p3
aI0
aa(lp4
S'distance'
p5
aF270.1139450073242
aa(lp6
S'timestamp'
p7
aF3.4968760013580322
aatp8
Rp9
.ccollections
OrderedDict
p0
((lp1
(lp2
S'state'
p3
aI0
aa(lp4
S'distance'
p5
aF270.1139450073242
aa(lp6
S'timestamp'
p7
aF3.498080015182495
aatp8
Rp9
.ccollections
OrderedDict
p0
((lp1
(lp2
S'state'
p3
aI0
aa(lp4
S'distance'
p5
aF270.1139450073242
aa(lp6
S'timestamp'
p7
aF3.506795883178711
aatp8
Rp9
.ccollections
OrderedDict
p0
((lp1
(lp2
S'state'
p3
aI0
aa(lp4
S'distance'
p5
aF270.1139450073242
aa(lp6
S'timestamp'
p7
aF3.5074379444122314
aatp8
Rp9
.ccollections
OrderedDict
p0
((lp1
(lp2
S'state'
p3
aI0
aa(lp4
S'distance'
p5
aF270.1139450073242
aa(lp6
S'timestamp'
p7
aF3.5169260501861572
aatp8
Rp9
.ccollections
OrderedDict
p0
((lp1
(lp2
S'state'
p3
aI0
aa(lp4
S'distance'
p5
aF270.1139450073242
aa(lp6
S'timestamp'
p7
aF3.5177340507507324
aatp8
Rp9
.ccollections
OrderedDict
p0
((lp1
(lp2
S'state'
p3
aI0
aa(lp4
S'distance'
p5
aF270.1139450073242
aa(lp6
S'timestamp'
p7
aF3.526956081390381
aatp8
Rp9
.ccollections
OrderedDict
p0
((lp1
(lp2
S'state'
p3
aI0
aa(lp4
S'distance'
p5
aF270.1139450073242
aa(lp6
S'timestamp'
p7
aF3.527873992919922
aatp8
Rp9
.ccollections
OrderedDict
p0
((lp1
(lp2
S'state'
p3
aI0
aa(lp4
S'distance'
p5
aF270.1139450073242
aa(lp6
S'timestamp'
p7
aF3.5579400062561035
aatp8
Rp9
.ccollections
OrderedDict
p0
((lp1
(lp2
S'state'
p3
aI0
aa(lp4
S'distance'
p5
aF270.1139450073242
aa(lp6
S'timestamp'
p7
aF3.558495044708252
aatp8
Rp9
.ccollections
OrderedDict
p0
((lp1
(lp2
S'state'
p3
aI0
aa(lp4
S'distance'
p5
aF270.1139450073242
aa(lp6
S'timestamp'
p7
aF3.5590031147003174
aatp8
Rp9
.ccollections
OrderedDict
p0
((lp1
(lp2
S'state'
p3
aI0
aa(lp4
S'distance'
p5
aF270.1139450073242
aa(lp6
S'timestamp'
p7
aF3.559551954269409
aatp8
Rp9
.ccollections
OrderedDict
p0
((lp1
(lp2
S'state'
p3
aI0
aa(lp4
S'distance'
p5
aF270.1139450073242
aa(lp6
S'timestamp'
p7
aF3.5678091049194336
aatp8
Rp9
.ccollections
OrderedDict
p0
((lp1
(lp2
S'state'
p3
aI0
aa(lp4
S'distance'
p5
aF270.1139450073242
aa(lp6
S'timestamp'
p7
aF3.5679008960723877
aatp8
Rp9
.ccollections
OrderedDict
p0
((lp1
(lp2
S'state'
p3
aI0
aa(lp4
S'distance'
p5
aF270.1139450073242
aa(lp6
S'timestamp'
p7
aF3.5681240558624268
aatp8
Rp9
.ccollections
OrderedDict
p0
((lp1
(lp2
S'state'
p3
aI0
aa(lp4
S'distance'
p5
aF270.1139450073242
aa(lp6
S'timestamp'
p7
aF3.568192958831787
aatp8
Rp9
.ccollections
OrderedDict
p0
((lp1
(lp2
S'state'
p3
aI0
aa(lp4
S'distance'
p5
aF270.1139450073242
aa(lp6
S'timestamp'
p7
aF3.5771710872650146
aatp8
Rp9
.ccollections
OrderedDict
p0
((lp1
(lp2
S'state'
p3
aI0
aa(lp4
S'distance'
p5
aF270.1139450073242
aa(lp6
S'timestamp'
p7
aF3.577677011489868
aatp8
Rp9
.ccollections
OrderedDict
p0
((lp1
(lp2
S'state'
p3
aI0
aa(lp4
S'distance'
p5
aF270.1139450073242
aa(lp6
S'timestamp'
p7
aF3.5870978832244873
aatp8
Rp9
.ccollections
OrderedDict
p0
((lp1
(lp2
S'state'
p3
aI0
aa(lp4
S'distance'
p5
aF270.1139450073242
aa(lp6
S'timestamp'
p7
aF3.5876688957214355
aatp8
Rp9
.ccollections
OrderedDict
p0
((lp1
(lp2
S'state'
p3
aI0
aa(lp4
S'distance'
p5
aF270.1139450073242
aa(lp6
S'timestamp'
p7
aF3.5975329875946045
aatp8
Rp9
.ccollections
OrderedDict
p0
((lp1
(lp2
S'state'
p3
aI0
aa(lp4
S'distance'
p5
aF270.1139450073242
aa(lp6
S'timestamp'
p7
aF3.5976390838623047
aatp8
Rp9
.ccollections
OrderedDict
p0
((lp1
(lp2
S'state'
p3
aI0
aa(lp4
S'distance'
p5
aF270.1139450073242
aa(lp6
S'timestamp'
p7
aF3.6075809001922607
aatp8
Rp9
.ccollections
OrderedDict
p0
((lp1
(lp2
S'state'
p3
aI0
aa(lp4
S'distance'
p5
aF270.1139450073242
aa(lp6
S'timestamp'
p7
aF3.6077609062194824
aatp8
Rp9
.ccollections
OrderedDict
p0
((lp1
(lp2
S'state'
p3
aI0
aa(lp4
S'distance'
p5
aF270.1139450073242
aa(lp6
S'timestamp'
p7
aF3.618330955505371
aatp8
Rp9
.ccollections
OrderedDict
p0
((lp1
(lp2
S'state'
p3
aI0
aa(lp4
S'distance'
p5
aF270.1139450073242
aa(lp6
S'timestamp'
p7
aF3.620690107345581
aatp8
Rp9
.ccollections
OrderedDict
p0
((lp1
(lp2
S'state'
p3
aI0
aa(lp4
S'distance'
p5
aF270.1139450073242
aa(lp6
S'timestamp'
p7
aF3.628743886947632
aatp8
Rp9
.ccollections
OrderedDict
p0
((lp1
(lp2
S'state'
p3
aI0
aa(lp4
S'distance'
p5
aF270.1139450073242
aa(lp6
S'timestamp'
p7
aF3.6289210319519043
aatp8
Rp9
.ccollections
OrderedDict
p0
((lp1
(lp2
S'state'
p3
aI0
aa(lp4
S'distance'
p5
aF270.1139450073242
aa(lp6
S'timestamp'
p7
aF3.636838912963867
aatp8
Rp9
.ccollections
OrderedDict
p0
((lp1
(lp2
S'state'
p3
aI0
aa(lp4
S'distance'
p5
aF270.1139450073242
aa(lp6
S'timestamp'
p7
aF3.6473469734191895
aatp8
Rp9
.ccollections
OrderedDict
p0
((lp1
(lp2
S'state'
p3
aI0
aa(lp4
S'distance'
p5
aF270.1139450073242
aa(lp6
S'timestamp'
p7
aF3.647658109664917
aatp8
Rp9
.ccollections
OrderedDict
p0
((lp1
(lp2
S'state'
p3
aI0
aa(lp4
S'distance'
p5
aF270.1139450073242
aa(lp6
S'timestamp'
p7
aF3.647814989089966
aatp8
Rp9
.ccollections
OrderedDict
p0
((lp1
(lp2
S'state'
p3
aI0
aa(lp4
S'distance'
p5
aF270.1139450073242
aa(lp6
S'timestamp'
p7
aF3.6577460765838623
aatp8
Rp9
.ccollections
OrderedDict
p0
((lp1
(lp2
S'state'
p3
aI0
aa(lp4
S'distance'
p5
aF270.1139450073242
aa(lp6
S'timestamp'
p7
aF3.657839059829712
aatp8
Rp9
.ccollections
OrderedDict
p0
((lp1
(lp2
S'state'
p3
aI0
aa(lp4
S'distance'
p5
aF270.1139450073242
aa(lp6
S'timestamp'
p7
aF3.6670539379119873
aatp8
Rp9
.ccollections
OrderedDict
p0
((lp1
(lp2
S'state'
p3
aI0
aa(lp4
S'distance'
p5
aF270.1139450073242
aa(lp6
S'timestamp'
p7
aF3.6680970191955566
aatp8
Rp9
.ccollections
OrderedDict
p0
((lp1
(lp2
S'state'
p3
aI400
aa(lp4
S'distance'
p5
aF270.1139450073242
aa(lp6
S'timestamp'
p7
aF3.698446035385132
aatp8
Rp9
.ccollections
OrderedDict
p0
((lp1
(lp2
S'state'
p3
aI400
aa(lp4
S'distance'
p5
aF270.1139450073242
aa(lp6
S'timestamp'
p7
aF3.6985340118408203
aatp8
Rp9
.ccollections
OrderedDict
p0
((lp1
(lp2
S'state'
p3
aI400
aa(lp4
S'distance'
p5
aF270.1139450073242
aa(lp6
S'timestamp'
p7
aF3.6986019611358643
aatp8
Rp9
.ccollections
OrderedDict
p0
((lp1
(lp2
S'state'
p3
aI400
aa(lp4
S'distance'
p5
aF270.1139450073242
aa(lp6
S'timestamp'
p7
aF3.6986660957336426
aatp8
Rp9
.ccollections
OrderedDict
p0
((lp1
(lp2
S'state'
p3
aI400
aa(lp4
S'distance'
p5
aF270.1139450073242
aa(lp6
S'timestamp'
p7
aF3.7068910598754883
aatp8
Rp9
.ccollections
OrderedDict
p0
((lp1
(lp2
S'state'
p3
aI400
aa(lp4
S'distance'
p5
aF270.1139450073242
aa(lp6
S'timestamp'
p7
aF3.7076621055603027
aatp8
Rp9
.ccollections
OrderedDict
p0
((lp1
(lp2
S'state'
p3
aI400
aa(lp4
S'distance'
p5
aF270.1139450073242
aa(lp6
S'timestamp'
p7
aF3.708523988723755
aatp8
Rp9
.ccollections
OrderedDict
p0
((lp1
(lp2
S'state'
p3
aI400
aa(lp4
S'distance'
p5
aF270.1139450073242
aa(lp6
S'timestamp'
p7
aF3.708651065826416
aatp8
Rp9
.ccollections
OrderedDict
p0
((lp1
(lp2
S'state'
p3
aI400
aa(lp4
S'distance'
p5
aF270.1139450073242
aa(lp6
S'timestamp'
p7
aF3.7199089527130127
aatp8
Rp9
.ccollections
OrderedDict
p0
((lp1
(lp2
S'state'
p3
aI400
aa(lp4
S'distance'
p5
aF270.1139450073242
aa(lp6
S'timestamp'
p7
aF3.7419331073760986
aatp8
Rp9
.ccollections
OrderedDict
p0
((lp1
(lp2
S'state'
p3
aI400
aa(lp4
S'distance'
p5
aF270.1139450073242
aa(lp6
S'timestamp'
p7
aF3.7422120571136475
aatp8
Rp9
.ccollections
OrderedDict
p0
((lp1
(lp2
S'state'
p3
aI400
aa(lp4
S'distance'
p5
aF270.1139450073242
aa(lp6
S'timestamp'
p7
aF3.742392063140869
aatp8
Rp9
.ccollections
OrderedDict
p0
((lp1
(lp2
S'state'
p3
aI400
aa(lp4
S'distance'
p5
aF270.1139450073242
aa(lp6
S'timestamp'
p7
aF3.742582082748413
aatp8
Rp9
.ccollections
OrderedDict
p0
((lp1
(lp2
S'state'
p3
aI400
aa(lp4
S'distance'
p5
aF270.1139450073242
aa(lp6
S'timestamp'
p7
aF3.7433950901031494
aatp8
Rp9
.ccollections
OrderedDict
p0
((lp1
(lp2
S'state'
p3
aI400
aa(lp4
S'distance'
p5
aF270.1139450073242
aa(lp6
S'timestamp'
p7
aF3.748228073120117
aatp8
Rp9
.ccollections
OrderedDict
p0
((lp1
(lp2
S'state'
p3
aI400
aa(lp4
S'distance'
p5
aF270.1139450073242
aa(lp6
S'timestamp'
p7
aF3.748924970626831
aatp8
Rp9
.ccollections
OrderedDict
p0
((lp1
(lp2
S'state'
p3
aI400
aa(lp4
S'distance'
p5
aF270.1139450073242
aa(lp6
S'timestamp'
p7
aF3.7616870403289795
aatp8
Rp9
.ccollections
OrderedDict
p0
((lp1
(lp2
S'state'
p3
aI400
aa(lp4
S'distance'
p5
aF270.1139450073242
aa(lp6
S'timestamp'
p7
aF3.7622129917144775
aatp8
Rp9
.ccollections
OrderedDict
p0
((lp1
(lp2
S'state'
p3
aI400
aa(lp4
S'distance'
p5
aF270.1139450073242
aa(lp6
S'timestamp'
p7
aF3.7678160667419434
aatp8
Rp9
.ccollections
OrderedDict
p0
((lp1
(lp2
S'state'
p3
aI400
aa(lp4
S'distance'
p5
aF270.1139450073242
aa(lp6
S'timestamp'
p7
aF3.7770400047302246
aatp8
Rp9
.ccollections
OrderedDict
p0
((lp1
(lp2
S'state'
p3
aI400
aa(lp4
S'distance'
p5
aF270.1139450073242
aa(lp6
S'timestamp'
p7
aF3.7772250175476074
aatp8
Rp9
.ccollections
OrderedDict
p0
((lp1
(lp2
S'state'
p3
aI400
aa(lp4
S'distance'
p5
aF270.1139450073242
aa(lp6
S'timestamp'
p7
aF3.7778680324554443
aatp8
Rp9
.ccollections
OrderedDict
p0
((lp1
(lp2
S'state'
p3
aI400
aa(lp4
S'distance'
p5
aF270.1139450073242
aa(lp6
S'timestamp'
p7
aF3.7868800163269043
aatp8
Rp9
.ccollections
OrderedDict
p0
((lp1
(lp2
S'state'
p3
aI400
aa(lp4
S'distance'
p5
aF270.1139450073242
aa(lp6
S'timestamp'
p7
aF3.7876980304718018
aatp8
Rp9
.ccollections
OrderedDict
p0
((lp1
(lp2
S'state'
p3
aI400
aa(lp4
S'distance'
p5
aF270.1139450073242
aa(lp6
S'timestamp'
p7
aF3.8072850704193115
aatp8
Rp9
.ccollections
OrderedDict
p0
((lp1
(lp2
S'state'
p3
aI400
aa(lp4
S'distance'
p5
aF270.1139450073242
aa(lp6
S'timestamp'
p7
aF3.8079400062561035
aatp8
Rp9
.ccollections
OrderedDict
p0
((lp1
(lp2
S'state'
p3
aI400
aa(lp4
S'distance'
p5
aF270.1139450073242
aa(lp6
S'timestamp'
p7
aF3.8083078861236572
aatp8
Rp9
.ccollections
OrderedDict
p0
((lp1
(lp2
S'state'
p3
aI400
aa(lp4
S'distance'
p5
aF270.1139450073242
aa(lp6
S'timestamp'
p7
aF3.817189931869507
aatp8
Rp9
.ccollections
OrderedDict
p0
((lp1
(lp2
S'state'
p3
aI400
aa(lp4
S'distance'
p5
aF270.1139450073242
aa(lp6
S'timestamp'
p7
aF3.8176651000976562
aatp8
Rp9
.ccollections
OrderedDict
p0
((lp1
(lp2
S'state'
p3
aI400
aa(lp4
S'distance'
p5
aF270.1139450073242
aa(lp6
S'timestamp'
p7
aF3.8179969787597656
aatp8
Rp9
.ccollections
OrderedDict
p0
((lp1
(lp2
S'state'
p3
aI400
aa(lp4
S'distance'
p5
aF270.1139450073242
aa(lp6
S'timestamp'
p7
aF3.827410936355591
aatp8
Rp9
.ccollections
OrderedDict
p0
((lp1
(lp2
S'state'
p3
aI400
aa(lp4
S'distance'
p5
aF270.1139450073242
aa(lp6
S'timestamp'
p7
aF3.8275840282440186
aatp8
Rp9
.ccollections
OrderedDict
p0
((lp1
(lp2
S'state'
p3
aI400
aa(lp4
S'distance'
p5
aF270.1139450073242
aa(lp6
S'timestamp'
p7
aF3.8369340896606445
aatp8
Rp9
.ccollections
OrderedDict
p0
((lp1
(lp2
S'state'
p3
aI400
aa(lp4
S'distance'
p5
aF270.1139450073242
aa(lp6
S'timestamp'
p7
aF3.8374500274658203
aatp8
Rp9
.ccollections
OrderedDict
p0
((lp1
(lp2
S'state'
p3
aI400
aa(lp4
S'distance'
p5
aF270.1139450073242
aa(lp6
S'timestamp'
p7
aF3.846932888031006
aatp8
Rp9
.ccollections
OrderedDict
p0
((lp1
(lp2
S'state'
p3
aI400
aa(lp4
S'distance'
p5
aF270.1139450073242
aa(lp6
S'timestamp'
p7
aF3.8476099967956543
aatp8
Rp9
.ccollections
OrderedDict
p0
((lp1
(lp2
S'state'
p3
aI400
aa(lp4
S'distance'
p5
aF270.1139450073242
aa(lp6
S'timestamp'
p7
aF3.856951951980591
aatp8
Rp9
.ccollections
OrderedDict
p0
((lp1
(lp2
S'state'
p3
aI400
aa(lp4
S'distance'
p5
aF270.1139450073242
aa(lp6
S'timestamp'
p7
aF3.858794927597046
aatp8
Rp9
.ccollections
OrderedDict
p0
((lp1
(lp2
S'state'
p3
aI400
aa(lp4
S'distance'
p5
aF270.1139450073242
aa(lp6
S'timestamp'
p7
aF3.8672099113464355
aatp8
Rp9
.ccollections
OrderedDict
p0
((lp1
(lp2
S'state'
p3
aI400
aa(lp4
S'distance'
p5
aF270.1139450073242
aa(lp6
S'timestamp'
p7
aF3.867902994155884
aatp8
Rp9
.ccollections
OrderedDict
p0
((lp1
(lp2
S'state'
p3
aI400
aa(lp4
S'distance'
p5
aF270.1139450073242
aa(lp6
S'timestamp'
p7
aF3.87699294090271
aatp8
Rp9
.ccollections
OrderedDict
p0
((lp1
(lp2
S'state'
p3
aI400
aa(lp4
S'distance'
p5
aF270.1139450073242
aa(lp6
S'timestamp'
p7
aF3.8778069019317627
aatp8
Rp9
.ccollections
OrderedDict
p0
((lp1
(lp2
S'state'
p3
aI400
aa(lp4
S'distance'
p5
aF270.1139450073242
aa(lp6
S'timestamp'
p7
aF3.9075770378112793
aatp8
Rp9
.ccollections
OrderedDict
p0
((lp1
(lp2
S'state'
p3
aI400
aa(lp4
S'distance'
p5
aF270.1139450073242
aa(lp6
S'timestamp'
p7
aF3.907773017883301
aatp8
Rp9
.ccollections
OrderedDict
p0
((lp1
(lp2
S'state'
p3
aI400
aa(lp4
S'distance'
p5
aF270.1139450073242
aa(lp6
S'timestamp'
p7
aF3.908687114715576
aatp8
Rp9
.ccollections
OrderedDict
p0
((lp1
(lp2
S'state'
p3
aI400
aa(lp4
S'distance'
p5
aF270.1139450073242
aa(lp6
S'timestamp'
p7
aF3.9174060821533203
aatp8
Rp9
.ccollections
OrderedDict
p0
((lp1
(lp2
S'state'
p3
aI400
aa(lp4
S'distance'
p5
aF270.1139450073242
aa(lp6
S'timestamp'
p7
aF3.917581081390381
aatp8
Rp9
.ccollections
OrderedDict
p0
((lp1
(lp2
S'state'
p3
aI400
aa(lp4
S'distance'
p5
aF270.1139450073242
aa(lp6
S'timestamp'
p7
aF3.9185988903045654
aatp8
Rp9
.ccollections
OrderedDict
p0
((lp1
(lp2
S'state'
p3
aI400
aa(lp4
S'distance'
p5
aF270.1139450073242
aa(lp6
S'timestamp'
p7
aF3.919015884399414
aatp8
Rp9
.ccollections
OrderedDict
p0
((lp1
(lp2
S'state'
p3
aI400
aa(lp4
S'distance'
p5
aF270.1139450073242
aa(lp6
S'timestamp'
p7
aF3.9376060962677
aatp8
Rp9
.ccollections
OrderedDict
p0
((lp1
(lp2
S'state'
p3
aI400
aa(lp4
S'distance'
p5
aF270.1139450073242
aa(lp6
S'timestamp'
p7
aF3.9380691051483154
aatp8
Rp9
.ccollections
OrderedDict
p0
((lp1
(lp2
S'state'
p3
aI400
aa(lp4
S'distance'
p5
aF270.1139450073242
aa(lp6
S'timestamp'
p7
aF3.947962999343872
aatp8
Rp9
.ccollections
OrderedDict
p0
((lp1
(lp2
S'state'
p3
aI400
aa(lp4
S'distance'
p5
aF270.1139450073242
aa(lp6
S'timestamp'
p7
aF3.948245048522949
aatp8
Rp9
.ccollections
OrderedDict
p0
((lp1
(lp2
S'state'
p3
aI400
aa(lp4
S'distance'
p5
aF270.1139450073242
aa(lp6
S'timestamp'
p7
aF3.9483959674835205
aatp8
Rp9
.ccollections
OrderedDict
p0
((lp1
(lp2
S'state'
p3
aI400
aa(lp4
S'distance'
p5
aF270.1139450073242
aa(lp6
S'timestamp'
p7
aF3.948765993118286
aatp8
Rp9
.ccollections
OrderedDict
p0
((lp1
(lp2
S'state'
p3
aI400
aa(lp4
S'distance'
p5
aF270.1139450073242
aa(lp6
S'timestamp'
p7
aF3.95707106590271
aatp8
Rp9
.ccollections
OrderedDict
p0
((lp1
(lp2
S'state'
p3
aI400
aa(lp4
S'distance'
p5
aF270.1139450073242
aa(lp6
S'timestamp'
p7
aF3.9583640098571777
aatp8
Rp9
.ccollections
OrderedDict
p0
((lp1
(lp2
S'state'
p3
aI400
aa(lp4
S'distance'
p5
aF270.1139450073242
aa(lp6
S'timestamp'
p7
aF3.958651065826416
aatp8
Rp9
.ccollections
OrderedDict
p0
((lp1
(lp2
S'state'
p3
aI400
aa(lp4
S'distance'
p5
aF270.1139450073242
aa(lp6
S'timestamp'
p7
aF3.9669411182403564
aatp8
Rp9
.ccollections
OrderedDict
p0
((lp1
(lp2
S'state'
p3
aI400
aa(lp4
S'distance'
p5
aF270.1139450073242
aa(lp6
S'timestamp'
p7
aF3.9673309326171875
aatp8
Rp9
.ccollections
OrderedDict
p0
((lp1
(lp2
S'state'
p3
aI400
aa(lp4
S'distance'
p5
aF270.1139450073242
aa(lp6
S'timestamp'
p7
aF3.977858066558838
aatp8
Rp9
.ccollections
OrderedDict
p0
((lp1
(lp2
S'state'
p3
aI400
aa(lp4
S'distance'
p5
aF270.1139450073242
aa(lp6
S'timestamp'
p7
aF3.977940082550049
aatp8
Rp9
.ccollections
OrderedDict
p0
((lp1
(lp2
S'state'
p3
aI400
aa(lp4
S'distance'
p5
aF270.1139450073242
aa(lp6
S'timestamp'
p7
aF3.987544059753418
aatp8
Rp9
.ccollections
OrderedDict
p0
((lp1
(lp2
S'state'
p3
aI400
aa(lp4
S'distance'
p5
aF270.1139450073242
aa(lp6
S'timestamp'
p7
aF3.9876530170440674
aatp8
Rp9
.ccollections
OrderedDict
p0
((lp1
(lp2
S'state'
p3
aI400
aa(lp4
S'distance'
p5
aF270.1139450073242
aa(lp6
S'timestamp'
p7
aF3.997343063354492
aatp8
Rp9
.ccollections
OrderedDict
p0
((lp1
(lp2
S'state'
p3
aI400
aa(lp4
S'distance'
p5
aF270.1139450073242
aa(lp6
S'timestamp'
p7
aF3.998893976211548
aatp8
Rp9
.ccollections
OrderedDict
p0
((lp1
(lp2
S'state'
p3
aI400
aa(lp4
S'distance'
p5
aF270.1139450073242
aa(lp6
S'timestamp'
p7
aF4.0068910121917725
aatp8
Rp9
.ccollections
OrderedDict
p0
((lp1
(lp2
S'state'
p3
aI400
aa(lp4
S'distance'
p5
aF270.1139450073242
aa(lp6
S'timestamp'
p7
aF4.008210897445679
aatp8
Rp9
.ccollections
OrderedDict
p0
((lp1
(lp2
S'state'
p3
aI400
aa(lp4
S'distance'
p5
aF270.1139450073242
aa(lp6
S'timestamp'
p7
aF4.018343925476074
aatp8
Rp9
.ccollections
OrderedDict
p0
((lp1
(lp2
S'state'
p3
aI400
aa(lp4
S'distance'
p5
aF270.1139450073242
aa(lp6
S'timestamp'
p7
aF4.018556118011475
aatp8
Rp9
.ccollections
OrderedDict
p0
((lp1
(lp2
S'state'
p3
aI400
aa(lp4
S'distance'
p5
aF270.1139450073242
aa(lp6
S'timestamp'
p7
aF4.026870012283325
aatp8
Rp9
.ccollections
OrderedDict
p0
((lp1
(lp2
S'state'
p3
aI400
aa(lp4
S'distance'
p5
aF270.1139450073242
aa(lp6
S'timestamp'
p7
aF4.027213096618652
aatp8
Rp9
.ccollections
OrderedDict
p0
((lp1
(lp2
S'state'
p3
aI400
aa(lp4
S'distance'
p5
aF270.1139450073242
aa(lp6
S'timestamp'
p7
aF4.036732912063599
aatp8
Rp9
.ccollections
OrderedDict
p0
((lp1
(lp2
S'state'
p3
aI400
aa(lp4
S'distance'
p5
aF270.1139450073242
aa(lp6
S'timestamp'
p7
aF4.0572121143341064
aatp8
Rp9
.ccollections
OrderedDict
p0
((lp1
(lp2
S'state'
p3
aI400
aa(lp4
S'distance'
p5
aF270.1139450073242
aa(lp6
S'timestamp'
p7
aF4.057300090789795
aatp8
Rp9
.ccollections
OrderedDict
p0
((lp1
(lp2
S'state'
p3
aI400
aa(lp4
S'distance'
p5
aF270.1139450073242
aa(lp6
S'timestamp'
p7
aF4.058383941650391
aatp8
Rp9
.ccollections
OrderedDict
p0
((lp1
(lp2
S'state'
p3
aI400
aa(lp4
S'distance'
p5
aF270.1139450073242
aa(lp6
S'timestamp'
p7
aF4.059354066848755
aatp8
Rp9
.ccollections
OrderedDict
p0
((lp1
(lp2
S'state'
p3
aI400
aa(lp4
S'distance'
p5
aF270.1139450073242
aa(lp6
S'timestamp'
p7
aF4.0671539306640625
aatp8
Rp9
.ccollections
OrderedDict
p0
((lp1
(lp2
S'state'
p3
aI400
aa(lp4
S'distance'
p5
aF270.1139450073242
aa(lp6
S'timestamp'
p7
aF4.06727409362793
aatp8
Rp9
.ccollections
OrderedDict
p0
((lp1
(lp2
S'state'
p3
aI400
aa(lp4
S'distance'
p5
aF270.1139450073242
aa(lp6
S'timestamp'
p7
aF4.067831993103027
aatp8
Rp9
.ccollections
OrderedDict
p0
((lp1
(lp2
S'state'
p3
aI400
aa(lp4
S'distance'
p5
aF270.1139450073242
aa(lp6
S'timestamp'
p7
aF4.076875925064087
aatp8
Rp9
.ccollections
OrderedDict
p0
((lp1
(lp2
S'state'
p3
aI400
aa(lp4
S'distance'
p5
aF270.1139450073242
aa(lp6
S'timestamp'
p7
aF4.0773069858551025
aatp8
Rp9
.ccollections
OrderedDict
p0
((lp1
(lp2
S'state'
p3
aI400
aa(lp4
S'distance'
p5
aF270.1139450073242
aa(lp6
S'timestamp'
p7
aF4.086857080459595
aatp8
Rp9
.ccollections
OrderedDict
p0
((lp1
(lp2
S'state'
p3
aI400
aa(lp4
S'distance'
p5
aF270.1139450073242
aa(lp6
S'timestamp'
p7
aF4.087510108947754
aatp8
Rp9
.ccollections
OrderedDict
p0
((lp1
(lp2
S'state'
p3
aI400
aa(lp4
S'distance'
p5
aF270.1139450073242
aa(lp6
S'timestamp'
p7
aF4.097291946411133
aatp8
Rp9
.ccollections
OrderedDict
p0
((lp1
(lp2
S'state'
p3
aI400
aa(lp4
S'distance'
p5
aF270.1139450073242
aa(lp6
S'timestamp'
p7
aF4.097490072250366
aatp8
Rp9
.ccollections
OrderedDict
p0
((lp1
(lp2
S'state'
p3
aI400
aa(lp4
S'distance'
p5
aF270.1139450073242
aa(lp6
S'timestamp'
p7
aF4.106969118118286
aatp8
Rp9
.ccollections
OrderedDict
p0
((lp1
(lp2
S'state'
p3
aI400
aa(lp4
S'distance'
p5
aF270.1139450073242
aa(lp6
S'timestamp'
p7
aF4.107783079147339
aatp8
Rp9
.ccollections
OrderedDict
p0
((lp1
(lp2
S'state'
p3
aI400
aa(lp4
S'distance'
p5
aF270.1139450073242
aa(lp6
S'timestamp'
p7
aF4.1169679164886475
aatp8
Rp9
.ccollections
OrderedDict
p0
((lp1
(lp2
S'state'
p3
aI400
aa(lp4
S'distance'
p5
aF270.1139450073242
aa(lp6
S'timestamp'
p7
aF4.117301940917969
aatp8
Rp9
.ccollections
OrderedDict
p0
((lp1
(lp2
S'state'
p3
aI400
aa(lp4
S'distance'
p5
aF270.1139450073242
aa(lp6
S'timestamp'
p7
aF4.1268250942230225
aatp8
Rp9
.ccollections
OrderedDict
p0
((lp1
(lp2
S'state'
p3
aI400
aa(lp4
S'distance'
p5
aF270.1139450073242
aa(lp6
S'timestamp'
p7
aF4.12764310836792
aatp8
Rp9
.ccollections
OrderedDict
p0
((lp1
(lp2
S'state'
p3
aI400
aa(lp4
S'distance'
p5
aF270.1139450073242
aa(lp6
S'timestamp'
p7
aF4.136949062347412
aatp8
Rp9
.ccollections
OrderedDict
p0
((lp1
(lp2
S'state'
p3
aI400
aa(lp4
S'distance'
p5
aF270.1139450073242
aa(lp6
S'timestamp'
p7
aF4.147392988204956
aatp8
Rp9
.ccollections
OrderedDict
p0
((lp1
(lp2
S'state'
p3
aI400
aa(lp4
S'distance'
p5
aF270.1139450073242
aa(lp6
S'timestamp'
p7
aF4.14820408821106
aatp8
Rp9
.ccollections
OrderedDict
p0
((lp1
(lp2
S'state'
p3
aI400
aa(lp4
S'distance'
p5
aF270.1139450073242
aa(lp6
S'timestamp'
p7
aF4.148335933685303
aatp8
Rp9
.ccollections
OrderedDict
p0
((lp1
(lp2
S'state'
p3
aI400
aa(lp4
S'distance'
p5
aF270.1139450073242
aa(lp6
S'timestamp'
p7
aF4.15689492225647
aatp8
Rp9
.ccollections
OrderedDict
p0
((lp1
(lp2
S'state'
p3
aI400
aa(lp4
S'distance'
p5
aF270.1139450073242
aa(lp6
S'timestamp'
p7
aF4.158466100692749
aatp8
Rp9
.ccollections
OrderedDict
p0
((lp1
(lp2
S'state'
p3
aI400
aa(lp4
S'distance'
p5
aF270.1139450073242
aa(lp6
S'timestamp'
p7
aF4.166846036911011
aatp8
Rp9
.ccollections
OrderedDict
p0
((lp1
(lp2
S'state'
p3
aI400
aa(lp4
S'distance'
p5
aF270.1139450073242
aa(lp6
S'timestamp'
p7
aF4.167601108551025
aatp8
Rp9
.ccollections
OrderedDict
p0
((lp1
(lp2
S'state'
p3
aI400
aa(lp4
S'distance'
p5
aF270.1139450073242
aa(lp6
S'timestamp'
p7
aF4.176858901977539
aatp8
Rp9
.ccollections
OrderedDict
p0
((lp1
(lp2
S'state'
p3
aI400
aa(lp4
S'distance'
p5
aF270.1139450073242
aa(lp6
S'timestamp'
p7
aF4.177576065063477
aatp8
Rp9
.ccollections
OrderedDict
p0
((lp1
(lp2
S'state'
p3
aI400
aa(lp4
S'distance'
p5
aF270.1139450073242
aa(lp6
S'timestamp'
p7
aF4.187024116516113
aatp8
Rp9
.ccollections
OrderedDict
p0
((lp1
(lp2
S'state'
p3
aI400
aa(lp4
S'distance'
p5
aF270.1139450073242
aa(lp6
S'timestamp'
p7
aF4.187458038330078
aatp8
Rp9
.ccollections
OrderedDict
p0
((lp1
(lp2
S'state'
p3
aI400
aa(lp4
S'distance'
p5
aF270.1139450073242
aa(lp6
S'timestamp'
p7
aF4.197334051132202
aatp8
Rp9
.ccollections
OrderedDict
p0
((lp1
(lp2
S'state'
p3
aI400
aa(lp4
S'distance'
p5
aF270.1139450073242
aa(lp6
S'timestamp'
p7
aF4.197437047958374
aatp8
Rp9
.ccollections
OrderedDict
p0
((lp1
(lp2
S'state'
p3
aI400
aa(lp4
S'distance'
p5
aF270.1139450073242
aa(lp6
S'timestamp'
p7
aF4.2069220542907715
aatp8
Rp9
.ccollections
OrderedDict
p0
((lp1
(lp2
S'state'
p3
aI400
aa(lp4
S'distance'
p5
aF270.1139450073242
aa(lp6
S'timestamp'
p7
aF4.207578897476196
aatp8
Rp9
.ccollections
OrderedDict
p0
((lp1
(lp2
S'state'
p3
aI400
aa(lp4
S'distance'
p5
aF270.1139450073242
aa(lp6
S'timestamp'
p7
aF4.2183990478515625
aatp8
Rp9
.ccollections
OrderedDict
p0
((lp1
(lp2
S'state'
p3
aI400
aa(lp4
S'distance'
p5
aF270.1139450073242
aa(lp6
S'timestamp'
p7
aF4.218592882156372
aatp8
Rp9
.ccollections
OrderedDict
p0
((lp1
(lp2
S'state'
p3
aI400
aa(lp4
S'distance'
p5
aF270.1139450073242
aa(lp6
S'timestamp'
p7
aF4.227828025817871
aatp8
Rp9
.ccollections
OrderedDict
p0
((lp1
(lp2
S'state'
p3
aI400
aa(lp4
S'distance'
p5
aF270.1139450073242
aa(lp6
S'timestamp'
p7
aF4.2287468910217285
aatp8
Rp9
.ccollections
OrderedDict
p0
((lp1
(lp2
S'state'
p3
aI400
aa(lp4
S'distance'
p5
aF270.1139450073242
aa(lp6
S'timestamp'
p7
aF4.2372660636901855
aatp8
Rp9
.ccollections
OrderedDict
p0
((lp1
(lp2
S'state'
p3
aI400
aa(lp4
S'distance'
p5
aF270.1139450073242
aa(lp6
S'timestamp'
p7
aF4.237377882003784
aatp8
Rp9
.ccollections
OrderedDict
p0
((lp1
(lp2
S'state'
p3
aI400
aa(lp4
S'distance'
p5
aF270.1139450073242
aa(lp6
S'timestamp'
p7
aF4.257658958435059
aatp8
Rp9
.ccollections
OrderedDict
p0
((lp1
(lp2
S'state'
p3
aI400
aa(lp4
S'distance'
p5
aF270.1139450073242
aa(lp6
S'timestamp'
p7
aF4.257903099060059
aatp8
Rp9
.ccollections
OrderedDict
p0
((lp1
(lp2
S'state'
p3
aI400
aa(lp4
S'distance'
p5
aF270.1139450073242
aa(lp6
S'timestamp'
p7
aF4.258223056793213
aatp8
Rp9
.ccollections
OrderedDict
p0
((lp1
(lp2
S'state'
p3
aI400
aa(lp4
S'distance'
p5
aF270.1139450073242
aa(lp6
S'timestamp'
p7
aF4.258394002914429
aatp8
Rp9
.ccollections
OrderedDict
p0
((lp1
(lp2
S'state'
p3
aI400
aa(lp4
S'distance'
p5
aF270.1139450073242
aa(lp6
S'timestamp'
p7
aF4.266978979110718
aatp8
Rp9
.ccollections
OrderedDict
p0
((lp1
(lp2
S'state'
p3
aI400
aa(lp4
S'distance'
p5
aF270.1139450073242
aa(lp6
S'timestamp'
p7
aF4.267343044281006
aatp8
Rp9
.ccollections
OrderedDict
p0
((lp1
(lp2
S'state'
p3
aI400
aa(lp4
S'distance'
p5
aF270.1139450073242
aa(lp6
S'timestamp'
p7
aF4.2770140171051025
aatp8
Rp9
.ccollections
OrderedDict
p0
((lp1
(lp2
S'state'
p3
aI400
aa(lp4
S'distance'
p5
aF270.1139450073242
aa(lp6
S'timestamp'
p7
aF4.277939081192017
aatp8
Rp9
.ccollections
OrderedDict
p0
((lp1
(lp2
S'state'
p3
aI400
aa(lp4
S'distance'
p5
aF270.1139450073242
aa(lp6
S'timestamp'
p7
aF4.287200927734375
aatp8
Rp9
.ccollections
OrderedDict
p0
((lp1
(lp2
S'state'
p3
aI400
aa(lp4
S'distance'
p5
aF270.1139450073242
aa(lp6
S'timestamp'
p7
aF4.287420988082886
aatp8
Rp9
.ccollections
OrderedDict
p0
((lp1
(lp2
S'state'
p3
aI400
aa(lp4
S'distance'
p5
aF270.1139450073242
aa(lp6
S'timestamp'
p7
aF4.297527074813843
aatp8
Rp9
.ccollections
OrderedDict
p0
((lp1
(lp2
S'state'
p3
aI400
aa(lp4
S'distance'
p5
aF270.1139450073242
aa(lp6
S'timestamp'
p7
aF4.2982399463653564
aatp8
Rp9
.ccollections
OrderedDict
p0
((lp1
(lp2
S'state'
p3
aI400
aa(lp4
S'distance'
p5
aF270.1139450073242
aa(lp6
S'timestamp'
p7
aF4.3067309856414795
aatp8
Rp9
.ccollections
OrderedDict
p0
((lp1
(lp2
S'state'
p3
aI400
aa(lp4
S'distance'
p5
aF270.1139450073242
aa(lp6
S'timestamp'
p7
aF4.3072850704193115
aatp8
Rp9
.ccollections
OrderedDict
p0
((lp1
(lp2
S'state'
p3
aI400
aa(lp4
S'distance'
p5
aF270.1139450073242
aa(lp6
S'timestamp'
p7
aF4.316924095153809
aatp8
Rp9
.ccollections
OrderedDict
p0
((lp1
(lp2
S'state'
p3
aI0
aa(lp4
S'distance'
p5
aF270.1139450073242
aa(lp6
S'timestamp'
p7
aF4.317342042922974
aatp8
Rp9
.ccollections
OrderedDict
p0
((lp1
(lp2
S'state'
p3
aI0
aa(lp4
S'distance'
p5
aF174.41014862060547
aa(lp6
S'timestamp'
p7
aF4.89618706703186
aatp8
Rp9
.ccollections
OrderedDict
p0
((lp1
(lp2
S'state'
p3
aI0
aa(lp4
S'distance'
p5
aF174.41014862060547
aa(lp6
S'timestamp'
p7
aF4.902084112167358
aatp8
Rp9
.ccollections
OrderedDict
p0
((lp1
(lp2
S'state'
p3
aI0
aa(lp4
S'distance'
p5
aF174.41014862060547
aa(lp6
S'timestamp'
p7
aF4.9036009311676025
aatp8
Rp9
.ccollections
OrderedDict
p0
((lp1
(lp2
S'state'
p3
aI0
aa(lp4
S'distance'
p5
aF174.41014862060547
aa(lp6
S'timestamp'
p7
aF4.907536029815674
aatp8
Rp9
.ccollections
OrderedDict
p0
((lp1
(lp2
S'state'
p3
aI0
aa(lp4
S'distance'
p5
aF174.41014862060547
aa(lp6
S'timestamp'
p7
aF4.908531904220581
aatp8
Rp9
.ccollections
OrderedDict
p0
((lp1
(lp2
S'state'
p3
aI0
aa(lp4
S'distance'
p5
aF174.41014862060547
aa(lp6
S'timestamp'
p7
aF4.916831970214844
aatp8
Rp9
.ccollections
OrderedDict
p0
((lp1
(lp2
S'state'
p3
aI0
aa(lp4
S'distance'
p5
aF174.41014862060547
aa(lp6
S'timestamp'
p7
aF4.917682886123657
aatp8
Rp9
.ccollections
OrderedDict
p0
((lp1
(lp2
S'state'
p3
aI0
aa(lp4
S'distance'
p5
aF174.41014862060547
aa(lp6
S'timestamp'
p7
aF4.9468629360198975
aatp8
Rp9
.ccollections
OrderedDict
p0
((lp1
(lp2
S'state'
p3
aI0
aa(lp4
S'distance'
p5
aF174.41014862060547
aa(lp6
S'timestamp'
p7
aF4.947309970855713
aatp8
Rp9
.ccollections
OrderedDict
p0
((lp1
(lp2
S'state'
p3
aI0
aa(lp4
S'distance'
p5
aF174.41014862060547
aa(lp6
S'timestamp'
p7
aF4.9479820728302
aatp8
Rp9
.ccollections
OrderedDict
p0
((lp1
(lp2
S'state'
p3
aI0
aa(lp4
S'distance'
p5
aF174.41014862060547
aa(lp6
S'timestamp'
p7
aF4.948242902755737
aatp8
Rp9
.ccollections
OrderedDict
p0
((lp1
(lp2
S'state'
p3
aI0
aa(lp4
S'distance'
p5
aF174.41014862060547
aa(lp6
S'timestamp'
p7
aF4.956937074661255
aatp8
Rp9
.ccollections
OrderedDict
p0
((lp1
(lp2
S'state'
p3
aI0
aa(lp4
S'distance'
p5
aF174.41014862060547
aa(lp6
S'timestamp'
p7
aF4.957664966583252
aatp8
Rp9
.ccollections
OrderedDict
p0
((lp1
(lp2
S'state'
p3
aI0
aa(lp4
S'distance'
p5
aF174.41014862060547
aa(lp6
S'timestamp'
p7
aF4.957743883132935
aatp8
Rp9
.ccollections
OrderedDict
p0
((lp1
(lp2
S'state'
p3
aI0
aa(lp4
S'distance'
p5
aF174.41014862060547
aa(lp6
S'timestamp'
p7
aF4.9583001136779785
aatp8
Rp9
.ccollections
OrderedDict
p0
((lp1
(lp2
S'state'
p3
aI0
aa(lp4
S'distance'
p5
aF174.41014862060547
aa(lp6
S'timestamp'
p7
aF4.9774329662323
aatp8
Rp9
.ccollections
OrderedDict
p0
((lp1
(lp2
S'state'
p3
aI0
aa(lp4
S'distance'
p5
aF174.41014862060547
aa(lp6
S'timestamp'
p7
aF4.977519989013672
aatp8
Rp9
.ccollections
OrderedDict
p0
((lp1
(lp2
S'state'
p3
aI0
aa(lp4
S'distance'
p5
aF174.41014862060547
aa(lp6
S'timestamp'
p7
aF4.978312969207764
aatp8
Rp9
.ccollections
OrderedDict
p0
((lp1
(lp2
S'state'
p3
aI0
aa(lp4
S'distance'
p5
aF174.41014862060547
aa(lp6
S'timestamp'
p7
aF4.978766918182373
aatp8
Rp9
.ccollections
OrderedDict
p0
((lp1
(lp2
S'state'
p3
aI0
aa(lp4
S'distance'
p5
aF174.41014862060547
aa(lp6
S'timestamp'
p7
aF4.987016916275024
aatp8
Rp9
.ccollections
OrderedDict
p0
((lp1
(lp2
S'state'
p3
aI0
aa(lp4
S'distance'
p5
aF174.41014862060547
aa(lp6
S'timestamp'
p7
aF4.987641096115112
aatp8
Rp9
.ccollections
OrderedDict
p0
((lp1
(lp2
S'state'
p3
aI0
aa(lp4
S'distance'
p5
aF174.41014862060547
aa(lp6
S'timestamp'
p7
aF5.00744891166687
aatp8
Rp9
.ccollections
OrderedDict
p0
((lp1
(lp2
S'state'
p3
aI0
aa(lp4
S'distance'
p5
aF174.41014862060547
aa(lp6
S'timestamp'
p7
aF5.007529973983765
aatp8
Rp9
.ccollections
OrderedDict
p0
((lp1
(lp2
S'state'
p3
aI0
aa(lp4
S'distance'
p5
aF174.41014862060547
aa(lp6
S'timestamp'
p7
aF5.008402109146118
aatp8
Rp9
.ccollections
OrderedDict
p0
((lp1
(lp2
S'state'
p3
aI0
aa(lp4
S'distance'
p5
aF174.41014862060547
aa(lp6
S'timestamp'
p7
aF5.009449005126953
aatp8
Rp9
.ccollections
OrderedDict
p0
((lp1
(lp2
S'state'
p3
aI0
aa(lp4
S'distance'
p5
aF174.41014862060547
aa(lp6
S'timestamp'
p7
aF5.016849040985107
aatp8
Rp9
.ccollections
OrderedDict
p0
((lp1
(lp2
S'state'
p3
aI0
aa(lp4
S'distance'
p5
aF174.41014862060547
aa(lp6
S'timestamp'
p7
aF5.017653942108154
aatp8
Rp9
.ccollections
OrderedDict
p0
((lp1
(lp2
S'state'
p3
aI0
aa(lp4
S'distance'
p5
aF174.41014862060547
aa(lp6
S'timestamp'
p7
aF5.026904106140137
aatp8
Rp9
.ccollections
OrderedDict
p0
((lp1
(lp2
S'state'
p3
aI0
aa(lp4
S'distance'
p5
aF174.41014862060547
aa(lp6
S'timestamp'
p7
aF5.027652978897095
aatp8
Rp9
.ccollections
OrderedDict
p0
((lp1
(lp2
S'state'
p3
aI0
aa(lp4
S'distance'
p5
aF174.41014862060547
aa(lp6
S'timestamp'
p7
aF5.037007093429565
aatp8
Rp9
.ccollections
OrderedDict
p0
((lp1
(lp2
S'state'
p3
aI0
aa(lp4
S'distance'
p5
aF174.41014862060547
aa(lp6
S'timestamp'
p7
aF5.037954092025757
aatp8
Rp9
.ccollections
OrderedDict
p0
((lp1
(lp2
S'state'
p3
aI0
aa(lp4
S'distance'
p5
aF174.41014862060547
aa(lp6
S'timestamp'
p7
aF5.0469489097595215
aatp8
Rp9
.ccollections
OrderedDict
p0
((lp1
(lp2
S'state'
p3
aI0
aa(lp4
S'distance'
p5
aF174.41014862060547
aa(lp6
S'timestamp'
p7
aF5.048084020614624
aatp8
Rp9
.ccollections
OrderedDict
p0
((lp1
(lp2
S'state'
p3
aI0
aa(lp4
S'distance'
p5
aF174.41014862060547
aa(lp6
S'timestamp'
p7
aF5.056997060775757
aatp8
Rp9
.ccollections
OrderedDict
p0
((lp1
(lp2
S'state'
p3
aI0
aa(lp4
S'distance'
p5
aF174.41014862060547
aa(lp6
S'timestamp'
p7
aF5.057488918304443
aatp8
Rp9
.ccollections
OrderedDict
p0
((lp1
(lp2
S'state'
p3
aI0
aa(lp4
S'distance'
p5
aF174.41014862060547
aa(lp6
S'timestamp'
p7
aF5.097322940826416
aatp8
Rp9
.ccollections
OrderedDict
p0
((lp1
(lp2
S'state'
p3
aI0
aa(lp4
S'distance'
p5
aF174.41014862060547
aa(lp6
S'timestamp'
p7
aF5.097403049468994
aatp8
Rp9
.ccollections
OrderedDict
p0
((lp1
(lp2
S'state'
p3
aI0
aa(lp4
S'distance'
p5
aF174.41014862060547
aa(lp6
S'timestamp'
p7
aF5.098345041275024
aatp8
Rp9
.ccollections
OrderedDict
p0
((lp1
(lp2
S'state'
p3
aI0
aa(lp4
S'distance'
p5
aF174.41014862060547
aa(lp6
S'timestamp'
p7
aF5.099332094192505
aatp8
Rp9
.ccollections
OrderedDict
p0
((lp1
(lp2
S'state'
p3
aI0
aa(lp4
S'distance'
p5
aF174.41014862060547
aa(lp6
S'timestamp'
p7
aF5.10723090171814
aatp8
Rp9
.ccollections
OrderedDict
p0
((lp1
(lp2
S'state'
p3
aI0
aa(lp4
S'distance'
p5
aF174.41014862060547
aa(lp6
S'timestamp'
p7
aF5.107369899749756
aatp8
Rp9
.ccollections
OrderedDict
p0
((lp1
(lp2
S'state'
p3
aI0
aa(lp4
S'distance'
p5
aF174.41014862060547
aa(lp6
S'timestamp'
p7
aF5.108670949935913
aatp8
Rp9
.ccollections
OrderedDict
p0
((lp1
(lp2
S'state'
p3
aI0
aa(lp4
S'distance'
p5
aF174.41014862060547
aa(lp6
S'timestamp'
p7
aF5.108764886856079
aatp8
Rp9
.ccollections
OrderedDict
p0
((lp1
(lp2
S'state'
p3
aI0
aa(lp4
S'distance'
p5
aF174.41014862060547
aa(lp6
S'timestamp'
p7
aF5.116926908493042
aatp8
Rp9
.ccollections
OrderedDict
p0
((lp1
(lp2
S'state'
p3
aI0
aa(lp4
S'distance'
p5
aF174.41014862060547
aa(lp6
S'timestamp'
p7
aF5.117300033569336
aatp8
Rp9
.ccollections
OrderedDict
p0
((lp1
(lp2
S'state'
p3
aI0
aa(lp4
S'distance'
p5
aF174.41014862060547
aa(lp6
S'timestamp'
p7
aF5.1181800365448
aatp8
Rp9
.ccollections
OrderedDict
p0
((lp1
(lp2
S'state'
p3
aI0
aa(lp4
S'distance'
p5
aF174.41014862060547
aa(lp6
S'timestamp'
p7
aF5.118249893188477
aatp8
Rp9
.ccollections
OrderedDict
p0
((lp1
(lp2
S'state'
p3
aI0
aa(lp4
S'distance'
p5
aF174.41014862060547
aa(lp6
S'timestamp'
p7
aF5.127015113830566
aatp8
Rp9
.ccollections
OrderedDict
p0
((lp1
(lp2
S'state'
p3
aI0
aa(lp4
S'distance'
p5
aF174.41014862060547
aa(lp6
S'timestamp'
p7
aF5.127854108810425
aatp8
Rp9
.ccollections
OrderedDict
p0
((lp1
(lp2
S'state'
p3
aI0
aa(lp4
S'distance'
p5
aF174.41014862060547
aa(lp6
S'timestamp'
p7
aF5.136955976486206
aatp8
Rp9
.ccollections
OrderedDict
p0
((lp1
(lp2
S'state'
p3
aI0
aa(lp4
S'distance'
p5
aF174.41014862060547
aa(lp6
S'timestamp'
p7
aF5.138170957565308
aatp8
Rp9
.ccollections
OrderedDict
p0
((lp1
(lp2
S'state'
p3
aI0
aa(lp4
S'distance'
p5
aF174.41014862060547
aa(lp6
S'timestamp'
p7
aF5.146966934204102
aatp8
Rp9
.ccollections
OrderedDict
p0
((lp1
(lp2
S'state'
p3
aI0
aa(lp4
S'distance'
p5
aF174.41014862060547
aa(lp6
S'timestamp'
p7
aF5.14737606048584
aatp8
Rp9
.ccollections
OrderedDict
p0
((lp1
(lp2
S'state'
p3
aI0
aa(lp4
S'distance'
p5
aF174.41014862060547
aa(lp6
S'timestamp'
p7
aF5.168256998062134
aatp8
Rp9
.ccollections
OrderedDict
p0
((lp1
(lp2
S'state'
p3
aI0
aa(lp4
S'distance'
p5
aF174.41014862060547
aa(lp6
S'timestamp'
p7
aF5.1683690547943115
aatp8
Rp9
.ccollections
OrderedDict
p0
((lp1
(lp2
S'state'
p3
aI0
aa(lp4
S'distance'
p5
aF174.41014862060547
aa(lp6
S'timestamp'
p7
aF5.168445110321045
aatp8
Rp9
.ccollections
OrderedDict
p0
((lp1
(lp2
S'state'
p3
aI0
aa(lp4
S'distance'
p5
aF174.41014862060547
aa(lp6
S'timestamp'
p7
aF5.168517112731934
aatp8
Rp9
.ccollections
OrderedDict
p0
((lp1
(lp2
S'state'
p3
aI0
aa(lp4
S'distance'
p5
aF174.41014862060547
aa(lp6
S'timestamp'
p7
aF5.17731499671936
aatp8
Rp9
.ccollections
OrderedDict
p0
((lp1
(lp2
S'state'
p3
aI0
aa(lp4
S'distance'
p5
aF174.41014862060547
aa(lp6
S'timestamp'
p7
aF5.177402973175049
aatp8
Rp9
.ccollections
OrderedDict
p0
((lp1
(lp2
S'state'
p3
aI0
aa(lp4
S'distance'
p5
aF174.41014862060547
aa(lp6
S'timestamp'
p7
aF5.187719106674194
aatp8
Rp9
.ccollections
OrderedDict
p0
((lp1
(lp2
S'state'
p3
aI0
aa(lp4
S'distance'
p5
aF174.41014862060547
aa(lp6
S'timestamp'
p7
aF5.187861919403076
aatp8
Rp9
.ccollections
OrderedDict
p0
((lp1
(lp2
S'state'
p3
aI0
aa(lp4
S'distance'
p5
aF174.41014862060547
aa(lp6
S'timestamp'
p7
aF5.198848009109497
aatp8
Rp9
.ccollections
OrderedDict
p0
((lp1
(lp2
S'state'
p3
aI0
aa(lp4
S'distance'
p5
aF174.41014862060547
aa(lp6
S'timestamp'
p7
aF5.198945999145508
aatp8
Rp9
.ccollections
OrderedDict
p0
((lp1
(lp2
S'state'
p3
aI0
aa(lp4
S'distance'
p5
aF174.41014862060547
aa(lp6
S'timestamp'
p7
aF5.20815110206604
aatp8
Rp9
.ccollections
OrderedDict
p0
((lp1
(lp2
S'state'
p3
aI0
aa(lp4
S'distance'
p5
aF174.41014862060547
aa(lp6
S'timestamp'
p7
aF5.208667993545532
aatp8
Rp9
.ccollections
OrderedDict
p0
((lp1
(lp2
S'state'
p3
aI0
aa(lp4
S'distance'
p5
aF174.41014862060547
aa(lp6
S'timestamp'
p7
aF5.21730899810791
aatp8
Rp9
.ccollections
OrderedDict
p0
((lp1
(lp2
S'state'
p3
aI0
aa(lp4
S'distance'
p5
aF174.41014862060547
aa(lp6
S'timestamp'
p7
aF5.218472957611084
aatp8
Rp9
.ccollections
OrderedDict
p0
((lp1
(lp2
S'state'
p3
aI0
aa(lp4
S'distance'
p5
aF174.41014862060547
aa(lp6
S'timestamp'
p7
aF5.228300094604492
aatp8
Rp9
.ccollections
OrderedDict
p0
((lp1
(lp2
S'state'
p3
aI0
aa(lp4
S'distance'
p5
aF174.41014862060547
aa(lp6
S'timestamp'
p7
aF5.228423118591309
aatp8
Rp9
.ccollections
OrderedDict
p0
((lp1
(lp2
S'state'
p3
aI0
aa(lp4
S'distance'
p5
aF174.41014862060547
aa(lp6
S'timestamp'
p7
aF5.238442897796631
aatp8
Rp9
.ccollections
OrderedDict
p0
((lp1
(lp2
S'state'
p3
aI0
aa(lp4
S'distance'
p5
aF174.41014862060547
aa(lp6
S'timestamp'
p7
aF5.2385780811309814
aatp8
Rp9
.ccollections
OrderedDict
p0
((lp1
(lp2
S'state'
p3
aI0
aa(lp4
S'distance'
p5
aF174.41014862060547
aa(lp6
S'timestamp'
p7
aF5.257587909698486
aatp8
Rp9
.ccollections
OrderedDict
p0
((lp1
(lp2
S'state'
p3
aI0
aa(lp4
S'distance'
p5
aF174.41014862060547
aa(lp6
S'timestamp'
p7
aF5.258665084838867
aatp8
Rp9
.ccollections
OrderedDict
p0
((lp1
(lp2
S'state'
p3
aI0
aa(lp4
S'distance'
p5
aF174.41014862060547
aa(lp6
S'timestamp'
p7
aF5.259397029876709
aatp8
Rp9
.ccollections
OrderedDict
p0
((lp1
(lp2
S'state'
p3
aI0
aa(lp4
S'distance'
p5
aF174.41014862060547
aa(lp6
S'timestamp'
p7
aF5.25983190536499
aatp8
Rp9
.ccollections
OrderedDict
p0
((lp1
(lp2
S'state'
p3
aI0
aa(lp4
S'distance'
p5
aF174.41014862060547
aa(lp6
S'timestamp'
p7
aF5.267652988433838
aatp8
Rp9
.ccollections
OrderedDict
p0
((lp1
(lp2
S'state'
p3
aI0
aa(lp4
S'distance'
p5
aF174.41014862060547
aa(lp6
S'timestamp'
p7
aF5.267757892608643
aatp8
Rp9
.ccollections
OrderedDict
p0
((lp1
(lp2
S'state'
p3
aI0
aa(lp4
S'distance'
p5
aF174.41014862060547
aa(lp6
S'timestamp'
p7
aF5.2789530754089355
aatp8
Rp9
.ccollections
OrderedDict
p0
((lp1
(lp2
S'state'
p3
aI0
aa(lp4
S'distance'
p5
aF174.41014862060547
aa(lp6
S'timestamp'
p7
aF5.279160022735596
aatp8
Rp9
.ccollections
OrderedDict
p0
((lp1
(lp2
S'state'
p3
aI0
aa(lp4
S'distance'
p5
aF174.41014862060547
aa(lp6
S'timestamp'
p7
aF5.288052082061768
aatp8
Rp9
.ccollections
OrderedDict
p0
((lp1
(lp2
S'state'
p3
aI0
aa(lp4
S'distance'
p5
aF174.41014862060547
aa(lp6
S'timestamp'
p7
aF5.28813099861145
aatp8
Rp9
.ccollections
OrderedDict
p0
((lp1
(lp2
S'state'
p3
aI0
aa(lp4
S'distance'
p5
aF174.41014862060547
aa(lp6
S'timestamp'
p7
aF5.297847032546997
aatp8
Rp9
.ccollections
OrderedDict
p0
((lp1
(lp2
S'state'
p3
aI0
aa(lp4
S'distance'
p5
aF174.41014862060547
aa(lp6
S'timestamp'
p7
aF5.298024892807007
aatp8
Rp9
.ccollections
OrderedDict
p0
((lp1
(lp2
S'state'
p3
aI0
aa(lp4
S'distance'
p5
aF174.41014862060547
aa(lp6
S'timestamp'
p7
aF5.318296909332275
aatp8
Rp9
.ccollections
OrderedDict
p0
((lp1
(lp2
S'state'
p3
aI0
aa(lp4
S'distance'
p5
aF174.41014862060547
aa(lp6
S'timestamp'
p7
aF5.318648099899292
aatp8
Rp9
.ccollections
OrderedDict
p0
((lp1
(lp2
S'state'
p3
aI0
aa(lp4
S'distance'
p5
aF174.41014862060547
aa(lp6
S'timestamp'
p7
aF5.319084882736206
aatp8
Rp9
.ccollections
OrderedDict
p0
((lp1
(lp2
S'state'
p3
aI0
aa(lp4
S'distance'
p5
aF174.41014862060547
aa(lp6
S'timestamp'
p7
aF5.3192219734191895
aatp8
Rp9
.ccollections
OrderedDict
p0
((lp1
(lp2
S'state'
p3
aI0
aa(lp4
S'distance'
p5
aF174.41014862060547
aa(lp6
S'timestamp'
p7
aF5.32779598236084
aatp8
Rp9
.ccollections
OrderedDict
p0
((lp1
(lp2
S'state'
p3
aI0
aa(lp4
S'distance'
p5
aF174.41014862060547
aa(lp6
S'timestamp'
p7
aF5.328351020812988
aatp8
Rp9
.ccollections
OrderedDict
p0
((lp1
(lp2
S'state'
p3
aI0
aa(lp4
S'distance'
p5
aF174.41014862060547
aa(lp6
S'timestamp'
p7
aF5.33807110786438
aatp8
Rp9
.ccollections
OrderedDict
p0
((lp1
(lp2
S'state'
p3
aI0
aa(lp4
S'distance'
p5
aF174.41014862060547
aa(lp6
S'timestamp'
p7
aF5.338918924331665
aatp8
Rp9
.ccollections
OrderedDict
p0
((lp1
(lp2
S'state'
p3
aI0
aa(lp4
S'distance'
p5
aF174.41014862060547
aa(lp6
S'timestamp'
p7
aF5.347800970077515
aatp8
Rp9
.ccollections
OrderedDict
p0
((lp1
(lp2
S'state'
p3
aI0
aa(lp4
S'distance'
p5
aF174.41014862060547
aa(lp6
S'timestamp'
p7
aF5.348746061325073
aatp8
Rp9
.ccollections
OrderedDict
p0
((lp1
(lp2
S'state'
p3
aI0
aa(lp4
S'distance'
p5
aF174.41014862060547
aa(lp6
S'timestamp'
p7
aF5.358268976211548
aatp8
Rp9
.ccollections
OrderedDict
p0
((lp1
(lp2
S'state'
p3
aI0
aa(lp4
S'distance'
p5
aF174.41014862060547
aa(lp6
S'timestamp'
p7
aF5.358344078063965
aatp8
Rp9
.ccollections
OrderedDict
p0
((lp1
(lp2
S'state'
p3
aI0
aa(lp4
S'distance'
p5
aF174.41014862060547
aa(lp6
S'timestamp'
p7
aF5.367341995239258
aatp8
Rp9
.ccollections
OrderedDict
p0
((lp1
(lp2
S'state'
p3
aI0
aa(lp4
S'distance'
p5
aF174.41014862060547
aa(lp6
S'timestamp'
p7
aF5.367733955383301
aatp8
Rp9
.ccollections
OrderedDict
p0
((lp1
(lp2
S'state'
p3
aI0
aa(lp4
S'distance'
p5
aF174.41014862060547
aa(lp6
S'timestamp'
p7
aF5.379086017608643
aatp8
Rp9
.ccollections
OrderedDict
p0
((lp1
(lp2
S'state'
p3
aI0
aa(lp4
S'distance'
p5
aF174.41014862060547
aa(lp6
S'timestamp'
p7
aF5.379631996154785
aatp8
Rp9
.ccollections
OrderedDict
p0
((lp1
(lp2
S'state'
p3
aI0
aa(lp4
S'distance'
p5
aF174.41014862060547
aa(lp6
S'timestamp'
p7
aF5.388406038284302
aatp8
Rp9
.ccollections
OrderedDict
p0
((lp1
(lp2
S'state'
p3
aI0
aa(lp4
S'distance'
p5
aF174.41014862060547
aa(lp6
S'timestamp'
p7
aF5.388523101806641
aatp8
Rp9
.ccollections
OrderedDict
p0
((lp1
(lp2
S'state'
p3
aI0
aa(lp4
S'distance'
p5
aF174.41014862060547
aa(lp6
S'timestamp'
p7
aF5.397499084472656
aatp8
Rp9
.ccollections
OrderedDict
p0
((lp1
(lp2
S'state'
p3
aI0
aa(lp4
S'distance'
p5
aF174.41014862060547
aa(lp6
S'timestamp'
p7
aF5.39834189414978
aatp8
Rp9
.ccollections
OrderedDict
p0
((lp1
(lp2
S'state'
p3
aI0
aa(lp4
S'distance'
p5
aF174.41014862060547
aa(lp6
S'timestamp'
p7
aF5.407711029052734
aatp8
Rp9
.ccollections
OrderedDict
p0
((lp1
(lp2
S'state'
p3
aI0
aa(lp4
S'distance'
p5
aF174.41014862060547
aa(lp6
S'timestamp'
p7
aF5.407803058624268
aatp8
Rp9
.ccollections
OrderedDict
p0
((lp1
(lp2
S'state'
p3
aI0
aa(lp4
S'distance'
p5
aF174.41014862060547
aa(lp6
S'timestamp'
p7
aF5.419264078140259
aatp8
Rp9
.ccollections
OrderedDict
p0
((lp1
(lp2
S'state'
p3
aI0
aa(lp4
S'distance'
p5
aF174.41014862060547
aa(lp6
S'timestamp'
p7
aF5.420255899429321
aatp8
Rp9
.ccollections
OrderedDict
p0
((lp1
(lp2
S'state'
p3
aI0
aa(lp4
S'distance'
p5
aF174.41014862060547
aa(lp6
S'timestamp'
p7
aF5.427587985992432
aatp8
Rp9
.ccollections
OrderedDict
p0
((lp1
(lp2
S'state'
p3
aI0
aa(lp4
S'distance'
p5
aF174.41014862060547
aa(lp6
S'timestamp'
p7
aF5.431199073791504
aatp8
Rp9
.ccollections
OrderedDict
p0
((lp1
(lp2
S'state'
p3
aI0
aa(lp4
S'distance'
p5
aF174.41014862060547
aa(lp6
S'timestamp'
p7
aF5.43927001953125
aatp8
Rp9
.ccollections
OrderedDict
p0
((lp1
(lp2
S'state'
p3
aI0
aa(lp4
S'distance'
p5
aF174.41014862060547
aa(lp6
S'timestamp'
p7
aF5.440306901931763
aatp8
Rp9
.ccollections
OrderedDict
p0
((lp1
(lp2
S'state'
p3
aI0
aa(lp4
S'distance'
p5
aF174.41014862060547
aa(lp6
S'timestamp'
p7
aF5.447089910507202
aatp8
Rp9
.ccollections
OrderedDict
p0
((lp1
(lp2
S'state'
p3
aI0
aa(lp4
S'distance'
p5
aF174.41014862060547
aa(lp6
S'timestamp'
p7
aF5.448441982269287
aatp8
Rp9
.ccollections
OrderedDict
p0
((lp1
(lp2
S'state'
p3
aI0
aa(lp4
S'distance'
p5
aF174.41014862060547
aa(lp6
S'timestamp'
p7
aF5.468203067779541
aatp8
Rp9
.ccollections
OrderedDict
p0
((lp1
(lp2
S'state'
p3
aI0
aa(lp4
S'distance'
p5
aF174.41014862060547
aa(lp6
S'timestamp'
p7
aF5.468328952789307
aatp8
Rp9
.ccollections
OrderedDict
p0
((lp1
(lp2
S'state'
p3
aI0
aa(lp4
S'distance'
p5
aF174.41014862060547
aa(lp6
S'timestamp'
p7
aF5.4688639640808105
aatp8
Rp9
.ccollections
OrderedDict
p0
((lp1
(lp2
S'state'
p3
aI400
aa(lp4
S'distance'
p5
aF174.41014862060547
aa(lp6
S'timestamp'
p7
aF5.469373941421509
aatp8
Rp9
.ccollections
OrderedDict
p0
((lp1
(lp2
S'state'
p3
aI400
aa(lp4
S'distance'
p5
aF174.41014862060547
aa(lp6
S'timestamp'
p7
aF5.47700309753418
aatp8
Rp9
.ccollections
OrderedDict
p0
((lp1
(lp2
S'state'
p3
aI400
aa(lp4
S'distance'
p5
aF174.41014862060547
aa(lp6
S'timestamp'
p7
aF5.478616952896118
aatp8
Rp9
.ccollections
OrderedDict
p0
((lp1
(lp2
S'state'
p3
aI400
aa(lp4
S'distance'
p5
aF174.41014862060547
aa(lp6
S'timestamp'
p7
aF5.48785400390625
aatp8
Rp9
.ccollections
OrderedDict
p0
((lp1
(lp2
S'state'
p3
aI400
aa(lp4
S'distance'
p5
aF174.41014862060547
aa(lp6
S'timestamp'
p7
aF5.488128900527954
aatp8
Rp9
.ccollections
OrderedDict
p0
((lp1
(lp2
S'state'
p3
aI400
aa(lp4
S'distance'
p5
aF174.41014862060547
aa(lp6
S'timestamp'
p7
aF5.507643938064575
aatp8
Rp9
.ccollections
OrderedDict
p0
((lp1
(lp2
S'state'
p3
aI400
aa(lp4
S'distance'
p5
aF174.41014862060547
aa(lp6
S'timestamp'
p7
aF5.511015892028809
aatp8
Rp9
.ccollections
OrderedDict
p0
((lp1
(lp2
S'state'
p3
aI400
aa(lp4
S'distance'
p5
aF174.41014862060547
aa(lp6
S'timestamp'
p7
aF5.514787912368774
aatp8
Rp9
.ccollections
OrderedDict
p0
((lp1
(lp2
S'state'
p3
aI400
aa(lp4
S'distance'
p5
aF174.41014862060547
aa(lp6
S'timestamp'
p7
aF5.515253067016602
aatp8
Rp9
.ccollections
OrderedDict
p0
((lp1
(lp2
S'state'
p3
aI400
aa(lp4
S'distance'
p5
aF174.41014862060547
aa(lp6
S'timestamp'
p7
aF5.518301010131836
aatp8
Rp9
.ccollections
OrderedDict
p0
((lp1
(lp2
S'state'
p3
aI400
aa(lp4
S'distance'
p5
aF174.41014862060547
aa(lp6
S'timestamp'
p7
aF5.518558979034424
aatp8
Rp9
.ccollections
OrderedDict
p0
((lp1
(lp2
S'state'
p3
aI400
aa(lp4
S'distance'
p5
aF174.41014862060547
aa(lp6
S'timestamp'
p7
aF5.53766393661499
aatp8
Rp9
.ccollections
OrderedDict
p0
((lp1
(lp2
S'state'
p3
aI400
aa(lp4
S'distance'
p5
aF174.41014862060547
aa(lp6
S'timestamp'
p7
aF5.538077116012573
aatp8
Rp9
.ccollections
OrderedDict
p0
((lp1
(lp2
S'state'
p3
aI400
aa(lp4
S'distance'
p5
aF174.41014862060547
aa(lp6
S'timestamp'
p7
aF5.5389580726623535
aatp8
Rp9
.ccollections
OrderedDict
p0
((lp1
(lp2
S'state'
p3
aI400
aa(lp4
S'distance'
p5
aF174.41014862060547
aa(lp6
S'timestamp'
p7
aF5.5405309200286865
aatp8
Rp9
.ccollections
OrderedDict
p0
((lp1
(lp2
S'state'
p3
aI400
aa(lp4
S'distance'
p5
aF174.41014862060547
aa(lp6
S'timestamp'
p7
aF5.5572099685668945
aatp8
Rp9
.ccollections
OrderedDict
p0
((lp1
(lp2
S'state'
p3
aI400
aa(lp4
S'distance'
p5
aF174.41014862060547
aa(lp6
S'timestamp'
p7
aF5.558563947677612
aatp8
Rp9
.ccollections
OrderedDict
p0
((lp1
(lp2
S'state'
p3
aI400
aa(lp4
S'distance'
p5
aF174.41014862060547
aa(lp6
S'timestamp'
p7
aF5.5589540004730225
aatp8
Rp9
.ccollections
OrderedDict
p0
((lp1
(lp2
S'state'
p3
aI400
aa(lp4
S'distance'
p5
aF174.41014862060547
aa(lp6
S'timestamp'
p7
aF5.559535026550293
aatp8
Rp9
.ccollections
OrderedDict
p0
((lp1
(lp2
S'state'
p3
aI400
aa(lp4
S'distance'
p5
aF174.41014862060547
aa(lp6
S'timestamp'
p7
aF5.5680530071258545
aatp8
Rp9
.ccollections
OrderedDict
p0
((lp1
(lp2
S'state'
p3
aI400
aa(lp4
S'distance'
p5
aF174.41014862060547
aa(lp6
S'timestamp'
p7
aF5.5684099197387695
aatp8
Rp9
.ccollections
OrderedDict
p0
((lp1
(lp2
S'state'
p3
aI400
aa(lp4
S'distance'
p5
aF174.41014862060547
aa(lp6
S'timestamp'
p7
aF5.57893705368042
aatp8
Rp9
.ccollections
OrderedDict
p0
((lp1
(lp2
S'state'
p3
aI400
aa(lp4
S'distance'
p5
aF174.41014862060547
aa(lp6
S'timestamp'
p7
aF5.579591989517212
aatp8
Rp9
.ccollections
OrderedDict
p0
((lp1
(lp2
S'state'
p3
aI400
aa(lp4
S'distance'
p5
aF174.41014862060547
aa(lp6
S'timestamp'
p7
aF5.587604999542236
aatp8
Rp9
.ccollections
OrderedDict
p0
((lp1
(lp2
S'state'
p3
aI400
aa(lp4
S'distance'
p5
aF174.41014862060547
aa(lp6
S'timestamp'
p7
aF5.5877931118011475
aatp8
Rp9
.ccollections
OrderedDict
p0
((lp1
(lp2
S'state'
p3
aI400
aa(lp4
S'distance'
p5
aF174.41014862060547
aa(lp6
S'timestamp'
p7
aF5.597412109375
aatp8
Rp9
.ccollections
OrderedDict
p0
((lp1
(lp2
S'state'
p3
aI400
aa(lp4
S'distance'
p5
aF174.41014862060547
aa(lp6
S'timestamp'
p7
aF5.597639083862305
aatp8
Rp9
.ccollections
OrderedDict
p0
((lp1
(lp2
S'state'
p3
aI400
aa(lp4
S'distance'
p5
aF174.41014862060547
aa(lp6
S'timestamp'
p7
aF5.6071999073028564
aatp8
Rp9
.ccollections
OrderedDict
p0
((lp1
(lp2
S'state'
p3
aI400
aa(lp4
S'distance'
p5
aF174.41014862060547
aa(lp6
S'timestamp'
p7
aF5.608051061630249
aatp8
Rp9
.ccollections
OrderedDict
p0
((lp1
(lp2
S'state'
p3
aI400
aa(lp4
S'distance'
p5
aF174.41014862060547
aa(lp6
S'timestamp'
p7
aF5.627003908157349
aatp8
Rp9
.ccollections
OrderedDict
p0
((lp1
(lp2
S'state'
p3
aI400
aa(lp4
S'distance'
p5
aF174.41014862060547
aa(lp6
S'timestamp'
p7
aF5.628602027893066
aatp8
Rp9
.ccollections
OrderedDict
p0
((lp1
(lp2
S'state'
p3
aI400
aa(lp4
S'distance'
p5
aF174.41014862060547
aa(lp6
S'timestamp'
p7
aF5.629379034042358
aatp8
Rp9
.ccollections
OrderedDict
p0
((lp1
(lp2
S'state'
p3
aI400
aa(lp4
S'distance'
p5
aF174.41014862060547
aa(lp6
S'timestamp'
p7
aF5.62972092628479
aatp8
Rp9
.ccollections
OrderedDict
p0
((lp1
(lp2
S'state'
p3
aI400
aa(lp4
S'distance'
p5
aF174.41014862060547
aa(lp6
S'timestamp'
p7
aF5.6377270221710205
aatp8
Rp9
.ccollections
OrderedDict
p0
((lp1
(lp2
S'state'
p3
aI400
aa(lp4
S'distance'
p5
aF174.41014862060547
aa(lp6
S'timestamp'
p7
aF5.6379029750823975
aatp8
Rp9
.ccollections
OrderedDict
p0
((lp1
(lp2
S'state'
p3
aI400
aa(lp4
S'distance'
p5
aF174.41014862060547
aa(lp6
S'timestamp'
p7
aF5.6473119258880615
aatp8
Rp9
.ccollections
OrderedDict
p0
((lp1
(lp2
S'state'
p3
aI400
aa(lp4
S'distance'
p5
aF174.41014862060547
aa(lp6
S'timestamp'
p7
aF5.648499011993408
aatp8
Rp9
.ccollections
OrderedDict
p0
((lp1
(lp2
S'state'
p3
aI400
aa(lp4
S'distance'
p5
aF174.41014862060547
aa(lp6
S'timestamp'
p7
aF5.657674074172974
aatp8
Rp9
.ccollections
OrderedDict
p0
((lp1
(lp2
S'state'
p3
aI400
aa(lp4
S'distance'
p5
aF174.41014862060547
aa(lp6
S'timestamp'
p7
aF5.657984972000122
aatp8
Rp9
.ccollections
OrderedDict
p0
((lp1
(lp2
S'state'
p3
aI400
aa(lp4
S'distance'
p5
aF174.41014862060547
aa(lp6
S'timestamp'
p7
aF5.697927951812744
aatp8
Rp9
.ccollections
OrderedDict
p0
((lp1
(lp2
S'state'
p3
aI400
aa(lp4
S'distance'
p5
aF174.41014862060547
aa(lp6
S'timestamp'
p7
aF5.698113918304443
aatp8
Rp9
.ccollections
OrderedDict
p0
((lp1
(lp2
S'state'
p3
aI400
aa(lp4
S'distance'
p5
aF174.41014862060547
aa(lp6
S'timestamp'
p7
aF5.699338912963867
aatp8
Rp9
.ccollections
OrderedDict
p0
((lp1
(lp2
S'state'
p3
aI400
aa(lp4
S'distance'
p5
aF174.41014862060547
aa(lp6
S'timestamp'
p7
aF5.700109004974365
aatp8
Rp9
.ccollections
OrderedDict
p0
((lp1
(lp2
S'state'
p3
aI400
aa(lp4
S'distance'
p5
aF174.41014862060547
aa(lp6
S'timestamp'
p7
aF5.707417964935303
aatp8
Rp9
.ccollections
OrderedDict
p0
((lp1
(lp2
S'state'
p3
aI400
aa(lp4
S'distance'
p5
aF174.41014862060547
aa(lp6
S'timestamp'
p7
aF5.707808017730713
aatp8
Rp9
.ccollections
OrderedDict
p0
((lp1
(lp2
S'state'
p3
aI400
aa(lp4
S'distance'
p5
aF174.41014862060547
aa(lp6
S'timestamp'
p7
aF5.708856105804443
aatp8
Rp9
.ccollections
OrderedDict
p0
((lp1
(lp2
S'state'
p3
aI400
aa(lp4
S'distance'
p5
aF174.41014862060547
aa(lp6
S'timestamp'
p7
aF5.70993709564209
aatp8
Rp9
.ccollections
OrderedDict
p0
((lp1
(lp2
S'state'
p3
aI400
aa(lp4
S'distance'
p5
aF174.41014862060547
aa(lp6
S'timestamp'
p7
aF5.717753887176514
aatp8
Rp9
.ccollections
OrderedDict
p0
((lp1
(lp2
S'state'
p3
aI400
aa(lp4
S'distance'
p5
aF174.41014862060547
aa(lp6
S'timestamp'
p7
aF5.717828989028931
aatp8
Rp9
.ccollections
OrderedDict
p0
((lp1
(lp2
S'state'
p3
aI400
aa(lp4
S'distance'
p5
aF174.41014862060547
aa(lp6
S'timestamp'
p7
aF5.718707084655762
aatp8
Rp9
.ccollections
OrderedDict
p0
((lp1
(lp2
S'state'
p3
aI400
aa(lp4
S'distance'
p5
aF174.41014862060547
aa(lp6
S'timestamp'
p7
aF5.7202370166778564
aatp8
Rp9
.ccollections
OrderedDict
p0
((lp1
(lp2
S'state'
p3
aI400
aa(lp4
S'distance'
p5
aF174.41014862060547
aa(lp6
S'timestamp'
p7
aF5.727453947067261
aatp8
Rp9
.ccollections
OrderedDict
p0
((lp1
(lp2
S'state'
p3
aI400
aa(lp4
S'distance'
p5
aF174.41014862060547
aa(lp6
S'timestamp'
p7
aF5.727561950683594
aatp8
Rp9
.ccollections
OrderedDict
p0
((lp1
(lp2
S'state'
p3
aI400
aa(lp4
S'distance'
p5
aF174.41014862060547
aa(lp6
S'timestamp'
p7
aF5.737871885299683
aatp8
Rp9
.ccollections
OrderedDict
p0
((lp1
(lp2
S'state'
p3
aI400
aa(lp4
S'distance'
p5
aF174.41014862060547
aa(lp6
S'timestamp'
p7
aF5.73828911781311
aatp8
Rp9
.ccollections
OrderedDict
p0
((lp1
(lp2
S'state'
p3
aI400
aa(lp4
S'distance'
p5
aF174.41014862060547
aa(lp6
S'timestamp'
p7
aF5.747212886810303
aatp8
Rp9
.ccollections
OrderedDict
p0
((lp1
(lp2
S'state'
p3
aI400
aa(lp4
S'distance'
p5
aF174.41014862060547
aa(lp6
S'timestamp'
p7
aF5.747895956039429
aatp8
Rp9
.ccollections
OrderedDict
p0
((lp1
(lp2
S'state'
p3
aI400
aa(lp4
S'distance'
p5
aF174.41014862060547
aa(lp6
S'timestamp'
p7
aF5.758143901824951
aatp8
Rp9
.ccollections
OrderedDict
p0
((lp1
(lp2
S'state'
p3
aI400
aa(lp4
S'distance'
p5
aF174.41014862060547
aa(lp6
S'timestamp'
p7
aF5.758548021316528
aatp8
Rp9
.ccollections
OrderedDict
p0
((lp1
(lp2
S'state'
p3
aI400
aa(lp4
S'distance'
p5
aF174.41014862060547
aa(lp6
S'timestamp'
p7
aF5.767632961273193
aatp8
Rp9
.ccollections
OrderedDict
p0
((lp1
(lp2
S'state'
p3
aI400
aa(lp4
S'distance'
p5
aF174.41014862060547
aa(lp6
S'timestamp'
p7
aF5.76820707321167
aatp8
Rp9
.ccollections
OrderedDict
p0
((lp1
(lp2
S'state'
p3
aI400
aa(lp4
S'distance'
p5
aF174.41014862060547
aa(lp6
S'timestamp'
p7
aF5.77841591835022
aatp8
Rp9
.ccollections
OrderedDict
p0
((lp1
(lp2
S'state'
p3
aI400
aa(lp4
S'distance'
p5
aF174.41014862060547
aa(lp6
S'timestamp'
p7
aF5.779088020324707
aatp8
Rp9
.ccollections
OrderedDict
p0
((lp1
(lp2
S'state'
p3
aI400
aa(lp4
S'distance'
p5
aF174.41014862060547
aa(lp6
S'timestamp'
p7
aF5.787688970565796
aatp8
Rp9
.ccollections
OrderedDict
p0
((lp1
(lp2
S'state'
p3
aI400
aa(lp4
S'distance'
p5
aF174.41014862060547
aa(lp6
S'timestamp'
p7
aF5.787770986557007
aatp8
Rp9
.ccollections
OrderedDict
p0
((lp1
(lp2
S'state'
p3
aI400
aa(lp4
S'distance'
p5
aF174.41014862060547
aa(lp6
S'timestamp'
p7
aF5.797492027282715
aatp8
Rp9
.ccollections
OrderedDict
p0
((lp1
(lp2
S'state'
p3
aI400
aa(lp4
S'distance'
p5
aF174.41014862060547
aa(lp6
S'timestamp'
p7
aF5.797574996948242
aatp8
Rp9
.ccollections
OrderedDict
p0
((lp1
(lp2
S'state'
p3
aI400
aa(lp4
S'distance'
p5
aF174.41014862060547
aa(lp6
S'timestamp'
p7
aF5.808391094207764
aatp8
Rp9
.ccollections
OrderedDict
p0
((lp1
(lp2
S'state'
p3
aI400
aa(lp4
S'distance'
p5
aF174.41014862060547
aa(lp6
S'timestamp'
p7
aF5.809084892272949
aatp8
Rp9
.ccollections
OrderedDict
p0
((lp1
(lp2
S'state'
p3
aI400
aa(lp4
S'distance'
p5
aF174.41014862060547
aa(lp6
S'timestamp'
p7
aF5.817919015884399
aatp8
Rp9
.ccollections
OrderedDict
p0
((lp1
(lp2
S'state'
p3
aI400
aa(lp4
S'distance'
p5
aF174.41014862060547
aa(lp6
S'timestamp'
p7
aF5.8180201053619385
aatp8
Rp9
.ccollections
OrderedDict
p0
((lp1
(lp2
S'state'
p3
aI400
aa(lp4
S'distance'
p5
aF174.41014862060547
aa(lp6
S'timestamp'
p7
aF5.8275909423828125
aatp8
Rp9
.ccollections
OrderedDict
p0
((lp1
(lp2
S'state'
p3
aI400
aa(lp4
S'distance'
p5
aF174.41014862060547
aa(lp6
S'timestamp'
p7
aF5.828886985778809
aatp8
Rp9
.ccollections
OrderedDict
p0
((lp1
(lp2
S'state'
p3
aI400
aa(lp4
S'distance'
p5
aF174.41014862060547
aa(lp6
S'timestamp'
p7
aF5.837374925613403
aatp8
Rp9
.ccollections
OrderedDict
p0
((lp1
(lp2
S'state'
p3
aI400
aa(lp4
S'distance'
p5
aF174.41014862060547
aa(lp6
S'timestamp'
p7
aF5.837636947631836
aatp8
Rp9
.ccollections
OrderedDict
p0
((lp1
(lp2
S'state'
p3
aI400
aa(lp4
S'distance'
p5
aF174.41014862060547
aa(lp6
S'timestamp'
p7
aF5.8474578857421875
aatp8
Rp9
.ccollections
OrderedDict
p0
((lp1
(lp2
S'state'
p3
aI400
aa(lp4
S'distance'
p5
aF174.41014862060547
aa(lp6
S'timestamp'
p7
aF5.847898960113525
aatp8
Rp9
.ccollections
OrderedDict
p0
((lp1
(lp2
S'state'
p3
aI400
aa(lp4
S'distance'
p5
aF174.41014862060547
aa(lp6
S'timestamp'
p7
aF5.857844114303589
aatp8
Rp9
.ccollections
OrderedDict
p0
((lp1
(lp2
S'state'
p3
aI400
aa(lp4
S'distance'
p5
aF174.41014862060547
aa(lp6
S'timestamp'
p7
aF5.85799503326416
aatp8
Rp9
.ccollections
OrderedDict
p0
((lp1
(lp2
S'state'
p3
aI400
aa(lp4
S'distance'
p5
aF174.41014862060547
aa(lp6
S'timestamp'
p7
aF5.868412971496582
aatp8
Rp9
.ccollections
OrderedDict
p0
((lp1
(lp2
S'state'
p3
aI400
aa(lp4
S'distance'
p5
aF174.41014862060547
aa(lp6
S'timestamp'
p7
aF5.868490934371948
aatp8
Rp9
.ccollections
OrderedDict
p0
((lp1
(lp2
S'state'
p3
aI400
aa(lp4
S'distance'
p5
aF174.41014862060547
aa(lp6
S'timestamp'
p7
aF5.877866983413696
aatp8
Rp9
.ccollections
OrderedDict
p0
((lp1
(lp2
S'state'
p3
aI400
aa(lp4
S'distance'
p5
aF174.41014862060547
aa(lp6
S'timestamp'
p7
aF5.877939939498901
aatp8
Rp9
.ccollections
OrderedDict
p0
((lp1
(lp2
S'state'
p3
aI400
aa(lp4
S'distance'
p5
aF174.41014862060547
aa(lp6
S'timestamp'
p7
aF5.887598037719727
aatp8
Rp9
.ccollections
OrderedDict
p0
((lp1
(lp2
S'state'
p3
aI400
aa(lp4
S'distance'
p5
aF174.41014862060547
aa(lp6
S'timestamp'
p7
aF5.887681007385254
aatp8
Rp9
.ccollections
OrderedDict
p0
((lp1
(lp2
S'state'
p3
aI400
aa(lp4
S'distance'
p5
aF174.41014862060547
aa(lp6
S'timestamp'
p7
aF5.908834934234619
aatp8
Rp9
.ccollections
OrderedDict
p0
((lp1
(lp2
S'state'
p3
aI400
aa(lp4
S'distance'
p5
aF174.41014862060547
aa(lp6
S'timestamp'
p7
aF5.909346103668213
aatp8
Rp9
.ccollections
OrderedDict
p0
((lp1
(lp2
S'state'
p3
aI400
aa(lp4
S'distance'
p5
aF174.41014862060547
aa(lp6
S'timestamp'
p7
aF5.909960985183716
aatp8
Rp9
.ccollections
OrderedDict
p0
((lp1
(lp2
S'state'
p3
aI400
aa(lp4
S'distance'
p5
aF174.41014862060547
aa(lp6
S'timestamp'
p7
aF5.910034894943237
aatp8
Rp9
.ccollections
OrderedDict
p0
((lp1
(lp2
S'state'
p3
aI400
aa(lp4
S'distance'
p5
aF174.41014862060547
aa(lp6
S'timestamp'
p7
aF5.9171059131622314
aatp8
Rp9
.ccollections
OrderedDict
p0
((lp1
(lp2
S'state'
p3
aI400
aa(lp4
S'distance'
p5
aF174.41014862060547
aa(lp6
S'timestamp'
p7
aF5.917820930480957
aatp8
Rp9
.ccollections
OrderedDict
p0
((lp1
(lp2
S'state'
p3
aI400
aa(lp4
S'distance'
p5
aF174.41014862060547
aa(lp6
S'timestamp'
p7
aF5.9276580810546875
aatp8
Rp9
.ccollections
OrderedDict
p0
((lp1
(lp2
S'state'
p3
aI400
aa(lp4
S'distance'
p5
aF174.41014862060547
aa(lp6
S'timestamp'
p7
aF5.927757978439331
aatp8
Rp9
.ccollections
OrderedDict
p0
((lp1
(lp2
S'state'
p3
aI400
aa(lp4
S'distance'
p5
aF174.41014862060547
aa(lp6
S'timestamp'
p7
aF5.9373860359191895
aatp8
Rp9
.ccollections
OrderedDict
p0
((lp1
(lp2
S'state'
p3
aI400
aa(lp4
S'distance'
p5
aF174.41014862060547
aa(lp6
S'timestamp'
p7
aF5.937709093093872
aatp8
Rp9
.ccollections
OrderedDict
p0
((lp1
(lp2
S'state'
p3
aI400
aa(lp4
S'distance'
p5
aF174.41014862060547
aa(lp6
S'timestamp'
p7
aF5.947765111923218
aatp8
Rp9
.ccollections
OrderedDict
p0
((lp1
(lp2
S'state'
p3
aI400
aa(lp4
S'distance'
p5
aF174.41014862060547
aa(lp6
S'timestamp'
p7
aF5.947851896286011
aatp8
Rp9
.ccollections
OrderedDict
p0
((lp1
(lp2
S'state'
p3
aI400
aa(lp4
S'distance'
p5
aF174.41014862060547
aa(lp6
S'timestamp'
p7
aF5.957273960113525
aatp8
Rp9
.ccollections
OrderedDict
p0
((lp1
(lp2
S'state'
p3
aI400
aa(lp4
S'distance'
p5
aF174.41014862060547
aa(lp6
S'timestamp'
p7
aF5.957781076431274
aatp8
Rp9
.ccollections
OrderedDict
p0
((lp1
(lp2
S'state'
p3
aI400
aa(lp4
S'distance'
p5
aF174.41014862060547
aa(lp6
S'timestamp'
p7
aF5.968295097351074
aatp8
Rp9
.ccollections
OrderedDict
p0
((lp1
(lp2
S'state'
p3
aI400
aa(lp4
S'distance'
p5
aF174.41014862060547
aa(lp6
S'timestamp'
p7
aF5.968522071838379
aatp8
Rp9
.ccollections
OrderedDict
p0
((lp1
(lp2
S'state'
p3
aI400
aa(lp4
S'distance'
p5
aF174.41014862060547
aa(lp6
S'timestamp'
p7
aF5.988415002822876
aatp8
Rp9
.ccollections
OrderedDict
p0
((lp1
(lp2
S'state'
p3
aI400
aa(lp4
S'distance'
p5
aF174.41014862060547
aa(lp6
S'timestamp'
p7
aF5.997682094573975
aatp8
Rp9
.ccollections
OrderedDict
p0
((lp1
(lp2
S'state'
p3
aI400
aa(lp4
S'distance'
p5
aF174.41014862060547
aa(lp6
S'timestamp'
p7
aF5.99776291847229
aatp8
Rp9
.ccollections
OrderedDict
p0
((lp1
(lp2
S'state'
p3
aI400
aa(lp4
S'distance'
p5
aF174.41014862060547
aa(lp6
S'timestamp'
p7
aF5.998408079147339
aatp8
Rp9
.ccollections
OrderedDict
p0
((lp1
(lp2
S'state'
p3
aI400
aa(lp4
S'distance'
p5
aF174.41014862060547
aa(lp6
S'timestamp'
p7
aF5.999524116516113
aatp8
Rp9
.ccollections
OrderedDict
p0
((lp1
(lp2
S'state'
p3
aI400
aa(lp4
S'distance'
p5
aF174.41014862060547
aa(lp6
S'timestamp'
p7
aF6.007195949554443
aatp8
Rp9
.ccollections
OrderedDict
p0
((lp1
(lp2
S'state'
p3
aI400
aa(lp4
S'distance'
p5
aF174.41014862060547
aa(lp6
S'timestamp'
p7
aF6.008627891540527
aatp8
Rp9
.ccollections
OrderedDict
p0
((lp1
(lp2
S'state'
p3
aI400
aa(lp4
S'distance'
p5
aF174.41014862060547
aa(lp6
S'timestamp'
p7
aF6.0089499950408936
aatp8
Rp9
.ccollections
OrderedDict
p0
((lp1
(lp2
S'state'
p3
aI400
aa(lp4
S'distance'
p5
aF174.41014862060547
aa(lp6
S'timestamp'
p7
aF6.017611026763916
aatp8
Rp9
.ccollections
OrderedDict
p0
((lp1
(lp2
S'state'
p3
aI400
aa(lp4
S'distance'
p5
aF174.41014862060547
aa(lp6
S'timestamp'
p7
aF6.018033981323242
aatp8
Rp9
.ccollections
OrderedDict
p0
((lp1
(lp2
S'state'
p3
aI400
aa(lp4
S'distance'
p5
aF174.41014862060547
aa(lp6
S'timestamp'
p7
aF6.033951997756958
aatp8
Rp9
.ccollections
OrderedDict
p0
((lp1
(lp2
S'state'
p3
aI400
aa(lp4
S'distance'
p5
aF174.41014862060547
aa(lp6
S'timestamp'
p7
aF6.034358978271484
aatp8
Rp9
.ccollections
OrderedDict
p0
((lp1
(lp2
S'state'
p3
aI400
aa(lp4
S'distance'
p5
aF174.41014862060547
aa(lp6
S'timestamp'
p7
aF6.038563966751099
aatp8
Rp9
.ccollections
OrderedDict
p0
((lp1
(lp2
S'state'
p3
aI400
aa(lp4
S'distance'
p5
aF174.41014862060547
aa(lp6
S'timestamp'
p7
aF6.039611101150513
aatp8
Rp9
.ccollections
OrderedDict
p0
((lp1
(lp2
S'state'
p3
aI400
aa(lp4
S'distance'
p5
aF174.41014862060547
aa(lp6
S'timestamp'
p7
aF6.048778057098389
aatp8
Rp9
.ccollections
OrderedDict
p0
((lp1
(lp2
S'state'
p3
aI400
aa(lp4
S'distance'
p5
aF174.41014862060547
aa(lp6
S'timestamp'
p7
aF6.048871994018555
aatp8
Rp9
.ccollections
OrderedDict
p0
((lp1
(lp2
S'state'
p3
aI400
aa(lp4
S'distance'
p5
aF174.41014862060547
aa(lp6
S'timestamp'
p7
aF6.058356046676636
aatp8
Rp9
.ccollections
OrderedDict
p0
((lp1
(lp2
S'state'
p3
aI400
aa(lp4
S'distance'
p5
aF174.41014862060547
aa(lp6
S'timestamp'
p7
aF6.058572053909302
aatp8
Rp9
.ccollections
OrderedDict
p0
((lp1
(lp2
S'state'
p3
aI0
aa(lp4
S'distance'
p5
aF174.41014862060547
aa(lp6
S'timestamp'
p7
aF6.068103075027466
aatp8
Rp9
.ccollections
OrderedDict
p0
((lp1
(lp2
S'state'
p3
aI0
aa(lp4
S'distance'
p5
aF83.4706916809082
aa(lp6
S'timestamp'
p7
aF6.654953956604004
aatp8
Rp9
.ccollections
OrderedDict
p0
((lp1
(lp2
S'state'
p3
aI0
aa(lp4
S'distance'
p5
aF83.4706916809082
aa(lp6
S'timestamp'
p7
aF6.655191898345947
aatp8
Rp9
.ccollections
OrderedDict
p0
((lp1
(lp2
S'state'
p3
aI0
aa(lp4
S'distance'
p5
aF83.4706916809082
aa(lp6
S'timestamp'
p7
aF6.655535936355591
aatp8
Rp9
.ccollections
OrderedDict
p0
((lp1
(lp2
S'state'
p3
aI0
aa(lp4
S'distance'
p5
aF83.4706916809082
aa(lp6
S'timestamp'
p7
aF6.657867908477783
aatp8
Rp9
.ccollections
OrderedDict
p0
((lp1
(lp2
S'state'
p3
aI0
aa(lp4
S'distance'
p5
aF83.4706916809082
aa(lp6
S'timestamp'
p7
aF6.657994031906128
aatp8
Rp9
.ccollections
OrderedDict
p0
((lp1
(lp2
S'state'
p3
aI0
aa(lp4
S'distance'
p5
aF83.4706916809082
aa(lp6
S'timestamp'
p7
aF6.668088912963867
aatp8
Rp9
.ccollections
OrderedDict
p0
((lp1
(lp2
S'state'
p3
aI0
aa(lp4
S'distance'
p5
aF83.4706916809082
aa(lp6
S'timestamp'
p7
aF6.668248891830444
aatp8
Rp9
.ccollections
OrderedDict
p0
((lp1
(lp2
S'state'
p3
aI0
aa(lp4
S'distance'
p5
aF83.4706916809082
aa(lp6
S'timestamp'
p7
aF6.6781699657440186
aatp8
Rp9
.ccollections
OrderedDict
p0
((lp1
(lp2
S'state'
p3
aI0
aa(lp4
S'distance'
p5
aF83.4706916809082
aa(lp6
S'timestamp'
p7
aF6.678250074386597
aatp8
Rp9
.ccollections
OrderedDict
p0
((lp1
(lp2
S'state'
p3
aI0
aa(lp4
S'distance'
p5
aF83.4706916809082
aa(lp6
S'timestamp'
p7
aF6.687088966369629
aatp8
Rp9
.ccollections
OrderedDict
p0
((lp1
(lp2
S'state'
p3
aI0
aa(lp4
S'distance'
p5
aF83.4706916809082
aa(lp6
S'timestamp'
p7
aF6.688102960586548
aatp8
Rp9
.ccollections
OrderedDict
p0
((lp1
(lp2
S'state'
p3
aI0
aa(lp4
S'distance'
p5
aF83.4706916809082
aa(lp6
S'timestamp'
p7
aF6.697196960449219
aatp8
Rp9
.ccollections
OrderedDict
p0
((lp1
(lp2
S'state'
p3
aI0
aa(lp4
S'distance'
p5
aF83.4706916809082
aa(lp6
S'timestamp'
p7
aF6.698561906814575
aatp8
Rp9
.ccollections
OrderedDict
p0
((lp1
(lp2
S'state'
p3
aI0
aa(lp4
S'distance'
p5
aF83.4706916809082
aa(lp6
S'timestamp'
p7
aF6.707161903381348
aatp8
Rp9
.ccollections
OrderedDict
p0
((lp1
(lp2
S'state'
p3
aI0
aa(lp4
S'distance'
p5
aF83.4706916809082
aa(lp6
S'timestamp'
p7
aF6.70776891708374
aatp8
Rp9
.ccollections
OrderedDict
p0
((lp1
(lp2
S'state'
p3
aI0
aa(lp4
S'distance'
p5
aF83.4706916809082
aa(lp6
S'timestamp'
p7
aF6.717104911804199
aatp8
Rp9
.ccollections
OrderedDict
p0
((lp1
(lp2
S'state'
p3
aI0
aa(lp4
S'distance'
p5
aF83.4706916809082
aa(lp6
S'timestamp'
p7
aF6.717416048049927
aatp8
Rp9
.ccollections
OrderedDict
p0
((lp1
(lp2
S'state'
p3
aI0
aa(lp4
S'distance'
p5
aF83.4706916809082
aa(lp6
S'timestamp'
p7
aF6.737076044082642
aatp8
Rp9
.ccollections
OrderedDict
p0
((lp1
(lp2
S'state'
p3
aI0
aa(lp4
S'distance'
p5
aF83.4706916809082
aa(lp6
S'timestamp'
p7
aF6.738677024841309
aatp8
Rp9
.ccollections
OrderedDict
p0
((lp1
(lp2
S'state'
p3
aI0
aa(lp4
S'distance'
p5
aF83.4706916809082
aa(lp6
S'timestamp'
p7
aF6.738769054412842
aatp8
Rp9
.ccollections
OrderedDict
p0
((lp1
(lp2
S'state'
p3
aI0
aa(lp4
S'distance'
p5
aF83.4706916809082
aa(lp6
S'timestamp'
p7
aF6.738842010498047
aatp8
Rp9
.ccollections
OrderedDict
p0
((lp1
(lp2
S'state'
p3
aI0
aa(lp4
S'distance'
p5
aF83.4706916809082
aa(lp6
S'timestamp'
p7
aF6.747719049453735
aatp8
Rp9
.ccollections
OrderedDict
p0
((lp1
(lp2
S'state'
p3
aI0
aa(lp4
S'distance'
p5
aF83.4706916809082
aa(lp6
S'timestamp'
p7
aF6.747909069061279
aatp8
Rp9
.ccollections
OrderedDict
p0
((lp1
(lp2
S'state'
p3
aI0
aa(lp4
S'distance'
p5
aF83.4706916809082
aa(lp6
S'timestamp'
p7
aF6.757175922393799
aatp8
Rp9
.ccollections
OrderedDict
p0
((lp1
(lp2
S'state'
p3
aI0
aa(lp4
S'distance'
p5
aF83.4706916809082
aa(lp6
S'timestamp'
p7
aF6.758714914321899
aatp8
Rp9
.ccollections
OrderedDict
p0
((lp1
(lp2
S'state'
p3
aI0
aa(lp4
S'distance'
p5
aF83.4706916809082
aa(lp6
S'timestamp'
p7
aF6.767066955566406
aatp8
Rp9
.ccollections
OrderedDict
p0
((lp1
(lp2
S'state'
p3
aI0
aa(lp4
S'distance'
p5
aF83.4706916809082
aa(lp6
S'timestamp'
p7
aF6.768265008926392
aatp8
Rp9
.ccollections
OrderedDict
p0
((lp1
(lp2
S'state'
p3
aI0
aa(lp4
S'distance'
p5
aF83.4706916809082
aa(lp6
S'timestamp'
p7
aF6.7771079540252686
aatp8
Rp9
.ccollections
OrderedDict
p0
((lp1
(lp2
S'state'
p3
aI0
aa(lp4
S'distance'
p5
aF83.4706916809082
aa(lp6
S'timestamp'
p7
aF6.7784459590911865
aatp8
Rp9
.ccollections
OrderedDict
p0
((lp1
(lp2
S'state'
p3
aI0
aa(lp4
S'distance'
p5
aF83.4706916809082
aa(lp6
S'timestamp'
p7
aF6.7969810962677
aatp8
Rp9
.ccollections
OrderedDict
p0
((lp1
(lp2
S'state'
p3
aI0
aa(lp4
S'distance'
p5
aF83.4706916809082
aa(lp6
S'timestamp'
p7
aF6.798201084136963
aatp8
Rp9
.ccollections
OrderedDict
p0
((lp1
(lp2
S'state'
p3
aI0
aa(lp4
S'distance'
p5
aF83.4706916809082
aa(lp6
S'timestamp'
p7
aF6.79834508895874
aatp8
Rp9
.ccollections
OrderedDict
p0
((lp1
(lp2
S'state'
p3
aI0
aa(lp4
S'distance'
p5
aF83.4706916809082
aa(lp6
S'timestamp'
p7
aF6.7984349727630615
aatp8
Rp9
.ccollections
OrderedDict
p0
((lp1
(lp2
S'state'
p3
aI0
aa(lp4
S'distance'
p5
aF83.4706916809082
aa(lp6
S'timestamp'
p7
aF6.806993007659912
aatp8
Rp9
.ccollections
OrderedDict
p0
((lp1
(lp2
S'state'
p3
aI0
aa(lp4
S'distance'
p5
aF83.4706916809082
aa(lp6
S'timestamp'
p7
aF6.807935953140259
aatp8
Rp9
.ccollections
OrderedDict
p0
((lp1
(lp2
S'state'
p3
aI0
aa(lp4
S'distance'
p5
aF83.4706916809082
aa(lp6
S'timestamp'
p7
aF6.826993942260742
aatp8
Rp9
.ccollections
OrderedDict
p0
((lp1
(lp2
S'state'
p3
aI0
aa(lp4
S'distance'
p5
aF83.4706916809082
aa(lp6
S'timestamp'
p7
aF6.828354120254517
aatp8
Rp9
.ccollections
OrderedDict
p0
((lp1
(lp2
S'state'
p3
aI0
aa(lp4
S'distance'
p5
aF83.4706916809082
aa(lp6
S'timestamp'
p7
aF6.828628063201904
aatp8
Rp9
.ccollections
OrderedDict
p0
((lp1
(lp2
S'state'
p3
aI0
aa(lp4
S'distance'
p5
aF83.4706916809082
aa(lp6
S'timestamp'
p7
aF6.829235076904297
aatp8
Rp9
.ccollections
OrderedDict
p0
((lp1
(lp2
S'state'
p3
aI0
aa(lp4
S'distance'
p5
aF83.4706916809082
aa(lp6
S'timestamp'
p7
aF6.83697509765625
aatp8
Rp9
.ccollections
OrderedDict
p0
((lp1
(lp2
S'state'
p3
aI0
aa(lp4
S'distance'
p5
aF83.4706916809082
aa(lp6
S'timestamp'
p7
aF6.838191032409668
aatp8
Rp9
.ccollections
OrderedDict
p0
((lp1
(lp2
S'state'
p3
aI0
aa(lp4
S'distance'
p5
aF83.4706916809082
aa(lp6
S'timestamp'
p7
aF6.84707498550415
aatp8
Rp9
.ccollections
OrderedDict
p0
((lp1
(lp2
S'state'
p3
aI0
aa(lp4
S'distance'
p5
aF83.4706916809082
aa(lp6
S'timestamp'
p7
aF6.847784996032715
aatp8
Rp9
.ccollections
OrderedDict
p0
((lp1
(lp2
S'state'
p3
aI0
aa(lp4
S'distance'
p5
aF83.4706916809082
aa(lp6
S'timestamp'
p7
aF6.85697603225708
aatp8
Rp9
.ccollections
OrderedDict
p0
((lp1
(lp2
S'state'
p3
aI0
aa(lp4
S'distance'
p5
aF83.4706916809082
aa(lp6
S'timestamp'
p7
aF6.857685089111328
aatp8
Rp9
.ccollections
OrderedDict
p0
((lp1
(lp2
S'state'
p3
aI0
aa(lp4
S'distance'
p5
aF83.4706916809082
aa(lp6
S'timestamp'
p7
aF6.866960048675537
aatp8
Rp9
.ccollections
OrderedDict
p0
((lp1
(lp2
S'state'
p3
aI0
aa(lp4
S'distance'
p5
aF83.4706916809082
aa(lp6
S'timestamp'
p7
aF6.86791205406189
aatp8
Rp9
.ccollections
OrderedDict
p0
((lp1
(lp2
S'state'
p3
aI0
aa(lp4
S'distance'
p5
aF83.4706916809082
aa(lp6
S'timestamp'
p7
aF6.877193927764893
aatp8
Rp9
.ccollections
OrderedDict
p0
((lp1
(lp2
S'state'
p3
aI0
aa(lp4
S'distance'
p5
aF83.4706916809082
aa(lp6
S'timestamp'
p7
aF6.877859115600586
aatp8
Rp9
.ccollections
OrderedDict
p0
((lp1
(lp2
S'state'
p3
aI0
aa(lp4
S'distance'
p5
aF83.4706916809082
aa(lp6
S'timestamp'
p7
aF6.8870179653167725
aatp8
Rp9
.ccollections
OrderedDict
p0
((lp1
(lp2
S'state'
p3
aI0
aa(lp4
S'distance'
p5
aF83.4706916809082
aa(lp6
S'timestamp'
p7
aF6.8882529735565186
aatp8
Rp9
.ccollections
OrderedDict
p0
((lp1
(lp2
S'state'
p3
aI0
aa(lp4
S'distance'
p5
aF83.4706916809082
aa(lp6
S'timestamp'
p7
aF6.897094964981079
aatp8
Rp9
.ccollections
OrderedDict
p0
((lp1
(lp2
S'state'
p3
aI0
aa(lp4
S'distance'
p5
aF83.4706916809082
aa(lp6
S'timestamp'
p7
aF6.898020029067993
aatp8
Rp9
.ccollections
OrderedDict
p0
((lp1
(lp2
S'state'
p3
aI0
aa(lp4
S'distance'
p5
aF83.4706916809082
aa(lp6
S'timestamp'
p7
aF6.907105922698975
aatp8
Rp9
.ccollections
OrderedDict
p0
((lp1
(lp2
S'state'
p3
aI0
aa(lp4
S'distance'
p5
aF83.4706916809082
aa(lp6
S'timestamp'
p7
aF6.9080939292907715
aatp8
Rp9
.ccollections
OrderedDict
p0
((lp1
(lp2
S'state'
p3
aI0
aa(lp4
S'distance'
p5
aF83.4706916809082
aa(lp6
S'timestamp'
p7
aF6.91695499420166
aatp8
Rp9
.ccollections
OrderedDict
p0
((lp1
(lp2
S'state'
p3
aI0
aa(lp4
S'distance'
p5
aF83.4706916809082
aa(lp6
S'timestamp'
p7
aF6.917594909667969
aatp8
Rp9
.ccollections
OrderedDict
p0
((lp1
(lp2
S'state'
p3
aI0
aa(lp4
S'distance'
p5
aF83.4706916809082
aa(lp6
S'timestamp'
p7
aF6.927104949951172
aatp8
Rp9
.ccollections
OrderedDict
p0
((lp1
(lp2
S'state'
p3
aI0
aa(lp4
S'distance'
p5
aF83.4706916809082
aa(lp6
S'timestamp'
p7
aF6.927774906158447
aatp8
Rp9
.ccollections
OrderedDict
p0
((lp1
(lp2
S'state'
p3
aI0
aa(lp4
S'distance'
p5
aF83.4706916809082
aa(lp6
S'timestamp'
p7
aF6.937047004699707
aatp8
Rp9
.ccollections
OrderedDict
p0
((lp1
(lp2
S'state'
p3
aI0
aa(lp4
S'distance'
p5
aF83.4706916809082
aa(lp6
S'timestamp'
p7
aF6.937679052352905
aatp8
Rp9
.ccollections
OrderedDict
p0
((lp1
(lp2
S'state'
p3
aI0
aa(lp4
S'distance'
p5
aF83.4706916809082
aa(lp6
S'timestamp'
p7
aF6.956923961639404
aatp8
Rp9
.ccollections
OrderedDict
p0
((lp1
(lp2
S'state'
p3
aI0
aa(lp4
S'distance'
p5
aF83.4706916809082
aa(lp6
S'timestamp'
p7
aF6.958043098449707
aatp8
Rp9
.ccollections
OrderedDict
p0
((lp1
(lp2
S'state'
p3
aI0
aa(lp4
S'distance'
p5
aF83.4706916809082
aa(lp6
S'timestamp'
p7
aF6.958326101303101
aatp8
Rp9
.ccollections
OrderedDict
p0
((lp1
(lp2
S'state'
p3
aI0
aa(lp4
S'distance'
p5
aF83.4706916809082
aa(lp6
S'timestamp'
p7
aF6.9587180614471436
aatp8
Rp9
.ccollections
OrderedDict
p0
((lp1
(lp2
S'state'
p3
aI0
aa(lp4
S'distance'
p5
aF83.4706916809082
aa(lp6
S'timestamp'
p7
aF6.967050075531006
aatp8
Rp9
.ccollections
OrderedDict
p0
((lp1
(lp2
S'state'
p3
aI0
aa(lp4
S'distance'
p5
aF83.4706916809082
aa(lp6
S'timestamp'
p7
aF6.967526912689209
aatp8
Rp9
.ccollections
OrderedDict
p0
((lp1
(lp2
S'state'
p3
aI0
aa(lp4
S'distance'
p5
aF83.4706916809082
aa(lp6
S'timestamp'
p7
aF6.9769370555877686
aatp8
Rp9
.ccollections
OrderedDict
p0
((lp1
(lp2
S'state'
p3
aI0
aa(lp4
S'distance'
p5
aF83.4706916809082
aa(lp6
S'timestamp'
p7
aF6.977977991104126
aatp8
Rp9
.ccollections
OrderedDict
p0
((lp1
(lp2
S'state'
p3
aI0
aa(lp4
S'distance'
p5
aF83.4706916809082
aa(lp6
S'timestamp'
p7
aF6.9871649742126465
aatp8
Rp9
.ccollections
OrderedDict
p0
((lp1
(lp2
S'state'
p3
aI0
aa(lp4
S'distance'
p5
aF83.4706916809082
aa(lp6
S'timestamp'
p7
aF6.988097906112671
aatp8
Rp9
.ccollections
OrderedDict
p0
((lp1
(lp2
S'state'
p3
aI0
aa(lp4
S'distance'
p5
aF83.4706916809082
aa(lp6
S'timestamp'
p7
aF6.997064113616943
aatp8
Rp9
.ccollections
OrderedDict
p0
((lp1
(lp2
S'state'
p3
aI0
aa(lp4
S'distance'
p5
aF83.4706916809082
aa(lp6
S'timestamp'
p7
aF6.997654914855957
aatp8
Rp9
.ccollections
OrderedDict
p0
((lp1
(lp2
S'state'
p3
aI0
aa(lp4
S'distance'
p5
aF83.4706916809082
aa(lp6
S'timestamp'
p7
aF7.01709508895874
aatp8
Rp9
.ccollections
OrderedDict
p0
((lp1
(lp2
S'state'
p3
aI0
aa(lp4
S'distance'
p5
aF83.4706916809082
aa(lp6
S'timestamp'
p7
aF7.018338918685913
aatp8
Rp9
.ccollections
OrderedDict
p0
((lp1
(lp2
S'state'
p3
aI0
aa(lp4
S'distance'
p5
aF83.4706916809082
aa(lp6
S'timestamp'
p7
aF7.018542051315308
aatp8
Rp9
.ccollections
OrderedDict
p0
((lp1
(lp2
S'state'
p3
aI0
aa(lp4
S'distance'
p5
aF83.4706916809082
aa(lp6
S'timestamp'
p7
aF7.018626928329468
aatp8
Rp9
.ccollections
OrderedDict
p0
((lp1
(lp2
S'state'
p3
aI0
aa(lp4
S'distance'
p5
aF83.4706916809082
aa(lp6
S'timestamp'
p7
aF7.02709698677063
aatp8
Rp9
.ccollections
OrderedDict
p0
((lp1
(lp2
S'state'
p3
aI0
aa(lp4
S'distance'
p5
aF83.4706916809082
aa(lp6
S'timestamp'
p7
aF7.027406930923462
aatp8
Rp9
.ccollections
OrderedDict
p0
((lp1
(lp2
S'state'
p3
aI0
aa(lp4
S'distance'
p5
aF83.4706916809082
aa(lp6
S'timestamp'
p7
aF7.0371880531311035
aatp8
Rp9
.ccollections
OrderedDict
p0
((lp1
(lp2
S'state'
p3
aI0
aa(lp4
S'distance'
p5
aF83.4706916809082
aa(lp6
S'timestamp'
p7
aF7.0380730628967285
aatp8
Rp9
.ccollections
OrderedDict
p0
((lp1
(lp2
S'state'
p3
aI0
aa(lp4
S'distance'
p5
aF83.4706916809082
aa(lp6
S'timestamp'
p7
aF7.0474090576171875
aatp8
Rp9
.ccollections
OrderedDict
p0
((lp1
(lp2
S'state'
p3
aI0
aa(lp4
S'distance'
p5
aF83.4706916809082
aa(lp6
S'timestamp'
p7
aF7.047494888305664
aatp8
Rp9
.ccollections
OrderedDict
p0
((lp1
(lp2
S'state'
p3
aI0
aa(lp4
S'distance'
p5
aF83.4706916809082
aa(lp6
S'timestamp'
p7
aF7.057176113128662
aatp8
Rp9
.ccollections
OrderedDict
p0
((lp1
(lp2
S'state'
p3
aI0
aa(lp4
S'distance'
p5
aF83.4706916809082
aa(lp6
S'timestamp'
p7
aF7.057951927185059
aatp8
Rp9
.ccollections
OrderedDict
p0
((lp1
(lp2
S'state'
p3
aI0
aa(lp4
S'distance'
p5
aF83.4706916809082
aa(lp6
S'timestamp'
p7
aF7.0671210289001465
aatp8
Rp9
.ccollections
OrderedDict
p0
((lp1
(lp2
S'state'
p3
aI0
aa(lp4
S'distance'
p5
aF83.4706916809082
aa(lp6
S'timestamp'
p7
aF7.068056106567383
aatp8
Rp9
.ccollections
OrderedDict
p0
((lp1
(lp2
S'state'
p3
aI0
aa(lp4
S'distance'
p5
aF83.4706916809082
aa(lp6
S'timestamp'
p7
aF7.087100982666016
aatp8
Rp9
.ccollections
OrderedDict
p0
((lp1
(lp2
S'state'
p3
aI0
aa(lp4
S'distance'
p5
aF83.4706916809082
aa(lp6
S'timestamp'
p7
aF7.0873448848724365
aatp8
Rp9
.ccollections
OrderedDict
p0
((lp1
(lp2
S'state'
p3
aI0
aa(lp4
S'distance'
p5
aF83.4706916809082
aa(lp6
S'timestamp'
p7
aF7.0889201164245605
aatp8
Rp9
.ccollections
OrderedDict
p0
((lp1
(lp2
S'state'
p3
aI0
aa(lp4
S'distance'
p5
aF83.4706916809082
aa(lp6
S'timestamp'
p7
aF7.089967966079712
aatp8
Rp9
.ccollections
OrderedDict
p0
((lp1
(lp2
S'state'
p3
aI0
aa(lp4
S'distance'
p5
aF83.4706916809082
aa(lp6
S'timestamp'
p7
aF7.096858978271484
aatp8
Rp9
.ccollections
OrderedDict
p0
((lp1
(lp2
S'state'
p3
aI0
aa(lp4
S'distance'
p5
aF83.4706916809082
aa(lp6
S'timestamp'
p7
aF7.107140064239502
aatp8
Rp9
.ccollections
OrderedDict
p0
((lp1
(lp2
S'state'
p3
aI0
aa(lp4
S'distance'
p5
aF83.4706916809082
aa(lp6
S'timestamp'
p7
aF7.108490943908691
aatp8
Rp9
.ccollections
OrderedDict
p0
((lp1
(lp2
S'state'
p3
aI0
aa(lp4
S'distance'
p5
aF83.4706916809082
aa(lp6
S'timestamp'
p7
aF7.108568906784058
aatp8
Rp9
.ccollections
OrderedDict
p0
((lp1
(lp2
S'state'
p3
aI0
aa(lp4
S'distance'
p5
aF83.4706916809082
aa(lp6
S'timestamp'
p7
aF7.1171181201934814
aatp8
Rp9
.ccollections
OrderedDict
p0
((lp1
(lp2
S'state'
p3
aI0
aa(lp4
S'distance'
p5
aF83.4706916809082
aa(lp6
S'timestamp'
p7
aF7.1179070472717285
aatp8
Rp9
.ccollections
OrderedDict
p0
((lp1
(lp2
S'state'
p3
aI0
aa(lp4
S'distance'
p5
aF83.4706916809082
aa(lp6
S'timestamp'
p7
aF7.126975059509277
aatp8
Rp9
.ccollections
OrderedDict
p0
((lp1
(lp2
S'state'
p3
aI0
aa(lp4
S'distance'
p5
aF83.4706916809082
aa(lp6
S'timestamp'
p7
aF7.1280128955841064
aatp8
Rp9
.ccollections
OrderedDict
p0
((lp1
(lp2
S'state'
p3
aI0
aa(lp4
S'distance'
p5
aF83.4706916809082
aa(lp6
S'timestamp'
p7
aF7.137959003448486
aatp8
Rp9
.ccollections
OrderedDict
p0
((lp1
(lp2
S'state'
p3
aI0
aa(lp4
S'distance'
p5
aF83.4706916809082
aa(lp6
S'timestamp'
p7
aF7.1381800174713135
aatp8
Rp9
.ccollections
OrderedDict
p0
((lp1
(lp2
S'state'
p3
aI0
aa(lp4
S'distance'
p5
aF83.4706916809082
aa(lp6
S'timestamp'
p7
aF7.147053003311157
aatp8
Rp9
.ccollections
OrderedDict
p0
((lp1
(lp2
S'state'
p3
aI0
aa(lp4
S'distance'
p5
aF83.4706916809082
aa(lp6
S'timestamp'
p7
aF7.14841103553772
aatp8
Rp9
.ccollections
OrderedDict
p0
((lp1
(lp2
S'state'
p3
aI0
aa(lp4
S'distance'
p5
aF83.4706916809082
aa(lp6
S'timestamp'
p7
aF7.156812906265259
aatp8
Rp9
.ccollections
OrderedDict
p0
((lp1
(lp2
S'state'
p3
aI0
aa(lp4
S'distance'
p5
aF83.4706916809082
aa(lp6
S'timestamp'
p7
aF7.158153057098389
aatp8
Rp9
.ccollections
OrderedDict
p0
((lp1
(lp2
S'state'
p3
aI0
aa(lp4
S'distance'
p5
aF83.4706916809082
aa(lp6
S'timestamp'
p7
aF7.167191982269287
aatp8
Rp9
.ccollections
OrderedDict
p0
((lp1
(lp2
S'state'
p3
aI0
aa(lp4
S'distance'
p5
aF83.4706916809082
aa(lp6
S'timestamp'
p7
aF7.168013095855713
aatp8
Rp9
.ccollections
OrderedDict
p0
((lp1
(lp2
S'state'
p3
aI0
aa(lp4
S'distance'
p5
aF83.4706916809082
aa(lp6
S'timestamp'
p7
aF7.177081108093262
aatp8
Rp9
.ccollections
OrderedDict
p0
((lp1
(lp2
S'state'
p3
aI0
aa(lp4
S'distance'
p5
aF83.4706916809082
aa(lp6
S'timestamp'
p7
aF7.177937030792236
aatp8
Rp9
.ccollections
OrderedDict
p0
((lp1
(lp2
S'state'
p3
aI0
aa(lp4
S'distance'
p5
aF83.4706916809082
aa(lp6
S'timestamp'
p7
aF7.1871631145477295
aatp8
Rp9
.ccollections
OrderedDict
p0
((lp1
(lp2
S'state'
p3
aI0
aa(lp4
S'distance'
p5
aF83.4706916809082
aa(lp6
S'timestamp'
p7
aF7.188030958175659
aatp8
Rp9
.ccollections
OrderedDict
p0
((lp1
(lp2
S'state'
p3
aI0
aa(lp4
S'distance'
p5
aF83.4706916809082
aa(lp6
S'timestamp'
p7
aF7.197206020355225
aatp8
Rp9
.ccollections
OrderedDict
p0
((lp1
(lp2
S'state'
p3
aI0
aa(lp4
S'distance'
p5
aF83.4706916809082
aa(lp6
S'timestamp'
p7
aF7.19825291633606
aatp8
Rp9
.ccollections
OrderedDict
p0
((lp1
(lp2
S'state'
p3
aI0
aa(lp4
S'distance'
p5
aF83.4706916809082
aa(lp6
S'timestamp'
p7
aF7.2071239948272705
aatp8
Rp9
.ccollections
OrderedDict
p0
((lp1
(lp2
S'state'
p3
aI0
aa(lp4
S'distance'
p5
aF83.4706916809082
aa(lp6
S'timestamp'
p7
aF7.208050012588501
aatp8
Rp9
.ccollections
OrderedDict
p0
((lp1
(lp2
S'state'
p3
aI0
aa(lp4
S'distance'
p5
aF83.4706916809082
aa(lp6
S'timestamp'
p7
aF7.217936992645264
aatp8
Rp9
.ccollections
OrderedDict
p0
((lp1
(lp2
S'state'
p3
aI0
aa(lp4
S'distance'
p5
aF83.4706916809082
aa(lp6
S'timestamp'
p7
aF7.218780994415283
aatp8
Rp9
.ccollections
OrderedDict
p0
((lp1
(lp2
S'state'
p3
aI0
aa(lp4
S'distance'
p5
aF83.4706916809082
aa(lp6
S'timestamp'
p7
aF7.227679967880249
aatp8
Rp9
.ccollections
OrderedDict
p0
((lp1
(lp2
S'state'
p3
aI0
aa(lp4
S'distance'
p5
aF83.4706916809082
aa(lp6
S'timestamp'
p7
aF7.228048086166382
aatp8
Rp9
.ccollections
OrderedDict
p0
((lp1
(lp2
S'state'
p3
aI0
aa(lp4
S'distance'
p5
aF83.4706916809082
aa(lp6
S'timestamp'
p7
aF7.247212886810303
aatp8
Rp9
.ccollections
OrderedDict
p0
((lp1
(lp2
S'state'
p3
aI0
aa(lp4
S'distance'
p5
aF83.4706916809082
aa(lp6
S'timestamp'
p7
aF7.247517108917236
aatp8
Rp9
.ccollections
OrderedDict
p0
((lp1
(lp2
S'state'
p3
aI0
aa(lp4
S'distance'
p5
aF83.4706916809082
aa(lp6
S'timestamp'
p7
aF7.248276948928833
aatp8
Rp9
.ccollections
OrderedDict
p0
((lp1
(lp2
S'state'
p3
aI0
aa(lp4
S'distance'
p5
aF83.4706916809082
aa(lp6
S'timestamp'
p7
aF7.248650074005127
aatp8
Rp9
.ccollections
OrderedDict
p0
((lp1
(lp2
S'state'
p3
aI0
aa(lp4
S'distance'
p5
aF83.4706916809082
aa(lp6
S'timestamp'
p7
aF7.256956100463867
aatp8
Rp9
.ccollections
OrderedDict
p0
((lp1
(lp2
S'state'
p3
aI0
aa(lp4
S'distance'
p5
aF83.4706916809082
aa(lp6
S'timestamp'
p7
aF7.257364988327026
aatp8
Rp9
.ccollections
OrderedDict
p0
((lp1
(lp2
S'state'
p3
aI0
aa(lp4
S'distance'
p5
aF83.4706916809082
aa(lp6
S'timestamp'
p7
aF7.267194032669067
aatp8
Rp9
.ccollections
OrderedDict
p0
((lp1
(lp2
S'state'
p3
aI0
aa(lp4
S'distance'
p5
aF83.4706916809082
aa(lp6
S'timestamp'
p7
aF7.267405033111572
aatp8
Rp9
.ccollections
OrderedDict
p0
((lp1
(lp2
S'state'
p3
aI0
aa(lp4
S'distance'
p5
aF83.4706916809082
aa(lp6
S'timestamp'
p7
aF7.277209043502808
aatp8
Rp9
.ccollections
OrderedDict
p0
((lp1
(lp2
S'state'
p3
aI0
aa(lp4
S'distance'
p5
aF83.4706916809082
aa(lp6
S'timestamp'
p7
aF7.2779810428619385
aatp8
Rp9
.ccollections
OrderedDict
p0
((lp1
(lp2
S'state'
p3
aI0
aa(lp4
S'distance'
p5
aF83.4706916809082
aa(lp6
S'timestamp'
p7
aF7.288991928100586
aatp8
Rp9
.ccollections
OrderedDict
p0
((lp1
(lp2
S'state'
p3
aI0
aa(lp4
S'distance'
p5
aF83.4706916809082
aa(lp6
S'timestamp'
p7
aF7.289237976074219
aatp8
Rp9
.ccollections
OrderedDict
p0
((lp1
(lp2
S'state'
p3
aI0
aa(lp4
S'distance'
p5
aF83.4706916809082
aa(lp6
S'timestamp'
p7
aF7.29694390296936
aatp8
Rp9
.ccollections
OrderedDict
p0
((lp1
(lp2
S'state'
p3
aI0
aa(lp4
S'distance'
p5
aF83.4706916809082
aa(lp6
S'timestamp'
p7
aF7.307049989700317
aatp8
Rp9
.ccollections
OrderedDict
p0
((lp1
(lp2
S'state'
p3
aI0
aa(lp4
S'distance'
p5
aF83.4706916809082
aa(lp6
S'timestamp'
p7
aF7.307423114776611
aatp8
Rp9
.ccollections
OrderedDict
p0
((lp1
(lp2
S'state'
p3
aI0
aa(lp4
S'distance'
p5
aF83.4706916809082
aa(lp6
S'timestamp'
p7
aF7.3082780838012695
aatp8
Rp9
.ccollections
OrderedDict
p0
((lp1
(lp2
S'state'
p3
aI0
aa(lp4
S'distance'
p5
aF83.4706916809082
aa(lp6
S'timestamp'
p7
aF7.31702995300293
aatp8
Rp9
.ccollections
OrderedDict
p0
((lp1
(lp2
S'state'
p3
aI0
aa(lp4
S'distance'
p5
aF83.4706916809082
aa(lp6
S'timestamp'
p7
aF7.318191051483154
aatp8
Rp9
.ccollections
OrderedDict
p0
((lp1
(lp2
S'state'
p3
aI0
aa(lp4
S'distance'
p5
aF83.4706916809082
aa(lp6
S'timestamp'
p7
aF7.327100992202759
aatp8
Rp9
.ccollections
OrderedDict
p0
((lp1
(lp2
S'state'
p3
aI0
aa(lp4
S'distance'
p5
aF83.4706916809082
aa(lp6
S'timestamp'
p7
aF7.327960014343262
aatp8
Rp9
.ccollections
OrderedDict
p0
((lp1
(lp2
S'state'
p3
aI0
aa(lp4
S'distance'
p5
aF83.4706916809082
aa(lp6
S'timestamp'
p7
aF7.337110996246338
aatp8
Rp9
.ccollections
OrderedDict
p0
((lp1
(lp2
S'state'
p3
aI0
aa(lp4
S'distance'
p5
aF83.4706916809082
aa(lp6
S'timestamp'
p7
aF7.3384668827056885
aatp8
Rp9
.ccollections
OrderedDict
p0
((lp1
(lp2
S'state'
p3
aI0
aa(lp4
S'distance'
p5
aF83.4706916809082
aa(lp6
S'timestamp'
p7
aF7.347084999084473
aatp8
Rp9
.ccollections
OrderedDict
p0
((lp1
(lp2
S'state'
p3
aI0
aa(lp4
S'distance'
p5
aF83.4706916809082
aa(lp6
S'timestamp'
p7
aF7.348206043243408
aatp8
Rp9
.ccollections
OrderedDict
p0
((lp1
(lp2
S'state'
p3
aI0
aa(lp4
S'distance'
p5
aF83.4706916809082
aa(lp6
S'timestamp'
p7
aF7.357243061065674
aatp8
Rp9
.ccollections
OrderedDict
p0
((lp1
(lp2
S'state'
p3
aI0
aa(lp4
S'distance'
p5
aF83.4706916809082
aa(lp6
S'timestamp'
p7
aF7.358160972595215
aatp8
Rp9
.ccollections
OrderedDict
p0
((lp1
(lp2
S'state'
p3
aI0
aa(lp4
S'distance'
p5
aF83.4706916809082
aa(lp6
S'timestamp'
p7
aF7.36715292930603
aatp8
Rp9
.ccollections
OrderedDict
p0
((lp1
(lp2
S'state'
p3
aI0
aa(lp4
S'distance'
p5
aF83.4706916809082
aa(lp6
S'timestamp'
p7
aF7.368267059326172
aatp8
Rp9
.ccollections
OrderedDict
p0
((lp1
(lp2
S'state'
p3
aI0
aa(lp4
S'distance'
p5
aF83.4706916809082
aa(lp6
S'timestamp'
p7
aF7.387183904647827
aatp8
Rp9
.ccollections
OrderedDict
p0
((lp1
(lp2
S'state'
p3
aI0
aa(lp4
S'distance'
p5
aF83.4706916809082
aa(lp6
S'timestamp'
p7
aF7.387998104095459
aatp8
Rp9
.ccollections
OrderedDict
p0
((lp1
(lp2
S'state'
p3
aI0
aa(lp4
S'distance'
p5
aF83.4706916809082
aa(lp6
S'timestamp'
p7
aF7.388850927352905
aatp8
Rp9
.ccollections
OrderedDict
p0
((lp1
(lp2
S'state'
p3
aI0
aa(lp4
S'distance'
p5
aF83.4706916809082
aa(lp6
S'timestamp'
p7
aF7.3898680210113525
aatp8
Rp9
.ccollections
OrderedDict
p0
((lp1
(lp2
S'state'
p3
aI0
aa(lp4
S'distance'
p5
aF83.4706916809082
aa(lp6
S'timestamp'
p7
aF7.397680997848511
aatp8
Rp9
.ccollections
OrderedDict
p0
((lp1
(lp2
S'state'
p3
aI0
aa(lp4
S'distance'
p5
aF83.4706916809082
aa(lp6
S'timestamp'
p7
aF7.398581027984619
aatp8
Rp9
.ccollections
OrderedDict
p0
((lp1
(lp2
S'state'
p3
aI0
aa(lp4
S'distance'
p5
aF83.4706916809082
aa(lp6
S'timestamp'
p7
aF7.407057046890259
aatp8
Rp9
.ccollections
OrderedDict
p0
((lp1
(lp2
S'state'
p3
aI0
aa(lp4
S'distance'
p5
aF83.4706916809082
aa(lp6
S'timestamp'
p7
aF7.40802788734436
aatp8
Rp9
.ccollections
OrderedDict
p0
((lp1
(lp2
S'state'
p3
aI0
aa(lp4
S'distance'
p5
aF83.4706916809082
aa(lp6
S'timestamp'
p7
aF7.417089939117432
aatp8
Rp9
.ccollections
OrderedDict
p0
((lp1
(lp2
S'state'
p3
aI0
aa(lp4
S'distance'
p5
aF83.4706916809082
aa(lp6
S'timestamp'
p7
aF7.417917013168335
aatp8
Rp9
.ccollections
OrderedDict
p0
((lp1
(lp2
S'state'
p3
aI0
aa(lp4
S'distance'
p5
aF83.4706916809082
aa(lp6
S'timestamp'
p7
aF7.427140951156616
aatp8
Rp9
.ccollections
OrderedDict
p0
((lp1
(lp2
S'state'
p3
aI0
aa(lp4
S'distance'
p5
aF83.4706916809082
aa(lp6
S'timestamp'
p7
aF7.427932024002075
aatp8
Rp9
.ccollections
OrderedDict
p0
((lp1
(lp2
S'state'
p3
aI0
aa(lp4
S'distance'
p5
aF83.4706916809082
aa(lp6
S'timestamp'
p7
aF7.437494993209839
aatp8
Rp9
.ccollections
OrderedDict
p0
((lp1
(lp2
S'state'
p3
aI0
aa(lp4
S'distance'
p5
aF83.4706916809082
aa(lp6
S'timestamp'
p7
aF7.438553094863892
aatp8
Rp9
.ccollections
OrderedDict
p0
((lp1
(lp2
S'state'
p3
aI0
aa(lp4
S'distance'
p5
aF83.4706916809082
aa(lp6
S'timestamp'
p7
aF7.447165012359619
aatp8
Rp9
.ccollections
OrderedDict
p0
((lp1
(lp2
S'state'
p3
aI0
aa(lp4
S'distance'
p5
aF83.4706916809082
aa(lp6
S'timestamp'
p7
aF7.447918891906738
aatp8
Rp9
.ccollections
OrderedDict
p0
((lp1
(lp2
S'state'
p3
aI0
aa(lp4
S'distance'
p5
aF83.4706916809082
aa(lp6
S'timestamp'
p7
aF7.456923007965088
aatp8
Rp9
.ccollections
OrderedDict
p0
((lp1
(lp2
S'state'
p3
aI0
aa(lp4
S'distance'
p5
aF83.4706916809082
aa(lp6
S'timestamp'
p7
aF7.467045068740845
aatp8
Rp9
.ccollections
OrderedDict
p0
((lp1
(lp2
S'state'
p3
aI0
aa(lp4
S'distance'
p5
aF83.4706916809082
aa(lp6
S'timestamp'
p7
aF7.477086067199707
aatp8
Rp9
.ccollections
OrderedDict
p0
((lp1
(lp2
S'state'
p3
aI0
aa(lp4
S'distance'
p5
aF83.4706916809082
aa(lp6
S'timestamp'
p7
aF7.477854013442993
aatp8
Rp9
.ccollections
OrderedDict
p0
((lp1
(lp2
S'state'
p3
aI0
aa(lp4
S'distance'
p5
aF83.4706916809082
aa(lp6
S'timestamp'
p7
aF7.478693962097168
aatp8
Rp9
.ccollections
OrderedDict
p0
((lp1
(lp2
S'state'
p3
aI0
aa(lp4
S'distance'
p5
aF83.4706916809082
aa(lp6
S'timestamp'
p7
aF7.4787750244140625
aatp8
Rp9
.ccollections
OrderedDict
p0
((lp1
(lp2
S'state'
p3
aI0
aa(lp4
S'distance'
p5
aF83.4706916809082
aa(lp6
S'timestamp'
p7
aF7.487066030502319
aatp8
Rp9
.ccollections
OrderedDict
p0
((lp1
(lp2
S'state'
p3
aI0
aa(lp4
S'distance'
p5
aF83.4706916809082
aa(lp6
S'timestamp'
p7
aF7.48799991607666
aatp8
Rp9
.ccollections
OrderedDict
p0
((lp1
(lp2
S'state'
p3
aI0
aa(lp4
S'distance'
p5
aF83.4706916809082
aa(lp6
S'timestamp'
p7
aF7.497183084487915
aatp8
Rp9
.ccollections
OrderedDict
p0
((lp1
(lp2
S'state'
p3
aI0
aa(lp4
S'distance'
p5
aF83.4706916809082
aa(lp6
S'timestamp'
p7
aF7.497901916503906
aatp8
Rp9
.ccollections
OrderedDict
p0
((lp1
(lp2
S'state'
p3
aI0
aa(lp4
S'distance'
p5
aF83.4706916809082
aa(lp6
S'timestamp'
p7
aF7.507144927978516
aatp8
Rp9
.ccollections
OrderedDict
p0
((lp1
(lp2
S'state'
p3
aI0
aa(lp4
S'distance'
p5
aF83.4706916809082
aa(lp6
S'timestamp'
p7
aF7.507556915283203
aatp8
Rp9
.ccollections
OrderedDict
p0
((lp1
(lp2
S'state'
p3
aI0
aa(lp4
S'distance'
p5
aF83.4706916809082
aa(lp6
S'timestamp'
p7
aF7.527103900909424
aatp8
Rp9
.ccollections
OrderedDict
p0
((lp1
(lp2
S'state'
p3
aI0
aa(lp4
S'distance'
p5
aF83.4706916809082
aa(lp6
S'timestamp'
p7
aF7.537117958068848
aatp8
Rp9
.ccollections
OrderedDict
p0
((lp1
(lp2
S'state'
p3
aI0
aa(lp4
S'distance'
p5
aF83.4706916809082
aa(lp6
S'timestamp'
p7
aF7.5382349491119385
aatp8
Rp9
.ccollections
OrderedDict
p0
((lp1
(lp2
S'state'
p3
aI0
aa(lp4
S'distance'
p5
aF83.4706916809082
aa(lp6
S'timestamp'
p7
aF7.538454055786133
aatp8
Rp9
.ccollections
OrderedDict
p0
((lp1
(lp2
S'state'
p3
aI0
aa(lp4
S'distance'
p5
aF83.4706916809082
aa(lp6
S'timestamp'
p7
aF7.538551092147827
aatp8
Rp9
.ccollections
OrderedDict
p0
((lp1
(lp2
S'state'
p3
aI0
aa(lp4
S'distance'
p5
aF83.4706916809082
aa(lp6
S'timestamp'
p7
aF7.547084093093872
aatp8
Rp9
.ccollections
OrderedDict
p0
((lp1
(lp2
S'state'
p3
aI0
aa(lp4
S'distance'
p5
aF83.4706916809082
aa(lp6
S'timestamp'
p7
aF7.547998905181885
aatp8
Rp9
.ccollections
OrderedDict
p0
((lp1
(lp2
S'state'
p3
aI0
aa(lp4
S'distance'
p5
aF83.4706916809082
aa(lp6
S'timestamp'
p7
aF7.548125982284546
aatp8
Rp9
.ccollections
OrderedDict
p0
((lp1
(lp2
S'state'
p3
aI0
aa(lp4
S'distance'
p5
aF83.4706916809082
aa(lp6
S'timestamp'
p7
aF7.557080984115601
aatp8
Rp9
.ccollections
OrderedDict
p0
((lp1
(lp2
S'state'
p3
aI0
aa(lp4
S'distance'
p5
aF83.4706916809082
aa(lp6
S'timestamp'
p7
aF7.557746887207031
aatp8
Rp9
.ccollections
OrderedDict
p0
((lp1
(lp2
S'state'
p3
aI0
aa(lp4
S'distance'
p5
aF83.4706916809082
aa(lp6
S'timestamp'
p7
aF7.567244052886963
aatp8
Rp9
.ccollections
OrderedDict
p0
((lp1
(lp2
S'state'
p3
aI0
aa(lp4
S'distance'
p5
aF83.4706916809082
aa(lp6
S'timestamp'
p7
aF7.568268060684204
aatp8
Rp9
.ccollections
OrderedDict
p0
((lp1
(lp2
S'state'
p3
aI0
aa(lp4
S'distance'
p5
aF83.4706916809082
aa(lp6
S'timestamp'
p7
aF7.576952934265137
aatp8
Rp9
.ccollections
OrderedDict
p0
((lp1
(lp2
S'state'
p3
aI0
aa(lp4
S'distance'
p5
aF83.4706916809082
aa(lp6
S'timestamp'
p7
aF7.577666997909546
aatp8
Rp9
.ccollections
OrderedDict
p0
((lp1
(lp2
S'state'
p3
aI0
aa(lp4
S'distance'
p5
aF83.4706916809082
aa(lp6
S'timestamp'
p7
aF7.607091903686523
aatp8
Rp9
.ccollections
OrderedDict
p0
((lp1
(lp2
S'state'
p3
aI0
aa(lp4
S'distance'
p5
aF83.4706916809082
aa(lp6
S'timestamp'
p7
aF7.608105897903442
aatp8
Rp9
.ccollections
OrderedDict
p0
((lp1
(lp2
S'state'
p3
aI0
aa(lp4
S'distance'
p5
aF83.4706916809082
aa(lp6
S'timestamp'
p7
aF7.6082329750061035
aatp8
Rp9
.ccollections
OrderedDict
p0
((lp1
(lp2
S'state'
p3
aI0
aa(lp4
S'distance'
p5
aF83.4706916809082
aa(lp6
S'timestamp'
p7
aF7.608561992645264
aatp8
Rp9
.ccollections
OrderedDict
p0
((lp1
(lp2
S'state'
p3
aI0
aa(lp4
S'distance'
p5
aF83.4706916809082
aa(lp6
S'timestamp'
p7
aF7.617187976837158
aatp8
Rp9
.ccollections
OrderedDict
p0
((lp1
(lp2
S'state'
p3
aI0
aa(lp4
S'distance'
p5
aF83.4706916809082
aa(lp6
S'timestamp'
p7
aF7.617487907409668
aatp8
Rp9
.ccollections
OrderedDict
p0
((lp1
(lp2
S'state'
p3
aI0
aa(lp4
S'distance'
p5
aF83.4706916809082
aa(lp6
S'timestamp'
p7
aF7.6182661056518555
aatp8
Rp9
.ccollections
OrderedDict
p0
((lp1
(lp2
S'state'
p3
aI0
aa(lp4
S'distance'
p5
aF83.4706916809082
aa(lp6
S'timestamp'
p7
aF7.618398904800415
aatp8
Rp9
.ccollections
OrderedDict
p0
((lp1
(lp2
S'state'
p3
aI0
aa(lp4
S'distance'
p5
aF83.4706916809082
aa(lp6
S'timestamp'
p7
aF7.627074956893921
aatp8
Rp9
.ccollections
OrderedDict
p0
((lp1
(lp2
S'state'
p3
aI0
aa(lp4
S'distance'
p5
aF83.4706916809082
aa(lp6
S'timestamp'
p7
aF7.627937078475952
aatp8
Rp9
.ccollections
OrderedDict
p0
((lp1
(lp2
S'state'
p3
aI0
aa(lp4
S'distance'
p5
aF83.4706916809082
aa(lp6
S'timestamp'
p7
aF7.637073040008545
aatp8
Rp9
.ccollections
OrderedDict
p0
((lp1
(lp2
S'state'
p3
aI0
aa(lp4
S'distance'
p5
aF83.4706916809082
aa(lp6
S'timestamp'
p7
aF7.638319969177246
aatp8
Rp9
.ccollections
OrderedDict
p0
((lp1
(lp2
S'state'
p3
aI0
aa(lp4
S'distance'
p5
aF83.4706916809082
aa(lp6
S'timestamp'
p7
aF7.6472508907318115
aatp8
Rp9
.ccollections
OrderedDict
p0
((lp1
(lp2
S'state'
p3
aI0
aa(lp4
S'distance'
p5
aF83.4706916809082
aa(lp6
S'timestamp'
p7
aF7.648294925689697
aatp8
Rp9
.ccollections
OrderedDict
p0
((lp1
(lp2
S'state'
p3
aI0
aa(lp4
S'distance'
p5
aF83.4706916809082
aa(lp6
S'timestamp'
p7
aF7.6772301197052
aatp8
Rp9
.ccollections
OrderedDict
p0
((lp1
(lp2
S'state'
p3
aI0
aa(lp4
S'distance'
p5
aF83.4706916809082
aa(lp6
S'timestamp'
p7
aF7.677416086196899
aatp8
Rp9
.ccollections
OrderedDict
p0
((lp1
(lp2
S'state'
p3
aI0
aa(lp4
S'distance'
p5
aF83.4706916809082
aa(lp6
S'timestamp'
p7
aF7.678437948226929
aatp8
Rp9
.ccollections
OrderedDict
p0
((lp1
(lp2
S'state'
p3
aI0
aa(lp4
S'distance'
p5
aF83.4706916809082
aa(lp6
S'timestamp'
p7
aF7.678599119186401
aatp8
Rp9
.ccollections
OrderedDict
p0
((lp1
(lp2
S'state'
p3
aI0
aa(lp4
S'distance'
p5
aF83.4706916809082
aa(lp6
S'timestamp'
p7
aF7.689537048339844
aatp8
Rp9
.ccollections
OrderedDict
p0
((lp1
(lp2
S'state'
p3
aI0
aa(lp4
S'distance'
p5
aF83.4706916809082
aa(lp6
S'timestamp'
p7
aF7.689903974533081
aatp8
Rp9
.ccollections
OrderedDict
p0
((lp1
(lp2
S'state'
p3
aI0
aa(lp4
S'distance'
p5
aF83.4706916809082
aa(lp6
S'timestamp'
p7
aF7.690087080001831
aatp8
Rp9
.ccollections
OrderedDict
p0
((lp1
(lp2
S'state'
p3
aI0
aa(lp4
S'distance'
p5
aF83.4706916809082
aa(lp6
S'timestamp'
p7
aF7.690295934677124
aatp8
Rp9
.ccollections
OrderedDict
p0
((lp1
(lp2
S'state'
p3
aI0
aa(lp4
S'distance'
p5
aF83.4706916809082
aa(lp6
S'timestamp'
p7
aF7.6976540088653564
aatp8
Rp9
.ccollections
OrderedDict
p0
((lp1
(lp2
S'state'
p3
aI0
aa(lp4
S'distance'
p5
aF83.4706916809082
aa(lp6
S'timestamp'
p7
aF7.698163986206055
aatp8
Rp9
.ccollections
OrderedDict
p0
((lp1
(lp2
S'state'
p3
aI0
aa(lp4
S'distance'
p5
aF83.4706916809082
aa(lp6
S'timestamp'
p7
aF7.707256078720093
aatp8
Rp9
.ccollections
OrderedDict
p0
((lp1
(lp2
S'state'
p3
aI0
aa(lp4
S'distance'
p5
aF83.4706916809082
aa(lp6
S'timestamp'
p7
aF7.708133935928345
aatp8
Rp9
.ccollections
OrderedDict
p0
((lp1
(lp2
S'state'
p3
aI0
aa(lp4
S'distance'
p5
aF83.4706916809082
aa(lp6
S'timestamp'
p7
aF7.717307090759277
aatp8
Rp9
.ccollections
OrderedDict
p0
((lp1
(lp2
S'state'
p3
aI0
aa(lp4
S'distance'
p5
aF83.4706916809082
aa(lp6
S'timestamp'
p7
aF7.717962980270386
aatp8
Rp9
.ccollections
OrderedDict
p0
((lp1
(lp2
S'state'
p3
aI0
aa(lp4
S'distance'
p5
aF83.4706916809082
aa(lp6
S'timestamp'
p7
aF7.7371909618377686
aatp8
Rp9
.ccollections
OrderedDict
p0
((lp1
(lp2
S'state'
p3
aI0
aa(lp4
S'distance'
p5
aF83.4706916809082
aa(lp6
S'timestamp'
p7
aF7.737675905227661
aatp8
Rp9
.ccollections
OrderedDict
p0
((lp1
(lp2
S'state'
p3
aI0
aa(lp4
S'distance'
p5
aF83.4706916809082
aa(lp6
S'timestamp'
p7
aF7.738703966140747
aatp8
Rp9
.ccollections
OrderedDict
p0
((lp1
(lp2
S'state'
p3
aI0
aa(lp4
S'distance'
p5
aF83.4706916809082
aa(lp6
S'timestamp'
p7
aF7.7394890785217285
aatp8
Rp9
.ccollections
OrderedDict
p0
((lp1
(lp2
S'state'
p3
aI0
aa(lp4
S'distance'
p5
aF83.4706916809082
aa(lp6
S'timestamp'
p7
aF7.756962060928345
aatp8
Rp9
.ccollections
OrderedDict
p0
((lp1
(lp2
S'state'
p3
aI0
aa(lp4
S'distance'
p5
aF83.4706916809082
aa(lp6
S'timestamp'
p7
aF7.759299993515015
aatp8
Rp9
.ccollections
OrderedDict
p0
((lp1
(lp2
S'state'
p3
aI0
aa(lp4
S'distance'
p5
aF83.4706916809082
aa(lp6
S'timestamp'
p7
aF7.759471893310547
aatp8
Rp9
.ccollections
OrderedDict
p0
((lp1
(lp2
S'state'
p3
aI0
aa(lp4
S'distance'
p5
aF83.4706916809082
aa(lp6
S'timestamp'
p7
aF7.759968042373657
aatp8
Rp9
.ccollections
OrderedDict
p0
((lp1
(lp2
S'state'
p3
aI0
aa(lp4
S'distance'
p5
aF83.4706916809082
aa(lp6
S'timestamp'
p7
aF7.777529001235962
aatp8
Rp9
.ccollections
OrderedDict
p0
((lp1
(lp2
S'state'
p3
aI0
aa(lp4
S'distance'
p5
aF83.4706916809082
aa(lp6
S'timestamp'
p7
aF7.778196096420288
aatp8
Rp9
.ccollections
OrderedDict
p0
((lp1
(lp2
S'state'
p3
aI0
aa(lp4
S'distance'
p5
aF83.4706916809082
aa(lp6
S'timestamp'
p7
aF7.778512001037598
aatp8
Rp9
.ccollections
OrderedDict
p0
((lp1
(lp2
S'state'
p3
aI0
aa(lp4
S'distance'
p5
aF83.4706916809082
aa(lp6
S'timestamp'
p7
aF7.780119895935059
aatp8
Rp9
.ccollections
OrderedDict
p0
((lp1
(lp2
S'state'
p3
aI0
aa(lp4
S'distance'
p5
aF83.4706916809082
aa(lp6
S'timestamp'
p7
aF7.79842209815979
aatp8
Rp9
.ccollections
OrderedDict
p0
((lp1
(lp2
S'state'
p3
aI0
aa(lp4
S'distance'
p5
aF83.4706916809082
aa(lp6
S'timestamp'
p7
aF7.799021005630493
aatp8
Rp9
.ccollections
OrderedDict
p0
((lp1
(lp2
S'state'
p3
aI0
aa(lp4
S'distance'
p5
aF83.4706916809082
aa(lp6
S'timestamp'
p7
aF7.799462080001831
aatp8
Rp9
.ccollections
OrderedDict
p0
((lp1
(lp2
S'state'
p3
aI0
aa(lp4
S'distance'
p5
aF83.4706916809082
aa(lp6
S'timestamp'
p7
aF7.79959511756897
aatp8
Rp9
.ccollections
OrderedDict
p0
((lp1
(lp2
S'state'
p3
aI0
aa(lp4
S'distance'
p5
aF83.4706916809082
aa(lp6
S'timestamp'
p7
aF7.808582067489624
aatp8
Rp9
.ccollections
OrderedDict
p0
((lp1
(lp2
S'state'
p3
aI0
aa(lp4
S'distance'
p5
aF83.4706916809082
aa(lp6
S'timestamp'
p7
aF7.808856964111328
aatp8
Rp9
.ccollections
OrderedDict
p0
((lp1
(lp2
S'state'
p3
aI0
aa(lp4
S'distance'
p5
aF83.4706916809082
aa(lp6
S'timestamp'
p7
aF7.818470001220703
aatp8
Rp9
.ccollections
OrderedDict
p0
((lp1
(lp2
S'state'
p3
aI0
aa(lp4
S'distance'
p5
aF83.4706916809082
aa(lp6
S'timestamp'
p7
aF7.818559885025024
aatp8
Rp9
.ccollections
OrderedDict
p0
((lp1
(lp2
S'state'
p3
aI0
aa(lp4
S'distance'
p5
aF83.4706916809082
aa(lp6
S'timestamp'
p7
aF7.8328869342803955
aatp8
Rp9
.ccollections
OrderedDict
p0
((lp1
(lp2
S'state'
p3
aI0
aa(lp4
S'distance'
p5
aF83.4706916809082
aa(lp6
S'timestamp'
p7
aF7.833991050720215
aatp8
Rp9
.ccollections
OrderedDict
p0
((lp1
(lp2
S'state'
p3
aI0
aa(lp4
S'distance'
p5
aF83.4706916809082
aa(lp6
S'timestamp'
p7
aF7.841110944747925
aatp8
Rp9
.ccollections
OrderedDict
p0
((lp1
(lp2
S'state'
p3
aI0
aa(lp4
S'distance'
p5
aF83.4706916809082
aa(lp6
S'timestamp'
p7
aF7.848078966140747
aatp8
Rp9
.ccollections
OrderedDict
p0
((lp1
(lp2
S'state'
p3
aI0
aa(lp4
S'distance'
p5
aF83.4706916809082
aa(lp6
S'timestamp'
p7
aF7.848807096481323
aatp8
Rp9
.ccollections
OrderedDict
p0
((lp1
(lp2
S'state'
p3
aI0
aa(lp4
S'distance'
p5
aF83.4706916809082
aa(lp6
S'timestamp'
p7
aF7.848896026611328
aatp8
Rp9
.ccollections
OrderedDict
p0
((lp1
(lp2
S'state'
p3
aI0
aa(lp4
S'distance'
p5
aF83.4706916809082
aa(lp6
S'timestamp'
p7
aF7.85774302482605
aatp8
Rp9
.ccollections
OrderedDict
p0
((lp1
(lp2
S'state'
p3
aI0
aa(lp4
S'distance'
p5
aF83.4706916809082
aa(lp6
S'timestamp'
p7
aF7.857947111129761
aatp8
Rp9
.ccollections
OrderedDict
p0
((lp1
(lp2
S'state'
p3
aI0
aa(lp4
S'distance'
p5
aF83.4706916809082
aa(lp6
S'timestamp'
p7
aF7.8679869174957275
aatp8
Rp9
.ccollections
OrderedDict
p0
((lp1
(lp2
S'state'
p3
aI0
aa(lp4
S'distance'
p5
aF83.4706916809082
aa(lp6
S'timestamp'
p7
aF7.868189096450806
aatp8
Rp9
.ccollections
OrderedDict
p0
((lp1
(lp2
S'state'
p3
aI0
aa(lp4
S'distance'
p5
aF83.4706916809082
aa(lp6
S'timestamp'
p7
aF7.877384901046753
aatp8
Rp9
.ccollections
OrderedDict
p0
((lp1
(lp2
S'state'
p3
aI0
aa(lp4
S'distance'
p5
aF83.4706916809082
aa(lp6
S'timestamp'
p7
aF7.877657890319824
aatp8
Rp9
.ccollections
OrderedDict
p0
((lp1
(lp2
S'state'
p3
aI0
aa(lp4
S'distance'
p5
aF83.4706916809082
aa(lp6
S'timestamp'
p7
aF7.887578964233398
aatp8
Rp9
.ccollections
OrderedDict
p0
((lp1
(lp2
S'state'
p3
aI0
aa(lp4
S'distance'
p5
aF83.4706916809082
aa(lp6
S'timestamp'
p7
aF7.8880510330200195
aatp8
Rp9
.ccollections
OrderedDict
p0
((lp1
(lp2
S'state'
p3
aI0
aa(lp4
S'distance'
p5
aF83.4706916809082
aa(lp6
S'timestamp'
p7
aF7.8978331089019775
aatp8
Rp9
.ccollections
OrderedDict
p0
((lp1
(lp2
S'state'
p3
aI0
aa(lp4
S'distance'
p5
aF83.4706916809082
aa(lp6
S'timestamp'
p7
aF7.898030042648315
aatp8
Rp9
.ccollections
OrderedDict
p0
((lp1
(lp2
S'state'
p3
aI0
aa(lp4
S'distance'
p5
aF83.4706916809082
aa(lp6
S'timestamp'
p7
aF7.907803058624268
aatp8
Rp9
.ccollections
OrderedDict
p0
((lp1
(lp2
S'state'
p3
aI0
aa(lp4
S'distance'
p5
aF83.4706916809082
aa(lp6
S'timestamp'
p7
aF7.907933950424194
aatp8
Rp9
.ccollections
OrderedDict
p0
((lp1
(lp2
S'state'
p3
aI0
aa(lp4
S'distance'
p5
aF83.4706916809082
aa(lp6
S'timestamp'
p7
aF7.917428970336914
aatp8
Rp9
.ccollections
OrderedDict
p0
((lp1
(lp2
S'state'
p3
aI0
aa(lp4
S'distance'
p5
aF83.4706916809082
aa(lp6
S'timestamp'
p7
aF7.91826605796814
aatp8
Rp9
.ccollections
OrderedDict
p0
((lp1
(lp2
S'state'
p3
aI0
aa(lp4
S'distance'
p5
aF83.4706916809082
aa(lp6
S'timestamp'
p7
aF7.929017066955566
aatp8
Rp9
.ccollections
OrderedDict
p0
((lp1
(lp2
S'state'
p3
aI0
aa(lp4
S'distance'
p5
aF83.4706916809082
aa(lp6
S'timestamp'
p7
aF7.929429054260254
aatp8
Rp9
.ccollections
OrderedDict
p0
((lp1
(lp2
S'state'
p3
aI0
aa(lp4
S'distance'
p5
aF83.4706916809082
aa(lp6
S'timestamp'
p7
aF7.9373459815979
aatp8
Rp9
.ccollections
OrderedDict
p0
((lp1
(lp2
S'state'
p3
aI0
aa(lp4
S'distance'
p5
aF83.4706916809082
aa(lp6
S'timestamp'
p7
aF7.937623977661133
aatp8
Rp9
.ccollections
OrderedDict
p0
((lp1
(lp2
S'state'
p3
aI0
aa(lp4
S'distance'
p5
aF83.4706916809082
aa(lp6
S'timestamp'
p7
aF7.947779893875122
aatp8
Rp9
.ccollections
OrderedDict
p0
((lp1
(lp2
S'state'
p3
aI0
aa(lp4
S'distance'
p5
aF83.4706916809082
aa(lp6
S'timestamp'
p7
aF7.948345899581909
aatp8
Rp9
.ccollections
OrderedDict
p0
((lp1
(lp2
S'state'
p3
aI0
aa(lp4
S'distance'
p5
aF83.4706916809082
aa(lp6
S'timestamp'
p7
aF7.9581239223480225
aatp8
Rp9
.ccollections
OrderedDict
p0
((lp1
(lp2
S'state'
p3
aI0
aa(lp4
S'distance'
p5
aF83.4706916809082
aa(lp6
S'timestamp'
p7
aF7.958275079727173
aatp8
Rp9
.ccollections
OrderedDict
p0
((lp1
(lp2
S'state'
p3
aI0
aa(lp4
S'distance'
p5
aF83.4706916809082
aa(lp6
S'timestamp'
p7
aF7.967452049255371
aatp8
Rp9
.ccollections
OrderedDict
p0
((lp1
(lp2
S'state'
p3
aI0
aa(lp4
S'distance'
p5
aF83.4706916809082
aa(lp6
S'timestamp'
p7
aF7.968364953994751
aatp8
Rp9
.ccollections
OrderedDict
p0
((lp1
(lp2
S'state'
p3
aI0
aa(lp4
S'distance'
p5
aF83.4706916809082
aa(lp6
S'timestamp'
p7
aF7.978137969970703
aatp8
Rp9
.ccollections
OrderedDict
p0
((lp1
(lp2
S'state'
p3
aI0
aa(lp4
S'distance'
p5
aF83.4706916809082
aa(lp6
S'timestamp'
p7
aF7.978718996047974
aatp8
Rp9
.ccollections
OrderedDict
p0
((lp1
(lp2
S'state'
p3
aI0
aa(lp4
S'distance'
p5
aF83.4706916809082
aa(lp6
S'timestamp'
p7
aF7.987684965133667
aatp8
Rp9
.ccollections
OrderedDict
p0
((lp1
(lp2
S'state'
p3
aI0
aa(lp4
S'distance'
p5
aF83.4706916809082
aa(lp6
S'timestamp'
p7
aF7.989061117172241
aatp8
Rp9
.ccollections
OrderedDict
p0
((lp1
(lp2
S'state'
p3
aI0
aa(lp4
S'distance'
p5
aF83.4706916809082
aa(lp6
S'timestamp'
p7
aF7.997929096221924
aatp8
Rp9
.ccollections
OrderedDict
p0
((lp1
(lp2
S'state'
p3
aI0
aa(lp4
S'distance'
p5
aF83.4706916809082
aa(lp6
S'timestamp'
p7
aF7.998011112213135
aatp8
Rp9
.ccollections
OrderedDict
p0
((lp1
(lp2
S'state'
p3
aI0
aa(lp4
S'distance'
p5
aF83.4706916809082
aa(lp6
S'timestamp'
p7
aF8.008807897567749
aatp8
Rp9
.ccollections
OrderedDict
p0
((lp1
(lp2
S'state'
p3
aI0
aa(lp4
S'distance'
p5
aF83.4706916809082
aa(lp6
S'timestamp'
p7
aF8.008946895599365
aatp8
Rp9
.