ccollections
OrderedDict
p0
((lp1
(lp2
S'state'
p3
aI0
aa(lp4
S'distance'
p5
aF379.9085464477539
aa(lp6
S'timestamp'
p7
aF0.0053348541259765625
aatp8
Rp9
.ccollections
OrderedDict
p0
((lp1
(lp2
S'state'
p3
aI0
aa(lp4
S'distance'
p5
aF379.9085464477539
aa(lp6
S'timestamp'
p7
aF0.005955934524536133
aatp8
Rp9
.ccollections
OrderedDict
p0
((lp1
(lp2
S'state'
p3
aI0
aa(lp4
S'distance'
p5
aF379.9085464477539
aa(lp6
S'timestamp'
p7
aF0.006543874740600586
aatp8
Rp9
.ccollections
OrderedDict
p0
((lp1
(lp2
S'state'
p3
aI0
aa(lp4
S'distance'
p5
aF379.9085464477539
aa(lp6
S'timestamp'
p7
aF0.007364034652709961
aatp8
Rp9
.ccollections
OrderedDict
p0
((lp1
(lp2
S'state'
p3
aI0
aa(lp4
S'distance'
p5
aF379.9085464477539
aa(lp6
S'timestamp'
p7
aF0.014935016632080078
aatp8
Rp9
.ccollections
OrderedDict
p0
((lp1
(lp2
S'state'
p3
aI0
aa(lp4
S'distance'
p5
aF379.9085464477539
aa(lp6
S'timestamp'
p7
aF0.024100065231323242
aatp8
Rp9
.ccollections
OrderedDict
p0
((lp1
(lp2
S'state'
p3
aI0
aa(lp4
S'distance'
p5
aF379.9085464477539
aa(lp6
S'timestamp'
p7
aF0.02676701545715332
aatp8
Rp9
.ccollections
OrderedDict
p0
((lp1
(lp2
S'state'
p3
aI0
aa(lp4
S'distance'
p5
aF379.9085464477539
aa(lp6
S'timestamp'
p7
aF0.027152061462402344
aatp8
Rp9
.ccollections
OrderedDict
p0
((lp1
(lp2
S'state'
p3
aI0
aa(lp4
S'distance'
p5
aF379.9085464477539
aa(lp6
S'timestamp'
p7
aF0.03850603103637695
aatp8
Rp9
.ccollections
OrderedDict
p0
((lp1
(lp2
S'state'
p3
aI0
aa(lp4
S'distance'
p5
aF379.9085464477539
aa(lp6
S'timestamp'
p7
aF0.04111003875732422
aatp8
Rp9
.ccollections
OrderedDict
p0
((lp1
(lp2
S'state'
p3
aI0
aa(lp4
S'distance'
p5
aF379.9085464477539
aa(lp6
S'timestamp'
p7
aF0.0451960563659668
aatp8
Rp9
.ccollections
OrderedDict
p0
((lp1
(lp2
S'state'
p3
aI0
aa(lp4
S'distance'
p5
aF379.9085464477539
aa(lp6
S'timestamp'
p7
aF0.04602694511413574
aatp8
Rp9
.ccollections
OrderedDict
p0
((lp1
(lp2
S'state'
p3
aI0
aa(lp4
S'distance'
p5
aF379.9085464477539
aa(lp6
S'timestamp'
p7
aF0.05492997169494629
aatp8
Rp9
.ccollections
OrderedDict
p0
((lp1
(lp2
S'state'
p3
aI0
aa(lp4
S'distance'
p5
aF379.9085464477539
aa(lp6
S'timestamp'
p7
aF0.05674600601196289
aatp8
Rp9
.ccollections
OrderedDict
p0
((lp1
(lp2
S'state'
p3
aI0
aa(lp4
S'distance'
p5
aF379.9085464477539
aa(lp6
S'timestamp'
p7
aF0.0650479793548584
aatp8
Rp9
.ccollections
OrderedDict
p0
((lp1
(lp2
S'state'
p3
aI0
aa(lp4
S'distance'
p5
aF379.9085464477539
aa(lp6
S'timestamp'
p7
aF0.07517695426940918
aatp8
Rp9
.ccollections
OrderedDict
p0
((lp1
(lp2
S'state'
p3
aI0
aa(lp4
S'distance'
p5
aF379.9085464477539
aa(lp6
S'timestamp'
p7
aF0.07544589042663574
aatp8
Rp9
.ccollections
OrderedDict
p0
((lp1
(lp2
S'state'
p3
aI0
aa(lp4
S'distance'
p5
aF379.9085464477539
aa(lp6
S'timestamp'
p7
aF0.07683300971984863
aatp8
Rp9
.ccollections
OrderedDict
p0
((lp1
(lp2
S'state'
p3
aI0
aa(lp4
S'distance'
p5
aF379.9085464477539
aa(lp6
S'timestamp'
p7
aF0.08511590957641602
aatp8
Rp9
.ccollections
OrderedDict
p0
((lp1
(lp2
S'state'
p3
aI0
aa(lp4
S'distance'
p5
aF379.9085464477539
aa(lp6
S'timestamp'
p7
aF0.08610296249389648
aatp8
Rp9
.ccollections
OrderedDict
p0
((lp1
(lp2
S'state'
p3
aI0
aa(lp4
S'distance'
p5
aF379.9085464477539
aa(lp6
S'timestamp'
p7
aF0.09535002708435059
aatp8
Rp9
.ccollections
OrderedDict
p0
((lp1
(lp2
S'state'
p3
aI0
aa(lp4
S'distance'
p5
aF379.9085464477539
aa(lp6
S'timestamp'
p7
aF0.09606790542602539
aatp8
Rp9
.ccollections
OrderedDict
p0
((lp1
(lp2
S'state'
p3
aI0
aa(lp4
S'distance'
p5
aF379.9085464477539
aa(lp6
S'timestamp'
p7
aF0.10557889938354492
aatp8
Rp9
.ccollections
OrderedDict
p0
((lp1
(lp2
S'state'
p3
aI0
aa(lp4
S'distance'
p5
aF379.9085464477539
aa(lp6
S'timestamp'
p7
aF0.10580086708068848
aatp8
Rp9
.ccollections
OrderedDict
p0
((lp1
(lp2
S'state'
p3
aI0
aa(lp4
S'distance'
p5
aF379.9085464477539
aa(lp6
S'timestamp'
p7
aF0.11567401885986328
aatp8
Rp9
.ccollections
OrderedDict
p0
((lp1
(lp2
S'state'
p3
aI0
aa(lp4
S'distance'
p5
aF379.9085464477539
aa(lp6
S'timestamp'
p7
aF0.11605286598205566
aatp8
Rp9
.ccollections
OrderedDict
p0
((lp1
(lp2
S'state'
p3
aI0
aa(lp4
S'distance'
p5
aF379.9085464477539
aa(lp6
S'timestamp'
p7
aF0.1259300708770752
aatp8
Rp9
.ccollections
OrderedDict
p0
((lp1
(lp2
S'state'
p3
aI0
aa(lp4
S'distance'
p5
aF379.9085464477539
aa(lp6
S'timestamp'
p7
aF0.12600207328796387
aatp8
Rp9
.ccollections
OrderedDict
p0
((lp1
(lp2
S'state'
p3
aI0
aa(lp4
S'distance'
p5
aF379.9085464477539
aa(lp6
S'timestamp'
p7
aF0.13510489463806152
aatp8
Rp9
.ccollections
OrderedDict
p0
((lp1
(lp2
S'state'
p3
aI0
aa(lp4
S'distance'
p5
aF379.9085464477539
aa(lp6
S'timestamp'
p7
aF0.1363508701324463
aatp8
Rp9
.ccollections
OrderedDict
p0
((lp1
(lp2
S'state'
p3
aI0
aa(lp4
S'distance'
p5
aF379.9085464477539
aa(lp6
S'timestamp'
p7
aF0.1460859775543213
aatp8
Rp9
.ccollections
OrderedDict
p0
((lp1
(lp2
S'state'
p3
aI0
aa(lp4
S'distance'
p5
aF379.9085464477539
aa(lp6
S'timestamp'
p7
aF0.14638996124267578
aatp8
Rp9
.ccollections
OrderedDict
p0
((lp1
(lp2
S'state'
p3
aI0
aa(lp4
S'distance'
p5
aF379.9085464477539
aa(lp6
S'timestamp'
p7
aF0.1553020477294922
aatp8
Rp9
.ccollections
OrderedDict
p0
((lp1
(lp2
S'state'
p3
aI0
aa(lp4
S'distance'
p5
aF379.9085464477539
aa(lp6
S'timestamp'
p7
aF0.15551304817199707
aatp8
Rp9
.ccollections
OrderedDict
p0
((lp1
(lp2
S'state'
p3
aI0
aa(lp4
S'distance'
p5
aF379.9085464477539
aa(lp6
S'timestamp'
p7
aF0.16601204872131348
aatp8
Rp9
.ccollections
OrderedDict
p0
((lp1
(lp2
S'state'
p3
aI0
aa(lp4
S'distance'
p5
aF379.9085464477539
aa(lp6
S'timestamp'
p7
aF0.1660900115966797
aatp8
Rp9
.ccollections
OrderedDict
p0
((lp1
(lp2
S'state'
p3
aI0
aa(lp4
S'distance'
p5
aF379.9085464477539
aa(lp6
S'timestamp'
p7
aF0.17590594291687012
aatp8
Rp9
.ccollections
OrderedDict
p0
((lp1
(lp2
S'state'
p3
aI0
aa(lp4
S'distance'
p5
aF379.9085464477539
aa(lp6
S'timestamp'
p7
aF0.17612004280090332
aatp8
Rp9
.ccollections
OrderedDict
p0
((lp1
(lp2
S'state'
p3
aI0
aa(lp4
S'distance'
p5
aF379.9085464477539
aa(lp6
S'timestamp'
p7
aF0.18507599830627441
aatp8
Rp9
.ccollections
OrderedDict
p0
((lp1
(lp2
S'state'
p3
aI0
aa(lp4
S'distance'
p5
aF379.9085464477539
aa(lp6
S'timestamp'
p7
aF0.18620586395263672
aatp8
Rp9
.ccollections
OrderedDict
p0
((lp1
(lp2
S'state'
p3
aI0
aa(lp4
S'distance'
p5
aF379.9085464477539
aa(lp6
S'timestamp'
p7
aF0.19579005241394043
aatp8
Rp9
.ccollections
OrderedDict
p0
((lp1
(lp2
S'state'
p3
aI0
aa(lp4
S'distance'
p5
aF379.9085464477539
aa(lp6
S'timestamp'
p7
aF0.19586896896362305
aatp8
Rp9
.ccollections
OrderedDict
p0
((lp1
(lp2
S'state'
p3
aI0
aa(lp4
S'distance'
p5
aF379.9085464477539
aa(lp6
S'timestamp'
p7
aF0.205765962600708
aatp8
Rp9
.ccollections
OrderedDict
p0
((lp1
(lp2
S'state'
p3
aI0
aa(lp4
S'distance'
p5
aF379.9085464477539
aa(lp6
S'timestamp'
p7
aF0.20585203170776367
aatp8
Rp9
.ccollections
OrderedDict
p0
((lp1
(lp2
S'state'
p3
aI0
aa(lp4
S'distance'
p5
aF379.9085464477539
aa(lp6
S'timestamp'
p7
aF0.21516203880310059
aatp8
Rp9
.ccollections
OrderedDict
p0
((lp1
(lp2
S'state'
p3
aI0
aa(lp4
S'distance'
p5
aF379.9085464477539
aa(lp6
S'timestamp'
p7
aF0.2157578468322754
aatp8
Rp9
.ccollections
OrderedDict
p0
((lp1
(lp2
S'state'
p3
aI0
aa(lp4
S'distance'
p5
aF379.9085464477539
aa(lp6
S'timestamp'
p7
aF0.22519588470458984
aatp8
Rp9
.ccollections
OrderedDict
p0
((lp1
(lp2
S'state'
p3
aI0
aa(lp4
S'distance'
p5
aF379.9085464477539
aa(lp6
S'timestamp'
p7
aF0.22557806968688965
aatp8
Rp9
.ccollections
OrderedDict
p0
((lp1
(lp2
S'state'
p3
aI0
aa(lp4
S'distance'
p5
aF379.9085464477539
aa(lp6
S'timestamp'
p7
aF0.23575496673583984
aatp8
Rp9
.ccollections
OrderedDict
p0
((lp1
(lp2
S'state'
p3
aI0
aa(lp4
S'distance'
p5
aF379.9085464477539
aa(lp6
S'timestamp'
p7
aF0.236253023147583
aatp8
Rp9
.ccollections
OrderedDict
p0
((lp1
(lp2
S'state'
p3
aI0
aa(lp4
S'distance'
p5
aF379.9085464477539
aa(lp6
S'timestamp'
p7
aF0.24573588371276855
aatp8
Rp9
.ccollections
OrderedDict
p0
((lp1
(lp2
S'state'
p3
aI0
aa(lp4
S'distance'
p5
aF379.9085464477539
aa(lp6
S'timestamp'
p7
aF0.24598002433776855
aatp8
Rp9
.ccollections
OrderedDict
p0
((lp1
(lp2
S'state'
p3
aI0
aa(lp4
S'distance'
p5
aF379.9085464477539
aa(lp6
S'timestamp'
p7
aF0.25515294075012207
aatp8
Rp9
.ccollections
OrderedDict
p0
((lp1
(lp2
S'state'
p3
aI0
aa(lp4
S'distance'
p5
aF379.9085464477539
aa(lp6
S'timestamp'
p7
aF0.25586390495300293
aatp8
Rp9
.ccollections
OrderedDict
p0
((lp1
(lp2
S'state'
p3
aI0
aa(lp4
S'distance'
p5
aF379.9085464477539
aa(lp6
S'timestamp'
p7
aF0.26523900032043457
aatp8
Rp9
.ccollections
OrderedDict
p0
((lp1
(lp2
S'state'
p3
aI0
aa(lp4
S'distance'
p5
aF379.9085464477539
aa(lp6
S'timestamp'
p7
aF0.2653310298919678
aatp8
Rp9
.ccollections
OrderedDict
p0
((lp1
(lp2
S'state'
p3
aI0
aa(lp4
S'distance'
p5
aF379.9085464477539
aa(lp6
S'timestamp'
p7
aF0.2751619815826416
aatp8
Rp9
.ccollections
OrderedDict
p0
((lp1
(lp2
S'state'
p3
aI0
aa(lp4
S'distance'
p5
aF379.9085464477539
aa(lp6
S'timestamp'
p7
aF0.27614307403564453
aatp8
Rp9
.ccollections
OrderedDict
p0
((lp1
(lp2
S'state'
p3
aI0
aa(lp4
S'distance'
p5
aF379.9085464477539
aa(lp6
S'timestamp'
p7
aF0.2852170467376709
aatp8
Rp9
.ccollections
OrderedDict
p0
((lp1
(lp2
S'state'
p3
aI0
aa(lp4
S'distance'
p5
aF379.9085464477539
aa(lp6
S'timestamp'
p7
aF0.28543996810913086
aatp8
Rp9
.ccollections
OrderedDict
p0
((lp1
(lp2
S'state'
p3
aI0
aa(lp4
S'distance'
p5
aF379.9085464477539
aa(lp6
S'timestamp'
p7
aF0.29517292976379395
aatp8
Rp9
.ccollections
OrderedDict
p0
((lp1
(lp2
S'state'
p3
aI0
aa(lp4
S'distance'
p5
aF379.9085464477539
aa(lp6
S'timestamp'
p7
aF0.29596400260925293
aatp8
Rp9
.ccollections
OrderedDict
p0
((lp1
(lp2
S'state'
p3
aI0
aa(lp4
S'distance'
p5
aF379.9085464477539
aa(lp6
S'timestamp'
p7
aF0.3152890205383301
aatp8
Rp9
.ccollections
OrderedDict
p0
((lp1
(lp2
S'state'
p3
aI0
aa(lp4
S'distance'
p5
aF379.9085464477539
aa(lp6
S'timestamp'
p7
aF0.3161158561706543
aatp8
Rp9
.ccollections
OrderedDict
p0
((lp1
(lp2
S'state'
p3
aI0
aa(lp4
S'distance'
p5
aF379.9085464477539
aa(lp6
S'timestamp'
p7
aF0.31766295433044434
aatp8
Rp9
.ccollections
OrderedDict
p0
((lp1
(lp2
S'state'
p3
aI0
aa(lp4
S'distance'
p5
aF379.9085464477539
aa(lp6
S'timestamp'
p7
aF0.3187229633331299
aatp8
Rp9
.ccollections
OrderedDict
p0
((lp1
(lp2
S'state'
p3
aI0
aa(lp4
S'distance'
p5
aF379.9085464477539
aa(lp6
S'timestamp'
p7
aF0.3252089023590088
aatp8
Rp9
.ccollections
OrderedDict
p0
((lp1
(lp2
S'state'
p3
aI0
aa(lp4
S'distance'
p5
aF379.9085464477539
aa(lp6
S'timestamp'
p7
aF0.3258650302886963
aatp8
Rp9
.ccollections
OrderedDict
p0
((lp1
(lp2
S'state'
p3
aI0
aa(lp4
S'distance'
p5
aF379.9085464477539
aa(lp6
S'timestamp'
p7
aF0.33511900901794434
aatp8
Rp9
.ccollections
OrderedDict
p0
((lp1
(lp2
S'state'
p3
aI0
aa(lp4
S'distance'
p5
aF379.9085464477539
aa(lp6
S'timestamp'
p7
aF0.33573484420776367
aatp8
Rp9
.ccollections
OrderedDict
p0
((lp1
(lp2
S'state'
p3
aI0
aa(lp4
S'distance'
p5
aF379.9085464477539
aa(lp6
S'timestamp'
p7
aF0.3453998565673828
aatp8
Rp9
.ccollections
OrderedDict
p0
((lp1
(lp2
S'state'
p3
aI0
aa(lp4
S'distance'
p5
aF379.9085464477539
aa(lp6
S'timestamp'
p7
aF0.346142053604126
aatp8
Rp9
.ccollections
OrderedDict
p0
((lp1
(lp2
S'state'
p3
aI0
aa(lp4
S'distance'
p5
aF379.9085464477539
aa(lp6
S'timestamp'
p7
aF0.3556630611419678
aatp8
Rp9
.ccollections
OrderedDict
p0
((lp1
(lp2
S'state'
p3
aI0
aa(lp4
S'distance'
p5
aF379.9085464477539
aa(lp6
S'timestamp'
p7
aF0.3557450771331787
aatp8
Rp9
.ccollections
OrderedDict
p0
((lp1
(lp2
S'state'
p3
aI0
aa(lp4
S'distance'
p5
aF379.9085464477539
aa(lp6
S'timestamp'
p7
aF0.36521387100219727
aatp8
Rp9
.ccollections
OrderedDict
p0
((lp1
(lp2
S'state'
p3
aI0
aa(lp4
S'distance'
p5
aF379.9085464477539
aa(lp6
S'timestamp'
p7
aF0.3658289909362793
aatp8
Rp9
.ccollections
OrderedDict
p0
((lp1
(lp2
S'state'
p3
aI0
aa(lp4
S'distance'
p5
aF379.9085464477539
aa(lp6
S'timestamp'
p7
aF0.37604594230651855
aatp8
Rp9
.ccollections
OrderedDict
p0
((lp1
(lp2
S'state'
p3
aI0
aa(lp4
S'distance'
p5
aF379.9085464477539
aa(lp6
S'timestamp'
p7
aF0.37622904777526855
aatp8
Rp9
.ccollections
OrderedDict
p0
((lp1
(lp2
S'state'
p3
aI0
aa(lp4
S'distance'
p5
aF379.9085464477539
aa(lp6
S'timestamp'
p7
aF0.3857550621032715
aatp8
Rp9
.ccollections
OrderedDict
p0
((lp1
(lp2
S'state'
p3
aI0
aa(lp4
S'distance'
p5
aF379.9085464477539
aa(lp6
S'timestamp'
p7
aF0.38594484329223633
aatp8
Rp9
.ccollections
OrderedDict
p0
((lp1
(lp2
S'state'
p3
aI0
aa(lp4
S'distance'
p5
aF379.9085464477539
aa(lp6
S'timestamp'
p7
aF0.3957479000091553
aatp8
Rp9
.ccollections
OrderedDict
p0
((lp1
(lp2
S'state'
p3
aI0
aa(lp4
S'distance'
p5
aF379.9085464477539
aa(lp6
S'timestamp'
p7
aF0.3958308696746826
aatp8
Rp9
.ccollections
OrderedDict
p0
((lp1
(lp2
S'state'
p3
aI0
aa(lp4
S'distance'
p5
aF379.9085464477539
aa(lp6
S'timestamp'
p7
aF0.4059300422668457
aatp8
Rp9
.ccollections
OrderedDict
p0
((lp1
(lp2
S'state'
p3
aI0
aa(lp4
S'distance'
p5
aF379.9085464477539
aa(lp6
S'timestamp'
p7
aF0.40601086616516113
aatp8
Rp9
.ccollections
OrderedDict
p0
((lp1
(lp2
S'state'
p3
aI0
aa(lp4
S'distance'
p5
aF379.9085464477539
aa(lp6
S'timestamp'
p7
aF0.41596198081970215
aatp8
Rp9
.ccollections
OrderedDict
p0
((lp1
(lp2
S'state'
p3
aI0
aa(lp4
S'distance'
p5
aF379.9085464477539
aa(lp6
S'timestamp'
p7
aF0.4164559841156006
aatp8
Rp9
.ccollections
OrderedDict
p0
((lp1
(lp2
S'state'
p3
aI0
aa(lp4
S'distance'
p5
aF379.9085464477539
aa(lp6
S'timestamp'
p7
aF0.4252278804779053
aatp8
Rp9
.ccollections
OrderedDict
p0
((lp1
(lp2
S'state'
p3
aI0
aa(lp4
S'distance'
p5
aF379.9085464477539
aa(lp6
S'timestamp'
p7
aF0.42583203315734863
aatp8
Rp9
.ccollections
OrderedDict
p0
((lp1
(lp2
S'state'
p3
aI0
aa(lp4
S'distance'
p5
aF379.9085464477539
aa(lp6
S'timestamp'
p7
aF0.4351918697357178
aatp8
Rp9
.ccollections
OrderedDict
p0
((lp1
(lp2
S'state'
p3
aI0
aa(lp4
S'distance'
p5
aF379.9085464477539
aa(lp6
S'timestamp'
p7
aF0.4359419345855713
aatp8
Rp9
.ccollections
OrderedDict
p0
((lp1
(lp2
S'state'
p3
aI0
aa(lp4
S'distance'
p5
aF379.9085464477539
aa(lp6
S'timestamp'
p7
aF0.455549955368042
aatp8
Rp9
.ccollections
OrderedDict
p0
((lp1
(lp2
S'state'
p3
aI0
aa(lp4
S'distance'
p5
aF379.9085464477539
aa(lp6
S'timestamp'
p7
aF0.4557950496673584
aatp8
Rp9
.ccollections
OrderedDict
p0
((lp1
(lp2
S'state'
p3
aI0
aa(lp4
S'distance'
p5
aF379.9085464477539
aa(lp6
S'timestamp'
p7
aF0.4567070007324219
aatp8
Rp9
.ccollections
OrderedDict
p0
((lp1
(lp2
S'state'
p3
aI0
aa(lp4
S'distance'
p5
aF379.9085464477539
aa(lp6
S'timestamp'
p7
aF0.4575350284576416
aatp8
Rp9
.ccollections
OrderedDict
p0
((lp1
(lp2
S'state'
p3
aI0
aa(lp4
S'distance'
p5
aF379.9085464477539
aa(lp6
S'timestamp'
p7
aF0.46517086029052734
aatp8
Rp9
.ccollections
OrderedDict
p0
((lp1
(lp2
S'state'
p3
aI0
aa(lp4
S'distance'
p5
aF379.9085464477539
aa(lp6
S'timestamp'
p7
aF0.46596288681030273
aatp8
Rp9
.ccollections
OrderedDict
p0
((lp1
(lp2
S'state'
p3
aI0
aa(lp4
S'distance'
p5
aF379.9085464477539
aa(lp6
S'timestamp'
p7
aF0.47506189346313477
aatp8
Rp9
.ccollections
OrderedDict
p0
((lp1
(lp2
S'state'
p3
aI0
aa(lp4
S'distance'
p5
aF379.9085464477539
aa(lp6
S'timestamp'
p7
aF0.47583699226379395
aatp8
Rp9
.ccollections
OrderedDict
p0
((lp1
(lp2
S'state'
p3
aI0
aa(lp4
S'distance'
p5
aF379.9085464477539
aa(lp6
S'timestamp'
p7
aF0.48496103286743164
aatp8
Rp9
.ccollections
OrderedDict
p0
((lp1
(lp2
S'state'
p3
aI0
aa(lp4
S'distance'
p5
aF379.9085464477539
aa(lp6
S'timestamp'
p7
aF0.48572492599487305
aatp8
Rp9
.ccollections
OrderedDict
p0
((lp1
(lp2
S'state'
p3
aI0
aa(lp4
S'distance'
p5
aF379.9085464477539
aa(lp6
S'timestamp'
p7
aF0.4951660633087158
aatp8
Rp9
.ccollections
OrderedDict
p0
((lp1
(lp2
S'state'
p3
aI0
aa(lp4
S'distance'
p5
aF379.9085464477539
aa(lp6
S'timestamp'
p7
aF0.4965369701385498
aatp8
Rp9
.ccollections
OrderedDict
p0
((lp1
(lp2
S'state'
p3
aI0
aa(lp4
S'distance'
p5
aF379.9085464477539
aa(lp6
S'timestamp'
p7
aF0.5057358741760254
aatp8
Rp9
.ccollections
OrderedDict
p0
((lp1
(lp2
S'state'
p3
aI0
aa(lp4
S'distance'
p5
aF379.9085464477539
aa(lp6
S'timestamp'
p7
aF0.5058598518371582
aatp8
Rp9
.ccollections
OrderedDict
p0
((lp1
(lp2
S'state'
p3
aI0
aa(lp4
S'distance'
p5
aF379.9085464477539
aa(lp6
S'timestamp'
p7
aF0.5150320529937744
aatp8
Rp9
.ccollections
OrderedDict
p0
((lp1
(lp2
S'state'
p3
aI0
aa(lp4
S'distance'
p5
aF379.9085464477539
aa(lp6
S'timestamp'
p7
aF0.5160019397735596
aatp8
Rp9
.ccollections
OrderedDict
p0
((lp1
(lp2
S'state'
p3
aI0
aa(lp4
S'distance'
p5
aF379.9085464477539
aa(lp6
S'timestamp'
p7
aF0.5257589817047119
aatp8
Rp9
.ccollections
OrderedDict
p0
((lp1
(lp2
S'state'
p3
aI0
aa(lp4
S'distance'
p5
aF379.9085464477539
aa(lp6
S'timestamp'
p7
aF0.5260589122772217
aatp8
Rp9
.ccollections
OrderedDict
p0
((lp1
(lp2
S'state'
p3
aI0
aa(lp4
S'distance'
p5
aF379.9085464477539
aa(lp6
S'timestamp'
p7
aF0.5349738597869873
aatp8
Rp9
.ccollections
OrderedDict
p0
((lp1
(lp2
S'state'
p3
aI0
aa(lp4
S'distance'
p5
aF379.9085464477539
aa(lp6
S'timestamp'
p7
aF0.5452308654785156
aatp8
Rp9
.ccollections
OrderedDict
p0
((lp1
(lp2
S'state'
p3
aI0
aa(lp4
S'distance'
p5
aF379.9085464477539
aa(lp6
S'timestamp'
p7
aF0.5455548763275146
aatp8
Rp9
.ccollections
OrderedDict
p0
((lp1
(lp2
S'state'
p3
aI0
aa(lp4
S'distance'
p5
aF379.9085464477539
aa(lp6
S'timestamp'
p7
aF0.5462520122528076
aatp8
Rp9
.ccollections
OrderedDict
p0
((lp1
(lp2
S'state'
p3
aI0
aa(lp4
S'distance'
p5
aF379.9085464477539
aa(lp6
S'timestamp'
p7
aF0.5561089515686035
aatp8
Rp9
.ccollections
OrderedDict
p0
((lp1
(lp2
S'state'
p3
aI0
aa(lp4
S'distance'
p5
aF379.9085464477539
aa(lp6
S'timestamp'
p7
aF0.5562539100646973
aatp8
Rp9
.ccollections
OrderedDict
p0
((lp1
(lp2
S'state'
p3
aI0
aa(lp4
S'distance'
p5
aF379.9085464477539
aa(lp6
S'timestamp'
p7
aF0.5656740665435791
aatp8
Rp9
.ccollections
OrderedDict
p0
((lp1
(lp2
S'state'
p3
aI0
aa(lp4
S'distance'
p5
aF379.9085464477539
aa(lp6
S'timestamp'
p7
aF0.5658509731292725
aatp8
Rp9
.ccollections
OrderedDict
p0
((lp1
(lp2
S'state'
p3
aI0
aa(lp4
S'distance'
p5
aF379.9085464477539
aa(lp6
S'timestamp'
p7
aF0.5751988887786865
aatp8
Rp9
.ccollections
OrderedDict
p0
((lp1
(lp2
S'state'
p3
aI0
aa(lp4
S'distance'
p5
aF379.9085464477539
aa(lp6
S'timestamp'
p7
aF0.5757749080657959
aatp8
Rp9
.ccollections
OrderedDict
p0
((lp1
(lp2
S'state'
p3
aI0
aa(lp4
S'distance'
p5
aF379.9085464477539
aa(lp6
S'timestamp'
p7
aF0.5852220058441162
aatp8
Rp9
.ccollections
OrderedDict
p0
((lp1
(lp2
S'state'
p3
aI0
aa(lp4
S'distance'
p5
aF379.9085464477539
aa(lp6
S'timestamp'
p7
aF0.5857958793640137
aatp8
Rp9
.ccollections
OrderedDict
p0
((lp1
(lp2
S'state'
p3
aI0
aa(lp4
S'distance'
p5
aF379.9085464477539
aa(lp6
S'timestamp'
p7
aF0.5949759483337402
aatp8
Rp9
.ccollections
OrderedDict
p0
((lp1
(lp2
S'state'
p3
aI0
aa(lp4
S'distance'
p5
aF379.9085464477539
aa(lp6
S'timestamp'
p7
aF0.595911979675293
aatp8
Rp9
.ccollections
OrderedDict
p0
((lp1
(lp2
S'state'
p3
aI0
aa(lp4
S'distance'
p5
aF379.9085464477539
aa(lp6
S'timestamp'
p7
aF0.6052248477935791
aatp8
Rp9
.ccollections
OrderedDict
p0
((lp1
(lp2
S'state'
p3
aI0
aa(lp4
S'distance'
p5
aF379.9085464477539
aa(lp6
S'timestamp'
p7
aF0.6064450740814209
aatp8
Rp9
.ccollections
OrderedDict
p0
((lp1
(lp2
S'state'
p3
aI0
aa(lp4
S'distance'
p5
aF379.9085464477539
aa(lp6
S'timestamp'
p7
aF0.6164288520812988
aatp8
Rp9
.ccollections
OrderedDict
p0
((lp1
(lp2
S'state'
p3
aI0
aa(lp4
S'distance'
p5
aF379.9085464477539
aa(lp6
S'timestamp'
p7
aF0.617682933807373
aatp8
Rp9
.ccollections
OrderedDict
p0
((lp1
(lp2
S'state'
p3
aI0
aa(lp4
S'distance'
p5
aF379.9085464477539
aa(lp6
S'timestamp'
p7
aF0.625978946685791
aatp8
Rp9
.ccollections
OrderedDict
p0
((lp1
(lp2
S'state'
p3
aI0
aa(lp4
S'distance'
p5
aF379.9085464477539
aa(lp6
S'timestamp'
p7
aF0.6278910636901855
aatp8
Rp9
.ccollections
OrderedDict
p0
((lp1
(lp2
S'state'
p3
aI0
aa(lp4
S'distance'
p5
aF379.9085464477539
aa(lp6
S'timestamp'
p7
aF0.6361429691314697
aatp8
Rp9
.ccollections
OrderedDict
p0
((lp1
(lp2
S'state'
p3
aI0
aa(lp4
S'distance'
p5
aF379.9085464477539
aa(lp6
S'timestamp'
p7
aF0.6362979412078857
aatp8
Rp9
.ccollections
OrderedDict
p0
((lp1
(lp2
S'state'
p3
aI0
aa(lp4
S'distance'
p5
aF379.9085464477539
aa(lp6
S'timestamp'
p7
aF0.6451060771942139
aatp8
Rp9
.ccollections
OrderedDict
p0
((lp1
(lp2
S'state'
p3
aI0
aa(lp4
S'distance'
p5
aF379.9085464477539
aa(lp6
S'timestamp'
p7
aF0.6458508968353271
aatp8
Rp9
.ccollections
OrderedDict
p0
((lp1
(lp2
S'state'
p3
aI0
aa(lp4
S'distance'
p5
aF379.9085464477539
aa(lp6
S'timestamp'
p7
aF0.6551270484924316
aatp8
Rp9
.ccollections
OrderedDict
p0
((lp1
(lp2
S'state'
p3
aI0
aa(lp4
S'distance'
p5
aF379.9085464477539
aa(lp6
S'timestamp'
p7
aF0.6557619571685791
aatp8
Rp9
.ccollections
OrderedDict
p0
((lp1
(lp2
S'state'
p3
aI0
aa(lp4
S'distance'
p5
aF379.9085464477539
aa(lp6
S'timestamp'
p7
aF0.665125846862793
aatp8
Rp9
.ccollections
OrderedDict
p0
((lp1
(lp2
S'state'
p3
aI0
aa(lp4
S'distance'
p5
aF379.9085464477539
aa(lp6
S'timestamp'
p7
aF0.6662399768829346
aatp8
Rp9
.ccollections
OrderedDict
p0
((lp1
(lp2
S'state'
p3
aI0
aa(lp4
S'distance'
p5
aF379.9085464477539
aa(lp6
S'timestamp'
p7
aF0.6750540733337402
aatp8
Rp9
.ccollections
OrderedDict
p0
((lp1
(lp2
S'state'
p3
aI0
aa(lp4
S'distance'
p5
aF379.9085464477539
aa(lp6
S'timestamp'
p7
aF0.675731897354126
aatp8
Rp9
.ccollections
OrderedDict
p0
((lp1
(lp2
S'state'
p3
aI0
aa(lp4
S'distance'
p5
aF379.9085464477539
aa(lp6
S'timestamp'
p7
aF0.6851968765258789
aatp8
Rp9
.ccollections
OrderedDict
p0
((lp1
(lp2
S'state'
p3
aI0
aa(lp4
S'distance'
p5
aF379.9085464477539
aa(lp6
S'timestamp'
p7
aF0.6854100227355957
aatp8
Rp9
.ccollections
OrderedDict
p0
((lp1
(lp2
S'state'
p3
aI0
aa(lp4
S'distance'
p5
aF379.9085464477539
aa(lp6
S'timestamp'
p7
aF0.6950569152832031
aatp8
Rp9
.ccollections
OrderedDict
p0
((lp1
(lp2
S'state'
p3
aI0
aa(lp4
S'distance'
p5
aF379.9085464477539
aa(lp6
S'timestamp'
p7
aF0.695854902267456
aatp8
Rp9
.ccollections
OrderedDict
p0
((lp1
(lp2
S'state'
p3
aI0
aa(lp4
S'distance'
p5
aF379.9085464477539
aa(lp6
S'timestamp'
p7
aF0.7062389850616455
aatp8
Rp9
.ccollections
OrderedDict
p0
((lp1
(lp2
S'state'
p3
aI0
aa(lp4
S'distance'
p5
aF379.9085464477539
aa(lp6
S'timestamp'
p7
aF0.7063438892364502
aatp8
Rp9
.ccollections
OrderedDict
p0
((lp1
(lp2
S'state'
p3
aI0
aa(lp4
S'distance'
p5
aF379.9085464477539
aa(lp6
S'timestamp'
p7
aF0.7151200771331787
aatp8
Rp9
.ccollections
OrderedDict
p0
((lp1
(lp2
S'state'
p3
aI0
aa(lp4
S'distance'
p5
aF379.9085464477539
aa(lp6
S'timestamp'
p7
aF0.7154848575592041
aatp8
Rp9
.ccollections
OrderedDict
p0
((lp1
(lp2
S'state'
p3
aI0
aa(lp4
S'distance'
p5
aF379.9085464477539
aa(lp6
S'timestamp'
p7
aF0.7253198623657227
aatp8
Rp9
.ccollections
OrderedDict
p0
((lp1
(lp2
S'state'
p3
aI0
aa(lp4
S'distance'
p5
aF379.9085464477539
aa(lp6
S'timestamp'
p7
aF0.726050853729248
aatp8
Rp9
.ccollections
OrderedDict
p0
((lp1
(lp2
S'state'
p3
aI0
aa(lp4
S'distance'
p5
aF379.9085464477539
aa(lp6
S'timestamp'
p7
aF0.7357690334320068
aatp8
Rp9
.ccollections
OrderedDict
p0
((lp1
(lp2
S'state'
p3
aI0
aa(lp4
S'distance'
p5
aF379.9085464477539
aa(lp6
S'timestamp'
p7
aF0.7359468936920166
aatp8
Rp9
.ccollections
OrderedDict
p0
((lp1
(lp2
S'state'
p3
aI0
aa(lp4
S'distance'
p5
aF379.9085464477539
aa(lp6
S'timestamp'
p7
aF0.7458279132843018
aatp8
Rp9
.ccollections
OrderedDict
p0
((lp1
(lp2
S'state'
p3
aI0
aa(lp4
S'distance'
p5
aF379.9085464477539
aa(lp6
S'timestamp'
p7
aF0.7460858821868896
aatp8
Rp9
.ccollections
OrderedDict
p0
((lp1
(lp2
S'state'
p3
aI0
aa(lp4
S'distance'
p5
aF379.9085464477539
aa(lp6
S'timestamp'
p7
aF0.7550818920135498
aatp8
Rp9
.ccollections
OrderedDict
p0
((lp1
(lp2
S'state'
p3
aI0
aa(lp4
S'distance'
p5
aF379.9085464477539
aa(lp6
S'timestamp'
p7
aF0.7559459209442139
aatp8
Rp9
.ccollections
OrderedDict
p0
((lp1
(lp2
S'state'
p3
aI0
aa(lp4
S'distance'
p5
aF379.9085464477539
aa(lp6
S'timestamp'
p7
aF0.7752740383148193
aatp8
Rp9
.ccollections
OrderedDict
p0
((lp1
(lp2
S'state'
p3
aI0
aa(lp4
S'distance'
p5
aF379.9085464477539
aa(lp6
S'timestamp'
p7
aF0.7754168510437012
aatp8
Rp9
.ccollections
OrderedDict
p0
((lp1
(lp2
S'state'
p3
aI0
aa(lp4
S'distance'
p5
aF379.9085464477539
aa(lp6
S'timestamp'
p7
aF0.7756688594818115
aatp8
Rp9
.ccollections
OrderedDict
p0
((lp1
(lp2
S'state'
p3
aI0
aa(lp4
S'distance'
p5
aF379.9085464477539
aa(lp6
S'timestamp'
p7
aF0.7763369083404541
aatp8
Rp9
.ccollections
OrderedDict
p0
((lp1
(lp2
S'state'
p3
aI0
aa(lp4
S'distance'
p5
aF379.9085464477539
aa(lp6
S'timestamp'
p7
aF0.7851269245147705
aatp8
Rp9
.ccollections
OrderedDict
p0
((lp1
(lp2
S'state'
p3
aI0
aa(lp4
S'distance'
p5
aF379.9085464477539
aa(lp6
S'timestamp'
p7
aF0.7863419055938721
aatp8
Rp9
.ccollections
OrderedDict
p0
((lp1
(lp2
S'state'
p3
aI0
aa(lp4
S'distance'
p5
aF379.9085464477539
aa(lp6
S'timestamp'
p7
aF0.8054859638214111
aatp8
Rp9
.ccollections
OrderedDict
p0
((lp1
(lp2
S'state'
p3
aI0
aa(lp4
S'distance'
p5
aF379.9085464477539
aa(lp6
S'timestamp'
p7
aF0.8061070442199707
aatp8
Rp9
.ccollections
OrderedDict
p0
((lp1
(lp2
S'state'
p3
aI0
aa(lp4
S'distance'
p5
aF379.9085464477539
aa(lp6
S'timestamp'
p7
aF0.8074338436126709
aatp8
Rp9
.ccollections
OrderedDict
p0
((lp1
(lp2
S'state'
p3
aI0
aa(lp4
S'distance'
p5
aF379.9085464477539
aa(lp6
S'timestamp'
p7
aF0.8083920478820801
aatp8
Rp9
.ccollections
OrderedDict
p0
((lp1
(lp2
S'state'
p3
aI0
aa(lp4
S'distance'
p5
aF379.9085464477539
aa(lp6
S'timestamp'
p7
aF0.8251409530639648
aatp8
Rp9
.ccollections
OrderedDict
p0
((lp1
(lp2
S'state'
p3
aI0
aa(lp4
S'distance'
p5
aF379.9085464477539
aa(lp6
S'timestamp'
p7
aF0.8262689113616943
aatp8
Rp9
.ccollections
OrderedDict
p0
((lp1
(lp2
S'state'
p3
aI0
aa(lp4
S'distance'
p5
aF379.9085464477539
aa(lp6
S'timestamp'
p7
aF0.8263459205627441
aatp8
Rp9
.ccollections
OrderedDict
p0
((lp1
(lp2
S'state'
p3
aI0
aa(lp4
S'distance'
p5
aF379.9085464477539
aa(lp6
S'timestamp'
p7
aF0.8264129161834717
aatp8
Rp9
.ccollections
OrderedDict
p0
((lp1
(lp2
S'state'
p3
aI0
aa(lp4
S'distance'
p5
aF379.9085464477539
aa(lp6
S'timestamp'
p7
aF0.8358869552612305
aatp8
Rp9
.ccollections
OrderedDict
p0
((lp1
(lp2
S'state'
p3
aI0
aa(lp4
S'distance'
p5
aF379.9085464477539
aa(lp6
S'timestamp'
p7
aF0.8360500335693359
aatp8
Rp9
.ccollections
OrderedDict
p0
((lp1
(lp2
S'state'
p3
aI0
aa(lp4
S'distance'
p5
aF379.9085464477539
aa(lp6
S'timestamp'
p7
aF0.8458418846130371
aatp8
Rp9
.ccollections
OrderedDict
p0
((lp1
(lp2
S'state'
p3
aI0
aa(lp4
S'distance'
p5
aF379.9085464477539
aa(lp6
S'timestamp'
p7
aF0.8462600708007812
aatp8
Rp9
.ccollections
OrderedDict
p0
((lp1
(lp2
S'state'
p3
aI0
aa(lp4
S'distance'
p5
aF379.9085464477539
aa(lp6
S'timestamp'
p7
aF0.8556950092315674
aatp8
Rp9
.ccollections
OrderedDict
p0
((lp1
(lp2
S'state'
p3
aI0
aa(lp4
S'distance'
p5
aF379.9085464477539
aa(lp6
S'timestamp'
p7
aF0.8563940525054932
aatp8
Rp9
.ccollections
OrderedDict
p0
((lp1
(lp2
S'state'
p3
aI0
aa(lp4
S'distance'
p5
aF379.9085464477539
aa(lp6
S'timestamp'
p7
aF0.8650319576263428
aatp8
Rp9
.ccollections
OrderedDict
p0
((lp1
(lp2
S'state'
p3
aI0
aa(lp4
S'distance'
p5
aF379.9085464477539
aa(lp6
S'timestamp'
p7
aF0.8658418655395508
aatp8
Rp9
.ccollections
OrderedDict
p0
((lp1
(lp2
S'state'
p3
aI0
aa(lp4
S'distance'
p5
aF379.9085464477539
aa(lp6
S'timestamp'
p7
aF0.8751919269561768
aatp8
Rp9
.ccollections
OrderedDict
p0
((lp1
(lp2
S'state'
p3
aI0
aa(lp4
S'distance'
p5
aF379.9085464477539
aa(lp6
S'timestamp'
p7
aF0.8764169216156006
aatp8
Rp9
.ccollections
OrderedDict
p0
((lp1
(lp2
S'state'
p3
aI0
aa(lp4
S'distance'
p5
aF379.9085464477539
aa(lp6
S'timestamp'
p7
aF0.8863089084625244
aatp8
Rp9
.ccollections
OrderedDict
p0
((lp1
(lp2
S'state'
p3
aI0
aa(lp4
S'distance'
p5
aF379.9085464477539
aa(lp6
S'timestamp'
p7
aF0.8866920471191406
aatp8
Rp9
.ccollections
OrderedDict
p0
((lp1
(lp2
S'state'
p3
aI0
aa(lp4
S'distance'
p5
aF379.9085464477539
aa(lp6
S'timestamp'
p7
aF0.8960468769073486
aatp8
Rp9
.ccollections
OrderedDict
p0
((lp1
(lp2
S'state'
p3
aI0
aa(lp4
S'distance'
p5
aF379.9085464477539
aa(lp6
S'timestamp'
p7
aF0.8966760635375977
aatp8
Rp9
.ccollections
OrderedDict
p0
((lp1
(lp2
S'state'
p3
aI0
aa(lp4
S'distance'
p5
aF379.9085464477539
aa(lp6
S'timestamp'
p7
aF0.9051449298858643
aatp8
Rp9
.ccollections
OrderedDict
p0
((lp1
(lp2
S'state'
p3
aI0
aa(lp4
S'distance'
p5
aF379.9085464477539
aa(lp6
S'timestamp'
p7
aF0.9151690006256104
aatp8
Rp9
.ccollections
OrderedDict
p0
((lp1
(lp2
S'state'
p3
aI0
aa(lp4
S'distance'
p5
aF379.9085464477539
aa(lp6
S'timestamp'
p7
aF0.9153330326080322
aatp8
Rp9
.ccollections
OrderedDict
p0
((lp1
(lp2
S'state'
p3
aI0
aa(lp4
S'distance'
p5
aF379.9085464477539
aa(lp6
S'timestamp'
p7
aF0.9159049987792969
aatp8
Rp9
.ccollections
OrderedDict
p0
((lp1
(lp2
S'state'
p3
aI0
aa(lp4
S'distance'
p5
aF379.9085464477539
aa(lp6
S'timestamp'
p7
aF0.9250829219818115
aatp8
Rp9
.ccollections
OrderedDict
p0
((lp1
(lp2
S'state'
p3
aI0
aa(lp4
S'distance'
p5
aF379.9085464477539
aa(lp6
S'timestamp'
p7
aF0.9258289337158203
aatp8
Rp9
.ccollections
OrderedDict
p0
((lp1
(lp2
S'state'
p3
aI0
aa(lp4
S'distance'
p5
aF379.9085464477539
aa(lp6
S'timestamp'
p7
aF0.9351620674133301
aatp8
Rp9
.ccollections
OrderedDict
p0
((lp1
(lp2
S'state'
p3
aI0
aa(lp4
S'distance'
p5
aF379.9085464477539
aa(lp6
S'timestamp'
p7
aF0.9357860088348389
aatp8
Rp9
.ccollections
OrderedDict
p0
((lp1
(lp2
S'state'
p3
aI0
aa(lp4
S'distance'
p5
aF379.9085464477539
aa(lp6
S'timestamp'
p7
aF0.9451749324798584
aatp8
Rp9
.ccollections
OrderedDict
p0
((lp1
(lp2
S'state'
p3
aI0
aa(lp4
S'distance'
p5
aF379.9085464477539
aa(lp6
S'timestamp'
p7
aF0.9460079669952393
aatp8
Rp9
.ccollections
OrderedDict
p0
((lp1
(lp2
S'state'
p3
aI0
aa(lp4
S'distance'
p5
aF379.9085464477539
aa(lp6
S'timestamp'
p7
aF0.9651288986206055
aatp8
Rp9
.ccollections
OrderedDict
p0
((lp1
(lp2
S'state'
p3
aI0
aa(lp4
S'distance'
p5
aF379.9085464477539
aa(lp6
S'timestamp'
p7
aF0.9662299156188965
aatp8
Rp9
.ccollections
OrderedDict
p0
((lp1
(lp2
S'state'
p3
aI0
aa(lp4
S'distance'
p5
aF379.9085464477539
aa(lp6
S'timestamp'
p7
aF0.9663870334625244
aatp8
Rp9
.ccollections
OrderedDict
p0
((lp1
(lp2
S'state'
p3
aI0
aa(lp4
S'distance'
p5
aF379.9085464477539
aa(lp6
S'timestamp'
p7
aF0.9665329456329346
aatp8
Rp9
.ccollections
OrderedDict
p0
((lp1
(lp2
S'state'
p3
aI0
aa(lp4
S'distance'
p5
aF379.9085464477539
aa(lp6
S'timestamp'
p7
aF0.9756529331207275
aatp8
Rp9
.ccollections
OrderedDict
p0
((lp1
(lp2
S'state'
p3
aI0
aa(lp4
S'distance'
p5
aF379.9085464477539
aa(lp6
S'timestamp'
p7
aF0.9758889675140381
aatp8
Rp9
.ccollections
OrderedDict
p0
((lp1
(lp2
S'state'
p3
aI0
aa(lp4
S'distance'
p5
aF379.9085464477539
aa(lp6
S'timestamp'
p7
aF0.9851279258728027
aatp8
Rp9
.ccollections
OrderedDict
p0
((lp1
(lp2
S'state'
p3
aI0
aa(lp4
S'distance'
p5
aF379.9085464477539
aa(lp6
S'timestamp'
p7
aF0.9854209423065186
aatp8
Rp9
.ccollections
OrderedDict
p0
((lp1
(lp2
S'state'
p3
aI0
aa(lp4
S'distance'
p5
aF379.9085464477539
aa(lp6
S'timestamp'
p7
aF0.9951410293579102
aatp8
Rp9
.ccollections
OrderedDict
p0
((lp1
(lp2
S'state'
p3
aI0
aa(lp4
S'distance'
p5
aF379.9085464477539
aa(lp6
S'timestamp'
p7
aF0.9963290691375732
aatp8
Rp9
.ccollections
OrderedDict
p0
((lp1
(lp2
S'state'
p3
aI0
aa(lp4
S'distance'
p5
aF379.9085464477539
aa(lp6
S'timestamp'
p7
aF1.0058009624481201
aatp8
Rp9
.ccollections
OrderedDict
p0
((lp1
(lp2
S'state'
p3
aI0
aa(lp4
S'distance'
p5
aF379.9085464477539
aa(lp6
S'timestamp'
p7
aF1.0059020519256592
aatp8
Rp9
.ccollections
OrderedDict
p0
((lp1
(lp2
S'state'
p3
aI0
aa(lp4
S'distance'
p5
aF379.9085464477539
aa(lp6
S'timestamp'
p7
aF1.0151679515838623
aatp8
Rp9
.ccollections
OrderedDict
p0
((lp1
(lp2
S'state'
p3
aI0
aa(lp4
S'distance'
p5
aF379.9085464477539
aa(lp6
S'timestamp'
p7
aF1.0156409740447998
aatp8
Rp9
.ccollections
OrderedDict
p0
((lp1
(lp2
S'state'
p3
aI0
aa(lp4
S'distance'
p5
aF379.9085464477539
aa(lp6
S'timestamp'
p7
aF1.0260469913482666
aatp8
Rp9
.ccollections
OrderedDict
p0
((lp1
(lp2
S'state'
p3
aI0
aa(lp4
S'distance'
p5
aF379.9085464477539
aa(lp6
S'timestamp'
p7
aF1.0262248516082764
aatp8
Rp9
.ccollections
OrderedDict
p0
((lp1
(lp2
S'state'
p3
aI0
aa(lp4
S'distance'
p5
aF379.9085464477539
aa(lp6
S'timestamp'
p7
aF1.0351479053497314
aatp8
Rp9
.ccollections
OrderedDict
p0
((lp1
(lp2
S'state'
p3
aI0
aa(lp4
S'distance'
p5
aF379.9085464477539
aa(lp6
S'timestamp'
p7
aF1.0359420776367188
aatp8
Rp9
.ccollections
OrderedDict
p0
((lp1
(lp2
S'state'
p3
aI0
aa(lp4
S'distance'
p5
aF379.9085464477539
aa(lp6
S'timestamp'
p7
aF1.0459539890289307
aatp8
Rp9
.ccollections
OrderedDict
p0
((lp1
(lp2
S'state'
p3
aI0
aa(lp4
S'distance'
p5
aF379.9085464477539
aa(lp6
S'timestamp'
p7
aF1.046294927597046
aatp8
Rp9
.ccollections
OrderedDict
p0
((lp1
(lp2
S'state'
p3
aI0
aa(lp4
S'distance'
p5
aF379.9085464477539
aa(lp6
S'timestamp'
p7
aF1.0547919273376465
aatp8
Rp9
.ccollections
OrderedDict
p0
((lp1
(lp2
S'state'
p3
aI0
aa(lp4
S'distance'
p5
aF379.9085464477539
aa(lp6
S'timestamp'
p7
aF1.0554618835449219
aatp8
Rp9
.ccollections
OrderedDict
p0
((lp1
(lp2
S'state'
p3
aI0
aa(lp4
S'distance'
p5
aF379.9085464477539
aa(lp6
S'timestamp'
p7
aF1.065553903579712
aatp8
Rp9
.ccollections
OrderedDict
p0
((lp1
(lp2
S'state'
p3
aI0
aa(lp4
S'distance'
p5
aF379.9085464477539
aa(lp6
S'timestamp'
p7
aF1.0658190250396729
aatp8
Rp9
.ccollections
OrderedDict
p0
((lp1
(lp2
S'state'
p3
aI0
aa(lp4
S'distance'
p5
aF379.9085464477539
aa(lp6
S'timestamp'
p7
aF1.0750939846038818
aatp8
Rp9
.ccollections
OrderedDict
p0
((lp1
(lp2
S'state'
p3
aI0
aa(lp4
S'distance'
p5
aF379.9085464477539
aa(lp6
S'timestamp'
p7
aF1.0757160186767578
aatp8
Rp9
.ccollections
OrderedDict
p0
((lp1
(lp2
S'state'
p3
aI0
aa(lp4
S'distance'
p5
aF379.9085464477539
aa(lp6
S'timestamp'
p7
aF1.0857548713684082
aatp8
Rp9
.ccollections
OrderedDict
p0
((lp1
(lp2
S'state'
p3
aI0
aa(lp4
S'distance'
p5
aF379.9085464477539
aa(lp6
S'timestamp'
p7
aF1.085892915725708
aatp8
Rp9
.ccollections
OrderedDict
p0
((lp1
(lp2
S'state'
p3
aI0
aa(lp4
S'distance'
p5
aF379.9085464477539
aa(lp6
S'timestamp'
p7
aF1.0949618816375732
aatp8
Rp9
.ccollections
OrderedDict
p0
((lp1
(lp2
S'state'
p3
aI0
aa(lp4
S'distance'
p5
aF379.9085464477539
aa(lp6
S'timestamp'
p7
aF1.0957748889923096
aatp8
Rp9
.ccollections
OrderedDict
p0
((lp1
(lp2
S'state'
p3
aI0
aa(lp4
S'distance'
p5
aF379.9085464477539
aa(lp6
S'timestamp'
p7
aF1.1059069633483887
aatp8
Rp9
.ccollections
OrderedDict
p0
((lp1
(lp2
S'state'
p3
aI0
aa(lp4
S'distance'
p5
aF379.9085464477539
aa(lp6
S'timestamp'
p7
aF1.106065034866333
aatp8
Rp9
.ccollections
OrderedDict
p0
((lp1
(lp2
S'state'
p3
aI0
aa(lp4
S'distance'
p5
aF379.9085464477539
aa(lp6
S'timestamp'
p7
aF1.1152410507202148
aatp8
Rp9
.ccollections
OrderedDict
p0
((lp1
(lp2
S'state'
p3
aI0
aa(lp4
S'distance'
p5
aF379.9085464477539
aa(lp6
S'timestamp'
p7
aF1.1156730651855469
aatp8
Rp9
.ccollections
OrderedDict
p0
((lp1
(lp2
S'state'
p3
aI0
aa(lp4
S'distance'
p5
aF379.9085464477539
aa(lp6
S'timestamp'
p7
aF1.125309944152832
aatp8
Rp9
.ccollections
OrderedDict
p0
((lp1
(lp2
S'state'
p3
aI0
aa(lp4
S'distance'
p5
aF379.9085464477539
aa(lp6
S'timestamp'
p7
aF1.1254990100860596
aatp8
Rp9
.ccollections
OrderedDict
p0
((lp1
(lp2
S'state'
p3
aI0
aa(lp4
S'distance'
p5
aF379.9085464477539
aa(lp6
S'timestamp'
p7
aF1.1350159645080566
aatp8
Rp9
.ccollections
OrderedDict
p0
((lp1
(lp2
S'state'
p3
aI0
aa(lp4
S'distance'
p5
aF379.9085464477539
aa(lp6
S'timestamp'
p7
aF1.1357970237731934
aatp8
Rp9
.ccollections
OrderedDict
p0
((lp1
(lp2
S'state'
p3
aI0
aa(lp4
S'distance'
p5
aF379.9085464477539
aa(lp6
S'timestamp'
p7
aF1.145909070968628
aatp8
Rp9
.ccollections
OrderedDict
p0
((lp1
(lp2
S'state'
p3
aI0
aa(lp4
S'distance'
p5
aF379.9085464477539
aa(lp6
S'timestamp'
p7
aF1.1465039253234863
aatp8
Rp9
.ccollections
OrderedDict
p0
((lp1
(lp2
S'state'
p3
aI0
aa(lp4
S'distance'
p5
aF379.9085464477539
aa(lp6
S'timestamp'
p7
aF1.1559209823608398
aatp8
Rp9
.ccollections
OrderedDict
p0
((lp1
(lp2
S'state'
p3
aI0
aa(lp4
S'distance'
p5
aF379.9085464477539
aa(lp6
S'timestamp'
p7
aF1.1560020446777344
aatp8
Rp9
.ccollections
OrderedDict
p0
((lp1
(lp2
S'state'
p3
aI0
aa(lp4
S'distance'
p5
aF379.9085464477539
aa(lp6
S'timestamp'
p7
aF1.1659090518951416
aatp8
Rp9
.ccollections
OrderedDict
p0
((lp1
(lp2
S'state'
p3
aI0
aa(lp4
S'distance'
p5
aF379.9085464477539
aa(lp6
S'timestamp'
p7
aF1.1662609577178955
aatp8
Rp9
.ccollections
OrderedDict
p0
((lp1
(lp2
S'state'
p3
aI0
aa(lp4
S'distance'
p5
aF379.9085464477539
aa(lp6
S'timestamp'
p7
aF1.2051279544830322
aatp8
Rp9
.ccollections
OrderedDict
p0
((lp1
(lp2
S'state'
p3
aI0
aa(lp4
S'distance'
p5
aF379.9085464477539
aa(lp6
S'timestamp'
p7
aF1.2060048580169678
aatp8
Rp9
.ccollections
OrderedDict
p0
((lp1
(lp2
S'state'
p3
aI0
aa(lp4
S'distance'
p5
aF379.9085464477539
aa(lp6
S'timestamp'
p7
aF1.2078149318695068
aatp8
Rp9
.ccollections
OrderedDict
p0
((lp1
(lp2
S'state'
p3
aI0
aa(lp4
S'distance'
p5
aF379.9085464477539
aa(lp6
S'timestamp'
p7
aF1.208629846572876
aatp8
Rp9
.ccollections
OrderedDict
p0
((lp1
(lp2
S'state'
p3
aI0
aa(lp4
S'distance'
p5
aF379.9085464477539
aa(lp6
S'timestamp'
p7
aF1.2226760387420654
aatp8
Rp9
.ccollections
OrderedDict
p0
((lp1
(lp2
S'state'
p3
aI0
aa(lp4
S'distance'
p5
aF379.9085464477539
aa(lp6
S'timestamp'
p7
aF1.2244930267333984
aatp8
Rp9
.ccollections
OrderedDict
p0
((lp1
(lp2
S'state'
p3
aI0
aa(lp4
S'distance'
p5
aF379.9085464477539
aa(lp6
S'timestamp'
p7
aF1.2249119281768799
aatp8
Rp9
.ccollections
OrderedDict
p0
((lp1
(lp2
S'state'
p3
aI0
aa(lp4
S'distance'
p5
aF379.9085464477539
aa(lp6
S'timestamp'
p7
aF1.2250950336456299
aatp8
Rp9
.ccollections
OrderedDict
p0
((lp1
(lp2
S'state'
p3
aI0
aa(lp4
S'distance'
p5
aF379.9085464477539
aa(lp6
S'timestamp'
p7
aF1.2259459495544434
aatp8
Rp9
.ccollections
OrderedDict
p0
((lp1
(lp2
S'state'
p3
aI0
aa(lp4
S'distance'
p5
aF379.9085464477539
aa(lp6
S'timestamp'
p7
aF1.2265849113464355
aatp8
Rp9
.ccollections
OrderedDict
p0
((lp1
(lp2
S'state'
p3
aI0
aa(lp4
S'distance'
p5
aF379.9085464477539
aa(lp6
S'timestamp'
p7
aF1.2277469635009766
aatp8
Rp9
.ccollections
OrderedDict
p0
((lp1
(lp2
S'state'
p3
aI0
aa(lp4
S'distance'
p5
aF379.9085464477539
aa(lp6
S'timestamp'
p7
aF1.228571891784668
aatp8
Rp9
.ccollections
OrderedDict
p0
((lp1
(lp2
S'state'
p3
aI0
aa(lp4
S'distance'
p5
aF379.9085464477539
aa(lp6
S'timestamp'
p7
aF1.236372947692871
aatp8
Rp9
.ccollections
OrderedDict
p0
((lp1
(lp2
S'state'
p3
aI0
aa(lp4
S'distance'
p5
aF379.9085464477539
aa(lp6
S'timestamp'
p7
aF1.2368988990783691
aatp8
Rp9
.ccollections
OrderedDict
p0
((lp1
(lp2
S'state'
p3
aI0
aa(lp4
S'distance'
p5
aF379.9085464477539
aa(lp6
S'timestamp'
p7
aF1.2456140518188477
aatp8
Rp9
.ccollections
OrderedDict
p0
((lp1
(lp2
S'state'
p3
aI0
aa(lp4
S'distance'
p5
aF379.9085464477539
aa(lp6
S'timestamp'
p7
aF1.2551820278167725
aatp8
Rp9
.ccollections
OrderedDict
p0
((lp1
(lp2
S'state'
p3
aI0
aa(lp4
S'distance'
p5
aF379.9085464477539
aa(lp6
S'timestamp'
p7
aF1.255511999130249
aatp8
Rp9
.ccollections
OrderedDict
p0
((lp1
(lp2
S'state'
p3
aI0
aa(lp4
S'distance'
p5
aF379.9085464477539
aa(lp6
S'timestamp'
p7
aF1.2560019493103027
aatp8
Rp9
.ccollections
OrderedDict
p0
((lp1
(lp2
S'state'
p3
aI0
aa(lp4
S'distance'
p5
aF379.9085464477539
aa(lp6
S'timestamp'
p7
aF1.2653419971466064
aatp8
Rp9
.ccollections
OrderedDict
p0
((lp1
(lp2
S'state'
p3
aI0
aa(lp4
S'distance'
p5
aF379.9085464477539
aa(lp6
S'timestamp'
p7
aF1.2660369873046875
aatp8
Rp9
.ccollections
OrderedDict
p0
((lp1
(lp2
S'state'
p3
aI0
aa(lp4
S'distance'
p5
aF379.9085464477539
aa(lp6
S'timestamp'
p7
aF1.2753539085388184
aatp8
Rp9
.ccollections
OrderedDict
p0
((lp1
(lp2
S'state'
p3
aI0
aa(lp4
S'distance'
p5
aF379.9085464477539
aa(lp6
S'timestamp'
p7
aF1.2851669788360596
aatp8
Rp9
.ccollections
OrderedDict
p0
((lp1
(lp2
S'state'
p3
aI0
aa(lp4
S'distance'
p5
aF379.9085464477539
aa(lp6
S'timestamp'
p7
aF1.2853288650512695
aatp8
Rp9
.ccollections
OrderedDict
p0
((lp1
(lp2
S'state'
p3
aI0
aa(lp4
S'distance'
p5
aF379.9085464477539
aa(lp6
S'timestamp'
p7
aF1.2859680652618408
aatp8
Rp9
.ccollections
OrderedDict
p0
((lp1
(lp2
S'state'
p3
aI0
aa(lp4
S'distance'
p5
aF379.9085464477539
aa(lp6
S'timestamp'
p7
aF1.3167519569396973
aatp8
Rp9
.ccollections
OrderedDict
p0
((lp1
(lp2
S'state'
p3
aI0
aa(lp4
S'distance'
p5
aF379.9085464477539
aa(lp6
S'timestamp'
p7
aF1.3168809413909912
aatp8
Rp9
.ccollections
OrderedDict
p0
((lp1
(lp2
S'state'
p3
aI0
aa(lp4
S'distance'
p5
aF379.9085464477539
aa(lp6
S'timestamp'
p7
aF1.3169710636138916
aatp8
Rp9
.ccollections
OrderedDict
p0
((lp1
(lp2
S'state'
p3
aI0
aa(lp4
S'distance'
p5
aF379.9085464477539
aa(lp6
S'timestamp'
p7
aF1.3170430660247803
aatp8
Rp9
.ccollections
OrderedDict
p0
((lp1
(lp2
S'state'
p3
aI0
aa(lp4
S'distance'
p5
aF379.9085464477539
aa(lp6
S'timestamp'
p7
aF1.3259730339050293
aatp8
Rp9
.ccollections
OrderedDict
p0
((lp1
(lp2
S'state'
p3
aI0
aa(lp4
S'distance'
p5
aF379.9085464477539
aa(lp6
S'timestamp'
p7
aF1.3264820575714111
aatp8
Rp9
.ccollections
OrderedDict
p0
((lp1
(lp2
S'state'
p3
aI0
aa(lp4
S'distance'
p5
aF379.9085464477539
aa(lp6
S'timestamp'
p7
aF1.326859951019287
aatp8
Rp9
.ccollections
OrderedDict
p0
((lp1
(lp2
S'state'
p3
aI0
aa(lp4
S'distance'
p5
aF379.9085464477539
aa(lp6
S'timestamp'
p7
aF1.327805995941162
aatp8
Rp9
.ccollections
OrderedDict
p0
((lp1
(lp2
S'state'
p3
aI0
aa(lp4
S'distance'
p5
aF379.9085464477539
aa(lp6
S'timestamp'
p7
aF1.3450648784637451
aatp8
Rp9
.ccollections
OrderedDict
p0
((lp1
(lp2
S'state'
p3
aI0
aa(lp4
S'distance'
p5
aF379.9085464477539
aa(lp6
S'timestamp'
p7
aF1.3464560508728027
aatp8
Rp9
.ccollections
OrderedDict
p0
((lp1
(lp2
S'state'
p3
aI0
aa(lp4
S'distance'
p5
aF379.9085464477539
aa(lp6
S'timestamp'
p7
aF1.3466570377349854
aatp8
Rp9
.ccollections
OrderedDict
p0
((lp1
(lp2
S'state'
p3
aI0
aa(lp4
S'distance'
p5
aF379.9085464477539
aa(lp6
S'timestamp'
p7
aF1.3467628955841064
aatp8
Rp9
.ccollections
OrderedDict
p0
((lp1
(lp2
S'state'
p3
aI0
aa(lp4
S'distance'
p5
aF379.9085464477539
aa(lp6
S'timestamp'
p7
aF1.35520601272583
aatp8
Rp9
.ccollections
OrderedDict
p0
((lp1
(lp2
S'state'
p3
aI0
aa(lp4
S'distance'
p5
aF379.9085464477539
aa(lp6
S'timestamp'
p7
aF1.355686902999878
aatp8
Rp9
.ccollections
OrderedDict
p0
((lp1
(lp2
S'state'
p3
aI0
aa(lp4
S'distance'
p5
aF379.9085464477539
aa(lp6
S'timestamp'
p7
aF1.37636399269104
aatp8
Rp9
.ccollections
OrderedDict
p0
((lp1
(lp2
S'state'
p3
aI0
aa(lp4
S'distance'
p5
aF379.9085464477539
aa(lp6
S'timestamp'
p7
aF1.3764469623565674
aatp8
Rp9
.ccollections
OrderedDict
p0
((lp1
(lp2
S'state'
p3
aI0
aa(lp4
S'distance'
p5
aF379.9085464477539
aa(lp6
S'timestamp'
p7
aF1.376518964767456
aatp8
Rp9
.ccollections
OrderedDict
p0
((lp1
(lp2
S'state'
p3
aI0
aa(lp4
S'distance'
p5
aF379.9085464477539
aa(lp6
S'timestamp'
p7
aF1.3765869140625
aatp8
Rp9
.ccollections
OrderedDict
p0
((lp1
(lp2
S'state'
p3
aI0
aa(lp4
S'distance'
p5
aF379.9085464477539
aa(lp6
S'timestamp'
p7
aF1.3952648639678955
aatp8
Rp9
.ccollections
OrderedDict
p0
((lp1
(lp2
S'state'
p3
aI0
aa(lp4
S'distance'
p5
aF379.9085464477539
aa(lp6
S'timestamp'
p7
aF1.3955600261688232
aatp8
Rp9
.ccollections
OrderedDict
p0
((lp1
(lp2
S'state'
p3
aI0
aa(lp4
S'distance'
p5
aF379.9085464477539
aa(lp6
S'timestamp'
p7
aF1.395946979522705
aatp8
Rp9
.ccollections
OrderedDict
p0
((lp1
(lp2
S'state'
p3
aI0
aa(lp4
S'distance'
p5
aF379.9085464477539
aa(lp6
S'timestamp'
p7
aF1.3965649604797363
aatp8
Rp9
.ccollections
OrderedDict
p0
((lp1
(lp2
S'state'
p3
aI0
aa(lp4
S'distance'
p5
aF379.9085464477539
aa(lp6
S'timestamp'
p7
aF1.4057488441467285
aatp8
Rp9
.ccollections
OrderedDict
p0
((lp1
(lp2
S'state'
p3
aI0
aa(lp4
S'distance'
p5
aF379.9085464477539
aa(lp6
S'timestamp'
p7
aF1.4058458805084229
aatp8
Rp9
.ccollections
OrderedDict
p0
((lp1
(lp2
S'state'
p3
aI0
aa(lp4
S'distance'
p5
aF379.9085464477539
aa(lp6
S'timestamp'
p7
aF1.425894021987915
aatp8
Rp9
.ccollections
OrderedDict
p0
((lp1
(lp2
S'state'
p3
aI0
aa(lp4
S'distance'
p5
aF379.9085464477539
aa(lp6
S'timestamp'
p7
aF1.4261059761047363
aatp8
Rp9
.ccollections
OrderedDict
p0
((lp1
(lp2
S'state'
p3
aI0
aa(lp4
S'distance'
p5
aF379.9085464477539
aa(lp6
S'timestamp'
p7
aF1.4270739555358887
aatp8
Rp9
.ccollections
OrderedDict
p0
((lp1
(lp2
S'state'
p3
aI0
aa(lp4
S'distance'
p5
aF379.9085464477539
aa(lp6
S'timestamp'
p7
aF1.4281508922576904
aatp8
Rp9
.ccollections
OrderedDict
p0
((lp1
(lp2
S'state'
p3
aI0
aa(lp4
S'distance'
p5
aF379.9085464477539
aa(lp6
S'timestamp'
p7
aF1.4348640441894531
aatp8
Rp9
.ccollections
OrderedDict
p0
((lp1
(lp2
S'state'
p3
aI0
aa(lp4
S'distance'
p5
aF379.9085464477539
aa(lp6
S'timestamp'
p7
aF1.4353258609771729
aatp8
Rp9
.ccollections
OrderedDict
p0
((lp1
(lp2
S'state'
p3
aI0
aa(lp4
S'distance'
p5
aF379.9085464477539
aa(lp6
S'timestamp'
p7
aF1.445483922958374
aatp8
Rp9
.ccollections
OrderedDict
p0
((lp1
(lp2
S'state'
p3
aI0
aa(lp4
S'distance'
p5
aF379.9085464477539
aa(lp6
S'timestamp'
p7
aF1.446187973022461
aatp8
Rp9
.ccollections
OrderedDict
p0
((lp1
(lp2
S'state'
p3
aI0
aa(lp4
S'distance'
p5
aF379.9085464477539
aa(lp6
S'timestamp'
p7
aF1.455291986465454
aatp8
Rp9
.ccollections
OrderedDict
p0
((lp1
(lp2
S'state'
p3
aI0
aa(lp4
S'distance'
p5
aF379.9085464477539
aa(lp6
S'timestamp'
p7
aF1.4560818672180176
aatp8
Rp9
.ccollections
OrderedDict
p0
((lp1
(lp2
S'state'
p3
aI0
aa(lp4
S'distance'
p5
aF379.9085464477539
aa(lp6
S'timestamp'
p7
aF1.4751958847045898
aatp8
Rp9
.ccollections
OrderedDict
p0
((lp1
(lp2
S'state'
p3
aI0
aa(lp4
S'distance'
p5
aF379.9085464477539
aa(lp6
S'timestamp'
p7
aF1.47645902633667
aatp8
Rp9
.ccollections
OrderedDict
p0
((lp1
(lp2
S'state'
p3
aI0
aa(lp4
S'distance'
p5
aF379.9085464477539
aa(lp6
S'timestamp'
p7
aF1.4769248962402344
aatp8
Rp9
.ccollections
OrderedDict
p0
((lp1
(lp2
S'state'
p3
aI0
aa(lp4
S'distance'
p5
aF379.9085464477539
aa(lp6
S'timestamp'
p7
aF1.4774410724639893
aatp8
Rp9
.ccollections
OrderedDict
p0
((lp1
(lp2
S'state'
p3
aI0
aa(lp4
S'distance'
p5
aF379.9085464477539
aa(lp6
S'timestamp'
p7
aF1.4853570461273193
aatp8
Rp9
.ccollections
OrderedDict
p0
((lp1
(lp2
S'state'
p3
aI0
aa(lp4
S'distance'
p5
aF379.9085464477539
aa(lp6
S'timestamp'
p7
aF1.4863560199737549
aatp8
Rp9
.ccollections
OrderedDict
p0
((lp1
(lp2
S'state'
p3
aI0
aa(lp4
S'distance'
p5
aF379.9085464477539
aa(lp6
S'timestamp'
p7
aF1.4961299896240234
aatp8
Rp9
.ccollections
OrderedDict
p0
((lp1
(lp2
S'state'
p3
aI0
aa(lp4
S'distance'
p5
aF379.9085464477539
aa(lp6
S'timestamp'
p7
aF1.496211051940918
aatp8
Rp9
.ccollections
OrderedDict
p0
((lp1
(lp2
S'state'
p3
aI0
aa(lp4
S'distance'
p5
aF379.9085464477539
aa(lp6
S'timestamp'
p7
aF1.5056729316711426
aatp8
Rp9
.ccollections
OrderedDict
p0
((lp1
(lp2
S'state'
p3
aI0
aa(lp4
S'distance'
p5
aF379.9085464477539
aa(lp6
S'timestamp'
p7
aF1.5060129165649414
aatp8
Rp9
.ccollections
OrderedDict
p0
((lp1
(lp2
S'state'
p3
aI0
aa(lp4
S'distance'
p5
aF379.9085464477539
aa(lp6
S'timestamp'
p7
aF1.5150818824768066
aatp8
Rp9
.ccollections
OrderedDict
p0
((lp1
(lp2
S'state'
p3
aI0
aa(lp4
S'distance'
p5
aF379.9085464477539
aa(lp6
S'timestamp'
p7
aF1.516118049621582
aatp8
Rp9
.ccollections
OrderedDict
p0
((lp1
(lp2
S'state'
p3
aI0
aa(lp4
S'distance'
p5
aF379.9085464477539
aa(lp6
S'timestamp'
p7
aF1.5256400108337402
aatp8
Rp9
.ccollections
OrderedDict
p0
((lp1
(lp2
S'state'
p3
aI0
aa(lp4
S'distance'
p5
aF379.9085464477539
aa(lp6
S'timestamp'
p7
aF1.5258078575134277
aatp8
Rp9
.ccollections
OrderedDict
p0
((lp1
(lp2
S'state'
p3
aI0
aa(lp4
S'distance'
p5
aF379.9085464477539
aa(lp6
S'timestamp'
p7
aF1.5353639125823975
aatp8
Rp9
.ccollections
OrderedDict
p0
((lp1
(lp2
S'state'
p3
aI0
aa(lp4
S'distance'
p5
aF379.9085464477539
aa(lp6
S'timestamp'
p7
aF1.5355288982391357
aatp8
Rp9
.ccollections
OrderedDict
p0
((lp1
(lp2
S'state'
p3
aI0
aa(lp4
S'distance'
p5
aF379.9085464477539
aa(lp6
S'timestamp'
p7
aF1.5452139377593994
aatp8
Rp9
.ccollections
OrderedDict
p0
((lp1
(lp2
S'state'
p3
aI0
aa(lp4
S'distance'
p5
aF379.9085464477539
aa(lp6
S'timestamp'
p7
aF1.5460388660430908
aatp8
Rp9
.ccollections
OrderedDict
p0
((lp1
(lp2
S'state'
p3
aI0
aa(lp4
S'distance'
p5
aF379.9085464477539
aa(lp6
S'timestamp'
p7
aF1.5553839206695557
aatp8
Rp9
.ccollections
OrderedDict
p0
((lp1
(lp2
S'state'
p3
aI0
aa(lp4
S'distance'
p5
aF379.9085464477539
aa(lp6
S'timestamp'
p7
aF1.5559120178222656
aatp8
Rp9
.ccollections
OrderedDict
p0
((lp1
(lp2
S'state'
p3
aI0
aa(lp4
S'distance'
p5
aF379.9085464477539
aa(lp6
S'timestamp'
p7
aF1.5659220218658447
aatp8
Rp9
.ccollections
OrderedDict
p0
((lp1
(lp2
S'state'
p3
aI0
aa(lp4
S'distance'
p5
aF379.9085464477539
aa(lp6
S'timestamp'
p7
aF1.5660450458526611
aatp8
Rp9
.ccollections
OrderedDict
p0
((lp1
(lp2
S'state'
p3
aI0
aa(lp4
S'distance'
p5
aF379.9085464477539
aa(lp6
S'timestamp'
p7
aF1.5758559703826904
aatp8
Rp9
.ccollections
OrderedDict
p0
((lp1
(lp2
S'state'
p3
aI0
aa(lp4
S'distance'
p5
aF379.9085464477539
aa(lp6
S'timestamp'
p7
aF1.5759320259094238
aatp8
Rp9
.ccollections
OrderedDict
p0
((lp1
(lp2
S'state'
p3
aI0
aa(lp4
S'distance'
p5
aF379.9085464477539
aa(lp6
S'timestamp'
p7
aF1.5855848789215088
aatp8
Rp9
.ccollections
OrderedDict
p0
((lp1
(lp2
S'state'
p3
aI0
aa(lp4
S'distance'
p5
aF379.9085464477539
aa(lp6
S'timestamp'
p7
aF1.5857670307159424
aatp8
Rp9
.ccollections
OrderedDict
p0
((lp1
(lp2
S'state'
p3
aI0
aa(lp4
S'distance'
p5
aF379.9085464477539
aa(lp6
S'timestamp'
p7
aF1.5951929092407227
aatp8
Rp9
.ccollections
OrderedDict
p0
((lp1
(lp2
S'state'
p3
aI0
aa(lp4
S'distance'
p5
aF379.9085464477539
aa(lp6
S'timestamp'
p7
aF1.5958280563354492
aatp8
Rp9
.ccollections
OrderedDict
p0
((lp1
(lp2
S'state'
p3
aI0
aa(lp4
S'distance'
p5
aF379.9085464477539
aa(lp6
S'timestamp'
p7
aF1.6059699058532715
aatp8
Rp9
.ccollections
OrderedDict
p0
((lp1
(lp2
S'state'
p3
aI0
aa(lp4
S'distance'
p5
aF379.9085464477539
aa(lp6
S'timestamp'
p7
aF1.6062109470367432
aatp8
Rp9
.ccollections
OrderedDict
p0
((lp1
(lp2
S'state'
p3
aI0
aa(lp4
S'distance'
p5
aF379.9085464477539
aa(lp6
S'timestamp'
p7
aF1.6150939464569092
aatp8
Rp9
.ccollections
OrderedDict
p0
((lp1
(lp2
S'state'
p3
aI0
aa(lp4
S'distance'
p5
aF379.9085464477539
aa(lp6
S'timestamp'
p7
aF1.615736961364746
aatp8
Rp9
.ccollections
OrderedDict
p0
((lp1
(lp2
S'state'
p3
aI0
aa(lp4
S'distance'
p5
aF379.9085464477539
aa(lp6
S'timestamp'
p7
aF1.6253979206085205
aatp8
Rp9
.ccollections
OrderedDict
p0
((lp1
(lp2
S'state'
p3
aI0
aa(lp4
S'distance'
p5
aF379.9085464477539
aa(lp6
S'timestamp'
p7
aF1.6255779266357422
aatp8
Rp9
.ccollections
OrderedDict
p0
((lp1
(lp2
S'state'
p3
aI0
aa(lp4
S'distance'
p5
aF379.9085464477539
aa(lp6
S'timestamp'
p7
aF1.645068883895874
aatp8
Rp9
.ccollections
OrderedDict
p0
((lp1
(lp2
S'state'
p3
aI0
aa(lp4
S'distance'
p5
aF379.9085464477539
aa(lp6
S'timestamp'
p7
aF1.6458179950714111
aatp8
Rp9
.ccollections
OrderedDict
p0
((lp1
(lp2
S'state'
p3
aI0
aa(lp4
S'distance'
p5
aF379.9085464477539
aa(lp6
S'timestamp'
p7
aF1.6473770141601562
aatp8
Rp9
.ccollections
OrderedDict
p0
((lp1
(lp2
S'state'
p3
aI0
aa(lp4
S'distance'
p5
aF379.9085464477539
aa(lp6
S'timestamp'
p7
aF1.6561858654022217
aatp8
Rp9
.ccollections
OrderedDict
p0
((lp1
(lp2
S'state'
p3
aI0
aa(lp4
S'distance'
p5
aF379.9085464477539
aa(lp6
S'timestamp'
p7
aF1.6562910079956055
aatp8
Rp9
.ccollections
OrderedDict
p0
((lp1
(lp2
S'state'
p3
aI0
aa(lp4
S'distance'
p5
aF379.9085464477539
aa(lp6
S'timestamp'
p7
aF1.6563880443572998
aatp8
Rp9
.ccollections
OrderedDict
p0
((lp1
(lp2
S'state'
p3
aI0
aa(lp4
S'distance'
p5
aF379.9085464477539
aa(lp6
S'timestamp'
p7
aF1.665273904800415
aatp8
Rp9
.ccollections
OrderedDict
p0
((lp1
(lp2
S'state'
p3
aI0
aa(lp4
S'distance'
p5
aF379.9085464477539
aa(lp6
S'timestamp'
p7
aF1.6654448509216309
aatp8
Rp9
.ccollections
OrderedDict
p0
((lp1
(lp2
S'state'
p3
aI0
aa(lp4
S'distance'
p5
aF379.9085464477539
aa(lp6
S'timestamp'
p7
aF1.675739049911499
aatp8
Rp9
.ccollections
OrderedDict
p0
((lp1
(lp2
S'state'
p3
aI0
aa(lp4
S'distance'
p5
aF379.9085464477539
aa(lp6
S'timestamp'
p7
aF1.6759488582611084
aatp8
Rp9
.ccollections
OrderedDict
p0
((lp1
(lp2
S'state'
p3
aI0
aa(lp4
S'distance'
p5
aF379.9085464477539
aa(lp6
S'timestamp'
p7
aF1.6858360767364502
aatp8
Rp9
.ccollections
OrderedDict
p0
((lp1
(lp2
S'state'
p3
aI0
aa(lp4
S'distance'
p5
aF379.9085464477539
aa(lp6
S'timestamp'
p7
aF1.6860458850860596
aatp8
Rp9
.ccollections
OrderedDict
p0
((lp1
(lp2
S'state'
p3
aI0
aa(lp4
S'distance'
p5
aF379.9085464477539
aa(lp6
S'timestamp'
p7
aF1.6950900554656982
aatp8
Rp9
.ccollections
OrderedDict
p0
((lp1
(lp2
S'state'
p3
aI0
aa(lp4
S'distance'
p5
aF379.9085464477539
aa(lp6
S'timestamp'
p7
aF1.6957578659057617
aatp8
Rp9
.ccollections
OrderedDict
p0
((lp1
(lp2
S'state'
p3
aI0
aa(lp4
S'distance'
p5
aF379.9085464477539
aa(lp6
S'timestamp'
p7
aF1.7151548862457275
aatp8
Rp9
.ccollections
OrderedDict
p0
((lp1
(lp2
S'state'
p3
aI0
aa(lp4
S'distance'
p5
aF379.9085464477539
aa(lp6
S'timestamp'
p7
aF1.7152819633483887
aatp8
Rp9
.ccollections
OrderedDict
p0
((lp1
(lp2
S'state'
p3
aI0
aa(lp4
S'distance'
p5
aF379.9085464477539
aa(lp6
S'timestamp'
p7
aF1.716054916381836
aatp8
Rp9
.ccollections
OrderedDict
p0
((lp1
(lp2
S'state'
p3
aI0
aa(lp4
S'distance'
p5
aF379.9085464477539
aa(lp6
S'timestamp'
p7
aF1.7162559032440186
aatp8
Rp9
.ccollections
OrderedDict
p0
((lp1
(lp2
S'state'
p3
aI0
aa(lp4
S'distance'
p5
aF379.9085464477539
aa(lp6
S'timestamp'
p7
aF1.725959062576294
aatp8
Rp9
.ccollections
OrderedDict
p0
((lp1
(lp2
S'state'
p3
aI0
aa(lp4
S'distance'
p5
aF379.9085464477539
aa(lp6
S'timestamp'
p7
aF1.726167917251587
aatp8
Rp9
.ccollections
OrderedDict
p0
((lp1
(lp2
S'state'
p3
aI0
aa(lp4
S'distance'
p5
aF379.9085464477539
aa(lp6
S'timestamp'
p7
aF1.7454099655151367
aatp8
Rp9
.ccollections
OrderedDict
p0
((lp1
(lp2
S'state'
p3
aI0
aa(lp4
S'distance'
p5
aF379.9085464477539
aa(lp6
S'timestamp'
p7
aF1.7460360527038574
aatp8
Rp9
.ccollections
OrderedDict
p0
((lp1
(lp2
S'state'
p3
aI0
aa(lp4
S'distance'
p5
aF379.9085464477539
aa(lp6
S'timestamp'
p7
aF1.7476890087127686
aatp8
Rp9
.ccollections
OrderedDict
p0
((lp1
(lp2
S'state'
p3
aI0
aa(lp4
S'distance'
p5
aF379.9085464477539
aa(lp6
S'timestamp'
p7
aF1.748694896697998
aatp8
Rp9
.ccollections
OrderedDict
p0
((lp1
(lp2
S'state'
p3
aI0
aa(lp4
S'distance'
p5
aF379.9085464477539
aa(lp6
S'timestamp'
p7
aF1.755220890045166
aatp8
Rp9
.ccollections
OrderedDict
p0
((lp1
(lp2
S'state'
p3
aI0
aa(lp4
S'distance'
p5
aF379.9085464477539
aa(lp6
S'timestamp'
p7
aF1.7566399574279785
aatp8
Rp9
.ccollections
OrderedDict
p0
((lp1
(lp2
S'state'
p3
aI400
aa(lp4
S'distance'
p5
aF379.9085464477539
aa(lp6
S'timestamp'
p7
aF1.7752430438995361
aatp8
Rp9
.ccollections
OrderedDict
p0
((lp1
(lp2
S'state'
p3
aI400
aa(lp4
S'distance'
p5
aF379.9085464477539
aa(lp6
S'timestamp'
p7
aF1.7761478424072266
aatp8
Rp9
.ccollections
OrderedDict
p0
((lp1
(lp2
S'state'
p3
aI400
aa(lp4
S'distance'
p5
aF379.9085464477539
aa(lp6
S'timestamp'
p7
aF1.7762689590454102
aatp8
Rp9
.ccollections
OrderedDict
p0
((lp1
(lp2
S'state'
p3
aI400
aa(lp4
S'distance'
p5
aF379.9085464477539
aa(lp6
S'timestamp'
p7
aF1.7767059803009033
aatp8
Rp9
.ccollections
OrderedDict
p0
((lp1
(lp2
S'state'
p3
aI400
aa(lp4
S'distance'
p5
aF379.9085464477539
aa(lp6
S'timestamp'
p7
aF1.787842035293579
aatp8
Rp9
.ccollections
OrderedDict
p0
((lp1
(lp2
S'state'
p3
aI400
aa(lp4
S'distance'
p5
aF379.9085464477539
aa(lp6
S'timestamp'
p7
aF1.7879369258880615
aatp8
Rp9
.ccollections
OrderedDict
p0
((lp1
(lp2
S'state'
p3
aI400
aa(lp4
S'distance'
p5
aF379.9085464477539
aa(lp6
S'timestamp'
p7
aF1.795301914215088
aatp8
Rp9
.ccollections
OrderedDict
p0
((lp1
(lp2
S'state'
p3
aI400
aa(lp4
S'distance'
p5
aF379.9085464477539
aa(lp6
S'timestamp'
p7
aF1.7955658435821533
aatp8
Rp9
.ccollections
OrderedDict
p0
((lp1
(lp2
S'state'
p3
aI400
aa(lp4
S'distance'
p5
aF379.9085464477539
aa(lp6
S'timestamp'
p7
aF1.8094840049743652
aatp8
Rp9
.ccollections
OrderedDict
p0
((lp1
(lp2
S'state'
p3
aI400
aa(lp4
S'distance'
p5
aF379.9085464477539
aa(lp6
S'timestamp'
p7
aF1.8097140789031982
aatp8
Rp9
.ccollections
OrderedDict
p0
((lp1
(lp2
S'state'
p3
aI400
aa(lp4
S'distance'
p5
aF379.9085464477539
aa(lp6
S'timestamp'
p7
aF1.8167269229888916
aatp8
Rp9
.ccollections
OrderedDict
p0
((lp1
(lp2
S'state'
p3
aI400
aa(lp4
S'distance'
p5
aF379.9085464477539
aa(lp6
S'timestamp'
p7
aF1.8171238899230957
aatp8
Rp9
.ccollections
OrderedDict
p0
((lp1
(lp2
S'state'
p3
aI400
aa(lp4
S'distance'
p5
aF379.9085464477539
aa(lp6
S'timestamp'
p7
aF1.8254649639129639
aatp8
Rp9
.ccollections
OrderedDict
p0
((lp1
(lp2
S'state'
p3
aI400
aa(lp4
S'distance'
p5
aF379.9085464477539
aa(lp6
S'timestamp'
p7
aF1.8265399932861328
aatp8
Rp9
.ccollections
OrderedDict
p0
((lp1
(lp2
S'state'
p3
aI400
aa(lp4
S'distance'
p5
aF379.9085464477539
aa(lp6
S'timestamp'
p7
aF1.8389880657196045
aatp8
Rp9
.ccollections
OrderedDict
p0
((lp1
(lp2
S'state'
p3
aI400
aa(lp4
S'distance'
p5
aF379.9085464477539
aa(lp6
S'timestamp'
p7
aF1.8393049240112305
aatp8
Rp9
.ccollections
OrderedDict
p0
((lp1
(lp2
S'state'
p3
aI400
aa(lp4
S'distance'
p5
aF379.9085464477539
aa(lp6
S'timestamp'
p7
aF1.8451428413391113
aatp8
Rp9
.ccollections
OrderedDict
p0
((lp1
(lp2
S'state'
p3
aI400
aa(lp4
S'distance'
p5
aF379.9085464477539
aa(lp6
S'timestamp'
p7
aF1.8471059799194336
aatp8
Rp9
.ccollections
OrderedDict
p0
((lp1
(lp2
S'state'
p3
aI400
aa(lp4
S'distance'
p5
aF379.9085464477539
aa(lp6
S'timestamp'
p7
aF1.8550670146942139
aatp8
Rp9
.ccollections
OrderedDict
p0
((lp1
(lp2
S'state'
p3
aI400
aa(lp4
S'distance'
p5
aF379.9085464477539
aa(lp6
S'timestamp'
p7
aF1.8572509288787842
aatp8
Rp9
.ccollections
OrderedDict
p0
((lp1
(lp2
S'state'
p3
aI400
aa(lp4
S'distance'
p5
aF379.9085464477539
aa(lp6
S'timestamp'
p7
aF1.8661959171295166
aatp8
Rp9
.ccollections
OrderedDict
p0
((lp1
(lp2
S'state'
p3
aI400
aa(lp4
S'distance'
p5
aF379.9085464477539
aa(lp6
S'timestamp'
p7
aF1.8676018714904785
aatp8
Rp9
.ccollections
OrderedDict
p0
((lp1
(lp2
S'state'
p3
aI400
aa(lp4
S'distance'
p5
aF379.9085464477539
aa(lp6
S'timestamp'
p7
aF1.8754780292510986
aatp8
Rp9
.ccollections
OrderedDict
p0
((lp1
(lp2
S'state'
p3
aI400
aa(lp4
S'distance'
p5
aF379.9085464477539
aa(lp6
S'timestamp'
p7
aF1.8757128715515137
aatp8
Rp9
.ccollections
OrderedDict
p0
((lp1
(lp2
S'state'
p3
aI400
aa(lp4
S'distance'
p5
aF379.9085464477539
aa(lp6
S'timestamp'
p7
aF1.885058879852295
aatp8
Rp9
.ccollections
OrderedDict
p0
((lp1
(lp2
S'state'
p3
aI400
aa(lp4
S'distance'
p5
aF379.9085464477539
aa(lp6
S'timestamp'
p7
aF1.8871760368347168
aatp8
Rp9
.ccollections
OrderedDict
p0
((lp1
(lp2
S'state'
p3
aI400
aa(lp4
S'distance'
p5
aF379.9085464477539
aa(lp6
S'timestamp'
p7
aF1.8952200412750244
aatp8
Rp9
.ccollections
OrderedDict
p0
((lp1
(lp2
S'state'
p3
aI400
aa(lp4
S'distance'
p5
aF379.9085464477539
aa(lp6
S'timestamp'
p7
aF1.895508050918579
aatp8
Rp9
.ccollections
OrderedDict
p0
((lp1
(lp2
S'state'
p3
aI400
aa(lp4
S'distance'
p5
aF379.9085464477539
aa(lp6
S'timestamp'
p7
aF1.9051399230957031
aatp8
Rp9
.ccollections
OrderedDict
p0
((lp1
(lp2
S'state'
p3
aI400
aa(lp4
S'distance'
p5
aF379.9085464477539
aa(lp6
S'timestamp'
p7
aF1.9067859649658203
aatp8
Rp9
.ccollections
OrderedDict
p0
((lp1
(lp2
S'state'
p3
aI400
aa(lp4
S'distance'
p5
aF379.9085464477539
aa(lp6
S'timestamp'
p7
aF1.9153058528900146
aatp8
Rp9
.ccollections
OrderedDict
p0
((lp1
(lp2
S'state'
p3
aI400
aa(lp4
S'distance'
p5
aF379.9085464477539
aa(lp6
S'timestamp'
p7
aF1.915390968322754
aatp8
Rp9
.ccollections
OrderedDict
p0
((lp1
(lp2
S'state'
p3
aI400
aa(lp4
S'distance'
p5
aF379.9085464477539
aa(lp6
S'timestamp'
p7
aF1.9349968433380127
aatp8
Rp9
.ccollections
OrderedDict
p0
((lp1
(lp2
S'state'
p3
aI400
aa(lp4
S'distance'
p5
aF379.9085464477539
aa(lp6
S'timestamp'
p7
aF1.9358088970184326
aatp8
Rp9
.ccollections
OrderedDict
p0
((lp1
(lp2
S'state'
p3
aI400
aa(lp4
S'distance'
p5
aF379.9085464477539
aa(lp6
S'timestamp'
p7
aF1.9359688758850098
aatp8
Rp9
.ccollections
OrderedDict
p0
((lp1
(lp2
S'state'
p3
aI400
aa(lp4
S'distance'
p5
aF379.9085464477539
aa(lp6
S'timestamp'
p7
aF1.9367618560791016
aatp8
Rp9
.ccollections
OrderedDict
p0
((lp1
(lp2
S'state'
p3
aI400
aa(lp4
S'distance'
p5
aF379.9085464477539
aa(lp6
S'timestamp'
p7
aF1.9456219673156738
aatp8
Rp9
.ccollections
OrderedDict
p0
((lp1
(lp2
S'state'
p3
aI400
aa(lp4
S'distance'
p5
aF379.9085464477539
aa(lp6
S'timestamp'
p7
aF1.9468839168548584
aatp8
Rp9
.ccollections
OrderedDict
p0
((lp1
(lp2
S'state'
p3
aI400
aa(lp4
S'distance'
p5
aF379.9085464477539
aa(lp6
S'timestamp'
p7
aF1.9551918506622314
aatp8
Rp9
.ccollections
OrderedDict
p0
((lp1
(lp2
S'state'
p3
aI400
aa(lp4
S'distance'
p5
aF379.9085464477539
aa(lp6
S'timestamp'
p7
aF1.955327033996582
aatp8
Rp9
.ccollections
OrderedDict
p0
((lp1
(lp2
S'state'
p3
aI400
aa(lp4
S'distance'
p5
aF379.9085464477539
aa(lp6
S'timestamp'
p7
aF1.9651708602905273
aatp8
Rp9
.ccollections
OrderedDict
p0
((lp1
(lp2
S'state'
p3
aI400
aa(lp4
S'distance'
p5
aF379.9085464477539
aa(lp6
S'timestamp'
p7
aF1.9659779071807861
aatp8
Rp9
.ccollections
OrderedDict
p0
((lp1
(lp2
S'state'
p3
aI400
aa(lp4
S'distance'
p5
aF379.9085464477539
aa(lp6
S'timestamp'
p7
aF1.9750759601593018
aatp8
Rp9
.ccollections
OrderedDict
p0
((lp1
(lp2
S'state'
p3
aI400
aa(lp4
S'distance'
p5
aF379.9085464477539
aa(lp6
S'timestamp'
p7
aF1.9756159782409668
aatp8
Rp9
.ccollections
OrderedDict
p0
((lp1
(lp2
S'state'
p3
aI400
aa(lp4
S'distance'
p5
aF379.9085464477539
aa(lp6
S'timestamp'
p7
aF1.9851288795471191
aatp8
Rp9
.ccollections
OrderedDict
p0
((lp1
(lp2
S'state'
p3
aI400
aa(lp4
S'distance'
p5
aF379.9085464477539
aa(lp6
S'timestamp'
p7
aF1.986548900604248
aatp8
Rp9
.ccollections
OrderedDict
p0
((lp1
(lp2
S'state'
p3
aI400
aa(lp4
S'distance'
p5
aF379.9085464477539
aa(lp6
S'timestamp'
p7
aF1.9953889846801758
aatp8
Rp9
.ccollections
OrderedDict
p0
((lp1
(lp2
S'state'
p3
aI400
aa(lp4
S'distance'
p5
aF379.9085464477539
aa(lp6
S'timestamp'
p7
aF1.9954719543457031
aatp8
Rp9
.ccollections
OrderedDict
p0
((lp1
(lp2
S'state'
p3
aI400
aa(lp4
S'distance'
p5
aF379.9085464477539
aa(lp6
S'timestamp'
p7
aF2.0053279399871826
aatp8
Rp9
.ccollections
OrderedDict
p0
((lp1
(lp2
S'state'
p3
aI400
aa(lp4
S'distance'
p5
aF379.9085464477539
aa(lp6
S'timestamp'
p7
aF2.005584955215454
aatp8
Rp9
.ccollections
OrderedDict
p0
((lp1
(lp2
S'state'
p3
aI400
aa(lp4
S'distance'
p5
aF379.9085464477539
aa(lp6
S'timestamp'
p7
aF2.015043020248413
aatp8
Rp9
.ccollections
OrderedDict
p0
((lp1
(lp2
S'state'
p3
aI400
aa(lp4
S'distance'
p5
aF379.9085464477539
aa(lp6
S'timestamp'
p7
aF2.02518892288208
aatp8
Rp9
.ccollections
OrderedDict
p0
((lp1
(lp2
S'state'
p3
aI400
aa(lp4
S'distance'
p5
aF379.9085464477539
aa(lp6
S'timestamp'
p7
aF2.0261390209198
aatp8
Rp9
.ccollections
OrderedDict
p0
((lp1
(lp2
S'state'
p3
aI400
aa(lp4
S'distance'
p5
aF379.9085464477539
aa(lp6
S'timestamp'
p7
aF2.026215076446533
aatp8
Rp9
.ccollections
OrderedDict
p0
((lp1
(lp2
S'state'
p3
aI400
aa(lp4
S'distance'
p5
aF379.9085464477539
aa(lp6
S'timestamp'
p7
aF2.0355489253997803
aatp8
Rp9
.ccollections
OrderedDict
p0
((lp1
(lp2
S'state'
p3
aI400
aa(lp4
S'distance'
p5
aF379.9085464477539
aa(lp6
S'timestamp'
p7
aF2.035660982131958
aatp8
Rp9
.ccollections
OrderedDict
p0
((lp1
(lp2
S'state'
p3
aI400
aa(lp4
S'distance'
p5
aF379.9085464477539
aa(lp6
S'timestamp'
p7
aF2.0460569858551025
aatp8
Rp9
.ccollections
OrderedDict
p0
((lp1
(lp2
S'state'
p3
aI400
aa(lp4
S'distance'
p5
aF379.9085464477539
aa(lp6
S'timestamp'
p7
aF2.046138048171997
aatp8
Rp9
.ccollections
OrderedDict
p0
((lp1
(lp2
S'state'
p3
aI400
aa(lp4
S'distance'
p5
aF379.9085464477539
aa(lp6
S'timestamp'
p7
aF2.055255889892578
aatp8
Rp9
.ccollections
OrderedDict
p0
((lp1
(lp2
S'state'
p3
aI400
aa(lp4
S'distance'
p5
aF379.9085464477539
aa(lp6
S'timestamp'
p7
aF2.056309938430786
aatp8
Rp9
.ccollections
OrderedDict
p0
((lp1
(lp2
S'state'
p3
aI400
aa(lp4
S'distance'
p5
aF379.9085464477539
aa(lp6
S'timestamp'
p7
aF2.0652618408203125
aatp8
Rp9
.ccollections
OrderedDict
p0
((lp1
(lp2
S'state'
p3
aI400
aa(lp4
S'distance'
p5
aF379.9085464477539
aa(lp6
S'timestamp'
p7
aF2.0654330253601074
aatp8
Rp9
.ccollections
OrderedDict
p0
((lp1
(lp2
S'state'
p3
aI400
aa(lp4
S'distance'
p5
aF379.9085464477539
aa(lp6
S'timestamp'
p7
aF2.0756099224090576
aatp8
Rp9
.ccollections
OrderedDict
p0
((lp1
(lp2
S'state'
p3
aI400
aa(lp4
S'distance'
p5
aF379.9085464477539
aa(lp6
S'timestamp'
p7
aF2.0851938724517822
aatp8
Rp9
.ccollections
OrderedDict
p0
((lp1
(lp2
S'state'
p3
aI400
aa(lp4
S'distance'
p5
aF379.9085464477539
aa(lp6
S'timestamp'
p7
aF2.086108922958374
aatp8
Rp9
.ccollections
OrderedDict
p0
((lp1
(lp2
S'state'
p3
aI400
aa(lp4
S'distance'
p5
aF379.9085464477539
aa(lp6
S'timestamp'
p7
aF2.0868139266967773
aatp8
Rp9
.ccollections
OrderedDict
p0
((lp1
(lp2
S'state'
p3
aI400
aa(lp4
S'distance'
p5
aF379.9085464477539
aa(lp6
S'timestamp'
p7
aF2.0951709747314453
aatp8
Rp9
.ccollections
OrderedDict
p0
((lp1
(lp2
S'state'
p3
aI400
aa(lp4
S'distance'
p5
aF379.9085464477539
aa(lp6
S'timestamp'
p7
aF2.0956568717956543
aatp8
Rp9
.ccollections
OrderedDict
p0
((lp1
(lp2
S'state'
p3
aI400
aa(lp4
S'distance'
p5
aF379.9085464477539
aa(lp6
S'timestamp'
p7
aF2.105181932449341
aatp8
Rp9
.ccollections
OrderedDict
p0
((lp1
(lp2
S'state'
p3
aI400
aa(lp4
S'distance'
p5
aF379.9085464477539
aa(lp6
S'timestamp'
p7
aF2.1057589054107666
aatp8
Rp9
.ccollections
OrderedDict
p0
((lp1
(lp2
S'state'
p3
aI400
aa(lp4
S'distance'
p5
aF379.9085464477539
aa(lp6
S'timestamp'
p7
aF2.1155030727386475
aatp8
Rp9
.ccollections
OrderedDict
p0
((lp1
(lp2
S'state'
p3
aI400
aa(lp4
S'distance'
p5
aF379.9085464477539
aa(lp6
S'timestamp'
p7
aF2.115602970123291
aatp8
Rp9
.ccollections
OrderedDict
p0
((lp1
(lp2
S'state'
p3
aI400
aa(lp4
S'distance'
p5
aF379.9085464477539
aa(lp6
S'timestamp'
p7
aF2.125572919845581
aatp8
Rp9
.ccollections
OrderedDict
p0
((lp1
(lp2
S'state'
p3
aI400
aa(lp4
S'distance'
p5
aF379.9085464477539
aa(lp6
S'timestamp'
p7
aF2.1264469623565674
aatp8
Rp9
.ccollections
OrderedDict
p0
((lp1
(lp2
S'state'
p3
aI400
aa(lp4
S'distance'
p5
aF379.9085464477539
aa(lp6
S'timestamp'
p7
aF2.135288953781128
aatp8
Rp9
.ccollections
OrderedDict
p0
((lp1
(lp2
S'state'
p3
aI400
aa(lp4
S'distance'
p5
aF379.9085464477539
aa(lp6
S'timestamp'
p7
aF2.1358699798583984
aatp8
Rp9
.ccollections
OrderedDict
p0
((lp1
(lp2
S'state'
p3
aI400
aa(lp4
S'distance'
p5
aF379.9085464477539
aa(lp6
S'timestamp'
p7
aF2.145354986190796
aatp8
Rp9
.ccollections
OrderedDict
p0
((lp1
(lp2
S'state'
p3
aI400
aa(lp4
S'distance'
p5
aF379.9085464477539
aa(lp6
S'timestamp'
p7
aF2.1455018520355225
aatp8
Rp9
.ccollections
OrderedDict
p0
((lp1
(lp2
S'state'
p3
aI400
aa(lp4
S'distance'
p5
aF379.9085464477539
aa(lp6
S'timestamp'
p7
aF2.1564829349517822
aatp8
Rp9
.ccollections
OrderedDict
p0
((lp1
(lp2
S'state'
p3
aI400
aa(lp4
S'distance'
p5
aF379.9085464477539
aa(lp6
S'timestamp'
p7
aF2.1565520763397217
aatp8
Rp9
.ccollections
OrderedDict
p0
((lp1
(lp2
S'state'
p3
aI400
aa(lp4
S'distance'
p5
aF379.9085464477539
aa(lp6
S'timestamp'
p7
aF2.1659648418426514
aatp8
Rp9
.ccollections
OrderedDict
p0
((lp1
(lp2
S'state'
p3
aI400
aa(lp4
S'distance'
p5
aF379.9085464477539
aa(lp6
S'timestamp'
p7
aF2.1660358905792236
aatp8
Rp9
.ccollections
OrderedDict
p0
((lp1
(lp2
S'state'
p3
aI400
aa(lp4
S'distance'
p5
aF379.9085464477539
aa(lp6
S'timestamp'
p7
aF2.1752140522003174
aatp8
Rp9
.ccollections
OrderedDict
p0
((lp1
(lp2
S'state'
p3
aI400
aa(lp4
S'distance'
p5
aF379.9085464477539
aa(lp6
S'timestamp'
p7
aF2.1760098934173584
aatp8
Rp9
.ccollections
OrderedDict
p0
((lp1
(lp2
S'state'
p3
aI400
aa(lp4
S'distance'
p5
aF379.9085464477539
aa(lp6
S'timestamp'
p7
aF2.185436964035034
aatp8
Rp9
.ccollections
OrderedDict
p0
((lp1
(lp2
S'state'
p3
aI400
aa(lp4
S'distance'
p5
aF379.9085464477539
aa(lp6
S'timestamp'
p7
aF2.1855289936065674
aatp8
Rp9
.ccollections
OrderedDict
p0
((lp1
(lp2
S'state'
p3
aI400
aa(lp4
S'distance'
p5
aF379.9085464477539
aa(lp6
S'timestamp'
p7
aF2.196392059326172
aatp8
Rp9
.ccollections
OrderedDict
p0
((lp1
(lp2
S'state'
p3
aI400
aa(lp4
S'distance'
p5
aF379.9085464477539
aa(lp6
S'timestamp'
p7
aF2.1964590549468994
aatp8
Rp9
.ccollections
OrderedDict
p0
((lp1
(lp2
S'state'
p3
aI400
aa(lp4
S'distance'
p5
aF379.9085464477539
aa(lp6
S'timestamp'
p7
aF2.2063488960266113
aatp8
Rp9
.ccollections
OrderedDict
p0
((lp1
(lp2
S'state'
p3
aI400
aa(lp4
S'distance'
p5
aF379.9085464477539
aa(lp6
S'timestamp'
p7
aF2.2064239978790283
aatp8
Rp9
.ccollections
OrderedDict
p0
((lp1
(lp2
S'state'
p3
aI400
aa(lp4
S'distance'
p5
aF379.9085464477539
aa(lp6
S'timestamp'
p7
aF2.2151389122009277
aatp8
Rp9
.ccollections
OrderedDict
p0
((lp1
(lp2
S'state'
p3
aI400
aa(lp4
S'distance'
p5
aF379.9085464477539
aa(lp6
S'timestamp'
p7
aF2.2159759998321533
aatp8
Rp9
.ccollections
OrderedDict
p0
((lp1
(lp2
S'state'
p3
aI400
aa(lp4
S'distance'
p5
aF379.9085464477539
aa(lp6
S'timestamp'
p7
aF2.2252700328826904
aatp8
Rp9
.ccollections
OrderedDict
p0
((lp1
(lp2
S'state'
p3
aI400
aa(lp4
S'distance'
p5
aF379.9085464477539
aa(lp6
S'timestamp'
p7
aF2.2261159420013428
aatp8
Rp9
.ccollections
OrderedDict
p0
((lp1
(lp2
S'state'
p3
aI400
aa(lp4
S'distance'
p5
aF379.9085464477539
aa(lp6
S'timestamp'
p7
aF2.2352519035339355
aatp8
Rp9
.ccollections
OrderedDict
p0
((lp1
(lp2
S'state'
p3
aI400
aa(lp4
S'distance'
p5
aF379.9085464477539
aa(lp6
S'timestamp'
p7
aF2.2366340160369873
aatp8
Rp9
.ccollections
OrderedDict
p0
((lp1
(lp2
S'state'
p3
aI400
aa(lp4
S'distance'
p5
aF379.9085464477539
aa(lp6
S'timestamp'
p7
aF2.2459540367126465
aatp8
Rp9
.ccollections
OrderedDict
p0
((lp1
(lp2
S'state'
p3
aI400
aa(lp4
S'distance'
p5
aF379.9085464477539
aa(lp6
S'timestamp'
p7
aF2.2460219860076904
aatp8
Rp9
.ccollections
OrderedDict
p0
((lp1
(lp2
S'state'
p3
aI400
aa(lp4
S'distance'
p5
aF379.9085464477539
aa(lp6
S'timestamp'
p7
aF2.2551610469818115
aatp8
Rp9
.ccollections
OrderedDict
p0
((lp1
(lp2
S'state'
p3
aI400
aa(lp4
S'distance'
p5
aF379.9085464477539
aa(lp6
S'timestamp'
p7
aF2.2564048767089844
aatp8
Rp9
.ccollections
OrderedDict
p0
((lp1
(lp2
S'state'
p3
aI400
aa(lp4
S'distance'
p5
aF379.9085464477539
aa(lp6
S'timestamp'
p7
aF2.2655539512634277
aatp8
Rp9
.ccollections
OrderedDict
p0
((lp1
(lp2
S'state'
p3
aI400
aa(lp4
S'distance'
p5
aF379.9085464477539
aa(lp6
S'timestamp'
p7
aF2.2657530307769775
aatp8
Rp9
.ccollections
OrderedDict
p0
((lp1
(lp2
S'state'
p3
aI400
aa(lp4
S'distance'
p5
aF379.9085464477539
aa(lp6
S'timestamp'
p7
aF2.276409864425659
aatp8
Rp9
.ccollections
OrderedDict
p0
((lp1
(lp2
S'state'
p3
aI400
aa(lp4
S'distance'
p5
aF379.9085464477539
aa(lp6
S'timestamp'
p7
aF2.2764768600463867
aatp8
Rp9
.ccollections
OrderedDict
p0
((lp1
(lp2
S'state'
p3
aI400
aa(lp4
S'distance'
p5
aF379.9085464477539
aa(lp6
S'timestamp'
p7
aF2.285264015197754
aatp8
Rp9
.ccollections
OrderedDict
p0
((lp1
(lp2
S'state'
p3
aI400
aa(lp4
S'distance'
p5
aF379.9085464477539
aa(lp6
S'timestamp'
p7
aF2.2855379581451416
aatp8
Rp9
.ccollections
OrderedDict
p0
((lp1
(lp2
S'state'
p3
aI400
aa(lp4
S'distance'
p5
aF379.9085464477539
aa(lp6
S'timestamp'
p7
aF2.2952280044555664
aatp8
Rp9
.ccollections
OrderedDict
p0
((lp1
(lp2
S'state'
p3
aI400
aa(lp4
S'distance'
p5
aF379.9085464477539
aa(lp6
S'timestamp'
p7
aF2.2965760231018066
aatp8
Rp9
.ccollections
OrderedDict
p0
((lp1
(lp2
S'state'
p3
aI400
aa(lp4
S'distance'
p5
aF379.9085464477539
aa(lp6
S'timestamp'
p7
aF2.3054919242858887
aatp8
Rp9
.ccollections
OrderedDict
p0
((lp1
(lp2
S'state'
p3
aI400
aa(lp4
S'distance'
p5
aF379.9085464477539
aa(lp6
S'timestamp'
p7
aF2.3057570457458496
aatp8
Rp9
.ccollections
OrderedDict
p0
((lp1
(lp2
S'state'
p3
aI400
aa(lp4
S'distance'
p5
aF379.9085464477539
aa(lp6
S'timestamp'
p7
aF2.315976858139038
aatp8
Rp9
.ccollections
OrderedDict
p0
((lp1
(lp2
S'state'
p3
aI400
aa(lp4
S'distance'
p5
aF379.9085464477539
aa(lp6
S'timestamp'
p7
aF2.316041946411133
aatp8
Rp9
.ccollections
OrderedDict
p0
((lp1
(lp2
S'state'
p3
aI400
aa(lp4
S'distance'
p5
aF379.9085464477539
aa(lp6
S'timestamp'
p7
aF2.326413869857788
aatp8
Rp9
.ccollections
OrderedDict
p0
((lp1
(lp2
S'state'
p3
aI400
aa(lp4
S'distance'
p5
aF379.9085464477539
aa(lp6
S'timestamp'
p7
aF2.3265318870544434
aatp8
Rp9
.ccollections
OrderedDict
p0
((lp1
(lp2
S'state'
p3
aI400
aa(lp4
S'distance'
p5
aF379.9085464477539
aa(lp6
S'timestamp'
p7
aF2.3351709842681885
aatp8
Rp9
.ccollections
OrderedDict
p0
((lp1
(lp2
S'state'
p3
aI400
aa(lp4
S'distance'
p5
aF379.9085464477539
aa(lp6
S'timestamp'
p7
aF2.3356690406799316
aatp8
Rp9
.ccollections
OrderedDict
p0
((lp1
(lp2
S'state'
p3
aI400
aa(lp4
S'distance'
p5
aF379.9085464477539
aa(lp6
S'timestamp'
p7
aF2.345982074737549
aatp8
Rp9
.ccollections
OrderedDict
p0
((lp1
(lp2
S'state'
p3
aI400
aa(lp4
S'distance'
p5
aF379.9085464477539
aa(lp6
S'timestamp'
p7
aF2.346050977706909
aatp8
Rp9
.ccollections
OrderedDict
p0
((lp1
(lp2
S'state'
p3
aI400
aa(lp4
S'distance'
p5
aF379.9085464477539
aa(lp6
S'timestamp'
p7
aF2.355056047439575
aatp8
Rp9
.ccollections
OrderedDict
p0
((lp1
(lp2
S'state'
p3
aI400
aa(lp4
S'distance'
p5
aF379.9085464477539
aa(lp6
S'timestamp'
p7
aF2.356433868408203
aatp8
Rp9
.ccollections
OrderedDict
p0
((lp1
(lp2
S'state'
p3
aI400
aa(lp4
S'distance'
p5
aF379.9085464477539
aa(lp6
S'timestamp'
p7
aF2.3664920330047607
aatp8
Rp9
.ccollections
OrderedDict
p0
((lp1
(lp2
S'state'
p3
aI400
aa(lp4
S'distance'
p5
aF379.9085464477539
aa(lp6
S'timestamp'
p7
aF2.3665690422058105
aatp8
Rp9
.ccollections
OrderedDict
p0
((lp1
(lp2
S'state'
p3
aI400
aa(lp4
S'distance'
p5
aF379.9085464477539
aa(lp6
S'timestamp'
p7
aF2.3751230239868164
aatp8
Rp9
.ccollections
OrderedDict
p0
((lp1
(lp2
S'state'
p3
aI400
aa(lp4
S'distance'
p5
aF379.9085464477539
aa(lp6
S'timestamp'
p7
aF2.375288963317871
aatp8
Rp9
.ccollections
OrderedDict
p0
((lp1
(lp2
S'state'
p3
aI400
aa(lp4
S'distance'
p5
aF379.9085464477539
aa(lp6
S'timestamp'
p7
aF2.3853039741516113
aatp8
Rp9
.ccollections
OrderedDict
p0
((lp1
(lp2
S'state'
p3
aI400
aa(lp4
S'distance'
p5
aF379.9085464477539
aa(lp6
S'timestamp'
p7
aF2.386143922805786
aatp8
Rp9
.ccollections
OrderedDict
p0
((lp1
(lp2
S'state'
p3
aI400
aa(lp4
S'distance'
p5
aF379.9085464477539
aa(lp6
S'timestamp'
p7
aF2.395469903945923
aatp8
Rp9
.ccollections
OrderedDict
p0
((lp1
(lp2
S'state'
p3
aI400
aa(lp4
S'distance'
p5
aF379.9085464477539
aa(lp6
S'timestamp'
p7
aF2.3966569900512695
aatp8
Rp9
.ccollections
OrderedDict
p0
((lp1
(lp2
S'state'
p3
aI400
aa(lp4
S'distance'
p5
aF379.9085464477539
aa(lp6
S'timestamp'
p7
aF2.4051918983459473
aatp8
Rp9
.ccollections
OrderedDict
p0
((lp1
(lp2
S'state'
p3
aI0
aa(lp4
S'distance'
p5
aF379.9085464477539
aa(lp6
S'timestamp'
p7
aF2.4061200618743896
aatp8
Rp9
.ccollections
OrderedDict
p0
((lp1
(lp2
S'state'
p3
aI0
aa(lp4
S'distance'
p5
aF275.0931091308594
aa(lp6
S'timestamp'
p7
aF3.006392002105713
aatp8
Rp9
.ccollections
OrderedDict
p0
((lp1
(lp2
S'state'
p3
aI0
aa(lp4
S'distance'
p5
aF275.0931091308594
aa(lp6
S'timestamp'
p7
aF3.016779899597168
aatp8
Rp9
.ccollections
OrderedDict
p0
((lp1
(lp2
S'state'
p3
aI0
aa(lp4
S'distance'
p5
aF275.0931091308594
aa(lp6
S'timestamp'
p7
aF3.01698899269104
aatp8
Rp9
.ccollections
OrderedDict
p0
((lp1
(lp2
S'state'
p3
aI0
aa(lp4
S'distance'
p5
aF275.0931091308594
aa(lp6
S'timestamp'
p7
aF3.062243938446045
aatp8
Rp9
.ccollections
OrderedDict
p0
((lp1
(lp2
S'state'
p3
aI0
aa(lp4
S'distance'
p5
aF275.0931091308594
aa(lp6
S'timestamp'
p7
aF3.062838077545166
aatp8
Rp9
.ccollections
OrderedDict
p0
((lp1
(lp2
S'state'
p3
aI0
aa(lp4
S'distance'
p5
aF275.0931091308594
aa(lp6
S'timestamp'
p7
aF3.063217878341675
aatp8
Rp9
.ccollections
OrderedDict
p0
((lp1
(lp2
S'state'
p3
aI0
aa(lp4
S'distance'
p5
aF275.0931091308594
aa(lp6
S'timestamp'
p7
aF3.0635108947753906
aatp8
Rp9
.ccollections
OrderedDict
p0
((lp1
(lp2
S'state'
p3
aI0
aa(lp4
S'distance'
p5
aF275.0931091308594
aa(lp6
S'timestamp'
p7
aF3.084836959838867
aatp8
Rp9
.ccollections
OrderedDict
p0
((lp1
(lp2
S'state'
p3
aI0
aa(lp4
S'distance'
p5
aF275.0931091308594
aa(lp6
S'timestamp'
p7
aF3.0850870609283447
aatp8
Rp9
.ccollections
OrderedDict
p0
((lp1
(lp2
S'state'
p3
aI0
aa(lp4
S'distance'
p5
aF275.0931091308594
aa(lp6
S'timestamp'
p7
aF3.085469961166382
aatp8
Rp9
.ccollections
OrderedDict
p0
((lp1
(lp2
S'state'
p3
aI0
aa(lp4
S'distance'
p5
aF275.0931091308594
aa(lp6
S'timestamp'
p7
aF3.0859479904174805
aatp8
Rp9
.ccollections
OrderedDict
p0
((lp1
(lp2
S'state'
p3
aI0
aa(lp4
S'distance'
p5
aF275.0931091308594
aa(lp6
S'timestamp'
p7
aF3.0862069129943848
aatp8
Rp9
.ccollections
OrderedDict
p0
((lp1
(lp2
S'state'
p3
aI0
aa(lp4
S'distance'
p5
aF275.0931091308594
aa(lp6
S'timestamp'
p7
aF3.0864670276641846
aatp8
Rp9
.ccollections
OrderedDict
p0
((lp1
(lp2
S'state'
p3
aI0
aa(lp4
S'distance'
p5
aF275.0931091308594
aa(lp6
S'timestamp'
p7
aF3.088923931121826
aatp8
Rp9
.ccollections
OrderedDict
p0
((lp1
(lp2
S'state'
p3
aI0
aa(lp4
S'distance'
p5
aF275.0931091308594
aa(lp6
S'timestamp'
p7
aF3.0910379886627197
aatp8
Rp9
.ccollections
OrderedDict
p0
((lp1
(lp2
S'state'
p3
aI0
aa(lp4
S'distance'
p5
aF275.0931091308594
aa(lp6
S'timestamp'
p7
aF3.0914008617401123
aatp8
Rp9
.ccollections
OrderedDict
p0
((lp1
(lp2
S'state'
p3
aI0
aa(lp4
S'distance'
p5
aF275.0931091308594
aa(lp6
S'timestamp'
p7
aF3.0917038917541504
aatp8
Rp9
.ccollections
OrderedDict
p0
((lp1
(lp2
S'state'
p3
aI0
aa(lp4
S'distance'
p5
aF275.0931091308594
aa(lp6
S'timestamp'
p7
aF3.1250879764556885
aatp8
Rp9
.ccollections
OrderedDict
p0
((lp1
(lp2
S'state'
p3
aI0
aa(lp4
S'distance'
p5
aF275.0931091308594
aa(lp6
S'timestamp'
p7
aF3.135258913040161
aatp8
Rp9
.ccollections
OrderedDict
p0
((lp1
(lp2
S'state'
p3
aI0
aa(lp4
S'distance'
p5
aF275.0931091308594
aa(lp6
S'timestamp'
p7
aF3.1354739665985107
aatp8
Rp9
.ccollections
OrderedDict
p0
((lp1
(lp2
S'state'
p3
aI0
aa(lp4
S'distance'
p5
aF275.0931091308594
aa(lp6
S'timestamp'
p7
aF3.13590407371521
aatp8
Rp9
.ccollections
OrderedDict
p0
((lp1
(lp2
S'state'
p3
aI0
aa(lp4
S'distance'
p5
aF275.0931091308594
aa(lp6
S'timestamp'
p7
aF3.136590003967285
aatp8
Rp9
.ccollections
OrderedDict
p0
((lp1
(lp2
S'state'
p3
aI0
aa(lp4
S'distance'
p5
aF275.0931091308594
aa(lp6
S'timestamp'
p7
aF3.1451778411865234
aatp8
Rp9
.ccollections
OrderedDict
p0
((lp1
(lp2
S'state'
p3
aI0
aa(lp4
S'distance'
p5
aF275.0931091308594
aa(lp6
S'timestamp'
p7
aF3.145740032196045
aatp8
Rp9
.ccollections
OrderedDict
p0
((lp1
(lp2
S'state'
p3
aI0
aa(lp4
S'distance'
p5
aF275.0931091308594
aa(lp6
S'timestamp'
p7
aF3.14654803276062
aatp8
Rp9
.ccollections
OrderedDict
p0
((lp1
(lp2
S'state'
p3
aI0
aa(lp4
S'distance'
p5
aF275.0931091308594
aa(lp6
S'timestamp'
p7
aF3.147145986557007
aatp8
Rp9
.ccollections
OrderedDict
p0
((lp1
(lp2
S'state'
p3
aI0
aa(lp4
S'distance'
p5
aF275.0931091308594
aa(lp6
S'timestamp'
p7
aF3.1551640033721924
aatp8
Rp9
.ccollections
OrderedDict
p0
((lp1
(lp2
S'state'
p3
aI0
aa(lp4
S'distance'
p5
aF275.0931091308594
aa(lp6
S'timestamp'
p7
aF3.1557178497314453
aatp8
Rp9
.ccollections
OrderedDict
p0
((lp1
(lp2
S'state'
p3
aI0
aa(lp4
S'distance'
p5
aF275.0931091308594
aa(lp6
S'timestamp'
p7
aF3.156122922897339
aatp8
Rp9
.ccollections
OrderedDict
p0
((lp1
(lp2
S'state'
p3
aI0
aa(lp4
S'distance'
p5
aF275.0931091308594
aa(lp6
S'timestamp'
p7
aF3.156481981277466
aatp8
Rp9
.ccollections
OrderedDict
p0
((lp1
(lp2
S'state'
p3
aI0
aa(lp4
S'distance'
p5
aF275.0931091308594
aa(lp6
S'timestamp'
p7
aF3.1652400493621826
aatp8
Rp9
.ccollections
OrderedDict
p0
((lp1
(lp2
S'state'
p3
aI0
aa(lp4
S'distance'
p5
aF275.0931091308594
aa(lp6
S'timestamp'
p7
aF3.1653709411621094
aatp8
Rp9
.ccollections
OrderedDict
p0
((lp1
(lp2
S'state'
p3
aI0
aa(lp4
S'distance'
p5
aF275.0931091308594
aa(lp6
S'timestamp'
p7
aF3.1658689975738525
aatp8
Rp9
.ccollections
OrderedDict
p0
((lp1
(lp2
S'state'
p3
aI0
aa(lp4
S'distance'
p5
aF275.0931091308594
aa(lp6
S'timestamp'
p7
aF3.1753158569335938
aatp8
Rp9
.ccollections
OrderedDict
p0
((lp1
(lp2
S'state'
p3
aI0
aa(lp4
S'distance'
p5
aF275.0931091308594
aa(lp6
S'timestamp'
p7
aF3.175478935241699
aatp8
Rp9
.ccollections
OrderedDict
p0
((lp1
(lp2
S'state'
p3
aI0
aa(lp4
S'distance'
p5
aF275.0931091308594
aa(lp6
S'timestamp'
p7
aF3.185131072998047
aatp8
Rp9
.ccollections
OrderedDict
p0
((lp1
(lp2
S'state'
p3
aI0
aa(lp4
S'distance'
p5
aF275.0931091308594
aa(lp6
S'timestamp'
p7
aF3.185589075088501
aatp8
Rp9
.ccollections
OrderedDict
p0
((lp1
(lp2
S'state'
p3
aI0
aa(lp4
S'distance'
p5
aF275.0931091308594
aa(lp6
S'timestamp'
p7
aF3.195080041885376
aatp8
Rp9
.ccollections
OrderedDict
p0
((lp1
(lp2
S'state'
p3
aI0
aa(lp4
S'distance'
p5
aF275.0931091308594
aa(lp6
S'timestamp'
p7
aF3.195814847946167
aatp8
Rp9
.ccollections
OrderedDict
p0
((lp1
(lp2
S'state'
p3
aI0
aa(lp4
S'distance'
p5
aF275.0931091308594
aa(lp6
S'timestamp'
p7
aF3.205216884613037
aatp8
Rp9
.ccollections
OrderedDict
p0
((lp1
(lp2
S'state'
p3
aI0
aa(lp4
S'distance'
p5
aF275.0931091308594
aa(lp6
S'timestamp'
p7
aF3.2054879665374756
aatp8
Rp9
.ccollections
OrderedDict
p0
((lp1
(lp2
S'state'
p3
aI0
aa(lp4
S'distance'
p5
aF275.0931091308594
aa(lp6
S'timestamp'
p7
aF3.215203046798706
aatp8
Rp9
.ccollections
OrderedDict
p0
((lp1
(lp2
S'state'
p3
aI0
aa(lp4
S'distance'
p5
aF275.0931091308594
aa(lp6
S'timestamp'
p7
aF3.2155568599700928
aatp8
Rp9
.ccollections
OrderedDict
p0
((lp1
(lp2
S'state'
p3
aI0
aa(lp4
S'distance'
p5
aF275.0931091308594
aa(lp6
S'timestamp'
p7
aF3.2251079082489014
aatp8
Rp9
.ccollections
OrderedDict
p0
((lp1
(lp2
S'state'
p3
aI0
aa(lp4
S'distance'
p5
aF275.0931091308594
aa(lp6
S'timestamp'
p7
aF3.2255189418792725
aatp8
Rp9
.ccollections
OrderedDict
p0
((lp1
(lp2
S'state'
p3
aI0
aa(lp4
S'distance'
p5
aF275.0931091308594
aa(lp6
S'timestamp'
p7
aF3.24515700340271
aatp8
Rp9
.ccollections
OrderedDict
p0
((lp1
(lp2
S'state'
p3
aI0
aa(lp4
S'distance'
p5
aF275.0931091308594
aa(lp6
S'timestamp'
p7
aF3.2453949451446533
aatp8
Rp9
.ccollections
OrderedDict
p0
((lp1
(lp2
S'state'
p3
aI0
aa(lp4
S'distance'
p5
aF275.0931091308594
aa(lp6
S'timestamp'
p7
aF3.245975971221924
aatp8
Rp9
.ccollections
OrderedDict
p0
((lp1
(lp2
S'state'
p3
aI0
aa(lp4
S'distance'
p5
aF275.0931091308594
aa(lp6
S'timestamp'
p7
aF3.2472050189971924
aatp8
Rp9
.ccollections
OrderedDict
p0
((lp1
(lp2
S'state'
p3
aI0
aa(lp4
S'distance'
p5
aF275.0931091308594
aa(lp6
S'timestamp'
p7
aF3.265065908432007
aatp8
Rp9
.ccollections
OrderedDict
p0
((lp1
(lp2
S'state'
p3
aI0
aa(lp4
S'distance'
p5
aF275.0931091308594
aa(lp6
S'timestamp'
p7
aF3.265687942504883
aatp8
Rp9
.ccollections
OrderedDict
p0
((lp1
(lp2
S'state'
p3
aI0
aa(lp4
S'distance'
p5
aF275.0931091308594
aa(lp6
S'timestamp'
p7
aF3.265826940536499
aatp8
Rp9
.ccollections
OrderedDict
p0
((lp1
(lp2
S'state'
p3
aI0
aa(lp4
S'distance'
p5
aF275.0931091308594
aa(lp6
S'timestamp'
p7
aF3.266788959503174
aatp8
Rp9
.ccollections
OrderedDict
p0
((lp1
(lp2
S'state'
p3
aI0
aa(lp4
S'distance'
p5
aF275.0931091308594
aa(lp6
S'timestamp'
p7
aF3.275214910507202
aatp8
Rp9
.ccollections
OrderedDict
p0
((lp1
(lp2
S'state'
p3
aI0
aa(lp4
S'distance'
p5
aF275.0931091308594
aa(lp6
S'timestamp'
p7
aF3.2761709690093994
aatp8
Rp9
.ccollections
OrderedDict
p0
((lp1
(lp2
S'state'
p3
aI0
aa(lp4
S'distance'
p5
aF275.0931091308594
aa(lp6
S'timestamp'
p7
aF3.285109043121338
aatp8
Rp9
.ccollections
OrderedDict
p0
((lp1
(lp2
S'state'
p3
aI0
aa(lp4
S'distance'
p5
aF275.0931091308594
aa(lp6
S'timestamp'
p7
aF3.2856688499450684
aatp8
Rp9
.ccollections
OrderedDict
p0
((lp1
(lp2
S'state'
p3
aI0
aa(lp4
S'distance'
p5
aF275.0931091308594
aa(lp6
S'timestamp'
p7
aF3.295171022415161
aatp8
Rp9
.ccollections
OrderedDict
p0
((lp1
(lp2
S'state'
p3
aI0
aa(lp4
S'distance'
p5
aF275.0931091308594
aa(lp6
S'timestamp'
p7
aF3.2957849502563477
aatp8
Rp9
.ccollections
OrderedDict
p0
((lp1
(lp2
S'state'
p3
aI0
aa(lp4
S'distance'
p5
aF275.0931091308594
aa(lp6
S'timestamp'
p7
aF3.3052749633789062
aatp8
Rp9
.ccollections
OrderedDict
p0
((lp1
(lp2
S'state'
p3
aI0
aa(lp4
S'distance'
p5
aF275.0931091308594
aa(lp6
S'timestamp'
p7
aF3.305830955505371
aatp8
Rp9
.ccollections
OrderedDict
p0
((lp1
(lp2
S'state'
p3
aI0
aa(lp4
S'distance'
p5
aF275.0931091308594
aa(lp6
S'timestamp'
p7
aF3.315269947052002
aatp8
Rp9
.ccollections
OrderedDict
p0
((lp1
(lp2
S'state'
p3
aI0
aa(lp4
S'distance'
p5
aF275.0931091308594
aa(lp6
S'timestamp'
p7
aF3.3164830207824707
aatp8
Rp9
.ccollections
OrderedDict
p0
((lp1
(lp2
S'state'
p3
aI0
aa(lp4
S'distance'
p5
aF275.0931091308594
aa(lp6
S'timestamp'
p7
aF3.335196018218994
aatp8
Rp9
.ccollections
OrderedDict
p0
((lp1
(lp2
S'state'
p3
aI0
aa(lp4
S'distance'
p5
aF275.0931091308594
aa(lp6
S'timestamp'
p7
aF3.337035894393921
aatp8
Rp9
.ccollections
OrderedDict
p0
((lp1
(lp2
S'state'
p3
aI0
aa(lp4
S'distance'
p5
aF275.0931091308594
aa(lp6
S'timestamp'
p7
aF3.337122917175293
aatp8
Rp9
.ccollections
OrderedDict
p0
((lp1
(lp2
S'state'
p3
aI0
aa(lp4
S'distance'
p5
aF275.0931091308594
aa(lp6
S'timestamp'
p7
aF3.337632894515991
aatp8
Rp9
.ccollections
OrderedDict
p0
((lp1
(lp2
S'state'
p3
aI0
aa(lp4
S'distance'
p5
aF275.0931091308594
aa(lp6
S'timestamp'
p7
aF3.355116844177246
aatp8
Rp9
.ccollections
OrderedDict
p0
((lp1
(lp2
S'state'
p3
aI0
aa(lp4
S'distance'
p5
aF275.0931091308594
aa(lp6
S'timestamp'
p7
aF3.355301856994629
aatp8
Rp9
.ccollections
OrderedDict
p0
((lp1
(lp2
S'state'
p3
aI0
aa(lp4
S'distance'
p5
aF275.0931091308594
aa(lp6
S'timestamp'
p7
aF3.3562819957733154
aatp8
Rp9
.ccollections
OrderedDict
p0
((lp1
(lp2
S'state'
p3
aI0
aa(lp4
S'distance'
p5
aF275.0931091308594
aa(lp6
S'timestamp'
p7
aF3.3565080165863037
aatp8
Rp9
.ccollections
OrderedDict
p0
((lp1
(lp2
S'state'
p3
aI0
aa(lp4
S'distance'
p5
aF275.0931091308594
aa(lp6
S'timestamp'
p7
aF3.3669779300689697
aatp8
Rp9
.ccollections
OrderedDict
p0
((lp1
(lp2
S'state'
p3
aI0
aa(lp4
S'distance'
p5
aF275.0931091308594
aa(lp6
S'timestamp'
p7
aF3.3670499324798584
aatp8
Rp9
.ccollections
OrderedDict
p0
((lp1
(lp2
S'state'
p3
aI0
aa(lp4
S'distance'
p5
aF275.0931091308594
aa(lp6
S'timestamp'
p7
aF3.3752079010009766
aatp8
Rp9
.ccollections
OrderedDict
p0
((lp1
(lp2
S'state'
p3
aI0
aa(lp4
S'distance'
p5
aF275.0931091308594
aa(lp6
S'timestamp'
p7
aF3.376107931137085
aatp8
Rp9
.ccollections
OrderedDict
p0
((lp1
(lp2
S'state'
p3
aI0
aa(lp4
S'distance'
p5
aF275.0931091308594
aa(lp6
S'timestamp'
p7
aF3.3852319717407227
aatp8
Rp9
.ccollections
OrderedDict
p0
((lp1
(lp2
S'state'
p3
aI0
aa(lp4
S'distance'
p5
aF275.0931091308594
aa(lp6
S'timestamp'
p7
aF3.386033058166504
aatp8
Rp9
.ccollections
OrderedDict
p0
((lp1
(lp2
S'state'
p3
aI0
aa(lp4
S'distance'
p5
aF275.0931091308594
aa(lp6
S'timestamp'
p7
aF3.3953819274902344
aatp8
Rp9
.ccollections
OrderedDict
p0
((lp1
(lp2
S'state'
p3
aI0
aa(lp4
S'distance'
p5
aF275.0931091308594
aa(lp6
S'timestamp'
p7
aF3.396056890487671
aatp8
Rp9
.ccollections
OrderedDict
p0
((lp1
(lp2
S'state'
p3
aI0
aa(lp4
S'distance'
p5
aF275.0931091308594
aa(lp6
S'timestamp'
p7
aF3.4152350425720215
aatp8
Rp9
.ccollections
OrderedDict
p0
((lp1
(lp2
S'state'
p3
aI0
aa(lp4
S'distance'
p5
aF275.0931091308594
aa(lp6
S'timestamp'
p7
aF3.41542387008667
aatp8
Rp9
.ccollections
OrderedDict
p0
((lp1
(lp2
S'state'
p3
aI0
aa(lp4
S'distance'
p5
aF275.0931091308594
aa(lp6
S'timestamp'
p7
aF3.4166488647460938
aatp8
Rp9
.ccollections
OrderedDict
p0
((lp1
(lp2
S'state'
p3
aI0
aa(lp4
S'distance'
p5
aF275.0931091308594
aa(lp6
S'timestamp'
p7
aF3.416717052459717
aatp8
Rp9
.ccollections
OrderedDict
p0
((lp1
(lp2
S'state'
p3
aI0
aa(lp4
S'distance'
p5
aF275.0931091308594
aa(lp6
S'timestamp'
p7
aF3.4351940155029297
aatp8
Rp9
.ccollections
OrderedDict
p0
((lp1
(lp2
S'state'
p3
aI0
aa(lp4
S'distance'
p5
aF275.0931091308594
aa(lp6
S'timestamp'
p7
aF3.436398983001709
aatp8
Rp9
.ccollections
OrderedDict
p0
((lp1
(lp2
S'state'
p3
aI0
aa(lp4
S'distance'
p5
aF275.0931091308594
aa(lp6
S'timestamp'
p7
aF3.436473846435547
aatp8
Rp9
.ccollections
OrderedDict
p0
((lp1
(lp2
S'state'
p3
aI0
aa(lp4
S'distance'
p5
aF275.0931091308594
aa(lp6
S'timestamp'
p7
aF3.436539888381958
aatp8
Rp9
.ccollections
OrderedDict
p0
((lp1
(lp2
S'state'
p3
aI0
aa(lp4
S'distance'
p5
aF275.0931091308594
aa(lp6
S'timestamp'
p7
aF3.465121030807495
aatp8
Rp9
.ccollections
OrderedDict
p0
((lp1
(lp2
S'state'
p3
aI0
aa(lp4
S'distance'
p5
aF275.0931091308594
aa(lp6
S'timestamp'
p7
aF3.4654009342193604
aatp8
Rp9
.ccollections
OrderedDict
p0
((lp1
(lp2
S'state'
p3
aI0
aa(lp4
S'distance'
p5
aF275.0931091308594
aa(lp6
S'timestamp'
p7
aF3.46726393699646
aatp8
Rp9
.ccollections
OrderedDict
p0
((lp1
(lp2
S'state'
p3
aI0
aa(lp4
S'distance'
p5
aF275.0931091308594
aa(lp6
S'timestamp'
p7
aF3.468095064163208
aatp8
Rp9
.ccollections
OrderedDict
p0
((lp1
(lp2
S'state'
p3
aI0
aa(lp4
S'distance'
p5
aF275.0931091308594
aa(lp6
S'timestamp'
p7
aF3.475127935409546
aatp8
Rp9
.ccollections
OrderedDict
p0
((lp1
(lp2
S'state'
p3
aI0
aa(lp4
S'distance'
p5
aF275.0931091308594
aa(lp6
S'timestamp'
p7
aF3.475836992263794
aatp8
Rp9
.ccollections
OrderedDict
p0
((lp1
(lp2
S'state'
p3
aI0
aa(lp4
S'distance'
p5
aF275.0931091308594
aa(lp6
S'timestamp'
p7
aF3.475909948348999
aatp8
Rp9
.ccollections
OrderedDict
p0
((lp1
(lp2
S'state'
p3
aI0
aa(lp4
S'distance'
p5
aF275.0931091308594
aa(lp6
S'timestamp'
p7
aF3.4765610694885254
aatp8
Rp9
.ccollections
OrderedDict
p0
((lp1
(lp2
S'state'
p3
aI0
aa(lp4
S'distance'
p5
aF275.0931091308594
aa(lp6
S'timestamp'
p7
aF3.485365867614746
aatp8
Rp9
.ccollections
OrderedDict
p0
((lp1
(lp2
S'state'
p3
aI0
aa(lp4
S'distance'
p5
aF275.0931091308594
aa(lp6
S'timestamp'
p7
aF3.485913038253784
aatp8
Rp9
.ccollections
OrderedDict
p0
((lp1
(lp2
S'state'
p3
aI0
aa(lp4
S'distance'
p5
aF275.0931091308594
aa(lp6
S'timestamp'
p7
aF3.4950740337371826
aatp8
Rp9
.ccollections
OrderedDict
p0
((lp1
(lp2
S'state'
p3
aI0
aa(lp4
S'distance'
p5
aF275.0931091308594
aa(lp6
S'timestamp'
p7
aF3.5061700344085693
aatp8
Rp9
.ccollections
OrderedDict
p0
((lp1
(lp2
S'state'
p3
aI0
aa(lp4
S'distance'
p5
aF275.0931091308594
aa(lp6
S'timestamp'
p7
aF3.5062918663024902
aatp8
Rp9
.ccollections
OrderedDict
p0
((lp1
(lp2
S'state'
p3
aI0
aa(lp4
S'distance'
p5
aF275.0931091308594
aa(lp6
S'timestamp'
p7
aF3.5063700675964355
aatp8
Rp9
.ccollections
OrderedDict
p0
((lp1
(lp2
S'state'
p3
aI0
aa(lp4
S'distance'
p5
aF275.0931091308594
aa(lp6
S'timestamp'
p7
aF3.5150458812713623
aatp8
Rp9
.ccollections
OrderedDict
p0
((lp1
(lp2
S'state'
p3
aI0
aa(lp4
S'distance'
p5
aF275.0931091308594
aa(lp6
S'timestamp'
p7
aF3.515594959259033
aatp8
Rp9
.ccollections
OrderedDict
p0
((lp1
(lp2
S'state'
p3
aI0
aa(lp4
S'distance'
p5
aF275.0931091308594
aa(lp6
S'timestamp'
p7
aF3.5252199172973633
aatp8
Rp9
.ccollections
OrderedDict
p0
((lp1
(lp2
S'state'
p3
aI0
aa(lp4
S'distance'
p5
aF275.0931091308594
aa(lp6
S'timestamp'
p7
aF3.5264840126037598
aatp8
Rp9
.ccollections
OrderedDict
p0
((lp1
(lp2
S'state'
p3
aI400
aa(lp4
S'distance'
p5
aF275.0931091308594
aa(lp6
S'timestamp'
p7
aF3.535407066345215
aatp8
Rp9
.ccollections
OrderedDict
p0
((lp1
(lp2
S'state'
p3
aI400
aa(lp4
S'distance'
p5
aF275.0931091308594
aa(lp6
S'timestamp'
p7
aF3.535629987716675
aatp8
Rp9
.ccollections
OrderedDict
p0
((lp1
(lp2
S'state'
p3
aI400
aa(lp4
S'distance'
p5
aF275.0931091308594
aa(lp6
S'timestamp'
p7
aF3.545106887817383
aatp8
Rp9
.ccollections
OrderedDict
p0
((lp1
(lp2
S'state'
p3
aI400
aa(lp4
S'distance'
p5
aF275.0931091308594
aa(lp6
S'timestamp'
p7
aF3.545635938644409
aatp8
Rp9
.ccollections
OrderedDict
p0
((lp1
(lp2
S'state'
p3
aI400
aa(lp4
S'distance'
p5
aF275.0931091308594
aa(lp6
S'timestamp'
p7
aF3.5578510761260986
aatp8
Rp9
.ccollections
OrderedDict
p0
((lp1
(lp2
S'state'
p3
aI400
aa(lp4
S'distance'
p5
aF275.0931091308594
aa(lp6
S'timestamp'
p7
aF3.5584168434143066
aatp8
Rp9
.ccollections
OrderedDict
p0
((lp1
(lp2
S'state'
p3
aI400
aa(lp4
S'distance'
p5
aF275.0931091308594
aa(lp6
S'timestamp'
p7
aF3.578436851501465
aatp8
Rp9
.ccollections
OrderedDict
p0
((lp1
(lp2
S'state'
p3
aI400
aa(lp4
S'distance'
p5
aF275.0931091308594
aa(lp6
S'timestamp'
p7
aF3.5786290168762207
aatp8
Rp9
.ccollections
OrderedDict
p0
((lp1
(lp2
S'state'
p3
aI400
aa(lp4
S'distance'
p5
aF275.0931091308594
aa(lp6
S'timestamp'
p7
aF3.5789809226989746
aatp8
Rp9
.ccollections
OrderedDict
p0
((lp1
(lp2
S'state'
p3
aI400
aa(lp4
S'distance'
p5
aF275.0931091308594
aa(lp6
S'timestamp'
p7
aF3.579124927520752
aatp8
Rp9
.ccollections
OrderedDict
p0
((lp1
(lp2
S'state'
p3
aI400
aa(lp4
S'distance'
p5
aF275.0931091308594
aa(lp6
S'timestamp'
p7
aF3.5866799354553223
aatp8
Rp9
.ccollections
OrderedDict
p0
((lp1
(lp2
S'state'
p3
aI400
aa(lp4
S'distance'
p5
aF275.0931091308594
aa(lp6
S'timestamp'
p7
aF3.591251850128174
aatp8
Rp9
.ccollections
OrderedDict
p0
((lp1
(lp2
S'state'
p3
aI400
aa(lp4
S'distance'
p5
aF275.0931091308594
aa(lp6
S'timestamp'
p7
aF3.6063618659973145
aatp8
Rp9
.ccollections
OrderedDict
p0
((lp1
(lp2
S'state'
p3
aI400
aa(lp4
S'distance'
p5
aF275.0931091308594
aa(lp6
S'timestamp'
p7
aF3.6068389415740967
aatp8
Rp9
.ccollections
OrderedDict
p0
((lp1
(lp2
S'state'
p3
aI400
aa(lp4
S'distance'
p5
aF275.0931091308594
aa(lp6
S'timestamp'
p7
aF3.612344980239868
aatp8
Rp9
.ccollections
OrderedDict
p0
((lp1
(lp2
S'state'
p3
aI400
aa(lp4
S'distance'
p5
aF275.0931091308594
aa(lp6
S'timestamp'
p7
aF3.6125900745391846
aatp8
Rp9
.ccollections
OrderedDict
p0
((lp1
(lp2
S'state'
p3
aI400
aa(lp4
S'distance'
p5
aF275.0931091308594
aa(lp6
S'timestamp'
p7
aF3.6255440711975098
aatp8
Rp9
.ccollections
OrderedDict
p0
((lp1
(lp2
S'state'
p3
aI400
aa(lp4
S'distance'
p5
aF275.0931091308594
aa(lp6
S'timestamp'
p7
aF3.629138946533203
aatp8
Rp9
.ccollections
OrderedDict
p0
((lp1
(lp2
S'state'
p3
aI400
aa(lp4
S'distance'
p5
aF275.0931091308594
aa(lp6
S'timestamp'
p7
aF3.629351854324341
aatp8
Rp9
.ccollections
OrderedDict
p0
((lp1
(lp2
S'state'
p3
aI400
aa(lp4
S'distance'
p5
aF275.0931091308594
aa(lp6
S'timestamp'
p7
aF3.629507064819336
aatp8
Rp9
.ccollections
OrderedDict
p0
((lp1
(lp2
S'state'
p3
aI400
aa(lp4
S'distance'
p5
aF275.0931091308594
aa(lp6
S'timestamp'
p7
aF3.6494040489196777
aatp8
Rp9
.ccollections
OrderedDict
p0
((lp1
(lp2
S'state'
p3
aI400
aa(lp4
S'distance'
p5
aF275.0931091308594
aa(lp6
S'timestamp'
p7
aF3.6499898433685303
aatp8
Rp9
.ccollections
OrderedDict
p0
((lp1
(lp2
S'state'
p3
aI400
aa(lp4
S'distance'
p5
aF275.0931091308594
aa(lp6
S'timestamp'
p7
aF3.652972936630249
aatp8
Rp9
.ccollections
OrderedDict
p0
((lp1
(lp2
S'state'
p3
aI400
aa(lp4
S'distance'
p5
aF275.0931091308594
aa(lp6
S'timestamp'
p7
aF3.653188943862915
aatp8
Rp9
.ccollections
OrderedDict
p0
((lp1
(lp2
S'state'
p3
aI400
aa(lp4
S'distance'
p5
aF275.0931091308594
aa(lp6
S'timestamp'
p7
aF3.6564929485321045
aatp8
Rp9
.ccollections
OrderedDict
p0
((lp1
(lp2
S'state'
p3
aI400
aa(lp4
S'distance'
p5
aF275.0931091308594
aa(lp6
S'timestamp'
p7
aF3.6566479206085205
aatp8
Rp9
.ccollections
OrderedDict
p0
((lp1
(lp2
S'state'
p3
aI400
aa(lp4
S'distance'
p5
aF275.0931091308594
aa(lp6
S'timestamp'
p7
aF3.6655240058898926
aatp8
Rp9
.ccollections
OrderedDict
p0
((lp1
(lp2
S'state'
p3
aI400
aa(lp4
S'distance'
p5
aF275.0931091308594
aa(lp6
S'timestamp'
p7
aF3.6664228439331055
aatp8
Rp9
.ccollections
OrderedDict
p0
((lp1
(lp2
S'state'
p3
aI400
aa(lp4
S'distance'
p5
aF275.0931091308594
aa(lp6
S'timestamp'
p7
aF3.675020933151245
aatp8
Rp9
.ccollections
OrderedDict
p0
((lp1
(lp2
S'state'
p3
aI400
aa(lp4
S'distance'
p5
aF275.0931091308594
aa(lp6
S'timestamp'
p7
aF3.6759798526763916
aatp8
Rp9
.ccollections
OrderedDict
p0
((lp1
(lp2
S'state'
p3
aI400
aa(lp4
S'distance'
p5
aF275.0931091308594
aa(lp6
S'timestamp'
p7
aF3.6852529048919678
aatp8
Rp9
.ccollections
OrderedDict
p0
((lp1
(lp2
S'state'
p3
aI400
aa(lp4
S'distance'
p5
aF275.0931091308594
aa(lp6
S'timestamp'
p7
aF3.6853978633880615
aatp8
Rp9
.ccollections
OrderedDict
p0
((lp1
(lp2
S'state'
p3
aI400
aa(lp4
S'distance'
p5
aF275.0931091308594
aa(lp6
S'timestamp'
p7
aF3.6952168941497803
aatp8
Rp9
.ccollections
OrderedDict
p0
((lp1
(lp2
S'state'
p3
aI400
aa(lp4
S'distance'
p5
aF275.0931091308594
aa(lp6
S'timestamp'
p7
aF3.6957340240478516
aatp8
Rp9
.ccollections
OrderedDict
p0
((lp1
(lp2
S'state'
p3
aI400
aa(lp4
S'distance'
p5
aF275.0931091308594
aa(lp6
S'timestamp'
p7
aF3.7154879570007324
aatp8
Rp9
.ccollections
OrderedDict
p0
((lp1
(lp2
S'state'
p3
aI400
aa(lp4
S'distance'
p5
aF275.0931091308594
aa(lp6
S'timestamp'
p7
aF3.715595006942749
aatp8
Rp9
.ccollections
OrderedDict
p0
((lp1
(lp2
S'state'
p3
aI400
aa(lp4
S'distance'
p5
aF275.0931091308594
aa(lp6
S'timestamp'
p7
aF3.715888023376465
aatp8
Rp9
.ccollections
OrderedDict
p0
((lp1
(lp2
S'state'
p3
aI400
aa(lp4
S'distance'
p5
aF275.0931091308594
aa(lp6
S'timestamp'
p7
aF3.7163639068603516
aatp8
Rp9
.ccollections
OrderedDict
p0
((lp1
(lp2
S'state'
p3
aI400
aa(lp4
S'distance'
p5
aF275.0931091308594
aa(lp6
S'timestamp'
p7
aF3.7250800132751465
aatp8
Rp9
.ccollections
OrderedDict
p0
((lp1
(lp2
S'state'
p3
aI400
aa(lp4
S'distance'
p5
aF275.0931091308594
aa(lp6
S'timestamp'
p7
aF3.7253739833831787
aatp8
Rp9
.ccollections
OrderedDict
p0
((lp1
(lp2
S'state'
p3
aI400
aa(lp4
S'distance'
p5
aF275.0931091308594
aa(lp6
S'timestamp'
p7
aF3.735076904296875
aatp8
Rp9
.ccollections
OrderedDict
p0
((lp1
(lp2
S'state'
p3
aI400
aa(lp4
S'distance'
p5
aF275.0931091308594
aa(lp6
S'timestamp'
p7
aF3.735930919647217
aatp8
Rp9
.ccollections
OrderedDict
p0
((lp1
(lp2
S'state'
p3
aI400
aa(lp4
S'distance'
p5
aF275.0931091308594
aa(lp6
S'timestamp'
p7
aF3.7452139854431152
aatp8
Rp9
.ccollections
OrderedDict
p0
((lp1
(lp2
S'state'
p3
aI400
aa(lp4
S'distance'
p5
aF275.0931091308594
aa(lp6
S'timestamp'
p7
aF3.745466947555542
aatp8
Rp9
.ccollections
OrderedDict
p0
((lp1
(lp2
S'state'
p3
aI400
aa(lp4
S'distance'
p5
aF275.0931091308594
aa(lp6
S'timestamp'
p7
aF3.755228042602539
aatp8
Rp9
.ccollections
OrderedDict
p0
((lp1
(lp2
S'state'
p3
aI400
aa(lp4
S'distance'
p5
aF275.0931091308594
aa(lp6
S'timestamp'
p7
aF3.755504846572876
aatp8
Rp9
.ccollections
OrderedDict
p0
((lp1
(lp2
S'state'
p3
aI400
aa(lp4
S'distance'
p5
aF275.0931091308594
aa(lp6
S'timestamp'
p7
aF3.7651028633117676
aatp8
Rp9
.ccollections
OrderedDict
p0
((lp1
(lp2
S'state'
p3
aI400
aa(lp4
S'distance'
p5
aF275.0931091308594
aa(lp6
S'timestamp'
p7
aF3.76542592048645
aatp8
Rp9
.ccollections
OrderedDict
p0
((lp1
(lp2
S'state'
p3
aI400
aa(lp4
S'distance'
p5
aF275.0931091308594
aa(lp6
S'timestamp'
p7
aF3.785412073135376
aatp8
Rp9
.ccollections
OrderedDict
p0
((lp1
(lp2
S'state'
p3
aI400
aa(lp4
S'distance'
p5
aF275.0931091308594
aa(lp6
S'timestamp'
p7
aF3.785645008087158
aatp8
Rp9
.ccollections
OrderedDict
p0
((lp1
(lp2
S'state'
p3
aI400
aa(lp4
S'distance'
p5
aF275.0931091308594
aa(lp6
S'timestamp'
p7
aF3.785862922668457
aatp8
Rp9
.ccollections
OrderedDict
p0
((lp1
(lp2
S'state'
p3
aI400
aa(lp4
S'distance'
p5
aF275.0931091308594
aa(lp6
S'timestamp'
p7
aF3.787061929702759
aatp8
Rp9
.ccollections
OrderedDict
p0
((lp1
(lp2
S'state'
p3
aI400
aa(lp4
S'distance'
p5
aF275.0931091308594
aa(lp6
S'timestamp'
p7
aF3.7951550483703613
aatp8
Rp9
.ccollections
OrderedDict
p0
((lp1
(lp2
S'state'
p3
aI400
aa(lp4
S'distance'
p5
aF275.0931091308594
aa(lp6
S'timestamp'
p7
aF3.805109977722168
aatp8
Rp9
.ccollections
OrderedDict
p0
((lp1
(lp2
S'state'
p3
aI400
aa(lp4
S'distance'
p5
aF275.0931091308594
aa(lp6
S'timestamp'
p7
aF3.805722951889038
aatp8
Rp9
.ccollections
OrderedDict
p0
((lp1
(lp2
S'state'
p3
aI400
aa(lp4
S'distance'
p5
aF275.0931091308594
aa(lp6
S'timestamp'
p7
aF3.8058619499206543
aatp8
Rp9
.ccollections
OrderedDict
p0
((lp1
(lp2
S'state'
p3
aI400
aa(lp4
S'distance'
p5
aF275.0931091308594
aa(lp6
S'timestamp'
p7
aF3.8152449131011963
aatp8
Rp9
.ccollections
OrderedDict
p0
((lp1
(lp2
S'state'
p3
aI400
aa(lp4
S'distance'
p5
aF275.0931091308594
aa(lp6
S'timestamp'
p7
aF3.815635919570923
aatp8
Rp9
.ccollections
OrderedDict
p0
((lp1
(lp2
S'state'
p3
aI400
aa(lp4
S'distance'
p5
aF275.0931091308594
aa(lp6
S'timestamp'
p7
aF3.825160026550293
aatp8
Rp9
.ccollections
OrderedDict
p0
((lp1
(lp2
S'state'
p3
aI400
aa(lp4
S'distance'
p5
aF275.0931091308594
aa(lp6
S'timestamp'
p7
aF3.8254590034484863
aatp8
Rp9
.ccollections
OrderedDict
p0
((lp1
(lp2
S'state'
p3
aI400
aa(lp4
S'distance'
p5
aF275.0931091308594
aa(lp6
S'timestamp'
p7
aF3.845093011856079
aatp8
Rp9
.ccollections
OrderedDict
p0
((lp1
(lp2
S'state'
p3
aI400
aa(lp4
S'distance'
p5
aF275.0931091308594
aa(lp6
S'timestamp'
p7
aF3.8457648754119873
aatp8
Rp9
.ccollections
OrderedDict
p0
((lp1
(lp2
S'state'
p3
aI400
aa(lp4
S'distance'
p5
aF275.0931091308594
aa(lp6
S'timestamp'
p7
aF3.845828056335449
aatp8
Rp9
.ccollections
OrderedDict
p0
((lp1
(lp2
S'state'
p3
aI400
aa(lp4
S'distance'
p5
aF275.0931091308594
aa(lp6
S'timestamp'
p7
aF3.8466129302978516
aatp8
Rp9
.ccollections
OrderedDict
p0
((lp1
(lp2
S'state'
p3
aI400
aa(lp4
S'distance'
p5
aF275.0931091308594
aa(lp6
S'timestamp'
p7
aF3.86513090133667
aatp8
Rp9
.ccollections
OrderedDict
p0
((lp1
(lp2
S'state'
p3
aI400
aa(lp4
S'distance'
p5
aF275.0931091308594
aa(lp6
S'timestamp'
p7
aF3.8751418590545654
aatp8
Rp9
.ccollections
OrderedDict
p0
((lp1
(lp2
S'state'
p3
aI400
aa(lp4
S'distance'
p5
aF275.0931091308594
aa(lp6
S'timestamp'
p7
aF3.8753159046173096
aatp8
Rp9
.ccollections
OrderedDict
p0
((lp1
(lp2
S'state'
p3
aI400
aa(lp4
S'distance'
p5
aF275.0931091308594
aa(lp6
S'timestamp'
p7
aF3.876046895980835
aatp8
Rp9
.ccollections
OrderedDict
p0
((lp1
(lp2
S'state'
p3
aI400
aa(lp4
S'distance'
p5
aF275.0931091308594
aa(lp6
S'timestamp'
p7
aF3.8772740364074707
aatp8
Rp9
.ccollections
OrderedDict
p0
((lp1
(lp2
S'state'
p3
aI400
aa(lp4
S'distance'
p5
aF275.0931091308594
aa(lp6
S'timestamp'
p7
aF3.8851239681243896
aatp8
Rp9
.ccollections
OrderedDict
p0
((lp1
(lp2
S'state'
p3
aI400
aa(lp4
S'distance'
p5
aF275.0931091308594
aa(lp6
S'timestamp'
p7
aF3.8855440616607666
aatp8
Rp9
.ccollections
OrderedDict
p0
((lp1
(lp2
S'state'
p3
aI400
aa(lp4
S'distance'
p5
aF275.0931091308594
aa(lp6
S'timestamp'
p7
aF3.8869528770446777
aatp8
Rp9
.ccollections
OrderedDict
p0
((lp1
(lp2
S'state'
p3
aI400
aa(lp4
S'distance'
p5
aF275.0931091308594
aa(lp6
S'timestamp'
p7
aF3.8950729370117188
aatp8
Rp9
.ccollections
OrderedDict
p0
((lp1
(lp2
S'state'
p3
aI400
aa(lp4
S'distance'
p5
aF275.0931091308594
aa(lp6
S'timestamp'
p7
aF3.8956170082092285
aatp8
Rp9
.ccollections
OrderedDict
p0
((lp1
(lp2
S'state'
p3
aI400
aa(lp4
S'distance'
p5
aF275.0931091308594
aa(lp6
S'timestamp'
p7
aF3.905271053314209
aatp8
Rp9
.ccollections
OrderedDict
p0
((lp1
(lp2
S'state'
p3
aI400
aa(lp4
S'distance'
p5
aF275.0931091308594
aa(lp6
S'timestamp'
p7
aF3.9057559967041016
aatp8
Rp9
.ccollections
OrderedDict
p0
((lp1
(lp2
S'state'
p3
aI400
aa(lp4
S'distance'
p5
aF275.0931091308594
aa(lp6
S'timestamp'
p7
aF3.915212869644165
aatp8
Rp9
.ccollections
OrderedDict
p0
((lp1
(lp2
S'state'
p3
aI400
aa(lp4
S'distance'
p5
aF275.0931091308594
aa(lp6
S'timestamp'
p7
aF3.9154179096221924
aatp8
Rp9
.ccollections
OrderedDict
p0
((lp1
(lp2
S'state'
p3
aI400
aa(lp4
S'distance'
p5
aF275.0931091308594
aa(lp6
S'timestamp'
p7
aF3.925205945968628
aatp8
Rp9
.ccollections
OrderedDict
p0
((lp1
(lp2
S'state'
p3
aI400
aa(lp4
S'distance'
p5
aF275.0931091308594
aa(lp6
S'timestamp'
p7
aF3.9258170127868652
aatp8
Rp9
.ccollections
OrderedDict
p0
((lp1
(lp2
S'state'
p3
aI400
aa(lp4
S'distance'
p5
aF275.0931091308594
aa(lp6
S'timestamp'
p7
aF3.9350969791412354
aatp8
Rp9
.ccollections
OrderedDict
p0
((lp1
(lp2
S'state'
p3
aI400
aa(lp4
S'distance'
p5
aF275.0931091308594
aa(lp6
S'timestamp'
p7
aF3.935762882232666
aatp8
Rp9
.ccollections
OrderedDict
p0
((lp1
(lp2
S'state'
p3
aI400
aa(lp4
S'distance'
p5
aF275.0931091308594
aa(lp6
S'timestamp'
p7
aF3.945129871368408
aatp8
Rp9
.ccollections
OrderedDict
p0
((lp1
(lp2
S'state'
p3
aI400
aa(lp4
S'distance'
p5
aF275.0931091308594
aa(lp6
S'timestamp'
p7
aF3.945702075958252
aatp8
Rp9
.ccollections
OrderedDict
p0
((lp1
(lp2
S'state'
p3
aI400
aa(lp4
S'distance'
p5
aF275.0931091308594
aa(lp6
S'timestamp'
p7
aF3.9552218914031982
aatp8
Rp9
.ccollections
OrderedDict
p0
((lp1
(lp2
S'state'
p3
aI400
aa(lp4
S'distance'
p5
aF275.0931091308594
aa(lp6
S'timestamp'
p7
aF3.9554049968719482
aatp8
Rp9
.ccollections
OrderedDict
p0
((lp1
(lp2
S'state'
p3
aI400
aa(lp4
S'distance'
p5
aF275.0931091308594
aa(lp6
S'timestamp'
p7
aF3.9654650688171387
aatp8
Rp9
.ccollections
OrderedDict
p0
((lp1
(lp2
S'state'
p3
aI400
aa(lp4
S'distance'
p5
aF275.0931091308594
aa(lp6
S'timestamp'
p7
aF3.965580940246582
aatp8
Rp9
.ccollections
OrderedDict
p0
((lp1
(lp2
S'state'
p3
aI400
aa(lp4
S'distance'
p5
aF275.0931091308594
aa(lp6
S'timestamp'
p7
aF3.9765870571136475
aatp8
Rp9
.ccollections
OrderedDict
p0
((lp1
(lp2
S'state'
p3
aI400
aa(lp4
S'distance'
p5
aF275.0931091308594
aa(lp6
S'timestamp'
p7
aF3.976654052734375
aatp8
Rp9
.ccollections
OrderedDict
p0
((lp1
(lp2
S'state'
p3
aI400
aa(lp4
S'distance'
p5
aF275.0931091308594
aa(lp6
S'timestamp'
p7
aF3.985234022140503
aatp8
Rp9
.ccollections
OrderedDict
p0
((lp1
(lp2
S'state'
p3
aI400
aa(lp4
S'distance'
p5
aF275.0931091308594
aa(lp6
S'timestamp'
p7
aF3.9860849380493164
aatp8
Rp9
.ccollections
OrderedDict
p0
((lp1
(lp2
S'state'
p3
aI400
aa(lp4
S'distance'
p5
aF275.0931091308594
aa(lp6
S'timestamp'
p7
aF4.005610942840576
aatp8
Rp9
.ccollections
OrderedDict
p0
((lp1
(lp2
S'state'
p3
aI400
aa(lp4
S'distance'
p5
aF275.0931091308594
aa(lp6
S'timestamp'
p7
aF4.005773067474365
aatp8
Rp9
.ccollections
OrderedDict
p0
((lp1
(lp2
S'state'
p3
aI400
aa(lp4
S'distance'
p5
aF275.0931091308594
aa(lp6
S'timestamp'
p7
aF4.005845069885254
aatp8
Rp9
.ccollections
OrderedDict
p0
((lp1
(lp2
S'state'
p3
aI400
aa(lp4
S'distance'
p5
aF275.0931091308594
aa(lp6
S'timestamp'
p7
aF4.006757974624634
aatp8
Rp9
.ccollections
OrderedDict
p0
((lp1
(lp2
S'state'
p3
aI400
aa(lp4
S'distance'
p5
aF275.0931091308594
aa(lp6
S'timestamp'
p7
aF4.015121936798096
aatp8
Rp9
.ccollections
OrderedDict
p0
((lp1
(lp2
S'state'
p3
aI400
aa(lp4
S'distance'
p5
aF275.0931091308594
aa(lp6
S'timestamp'
p7
aF4.016036033630371
aatp8
Rp9
.ccollections
OrderedDict
p0
((lp1
(lp2
S'state'
p3
aI400
aa(lp4
S'distance'
p5
aF275.0931091308594
aa(lp6
S'timestamp'
p7
aF4.02514386177063
aatp8
Rp9
.ccollections
OrderedDict
p0
((lp1
(lp2
S'state'
p3
aI400
aa(lp4
S'distance'
p5
aF275.0931091308594
aa(lp6
S'timestamp'
p7
aF4.025645971298218
aatp8
Rp9
.ccollections
OrderedDict
p0
((lp1
(lp2
S'state'
p3
aI400
aa(lp4
S'distance'
p5
aF275.0931091308594
aa(lp6
S'timestamp'
p7
aF4.035318851470947
aatp8
Rp9
.ccollections
OrderedDict
p0
((lp1
(lp2
S'state'
p3
aI400
aa(lp4
S'distance'
p5
aF275.0931091308594
aa(lp6
S'timestamp'
p7
aF4.0360119342803955
aatp8
Rp9
.ccollections
OrderedDict
p0
((lp1
(lp2
S'state'
p3
aI400
aa(lp4
S'distance'
p5
aF275.0931091308594
aa(lp6
S'timestamp'
p7
aF4.0462470054626465
aatp8
Rp9
.ccollections
OrderedDict
p0
((lp1
(lp2
S'state'
p3
aI400
aa(lp4
S'distance'
p5
aF275.0931091308594
aa(lp6
S'timestamp'
p7
aF4.046328067779541
aatp8
Rp9
.ccollections
OrderedDict
p0
((lp1
(lp2
S'state'
p3
aI400
aa(lp4
S'distance'
p5
aF275.0931091308594
aa(lp6
S'timestamp'
p7
aF4.055738925933838
aatp8
Rp9
.ccollections
OrderedDict
p0
((lp1
(lp2
S'state'
p3
aI400
aa(lp4
S'distance'
p5
aF275.0931091308594
aa(lp6
S'timestamp'
p7
aF4.056589841842651
aatp8
Rp9
.ccollections
OrderedDict
p0
((lp1
(lp2
S'state'
p3
aI400
aa(lp4
S'distance'
p5
aF275.0931091308594
aa(lp6
S'timestamp'
p7
aF4.065100908279419
aatp8
Rp9
.ccollections
OrderedDict
p0
((lp1
(lp2
S'state'
p3
aI400
aa(lp4
S'distance'
p5
aF275.0931091308594
aa(lp6
S'timestamp'
p7
aF4.066532850265503
aatp8
Rp9
.ccollections
OrderedDict
p0
((lp1
(lp2
S'state'
p3
aI400
aa(lp4
S'distance'
p5
aF275.0931091308594
aa(lp6
S'timestamp'
p7
aF4.075176954269409
aatp8
Rp9
.ccollections
OrderedDict
p0
((lp1
(lp2
S'state'
p3
aI400
aa(lp4
S'distance'
p5
aF275.0931091308594
aa(lp6
S'timestamp'
p7
aF4.075927019119263
aatp8
Rp9
.ccollections
OrderedDict
p0
((lp1
(lp2
S'state'
p3
aI400
aa(lp4
S'distance'
p5
aF275.0931091308594
aa(lp6
S'timestamp'
p7
aF4.085766077041626
aatp8
Rp9
.ccollections
OrderedDict
p0
((lp1
(lp2
S'state'
p3
aI400
aa(lp4
S'distance'
p5
aF275.0931091308594
aa(lp6
S'timestamp'
p7
aF4.0858399868011475
aatp8
Rp9
.ccollections
OrderedDict
p0
((lp1
(lp2
S'state'
p3
aI400
aa(lp4
S'distance'
p5
aF275.0931091308594
aa(lp6
S'timestamp'
p7
aF4.095067977905273
aatp8
Rp9
.ccollections
OrderedDict
p0
((lp1
(lp2
S'state'
p3
aI400
aa(lp4
S'distance'
p5
aF275.0931091308594
aa(lp6
S'timestamp'
p7
aF4.095934867858887
aatp8
Rp9
.ccollections
OrderedDict
p0
((lp1
(lp2
S'state'
p3
aI400
aa(lp4
S'distance'
p5
aF275.0931091308594
aa(lp6
S'timestamp'
p7
aF4.105690002441406
aatp8
Rp9
.ccollections
OrderedDict
p0
((lp1
(lp2
S'state'
p3
aI400
aa(lp4
S'distance'
p5
aF275.0931091308594
aa(lp6
S'timestamp'
p7
aF4.105777978897095
aatp8
Rp9
.ccollections
OrderedDict
p0
((lp1
(lp2
S'state'
p3
aI400
aa(lp4
S'distance'
p5
aF275.0931091308594
aa(lp6
S'timestamp'
p7
aF4.115530967712402
aatp8
Rp9
.ccollections
OrderedDict
p0
((lp1
(lp2
S'state'
p3
aI400
aa(lp4
S'distance'
p5
aF275.0931091308594
aa(lp6
S'timestamp'
p7
aF4.115647077560425
aatp8
Rp9
.ccollections
OrderedDict
p0
((lp1
(lp2
S'state'
p3
aI400
aa(lp4
S'distance'
p5
aF275.0931091308594
aa(lp6
S'timestamp'
p7
aF4.1364099979400635
aatp8
Rp9
.ccollections
OrderedDict
p0
((lp1
(lp2
S'state'
p3
aI400
aa(lp4
S'distance'
p5
aF275.0931091308594
aa(lp6
S'timestamp'
p7
aF4.136481046676636
aatp8
Rp9
.ccollections
OrderedDict
p0
((lp1
(lp2
S'state'
p3
aI400
aa(lp4
S'distance'
p5
aF275.0931091308594
aa(lp6
S'timestamp'
p7
aF4.136545896530151
aatp8
Rp9
.ccollections
OrderedDict
p0
((lp1
(lp2
S'state'
p3
aI400
aa(lp4
S'distance'
p5
aF275.0931091308594
aa(lp6
S'timestamp'
p7
aF4.137434959411621
aatp8
Rp9
.ccollections
OrderedDict
p0
((lp1
(lp2
S'state'
p3
aI400
aa(lp4
S'distance'
p5
aF275.0931091308594
aa(lp6
S'timestamp'
p7
aF4.145025968551636
aatp8
Rp9
.ccollections
OrderedDict
p0
((lp1
(lp2
S'state'
p3
aI400
aa(lp4
S'distance'
p5
aF275.0931091308594
aa(lp6
S'timestamp'
p7
aF4.145954847335815
aatp8
Rp9
.ccollections
OrderedDict
p0
((lp1
(lp2
S'state'
p3
aI400
aa(lp4
S'distance'
p5
aF275.0931091308594
aa(lp6
S'timestamp'
p7
aF4.155241966247559
aatp8
Rp9
.ccollections
OrderedDict
p0
((lp1
(lp2
S'state'
p3
aI400
aa(lp4
S'distance'
p5
aF275.0931091308594
aa(lp6
S'timestamp'
p7
aF4.1561009883880615
aatp8
Rp9
.ccollections
OrderedDict
p0
((lp1
(lp2
S'state'
p3
aI400
aa(lp4
S'distance'
p5
aF275.0931091308594
aa(lp6
S'timestamp'
p7
aF4.165092945098877
aatp8
Rp9
.ccollections
OrderedDict
p0
((lp1
(lp2
S'state'
p3
aI400
aa(lp4
S'distance'
p5
aF275.0931091308594
aa(lp6
S'timestamp'
p7
aF4.166630983352661
aatp8
Rp9
.ccollections
OrderedDict
p0
((lp1
(lp2
S'state'
p3
aI400
aa(lp4
S'distance'
p5
aF275.0931091308594
aa(lp6
S'timestamp'
p7
aF4.175648927688599
aatp8
Rp9
.ccollections
OrderedDict
p0
((lp1
(lp2
S'state'
p3
aI400
aa(lp4
S'distance'
p5
aF275.0931091308594
aa(lp6
S'timestamp'
p7
aF4.175726890563965
aatp8
Rp9
.ccollections
OrderedDict
p0
((lp1
(lp2
S'state'
p3
aI400
aa(lp4
S'distance'
p5
aF275.0931091308594
aa(lp6
S'timestamp'
p7
aF4.185741901397705
aatp8
Rp9
.ccollections
OrderedDict
p0
((lp1
(lp2
S'state'
p3
aI400
aa(lp4
S'distance'
p5
aF275.0931091308594
aa(lp6
S'timestamp'
p7
aF4.186153888702393
aatp8
Rp9
.ccollections
OrderedDict
p0
((lp1
(lp2
S'state'
p3
aI400
aa(lp4
S'distance'
p5
aF275.0931091308594
aa(lp6
S'timestamp'
p7
aF4.1951189041137695
aatp8
Rp9
.ccollections
OrderedDict
p0
((lp1
(lp2
S'state'
p3
aI400
aa(lp4
S'distance'
p5
aF275.0931091308594
aa(lp6
S'timestamp'
p7
aF4.195668935775757
aatp8
Rp9
.ccollections
OrderedDict
p0
((lp1
(lp2
S'state'
p3
aI0
aa(lp4
S'distance'
p5
aF275.0931091308594
aa(lp6
S'timestamp'
p7
aF4.205236911773682
aatp8
Rp9
.ccollections
OrderedDict
p0
((lp1
(lp2
S'state'
p3
aI0
aa(lp4
S'distance'
p5
aF171.52037048339844
aa(lp6
S'timestamp'
p7
aF4.826602935791016
aatp8
Rp9
.ccollections
OrderedDict
p0
((lp1
(lp2
S'state'
p3
aI0
aa(lp4
S'distance'
p5
aF171.52037048339844
aa(lp6
S'timestamp'
p7
aF4.837782859802246
aatp8
Rp9
.ccollections
OrderedDict
p0
((lp1
(lp2
S'state'
p3
aI0
aa(lp4
S'distance'
p5
aF171.52037048339844
aa(lp6
S'timestamp'
p7
aF4.83870005607605
aatp8
Rp9
.ccollections
OrderedDict
p0
((lp1
(lp2
S'state'
p3
aI0
aa(lp4
S'distance'
p5
aF171.52037048339844
aa(lp6
S'timestamp'
p7
aF4.845500946044922
aatp8
Rp9
.ccollections
OrderedDict
p0
((lp1
(lp2
S'state'
p3
aI0
aa(lp4
S'distance'
p5
aF171.52037048339844
aa(lp6
S'timestamp'
p7
aF4.846124887466431
aatp8
Rp9
.ccollections
OrderedDict
p0
((lp1
(lp2
S'state'
p3
aI0
aa(lp4
S'distance'
p5
aF171.52037048339844
aa(lp6
S'timestamp'
p7
aF4.8557329177856445
aatp8
Rp9
.ccollections
OrderedDict
p0
((lp1
(lp2
S'state'
p3
aI0
aa(lp4
S'distance'
p5
aF171.52037048339844
aa(lp6
S'timestamp'
p7
aF4.856250047683716
aatp8
Rp9
.ccollections
OrderedDict
p0
((lp1
(lp2
S'state'
p3
aI0
aa(lp4
S'distance'
p5
aF171.52037048339844
aa(lp6
S'timestamp'
p7
aF4.865617036819458
aatp8
Rp9
.ccollections
OrderedDict
p0
((lp1
(lp2
S'state'
p3
aI0
aa(lp4
S'distance'
p5
aF171.52037048339844
aa(lp6
S'timestamp'
p7
aF4.86570405960083
aatp8
Rp9
.ccollections
OrderedDict
p0
((lp1
(lp2
S'state'
p3
aI0
aa(lp4
S'distance'
p5
aF171.52037048339844
aa(lp6
S'timestamp'
p7
aF4.875524044036865
aatp8
Rp9
.ccollections
OrderedDict
p0
((lp1
(lp2
S'state'
p3
aI0
aa(lp4
S'distance'
p5
aF171.52037048339844
aa(lp6
S'timestamp'
p7
aF4.875625848770142
aatp8
Rp9
.ccollections
OrderedDict
p0
((lp1
(lp2
S'state'
p3
aI0
aa(lp4
S'distance'
p5
aF171.52037048339844
aa(lp6
S'timestamp'
p7
aF4.8954339027404785
aatp8
Rp9
.ccollections
OrderedDict
p0
((lp1
(lp2
S'state'
p3
aI0
aa(lp4
S'distance'
p5
aF171.52037048339844
aa(lp6
S'timestamp'
p7
aF4.896362066268921
aatp8
Rp9
.ccollections
OrderedDict
p0
((lp1
(lp2
S'state'
p3
aI0
aa(lp4
S'distance'
p5
aF171.52037048339844
aa(lp6
S'timestamp'
p7
aF4.896436929702759
aatp8
Rp9
.ccollections
OrderedDict
p0
((lp1
(lp2
S'state'
p3
aI0
aa(lp4
S'distance'
p5
aF171.52037048339844
aa(lp6
S'timestamp'
p7
aF4.8965020179748535
aatp8
Rp9
.ccollections
OrderedDict
p0
((lp1
(lp2
S'state'
p3
aI0
aa(lp4
S'distance'
p5
aF171.52037048339844
aa(lp6
S'timestamp'
p7
aF4.905540943145752
aatp8
Rp9
.ccollections
OrderedDict
p0
((lp1
(lp2
S'state'
p3
aI0
aa(lp4
S'distance'
p5
aF171.52037048339844
aa(lp6
S'timestamp'
p7
aF4.905616044998169
aatp8
Rp9
.ccollections
OrderedDict
p0
((lp1
(lp2
S'state'
p3
aI0
aa(lp4
S'distance'
p5
aF171.52037048339844
aa(lp6
S'timestamp'
p7
aF4.915313959121704
aatp8
Rp9
.ccollections
OrderedDict
p0
((lp1
(lp2
S'state'
p3
aI0
aa(lp4
S'distance'
p5
aF171.52037048339844
aa(lp6
S'timestamp'
p7
aF4.9157750606536865
aatp8
Rp9
.ccollections
OrderedDict
p0
((lp1
(lp2
S'state'
p3
aI0
aa(lp4
S'distance'
p5
aF171.52037048339844
aa(lp6
S'timestamp'
p7
aF4.926118850708008
aatp8
Rp9
.ccollections
OrderedDict
p0
((lp1
(lp2
S'state'
p3
aI0
aa(lp4
S'distance'
p5
aF171.52037048339844
aa(lp6
S'timestamp'
p7
aF4.926188945770264
aatp8
Rp9
.ccollections
OrderedDict
p0
((lp1
(lp2
S'state'
p3
aI0
aa(lp4
S'distance'
p5
aF171.52037048339844
aa(lp6
S'timestamp'
p7
aF4.9356529712677
aatp8
Rp9
.ccollections
OrderedDict
p0
((lp1
(lp2
S'state'
p3
aI0
aa(lp4
S'distance'
p5
aF171.52037048339844
aa(lp6
S'timestamp'
p7
aF4.935730934143066
aatp8
Rp9
.ccollections
OrderedDict
p0
((lp1
(lp2
S'state'
p3
aI0
aa(lp4
S'distance'
p5
aF171.52037048339844
aa(lp6
S'timestamp'
p7
aF4.955595970153809
aatp8
Rp9
.ccollections
OrderedDict
p0
((lp1
(lp2
S'state'
p3
aI0
aa(lp4
S'distance'
p5
aF171.52037048339844
aa(lp6
S'timestamp'
p7
aF4.955664873123169
aatp8
Rp9
.ccollections
OrderedDict
p0
((lp1
(lp2
S'state'
p3
aI0
aa(lp4
S'distance'
p5
aF171.52037048339844
aa(lp6
S'timestamp'
p7
aF4.957057952880859
aatp8
Rp9
.ccollections
OrderedDict
p0
((lp1
(lp2
S'state'
p3
aI0
aa(lp4
S'distance'
p5
aF171.52037048339844
aa(lp6
S'timestamp'
p7
aF4.957751989364624
aatp8
Rp9
.ccollections
OrderedDict
p0
((lp1
(lp2
S'state'
p3
aI0
aa(lp4
S'distance'
p5
aF171.52037048339844
aa(lp6
S'timestamp'
p7
aF4.966372013092041
aatp8
Rp9
.ccollections
OrderedDict
p0
((lp1
(lp2
S'state'
p3
aI0
aa(lp4
S'distance'
p5
aF171.52037048339844
aa(lp6
S'timestamp'
p7
aF4.9664459228515625
aatp8
Rp9
.ccollections
OrderedDict
p0
((lp1
(lp2
S'state'
p3
aI0
aa(lp4
S'distance'
p5
aF171.52037048339844
aa(lp6
S'timestamp'
p7
aF4.975275993347168
aatp8
Rp9
.ccollections
OrderedDict
p0
((lp1
(lp2
S'state'
p3
aI0
aa(lp4
S'distance'
p5
aF171.52037048339844
aa(lp6
S'timestamp'
p7
aF4.986448049545288
aatp8
Rp9
.ccollections
OrderedDict
p0
((lp1
(lp2
S'state'
p3
aI0
aa(lp4
S'distance'
p5
aF171.52037048339844
aa(lp6
S'timestamp'
p7
aF4.986546039581299
aatp8
Rp9
.ccollections
OrderedDict
p0
((lp1
(lp2
S'state'
p3
aI0
aa(lp4
S'distance'
p5
aF171.52037048339844
aa(lp6
S'timestamp'
p7
aF4.986643075942993
aatp8
Rp9
.ccollections
OrderedDict
p0
((lp1
(lp2
S'state'
p3
aI0
aa(lp4
S'distance'
p5
aF171.52037048339844
aa(lp6
S'timestamp'
p7
aF4.995604991912842
aatp8
Rp9
.ccollections
OrderedDict
p0
((lp1
(lp2
S'state'
p3
aI0
aa(lp4
S'distance'
p5
aF171.52037048339844
aa(lp6
S'timestamp'
p7
aF4.995775938034058
aatp8
Rp9
.ccollections
OrderedDict
p0
((lp1
(lp2
S'state'
p3
aI0
aa(lp4
S'distance'
p5
aF171.52037048339844
aa(lp6
S'timestamp'
p7
aF5.005879878997803
aatp8
Rp9
.ccollections
OrderedDict
p0
((lp1
(lp2
S'state'
p3
aI0
aa(lp4
S'distance'
p5
aF171.52037048339844
aa(lp6
S'timestamp'
p7
aF5.005964994430542
aatp8
Rp9
.ccollections
OrderedDict
p0
((lp1
(lp2
S'state'
p3
aI0
aa(lp4
S'distance'
p5
aF171.52037048339844
aa(lp6
S'timestamp'
p7
aF5.025435924530029
aatp8
Rp9
.ccollections
OrderedDict
p0
((lp1
(lp2
S'state'
p3
aI0
aa(lp4
S'distance'
p5
aF171.52037048339844
aa(lp6
S'timestamp'
p7
aF5.027597904205322
aatp8
Rp9
.ccollections
OrderedDict
p0
((lp1
(lp2
S'state'
p3
aI0
aa(lp4
S'distance'
p5
aF171.52037048339844
aa(lp6
S'timestamp'
p7
aF5.0276758670806885
aatp8
Rp9
.ccollections
OrderedDict
p0
((lp1
(lp2
S'state'
p3
aI0
aa(lp4
S'distance'
p5
aF171.52037048339844
aa(lp6
S'timestamp'
p7
aF5.029157876968384
aatp8
Rp9
.ccollections
OrderedDict
p0
((lp1
(lp2
S'state'
p3
aI0
aa(lp4
S'distance'
p5
aF171.52037048339844
aa(lp6
S'timestamp'
p7
aF5.03510594367981
aatp8
Rp9
.ccollections
OrderedDict
p0
((lp1
(lp2
S'state'
p3
aI0
aa(lp4
S'distance'
p5
aF171.52037048339844
aa(lp6
S'timestamp'
p7
aF5.0361268520355225
aatp8
Rp9
.ccollections
OrderedDict
p0
((lp1
(lp2
S'state'
p3
aI0
aa(lp4
S'distance'
p5
aF171.52037048339844
aa(lp6
S'timestamp'
p7
aF5.046107053756714
aatp8
Rp9
.ccollections
OrderedDict
p0
((lp1
(lp2
S'state'
p3
aI0
aa(lp4
S'distance'
p5
aF171.52037048339844
aa(lp6
S'timestamp'
p7
aF5.046182870864868
aatp8
Rp9
.ccollections
OrderedDict
p0
((lp1
(lp2
S'state'
p3
aI0
aa(lp4
S'distance'
p5
aF171.52037048339844
aa(lp6
S'timestamp'
p7
aF5.055132865905762
aatp8
Rp9
.ccollections
OrderedDict
p0
((lp1
(lp2
S'state'
p3
aI0
aa(lp4
S'distance'
p5
aF171.52037048339844
aa(lp6
S'timestamp'
p7
aF5.05606484413147
aatp8
Rp9
.ccollections
OrderedDict
p0
((lp1
(lp2
S'state'
p3
aI0
aa(lp4
S'distance'
p5
aF171.52037048339844
aa(lp6
S'timestamp'
p7
aF5.066493034362793
aatp8
Rp9
.ccollections
OrderedDict
p0
((lp1
(lp2
S'state'
p3
aI0
aa(lp4
S'distance'
p5
aF171.52037048339844
aa(lp6
S'timestamp'
p7
aF5.066565990447998
aatp8
Rp9
.ccollections
OrderedDict
p0
((lp1
(lp2
S'state'
p3
aI0
aa(lp4
S'distance'
p5
aF171.52037048339844
aa(lp6
S'timestamp'
p7
aF5.075098037719727
aatp8
Rp9
.ccollections
OrderedDict
p0
((lp1
(lp2
S'state'
p3
aI0
aa(lp4
S'distance'
p5
aF171.52037048339844
aa(lp6
S'timestamp'
p7
aF5.07564902305603
aatp8
Rp9
.ccollections
OrderedDict
p0
((lp1
(lp2
S'state'
p3
aI0
aa(lp4
S'distance'
p5
aF171.52037048339844
aa(lp6
S'timestamp'
p7
aF5.085149049758911
aatp8
Rp9
.ccollections
OrderedDict
p0
((lp1
(lp2
S'state'
p3
aI0
aa(lp4
S'distance'
p5
aF171.52037048339844
aa(lp6
S'timestamp'
p7
aF5.086566925048828
aatp8
Rp9
.ccollections
OrderedDict
p0
((lp1
(lp2
S'state'
p3
aI0
aa(lp4
S'distance'
p5
aF171.52037048339844
aa(lp6
S'timestamp'
p7
aF5.105717897415161
aatp8
Rp9
.ccollections
OrderedDict
p0
((lp1
(lp2
S'state'
p3
aI0
aa(lp4
S'distance'
p5
aF171.52037048339844
aa(lp6
S'timestamp'
p7
aF5.105816841125488
aatp8
Rp9
.ccollections
OrderedDict
p0
((lp1
(lp2
S'state'
p3
aI0
aa(lp4
S'distance'
p5
aF171.52037048339844
aa(lp6
S'timestamp'
p7
aF5.106926918029785
aatp8
Rp9
.ccollections
OrderedDict
p0
((lp1
(lp2
S'state'
p3
aI0
aa(lp4
S'distance'
p5
aF171.52037048339844
aa(lp6
S'timestamp'
p7
aF5.107580900192261
aatp8
Rp9
.ccollections
OrderedDict
p0
((lp1
(lp2
S'state'
p3
aI0
aa(lp4
S'distance'
p5
aF171.52037048339844
aa(lp6
S'timestamp'
p7
aF5.116792917251587
aatp8
Rp9
.ccollections
OrderedDict
p0
((lp1
(lp2
S'state'
p3
aI0
aa(lp4
S'distance'
p5
aF171.52037048339844
aa(lp6
S'timestamp'
p7
aF5.126251935958862
aatp8
Rp9
.ccollections
OrderedDict
p0
((lp1
(lp2
S'state'
p3
aI0
aa(lp4
S'distance'
p5
aF171.52037048339844
aa(lp6
S'timestamp'
p7
aF5.126322031021118
aatp8
Rp9
.ccollections
OrderedDict
p0
((lp1
(lp2
S'state'
p3
aI0
aa(lp4
S'distance'
p5
aF171.52037048339844
aa(lp6
S'timestamp'
p7
aF5.126436948776245
aatp8
Rp9
.ccollections
OrderedDict
p0
((lp1
(lp2
S'state'
p3
aI0
aa(lp4
S'distance'
p5
aF171.52037048339844
aa(lp6
S'timestamp'
p7
aF5.134999990463257
aatp8
Rp9
.ccollections
OrderedDict
p0
((lp1
(lp2
S'state'
p3
aI0
aa(lp4
S'distance'
p5
aF171.52037048339844
aa(lp6
S'timestamp'
p7
aF5.138099908828735
aatp8
Rp9
.ccollections
OrderedDict
p0
((lp1
(lp2
S'state'
p3
aI0
aa(lp4
S'distance'
p5
aF171.52037048339844
aa(lp6
S'timestamp'
p7
aF5.145128011703491
aatp8
Rp9
.ccollections
OrderedDict
p0
((lp1
(lp2
S'state'
p3
aI400
aa(lp4
S'distance'
p5
aF171.52037048339844
aa(lp6
S'timestamp'
p7
aF5.145566940307617
aatp8
Rp9
.ccollections
OrderedDict
p0
((lp1
(lp2
S'state'
p3
aI400
aa(lp4
S'distance'
p5
aF171.52037048339844
aa(lp6
S'timestamp'
p7
aF5.156010866165161
aatp8
Rp9
.ccollections
OrderedDict
p0
((lp1
(lp2
S'state'
p3
aI400
aa(lp4
S'distance'
p5
aF171.52037048339844
aa(lp6
S'timestamp'
p7
aF5.156085968017578
aatp8
Rp9
.ccollections
OrderedDict
p0
((lp1
(lp2
S'state'
p3
aI400
aa(lp4
S'distance'
p5
aF171.52037048339844
aa(lp6
S'timestamp'
p7
aF5.165268898010254
aatp8
Rp9
.ccollections
OrderedDict
p0
((lp1
(lp2
S'state'
p3
aI400
aa(lp4
S'distance'
p5
aF171.52037048339844
aa(lp6
S'timestamp'
p7
aF5.169141054153442
aatp8
Rp9
.ccollections
OrderedDict
p0
((lp1
(lp2
S'state'
p3
aI400
aa(lp4
S'distance'
p5
aF171.52037048339844
aa(lp6
S'timestamp'
p7
aF5.182878017425537
aatp8
Rp9
.ccollections
OrderedDict
p0
((lp1
(lp2
S'state'
p3
aI400
aa(lp4
S'distance'
p5
aF171.52037048339844
aa(lp6
S'timestamp'
p7
aF5.183214902877808
aatp8
Rp9
.ccollections
OrderedDict
p0
((lp1
(lp2
S'state'
p3
aI400
aa(lp4
S'distance'
p5
aF171.52037048339844
aa(lp6
S'timestamp'
p7
aF5.185693025588989
aatp8
Rp9
.ccollections
OrderedDict
p0
((lp1
(lp2
S'state'
p3
aI400
aa(lp4
S'distance'
p5
aF171.52037048339844
aa(lp6
S'timestamp'
p7
aF5.186168909072876
aatp8
Rp9
.ccollections
OrderedDict
p0
((lp1
(lp2
S'state'
p3
aI400
aa(lp4
S'distance'
p5
aF171.52037048339844
aa(lp6
S'timestamp'
p7
aF5.199303865432739
aatp8
Rp9
.ccollections
OrderedDict
p0
((lp1
(lp2
S'state'
p3
aI400
aa(lp4
S'distance'
p5
aF171.52037048339844
aa(lp6
S'timestamp'
p7
aF5.20327091217041
aatp8
Rp9
.ccollections
OrderedDict
p0
((lp1
(lp2
S'state'
p3
aI400
aa(lp4
S'distance'
p5
aF171.52037048339844
aa(lp6
S'timestamp'
p7
aF5.207619905471802
aatp8
Rp9
.ccollections
OrderedDict
p0
((lp1
(lp2
S'state'
p3
aI400
aa(lp4
S'distance'
p5
aF171.52037048339844
aa(lp6
S'timestamp'
p7
aF5.208056926727295
aatp8
Rp9
.ccollections
OrderedDict
p0
((lp1
(lp2
S'state'
p3
aI400
aa(lp4
S'distance'
p5
aF171.52037048339844
aa(lp6
S'timestamp'
p7
aF5.215780019760132
aatp8
Rp9
.ccollections
OrderedDict
p0
((lp1
(lp2
S'state'
p3
aI400
aa(lp4
S'distance'
p5
aF171.52037048339844
aa(lp6
S'timestamp'
p7
aF5.216781854629517
aatp8
Rp9
.ccollections
OrderedDict
p0
((lp1
(lp2
S'state'
p3
aI400
aa(lp4
S'distance'
p5
aF171.52037048339844
aa(lp6
S'timestamp'
p7
aF5.22539496421814
aatp8
Rp9
.ccollections
OrderedDict
p0
((lp1
(lp2
S'state'
p3
aI400
aa(lp4
S'distance'
p5
aF171.52037048339844
aa(lp6
S'timestamp'
p7
aF5.2266809940338135
aatp8
Rp9
.ccollections
OrderedDict
p0
((lp1
(lp2
S'state'
p3
aI400
aa(lp4
S'distance'
p5
aF171.52037048339844
aa(lp6
S'timestamp'
p7
aF5.2352659702301025
aatp8
Rp9
.ccollections
OrderedDict
p0
((lp1
(lp2
S'state'
p3
aI400
aa(lp4
S'distance'
p5
aF171.52037048339844
aa(lp6
S'timestamp'
p7
aF5.235759973526001
aatp8
Rp9
.ccollections
OrderedDict
p0
((lp1
(lp2
S'state'
p3
aI400
aa(lp4
S'distance'
p5
aF171.52037048339844
aa(lp6
S'timestamp'
p7
aF5.265320062637329
aatp8
Rp9
.ccollections
OrderedDict
p0
((lp1
(lp2
S'state'
p3
aI400
aa(lp4
S'distance'
p5
aF171.52037048339844
aa(lp6
S'timestamp'
p7
aF5.266716957092285
aatp8
Rp9
.ccollections
OrderedDict
p0
((lp1
(lp2
S'state'
p3
aI400
aa(lp4
S'distance'
p5
aF171.52037048339844
aa(lp6
S'timestamp'
p7
aF5.266790866851807
aatp8
Rp9
.ccollections
OrderedDict
p0
((lp1
(lp2
S'state'
p3
aI400
aa(lp4
S'distance'
p5
aF171.52037048339844
aa(lp6
S'timestamp'
p7
aF5.267248868942261
aatp8
Rp9
.ccollections
OrderedDict
p0
((lp1
(lp2
S'state'
p3
aI400
aa(lp4
S'distance'
p5
aF171.52037048339844
aa(lp6
S'timestamp'
p7
aF5.275256872177124
aatp8
Rp9
.ccollections
OrderedDict
p0
((lp1
(lp2
S'state'
p3
aI400
aa(lp4
S'distance'
p5
aF171.52037048339844
aa(lp6
S'timestamp'
p7
aF5.27593207359314
aatp8
Rp9
.ccollections
OrderedDict
p0
((lp1
(lp2
S'state'
p3
aI400
aa(lp4
S'distance'
p5
aF171.52037048339844
aa(lp6
S'timestamp'
p7
aF5.276001930236816
aatp8
Rp9
.ccollections
OrderedDict
p0
((lp1
(lp2
S'state'
p3
aI400
aa(lp4
S'distance'
p5
aF171.52037048339844
aa(lp6
S'timestamp'
p7
aF5.276463985443115
aatp8
Rp9
.ccollections
OrderedDict
p0
((lp1
(lp2
S'state'
p3
aI400
aa(lp4
S'distance'
p5
aF171.52037048339844
aa(lp6
S'timestamp'
p7
aF5.285282850265503
aatp8
Rp9
.ccollections
OrderedDict
p0
((lp1
(lp2
S'state'
p3
aI400
aa(lp4
S'distance'
p5
aF171.52037048339844
aa(lp6
S'timestamp'
p7
aF5.2861950397491455
aatp8
Rp9
.ccollections
OrderedDict
p0
((lp1
(lp2
S'state'
p3
aI400
aa(lp4
S'distance'
p5
aF171.52037048339844
aa(lp6
S'timestamp'
p7
aF5.295423984527588
aatp8
Rp9
.ccollections
OrderedDict
p0
((lp1
(lp2
S'state'
p3
aI400
aa(lp4
S'distance'
p5
aF171.52037048339844
aa(lp6
S'timestamp'
p7
aF5.295974969863892
aatp8
Rp9
.ccollections
OrderedDict
p0
((lp1
(lp2
S'state'
p3
aI400
aa(lp4
S'distance'
p5
aF171.52037048339844
aa(lp6
S'timestamp'
p7
aF5.305566072463989
aatp8
Rp9
.ccollections
OrderedDict
p0
((lp1
(lp2
S'state'
p3
aI400
aa(lp4
S'distance'
p5
aF171.52037048339844
aa(lp6
S'timestamp'
p7
aF5.3059210777282715
aatp8
Rp9
.ccollections
OrderedDict
p0
((lp1
(lp2
S'state'
p3
aI400
aa(lp4
S'distance'
p5
aF171.52037048339844
aa(lp6
S'timestamp'
p7
aF5.315305948257446
aatp8
Rp9
.ccollections
OrderedDict
p0
((lp1
(lp2
S'state'
p3
aI400
aa(lp4
S'distance'
p5
aF171.52037048339844
aa(lp6
S'timestamp'
p7
aF5.316618919372559
aatp8
Rp9
.ccollections
OrderedDict
p0
((lp1
(lp2
S'state'
p3
aI400
aa(lp4
S'distance'
p5
aF171.52037048339844
aa(lp6
S'timestamp'
p7
aF5.326034069061279
aatp8
Rp9
.ccollections
OrderedDict
p0
((lp1
(lp2
S'state'
p3
aI400
aa(lp4
S'distance'
p5
aF171.52037048339844
aa(lp6
S'timestamp'
p7
aF5.326150894165039
aatp8
Rp9
.ccollections
OrderedDict
p0
((lp1
(lp2
S'state'
p3
aI400
aa(lp4
S'distance'
p5
aF171.52037048339844
aa(lp6
S'timestamp'
p7
aF5.33517599105835
aatp8
Rp9
.ccollections
OrderedDict
p0
((lp1
(lp2
S'state'
p3
aI400
aa(lp4
S'distance'
p5
aF171.52037048339844
aa(lp6
S'timestamp'
p7
aF5.336142063140869
aatp8
Rp9
.ccollections
OrderedDict
p0
((lp1
(lp2
S'state'
p3
aI400
aa(lp4
S'distance'
p5
aF171.52037048339844
aa(lp6
S'timestamp'
p7
aF5.359469890594482
aatp8
Rp9
.ccollections
OrderedDict
p0
((lp1
(lp2
S'state'
p3
aI400
aa(lp4
S'distance'
p5
aF171.52037048339844
aa(lp6
S'timestamp'
p7
aF5.3596508502960205
aatp8
Rp9
.ccollections
OrderedDict
p0
((lp1
(lp2
S'state'
p3
aI400
aa(lp4
S'distance'
p5
aF171.52037048339844
aa(lp6
S'timestamp'
p7
aF5.359838008880615
aatp8
Rp9
.ccollections
OrderedDict
p0
((lp1
(lp2
S'state'
p3
aI400
aa(lp4
S'distance'
p5
aF171.52037048339844
aa(lp6
S'timestamp'
p7
aF5.360010862350464
aatp8
Rp9
.ccollections
OrderedDict
p0
((lp1
(lp2
S'state'
p3
aI400
aa(lp4
S'distance'
p5
aF171.52037048339844
aa(lp6
S'timestamp'
p7
aF5.367614984512329
aatp8
Rp9
.ccollections
OrderedDict
p0
((lp1
(lp2
S'state'
p3
aI400
aa(lp4
S'distance'
p5
aF171.52037048339844
aa(lp6
S'timestamp'
p7
aF5.36777400970459
aatp8
Rp9
.ccollections
OrderedDict
p0
((lp1
(lp2
S'state'
p3
aI400
aa(lp4
S'distance'
p5
aF171.52037048339844
aa(lp6
S'timestamp'
p7
aF5.377668857574463
aatp8
Rp9
.ccollections
OrderedDict
p0
((lp1
(lp2
S'state'
p3
aI400
aa(lp4
S'distance'
p5
aF171.52037048339844
aa(lp6
S'timestamp'
p7
aF5.37782096862793
aatp8
Rp9
.ccollections
OrderedDict
p0
((lp1
(lp2
S'state'
p3
aI400
aa(lp4
S'distance'
p5
aF171.52037048339844
aa(lp6
S'timestamp'
p7
aF5.38802695274353
aatp8
Rp9
.ccollections
OrderedDict
p0
((lp1
(lp2
S'state'
p3
aI400
aa(lp4
S'distance'
p5
aF171.52037048339844
aa(lp6
S'timestamp'
p7
aF5.388383865356445
aatp8
Rp9
.ccollections
OrderedDict
p0
((lp1
(lp2
S'state'
p3
aI400
aa(lp4
S'distance'
p5
aF171.52037048339844
aa(lp6
S'timestamp'
p7
aF5.396482944488525
aatp8
Rp9
.ccollections
OrderedDict
p0
((lp1
(lp2
S'state'
p3
aI400
aa(lp4
S'distance'
p5
aF171.52037048339844
aa(lp6
S'timestamp'
p7
aF5.396707057952881
aatp8
Rp9
.ccollections
OrderedDict
p0
((lp1
(lp2
S'state'
p3
aI400
aa(lp4
S'distance'
p5
aF171.52037048339844
aa(lp6
S'timestamp'
p7
aF5.405151844024658
aatp8
Rp9
.ccollections
OrderedDict
p0
((lp1
(lp2
S'state'
p3
aI400
aa(lp4
S'distance'
p5
aF171.52037048339844
aa(lp6
S'timestamp'
p7
aF5.405961990356445
aatp8
Rp9
.ccollections
OrderedDict
p0
((lp1
(lp2
S'state'
p3
aI400
aa(lp4
S'distance'
p5
aF171.52037048339844
aa(lp6
S'timestamp'
p7
aF5.41512393951416
aatp8
Rp9
.ccollections
OrderedDict
p0
((lp1
(lp2
S'state'
p3
aI400
aa(lp4
S'distance'
p5
aF171.52037048339844
aa(lp6
S'timestamp'
p7
aF5.4161670207977295
aatp8
Rp9
.ccollections
OrderedDict
p0
((lp1
(lp2
S'state'
p3
aI400
aa(lp4
S'distance'
p5
aF171.52037048339844
aa(lp6
S'timestamp'
p7
aF5.425267934799194
aatp8
Rp9
.ccollections
OrderedDict
p0
((lp1
(lp2
S'state'
p3
aI400
aa(lp4
S'distance'
p5
aF171.52037048339844
aa(lp6
S'timestamp'
p7
aF5.426945924758911
aatp8
Rp9
.ccollections
OrderedDict
p0
((lp1
(lp2
S'state'
p3
aI400
aa(lp4
S'distance'
p5
aF171.52037048339844
aa(lp6
S'timestamp'
p7
aF5.435520887374878
aatp8
Rp9
.ccollections
OrderedDict
p0
((lp1
(lp2
S'state'
p3
aI400
aa(lp4
S'distance'
p5
aF171.52037048339844
aa(lp6
S'timestamp'
p7
aF5.440095901489258
aatp8
Rp9
.ccollections
OrderedDict
p0
((lp1
(lp2
S'state'
p3
aI400
aa(lp4
S'distance'
p5
aF171.52037048339844
aa(lp6
S'timestamp'
p7
aF5.448287010192871
aatp8
Rp9
.ccollections
OrderedDict
p0
((lp1
(lp2
S'state'
p3
aI400
aa(lp4
S'distance'
p5
aF171.52037048339844
aa(lp6
S'timestamp'
p7
aF5.450588941574097
aatp8
Rp9
.ccollections
OrderedDict
p0
((lp1
(lp2
S'state'
p3
aI400
aa(lp4
S'distance'
p5
aF171.52037048339844
aa(lp6
S'timestamp'
p7
aF5.4553749561309814
aatp8
Rp9
.ccollections
OrderedDict
p0
((lp1
(lp2
S'state'
p3
aI400
aa(lp4
S'distance'
p5
aF171.52037048339844
aa(lp6
S'timestamp'
p7
aF5.456428050994873
aatp8
Rp9
.ccollections
OrderedDict
p0
((lp1
(lp2
S'state'
p3
aI400
aa(lp4
S'distance'
p5
aF171.52037048339844
aa(lp6
S'timestamp'
p7
aF5.4651570320129395
aatp8
Rp9
.ccollections
OrderedDict
p0
((lp1
(lp2
S'state'
p3
aI400
aa(lp4
S'distance'
p5
aF171.52037048339844
aa(lp6
S'timestamp'
p7
aF5.466145992279053
aatp8
Rp9
.ccollections
OrderedDict
p0
((lp1
(lp2
S'state'
p3
aI400
aa(lp4
S'distance'
p5
aF171.52037048339844
aa(lp6
S'timestamp'
p7
aF5.485732078552246
aatp8
Rp9
.ccollections
OrderedDict
p0
((lp1
(lp2
S'state'
p3
aI400
aa(lp4
S'distance'
p5
aF171.52037048339844
aa(lp6
S'timestamp'
p7
aF5.485872983932495
aatp8
Rp9
.ccollections
OrderedDict
p0
((lp1
(lp2
S'state'
p3
aI400
aa(lp4
S'distance'
p5
aF171.52037048339844
aa(lp6
S'timestamp'
p7
aF5.486979007720947
aatp8
Rp9
.ccollections
OrderedDict
p0
((lp1
(lp2
S'state'
p3
aI400
aa(lp4
S'distance'
p5
aF171.52037048339844
aa(lp6
S'timestamp'
p7
aF5.487138986587524
aatp8
Rp9
.ccollections
OrderedDict
p0
((lp1
(lp2
S'state'
p3
aI400
aa(lp4
S'distance'
p5
aF171.52037048339844
aa(lp6
S'timestamp'
p7
aF5.495699882507324
aatp8
Rp9
.ccollections
OrderedDict
p0
((lp1
(lp2
S'state'
p3
aI400
aa(lp4
S'distance'
p5
aF171.52037048339844
aa(lp6
S'timestamp'
p7
aF5.495771884918213
aatp8
Rp9
.ccollections
OrderedDict
p0
((lp1
(lp2
S'state'
p3
aI400
aa(lp4
S'distance'
p5
aF171.52037048339844
aa(lp6
S'timestamp'
p7
aF5.505177021026611
aatp8
Rp9
.ccollections
OrderedDict
p0
((lp1
(lp2
S'state'
p3
aI400
aa(lp4
S'distance'
p5
aF171.52037048339844
aa(lp6
S'timestamp'
p7
aF5.506047010421753
aatp8
Rp9
.ccollections
OrderedDict
p0
((lp1
(lp2
S'state'
p3
aI400
aa(lp4
S'distance'
p5
aF171.52037048339844
aa(lp6
S'timestamp'
p7
aF5.515131950378418
aatp8
Rp9
.ccollections
OrderedDict
p0
((lp1
(lp2
S'state'
p3
aI400
aa(lp4
S'distance'
p5
aF171.52037048339844
aa(lp6
S'timestamp'
p7
aF5.515819072723389
aatp8
Rp9
.ccollections
OrderedDict
p0
((lp1
(lp2
S'state'
p3
aI400
aa(lp4
S'distance'
p5
aF171.52037048339844
aa(lp6
S'timestamp'
p7
aF5.5257439613342285
aatp8
Rp9
.ccollections
OrderedDict
p0
((lp1
(lp2
S'state'
p3
aI400
aa(lp4
S'distance'
p5
aF171.52037048339844
aa(lp6
S'timestamp'
p7
aF5.525815963745117
aatp8
Rp9
.ccollections
OrderedDict
p0
((lp1
(lp2
S'state'
p3
aI400
aa(lp4
S'distance'
p5
aF171.52037048339844
aa(lp6
S'timestamp'
p7
aF5.535888910293579
aatp8
Rp9
.ccollections
OrderedDict
p0
((lp1
(lp2
S'state'
p3
aI400
aa(lp4
S'distance'
p5
aF171.52037048339844
aa(lp6
S'timestamp'
p7
aF5.536022901535034
aatp8
Rp9
.ccollections
OrderedDict
p0
((lp1
(lp2
S'state'
p3
aI400
aa(lp4
S'distance'
p5
aF171.52037048339844
aa(lp6
S'timestamp'
p7
aF5.545287847518921
aatp8
Rp9
.ccollections
OrderedDict
p0
((lp1
(lp2
S'state'
p3
aI400
aa(lp4
S'distance'
p5
aF171.52037048339844
aa(lp6
S'timestamp'
p7
aF5.546371936798096
aatp8
Rp9
.ccollections
OrderedDict
p0
((lp1
(lp2
S'state'
p3
aI400
aa(lp4
S'distance'
p5
aF171.52037048339844
aa(lp6
S'timestamp'
p7
aF5.555124044418335
aatp8
Rp9
.ccollections
OrderedDict
p0
((lp1
(lp2
S'state'
p3
aI400
aa(lp4
S'distance'
p5
aF171.52037048339844
aa(lp6
S'timestamp'
p7
aF5.556071043014526
aatp8
Rp9
.ccollections
OrderedDict
p0
((lp1
(lp2
S'state'
p3
aI400
aa(lp4
S'distance'
p5
aF171.52037048339844
aa(lp6
S'timestamp'
p7
aF5.565631866455078
aatp8
Rp9
.ccollections
OrderedDict
p0
((lp1
(lp2
S'state'
p3
aI400
aa(lp4
S'distance'
p5
aF171.52037048339844
aa(lp6
S'timestamp'
p7
aF5.56570291519165
aatp8
Rp9
.ccollections
OrderedDict
p0
((lp1
(lp2
S'state'
p3
aI400
aa(lp4
S'distance'
p5
aF171.52037048339844
aa(lp6
S'timestamp'
p7
aF5.575182914733887
aatp8
Rp9
.ccollections
OrderedDict
p0
((lp1
(lp2
S'state'
p3
aI400
aa(lp4
S'distance'
p5
aF171.52037048339844
aa(lp6
S'timestamp'
p7
aF5.576029062271118
aatp8
Rp9
.ccollections
OrderedDict
p0
((lp1
(lp2
S'state'
p3
aI400
aa(lp4
S'distance'
p5
aF171.52037048339844
aa(lp6
S'timestamp'
p7
aF5.58516001701355
aatp8
Rp9
.ccollections
OrderedDict
p0
((lp1
(lp2
S'state'
p3
aI400
aa(lp4
S'distance'
p5
aF171.52037048339844
aa(lp6
S'timestamp'
p7
aF5.586155891418457
aatp8
Rp9
.ccollections
OrderedDict
p0
((lp1
(lp2
S'state'
p3
aI400
aa(lp4
S'distance'
p5
aF171.52037048339844
aa(lp6
S'timestamp'
p7
aF5.595836877822876
aatp8
Rp9
.ccollections
OrderedDict
p0
((lp1
(lp2
S'state'
p3
aI400
aa(lp4
S'distance'
p5
aF171.52037048339844
aa(lp6
S'timestamp'
p7
aF5.5959789752960205
aatp8
Rp9
.ccollections
OrderedDict
p0
((lp1
(lp2
S'state'
p3
aI400
aa(lp4
S'distance'
p5
aF171.52037048339844
aa(lp6
S'timestamp'
p7
aF5.605640888214111
aatp8
Rp9
.ccollections
OrderedDict
p0
((lp1
(lp2
S'state'
p3
aI400
aa(lp4
S'distance'
p5
aF171.52037048339844
aa(lp6
S'timestamp'
p7
aF5.6453540325164795
aatp8
Rp9
.ccollections
OrderedDict
p0
((lp1
(lp2
S'state'
p3
aI400
aa(lp4
S'distance'
p5
aF171.52037048339844
aa(lp6
S'timestamp'
p7
aF5.647002935409546
aatp8
Rp9
.ccollections
OrderedDict
p0
((lp1
(lp2
S'state'
p3
aI400
aa(lp4
S'distance'
p5
aF171.52037048339844
aa(lp6
S'timestamp'
p7
aF5.647091865539551
aatp8
Rp9
.ccollections
OrderedDict
p0
((lp1
(lp2
S'state'
p3
aI400
aa(lp4
S'distance'
p5
aF171.52037048339844
aa(lp6
S'timestamp'
p7
aF5.6471638679504395
aatp8
Rp9
.ccollections
OrderedDict
p0
((lp1
(lp2
S'state'
p3
aI400
aa(lp4
S'distance'
p5
aF171.52037048339844
aa(lp6
S'timestamp'
p7
aF5.655142068862915
aatp8
Rp9
.ccollections
OrderedDict
p0
((lp1
(lp2
S'state'
p3
aI400
aa(lp4
S'distance'
p5
aF171.52037048339844
aa(lp6
S'timestamp'
p7
aF5.655781984329224
aatp8
Rp9
.ccollections
OrderedDict
p0
((lp1
(lp2
S'state'
p3
aI400
aa(lp4
S'distance'
p5
aF171.52037048339844
aa(lp6
S'timestamp'
p7
aF5.655864000320435
aatp8
Rp9
.ccollections
OrderedDict
p0
((lp1
(lp2
S'state'
p3
aI400
aa(lp4
S'distance'
p5
aF171.52037048339844
aa(lp6
S'timestamp'
p7
aF5.656388998031616
aatp8
Rp9
.ccollections
OrderedDict
p0
((lp1
(lp2
S'state'
p3
aI400
aa(lp4
S'distance'
p5
aF171.52037048339844
aa(lp6
S'timestamp'
p7
aF5.66689395904541
aatp8
Rp9
.ccollections
OrderedDict
p0
((lp1
(lp2
S'state'
p3
aI400
aa(lp4
S'distance'
p5
aF171.52037048339844
aa(lp6
S'timestamp'
p7
aF5.667079925537109
aatp8
Rp9
.ccollections
OrderedDict
p0
((lp1
(lp2
S'state'
p3
aI400
aa(lp4
S'distance'
p5
aF171.52037048339844
aa(lp6
S'timestamp'
p7
aF5.66716194152832
aatp8
Rp9
.ccollections
OrderedDict
p0
((lp1
(lp2
S'state'
p3
aI400
aa(lp4
S'distance'
p5
aF171.52037048339844
aa(lp6
S'timestamp'
p7
aF5.66722297668457
aatp8
Rp9
.ccollections
OrderedDict
p0
((lp1
(lp2
S'state'
p3
aI400
aa(lp4
S'distance'
p5
aF171.52037048339844
aa(lp6
S'timestamp'
p7
aF5.675169944763184
aatp8
Rp9
.ccollections
OrderedDict
p0
((lp1
(lp2
S'state'
p3
aI400
aa(lp4
S'distance'
p5
aF171.52037048339844
aa(lp6
S'timestamp'
p7
aF5.675423860549927
aatp8
Rp9
.ccollections
OrderedDict
p0
((lp1
(lp2
S'state'
p3
aI400
aa(lp4
S'distance'
p5
aF171.52037048339844
aa(lp6
S'timestamp'
p7
aF5.676801919937134
aatp8
Rp9
.ccollections
OrderedDict
p0
((lp1
(lp2
S'state'
p3
aI400
aa(lp4
S'distance'
p5
aF171.52037048339844
aa(lp6
S'timestamp'
p7
aF5.685147047042847
aatp8
Rp9
.ccollections
OrderedDict
p0
((lp1
(lp2
S'state'
p3
aI400
aa(lp4
S'distance'
p5
aF171.52037048339844
aa(lp6
S'timestamp'
p7
aF5.686163902282715
aatp8
Rp9
.ccollections
OrderedDict
p0
((lp1
(lp2
S'state'
p3
aI400
aa(lp4
S'distance'
p5
aF171.52037048339844
aa(lp6
S'timestamp'
p7
aF5.695698976516724
aatp8
Rp9
.ccollections
OrderedDict
p0
((lp1
(lp2
S'state'
p3
aI400
aa(lp4
S'distance'
p5
aF171.52037048339844
aa(lp6
S'timestamp'
p7
aF5.695778846740723
aatp8
Rp9
.ccollections
OrderedDict
p0
((lp1
(lp2
S'state'
p3
aI400
aa(lp4
S'distance'
p5
aF171.52037048339844
aa(lp6
S'timestamp'
p7
aF5.705060958862305
aatp8
Rp9
.ccollections
OrderedDict
p0
((lp1
(lp2
S'state'
p3
aI400
aa(lp4
S'distance'
p5
aF171.52037048339844
aa(lp6
S'timestamp'
p7
aF5.706196069717407
aatp8
Rp9
.ccollections
OrderedDict
p0
((lp1
(lp2
S'state'
p3
aI400
aa(lp4
S'distance'
p5
aF171.52037048339844
aa(lp6
S'timestamp'
p7
aF5.715255975723267
aatp8
Rp9
.ccollections
OrderedDict
p0
((lp1
(lp2
S'state'
p3
aI400
aa(lp4
S'distance'
p5
aF171.52037048339844
aa(lp6
S'timestamp'
p7
aF5.726357936859131
aatp8
Rp9
.ccollections
OrderedDict
p0
((lp1
(lp2
S'state'
p3
aI400
aa(lp4
S'distance'
p5
aF171.52037048339844
aa(lp6
S'timestamp'
p7
aF5.726433038711548
aatp8
Rp9
.ccollections
OrderedDict
p0
((lp1
(lp2
S'state'
p3
aI400
aa(lp4
S'distance'
p5
aF171.52037048339844
aa(lp6
S'timestamp'
p7
aF5.7265448570251465
aatp8
Rp9
.ccollections
OrderedDict
p0
((lp1
(lp2
S'state'
p3
aI400
aa(lp4
S'distance'
p5
aF171.52037048339844
aa(lp6
S'timestamp'
p7
aF5.735214948654175
aatp8
Rp9
.ccollections
OrderedDict
p0
((lp1
(lp2
S'state'
p3
aI400
aa(lp4
S'distance'
p5
aF171.52037048339844
aa(lp6
S'timestamp'
p7
aF5.7359020709991455
aatp8
Rp9
.ccollections
OrderedDict
p0
((lp1
(lp2
S'state'
p3
aI400
aa(lp4
S'distance'
p5
aF171.52037048339844
aa(lp6
S'timestamp'
p7
aF5.745146989822388
aatp8
Rp9
.ccollections
OrderedDict
p0
((lp1
(lp2
S'state'
p3
aI400
aa(lp4
S'distance'
p5
aF171.52037048339844
aa(lp6
S'timestamp'
p7
aF5.745827913284302
aatp8
Rp9
.ccollections
OrderedDict
p0
((lp1
(lp2
S'state'
p3
aI400
aa(lp4
S'distance'
p5
aF171.52037048339844
aa(lp6
S'timestamp'
p7
aF5.7553699016571045
aatp8
Rp9
.ccollections
OrderedDict
p0
((lp1
(lp2
S'state'
p3
aI400
aa(lp4
S'distance'
p5
aF171.52037048339844
aa(lp6
S'timestamp'
p7
aF5.755588054656982
aatp8
Rp9
.ccollections
OrderedDict
p0
((lp1
(lp2
S'state'
p3
aI400
aa(lp4
S'distance'
p5
aF171.52037048339844
aa(lp6
S'timestamp'
p7
aF5.765172004699707
aatp8
Rp9
.ccollections
OrderedDict
p0
((lp1
(lp2
S'state'
p3
aI400
aa(lp4
S'distance'
p5
aF171.52037048339844
aa(lp6
S'timestamp'
p7
aF5.775202035903931
aatp8
Rp9
.ccollections
OrderedDict
p0
((lp1
(lp2
S'state'
p3
aI400
aa(lp4
S'distance'
p5
aF171.52037048339844
aa(lp6
S'timestamp'
p7
aF5.776004076004028
aatp8
Rp9
.ccollections
OrderedDict
p0
((lp1
(lp2
S'state'
p3
aI400
aa(lp4
S'distance'
p5
aF171.52037048339844
aa(lp6
S'timestamp'
p7
aF5.777116060256958
aatp8
Rp9
.ccollections
OrderedDict
p0
((lp1
(lp2
S'state'
p3
aI400
aa(lp4
S'distance'
p5
aF171.52037048339844
aa(lp6
S'timestamp'
p7
aF5.785215854644775
aatp8
Rp9
.ccollections
OrderedDict
p0
((lp1
(lp2
S'state'
p3
aI400
aa(lp4
S'distance'
p5
aF171.52037048339844
aa(lp6
S'timestamp'
p7
aF5.786099910736084
aatp8
Rp9
.ccollections
OrderedDict
p0
((lp1
(lp2
S'state'
p3
aI400
aa(lp4
S'distance'
p5
aF171.52037048339844
aa(lp6
S'timestamp'
p7
aF5.795320987701416
aatp8
Rp9
.ccollections
OrderedDict
p0
((lp1
(lp2
S'state'
p3
aI400
aa(lp4
S'distance'
p5
aF171.52037048339844
aa(lp6
S'timestamp'
p7
aF5.796231985092163
aatp8
Rp9
.ccollections
OrderedDict
p0
((lp1
(lp2
S'state'
p3
aI400
aa(lp4
S'distance'
p5
aF171.52037048339844
aa(lp6
S'timestamp'
p7
aF5.805408000946045
aatp8
Rp9
.ccollections
OrderedDict
p0
((lp1
(lp2
S'state'
p3
aI400
aa(lp4
S'distance'
p5
aF171.52037048339844
aa(lp6
S'timestamp'
p7
aF5.805553913116455
aatp8
Rp9
.ccollections
OrderedDict
p0
((lp1
(lp2
S'state'
p3
aI400
aa(lp4
S'distance'
p5
aF171.52037048339844
aa(lp6
S'timestamp'
p7
aF5.815078020095825
aatp8
Rp9
.ccollections
OrderedDict
p0
((lp1
(lp2
S'state'
p3
aI400
aa(lp4
S'distance'
p5
aF171.52037048339844
aa(lp6
S'timestamp'
p7
aF5.815614938735962
aatp8
Rp9
.ccollections
OrderedDict
p0
((lp1
(lp2
S'state'
p3
aI400
aa(lp4
S'distance'
p5
aF171.52037048339844
aa(lp6
S'timestamp'
p7
aF5.8251988887786865
aatp8
Rp9
.ccollections
OrderedDict
p0
((lp1
(lp2
S'state'
p3
aI400
aa(lp4
S'distance'
p5
aF171.52037048339844
aa(lp6
S'timestamp'
p7
aF5.8275439739227295
aatp8
Rp9
.ccollections
OrderedDict
p0
((lp1
(lp2
S'state'
p3
aI400
aa(lp4
S'distance'
p5
aF171.52037048339844
aa(lp6
S'timestamp'
p7
aF5.835314989089966
aatp8
Rp9
.ccollections
OrderedDict
p0
((lp1
(lp2
S'state'
p3
aI400
aa(lp4
S'distance'
p5
aF171.52037048339844
aa(lp6
S'timestamp'
p7
aF5.835805892944336
aatp8
Rp9
.ccollections
OrderedDict
p0
((lp1
(lp2
S'state'
p3
aI400
aa(lp4
S'distance'
p5
aF171.52037048339844
aa(lp6
S'timestamp'
p7
aF5.845270872116089
aatp8
Rp9
.ccollections
OrderedDict
p0
((lp1
(lp2
S'state'
p3
aI400
aa(lp4
S'distance'
p5
aF171.52037048339844
aa(lp6
S'timestamp'
p7
aF5.845686912536621
aatp8
Rp9
.ccollections
OrderedDict
p0
((lp1
(lp2
S'state'
p3
aI400
aa(lp4
S'distance'
p5
aF171.52037048339844
aa(lp6
S'timestamp'
p7
aF5.865602970123291
aatp8
Rp9
.ccollections
OrderedDict
p0
((lp1
(lp2
S'state'
p3
aI400
aa(lp4
S'distance'
p5
aF171.52037048339844
aa(lp6
S'timestamp'
p7
aF5.865741014480591
aatp8
Rp9
.ccollections
OrderedDict
p0
((lp1
(lp2
S'state'
p3
aI400
aa(lp4
S'distance'
p5
aF171.52037048339844
aa(lp6
S'timestamp'
p7
aF5.8673059940338135
aatp8
Rp9
.ccollections
OrderedDict
p0
((lp1
(lp2
S'state'
p3
aI400
aa(lp4
S'distance'
p5
aF171.52037048339844
aa(lp6
S'timestamp'
p7
aF5.868303060531616
aatp8
Rp9
.ccollections
OrderedDict
p0
((lp1
(lp2
S'state'
p3
aI400
aa(lp4
S'distance'
p5
aF171.52037048339844
aa(lp6
S'timestamp'
p7
aF5.8752360343933105
aatp8
Rp9
.ccollections
OrderedDict
p0
((lp1
(lp2
S'state'
p3
aI400
aa(lp4
S'distance'
p5
aF171.52037048339844
aa(lp6
S'timestamp'
p7
aF5.875802040100098
aatp8
Rp9
.ccollections
OrderedDict
p0
((lp1
(lp2
S'state'
p3
aI400
aa(lp4
S'distance'
p5
aF171.52037048339844
aa(lp6
S'timestamp'
p7
aF5.885674953460693
aatp8
Rp9
.ccollections
OrderedDict
p0
((lp1
(lp2
S'state'
p3
aI400
aa(lp4
S'distance'
p5
aF171.52037048339844
aa(lp6
S'timestamp'
p7
aF5.885756969451904
aatp8
Rp9
.ccollections
OrderedDict
p0
((lp1
(lp2
S'state'
p3
aI400
aa(lp4
S'distance'
p5
aF171.52037048339844
aa(lp6
S'timestamp'
p7
aF5.895658016204834
aatp8
Rp9
.ccollections
OrderedDict
p0
((lp1
(lp2
S'state'
p3
aI400
aa(lp4
S'distance'
p5
aF171.52037048339844
aa(lp6
S'timestamp'
p7
aF5.8957839012146
aatp8
Rp9
.ccollections
OrderedDict
p0
((lp1
(lp2
S'state'
p3
aI400
aa(lp4
S'distance'
p5
aF171.52037048339844
aa(lp6
S'timestamp'
p7
aF5.90575385093689
aatp8
Rp9
.ccollections
OrderedDict
p0
((lp1
(lp2
S'state'
p3
aI400
aa(lp4
S'distance'
p5
aF171.52037048339844
aa(lp6
S'timestamp'
p7
aF5.905832052230835
aatp8
Rp9
.ccollections
OrderedDict
p0
((lp1
(lp2
S'state'
p3
aI400
aa(lp4
S'distance'
p5
aF171.52037048339844
aa(lp6
S'timestamp'
p7
aF5.915266036987305
aatp8
Rp9
.ccollections
OrderedDict
p0
((lp1
(lp2
S'state'
p3
aI400
aa(lp4
S'distance'
p5
aF171.52037048339844
aa(lp6
S'timestamp'
p7
aF5.915771961212158
aatp8
Rp9
.ccollections
OrderedDict
p0
((lp1
(lp2
S'state'
p3
aI400
aa(lp4
S'distance'
p5
aF171.52037048339844
aa(lp6
S'timestamp'
p7
aF5.92622184753418
aatp8
Rp9
.ccollections
OrderedDict
p0
((lp1
(lp2
S'state'
p3
aI400
aa(lp4
S'distance'
p5
aF171.52037048339844
aa(lp6
S'timestamp'
p7
aF5.926300048828125
aatp8
Rp9
.ccollections
OrderedDict
p0
((lp1
(lp2
S'state'
p3
aI400
aa(lp4
S'distance'
p5
aF171.52037048339844
aa(lp6
S'timestamp'
p7
aF5.935736894607544
aatp8
Rp9
.ccollections
OrderedDict
p0
((lp1
(lp2
S'state'
p3
aI400
aa(lp4
S'distance'
p5
aF171.52037048339844
aa(lp6
S'timestamp'
p7
aF5.935808897018433
aatp8
Rp9
.ccollections
OrderedDict
p0
((lp1
(lp2
S'state'
p3
aI400
aa(lp4
S'distance'
p5
aF171.52037048339844
aa(lp6
S'timestamp'
p7
aF5.94520902633667
aatp8
Rp9
.ccollections
OrderedDict
p0
((lp1
(lp2
S'state'
p3
aI400
aa(lp4
S'distance'
p5
aF171.52037048339844
aa(lp6
S'timestamp'
p7
aF5.9469029903411865
aatp8
Rp9
.ccollections
OrderedDict
p0
((lp1
(lp2
S'state'
p3
aI400
aa(lp4
S'distance'
p5
aF171.52037048339844
aa(lp6
S'timestamp'
p7
aF5.955205917358398
aatp8
Rp9
.ccollections
OrderedDict
p0
((lp1
(lp2
S'state'
p3
aI400
aa(lp4
S'distance'
p5
aF171.52037048339844
aa(lp6
S'timestamp'
p7
aF5.95576286315918
aatp8
Rp9
.ccollections
OrderedDict
p0
((lp1
(lp2
S'state'
p3
aI400
aa(lp4
S'distance'
p5
aF171.52037048339844
aa(lp6
S'timestamp'
p7
aF5.966476917266846
aatp8
Rp9
.ccollections
OrderedDict
p0
((lp1
(lp2
S'state'
p3
aI400
aa(lp4
S'distance'
p5
aF171.52037048339844
aa(lp6
S'timestamp'
p7
aF5.966546058654785
aatp8
Rp9
.ccollections
OrderedDict
p0
((lp1
(lp2
S'state'
p3
aI400
aa(lp4
S'distance'
p5
aF171.52037048339844
aa(lp6
S'timestamp'
p7
aF5.975161075592041
aatp8
Rp9
.ccollections
OrderedDict
p0
((lp1
(lp2
S'state'
p3
aI400
aa(lp4
S'distance'
p5
aF171.52037048339844
aa(lp6
S'timestamp'
p7
aF5.975928068161011
aatp8
Rp9
.ccollections
OrderedDict
p0
((lp1
(lp2
S'state'
p3
aI400
aa(lp4
S'distance'
p5
aF171.52037048339844
aa(lp6
S'timestamp'
p7
aF5.985302925109863
aatp8
Rp9
.ccollections
OrderedDict
p0
((lp1
(lp2
S'state'
p3
aI400
aa(lp4
S'distance'
p5
aF171.52037048339844
aa(lp6
S'timestamp'
p7
aF5.986464977264404
aatp8
Rp9
.ccollections
OrderedDict
p0
((lp1
(lp2
S'state'
p3
aI400
aa(lp4
S'distance'
p5
aF171.52037048339844
aa(lp6
S'timestamp'
p7
aF6.025748014450073
aatp8
Rp9
.ccollections
OrderedDict
p0
((lp1
(lp2
S'state'
p3
aI400
aa(lp4
S'distance'
p5
aF171.52037048339844
aa(lp6
S'timestamp'
p7
aF6.025853872299194
aatp8
Rp9
.ccollections
OrderedDict
p0
((lp1
(lp2
S'state'
p3
aI400
aa(lp4
S'distance'
p5
aF171.52037048339844
aa(lp6
S'timestamp'
p7
aF6.026744842529297
aatp8
Rp9
.ccollections
OrderedDict
p0
((lp1
(lp2
S'state'
p3
aI400
aa(lp4
S'distance'
p5
aF171.52037048339844
aa(lp6
S'timestamp'
p7
aF6.027389049530029
aatp8
Rp9
.ccollections
OrderedDict
p0
((lp1
(lp2
S'state'
p3
aI400
aa(lp4
S'distance'
p5
aF171.52037048339844
aa(lp6
S'timestamp'
p7
aF6.038826942443848
aatp8
Rp9
.ccollections
OrderedDict
p0
((lp1
(lp2
S'state'
p3
aI400
aa(lp4
S'distance'
p5
aF171.52037048339844
aa(lp6
S'timestamp'
p7
aF6.039099931716919
aatp8
Rp9
.ccollections
OrderedDict
p0
((lp1
(lp2
S'state'
p3
aI0
aa(lp4
S'distance'
p5
aF171.52037048339844
aa(lp6
S'timestamp'
p7
aF6.039456844329834
aatp8
Rp9
.ccollections
OrderedDict
p0
((lp1
(lp2
S'state'
p3
aI0
aa(lp4
S'distance'
p5
aF73.68083763122559
aa(lp6
S'timestamp'
p7
aF6.606148958206177
aatp8
Rp9
.ccollections
OrderedDict
p0
((lp1
(lp2
S'state'
p3
aI0
aa(lp4
S'distance'
p5
aF73.68083763122559
aa(lp6
S'timestamp'
p7
aF6.615951061248779
aatp8
Rp9
.ccollections
OrderedDict
p0
((lp1
(lp2
S'state'
p3
aI0
aa(lp4
S'distance'
p5
aF73.68083763122559
aa(lp6
S'timestamp'
p7
aF6.6161980628967285
aatp8
Rp9
.ccollections
OrderedDict
p0
((lp1
(lp2
S'state'
p3
aI0
aa(lp4
S'distance'
p5
aF73.68083763122559
aa(lp6
S'timestamp'
p7
aF6.627779960632324
aatp8
Rp9
.ccollections
OrderedDict
p0
((lp1
(lp2
S'state'
p3
aI0
aa(lp4
S'distance'
p5
aF73.68083763122559
aa(lp6
S'timestamp'
p7
aF6.6280128955841064
aatp8
Rp9
.ccollections
OrderedDict
p0
((lp1
(lp2
S'state'
p3
aI0
aa(lp4
S'distance'
p5
aF73.68083763122559
aa(lp6
S'timestamp'
p7
aF6.635711908340454
aatp8
Rp9
.ccollections
OrderedDict
p0
((lp1
(lp2
S'state'
p3
aI0
aa(lp4
S'distance'
p5
aF73.68083763122559
aa(lp6
S'timestamp'
p7
aF6.640419006347656
aatp8
Rp9
.ccollections
OrderedDict
p0
((lp1
(lp2
S'state'
p3
aI0
aa(lp4
S'distance'
p5
aF73.68083763122559
aa(lp6
S'timestamp'
p7
aF6.646929025650024
aatp8
Rp9
.ccollections
OrderedDict
p0
((lp1
(lp2
S'state'
p3
aI0
aa(lp4
S'distance'
p5
aF73.68083763122559
aa(lp6
S'timestamp'
p7
aF6.650094032287598
aatp8
Rp9
.ccollections
OrderedDict
p0
((lp1
(lp2
S'state'
p3
aI0
aa(lp4
S'distance'
p5
aF73.68083763122559
aa(lp6
S'timestamp'
p7
aF6.67264986038208
aatp8
Rp9
.ccollections
OrderedDict
p0
((lp1
(lp2
S'state'
p3
aI0
aa(lp4
S'distance'
p5
aF73.68083763122559
aa(lp6
S'timestamp'
p7
aF6.675255060195923
aatp8
Rp9
.ccollections
OrderedDict
p0
((lp1
(lp2
S'state'
p3
aI0
aa(lp4
S'distance'
p5
aF73.68083763122559
aa(lp6
S'timestamp'
p7
aF6.6762309074401855
aatp8
Rp9
.ccollections
OrderedDict
p0
((lp1
(lp2
S'state'
p3
aI0
aa(lp4
S'distance'
p5
aF73.68083763122559
aa(lp6
S'timestamp'
p7
aF6.676652908325195
aatp8
Rp9
.ccollections
OrderedDict
p0
((lp1
(lp2
S'state'
p3
aI0
aa(lp4
S'distance'
p5
aF73.68083763122559
aa(lp6
S'timestamp'
p7
aF6.678468942642212
aatp8
Rp9
.ccollections
OrderedDict
p0
((lp1
(lp2
S'state'
p3
aI0
aa(lp4
S'distance'
p5
aF73.68083763122559
aa(lp6
S'timestamp'
p7
aF6.683171987533569
aatp8
Rp9
.ccollections
OrderedDict
p0
((lp1
(lp2
S'state'
p3
aI0
aa(lp4
S'distance'
p5
aF73.68083763122559
aa(lp6
S'timestamp'
p7
aF6.68656587600708
aatp8
Rp9
.ccollections
OrderedDict
p0
((lp1
(lp2
S'state'
p3
aI0
aa(lp4
S'distance'
p5
aF73.68083763122559
aa(lp6
S'timestamp'
p7
aF6.686800003051758
aatp8
Rp9
.ccollections
OrderedDict
p0
((lp1
(lp2
S'state'
p3
aI0
aa(lp4
S'distance'
p5
aF73.68083763122559
aa(lp6
S'timestamp'
p7
aF6.695771932601929
aatp8
Rp9
.ccollections
OrderedDict
p0
((lp1
(lp2
S'state'
p3
aI0
aa(lp4
S'distance'
p5
aF73.68083763122559
aa(lp6
S'timestamp'
p7
aF6.69596791267395
aatp8
Rp9
.ccollections
OrderedDict
p0
((lp1
(lp2
S'state'
p3
aI0
aa(lp4
S'distance'
p5
aF73.68083763122559
aa(lp6
S'timestamp'
p7
aF6.705205917358398
aatp8
Rp9
.ccollections
OrderedDict
p0
((lp1
(lp2
S'state'
p3
aI0
aa(lp4
S'distance'
p5
aF73.68083763122559
aa(lp6
S'timestamp'
p7
aF6.706527948379517
aatp8
Rp9
.ccollections
OrderedDict
p0
((lp1
(lp2
S'state'
p3
aI0
aa(lp4
S'distance'
p5
aF73.68083763122559
aa(lp6
S'timestamp'
p7
aF6.715420961380005
aatp8
Rp9
.ccollections
OrderedDict
p0
((lp1
(lp2
S'state'
p3
aI0
aa(lp4
S'distance'
p5
aF73.68083763122559
aa(lp6
S'timestamp'
p7
aF6.716069936752319
aatp8
Rp9
.ccollections
OrderedDict
p0
((lp1
(lp2
S'state'
p3
aI0
aa(lp4
S'distance'
p5
aF73.68083763122559
aa(lp6
S'timestamp'
p7
aF6.725308895111084
aatp8
Rp9
.ccollections
OrderedDict
p0
((lp1
(lp2
S'state'
p3
aI0
aa(lp4
S'distance'
p5
aF73.68083763122559
aa(lp6
S'timestamp'
p7
aF6.725952863693237
aatp8
Rp9
.ccollections
OrderedDict
p0
((lp1
(lp2
S'state'
p3
aI0
aa(lp4
S'distance'
p5
aF73.68083763122559
aa(lp6
S'timestamp'
p7
aF6.737269878387451
aatp8
Rp9
.ccollections
OrderedDict
p0
((lp1
(lp2
S'state'
p3
aI0
aa(lp4
S'distance'
p5
aF73.68083763122559
aa(lp6
S'timestamp'
p7
aF6.7373809814453125
aatp8
Rp9
.ccollections
OrderedDict
p0
((lp1
(lp2
S'state'
p3
aI0
aa(lp4
S'distance'
p5
aF73.68083763122559
aa(lp6
S'timestamp'
p7
aF6.745157957077026
aatp8
Rp9
.ccollections
OrderedDict
p0
((lp1
(lp2
S'state'
p3
aI0
aa(lp4
S'distance'
p5
aF73.68083763122559
aa(lp6
S'timestamp'
p7
aF6.746077060699463
aatp8
Rp9
.ccollections
OrderedDict
p0
((lp1
(lp2
S'state'
p3
aI0
aa(lp4
S'distance'
p5
aF73.68083763122559
aa(lp6
S'timestamp'
p7
aF6.76528000831604
aatp8
Rp9
.ccollections
OrderedDict
p0
((lp1
(lp2
S'state'
p3
aI0
aa(lp4
S'distance'
p5
aF73.68083763122559
aa(lp6
S'timestamp'
p7
aF6.765387058258057
aatp8
Rp9
.ccollections
OrderedDict
p0
((lp1
(lp2
S'state'
p3
aI0
aa(lp4
S'distance'
p5
aF73.68083763122559
aa(lp6
S'timestamp'
p7
aF6.765768051147461
aatp8
Rp9
.ccollections
OrderedDict
p0
((lp1
(lp2
S'state'
p3
aI0
aa(lp4
S'distance'
p5
aF73.68083763122559
aa(lp6
S'timestamp'
p7
aF6.7667460441589355
aatp8
Rp9
.ccollections
OrderedDict
p0
((lp1
(lp2
S'state'
p3
aI0
aa(lp4
S'distance'
p5
aF73.68083763122559
aa(lp6
S'timestamp'
p7
aF6.775338888168335
aatp8
Rp9
.ccollections
OrderedDict
p0
((lp1
(lp2
S'state'
p3
aI0
aa(lp4
S'distance'
p5
aF73.68083763122559
aa(lp6
S'timestamp'
p7
aF6.775604963302612
aatp8
Rp9
.ccollections
OrderedDict
p0
((lp1
(lp2
S'state'
p3
aI0
aa(lp4
S'distance'
p5
aF73.68083763122559
aa(lp6
S'timestamp'
p7
aF6.7853288650512695
aatp8
Rp9
.ccollections
OrderedDict
p0
((lp1
(lp2
S'state'
p3
aI0
aa(lp4
S'distance'
p5
aF73.68083763122559
aa(lp6
S'timestamp'
p7
aF6.785650014877319
aatp8
Rp9
.ccollections
OrderedDict
p0
((lp1
(lp2
S'state'
p3
aI0
aa(lp4
S'distance'
p5
aF73.68083763122559
aa(lp6
S'timestamp'
p7
aF6.79551100730896
aatp8
Rp9
.ccollections
OrderedDict
p0
((lp1
(lp2
S'state'
p3
aI0
aa(lp4
S'distance'
p5
aF73.68083763122559
aa(lp6
S'timestamp'
p7
aF6.795876979827881
aatp8
Rp9
.ccollections
OrderedDict
p0
((lp1
(lp2
S'state'
p3
aI0
aa(lp4
S'distance'
p5
aF73.68083763122559
aa(lp6
S'timestamp'
p7
aF6.805268049240112
aatp8
Rp9
.ccollections
OrderedDict
p0
((lp1
(lp2
S'state'
p3
aI0
aa(lp4
S'distance'
p5
aF73.68083763122559
aa(lp6
S'timestamp'
p7
aF6.8056769371032715
aatp8
Rp9
.ccollections
OrderedDict
p0
((lp1
(lp2
S'state'
p3
aI0
aa(lp4
S'distance'
p5
aF73.68083763122559
aa(lp6
S'timestamp'
p7
aF6.815329074859619
aatp8
Rp9
.ccollections
OrderedDict
p0
((lp1
(lp2
S'state'
p3
aI0
aa(lp4
S'distance'
p5
aF73.68083763122559
aa(lp6
S'timestamp'
p7
aF6.815526008605957
aatp8
Rp9
.ccollections
OrderedDict
p0
((lp1
(lp2
S'state'
p3
aI0
aa(lp4
S'distance'
p5
aF73.68083763122559
aa(lp6
S'timestamp'
p7
aF6.8253679275512695
aatp8
Rp9
.ccollections
OrderedDict
p0
((lp1
(lp2
S'state'
p3
aI0
aa(lp4
S'distance'
p5
aF73.68083763122559
aa(lp6
S'timestamp'
p7
aF6.826092958450317
aatp8
Rp9
.ccollections
OrderedDict
p0
((lp1
(lp2
S'state'
p3
aI0
aa(lp4
S'distance'
p5
aF73.68083763122559
aa(lp6
S'timestamp'
p7
aF6.835196018218994
aatp8
Rp9
.ccollections
OrderedDict
p0
((lp1
(lp2
S'state'
p3
aI0
aa(lp4
S'distance'
p5
aF73.68083763122559
aa(lp6
S'timestamp'
p7
aF6.835732936859131
aatp8
Rp9
.ccollections
OrderedDict
p0
((lp1
(lp2
S'state'
p3
aI0
aa(lp4
S'distance'
p5
aF73.68083763122559
aa(lp6
S'timestamp'
p7
aF6.845391035079956
aatp8
Rp9
.ccollections
OrderedDict
p0
((lp1
(lp2
S'state'
p3
aI0
aa(lp4
S'distance'
p5
aF73.68083763122559
aa(lp6
S'timestamp'
p7
aF6.8456220626831055
aatp8
Rp9
.ccollections
OrderedDict
p0
((lp1
(lp2
S'state'
p3
aI0
aa(lp4
S'distance'
p5
aF73.68083763122559
aa(lp6
S'timestamp'
p7
aF6.855241060256958
aatp8
Rp9
.ccollections
OrderedDict
p0
((lp1
(lp2
S'state'
p3
aI0
aa(lp4
S'distance'
p5
aF73.68083763122559
aa(lp6
S'timestamp'
p7
aF6.8557798862457275
aatp8
Rp9
.ccollections
OrderedDict
p0
((lp1
(lp2
S'state'
p3
aI0
aa(lp4
S'distance'
p5
aF73.68083763122559
aa(lp6
S'timestamp'
p7
aF6.865208864212036
aatp8
Rp9
.ccollections
OrderedDict
p0
((lp1
(lp2
S'state'
p3
aI0
aa(lp4
S'distance'
p5
aF73.68083763122559
aa(lp6
S'timestamp'
p7
aF6.865828990936279
aatp8
Rp9
.ccollections
OrderedDict
p0
((lp1
(lp2
S'state'
p3
aI0
aa(lp4
S'distance'
p5
aF73.68083763122559
aa(lp6
S'timestamp'
p7
aF6.8753368854522705
aatp8
Rp9
.ccollections
OrderedDict
p0
((lp1
(lp2
S'state'
p3
aI0
aa(lp4
S'distance'
p5
aF73.68083763122559
aa(lp6
S'timestamp'
p7
aF6.87568998336792
aatp8
Rp9
.ccollections
OrderedDict
p0
((lp1
(lp2
S'state'
p3
aI0
aa(lp4
S'distance'
p5
aF73.68083763122559
aa(lp6
S'timestamp'
p7
aF6.896470069885254
aatp8
Rp9
.ccollections
OrderedDict
p0
((lp1
(lp2
S'state'
p3
aI0
aa(lp4
S'distance'
p5
aF73.68083763122559
aa(lp6
S'timestamp'
p7
aF6.896805047988892
aatp8
Rp9
.ccollections
OrderedDict
p0
((lp1
(lp2
S'state'
p3
aI0
aa(lp4
S'distance'
p5
aF73.68083763122559
aa(lp6
S'timestamp'
p7
aF6.897037029266357
aatp8
Rp9
.ccollections
OrderedDict
p0
((lp1
(lp2
S'state'
p3
aI0
aa(lp4
S'distance'
p5
aF73.68083763122559
aa(lp6
S'timestamp'
p7
aF6.897904872894287
aatp8
Rp9
.ccollections
OrderedDict
p0
((lp1
(lp2
S'state'
p3
aI0
aa(lp4
S'distance'
p5
aF73.68083763122559
aa(lp6
S'timestamp'
p7
aF6.905372858047485
aatp8
Rp9
.ccollections
OrderedDict
p0
((lp1
(lp2
S'state'
p3
aI0
aa(lp4
S'distance'
p5
aF73.68083763122559
aa(lp6
S'timestamp'
p7
aF6.906183958053589
aatp8
Rp9
.ccollections
OrderedDict
p0
((lp1
(lp2
S'state'
p3
aI0
aa(lp4
S'distance'
p5
aF73.68083763122559
aa(lp6
S'timestamp'
p7
aF6.915309906005859
aatp8
Rp9
.ccollections
OrderedDict
p0
((lp1
(lp2
S'state'
p3
aI0
aa(lp4
S'distance'
p5
aF73.68083763122559
aa(lp6
S'timestamp'
p7
aF6.9159979820251465
aatp8
Rp9
.ccollections
OrderedDict
p0
((lp1
(lp2
S'state'
p3
aI0
aa(lp4
S'distance'
p5
aF73.68083763122559
aa(lp6
S'timestamp'
p7
aF6.925266981124878
aatp8
Rp9
.ccollections
OrderedDict
p0
((lp1
(lp2
S'state'
p3
aI0
aa(lp4
S'distance'
p5
aF73.68083763122559
aa(lp6
S'timestamp'
p7
aF6.925557851791382
aatp8
Rp9
.ccollections
OrderedDict
p0
((lp1
(lp2
S'state'
p3
aI0
aa(lp4
S'distance'
p5
aF73.68083763122559
aa(lp6
S'timestamp'
p7
aF6.93524694442749
aatp8
Rp9
.ccollections
OrderedDict
p0
((lp1
(lp2
S'state'
p3
aI0
aa(lp4
S'distance'
p5
aF73.68083763122559
aa(lp6
S'timestamp'
p7
aF6.936153888702393
aatp8
Rp9
.ccollections
OrderedDict
p0
((lp1
(lp2
S'state'
p3
aI0
aa(lp4
S'distance'
p5
aF73.68083763122559
aa(lp6
S'timestamp'
p7
aF6.945214033126831
aatp8
Rp9
.ccollections
OrderedDict
p0
((lp1
(lp2
S'state'
p3
aI0
aa(lp4
S'distance'
p5
aF73.68083763122559
aa(lp6
S'timestamp'
p7
aF6.946107864379883
aatp8
Rp9
.ccollections
OrderedDict
p0
((lp1
(lp2
S'state'
p3
aI0
aa(lp4
S'distance'
p5
aF73.68083763122559
aa(lp6
S'timestamp'
p7
aF6.95534086227417
aatp8
Rp9
.ccollections
OrderedDict
p0
((lp1
(lp2
S'state'
p3
aI0
aa(lp4
S'distance'
p5
aF73.68083763122559
aa(lp6
S'timestamp'
p7
aF6.95553994178772
aatp8
Rp9
.ccollections
OrderedDict
p0
((lp1
(lp2
S'state'
p3
aI0
aa(lp4
S'distance'
p5
aF73.68083763122559
aa(lp6
S'timestamp'
p7
aF6.9654059410095215
aatp8
Rp9
.ccollections
OrderedDict
p0
((lp1
(lp2
S'state'
p3
aI0
aa(lp4
S'distance'
p5
aF73.68083763122559
aa(lp6
S'timestamp'
p7
aF6.965498924255371
aatp8
Rp9
.ccollections
OrderedDict
p0
((lp1
(lp2
S'state'
p3
aI0
aa(lp4
S'distance'
p5
aF73.68083763122559
aa(lp6
S'timestamp'
p7
aF6.975255012512207
aatp8
Rp9
.ccollections
OrderedDict
p0
((lp1
(lp2
S'state'
p3
aI0
aa(lp4
S'distance'
p5
aF73.68083763122559
aa(lp6
S'timestamp'
p7
aF6.975625991821289
aatp8
Rp9
.ccollections
OrderedDict
p0
((lp1
(lp2
S'state'
p3
aI0
aa(lp4
S'distance'
p5
aF73.68083763122559
aa(lp6
S'timestamp'
p7
aF6.98525595664978
aatp8
Rp9
.ccollections
OrderedDict
p0
((lp1
(lp2
S'state'
p3
aI0
aa(lp4
S'distance'
p5
aF73.68083763122559
aa(lp6
S'timestamp'
p7
aF6.985792875289917
aatp8
Rp9
.ccollections
OrderedDict
p0
((lp1
(lp2
S'state'
p3
aI0
aa(lp4
S'distance'
p5
aF73.68083763122559
aa(lp6
S'timestamp'
p7
aF6.995252847671509
aatp8
Rp9
.ccollections
OrderedDict
p0
((lp1
(lp2
S'state'
p3
aI0
aa(lp4
S'distance'
p5
aF73.68083763122559
aa(lp6
S'timestamp'
p7
aF6.996106863021851
aatp8
Rp9
.ccollections
OrderedDict
p0
((lp1
(lp2
S'state'
p3
aI0
aa(lp4
S'distance'
p5
aF73.68083763122559
aa(lp6
S'timestamp'
p7
aF7.005389928817749
aatp8
Rp9
.ccollections
OrderedDict
p0
((lp1
(lp2
S'state'
p3
aI0
aa(lp4
S'distance'
p5
aF73.68083763122559
aa(lp6
S'timestamp'
p7
aF7.005665063858032
aatp8
Rp9
.ccollections
OrderedDict
p0
((lp1
(lp2
S'state'
p3
aI0
aa(lp4
S'distance'
p5
aF73.68083763122559
aa(lp6
S'timestamp'
p7
aF7.0151989459991455
aatp8
Rp9
.ccollections
OrderedDict
p0
((lp1
(lp2
S'state'
p3
aI0
aa(lp4
S'distance'
p5
aF73.68083763122559
aa(lp6
S'timestamp'
p7
aF7.015763998031616
aatp8
Rp9
.ccollections
OrderedDict
p0
((lp1
(lp2
S'state'
p3
aI0
aa(lp4
S'distance'
p5
aF73.68083763122559
aa(lp6
S'timestamp'
p7
aF7.025263071060181
aatp8
Rp9
.ccollections
OrderedDict
p0
((lp1
(lp2
S'state'
p3
aI0
aa(lp4
S'distance'
p5
aF73.68083763122559
aa(lp6
S'timestamp'
p7
aF7.025738954544067
aatp8
Rp9
.ccollections
OrderedDict
p0
((lp1
(lp2
S'state'
p3
aI0
aa(lp4
S'distance'
p5
aF73.68083763122559
aa(lp6
S'timestamp'
p7
aF7.035439968109131
aatp8
Rp9
.ccollections
OrderedDict
p0
((lp1
(lp2
S'state'
p3
aI0
aa(lp4
S'distance'
p5
aF73.68083763122559
aa(lp6
S'timestamp'
p7
aF7.035629987716675
aatp8
Rp9
.ccollections
OrderedDict
p0
((lp1
(lp2
S'state'
p3
aI0
aa(lp4
S'distance'
p5
aF73.68083763122559
aa(lp6
S'timestamp'
p7
aF7.045278072357178
aatp8
Rp9
.ccollections
OrderedDict
p0
((lp1
(lp2
S'state'
p3
aI0
aa(lp4
S'distance'
p5
aF73.68083763122559
aa(lp6
S'timestamp'
p7
aF7.046097993850708
aatp8
Rp9
.ccollections
OrderedDict
p0
((lp1
(lp2
S'state'
p3
aI0
aa(lp4
S'distance'
p5
aF73.68083763122559
aa(lp6
S'timestamp'
p7
aF7.055248022079468
aatp8
Rp9
.ccollections
OrderedDict
p0
((lp1
(lp2
S'state'
p3
aI0
aa(lp4
S'distance'
p5
aF73.68083763122559
aa(lp6
S'timestamp'
p7
aF7.055608034133911
aatp8
Rp9
.ccollections
OrderedDict
p0
((lp1
(lp2
S'state'
p3
aI0
aa(lp4
S'distance'
p5
aF73.68083763122559
aa(lp6
S'timestamp'
p7
aF7.0653698444366455
aatp8
Rp9
.ccollections
OrderedDict
p0
((lp1
(lp2
S'state'
p3
aI0
aa(lp4
S'distance'
p5
aF73.68083763122559
aa(lp6
S'timestamp'
p7
aF7.066150903701782
aatp8
Rp9
.ccollections
OrderedDict
p0
((lp1
(lp2
S'state'
p3
aI0
aa(lp4
S'distance'
p5
aF73.68083763122559
aa(lp6
S'timestamp'
p7
aF7.075372934341431
aatp8
Rp9
.ccollections
OrderedDict
p0
((lp1
(lp2
S'state'
p3
aI0
aa(lp4
S'distance'
p5
aF73.68083763122559
aa(lp6
S'timestamp'
p7
aF7.075521945953369
aatp8
Rp9
.ccollections
OrderedDict
p0
((lp1
(lp2
S'state'
p3
aI0
aa(lp4
S'distance'
p5
aF73.68083763122559
aa(lp6
S'timestamp'
p7
aF7.085270881652832
aatp8
Rp9
.ccollections
OrderedDict
p0
((lp1
(lp2
S'state'
p3
aI0
aa(lp4
S'distance'
p5
aF73.68083763122559
aa(lp6
S'timestamp'
p7
aF7.086513042449951
aatp8
Rp9
.ccollections
OrderedDict
p0
((lp1
(lp2
S'state'
p3
aI0
aa(lp4
S'distance'
p5
aF73.68083763122559
aa(lp6
S'timestamp'
p7
aF7.095247030258179
aatp8
Rp9
.ccollections
OrderedDict
p0
((lp1
(lp2
S'state'
p3
aI0
aa(lp4
S'distance'
p5
aF73.68083763122559
aa(lp6
S'timestamp'
p7
aF7.0958030223846436
aatp8
Rp9
.ccollections
OrderedDict
p0
((lp1
(lp2
S'state'
p3
aI0
aa(lp4
S'distance'
p5
aF73.68083763122559
aa(lp6
S'timestamp'
p7
aF7.115315914154053
aatp8
Rp9
.ccollections
OrderedDict
p0
((lp1
(lp2
S'state'
p3
aI0
aa(lp4
S'distance'
p5
aF73.68083763122559
aa(lp6
S'timestamp'
p7
aF7.116235971450806
aatp8
Rp9
.ccollections
OrderedDict
p0
((lp1
(lp2
S'state'
p3
aI0
aa(lp4
S'distance'
p5
aF73.68083763122559
aa(lp6
S'timestamp'
p7
aF7.116963863372803
aatp8
Rp9
.ccollections
OrderedDict
p0
((lp1
(lp2
S'state'
p3
aI0
aa(lp4
S'distance'
p5
aF73.68083763122559
aa(lp6
S'timestamp'
p7
aF7.118389844894409
aatp8
Rp9
.ccollections
OrderedDict
p0
((lp1
(lp2
S'state'
p3
aI0
aa(lp4
S'distance'
p5
aF73.68083763122559
aa(lp6
S'timestamp'
p7
aF7.125338077545166
aatp8
Rp9
.ccollections
OrderedDict
p0
((lp1
(lp2
S'state'
p3
aI0
aa(lp4
S'distance'
p5
aF73.68083763122559
aa(lp6
S'timestamp'
p7
aF7.125880002975464
aatp8
Rp9
.ccollections
OrderedDict
p0
((lp1
(lp2
S'state'
p3
aI0
aa(lp4
S'distance'
p5
aF73.68083763122559
aa(lp6
S'timestamp'
p7
aF7.13533091545105
aatp8
Rp9
.ccollections
OrderedDict
p0
((lp1
(lp2
S'state'
p3
aI0
aa(lp4
S'distance'
p5
aF73.68083763122559
aa(lp6
S'timestamp'
p7
aF7.136105060577393
aatp8
Rp9
.ccollections
OrderedDict
p0
((lp1
(lp2
S'state'
p3
aI0
aa(lp4
S'distance'
p5
aF73.68083763122559
aa(lp6
S'timestamp'
p7
aF7.145294904708862
aatp8
Rp9
.ccollections
OrderedDict
p0
((lp1
(lp2
S'state'
p3
aI0
aa(lp4
S'distance'
p5
aF73.68083763122559
aa(lp6
S'timestamp'
p7
aF7.14643406867981
aatp8
Rp9
.ccollections
OrderedDict
p0
((lp1
(lp2
S'state'
p3
aI0
aa(lp4
S'distance'
p5
aF73.68083763122559
aa(lp6
S'timestamp'
p7
aF7.155256032943726
aatp8
Rp9
.ccollections
OrderedDict
p0
((lp1
(lp2
S'state'
p3
aI0
aa(lp4
S'distance'
p5
aF73.68083763122559
aa(lp6
S'timestamp'
p7
aF7.156226873397827
aatp8
Rp9
.ccollections
OrderedDict
p0
((lp1
(lp2
S'state'
p3
aI0
aa(lp4
S'distance'
p5
aF73.68083763122559
aa(lp6
S'timestamp'
p7
aF7.17536997795105
aatp8
Rp9
.ccollections
OrderedDict
p0
((lp1
(lp2
S'state'
p3
aI0
aa(lp4
S'distance'
p5
aF73.68083763122559
aa(lp6
S'timestamp'
p7
aF7.1754560470581055
aatp8
Rp9
.ccollections
OrderedDict
p0
((lp1
(lp2
S'state'
p3
aI0
aa(lp4
S'distance'
p5
aF73.68083763122559
aa(lp6
S'timestamp'
p7
aF7.176456928253174
aatp8
Rp9
.ccollections
OrderedDict
p0
((lp1
(lp2
S'state'
p3
aI0
aa(lp4
S'distance'
p5
aF73.68083763122559
aa(lp6
S'timestamp'
p7
aF7.17753791809082
aatp8
Rp9
.ccollections
OrderedDict
p0
((lp1
(lp2
S'state'
p3
aI0
aa(lp4
S'distance'
p5
aF73.68083763122559
aa(lp6
S'timestamp'
p7
aF7.185199975967407
aatp8
Rp9
.ccollections
OrderedDict
p0
((lp1
(lp2
S'state'
p3
aI0
aa(lp4
S'distance'
p5
aF73.68083763122559
aa(lp6
S'timestamp'
p7
aF7.186063051223755
aatp8
Rp9
.ccollections
OrderedDict
p0
((lp1
(lp2
S'state'
p3
aI0
aa(lp4
S'distance'
p5
aF73.68083763122559
aa(lp6
S'timestamp'
p7
aF7.195129871368408
aatp8
Rp9
.ccollections
OrderedDict
p0
((lp1
(lp2
S'state'
p3
aI0
aa(lp4
S'distance'
p5
aF73.68083763122559
aa(lp6
S'timestamp'
p7
aF7.2058210372924805
aatp8
Rp9
.ccollections
OrderedDict
p0
((lp1
(lp2
S'state'
p3
aI0
aa(lp4
S'distance'
p5
aF73.68083763122559
aa(lp6
S'timestamp'
p7
aF7.205997943878174
aatp8
Rp9
.ccollections
OrderedDict
p0
((lp1
(lp2
S'state'
p3
aI0
aa(lp4
S'distance'
p5
aF73.68083763122559
aa(lp6
S'timestamp'
p7
aF7.2071709632873535
aatp8
Rp9
.ccollections
OrderedDict
p0
((lp1
(lp2
S'state'
p3
aI0
aa(lp4
S'distance'
p5
aF73.68083763122559
aa(lp6
S'timestamp'
p7
aF7.216009855270386
aatp8
Rp9
.ccollections
OrderedDict
p0
((lp1
(lp2
S'state'
p3
aI0
aa(lp4
S'distance'
p5
aF73.68083763122559
aa(lp6
S'timestamp'
p7
aF7.216134071350098
aatp8
Rp9
.ccollections
OrderedDict
p0
((lp1
(lp2
S'state'
p3
aI0
aa(lp4
S'distance'
p5
aF73.68083763122559
aa(lp6
S'timestamp'
p7
aF7.226151943206787
aatp8
Rp9
.ccollections
OrderedDict
p0
((lp1
(lp2
S'state'
p3
aI0
aa(lp4
S'distance'
p5
aF73.68083763122559
aa(lp6
S'timestamp'
p7
aF7.226222038269043
aatp8
Rp9
.ccollections
OrderedDict
p0
((lp1
(lp2
S'state'
p3
aI0
aa(lp4
S'distance'
p5
aF73.68083763122559
aa(lp6
S'timestamp'
p7
aF7.235602855682373
aatp8
Rp9
.ccollections
OrderedDict
p0
((lp1
(lp2
S'state'
p3
aI0
aa(lp4
S'distance'
p5
aF73.68083763122559
aa(lp6
S'timestamp'
p7
aF7.237293004989624
aatp8
Rp9
.ccollections
OrderedDict
p0
((lp1
(lp2
S'state'
p3
aI0
aa(lp4
S'distance'
p5
aF73.68083763122559
aa(lp6
S'timestamp'
p7
aF7.256309986114502
aatp8
Rp9
.ccollections
OrderedDict
p0
((lp1
(lp2
S'state'
p3
aI0
aa(lp4
S'distance'
p5
aF73.68083763122559
aa(lp6
S'timestamp'
p7
aF7.259440898895264
aatp8
Rp9
.ccollections
OrderedDict
p0
((lp1
(lp2
S'state'
p3
aI0
aa(lp4
S'distance'
p5
aF73.68083763122559
aa(lp6
S'timestamp'
p7
aF7.259554862976074
aatp8
Rp9
.ccollections
OrderedDict
p0
((lp1
(lp2
S'state'
p3
aI0
aa(lp4
S'distance'
p5
aF73.68083763122559
aa(lp6
S'timestamp'
p7
aF7.259805917739868
aatp8
Rp9
.ccollections
OrderedDict
p0
((lp1
(lp2
S'state'
p3
aI0
aa(lp4
S'distance'
p5
aF73.68083763122559
aa(lp6
S'timestamp'
p7
aF7.266218900680542
aatp8
Rp9
.ccollections
OrderedDict
p0
((lp1
(lp2
S'state'
p3
aI0
aa(lp4
S'distance'
p5
aF73.68083763122559
aa(lp6
S'timestamp'
p7
aF7.2664830684661865
aatp8
Rp9
.ccollections
OrderedDict
p0
((lp1
(lp2
S'state'
p3
aI0
aa(lp4
S'distance'
p5
aF73.68083763122559
aa(lp6
S'timestamp'
p7
aF7.27535605430603
aatp8
Rp9
.ccollections
OrderedDict
p0
((lp1
(lp2
S'state'
p3
aI0
aa(lp4
S'distance'
p5
aF73.68083763122559
aa(lp6
S'timestamp'
p7
aF7.276442050933838
aatp8
Rp9
.ccollections
OrderedDict
p0
((lp1
(lp2
S'state'
p3
aI0
aa(lp4
S'distance'
p5
aF73.68083763122559
aa(lp6
S'timestamp'
p7
aF7.285523891448975
aatp8
Rp9
.ccollections
OrderedDict
p0
((lp1
(lp2
S'state'
p3
aI0
aa(lp4
S'distance'
p5
aF73.68083763122559
aa(lp6
S'timestamp'
p7
aF7.287065029144287
aatp8
Rp9
.ccollections
OrderedDict
p0
((lp1
(lp2
S'state'
p3
aI0
aa(lp4
S'distance'
p5
aF73.68083763122559
aa(lp6
S'timestamp'
p7
aF7.295332908630371
aatp8
Rp9
.ccollections
OrderedDict
p0
((lp1
(lp2
S'state'
p3
aI0
aa(lp4
S'distance'
p5
aF73.68083763122559
aa(lp6
S'timestamp'
p7
aF7.295655012130737
aatp8
Rp9
.ccollections
OrderedDict
p0
((lp1
(lp2
S'state'
p3
aI0
aa(lp4
S'distance'
p5
aF73.68083763122559
aa(lp6
S'timestamp'
p7
aF7.305196046829224
aatp8
Rp9
.ccollections
OrderedDict
p0
((lp1
(lp2
S'state'
p3
aI0
aa(lp4
S'distance'
p5
aF73.68083763122559
aa(lp6
S'timestamp'
p7
aF7.306092977523804
aatp8
Rp9
.ccollections
OrderedDict
p0
((lp1
(lp2
S'state'
p3
aI0
aa(lp4
S'distance'
p5
aF73.68083763122559
aa(lp6
S'timestamp'
p7
aF7.315397024154663
aatp8
Rp9
.ccollections
OrderedDict
p0
((lp1
(lp2
S'state'
p3
aI0
aa(lp4
S'distance'
p5
aF73.68083763122559
aa(lp6
S'timestamp'
p7
aF7.315777063369751
aatp8
Rp9
.ccollections
OrderedDict
p0
((lp1
(lp2
S'state'
p3
aI0
aa(lp4
S'distance'
p5
aF73.68083763122559
aa(lp6
S'timestamp'
p7
aF7.325034856796265
aatp8
Rp9
.ccollections
OrderedDict
p0
((lp1
(lp2
S'state'
p3
aI0
aa(lp4
S'distance'
p5
aF73.68083763122559
aa(lp6
S'timestamp'
p7
aF7.326580047607422
aatp8
Rp9
.ccollections
OrderedDict
p0
((lp1
(lp2
S'state'
p3
aI0
aa(lp4
S'distance'
p5
aF73.68083763122559
aa(lp6
S'timestamp'
p7
aF7.335268974304199
aatp8
Rp9
.ccollections
OrderedDict
p0
((lp1
(lp2
S'state'
p3
aI0
aa(lp4
S'distance'
p5
aF73.68083763122559
aa(lp6
S'timestamp'
p7
aF7.335775852203369
aatp8
Rp9
.ccollections
OrderedDict
p0
((lp1
(lp2
S'state'
p3
aI0
aa(lp4
S'distance'
p5
aF73.68083763122559
aa(lp6
S'timestamp'
p7
aF7.345402002334595
aatp8
Rp9
.ccollections
OrderedDict
p0
((lp1
(lp2
S'state'
p3
aI0
aa(lp4
S'distance'
p5
aF73.68083763122559
aa(lp6
S'timestamp'
p7
aF7.345875024795532
aatp8
Rp9
.ccollections
OrderedDict
p0
((lp1
(lp2
S'state'
p3
aI0
aa(lp4
S'distance'
p5
aF73.68083763122559
aa(lp6
S'timestamp'
p7
aF7.3554370403289795
aatp8
Rp9
.ccollections
OrderedDict
p0
((lp1
(lp2
S'state'
p3
aI0
aa(lp4
S'distance'
p5
aF73.68083763122559
aa(lp6
S'timestamp'
p7
aF7.355665922164917
aatp8
Rp9
.ccollections
OrderedDict
p0
((lp1
(lp2
S'state'
p3
aI0
aa(lp4
S'distance'
p5
aF73.68083763122559
aa(lp6
S'timestamp'
p7
aF7.365169048309326
aatp8
Rp9
.ccollections
OrderedDict
p0
((lp1
(lp2
S'state'
p3
aI0
aa(lp4
S'distance'
p5
aF73.68083763122559
aa(lp6
S'timestamp'
p7
aF7.366848945617676
aatp8
Rp9
.ccollections
OrderedDict
p0
((lp1
(lp2
S'state'
p3
aI0
aa(lp4
S'distance'
p5
aF73.68083763122559
aa(lp6
S'timestamp'
p7
aF7.375401973724365
aatp8
Rp9
.ccollections
OrderedDict
p0
((lp1
(lp2
S'state'
p3
aI0
aa(lp4
S'distance'
p5
aF73.68083763122559
aa(lp6
S'timestamp'
p7
aF7.375771999359131
aatp8
Rp9
.ccollections
OrderedDict
p0
((lp1
(lp2
S'state'
p3
aI0
aa(lp4
S'distance'
p5
aF73.68083763122559
aa(lp6
S'timestamp'
p7
aF7.385520935058594
aatp8
Rp9
.ccollections
OrderedDict
p0
((lp1
(lp2
S'state'
p3
aI0
aa(lp4
S'distance'
p5
aF73.68083763122559
aa(lp6
S'timestamp'
p7
aF7.386059045791626
aatp8
Rp9
.ccollections
OrderedDict
p0
((lp1
(lp2
S'state'
p3
aI0
aa(lp4
S'distance'
p5
aF73.68083763122559
aa(lp6
S'timestamp'
p7
aF7.415339946746826
aatp8
Rp9
.ccollections
OrderedDict
p0
((lp1
(lp2
S'state'
p3
aI0
aa(lp4
S'distance'
p5
aF73.68083763122559
aa(lp6
S'timestamp'
p7
aF7.415929079055786
aatp8
Rp9
.ccollections
OrderedDict
p0
((lp1
(lp2
S'state'
p3
aI0
aa(lp4
S'distance'
p5
aF73.68083763122559
aa(lp6
S'timestamp'
p7
aF7.416705846786499
aatp8
Rp9
.ccollections
OrderedDict
p0
((lp1
(lp2
S'state'
p3
aI0
aa(lp4
S'distance'
p5
aF73.68083763122559
aa(lp6
S'timestamp'
p7
aF7.416799068450928
aatp8
Rp9
.ccollections
OrderedDict
p0
((lp1
(lp2
S'state'
p3
aI0
aa(lp4
S'distance'
p5
aF73.68083763122559
aa(lp6
S'timestamp'
p7
aF7.425482988357544
aatp8
Rp9
.ccollections
OrderedDict
p0
((lp1
(lp2
S'state'
p3
aI0
aa(lp4
S'distance'
p5
aF73.68083763122559
aa(lp6
S'timestamp'
p7
aF7.425610065460205
aatp8
Rp9
.ccollections
OrderedDict
p0
((lp1
(lp2
S'state'
p3
aI0
aa(lp4
S'distance'
p5
aF73.68083763122559
aa(lp6
S'timestamp'
p7
aF7.426209926605225
aatp8
Rp9
.ccollections
OrderedDict
p0
((lp1
(lp2
S'state'
p3
aI0
aa(lp4
S'distance'
p5
aF73.68083763122559
aa(lp6
S'timestamp'
p7
aF7.42713189125061
aatp8
Rp9
.ccollections
OrderedDict
p0
((lp1
(lp2
S'state'
p3
aI0
aa(lp4
S'distance'
p5
aF73.68083763122559
aa(lp6
S'timestamp'
p7
aF7.435297012329102
aatp8
Rp9
.ccollections
OrderedDict
p0
((lp1
(lp2
S'state'
p3
aI0
aa(lp4
S'distance'
p5
aF73.68083763122559
aa(lp6
S'timestamp'
p7
aF7.435839891433716
aatp8
Rp9
.ccollections
OrderedDict
p0
((lp1
(lp2
S'state'
p3
aI0
aa(lp4
S'distance'
p5
aF73.68083763122559
aa(lp6
S'timestamp'
p7
aF7.445397853851318
aatp8
Rp9
.ccollections
OrderedDict
p0
((lp1
(lp2
S'state'
p3
aI0
aa(lp4
S'distance'
p5
aF73.68083763122559
aa(lp6
S'timestamp'
p7
aF7.445778846740723
aatp8
Rp9
.ccollections
OrderedDict
p0
((lp1
(lp2
S'state'
p3
aI0
aa(lp4
S'distance'
p5
aF73.68083763122559
aa(lp6
S'timestamp'
p7
aF7.455460071563721
aatp8
Rp9
.ccollections
OrderedDict
p0
((lp1
(lp2
S'state'
p3
aI0
aa(lp4
S'distance'
p5
aF73.68083763122559
aa(lp6
S'timestamp'
p7
aF7.455618858337402
aatp8
Rp9
.ccollections
OrderedDict
p0
((lp1
(lp2
S'state'
p3
aI0
aa(lp4
S'distance'
p5
aF73.68083763122559
aa(lp6
S'timestamp'
p7
aF7.465681076049805
aatp8
Rp9
.ccollections
OrderedDict
p0
((lp1
(lp2
S'state'
p3
aI0
aa(lp4
S'distance'
p5
aF73.68083763122559
aa(lp6
S'timestamp'
p7
aF7.465764045715332
aatp8
Rp9
.ccollections
OrderedDict
p0
((lp1
(lp2
S'state'
p3
aI0
aa(lp4
S'distance'
p5
aF73.68083763122559
aa(lp6
S'timestamp'
p7
aF7.476101875305176
aatp8
Rp9
.ccollections
OrderedDict
p0
((lp1
(lp2
S'state'
p3
aI0
aa(lp4
S'distance'
p5
aF73.68083763122559
aa(lp6
S'timestamp'
p7
aF7.47649884223938
aatp8
Rp9
.ccollections
OrderedDict
p0
((lp1
(lp2
S'state'
p3
aI0
aa(lp4
S'distance'
p5
aF73.68083763122559
aa(lp6
S'timestamp'
p7
aF7.485185861587524
aatp8
Rp9
.ccollections
OrderedDict
p0
((lp1
(lp2
S'state'
p3
aI0
aa(lp4
S'distance'
p5
aF73.68083763122559
aa(lp6
S'timestamp'
p7
aF7.485934019088745
aatp8
Rp9
.ccollections
OrderedDict
p0
((lp1
(lp2
S'state'
p3
aI0
aa(lp4
S'distance'
p5
aF73.68083763122559
aa(lp6
S'timestamp'
p7
aF7.495390892028809
aatp8
Rp9
.ccollections
OrderedDict
p0
((lp1
(lp2
S'state'
p3
aI0
aa(lp4
S'distance'
p5
aF73.68083763122559
aa(lp6
S'timestamp'
p7
aF7.495804071426392
aatp8
Rp9
.ccollections
OrderedDict
p0
((lp1
(lp2
S'state'
p3
aI0
aa(lp4
S'distance'
p5
aF73.68083763122559
aa(lp6
S'timestamp'
p7
aF7.5051820278167725
aatp8
Rp9
.ccollections
OrderedDict
p0
((lp1
(lp2
S'state'
p3
aI0
aa(lp4
S'distance'
p5
aF73.68083763122559
aa(lp6
S'timestamp'
p7
aF7.505864858627319
aatp8
Rp9
.ccollections
OrderedDict
p0
((lp1
(lp2
S'state'
p3
aI0
aa(lp4
S'distance'
p5
aF73.68083763122559
aa(lp6
S'timestamp'
p7
aF7.515249013900757
aatp8
Rp9
.ccollections
OrderedDict
p0
((lp1
(lp2
S'state'
p3
aI0
aa(lp4
S'distance'
p5
aF73.68083763122559
aa(lp6
S'timestamp'
p7
aF7.5160510540008545
aatp8
Rp9
.ccollections
OrderedDict
p0
((lp1
(lp2
S'state'
p3
aI0
aa(lp4
S'distance'
p5
aF73.68083763122559
aa(lp6
S'timestamp'
p7
aF7.52512001991272
aatp8
Rp9
.ccollections
OrderedDict
p0
((lp1
(lp2
S'state'
p3
aI0
aa(lp4
S'distance'
p5
aF73.68083763122559
aa(lp6
S'timestamp'
p7
aF7.525899887084961
aatp8
Rp9
.ccollections
OrderedDict
p0
((lp1
(lp2
S'state'
p3
aI0
aa(lp4
S'distance'
p5
aF73.68083763122559
aa(lp6
S'timestamp'
p7
aF7.535405874252319
aatp8
Rp9
.ccollections
OrderedDict
p0
((lp1
(lp2
S'state'
p3
aI0
aa(lp4
S'distance'
p5
aF73.68083763122559
aa(lp6
S'timestamp'
p7
aF7.5363240242004395
aatp8
Rp9
.ccollections
OrderedDict
p0
((lp1
(lp2
S'state'
p3
aI0
aa(lp4
S'distance'
p5
aF73.68083763122559
aa(lp6
S'timestamp'
p7
aF7.545467853546143
aatp8
Rp9
.ccollections
OrderedDict
p0
((lp1
(lp2
S'state'
p3
aI0
aa(lp4
S'distance'
p5
aF73.68083763122559
aa(lp6
S'timestamp'
p7
aF7.545947074890137
aatp8
Rp9
.ccollections
OrderedDict
p0
((lp1
(lp2
S'state'
p3
aI0
aa(lp4
S'distance'
p5
aF73.68083763122559
aa(lp6
S'timestamp'
p7
aF7.5554468631744385
aatp8
Rp9
.ccollections
OrderedDict
p0
((lp1
(lp2
S'state'
p3
aI0
aa(lp4
S'distance'
p5
aF73.68083763122559
aa(lp6
S'timestamp'
p7
aF7.555645942687988
aatp8
Rp9
.ccollections
OrderedDict
p0
((lp1
(lp2
S'state'
p3
aI0
aa(lp4
S'distance'
p5
aF73.68083763122559
aa(lp6
S'timestamp'
p7
aF7.565187931060791
aatp8
Rp9
.ccollections
OrderedDict
p0
((lp1
(lp2
S'state'
p3
aI0
aa(lp4
S'distance'
p5
aF73.68083763122559
aa(lp6
S'timestamp'
p7
aF7.575453042984009
aatp8
Rp9
.ccollections
OrderedDict
p0
((lp1
(lp2
S'state'
p3
aI0
aa(lp4
S'distance'
p5
aF73.68083763122559
aa(lp6
S'timestamp'
p7
aF7.575739860534668
aatp8
Rp9
.ccollections
OrderedDict
p0
((lp1
(lp2
S'state'
p3
aI0
aa(lp4
S'distance'
p5
aF73.68083763122559
aa(lp6
S'timestamp'
p7
aF7.576900005340576
aatp8
Rp9
.ccollections
OrderedDict
p0
((lp1
(lp2
S'state'
p3
aI0
aa(lp4
S'distance'
p5
aF73.68083763122559
aa(lp6
S'timestamp'
p7
aF7.585314989089966
aatp8
Rp9
.ccollections
OrderedDict
p0
((lp1
(lp2
S'state'
p3
aI0
aa(lp4
S'distance'
p5
aF73.68083763122559
aa(lp6
S'timestamp'
p7
aF7.585530042648315
aatp8
Rp9
.ccollections
OrderedDict
p0
((lp1
(lp2
S'state'
p3
aI0
aa(lp4
S'distance'
p5
aF73.68083763122559
aa(lp6
S'timestamp'
p7
aF7.59519100189209
aatp8
Rp9
.ccollections
OrderedDict
p0
((lp1
(lp2
S'state'
p3
aI0
aa(lp4
S'distance'
p5
aF73.68083763122559
aa(lp6
S'timestamp'
p7
aF7.595989942550659
aatp8
Rp9
.ccollections
OrderedDict
p0
((lp1
(lp2
S'state'
p3
aI0
aa(lp4
S'distance'
p5
aF73.68083763122559
aa(lp6
S'timestamp'
p7
aF7.6051719188690186
aatp8
Rp9
.ccollections
OrderedDict
p0
((lp1
(lp2
S'state'
p3
aI0
aa(lp4
S'distance'
p5
aF73.68083763122559
aa(lp6
S'timestamp'
p7
aF7.605992078781128
aatp8
Rp9
.ccollections
OrderedDict
p0
((lp1
(lp2
S'state'
p3
aI0
aa(lp4
S'distance'
p5
aF73.68083763122559
aa(lp6
S'timestamp'
p7
aF7.615431070327759
aatp8
Rp9
.ccollections
OrderedDict
p0
((lp1
(lp2
S'state'
p3
aI0
aa(lp4
S'distance'
p5
aF73.68083763122559
aa(lp6
S'timestamp'
p7
aF7.615685939788818
aatp8
Rp9
.ccollections
OrderedDict
p0
((lp1
(lp2
S'state'
p3
aI0
aa(lp4
S'distance'
p5
aF73.68083763122559
aa(lp6
S'timestamp'
p7
aF7.625375986099243
aatp8
Rp9
.ccollections
OrderedDict
p0
((lp1
(lp2
S'state'
p3
aI0
aa(lp4
S'distance'
p5
aF73.68083763122559
aa(lp6
S'timestamp'
p7
aF7.62550687789917
aatp8
Rp9
.ccollections
OrderedDict
p0
((lp1
(lp2
S'state'
p3
aI0
aa(lp4
S'distance'
p5
aF73.68083763122559
aa(lp6
S'timestamp'
p7
aF7.635372877120972
aatp8
Rp9
.ccollections
OrderedDict
p0
((lp1
(lp2
S'state'
p3
aI0
aa(lp4
S'distance'
p5
aF73.68083763122559
aa(lp6
S'timestamp'
p7
aF7.635580062866211
aatp8
Rp9
.ccollections
OrderedDict
p0
((lp1
(lp2
S'state'
p3
aI0
aa(lp4
S'distance'
p5
aF73.68083763122559
aa(lp6
S'timestamp'
p7
aF7.645519971847534
aatp8
Rp9
.ccollections
OrderedDict
p0
((lp1
(lp2
S'state'
p3
aI0
aa(lp4
S'distance'
p5
aF73.68083763122559
aa(lp6
S'timestamp'
p7
aF7.645747900009155
aatp8
Rp9
.ccollections
OrderedDict
p0
((lp1
(lp2
S'state'
p3
aI0
aa(lp4
S'distance'
p5
aF73.68083763122559
aa(lp6
S'timestamp'
p7
aF7.655192852020264
aatp8
Rp9
.ccollections
OrderedDict
p0
((lp1
(lp2
S'state'
p3
aI0
aa(lp4
S'distance'
p5
aF73.68083763122559
aa(lp6
S'timestamp'
p7
aF7.6580939292907715
aatp8
Rp9
.ccollections
OrderedDict
p0
((lp1
(lp2
S'state'
p3
aI0
aa(lp4
S'distance'
p5
aF73.68083763122559
aa(lp6
S'timestamp'
p7
aF7.6651928424835205
aatp8
Rp9
.ccollections
OrderedDict
p0
((lp1
(lp2
S'state'
p3
aI0
aa(lp4
S'distance'
p5
aF73.68083763122559
aa(lp6
S'timestamp'
p7
aF7.665480852127075
aatp8
Rp9
.ccollections
OrderedDict
p0
((lp1
(lp2
S'state'
p3
aI0
aa(lp4
S'distance'
p5
aF73.68083763122559
aa(lp6
S'timestamp'
p7
aF7.675359010696411
aatp8
Rp9
.ccollections
OrderedDict
p0
((lp1
(lp2
S'state'
p3
aI0
aa(lp4
S'distance'
p5
aF73.68083763122559
aa(lp6
S'timestamp'
p7
aF7.6759960651397705
aatp8
Rp9
.ccollections
OrderedDict
p0
((lp1
(lp2
S'state'
p3
aI0
aa(lp4
S'distance'
p5
aF73.68083763122559
aa(lp6
S'timestamp'
p7
aF7.6856138706207275
aatp8
Rp9
.ccollections
OrderedDict
p0
((lp1
(lp2
S'state'
p3
aI0
aa(lp4
S'distance'
p5
aF73.68083763122559
aa(lp6
S'timestamp'
p7
aF7.6857640743255615
aatp8
Rp9
.ccollections
OrderedDict
p0
((lp1
(lp2
S'state'
p3
aI0
aa(lp4
S'distance'
p5
aF73.68083763122559
aa(lp6
S'timestamp'
p7
aF7.695272922515869
aatp8
Rp9
.ccollections
OrderedDict
p0
((lp1
(lp2
S'state'
p3
aI0
aa(lp4
S'distance'
p5
aF73.68083763122559
aa(lp6
S'timestamp'
p7
aF7.695868968963623
aatp8
Rp9
.ccollections
OrderedDict
p0
((lp1
(lp2
S'state'
p3
aI0
aa(lp4
S'distance'
p5
aF73.68083763122559
aa(lp6
S'timestamp'
p7
aF7.705254077911377
aatp8
Rp9
.ccollections
OrderedDict
p0
((lp1
(lp2
S'state'
p3
aI0
aa(lp4
S'distance'
p5
aF73.68083763122559
aa(lp6
S'timestamp'
p7
aF7.706125974655151
aatp8
Rp9
.ccollections
OrderedDict
p0
((lp1
(lp2
S'state'
p3
aI0
aa(lp4
S'distance'
p5
aF73.68083763122559
aa(lp6
S'timestamp'
p7
aF7.715183973312378
aatp8
Rp9
.ccollections
OrderedDict
p0
((lp1
(lp2
S'state'
p3
aI0
aa(lp4
S'distance'
p5
aF73.68083763122559
aa(lp6
S'timestamp'
p7
aF7.716079950332642
aatp8
Rp9
.ccollections
OrderedDict
p0
((lp1
(lp2
S'state'
p3
aI0
aa(lp4
S'distance'
p5
aF73.68083763122559
aa(lp6
S'timestamp'
p7
aF7.725360870361328
aatp8
Rp9
.ccollections
OrderedDict
p0
((lp1
(lp2
S'state'
p3
aI0
aa(lp4
S'distance'
p5
aF73.68083763122559
aa(lp6
S'timestamp'
p7
aF7.725607872009277
aatp8
Rp9
.ccollections
OrderedDict
p0
((lp1
(lp2
S'state'
p3
aI0
aa(lp4
S'distance'
p5
aF73.68083763122559
aa(lp6
S'timestamp'
p7
aF7.735218048095703
aatp8
Rp9
.ccollections
OrderedDict
p0
((lp1
(lp2
S'state'
p3
aI0
aa(lp4
S'distance'
p5
aF73.68083763122559
aa(lp6
S'timestamp'
p7
aF7.736058950424194
aatp8
Rp9
.ccollections
OrderedDict
p0
((lp1
(lp2
S'state'
p3
aI0
aa(lp4
S'distance'
p5
aF73.68083763122559
aa(lp6
S'timestamp'
p7
aF7.7453038692474365
aatp8
Rp9
.ccollections
OrderedDict
p0
((lp1
(lp2
S'state'
p3
aI0
aa(lp4
S'distance'
p5
aF73.68083763122559
aa(lp6
S'timestamp'
p7
aF7.745524883270264
aatp8
Rp9
.ccollections
OrderedDict
p0
((lp1
(lp2
S'state'
p3
aI0
aa(lp4
S'distance'
p5
aF73.68083763122559
aa(lp6
S'timestamp'
p7
aF7.755436897277832
aatp8
Rp9
.ccollections
OrderedDict
p0
((lp1
(lp2
S'state'
p3
aI0
aa(lp4
S'distance'
p5
aF73.68083763122559
aa(lp6
S'timestamp'
p7
aF7.755717039108276
aatp8
Rp9
.ccollections
OrderedDict
p0
((lp1
(lp2
S'state'
p3
aI0
aa(lp4
S'distance'
p5
aF73.68083763122559
aa(lp6
S'timestamp'
p7
aF7.765275001525879
aatp8
Rp9
.ccollections
OrderedDict
p0
((lp1
(lp2
S'state'
p3
aI0
aa(lp4
S'distance'
p5
aF73.68083763122559
aa(lp6
S'timestamp'
p7
aF7.766113996505737
aatp8
Rp9
.ccollections
OrderedDict
p0
((lp1
(lp2
S'state'
p3
aI0
aa(lp4
S'distance'
p5
aF73.68083763122559
aa(lp6
S'timestamp'
p7
aF7.7752649784088135
aatp8
Rp9
.ccollections
OrderedDict
p0
((lp1
(lp2
S'state'
p3
aI0
aa(lp4
S'distance'
p5
aF73.68083763122559
aa(lp6
S'timestamp'
p7
aF7.775763034820557
aatp8
Rp9
.ccollections
OrderedDict
p0
((lp1
(lp2
S'state'
p3
aI0
aa(lp4
S'distance'
p5
aF73.68083763122559
aa(lp6
S'timestamp'
p7
aF7.78532600402832
aatp8
Rp9
.ccollections
OrderedDict
p0
((lp1
(lp2
S'state'
p3
aI0
aa(lp4
S'distance'
p5
aF73.68083763122559
aa(lp6
S'timestamp'
p7
aF7.785799980163574
aatp8
Rp9
.ccollections
OrderedDict
p0
((lp1
(lp2
S'state'
p3
aI0
aa(lp4
S'distance'
p5
aF73.68083763122559
aa(lp6
S'timestamp'
p7
aF7.795425891876221
aatp8
Rp9
.ccollections
OrderedDict
p0
((lp1
(lp2
S'state'
p3
aI0
aa(lp4
S'distance'
p5
aF73.68083763122559
aa(lp6
S'timestamp'
p7
aF7.795947074890137
aatp8
Rp9
.ccollections
OrderedDict
p0
((lp1
(lp2
S'state'
p3
aI0
aa(lp4
S'distance'
p5
aF73.68083763122559
aa(lp6
S'timestamp'
p7
aF7.805417060852051
aatp8
Rp9
.ccollections
OrderedDict
p0
((lp1
(lp2
S'state'
p3
aI0
aa(lp4
S'distance'
p5
aF73.68083763122559
aa(lp6
S'timestamp'
p7
aF7.805929899215698
aatp8
Rp9
.ccollections
OrderedDict
p0
((lp1
(lp2
S'state'
p3
aI0
aa(lp4
S'distance'
p5
aF73.68083763122559
aa(lp6
S'timestamp'
p7
aF7.815476894378662
aatp8
Rp9
.ccollections
OrderedDict
p0
((lp1
(lp2
S'state'
p3
aI0
aa(lp4
S'distance'
p5
aF73.68083763122559
aa(lp6
S'timestamp'
p7
aF7.815850019454956
aatp8
Rp9
.ccollections
OrderedDict
p0
((lp1
(lp2
S'state'
p3
aI0
aa(lp4
S'distance'
p5
aF73.68083763122559
aa(lp6
S'timestamp'
p7
aF7.825528860092163
aatp8
Rp9
.ccollections
OrderedDict
p0
((lp1
(lp2
S'state'
p3
aI0
aa(lp4
S'distance'
p5
aF73.68083763122559
aa(lp6
S'timestamp'
p7
aF7.825890064239502
aatp8
Rp9
.ccollections
OrderedDict
p0
((lp1
(lp2
S'state'
p3
aI0
aa(lp4
S'distance'
p5
aF73.68083763122559
aa(lp6
S'timestamp'
p7
aF7.835497856140137
aatp8
Rp9
.ccollections
OrderedDict
p0
((lp1
(lp2
S'state'
p3
aI0
aa(lp4
S'distance'
p5
aF73.68083763122559
aa(lp6
S'timestamp'
p7
aF7.836437940597534
aatp8
Rp9
.ccollections
OrderedDict
p0
((lp1
(lp2
S'state'
p3
aI0
aa(lp4
S'distance'
p5
aF73.68083763122559
aa(lp6
S'timestamp'
p7
aF7.847718954086304
aatp8
Rp9
.ccollections
OrderedDict
p0
((lp1
(lp2
S'state'
p3
aI0
aa(lp4
S'distance'
p5
aF73.68083763122559
aa(lp6
S'timestamp'
p7
aF7.848782062530518
aatp8
Rp9
.ccollections
OrderedDict
p0
((lp1
(lp2
S'state'
p3
aI0
aa(lp4
S'distance'
p5
aF73.68083763122559
aa(lp6
S'timestamp'
p7
aF7.8570239543914795
aatp8
Rp9
.ccollections
OrderedDict
p0
((lp1
(lp2
S'state'
p3
aI0
aa(lp4
S'distance'
p5
aF73.68083763122559
aa(lp6
S'timestamp'
p7
aF7.85728907585144
aatp8
Rp9
.ccollections
OrderedDict
p0
((lp1
(lp2
S'state'
p3
aI0
aa(lp4
S'distance'
p5
aF73.68083763122559
aa(lp6
S'timestamp'
p7
aF7.866518974304199
aatp8
Rp9
.ccollections
OrderedDict
p0
((lp1
(lp2
S'state'
p3
aI0
aa(lp4
S'distance'
p5
aF73.68083763122559
aa(lp6
S'timestamp'
p7
aF7.866740942001343
aatp8
Rp9
.ccollections
OrderedDict
p0
((lp1
(lp2
S'state'
p3
aI0
aa(lp4
S'distance'
p5
aF73.68083763122559
aa(lp6
S'timestamp'
p7
aF7.875514030456543
aatp8
Rp9
.ccollections
OrderedDict
p0
((lp1
(lp2
S'state'
p3
aI0
aa(lp4
S'distance'
p5
aF73.68083763122559
aa(lp6
S'timestamp'
p7
aF7.875994920730591
aatp8
Rp9
.ccollections
OrderedDict
p0
((lp1
(lp2
S'state'
p3
aI0
aa(lp4
S'distance'
p5
aF73.68083763122559
aa(lp6
S'timestamp'
p7
aF7.88525390625
aatp8
Rp9
.ccollections
OrderedDict
p0
((lp1
(lp2
S'state'
p3
aI0
aa(lp4
S'distance'
p5
aF73.68083763122559
aa(lp6
S'timestamp'
p7
aF7.885926008224487
aatp8
Rp9
.ccollections
OrderedDict
p0
((lp1
(lp2
S'state'
p3
aI0
aa(lp4
S'distance'
p5
aF73.68083763122559
aa(lp6
S'timestamp'
p7
aF7.895236015319824
aatp8
Rp9
.ccollections
OrderedDict
p0
((lp1
(lp2
S'state'
p3
aI0
aa(lp4
S'distance'
p5
aF73.68083763122559
aa(lp6
S'timestamp'
p7
aF7.895751953125
aatp8
Rp9
.ccollections
OrderedDict
p0
((lp1
(lp2
S'state'
p3
aI0
aa(lp4
S'distance'
p5
aF73.68083763122559
aa(lp6
S'timestamp'
p7
aF7.905398845672607
aatp8
Rp9
.ccollections
OrderedDict
p0
((lp1
(lp2
S'state'
p3
aI0
aa(lp4
S'distance'
p5
aF73.68083763122559
aa(lp6
S'timestamp'
p7
aF7.905642986297607
aatp8
Rp9
.ccollections
OrderedDict
p0
((lp1
(lp2
S'state'
p3
aI0
aa(lp4
S'distance'
p5
aF73.68083763122559
aa(lp6
S'timestamp'
p7
aF7.915463924407959
aatp8
Rp9
.ccollections
OrderedDict
p0
((lp1
(lp2
S'state'
p3
aI0
aa(lp4
S'distance'
p5
aF73.68083763122559
aa(lp6
S'timestamp'
p7
aF7.915961980819702
aatp8
Rp9
.ccollections
OrderedDict
p0
((lp1
(lp2
S'state'
p3
aI0
aa(lp4
S'distance'
p5
aF73.68083763122559
aa(lp6
S'timestamp'
p7
aF7.925314903259277
aatp8
Rp9
.ccollections
OrderedDict
p0
((lp1
(lp2
S'state'
p3
aI0
aa(lp4
S'distance'
p5
aF73.68083763122559
aa(lp6
S'timestamp'
p7
aF7.9263410568237305
aatp8
Rp9
.ccollections
OrderedDict
p0
((lp1
(lp2
S'state'
p3
aI0
aa(lp4
S'distance'
p5
aF73.68083763122559
aa(lp6
S'timestamp'
p7
aF7.935193061828613
aatp8
Rp9
.ccollections
OrderedDict
p0
((lp1
(lp2
S'state'
p3
aI0
aa(lp4
S'distance'
p5
aF73.68083763122559
aa(lp6
S'timestamp'
p7
aF7.945360898971558
aatp8
Rp9
.ccollections
OrderedDict
p0
((lp1
(lp2
S'state'
p3
aI0
aa(lp4
S'distance'
p5
aF73.68083763122559
aa(lp6
S'timestamp'
p7
aF7.946120023727417
aatp8
Rp9
.ccollections
OrderedDict
p0
((lp1
(lp2
S'state'
p3
aI0
aa(lp4
S'distance'
p5
aF73.68083763122559
aa(lp6
S'timestamp'
p7
aF7.946297883987427
aatp8
Rp9
.ccollections
OrderedDict
p0
((lp1
(lp2
S'state'
p3
aI0
aa(lp4
S'distance'
p5
aF73.68083763122559
aa(lp6
S'timestamp'
p7
aF7.975151062011719
aatp8
Rp9
.ccollections
OrderedDict
p0
((lp1
(lp2
S'state'
p3
aI0
aa(lp4
S'distance'
p5
aF73.68083763122559
aa(lp6
S'timestamp'
p7
aF7.975709915161133
aatp8
Rp9
.ccollections
OrderedDict
p0
((lp1
(lp2
S'state'
p3
aI0
aa(lp4
S'distance'
p5
aF73.68083763122559
aa(lp6
S'timestamp'
p7
aF7.976552963256836
aatp8
Rp9
.ccollections
OrderedDict
p0
((lp1
(lp2
S'state'
p3
aI0
aa(lp4
S'distance'
p5
aF73.68083763122559
aa(lp6
S'timestamp'
p7
aF7.97719407081604
aatp8
Rp9
.ccollections
OrderedDict
p0
((lp1
(lp2
S'state'
p3
aI0
aa(lp4
S'distance'
p5
aF73.68083763122559
aa(lp6
S'timestamp'
p7
aF7.985270977020264
aatp8
Rp9
.ccollections
OrderedDict
p0
((lp1
(lp2
S'state'
p3
aI0
aa(lp4
S'distance'
p5
aF73.68083763122559
aa(lp6
S'timestamp'
p7
aF7.985507011413574
aatp8
Rp9
.ccollections
OrderedDict
p0
((lp1
(lp2
S'state'
p3
aI0
aa(lp4
S'distance'
p5
aF73.68083763122559
aa(lp6
S'timestamp'
p7
aF7.986166000366211
aatp8
Rp9
.ccollections
OrderedDict
p0
((lp1
(lp2
S'state'
p3
aI0
aa(lp4
S'distance'
p5
aF73.68083763122559
aa(lp6
S'timestamp'
p7
aF7.987236022949219
aatp8
Rp9
.ccollections
OrderedDict
p0
((lp1
(lp2
S'state'
p3
aI0
aa(lp4
S'distance'
p5
aF73.68083763122559
aa(lp6
S'timestamp'
p7
aF7.995254039764404
aatp8
Rp9
.ccollections
OrderedDict
p0
((lp1
(lp2
S'state'
p3
aI0
aa(lp4
S'distance'
p5
aF73.68083763122559
aa(lp6
S'timestamp'
p7
aF7.995898008346558
aatp8
Rp9
.