ccollections
OrderedDict
p0
((lp1
(lp2
S'state'
p3
aI0
aa(lp4
S'distance'
p5
aF387.59214782714844
aa(lp6
S'timestamp'
p7
aF0.00032711029052734375
aatp8
Rp9
.ccollections
OrderedDict
p0
((lp1
(lp2
S'state'
p3
aI0
aa(lp4
S'distance'
p5
aF387.59214782714844
aa(lp6
S'timestamp'
p7
aF0.0012869834899902344
aatp8
Rp9
.ccollections
OrderedDict
p0
((lp1
(lp2
S'state'
p3
aI0
aa(lp4
S'distance'
p5
aF387.59214782714844
aa(lp6
S'timestamp'
p7
aF0.009752988815307617
aatp8
Rp9
.ccollections
OrderedDict
p0
((lp1
(lp2
S'state'
p3
aI0
aa(lp4
S'distance'
p5
aF387.59214782714844
aa(lp6
S'timestamp'
p7
aF0.010428190231323242
aatp8
Rp9
.ccollections
OrderedDict
p0
((lp1
(lp2
S'state'
p3
aI0
aa(lp4
S'distance'
p5
aF387.59214782714844
aa(lp6
S'timestamp'
p7
aF0.020172119140625
aatp8
Rp9
.ccollections
OrderedDict
p0
((lp1
(lp2
S'state'
p3
aI0
aa(lp4
S'distance'
p5
aF387.59214782714844
aa(lp6
S'timestamp'
p7
aF0.02035808563232422
aatp8
Rp9
.ccollections
OrderedDict
p0
((lp1
(lp2
S'state'
p3
aI0
aa(lp4
S'distance'
p5
aF387.59214782714844
aa(lp6
S'timestamp'
p7
aF0.0307161808013916
aatp8
Rp9
.ccollections
OrderedDict
p0
((lp1
(lp2
S'state'
p3
aI0
aa(lp4
S'distance'
p5
aF387.59214782714844
aa(lp6
S'timestamp'
p7
aF0.032093048095703125
aatp8
Rp9
.ccollections
OrderedDict
p0
((lp1
(lp2
S'state'
p3
aI0
aa(lp4
S'distance'
p5
aF387.59214782714844
aa(lp6
S'timestamp'
p7
aF0.04351305961608887
aatp8
Rp9
.ccollections
OrderedDict
p0
((lp1
(lp2
S'state'
p3
aI0
aa(lp4
S'distance'
p5
aF387.59214782714844
aa(lp6
S'timestamp'
p7
aF0.04910707473754883
aatp8
Rp9
.ccollections
OrderedDict
p0
((lp1
(lp2
S'state'
p3
aI0
aa(lp4
S'distance'
p5
aF387.59214782714844
aa(lp6
S'timestamp'
p7
aF0.0517270565032959
aatp8
Rp9
.ccollections
OrderedDict
p0
((lp1
(lp2
S'state'
p3
aI0
aa(lp4
S'distance'
p5
aF387.59214782714844
aa(lp6
S'timestamp'
p7
aF0.05218505859375
aatp8
Rp9
.ccollections
OrderedDict
p0
((lp1
(lp2
S'state'
p3
aI0
aa(lp4
S'distance'
p5
aF387.59214782714844
aa(lp6
S'timestamp'
p7
aF0.0602421760559082
aatp8
Rp9
.ccollections
OrderedDict
p0
((lp1
(lp2
S'state'
p3
aI0
aa(lp4
S'distance'
p5
aF387.59214782714844
aa(lp6
S'timestamp'
p7
aF0.0612490177154541
aatp8
Rp9
.ccollections
OrderedDict
p0
((lp1
(lp2
S'state'
p3
aI0
aa(lp4
S'distance'
p5
aF387.59214782714844
aa(lp6
S'timestamp'
p7
aF0.07033920288085938
aatp8
Rp9
.ccollections
OrderedDict
p0
((lp1
(lp2
S'state'
p3
aI0
aa(lp4
S'distance'
p5
aF387.59214782714844
aa(lp6
S'timestamp'
p7
aF0.07041597366333008
aatp8
Rp9
.ccollections
OrderedDict
p0
((lp1
(lp2
S'state'
p3
aI0
aa(lp4
S'distance'
p5
aF387.59214782714844
aa(lp6
S'timestamp'
p7
aF0.08047819137573242
aatp8
Rp9
.ccollections
OrderedDict
p0
((lp1
(lp2
S'state'
p3
aI0
aa(lp4
S'distance'
p5
aF387.59214782714844
aa(lp6
S'timestamp'
p7
aF0.08160614967346191
aatp8
Rp9
.ccollections
OrderedDict
p0
((lp1
(lp2
S'state'
p3
aI0
aa(lp4
S'distance'
p5
aF387.59214782714844
aa(lp6
S'timestamp'
p7
aF0.09069013595581055
aatp8
Rp9
.ccollections
OrderedDict
p0
((lp1
(lp2
S'state'
p3
aI0
aa(lp4
S'distance'
p5
aF387.59214782714844
aa(lp6
S'timestamp'
p7
aF0.09139418601989746
aatp8
Rp9
.ccollections
OrderedDict
p0
((lp1
(lp2
S'state'
p3
aI0
aa(lp4
S'distance'
p5
aF387.59214782714844
aa(lp6
S'timestamp'
p7
aF0.09961915016174316
aatp8
Rp9
.ccollections
OrderedDict
p0
((lp1
(lp2
S'state'
p3
aI0
aa(lp4
S'distance'
p5
aF387.59214782714844
aa(lp6
S'timestamp'
p7
aF0.10015606880187988
aatp8
Rp9
.ccollections
OrderedDict
p0
((lp1
(lp2
S'state'
p3
aI0
aa(lp4
S'distance'
p5
aF387.59214782714844
aa(lp6
S'timestamp'
p7
aF0.11009597778320312
aatp8
Rp9
.ccollections
OrderedDict
p0
((lp1
(lp2
S'state'
p3
aI0
aa(lp4
S'distance'
p5
aF387.59214782714844
aa(lp6
S'timestamp'
p7
aF0.11132502555847168
aatp8
Rp9
.ccollections
OrderedDict
p0
((lp1
(lp2
S'state'
p3
aI0
aa(lp4
S'distance'
p5
aF387.59214782714844
aa(lp6
S'timestamp'
p7
aF0.11961197853088379
aatp8
Rp9
.ccollections
OrderedDict
p0
((lp1
(lp2
S'state'
p3
aI0
aa(lp4
S'distance'
p5
aF387.59214782714844
aa(lp6
S'timestamp'
p7
aF0.12038516998291016
aatp8
Rp9
.ccollections
OrderedDict
p0
((lp1
(lp2
S'state'
p3
aI0
aa(lp4
S'distance'
p5
aF387.59214782714844
aa(lp6
S'timestamp'
p7
aF0.13062405586242676
aatp8
Rp9
.ccollections
OrderedDict
p0
((lp1
(lp2
S'state'
p3
aI0
aa(lp4
S'distance'
p5
aF387.59214782714844
aa(lp6
S'timestamp'
p7
aF0.13100314140319824
aatp8
Rp9
.ccollections
OrderedDict
p0
((lp1
(lp2
S'state'
p3
aI0
aa(lp4
S'distance'
p5
aF387.59214782714844
aa(lp6
S'timestamp'
p7
aF0.14159297943115234
aatp8
Rp9
.ccollections
OrderedDict
p0
((lp1
(lp2
S'state'
p3
aI0
aa(lp4
S'distance'
p5
aF387.59214782714844
aa(lp6
S'timestamp'
p7
aF0.14223909378051758
aatp8
Rp9
.ccollections
OrderedDict
p0
((lp1
(lp2
S'state'
p3
aI0
aa(lp4
S'distance'
p5
aF387.59214782714844
aa(lp6
S'timestamp'
p7
aF0.15054917335510254
aatp8
Rp9
.ccollections
OrderedDict
p0
((lp1
(lp2
S'state'
p3
aI0
aa(lp4
S'distance'
p5
aF387.59214782714844
aa(lp6
S'timestamp'
p7
aF0.1506509780883789
aatp8
Rp9
.ccollections
OrderedDict
p0
((lp1
(lp2
S'state'
p3
aI0
aa(lp4
S'distance'
p5
aF387.59214782714844
aa(lp6
S'timestamp'
p7
aF0.16045808792114258
aatp8
Rp9
.ccollections
OrderedDict
p0
((lp1
(lp2
S'state'
p3
aI0
aa(lp4
S'distance'
p5
aF387.59214782714844
aa(lp6
S'timestamp'
p7
aF0.16065216064453125
aatp8
Rp9
.ccollections
OrderedDict
p0
((lp1
(lp2
S'state'
p3
aI0
aa(lp4
S'distance'
p5
aF387.59214782714844
aa(lp6
S'timestamp'
p7
aF0.17010211944580078
aatp8
Rp9
.ccollections
OrderedDict
p0
((lp1
(lp2
S'state'
p3
aI0
aa(lp4
S'distance'
p5
aF387.59214782714844
aa(lp6
S'timestamp'
p7
aF0.1702439785003662
aatp8
Rp9
.ccollections
OrderedDict
p0
((lp1
(lp2
S'state'
p3
aI0
aa(lp4
S'distance'
p5
aF387.59214782714844
aa(lp6
S'timestamp'
p7
aF0.18999218940734863
aatp8
Rp9
.ccollections
OrderedDict
p0
((lp1
(lp2
S'state'
p3
aI0
aa(lp4
S'distance'
p5
aF387.59214782714844
aa(lp6
S'timestamp'
p7
aF0.19020414352416992
aatp8
Rp9
.ccollections
OrderedDict
p0
((lp1
(lp2
S'state'
p3
aI0
aa(lp4
S'distance'
p5
aF387.59214782714844
aa(lp6
S'timestamp'
p7
aF0.1913449764251709
aatp8
Rp9
.ccollections
OrderedDict
p0
((lp1
(lp2
S'state'
p3
aI0
aa(lp4
S'distance'
p5
aF387.59214782714844
aa(lp6
S'timestamp'
p7
aF0.19154715538024902
aatp8
Rp9
.ccollections
OrderedDict
p0
((lp1
(lp2
S'state'
p3
aI0
aa(lp4
S'distance'
p5
aF387.59214782714844
aa(lp6
S'timestamp'
p7
aF0.19978117942810059
aatp8
Rp9
.ccollections
OrderedDict
p0
((lp1
(lp2
S'state'
p3
aI0
aa(lp4
S'distance'
p5
aF387.59214782714844
aa(lp6
S'timestamp'
p7
aF0.20079708099365234
aatp8
Rp9
.ccollections
OrderedDict
p0
((lp1
(lp2
S'state'
p3
aI0
aa(lp4
S'distance'
p5
aF387.59214782714844
aa(lp6
S'timestamp'
p7
aF0.21046710014343262
aatp8
Rp9
.ccollections
OrderedDict
p0
((lp1
(lp2
S'state'
p3
aI0
aa(lp4
S'distance'
p5
aF387.59214782714844
aa(lp6
S'timestamp'
p7
aF0.21061110496520996
aatp8
Rp9
.ccollections
OrderedDict
p0
((lp1
(lp2
S'state'
p3
aI0
aa(lp4
S'distance'
p5
aF387.59214782714844
aa(lp6
S'timestamp'
p7
aF0.21959614753723145
aatp8
Rp9
.ccollections
OrderedDict
p0
((lp1
(lp2
S'state'
p3
aI0
aa(lp4
S'distance'
p5
aF387.59214782714844
aa(lp6
S'timestamp'
p7
aF0.24094009399414062
aatp8
Rp9
.ccollections
OrderedDict
p0
((lp1
(lp2
S'state'
p3
aI0
aa(lp4
S'distance'
p5
aF387.59214782714844
aa(lp6
S'timestamp'
p7
aF0.2423720359802246
aatp8
Rp9
.ccollections
OrderedDict
p0
((lp1
(lp2
S'state'
p3
aI0
aa(lp4
S'distance'
p5
aF387.59214782714844
aa(lp6
S'timestamp'
p7
aF0.24244904518127441
aatp8
Rp9
.ccollections
OrderedDict
p0
((lp1
(lp2
S'state'
p3
aI0
aa(lp4
S'distance'
p5
aF387.59214782714844
aa(lp6
S'timestamp'
p7
aF0.24251198768615723
aatp8
Rp9
.ccollections
OrderedDict
p0
((lp1
(lp2
S'state'
p3
aI0
aa(lp4
S'distance'
p5
aF387.59214782714844
aa(lp6
S'timestamp'
p7
aF0.25084614753723145
aatp8
Rp9
.ccollections
OrderedDict
p0
((lp1
(lp2
S'state'
p3
aI0
aa(lp4
S'distance'
p5
aF387.59214782714844
aa(lp6
S'timestamp'
p7
aF0.25132012367248535
aatp8
Rp9
.ccollections
OrderedDict
p0
((lp1
(lp2
S'state'
p3
aI0
aa(lp4
S'distance'
p5
aF387.59214782714844
aa(lp6
S'timestamp'
p7
aF0.2711160182952881
aatp8
Rp9
.ccollections
OrderedDict
p0
((lp1
(lp2
S'state'
p3
aI0
aa(lp4
S'distance'
p5
aF387.59214782714844
aa(lp6
S'timestamp'
p7
aF0.2712061405181885
aatp8
Rp9
.ccollections
OrderedDict
p0
((lp1
(lp2
S'state'
p3
aI0
aa(lp4
S'distance'
p5
aF387.59214782714844
aa(lp6
S'timestamp'
p7
aF0.27127599716186523
aatp8
Rp9
.ccollections
OrderedDict
p0
((lp1
(lp2
S'state'
p3
aI0
aa(lp4
S'distance'
p5
aF387.59214782714844
aa(lp6
S'timestamp'
p7
aF0.2713429927825928
aatp8
Rp9
.ccollections
OrderedDict
p0
((lp1
(lp2
S'state'
p3
aI0
aa(lp4
S'distance'
p5
aF387.59214782714844
aa(lp6
S'timestamp'
p7
aF0.28022217750549316
aatp8
Rp9
.ccollections
OrderedDict
p0
((lp1
(lp2
S'state'
p3
aI0
aa(lp4
S'distance'
p5
aF387.59214782714844
aa(lp6
S'timestamp'
p7
aF0.2806260585784912
aatp8
Rp9
.ccollections
OrderedDict
p0
((lp1
(lp2
S'state'
p3
aI0
aa(lp4
S'distance'
p5
aF387.59214782714844
aa(lp6
S'timestamp'
p7
aF0.280987024307251
aatp8
Rp9
.ccollections
OrderedDict
p0
((lp1
(lp2
S'state'
p3
aI0
aa(lp4
S'distance'
p5
aF387.59214782714844
aa(lp6
S'timestamp'
p7
aF0.2902061939239502
aatp8
Rp9
.ccollections
OrderedDict
p0
((lp1
(lp2
S'state'
p3
aI0
aa(lp4
S'distance'
p5
aF387.59214782714844
aa(lp6
S'timestamp'
p7
aF0.3102250099182129
aatp8
Rp9
.ccollections
OrderedDict
p0
((lp1
(lp2
S'state'
p3
aI0
aa(lp4
S'distance'
p5
aF387.59214782714844
aa(lp6
S'timestamp'
p7
aF0.31035614013671875
aatp8
Rp9
.ccollections
OrderedDict
p0
((lp1
(lp2
S'state'
p3
aI0
aa(lp4
S'distance'
p5
aF387.59214782714844
aa(lp6
S'timestamp'
p7
aF0.3117690086364746
aatp8
Rp9
.ccollections
OrderedDict
p0
((lp1
(lp2
S'state'
p3
aI0
aa(lp4
S'distance'
p5
aF387.59214782714844
aa(lp6
S'timestamp'
p7
aF0.31270313262939453
aatp8
Rp9
.ccollections
OrderedDict
p0
((lp1
(lp2
S'state'
p3
aI0
aa(lp4
S'distance'
p5
aF387.59214782714844
aa(lp6
S'timestamp'
p7
aF0.3203849792480469
aatp8
Rp9
.ccollections
OrderedDict
p0
((lp1
(lp2
S'state'
p3
aI0
aa(lp4
S'distance'
p5
aF387.59214782714844
aa(lp6
S'timestamp'
p7
aF0.34364914894104004
aatp8
Rp9
.ccollections
OrderedDict
p0
((lp1
(lp2
S'state'
p3
aI0
aa(lp4
S'distance'
p5
aF387.59214782714844
aa(lp6
S'timestamp'
p7
aF0.34377217292785645
aatp8
Rp9
.ccollections
OrderedDict
p0
((lp1
(lp2
S'state'
p3
aI0
aa(lp4
S'distance'
p5
aF387.59214782714844
aa(lp6
S'timestamp'
p7
aF0.3444240093231201
aatp8
Rp9
.ccollections
OrderedDict
p0
((lp1
(lp2
S'state'
p3
aI0
aa(lp4
S'distance'
p5
aF387.59214782714844
aa(lp6
S'timestamp'
p7
aF0.3447270393371582
aatp8
Rp9
.ccollections
OrderedDict
p0
((lp1
(lp2
S'state'
p3
aI0
aa(lp4
S'distance'
p5
aF387.59214782714844
aa(lp6
S'timestamp'
p7
aF0.3501701354980469
aatp8
Rp9
.ccollections
OrderedDict
p0
((lp1
(lp2
S'state'
p3
aI0
aa(lp4
S'distance'
p5
aF387.59214782714844
aa(lp6
S'timestamp'
p7
aF0.3616311550140381
aatp8
Rp9
.ccollections
OrderedDict
p0
((lp1
(lp2
S'state'
p3
aI0
aa(lp4
S'distance'
p5
aF387.59214782714844
aa(lp6
S'timestamp'
p7
aF0.36252713203430176
aatp8
Rp9
.ccollections
OrderedDict
p0
((lp1
(lp2
S'state'
p3
aI0
aa(lp4
S'distance'
p5
aF387.59214782714844
aa(lp6
S'timestamp'
p7
aF0.36324405670166016
aatp8
Rp9
.ccollections
OrderedDict
p0
((lp1
(lp2
S'state'
p3
aI0
aa(lp4
S'distance'
p5
aF387.59214782714844
aa(lp6
S'timestamp'
p7
aF0.363828182220459
aatp8
Rp9
.ccollections
OrderedDict
p0
((lp1
(lp2
S'state'
p3
aI0
aa(lp4
S'distance'
p5
aF387.59214782714844
aa(lp6
S'timestamp'
p7
aF0.3713810443878174
aatp8
Rp9
.ccollections
OrderedDict
p0
((lp1
(lp2
S'state'
p3
aI0
aa(lp4
S'distance'
p5
aF387.59214782714844
aa(lp6
S'timestamp'
p7
aF0.3720090389251709
aatp8
Rp9
.ccollections
OrderedDict
p0
((lp1
(lp2
S'state'
p3
aI0
aa(lp4
S'distance'
p5
aF387.59214782714844
aa(lp6
S'timestamp'
p7
aF0.372081995010376
aatp8
Rp9
.ccollections
OrderedDict
p0
((lp1
(lp2
S'state'
p3
aI0
aa(lp4
S'distance'
p5
aF387.59214782714844
aa(lp6
S'timestamp'
p7
aF0.39003705978393555
aatp8
Rp9
.ccollections
OrderedDict
p0
((lp1
(lp2
S'state'
p3
aI0
aa(lp4
S'distance'
p5
aF387.59214782714844
aa(lp6
S'timestamp'
p7
aF0.39024901390075684
aatp8
Rp9
.ccollections
OrderedDict
p0
((lp1
(lp2
S'state'
p3
aI0
aa(lp4
S'distance'
p5
aF387.59214782714844
aa(lp6
S'timestamp'
p7
aF0.39146900177001953
aatp8
Rp9
.ccollections
OrderedDict
p0
((lp1
(lp2
S'state'
p3
aI0
aa(lp4
S'distance'
p5
aF387.59214782714844
aa(lp6
S'timestamp'
p7
aF0.3925302028656006
aatp8
Rp9
.ccollections
OrderedDict
p0
((lp1
(lp2
S'state'
p3
aI0
aa(lp4
S'distance'
p5
aF387.59214782714844
aa(lp6
S'timestamp'
p7
aF0.4001431465148926
aatp8
Rp9
.ccollections
OrderedDict
p0
((lp1
(lp2
S'state'
p3
aI0
aa(lp4
S'distance'
p5
aF387.59214782714844
aa(lp6
S'timestamp'
p7
aF0.40032100677490234
aatp8
Rp9
.ccollections
OrderedDict
p0
((lp1
(lp2
S'state'
p3
aI0
aa(lp4
S'distance'
p5
aF387.59214782714844
aa(lp6
S'timestamp'
p7
aF0.410189151763916
aatp8
Rp9
.ccollections
OrderedDict
p0
((lp1
(lp2
S'state'
p3
aI0
aa(lp4
S'distance'
p5
aF387.59214782714844
aa(lp6
S'timestamp'
p7
aF0.4104740619659424
aatp8
Rp9
.ccollections
OrderedDict
p0
((lp1
(lp2
S'state'
p3
aI0
aa(lp4
S'distance'
p5
aF387.59214782714844
aa(lp6
S'timestamp'
p7
aF0.42032909393310547
aatp8
Rp9
.ccollections
OrderedDict
p0
((lp1
(lp2
S'state'
p3
aI0
aa(lp4
S'distance'
p5
aF387.59214782714844
aa(lp6
S'timestamp'
p7
aF0.4303750991821289
aatp8
Rp9
.ccollections
OrderedDict
p0
((lp1
(lp2
S'state'
p3
aI0
aa(lp4
S'distance'
p5
aF387.59214782714844
aa(lp6
S'timestamp'
p7
aF0.4304540157318115
aatp8
Rp9
.ccollections
OrderedDict
p0
((lp1
(lp2
S'state'
p3
aI0
aa(lp4
S'distance'
p5
aF387.59214782714844
aa(lp6
S'timestamp'
p7
aF0.430523157119751
aatp8
Rp9
.ccollections
OrderedDict
p0
((lp1
(lp2
S'state'
p3
aI0
aa(lp4
S'distance'
p5
aF387.59214782714844
aa(lp6
S'timestamp'
p7
aF0.44155216217041016
aatp8
Rp9
.ccollections
OrderedDict
p0
((lp1
(lp2
S'state'
p3
aI0
aa(lp4
S'distance'
p5
aF387.59214782714844
aa(lp6
S'timestamp'
p7
aF0.44194698333740234
aatp8
Rp9
.ccollections
OrderedDict
p0
((lp1
(lp2
S'state'
p3
aI0
aa(lp4
S'distance'
p5
aF387.59214782714844
aa(lp6
S'timestamp'
p7
aF0.4504661560058594
aatp8
Rp9
.ccollections
OrderedDict
p0
((lp1
(lp2
S'state'
p3
aI0
aa(lp4
S'distance'
p5
aF387.59214782714844
aa(lp6
S'timestamp'
p7
aF0.4510030746459961
aatp8
Rp9
.ccollections
OrderedDict
p0
((lp1
(lp2
S'state'
p3
aI0
aa(lp4
S'distance'
p5
aF387.59214782714844
aa(lp6
S'timestamp'
p7
aF0.4604771137237549
aatp8
Rp9
.ccollections
OrderedDict
p0
((lp1
(lp2
S'state'
p3
aI0
aa(lp4
S'distance'
p5
aF387.59214782714844
aa(lp6
S'timestamp'
p7
aF0.460604190826416
aatp8
Rp9
.ccollections
OrderedDict
p0
((lp1
(lp2
S'state'
p3
aI0
aa(lp4
S'distance'
p5
aF387.59214782714844
aa(lp6
S'timestamp'
p7
aF0.4702920913696289
aatp8
Rp9
.ccollections
OrderedDict
p0
((lp1
(lp2
S'state'
p3
aI0
aa(lp4
S'distance'
p5
aF387.59214782714844
aa(lp6
S'timestamp'
p7
aF0.47061920166015625
aatp8
Rp9
.ccollections
OrderedDict
p0
((lp1
(lp2
S'state'
p3
aI0
aa(lp4
S'distance'
p5
aF387.59214782714844
aa(lp6
S'timestamp'
p7
aF0.4811820983886719
aatp8
Rp9
.ccollections
OrderedDict
p0
((lp1
(lp2
S'state'
p3
aI0
aa(lp4
S'distance'
p5
aF387.59214782714844
aa(lp6
S'timestamp'
p7
aF0.4813230037689209
aatp8
Rp9
.ccollections
OrderedDict
p0
((lp1
(lp2
S'state'
p3
aI0
aa(lp4
S'distance'
p5
aF387.59214782714844
aa(lp6
S'timestamp'
p7
aF0.49004602432250977
aatp8
Rp9
.ccollections
OrderedDict
p0
((lp1
(lp2
S'state'
p3
aI0
aa(lp4
S'distance'
p5
aF387.59214782714844
aa(lp6
S'timestamp'
p7
aF0.4904611110687256
aatp8
Rp9
.ccollections
OrderedDict
p0
((lp1
(lp2
S'state'
p3
aI0
aa(lp4
S'distance'
p5
aF387.59214782714844
aa(lp6
S'timestamp'
p7
aF0.5008370876312256
aatp8
Rp9
.ccollections
OrderedDict
p0
((lp1
(lp2
S'state'
p3
aI0
aa(lp4
S'distance'
p5
aF387.59214782714844
aa(lp6
S'timestamp'
p7
aF0.5009791851043701
aatp8
Rp9
.ccollections
OrderedDict
p0
((lp1
(lp2
S'state'
p3
aI0
aa(lp4
S'distance'
p5
aF387.59214782714844
aa(lp6
S'timestamp'
p7
aF0.5103001594543457
aatp8
Rp9
.ccollections
OrderedDict
p0
((lp1
(lp2
S'state'
p3
aI0
aa(lp4
S'distance'
p5
aF387.59214782714844
aa(lp6
S'timestamp'
p7
aF0.5104391574859619
aatp8
Rp9
.ccollections
OrderedDict
p0
((lp1
(lp2
S'state'
p3
aI0
aa(lp4
S'distance'
p5
aF387.59214782714844
aa(lp6
S'timestamp'
p7
aF0.520625114440918
aatp8
Rp9
.ccollections
OrderedDict
p0
((lp1
(lp2
S'state'
p3
aI0
aa(lp4
S'distance'
p5
aF387.59214782714844
aa(lp6
S'timestamp'
p7
aF0.5207600593566895
aatp8
Rp9
.ccollections
OrderedDict
p0
((lp1
(lp2
S'state'
p3
aI0
aa(lp4
S'distance'
p5
aF387.59214782714844
aa(lp6
S'timestamp'
p7
aF0.5309979915618896
aatp8
Rp9
.ccollections
OrderedDict
p0
((lp1
(lp2
S'state'
p3
aI0
aa(lp4
S'distance'
p5
aF387.59214782714844
aa(lp6
S'timestamp'
p7
aF0.5312070846557617
aatp8
Rp9
.ccollections
OrderedDict
p0
((lp1
(lp2
S'state'
p3
aI0
aa(lp4
S'distance'
p5
aF387.59214782714844
aa(lp6
S'timestamp'
p7
aF0.550396203994751
aatp8
Rp9
.ccollections
OrderedDict
p0
((lp1
(lp2
S'state'
p3
aI0
aa(lp4
S'distance'
p5
aF387.59214782714844
aa(lp6
S'timestamp'
p7
aF0.550955057144165
aatp8
Rp9
.ccollections
OrderedDict
p0
((lp1
(lp2
S'state'
p3
aI0
aa(lp4
S'distance'
p5
aF387.59214782714844
aa(lp6
S'timestamp'
p7
aF0.5513341426849365
aatp8
Rp9
.ccollections
OrderedDict
p0
((lp1
(lp2
S'state'
p3
aI0
aa(lp4
S'distance'
p5
aF387.59214782714844
aa(lp6
S'timestamp'
p7
aF0.5514121055603027
aatp8
Rp9
.ccollections
OrderedDict
p0
((lp1
(lp2
S'state'
p3
aI0
aa(lp4
S'distance'
p5
aF387.59214782714844
aa(lp6
S'timestamp'
p7
aF0.5708651542663574
aatp8
Rp9
.ccollections
OrderedDict
p0
((lp1
(lp2
S'state'
p3
aI0
aa(lp4
S'distance'
p5
aF387.59214782714844
aa(lp6
S'timestamp'
p7
aF0.5711901187896729
aatp8
Rp9
.ccollections
OrderedDict
p0
((lp1
(lp2
S'state'
p3
aI0
aa(lp4
S'distance'
p5
aF387.59214782714844
aa(lp6
S'timestamp'
p7
aF0.5712680816650391
aatp8
Rp9
.ccollections
OrderedDict
p0
((lp1
(lp2
S'state'
p3
aI0
aa(lp4
S'distance'
p5
aF387.59214782714844
aa(lp6
S'timestamp'
p7
aF0.5718951225280762
aatp8
Rp9
.ccollections
OrderedDict
p0
((lp1
(lp2
S'state'
p3
aI0
aa(lp4
S'distance'
p5
aF387.59214782714844
aa(lp6
S'timestamp'
p7
aF0.5802509784698486
aatp8
Rp9
.ccollections
OrderedDict
p0
((lp1
(lp2
S'state'
p3
aI0
aa(lp4
S'distance'
p5
aF387.59214782714844
aa(lp6
S'timestamp'
p7
aF0.5803351402282715
aatp8
Rp9
.ccollections
OrderedDict
p0
((lp1
(lp2
S'state'
p3
aI0
aa(lp4
S'distance'
p5
aF387.59214782714844
aa(lp6
S'timestamp'
p7
aF0.5899631977081299
aatp8
Rp9
.ccollections
OrderedDict
p0
((lp1
(lp2
S'state'
p3
aI0
aa(lp4
S'distance'
p5
aF387.59214782714844
aa(lp6
S'timestamp'
p7
aF0.5901501178741455
aatp8
Rp9
.ccollections
OrderedDict
p0
((lp1
(lp2
S'state'
p3
aI0
aa(lp4
S'distance'
p5
aF387.59214782714844
aa(lp6
S'timestamp'
p7
aF0.599769115447998
aatp8
Rp9
.ccollections
OrderedDict
p0
((lp1
(lp2
S'state'
p3
aI0
aa(lp4
S'distance'
p5
aF387.59214782714844
aa(lp6
S'timestamp'
p7
aF0.6017611026763916
aatp8
Rp9
.ccollections
OrderedDict
p0
((lp1
(lp2
S'state'
p3
aI0
aa(lp4
S'distance'
p5
aF387.59214782714844
aa(lp6
S'timestamp'
p7
aF0.6104881763458252
aatp8
Rp9
.ccollections
OrderedDict
p0
((lp1
(lp2
S'state'
p3
aI0
aa(lp4
S'distance'
p5
aF387.59214782714844
aa(lp6
S'timestamp'
p7
aF0.6146280765533447
aatp8
Rp9
.ccollections
OrderedDict
p0
((lp1
(lp2
S'state'
p3
aI0
aa(lp4
S'distance'
p5
aF387.59214782714844
aa(lp6
S'timestamp'
p7
aF0.6225991249084473
aatp8
Rp9
.ccollections
OrderedDict
p0
((lp1
(lp2
S'state'
p3
aI0
aa(lp4
S'distance'
p5
aF387.59214782714844
aa(lp6
S'timestamp'
p7
aF0.6233839988708496
aatp8
Rp9
.ccollections
OrderedDict
p0
((lp1
(lp2
S'state'
p3
aI0
aa(lp4
S'distance'
p5
aF387.59214782714844
aa(lp6
S'timestamp'
p7
aF0.6415541172027588
aatp8
Rp9
.ccollections
OrderedDict
p0
((lp1
(lp2
S'state'
p3
aI0
aa(lp4
S'distance'
p5
aF387.59214782714844
aa(lp6
S'timestamp'
p7
aF0.6422140598297119
aatp8
Rp9
.ccollections
OrderedDict
p0
((lp1
(lp2
S'state'
p3
aI0
aa(lp4
S'distance'
p5
aF387.59214782714844
aa(lp6
S'timestamp'
p7
aF0.6427991390228271
aatp8
Rp9
.ccollections
OrderedDict
p0
((lp1
(lp2
S'state'
p3
aI0
aa(lp4
S'distance'
p5
aF387.59214782714844
aa(lp6
S'timestamp'
p7
aF0.6428811550140381
aatp8
Rp9
.ccollections
OrderedDict
p0
((lp1
(lp2
S'state'
p3
aI0
aa(lp4
S'distance'
p5
aF387.59214782714844
aa(lp6
S'timestamp'
p7
aF0.6495649814605713
aatp8
Rp9
.ccollections
OrderedDict
p0
((lp1
(lp2
S'state'
p3
aI0
aa(lp4
S'distance'
p5
aF387.59214782714844
aa(lp6
S'timestamp'
p7
aF0.6501641273498535
aatp8
Rp9
.ccollections
OrderedDict
p0
((lp1
(lp2
S'state'
p3
aI0
aa(lp4
S'distance'
p5
aF387.59214782714844
aa(lp6
S'timestamp'
p7
aF0.6603221893310547
aatp8
Rp9
.ccollections
OrderedDict
p0
((lp1
(lp2
S'state'
p3
aI0
aa(lp4
S'distance'
p5
aF387.59214782714844
aa(lp6
S'timestamp'
p7
aF0.660891056060791
aatp8
Rp9
.ccollections
OrderedDict
p0
((lp1
(lp2
S'state'
p3
aI0
aa(lp4
S'distance'
p5
aF387.59214782714844
aa(lp6
S'timestamp'
p7
aF0.6708581447601318
aatp8
Rp9
.ccollections
OrderedDict
p0
((lp1
(lp2
S'state'
p3
aI0
aa(lp4
S'distance'
p5
aF387.59214782714844
aa(lp6
S'timestamp'
p7
aF0.6715450286865234
aatp8
Rp9
.ccollections
OrderedDict
p0
((lp1
(lp2
S'state'
p3
aI0
aa(lp4
S'distance'
p5
aF387.59214782714844
aa(lp6
S'timestamp'
p7
aF0.6800940036773682
aatp8
Rp9
.ccollections
OrderedDict
p0
((lp1
(lp2
S'state'
p3
aI0
aa(lp4
S'distance'
p5
aF387.59214782714844
aa(lp6
S'timestamp'
p7
aF0.6805071830749512
aatp8
Rp9
.ccollections
OrderedDict
p0
((lp1
(lp2
S'state'
p3
aI0
aa(lp4
S'distance'
p5
aF387.59214782714844
aa(lp6
S'timestamp'
p7
aF0.7098062038421631
aatp8
Rp9
.ccollections
OrderedDict
p0
((lp1
(lp2
S'state'
p3
aI0
aa(lp4
S'distance'
p5
aF387.59214782714844
aa(lp6
S'timestamp'
p7
aF0.7312359809875488
aatp8
Rp9
.ccollections
OrderedDict
p0
((lp1
(lp2
S'state'
p3
aI0
aa(lp4
S'distance'
p5
aF387.59214782714844
aa(lp6
S'timestamp'
p7
aF0.7322530746459961
aatp8
Rp9
.ccollections
OrderedDict
p0
((lp1
(lp2
S'state'
p3
aI0
aa(lp4
S'distance'
p5
aF387.59214782714844
aa(lp6
S'timestamp'
p7
aF0.7323310375213623
aatp8
Rp9
.ccollections
OrderedDict
p0
((lp1
(lp2
S'state'
p3
aI0
aa(lp4
S'distance'
p5
aF387.59214782714844
aa(lp6
S'timestamp'
p7
aF0.7324011325836182
aatp8
Rp9
.ccollections
OrderedDict
p0
((lp1
(lp2
S'state'
p3
aI0
aa(lp4
S'distance'
p5
aF387.59214782714844
aa(lp6
S'timestamp'
p7
aF0.7502720355987549
aatp8
Rp9
.ccollections
OrderedDict
p0
((lp1
(lp2
S'state'
p3
aI0
aa(lp4
S'distance'
p5
aF387.59214782714844
aa(lp6
S'timestamp'
p7
aF0.7503511905670166
aatp8
Rp9
.ccollections
OrderedDict
p0
((lp1
(lp2
S'state'
p3
aI0
aa(lp4
S'distance'
p5
aF387.59214782714844
aa(lp6
S'timestamp'
p7
aF0.7504630088806152
aatp8
Rp9
.ccollections
OrderedDict
p0
((lp1
(lp2
S'state'
p3
aI0
aa(lp4
S'distance'
p5
aF387.59214782714844
aa(lp6
S'timestamp'
p7
aF0.7513480186462402
aatp8
Rp9
.ccollections
OrderedDict
p0
((lp1
(lp2
S'state'
p3
aI0
aa(lp4
S'distance'
p5
aF387.59214782714844
aa(lp6
S'timestamp'
p7
aF0.7600212097167969
aatp8
Rp9
.ccollections
OrderedDict
p0
((lp1
(lp2
S'state'
p3
aI0
aa(lp4
S'distance'
p5
aF387.59214782714844
aa(lp6
S'timestamp'
p7
aF0.7604560852050781
aatp8
Rp9
.ccollections
OrderedDict
p0
((lp1
(lp2
S'state'
p3
aI0
aa(lp4
S'distance'
p5
aF387.59214782714844
aa(lp6
S'timestamp'
p7
aF0.7611510753631592
aatp8
Rp9
.ccollections
OrderedDict
p0
((lp1
(lp2
S'state'
p3
aI0
aa(lp4
S'distance'
p5
aF387.59214782714844
aa(lp6
S'timestamp'
p7
aF0.762667179107666
aatp8
Rp9
.ccollections
OrderedDict
p0
((lp1
(lp2
S'state'
p3
aI0
aa(lp4
S'distance'
p5
aF387.59214782714844
aa(lp6
S'timestamp'
p7
aF0.7702970504760742
aatp8
Rp9
.ccollections
OrderedDict
p0
((lp1
(lp2
S'state'
p3
aI0
aa(lp4
S'distance'
p5
aF387.59214782714844
aa(lp6
S'timestamp'
p7
aF0.7711451053619385
aatp8
Rp9
.ccollections
OrderedDict
p0
((lp1
(lp2
S'state'
p3
aI0
aa(lp4
S'distance'
p5
aF387.59214782714844
aa(lp6
S'timestamp'
p7
aF0.7712211608886719
aatp8
Rp9
.ccollections
OrderedDict
p0
((lp1
(lp2
S'state'
p3
aI0
aa(lp4
S'distance'
p5
aF387.59214782714844
aa(lp6
S'timestamp'
p7
aF0.7719330787658691
aatp8
Rp9
.ccollections
OrderedDict
p0
((lp1
(lp2
S'state'
p3
aI0
aa(lp4
S'distance'
p5
aF387.59214782714844
aa(lp6
S'timestamp'
p7
aF0.7808821201324463
aatp8
Rp9
.ccollections
OrderedDict
p0
((lp1
(lp2
S'state'
p3
aI0
aa(lp4
S'distance'
p5
aF387.59214782714844
aa(lp6
S'timestamp'
p7
aF0.7809710502624512
aatp8
Rp9
.ccollections
OrderedDict
p0
((lp1
(lp2
S'state'
p3
aI0
aa(lp4
S'distance'
p5
aF387.59214782714844
aa(lp6
S'timestamp'
p7
aF0.7810370922088623
aatp8
Rp9
.ccollections
OrderedDict
p0
((lp1
(lp2
S'state'
p3
aI0
aa(lp4
S'distance'
p5
aF387.59214782714844
aa(lp6
S'timestamp'
p7
aF0.790499210357666
aatp8
Rp9
.ccollections
OrderedDict
p0
((lp1
(lp2
S'state'
p3
aI0
aa(lp4
S'distance'
p5
aF387.59214782714844
aa(lp6
S'timestamp'
p7
aF0.7917990684509277
aatp8
Rp9
.ccollections
OrderedDict
p0
((lp1
(lp2
S'state'
p3
aI0
aa(lp4
S'distance'
p5
aF387.59214782714844
aa(lp6
S'timestamp'
p7
aF0.8001611232757568
aatp8
Rp9
.ccollections
OrderedDict
p0
((lp1
(lp2
S'state'
p3
aI0
aa(lp4
S'distance'
p5
aF387.59214782714844
aa(lp6
S'timestamp'
p7
aF0.8005831241607666
aatp8
Rp9
.ccollections
OrderedDict
p0
((lp1
(lp2
S'state'
p3
aI0
aa(lp4
S'distance'
p5
aF387.59214782714844
aa(lp6
S'timestamp'
p7
aF0.8196260929107666
aatp8
Rp9
.ccollections
OrderedDict
p0
((lp1
(lp2
S'state'
p3
aI0
aa(lp4
S'distance'
p5
aF387.59214782714844
aa(lp6
S'timestamp'
p7
aF0.82016921043396
aatp8
Rp9
.ccollections
OrderedDict
p0
((lp1
(lp2
S'state'
p3
aI0
aa(lp4
S'distance'
p5
aF387.59214782714844
aa(lp6
S'timestamp'
p7
aF0.8214590549468994
aatp8
Rp9
.ccollections
OrderedDict
p0
((lp1
(lp2
S'state'
p3
aI0
aa(lp4
S'distance'
p5
aF387.59214782714844
aa(lp6
S'timestamp'
p7
aF0.8216531276702881
aatp8
Rp9
.ccollections
OrderedDict
p0
((lp1
(lp2
S'state'
p3
aI0
aa(lp4
S'distance'
p5
aF387.59214782714844
aa(lp6
S'timestamp'
p7
aF0.8299691677093506
aatp8
Rp9
.ccollections
OrderedDict
p0
((lp1
(lp2
S'state'
p3
aI0
aa(lp4
S'distance'
p5
aF387.59214782714844
aa(lp6
S'timestamp'
p7
aF0.8317410945892334
aatp8
Rp9
.ccollections
OrderedDict
p0
((lp1
(lp2
S'state'
p3
aI0
aa(lp4
S'distance'
p5
aF387.59214782714844
aa(lp6
S'timestamp'
p7
aF0.8416810035705566
aatp8
Rp9
.ccollections
OrderedDict
p0
((lp1
(lp2
S'state'
p3
aI0
aa(lp4
S'distance'
p5
aF387.59214782714844
aa(lp6
S'timestamp'
p7
aF0.8421101570129395
aatp8
Rp9
.ccollections
OrderedDict
p0
((lp1
(lp2
S'state'
p3
aI0
aa(lp4
S'distance'
p5
aF387.59214782714844
aa(lp6
S'timestamp'
p7
aF0.8505690097808838
aatp8
Rp9
.ccollections
OrderedDict
p0
((lp1
(lp2
S'state'
p3
aI0
aa(lp4
S'distance'
p5
aF387.59214782714844
aa(lp6
S'timestamp'
p7
aF0.8506441116333008
aatp8
Rp9
.ccollections
OrderedDict
p0
((lp1
(lp2
S'state'
p3
aI0
aa(lp4
S'distance'
p5
aF387.59214782714844
aa(lp6
S'timestamp'
p7
aF0.860349178314209
aatp8
Rp9
.ccollections
OrderedDict
p0
((lp1
(lp2
S'state'
p3
aI0
aa(lp4
S'distance'
p5
aF387.59214782714844
aa(lp6
S'timestamp'
p7
aF0.8620572090148926
aatp8
Rp9
.ccollections
OrderedDict
p0
((lp1
(lp2
S'state'
p3
aI0
aa(lp4
S'distance'
p5
aF387.59214782714844
aa(lp6
S'timestamp'
p7
aF0.8706710338592529
aatp8
Rp9
.ccollections
OrderedDict
p0
((lp1
(lp2
S'state'
p3
aI0
aa(lp4
S'distance'
p5
aF387.59214782714844
aa(lp6
S'timestamp'
p7
aF0.870826005935669
aatp8
Rp9
.ccollections
OrderedDict
p0
((lp1
(lp2
S'state'
p3
aI0
aa(lp4
S'distance'
p5
aF387.59214782714844
aa(lp6
S'timestamp'
p7
aF0.8804230690002441
aatp8
Rp9
.ccollections
OrderedDict
p0
((lp1
(lp2
S'state'
p3
aI0
aa(lp4
S'distance'
p5
aF387.59214782714844
aa(lp6
S'timestamp'
p7
aF0.881087064743042
aatp8
Rp9
.ccollections
OrderedDict
p0
((lp1
(lp2
S'state'
p3
aI0
aa(lp4
S'distance'
p5
aF387.59214782714844
aa(lp6
S'timestamp'
p7
aF0.8897640705108643
aatp8
Rp9
.ccollections
OrderedDict
p0
((lp1
(lp2
S'state'
p3
aI0
aa(lp4
S'distance'
p5
aF387.59214782714844
aa(lp6
S'timestamp'
p7
aF0.8906381130218506
aatp8
Rp9
.ccollections
OrderedDict
p0
((lp1
(lp2
S'state'
p3
aI0
aa(lp4
S'distance'
p5
aF387.59214782714844
aa(lp6
S'timestamp'
p7
aF0.9100501537322998
aatp8
Rp9
.ccollections
OrderedDict
p0
((lp1
(lp2
S'state'
p3
aI0
aa(lp4
S'distance'
p5
aF387.59214782714844
aa(lp6
S'timestamp'
p7
aF0.9118471145629883
aatp8
Rp9
.ccollections
OrderedDict
p0
((lp1
(lp2
S'state'
p3
aI0
aa(lp4
S'distance'
p5
aF387.59214782714844
aa(lp6
S'timestamp'
p7
aF0.9303991794586182
aatp8
Rp9
.ccollections
OrderedDict
p0
((lp1
(lp2
S'state'
p3
aI0
aa(lp4
S'distance'
p5
aF387.59214782714844
aa(lp6
S'timestamp'
p7
aF0.9308500289916992
aatp8
Rp9
.ccollections
OrderedDict
p0
((lp1
(lp2
S'state'
p3
aI0
aa(lp4
S'distance'
p5
aF387.59214782714844
aa(lp6
S'timestamp'
p7
aF0.9313721656799316
aatp8
Rp9
.ccollections
OrderedDict
p0
((lp1
(lp2
S'state'
p3
aI0
aa(lp4
S'distance'
p5
aF387.59214782714844
aa(lp6
S'timestamp'
p7
aF0.9315931797027588
aatp8
Rp9
.ccollections
OrderedDict
p0
((lp1
(lp2
S'state'
p3
aI0
aa(lp4
S'distance'
p5
aF387.59214782714844
aa(lp6
S'timestamp'
p7
aF0.9399411678314209
aatp8
Rp9
.ccollections
OrderedDict
p0
((lp1
(lp2
S'state'
p3
aI0
aa(lp4
S'distance'
p5
aF387.59214782714844
aa(lp6
S'timestamp'
p7
aF0.9409670829772949
aatp8
Rp9
.ccollections
OrderedDict
p0
((lp1
(lp2
S'state'
p3
aI0
aa(lp4
S'distance'
p5
aF387.59214782714844
aa(lp6
S'timestamp'
p7
aF0.941364049911499
aatp8
Rp9
.ccollections
OrderedDict
p0
((lp1
(lp2
S'state'
p3
aI0
aa(lp4
S'distance'
p5
aF387.59214782714844
aa(lp6
S'timestamp'
p7
aF0.9421460628509521
aatp8
Rp9
.ccollections
OrderedDict
p0
((lp1
(lp2
S'state'
p3
aI0
aa(lp4
S'distance'
p5
aF387.59214782714844
aa(lp6
S'timestamp'
p7
aF0.9507861137390137
aatp8
Rp9
.ccollections
OrderedDict
p0
((lp1
(lp2
S'state'
p3
aI0
aa(lp4
S'distance'
p5
aF387.59214782714844
aa(lp6
S'timestamp'
p7
aF0.9509401321411133
aatp8
Rp9
.ccollections
OrderedDict
p0
((lp1
(lp2
S'state'
p3
aI0
aa(lp4
S'distance'
p5
aF387.59214782714844
aa(lp6
S'timestamp'
p7
aF0.9604711532592773
aatp8
Rp9
.ccollections
OrderedDict
p0
((lp1
(lp2
S'state'
p3
aI0
aa(lp4
S'distance'
p5
aF387.59214782714844
aa(lp6
S'timestamp'
p7
aF0.9614009857177734
aatp8
Rp9
.ccollections
OrderedDict
p0
((lp1
(lp2
S'state'
p3
aI0
aa(lp4
S'distance'
p5
aF387.59214782714844
aa(lp6
S'timestamp'
p7
aF0.9709081649780273
aatp8
Rp9
.ccollections
OrderedDict
p0
((lp1
(lp2
S'state'
p3
aI0
aa(lp4
S'distance'
p5
aF387.59214782714844
aa(lp6
S'timestamp'
p7
aF0.9710500240325928
aatp8
Rp9
.ccollections
OrderedDict
p0
((lp1
(lp2
S'state'
p3
aI0
aa(lp4
S'distance'
p5
aF387.59214782714844
aa(lp6
S'timestamp'
p7
aF0.9797720909118652
aatp8
Rp9
.ccollections
OrderedDict
p0
((lp1
(lp2
S'state'
p3
aI0
aa(lp4
S'distance'
p5
aF387.59214782714844
aa(lp6
S'timestamp'
p7
aF0.9809529781341553
aatp8
Rp9
.ccollections
OrderedDict
p0
((lp1
(lp2
S'state'
p3
aI0
aa(lp4
S'distance'
p5
aF387.59214782714844
aa(lp6
S'timestamp'
p7
aF0.9906601905822754
aatp8
Rp9
.ccollections
OrderedDict
p0
((lp1
(lp2
S'state'
p3
aI0
aa(lp4
S'distance'
p5
aF387.59214782714844
aa(lp6
S'timestamp'
p7
aF0.990807056427002
aatp8
Rp9
.ccollections
OrderedDict
p0
((lp1
(lp2
S'state'
p3
aI0
aa(lp4
S'distance'
p5
aF387.59214782714844
aa(lp6
S'timestamp'
p7
aF1.0102181434631348
aatp8
Rp9
.ccollections
OrderedDict
p0
((lp1
(lp2
S'state'
p3
aI0
aa(lp4
S'distance'
p5
aF387.59214782714844
aa(lp6
S'timestamp'
p7
aF1.0112550258636475
aatp8
Rp9
.ccollections
OrderedDict
p0
((lp1
(lp2
S'state'
p3
aI0
aa(lp4
S'distance'
p5
aF387.59214782714844
aa(lp6
S'timestamp'
p7
aF1.0115151405334473
aatp8
Rp9
.ccollections
OrderedDict
p0
((lp1
(lp2
S'state'
p3
aI0
aa(lp4
S'distance'
p5
aF387.59214782714844
aa(lp6
S'timestamp'
p7
aF1.012005090713501
aatp8
Rp9
.ccollections
OrderedDict
p0
((lp1
(lp2
S'state'
p3
aI0
aa(lp4
S'distance'
p5
aF387.59214782714844
aa(lp6
S'timestamp'
p7
aF1.0312070846557617
aatp8
Rp9
.ccollections
OrderedDict
p0
((lp1
(lp2
S'state'
p3
aI0
aa(lp4
S'distance'
p5
aF387.59214782714844
aa(lp6
S'timestamp'
p7
aF1.0313830375671387
aatp8
Rp9
.ccollections
OrderedDict
p0
((lp1
(lp2
S'state'
p3
aI0
aa(lp4
S'distance'
p5
aF387.59214782714844
aa(lp6
S'timestamp'
p7
aF1.0314931869506836
aatp8
Rp9
.ccollections
OrderedDict
p0
((lp1
(lp2
S'state'
p3
aI0
aa(lp4
S'distance'
p5
aF387.59214782714844
aa(lp6
S'timestamp'
p7
aF1.0318551063537598
aatp8
Rp9
.ccollections
OrderedDict
p0
((lp1
(lp2
S'state'
p3
aI0
aa(lp4
S'distance'
p5
aF387.59214782714844
aa(lp6
S'timestamp'
p7
aF1.0603010654449463
aatp8
Rp9
.ccollections
OrderedDict
p0
((lp1
(lp2
S'state'
p3
aI0
aa(lp4
S'distance'
p5
aF387.59214782714844
aa(lp6
S'timestamp'
p7
aF1.0610101222991943
aatp8
Rp9
.ccollections
OrderedDict
p0
((lp1
(lp2
S'state'
p3
aI0
aa(lp4
S'distance'
p5
aF387.59214782714844
aa(lp6
S'timestamp'
p7
aF1.061830997467041
aatp8
Rp9
.ccollections
OrderedDict
p0
((lp1
(lp2
S'state'
p3
aI0
aa(lp4
S'distance'
p5
aF387.59214782714844
aa(lp6
S'timestamp'
p7
aF1.0627591609954834
aatp8
Rp9
.ccollections
OrderedDict
p0
((lp1
(lp2
S'state'
p3
aI0
aa(lp4
S'distance'
p5
aF387.59214782714844
aa(lp6
S'timestamp'
p7
aF1.069991111755371
aatp8
Rp9
.ccollections
OrderedDict
p0
((lp1
(lp2
S'state'
p3
aI0
aa(lp4
S'distance'
p5
aF387.59214782714844
aa(lp6
S'timestamp'
p7
aF1.070106029510498
aatp8
Rp9
.ccollections
OrderedDict
p0
((lp1
(lp2
S'state'
p3
aI0
aa(lp4
S'distance'
p5
aF387.59214782714844
aa(lp6
S'timestamp'
p7
aF1.0900490283966064
aatp8
Rp9
.ccollections
OrderedDict
p0
((lp1
(lp2
S'state'
p3
aI0
aa(lp4
S'distance'
p5
aF387.59214782714844
aa(lp6
S'timestamp'
p7
aF1.101647138595581
aatp8
Rp9
.ccollections
OrderedDict
p0
((lp1
(lp2
S'state'
p3
aI0
aa(lp4
S'distance'
p5
aF387.59214782714844
aa(lp6
S'timestamp'
p7
aF1.1019890308380127
aatp8
Rp9
.ccollections
OrderedDict
p0
((lp1
(lp2
S'state'
p3
aI0
aa(lp4
S'distance'
p5
aF387.59214782714844
aa(lp6
S'timestamp'
p7
aF1.1022241115570068
aatp8
Rp9
.ccollections
OrderedDict
p0
((lp1
(lp2
S'state'
p3
aI0
aa(lp4
S'distance'
p5
aF387.59214782714844
aa(lp6
S'timestamp'
p7
aF1.102802038192749
aatp8
Rp9
.ccollections
OrderedDict
p0
((lp1
(lp2
S'state'
p3
aI0
aa(lp4
S'distance'
p5
aF387.59214782714844
aa(lp6
S'timestamp'
p7
aF1.1113030910491943
aatp8
Rp9
.ccollections
OrderedDict
p0
((lp1
(lp2
S'state'
p3
aI0
aa(lp4
S'distance'
p5
aF387.59214782714844
aa(lp6
S'timestamp'
p7
aF1.111901044845581
aatp8
Rp9
.ccollections
OrderedDict
p0
((lp1
(lp2
S'state'
p3
aI0
aa(lp4
S'distance'
p5
aF387.59214782714844
aa(lp6
S'timestamp'
p7
aF1.1119780540466309
aatp8
Rp9
.ccollections
OrderedDict
p0
((lp1
(lp2
S'state'
p3
aI0
aa(lp4
S'distance'
p5
aF387.59214782714844
aa(lp6
S'timestamp'
p7
aF1.1120719909667969
aatp8
Rp9
.ccollections
OrderedDict
p0
((lp1
(lp2
S'state'
p3
aI0
aa(lp4
S'distance'
p5
aF387.59214782714844
aa(lp6
S'timestamp'
p7
aF1.1203770637512207
aatp8
Rp9
.ccollections
OrderedDict
p0
((lp1
(lp2
S'state'
p3
aI0
aa(lp4
S'distance'
p5
aF387.59214782714844
aa(lp6
S'timestamp'
p7
aF1.1204919815063477
aatp8
Rp9
.ccollections
OrderedDict
p0
((lp1
(lp2
S'state'
p3
aI0
aa(lp4
S'distance'
p5
aF387.59214782714844
aa(lp6
S'timestamp'
p7
aF1.1208620071411133
aatp8
Rp9
.ccollections
OrderedDict
p0
((lp1
(lp2
S'state'
p3
aI0
aa(lp4
S'distance'
p5
aF387.59214782714844
aa(lp6
S'timestamp'
p7
aF1.130047082901001
aatp8
Rp9
.ccollections
OrderedDict
p0
((lp1
(lp2
S'state'
p3
aI0
aa(lp4
S'distance'
p5
aF387.59214782714844
aa(lp6
S'timestamp'
p7
aF1.130235195159912
aatp8
Rp9
.ccollections
OrderedDict
p0
((lp1
(lp2
S'state'
p3
aI0
aa(lp4
S'distance'
p5
aF387.59214782714844
aa(lp6
S'timestamp'
p7
aF1.1404621601104736
aatp8
Rp9
.ccollections
OrderedDict
p0
((lp1
(lp2
S'state'
p3
aI0
aa(lp4
S'distance'
p5
aF387.59214782714844
aa(lp6
S'timestamp'
p7
aF1.140820026397705
aatp8
Rp9
.ccollections
OrderedDict
p0
((lp1
(lp2
S'state'
p3
aI0
aa(lp4
S'distance'
p5
aF387.59214782714844
aa(lp6
S'timestamp'
p7
aF1.1502339839935303
aatp8
Rp9
.ccollections
OrderedDict
p0
((lp1
(lp2
S'state'
p3
aI0
aa(lp4
S'distance'
p5
aF387.59214782714844
aa(lp6
S'timestamp'
p7
aF1.1506001949310303
aatp8
Rp9
.ccollections
OrderedDict
p0
((lp1
(lp2
S'state'
p3
aI0
aa(lp4
S'distance'
p5
aF387.59214782714844
aa(lp6
S'timestamp'
p7
aF1.1705090999603271
aatp8
Rp9
.ccollections
OrderedDict
p0
((lp1
(lp2
S'state'
p3
aI0
aa(lp4
S'distance'
p5
aF387.59214782714844
aa(lp6
S'timestamp'
p7
aF1.1706271171569824
aatp8
Rp9
.ccollections
OrderedDict
p0
((lp1
(lp2
S'state'
p3
aI0
aa(lp4
S'distance'
p5
aF387.59214782714844
aa(lp6
S'timestamp'
p7
aF1.17146897315979
aatp8
Rp9
.ccollections
OrderedDict
p0
((lp1
(lp2
S'state'
p3
aI0
aa(lp4
S'distance'
p5
aF387.59214782714844
aa(lp6
S'timestamp'
p7
aF1.171544075012207
aatp8
Rp9
.ccollections
OrderedDict
p0
((lp1
(lp2
S'state'
p3
aI0
aa(lp4
S'distance'
p5
aF387.59214782714844
aa(lp6
S'timestamp'
p7
aF1.1799960136413574
aatp8
Rp9
.ccollections
OrderedDict
p0
((lp1
(lp2
S'state'
p3
aI0
aa(lp4
S'distance'
p5
aF387.59214782714844
aa(lp6
S'timestamp'
p7
aF1.1809320449829102
aatp8
Rp9
.ccollections
OrderedDict
p0
((lp1
(lp2
S'state'
p3
aI0
aa(lp4
S'distance'
p5
aF387.59214782714844
aa(lp6
S'timestamp'
p7
aF1.190843105316162
aatp8
Rp9
.ccollections
OrderedDict
p0
((lp1
(lp2
S'state'
p3
aI0
aa(lp4
S'distance'
p5
aF387.59214782714844
aa(lp6
S'timestamp'
p7
aF1.190981149673462
aatp8
Rp9
.ccollections
OrderedDict
p0
((lp1
(lp2
S'state'
p3
aI0
aa(lp4
S'distance'
p5
aF387.59214782714844
aa(lp6
S'timestamp'
p7
aF1.200024127960205
aatp8
Rp9
.ccollections
OrderedDict
p0
((lp1
(lp2
S'state'
p3
aI0
aa(lp4
S'distance'
p5
aF387.59214782714844
aa(lp6
S'timestamp'
p7
aF1.2008922100067139
aatp8
Rp9
.ccollections
OrderedDict
p0
((lp1
(lp2
S'state'
p3
aI0
aa(lp4
S'distance'
p5
aF387.59214782714844
aa(lp6
S'timestamp'
p7
aF1.227673053741455
aatp8
Rp9
.ccollections
OrderedDict
p0
((lp1
(lp2
S'state'
p3
aI0
aa(lp4
S'distance'
p5
aF387.59214782714844
aa(lp6
S'timestamp'
p7
aF1.2287111282348633
aatp8
Rp9
.ccollections
OrderedDict
p0
((lp1
(lp2
S'state'
p3
aI0
aa(lp4
S'distance'
p5
aF387.59214782714844
aa(lp6
S'timestamp'
p7
aF1.2288920879364014
aatp8
Rp9
.ccollections
OrderedDict
p0
((lp1
(lp2
S'state'
p3
aI0
aa(lp4
S'distance'
p5
aF387.59214782714844
aa(lp6
S'timestamp'
p7
aF1.2308740615844727
aatp8
Rp9
.ccollections
OrderedDict
p0
((lp1
(lp2
S'state'
p3
aI0
aa(lp4
S'distance'
p5
aF387.59214782714844
aa(lp6
S'timestamp'
p7
aF1.2311370372772217
aatp8
Rp9
.ccollections
OrderedDict
p0
((lp1
(lp2
S'state'
p3
aI0
aa(lp4
S'distance'
p5
aF387.59214782714844
aa(lp6
S'timestamp'
p7
aF1.23142409324646
aatp8
Rp9
.ccollections
OrderedDict
p0
((lp1
(lp2
S'state'
p3
aI0
aa(lp4
S'distance'
p5
aF387.59214782714844
aa(lp6
S'timestamp'
p7
aF1.240035057067871
aatp8
Rp9
.ccollections
OrderedDict
p0
((lp1
(lp2
S'state'
p3
aI0
aa(lp4
S'distance'
p5
aF387.59214782714844
aa(lp6
S'timestamp'
p7
aF1.2413880825042725
aatp8
Rp9
.ccollections
OrderedDict
p0
((lp1
(lp2
S'state'
p3
aI0
aa(lp4
S'distance'
p5
aF387.59214782714844
aa(lp6
S'timestamp'
p7
aF1.2501211166381836
aatp8
Rp9
.ccollections
OrderedDict
p0
((lp1
(lp2
S'state'
p3
aI0
aa(lp4
S'distance'
p5
aF387.59214782714844
aa(lp6
S'timestamp'
p7
aF1.2506020069122314
aatp8
Rp9
.ccollections
OrderedDict
p0
((lp1
(lp2
S'state'
p3
aI0
aa(lp4
S'distance'
p5
aF387.59214782714844
aa(lp6
S'timestamp'
p7
aF1.2600350379943848
aatp8
Rp9
.ccollections
OrderedDict
p0
((lp1
(lp2
S'state'
p3
aI0
aa(lp4
S'distance'
p5
aF387.59214782714844
aa(lp6
S'timestamp'
p7
aF1.2601120471954346
aatp8
Rp9
.ccollections
OrderedDict
p0
((lp1
(lp2
S'state'
p3
aI0
aa(lp4
S'distance'
p5
aF387.59214782714844
aa(lp6
S'timestamp'
p7
aF1.2704830169677734
aatp8
Rp9
.ccollections
OrderedDict
p0
((lp1
(lp2
S'state'
p3
aI0
aa(lp4
S'distance'
p5
aF387.59214782714844
aa(lp6
S'timestamp'
p7
aF1.2705810070037842
aatp8
Rp9
.ccollections
OrderedDict
p0
((lp1
(lp2
S'state'
p3
aI0
aa(lp4
S'distance'
p5
aF387.59214782714844
aa(lp6
S'timestamp'
p7
aF1.2800700664520264
aatp8
Rp9
.ccollections
OrderedDict
p0
((lp1
(lp2
S'state'
p3
aI0
aa(lp4
S'distance'
p5
aF387.59214782714844
aa(lp6
S'timestamp'
p7
aF1.28090500831604
aatp8
Rp9
.ccollections
OrderedDict
p0
((lp1
(lp2
S'state'
p3
aI0
aa(lp4
S'distance'
p5
aF387.59214782714844
aa(lp6
S'timestamp'
p7
aF1.2904770374298096
aatp8
Rp9
.ccollections
OrderedDict
p0
((lp1
(lp2
S'state'
p3
aI0
aa(lp4
S'distance'
p5
aF387.59214782714844
aa(lp6
S'timestamp'
p7
aF1.2912781238555908
aatp8
Rp9
.ccollections
OrderedDict
p0
((lp1
(lp2
S'state'
p3
aI0
aa(lp4
S'distance'
p5
aF387.59214782714844
aa(lp6
S'timestamp'
p7
aF1.3001270294189453
aatp8
Rp9
.ccollections
OrderedDict
p0
((lp1
(lp2
S'state'
p3
aI0
aa(lp4
S'distance'
p5
aF387.59214782714844
aa(lp6
S'timestamp'
p7
aF1.3003201484680176
aatp8
Rp9
.ccollections
OrderedDict
p0
((lp1
(lp2
S'state'
p3
aI0
aa(lp4
S'distance'
p5
aF387.59214782714844
aa(lp6
S'timestamp'
p7
aF1.3100600242614746
aatp8
Rp9
.ccollections
OrderedDict
p0
((lp1
(lp2
S'state'
p3
aI0
aa(lp4
S'distance'
p5
aF387.59214782714844
aa(lp6
S'timestamp'
p7
aF1.310636043548584
aatp8
Rp9
.ccollections
OrderedDict
p0
((lp1
(lp2
S'state'
p3
aI0
aa(lp4
S'distance'
p5
aF387.59214782714844
aa(lp6
S'timestamp'
p7
aF1.3204879760742188
aatp8
Rp9
.ccollections
OrderedDict
p0
((lp1
(lp2
S'state'
p3
aI0
aa(lp4
S'distance'
p5
aF387.59214782714844
aa(lp6
S'timestamp'
p7
aF1.3214499950408936
aatp8
Rp9
.ccollections
OrderedDict
p0
((lp1
(lp2
S'state'
p3
aI0
aa(lp4
S'distance'
p5
aF387.59214782714844
aa(lp6
S'timestamp'
p7
aF1.3308491706848145
aatp8
Rp9
.ccollections
OrderedDict
p0
((lp1
(lp2
S'state'
p3
aI0
aa(lp4
S'distance'
p5
aF387.59214782714844
aa(lp6
S'timestamp'
p7
aF1.3314831256866455
aatp8
Rp9
.ccollections
OrderedDict
p0
((lp1
(lp2
S'state'
p3
aI0
aa(lp4
S'distance'
p5
aF387.59214782714844
aa(lp6
S'timestamp'
p7
aF1.3406221866607666
aatp8
Rp9
.ccollections
OrderedDict
p0
((lp1
(lp2
S'state'
p3
aI0
aa(lp4
S'distance'
p5
aF387.59214782714844
aa(lp6
S'timestamp'
p7
aF1.3407809734344482
aatp8
Rp9
.ccollections
OrderedDict
p0
((lp1
(lp2
S'state'
p3
aI0
aa(lp4
S'distance'
p5
aF387.59214782714844
aa(lp6
S'timestamp'
p7
aF1.3506481647491455
aatp8
Rp9
.ccollections
OrderedDict
p0
((lp1
(lp2
S'state'
p3
aI0
aa(lp4
S'distance'
p5
aF387.59214782714844
aa(lp6
S'timestamp'
p7
aF1.3509562015533447
aatp8
Rp9
.ccollections
OrderedDict
p0
((lp1
(lp2
S'state'
p3
aI0
aa(lp4
S'distance'
p5
aF387.59214782714844
aa(lp6
S'timestamp'
p7
aF1.3602380752563477
aatp8
Rp9
.ccollections
OrderedDict
p0
((lp1
(lp2
S'state'
p3
aI0
aa(lp4
S'distance'
p5
aF387.59214782714844
aa(lp6
S'timestamp'
p7
aF1.3607001304626465
aatp8
Rp9
.ccollections
OrderedDict
p0
((lp1
(lp2
S'state'
p3
aI0
aa(lp4
S'distance'
p5
aF387.59214782714844
aa(lp6
S'timestamp'
p7
aF1.3697090148925781
aatp8
Rp9
.ccollections
OrderedDict
p0
((lp1
(lp2
S'state'
p3
aI0
aa(lp4
S'distance'
p5
aF387.59214782714844
aa(lp6
S'timestamp'
p7
aF1.370732069015503
aatp8
Rp9
.ccollections
OrderedDict
p0
((lp1
(lp2
S'state'
p3
aI0
aa(lp4
S'distance'
p5
aF387.59214782714844
aa(lp6
S'timestamp'
p7
aF1.3905560970306396
aatp8
Rp9
.ccollections
OrderedDict
p0
((lp1
(lp2
S'state'
p3
aI0
aa(lp4
S'distance'
p5
aF387.59214782714844
aa(lp6
S'timestamp'
p7
aF1.390848159790039
aatp8
Rp9
.ccollections
OrderedDict
p0
((lp1
(lp2
S'state'
p3
aI0
aa(lp4
S'distance'
p5
aF387.59214782714844
aa(lp6
S'timestamp'
p7
aF1.391442060470581
aatp8
Rp9
.ccollections
OrderedDict
p0
((lp1
(lp2
S'state'
p3
aI0
aa(lp4
S'distance'
p5
aF387.59214782714844
aa(lp6
S'timestamp'
p7
aF1.3920860290527344
aatp8
Rp9
.ccollections
OrderedDict
p0
((lp1
(lp2
S'state'
p3
aI0
aa(lp4
S'distance'
p5
aF387.59214782714844
aa(lp6
S'timestamp'
p7
aF1.4005510807037354
aatp8
Rp9
.ccollections
OrderedDict
p0
((lp1
(lp2
S'state'
p3
aI0
aa(lp4
S'distance'
p5
aF387.59214782714844
aa(lp6
S'timestamp'
p7
aF1.400758981704712
aatp8
Rp9
.ccollections
OrderedDict
p0
((lp1
(lp2
S'state'
p3
aI0
aa(lp4
S'distance'
p5
aF387.59214782714844
aa(lp6
S'timestamp'
p7
aF1.4100511074066162
aatp8
Rp9
.ccollections
OrderedDict
p0
((lp1
(lp2
S'state'
p3
aI0
aa(lp4
S'distance'
p5
aF387.59214782714844
aa(lp6
S'timestamp'
p7
aF1.4101741313934326
aatp8
Rp9
.ccollections
OrderedDict
p0
((lp1
(lp2
S'state'
p3
aI0
aa(lp4
S'distance'
p5
aF387.59214782714844
aa(lp6
S'timestamp'
p7
aF1.4208672046661377
aatp8
Rp9
.ccollections
OrderedDict
p0
((lp1
(lp2
S'state'
p3
aI0
aa(lp4
S'distance'
p5
aF387.59214782714844
aa(lp6
S'timestamp'
p7
aF1.4214091300964355
aatp8
Rp9
.ccollections
OrderedDict
p0
((lp1
(lp2
S'state'
p3
aI0
aa(lp4
S'distance'
p5
aF387.59214782714844
aa(lp6
S'timestamp'
p7
aF1.430164098739624
aatp8
Rp9
.ccollections
OrderedDict
p0
((lp1
(lp2
S'state'
p3
aI0
aa(lp4
S'distance'
p5
aF387.59214782714844
aa(lp6
S'timestamp'
p7
aF1.4411160945892334
aatp8
Rp9
.ccollections
OrderedDict
p0
((lp1
(lp2
S'state'
p3
aI0
aa(lp4
S'distance'
p5
aF387.59214782714844
aa(lp6
S'timestamp'
p7
aF1.4412550926208496
aatp8
Rp9
.ccollections
OrderedDict
p0
((lp1
(lp2
S'state'
p3
aI0
aa(lp4
S'distance'
p5
aF387.59214782714844
aa(lp6
S'timestamp'
p7
aF1.4420671463012695
aatp8
Rp9
.ccollections
OrderedDict
p0
((lp1
(lp2
S'state'
p3
aI0
aa(lp4
S'distance'
p5
aF387.59214782714844
aa(lp6
S'timestamp'
p7
aF1.4601449966430664
aatp8
Rp9
.ccollections
OrderedDict
p0
((lp1
(lp2
S'state'
p3
aI0
aa(lp4
S'distance'
p5
aF387.59214782714844
aa(lp6
S'timestamp'
p7
aF1.4714159965515137
aatp8
Rp9
.ccollections
OrderedDict
p0
((lp1
(lp2
S'state'
p3
aI0
aa(lp4
S'distance'
p5
aF387.59214782714844
aa(lp6
S'timestamp'
p7
aF1.4717421531677246
aatp8
Rp9
.ccollections
OrderedDict
p0
((lp1
(lp2
S'state'
p3
aI0
aa(lp4
S'distance'
p5
aF387.59214782714844
aa(lp6
S'timestamp'
p7
aF1.4718801975250244
aatp8
Rp9
.ccollections
OrderedDict
p0
((lp1
(lp2
S'state'
p3
aI0
aa(lp4
S'distance'
p5
aF387.59214782714844
aa(lp6
S'timestamp'
p7
aF1.4730122089385986
aatp8
Rp9
.ccollections
OrderedDict
p0
((lp1
(lp2
S'state'
p3
aI0
aa(lp4
S'distance'
p5
aF387.59214782714844
aa(lp6
S'timestamp'
p7
aF1.4808411598205566
aatp8
Rp9
.ccollections
OrderedDict
p0
((lp1
(lp2
S'state'
p3
aI0
aa(lp4
S'distance'
p5
aF387.59214782714844
aa(lp6
S'timestamp'
p7
aF1.4810340404510498
aatp8
Rp9
.ccollections
OrderedDict
p0
((lp1
(lp2
S'state'
p3
aI0
aa(lp4
S'distance'
p5
aF387.59214782714844
aa(lp6
S'timestamp'
p7
aF1.4813811779022217
aatp8
Rp9
.ccollections
OrderedDict
p0
((lp1
(lp2
S'state'
p3
aI0
aa(lp4
S'distance'
p5
aF387.59214782714844
aa(lp6
S'timestamp'
p7
aF1.5007760524749756
aatp8
Rp9
.ccollections
OrderedDict
p0
((lp1
(lp2
S'state'
p3
aI0
aa(lp4
S'distance'
p5
aF387.59214782714844
aa(lp6
S'timestamp'
p7
aF1.5012691020965576
aatp8
Rp9
.ccollections
OrderedDict
p0
((lp1
(lp2
S'state'
p3
aI0
aa(lp4
S'distance'
p5
aF387.59214782714844
aa(lp6
S'timestamp'
p7
aF1.501345157623291
aatp8
Rp9
.ccollections
OrderedDict
p0
((lp1
(lp2
S'state'
p3
aI0
aa(lp4
S'distance'
p5
aF387.59214782714844
aa(lp6
S'timestamp'
p7
aF1.5014140605926514
aatp8
Rp9
.ccollections
OrderedDict
p0
((lp1
(lp2
S'state'
p3
aI0
aa(lp4
S'distance'
p5
aF387.59214782714844
aa(lp6
S'timestamp'
p7
aF1.5202090740203857
aatp8
Rp9
.ccollections
OrderedDict
p0
((lp1
(lp2
S'state'
p3
aI0
aa(lp4
S'distance'
p5
aF387.59214782714844
aa(lp6
S'timestamp'
p7
aF1.5208981037139893
aatp8
Rp9
.ccollections
OrderedDict
p0
((lp1
(lp2
S'state'
p3
aI0
aa(lp4
S'distance'
p5
aF387.59214782714844
aa(lp6
S'timestamp'
p7
aF1.5213050842285156
aatp8
Rp9
.ccollections
OrderedDict
p0
((lp1
(lp2
S'state'
p3
aI0
aa(lp4
S'distance'
p5
aF387.59214782714844
aa(lp6
S'timestamp'
p7
aF1.5215260982513428
aatp8
Rp9
.ccollections
OrderedDict
p0
((lp1
(lp2
S'state'
p3
aI0
aa(lp4
S'distance'
p5
aF387.59214782714844
aa(lp6
S'timestamp'
p7
aF1.5301861763000488
aatp8
Rp9
.ccollections
OrderedDict
p0
((lp1
(lp2
S'state'
p3
aI0
aa(lp4
S'distance'
p5
aF387.59214782714844
aa(lp6
S'timestamp'
p7
aF1.5303452014923096
aatp8
Rp9
.ccollections
OrderedDict
p0
((lp1
(lp2
S'state'
p3
aI0
aa(lp4
S'distance'
p5
aF387.59214782714844
aa(lp6
S'timestamp'
p7
aF1.5406670570373535
aatp8
Rp9
.ccollections
OrderedDict
p0
((lp1
(lp2
S'state'
p3
aI0
aa(lp4
S'distance'
p5
aF387.59214782714844
aa(lp6
S'timestamp'
p7
aF1.5409660339355469
aatp8
Rp9
.ccollections
OrderedDict
p0
((lp1
(lp2
S'state'
p3
aI0
aa(lp4
S'distance'
p5
aF387.59214782714844
aa(lp6
S'timestamp'
p7
aF1.550347089767456
aatp8
Rp9
.ccollections
OrderedDict
p0
((lp1
(lp2
S'state'
p3
aI0
aa(lp4
S'distance'
p5
aF387.59214782714844
aa(lp6
S'timestamp'
p7
aF1.5504570007324219
aatp8
Rp9
.ccollections
OrderedDict
p0
((lp1
(lp2
S'state'
p3
aI0
aa(lp4
S'distance'
p5
aF387.59214782714844
aa(lp6
S'timestamp'
p7
aF1.5700430870056152
aatp8
Rp9
.ccollections
OrderedDict
p0
((lp1
(lp2
S'state'
p3
aI0
aa(lp4
S'distance'
p5
aF387.59214782714844
aa(lp6
S'timestamp'
p7
aF1.5701570510864258
aatp8
Rp9
.ccollections
OrderedDict
p0
((lp1
(lp2
S'state'
p3
aI0
aa(lp4
S'distance'
p5
aF387.59214782714844
aa(lp6
S'timestamp'
p7
aF1.5711970329284668
aatp8
Rp9
.ccollections
OrderedDict
p0
((lp1
(lp2
S'state'
p3
aI0
aa(lp4
S'distance'
p5
aF387.59214782714844
aa(lp6
S'timestamp'
p7
aF1.5713341236114502
aatp8
Rp9
.ccollections
OrderedDict
p0
((lp1
(lp2
S'state'
p3
aI0
aa(lp4
S'distance'
p5
aF387.59214782714844
aa(lp6
S'timestamp'
p7
aF1.5904250144958496
aatp8
Rp9
.ccollections
OrderedDict
p0
((lp1
(lp2
S'state'
p3
aI0
aa(lp4
S'distance'
p5
aF387.59214782714844
aa(lp6
S'timestamp'
p7
aF1.5908260345458984
aatp8
Rp9
.ccollections
OrderedDict
p0
((lp1
(lp2
S'state'
p3
aI0
aa(lp4
S'distance'
p5
aF387.59214782714844
aa(lp6
S'timestamp'
p7
aF1.620603084564209
aatp8
Rp9
.ccollections
OrderedDict
p0
((lp1
(lp2
S'state'
p3
aI0
aa(lp4
S'distance'
p5
aF387.59214782714844
aa(lp6
S'timestamp'
p7
aF1.6209371089935303
aatp8
Rp9
.ccollections
OrderedDict
p0
((lp1
(lp2
S'state'
p3
aI0
aa(lp4
S'distance'
p5
aF387.59214782714844
aa(lp6
S'timestamp'
p7
aF1.6215190887451172
aatp8
Rp9
.ccollections
OrderedDict
p0
((lp1
(lp2
S'state'
p3
aI0
aa(lp4
S'distance'
p5
aF387.59214782714844
aa(lp6
S'timestamp'
p7
aF1.6306140422821045
aatp8
Rp9
.ccollections
OrderedDict
p0
((lp1
(lp2
S'state'
p3
aI0
aa(lp4
S'distance'
p5
aF387.59214782714844
aa(lp6
S'timestamp'
p7
aF1.630925178527832
aatp8
Rp9
.ccollections
OrderedDict
p0
((lp1
(lp2
S'state'
p3
aI0
aa(lp4
S'distance'
p5
aF387.59214782714844
aa(lp6
S'timestamp'
p7
aF1.6315760612487793
aatp8
Rp9
.ccollections
OrderedDict
p0
((lp1
(lp2
S'state'
p3
aI0
aa(lp4
S'distance'
p5
aF387.59214782714844
aa(lp6
S'timestamp'
p7
aF1.6316661834716797
aatp8
Rp9
.ccollections
OrderedDict
p0
((lp1
(lp2
S'state'
p3
aI0
aa(lp4
S'distance'
p5
aF387.59214782714844
aa(lp6
S'timestamp'
p7
aF1.6401681900024414
aatp8
Rp9
.ccollections
OrderedDict
p0
((lp1
(lp2
S'state'
p3
aI0
aa(lp4
S'distance'
p5
aF387.59214782714844
aa(lp6
S'timestamp'
p7
aF1.6410620212554932
aatp8
Rp9
.ccollections
OrderedDict
p0
((lp1
(lp2
S'state'
p3
aI0
aa(lp4
S'distance'
p5
aF387.59214782714844
aa(lp6
S'timestamp'
p7
aF1.6418821811676025
aatp8
Rp9
.ccollections
OrderedDict
p0
((lp1
(lp2
S'state'
p3
aI0
aa(lp4
S'distance'
p5
aF387.59214782714844
aa(lp6
S'timestamp'
p7
aF1.642827033996582
aatp8
Rp9
.ccollections
OrderedDict
p0
((lp1
(lp2
S'state'
p3
aI0
aa(lp4
S'distance'
p5
aF387.59214782714844
aa(lp6
S'timestamp'
p7
aF1.6708400249481201
aatp8
Rp9
.ccollections
OrderedDict
p0
((lp1
(lp2
S'state'
p3
aI0
aa(lp4
S'distance'
p5
aF387.59214782714844
aa(lp6
S'timestamp'
p7
aF1.670922040939331
aatp8
Rp9
.ccollections
OrderedDict
p0
((lp1
(lp2
S'state'
p3
aI0
aa(lp4
S'distance'
p5
aF387.59214782714844
aa(lp6
S'timestamp'
p7
aF1.6816651821136475
aatp8
Rp9
.ccollections
OrderedDict
p0
((lp1
(lp2
S'state'
p3
aI0
aa(lp4
S'distance'
p5
aF387.59214782714844
aa(lp6
S'timestamp'
p7
aF1.6817400455474854
aatp8
Rp9
.ccollections
OrderedDict
p0
((lp1
(lp2
S'state'
p3
aI0
aa(lp4
S'distance'
p5
aF387.59214782714844
aa(lp6
S'timestamp'
p7
aF1.681948184967041
aatp8
Rp9
.ccollections
OrderedDict
p0
((lp1
(lp2
S'state'
p3
aI0
aa(lp4
S'distance'
p5
aF387.59214782714844
aa(lp6
S'timestamp'
p7
aF1.6820201873779297
aatp8
Rp9
.ccollections
OrderedDict
p0
((lp1
(lp2
S'state'
p3
aI0
aa(lp4
S'distance'
p5
aF387.59214782714844
aa(lp6
S'timestamp'
p7
aF1.6909101009368896
aatp8
Rp9
.ccollections
OrderedDict
p0
((lp1
(lp2
S'state'
p3
aI0
aa(lp4
S'distance'
p5
aF387.59214782714844
aa(lp6
S'timestamp'
p7
aF1.6913621425628662
aatp8
Rp9
.ccollections
OrderedDict
p0
((lp1
(lp2
S'state'
p3
aI0
aa(lp4
S'distance'
p5
aF387.59214782714844
aa(lp6
S'timestamp'
p7
aF1.691431999206543
aatp8
Rp9
.ccollections
OrderedDict
p0
((lp1
(lp2
S'state'
p3
aI0
aa(lp4
S'distance'
p5
aF387.59214782714844
aa(lp6
S'timestamp'
p7
aF1.692012071609497
aatp8
Rp9
.ccollections
OrderedDict
p0
((lp1
(lp2
S'state'
p3
aI0
aa(lp4
S'distance'
p5
aF387.59214782714844
aa(lp6
S'timestamp'
p7
aF1.700963020324707
aatp8
Rp9
.ccollections
OrderedDict
p0
((lp1
(lp2
S'state'
p3
aI0
aa(lp4
S'distance'
p5
aF387.59214782714844
aa(lp6
S'timestamp'
p7
aF1.7012791633605957
aatp8
Rp9
.ccollections
OrderedDict
p0
((lp1
(lp2
S'state'
p3
aI0
aa(lp4
S'distance'
p5
aF387.59214782714844
aa(lp6
S'timestamp'
p7
aF1.7013580799102783
aatp8
Rp9
.ccollections
OrderedDict
p0
((lp1
(lp2
S'state'
p3
aI0
aa(lp4
S'distance'
p5
aF387.59214782714844
aa(lp6
S'timestamp'
p7
aF1.7107160091400146
aatp8
Rp9
.ccollections
OrderedDict
p0
((lp1
(lp2
S'state'
p3
aI0
aa(lp4
S'distance'
p5
aF387.59214782714844
aa(lp6
S'timestamp'
p7
aF1.7107901573181152
aatp8
Rp9
.ccollections
OrderedDict
p0
((lp1
(lp2
S'state'
p3
aI0
aa(lp4
S'distance'
p5
aF387.59214782714844
aa(lp6
S'timestamp'
p7
aF1.721379041671753
aatp8
Rp9
.ccollections
OrderedDict
p0
((lp1
(lp2
S'state'
p3
aI0
aa(lp4
S'distance'
p5
aF387.59214782714844
aa(lp6
S'timestamp'
p7
aF1.7214550971984863
aatp8
Rp9
.ccollections
OrderedDict
p0
((lp1
(lp2
S'state'
p3
aI0
aa(lp4
S'distance'
p5
aF387.59214782714844
aa(lp6
S'timestamp'
p7
aF1.7302031517028809
aatp8
Rp9
.ccollections
OrderedDict
p0
((lp1
(lp2
S'state'
p3
aI0
aa(lp4
S'distance'
p5
aF387.59214782714844
aa(lp6
S'timestamp'
p7
aF1.730666160583496
aatp8
Rp9
.ccollections
OrderedDict
p0
((lp1
(lp2
S'state'
p3
aI0
aa(lp4
S'distance'
p5
aF387.59214782714844
aa(lp6
S'timestamp'
p7
aF1.73974609375
aatp8
Rp9
.ccollections
OrderedDict
p0
((lp1
(lp2
S'state'
p3
aI0
aa(lp4
S'distance'
p5
aF387.59214782714844
aa(lp6
S'timestamp'
p7
aF1.7409741878509521
aatp8
Rp9
.ccollections
OrderedDict
p0
((lp1
(lp2
S'state'
p3
aI0
aa(lp4
S'distance'
p5
aF387.59214782714844
aa(lp6
S'timestamp'
p7
aF1.750960111618042
aatp8
Rp9
.ccollections
OrderedDict
p0
((lp1
(lp2
S'state'
p3
aI0
aa(lp4
S'distance'
p5
aF387.59214782714844
aa(lp6
S'timestamp'
p7
aF1.751500129699707
aatp8
Rp9
.ccollections
OrderedDict
p0
((lp1
(lp2
S'state'
p3
aI0
aa(lp4
S'distance'
p5
aF387.59214782714844
aa(lp6
S'timestamp'
p7
aF1.7604501247406006
aatp8
Rp9
.ccollections
OrderedDict
p0
((lp1
(lp2
S'state'
p3
aI0
aa(lp4
S'distance'
p5
aF387.59214782714844
aa(lp6
S'timestamp'
p7
aF1.7608041763305664
aatp8
Rp9
.ccollections
OrderedDict
p0
((lp1
(lp2
S'state'
p3
aI0
aa(lp4
S'distance'
p5
aF387.59214782714844
aa(lp6
S'timestamp'
p7
aF1.770207166671753
aatp8
Rp9
.ccollections
OrderedDict
p0
((lp1
(lp2
S'state'
p3
aI0
aa(lp4
S'distance'
p5
aF387.59214782714844
aa(lp6
S'timestamp'
p7
aF1.7711050510406494
aatp8
Rp9
.ccollections
OrderedDict
p0
((lp1
(lp2
S'state'
p3
aI0
aa(lp4
S'distance'
p5
aF387.59214782714844
aa(lp6
S'timestamp'
p7
aF1.7810142040252686
aatp8
Rp9
.ccollections
OrderedDict
p0
((lp1
(lp2
S'state'
p3
aI0
aa(lp4
S'distance'
p5
aF387.59214782714844
aa(lp6
S'timestamp'
p7
aF1.781102180480957
aatp8
Rp9
.ccollections
OrderedDict
p0
((lp1
(lp2
S'state'
p3
aI0
aa(lp4
S'distance'
p5
aF387.59214782714844
aa(lp6
S'timestamp'
p7
aF1.7903671264648438
aatp8
Rp9
.ccollections
OrderedDict
p0
((lp1
(lp2
S'state'
p3
aI0
aa(lp4
S'distance'
p5
aF387.59214782714844
aa(lp6
S'timestamp'
p7
aF1.7904441356658936
aatp8
Rp9
.ccollections
OrderedDict
p0
((lp1
(lp2
S'state'
p3
aI0
aa(lp4
S'distance'
p5
aF387.59214782714844
aa(lp6
S'timestamp'
p7
aF1.8018181324005127
aatp8
Rp9
.ccollections
OrderedDict
p0
((lp1
(lp2
S'state'
p3
aI0
aa(lp4
S'distance'
p5
aF387.59214782714844
aa(lp6
S'timestamp'
p7
aF1.8022360801696777
aatp8
Rp9
.ccollections
OrderedDict
p0
((lp1
(lp2
S'state'
p3
aI0
aa(lp4
S'distance'
p5
aF387.59214782714844
aa(lp6
S'timestamp'
p7
aF1.809920072555542
aatp8
Rp9
.ccollections
OrderedDict
p0
((lp1
(lp2
S'state'
p3
aI0
aa(lp4
S'distance'
p5
aF387.59214782714844
aa(lp6
S'timestamp'
p7
aF1.825127124786377
aatp8
Rp9
.ccollections
OrderedDict
p0
((lp1
(lp2
S'state'
p3
aI400
aa(lp4
S'distance'
p5
aF387.59214782714844
aa(lp6
S'timestamp'
p7
aF1.825685977935791
aatp8
Rp9
.ccollections
OrderedDict
p0
((lp1
(lp2
S'state'
p3
aI400
aa(lp4
S'distance'
p5
aF387.59214782714844
aa(lp6
S'timestamp'
p7
aF1.8273160457611084
aatp8
Rp9
.ccollections
OrderedDict
p0
((lp1
(lp2
S'state'
p3
aI400
aa(lp4
S'distance'
p5
aF387.59214782714844
aa(lp6
S'timestamp'
p7
aF1.8304870128631592
aatp8
Rp9
.ccollections
OrderedDict
p0
((lp1
(lp2
S'state'
p3
aI400
aa(lp4
S'distance'
p5
aF387.59214782714844
aa(lp6
S'timestamp'
p7
aF1.8430321216583252
aatp8
Rp9
.ccollections
OrderedDict
p0
((lp1
(lp2
S'state'
p3
aI400
aa(lp4
S'distance'
p5
aF387.59214782714844
aa(lp6
S'timestamp'
p7
aF1.84405517578125
aatp8
Rp9
.ccollections
OrderedDict
p0
((lp1
(lp2
S'state'
p3
aI400
aa(lp4
S'distance'
p5
aF387.59214782714844
aa(lp6
S'timestamp'
p7
aF1.8448941707611084
aatp8
Rp9
.ccollections
OrderedDict
p0
((lp1
(lp2
S'state'
p3
aI400
aa(lp4
S'distance'
p5
aF387.59214782714844
aa(lp6
S'timestamp'
p7
aF1.8520841598510742
aatp8
Rp9
.ccollections
OrderedDict
p0
((lp1
(lp2
S'state'
p3
aI400
aa(lp4
S'distance'
p5
aF387.59214782714844
aa(lp6
S'timestamp'
p7
aF1.8638670444488525
aatp8
Rp9
.ccollections
OrderedDict
p0
((lp1
(lp2
S'state'
p3
aI400
aa(lp4
S'distance'
p5
aF387.59214782714844
aa(lp6
S'timestamp'
p7
aF1.8640801906585693
aatp8
Rp9
.ccollections
OrderedDict
p0
((lp1
(lp2
S'state'
p3
aI400
aa(lp4
S'distance'
p5
aF387.59214782714844
aa(lp6
S'timestamp'
p7
aF1.8642590045928955
aatp8
Rp9
.ccollections
OrderedDict
p0
((lp1
(lp2
S'state'
p3
aI400
aa(lp4
S'distance'
p5
aF387.59214782714844
aa(lp6
S'timestamp'
p7
aF1.8720769882202148
aatp8
Rp9
.ccollections
OrderedDict
p0
((lp1
(lp2
S'state'
p3
aI400
aa(lp4
S'distance'
p5
aF387.59214782714844
aa(lp6
S'timestamp'
p7
aF1.8733210563659668
aatp8
Rp9
.ccollections
OrderedDict
p0
((lp1
(lp2
S'state'
p3
aI400
aa(lp4
S'distance'
p5
aF387.59214782714844
aa(lp6
S'timestamp'
p7
aF1.8871831893920898
aatp8
Rp9
.ccollections
OrderedDict
p0
((lp1
(lp2
S'state'
p3
aI400
aa(lp4
S'distance'
p5
aF387.59214782714844
aa(lp6
S'timestamp'
p7
aF1.8908600807189941
aatp8
Rp9
.ccollections
OrderedDict
p0
((lp1
(lp2
S'state'
p3
aI400
aa(lp4
S'distance'
p5
aF387.59214782714844
aa(lp6
S'timestamp'
p7
aF1.8911449909210205
aatp8
Rp9
.ccollections
OrderedDict
p0
((lp1
(lp2
S'state'
p3
aI400
aa(lp4
S'distance'
p5
aF387.59214782714844
aa(lp6
S'timestamp'
p7
aF1.8922080993652344
aatp8
Rp9
.ccollections
OrderedDict
p0
((lp1
(lp2
S'state'
p3
aI400
aa(lp4
S'distance'
p5
aF387.59214782714844
aa(lp6
S'timestamp'
p7
aF1.9011330604553223
aatp8
Rp9
.ccollections
OrderedDict
p0
((lp1
(lp2
S'state'
p3
aI400
aa(lp4
S'distance'
p5
aF387.59214782714844
aa(lp6
S'timestamp'
p7
aF1.9013481140136719
aatp8
Rp9
.ccollections
OrderedDict
p0
((lp1
(lp2
S'state'
p3
aI400
aa(lp4
S'distance'
p5
aF387.59214782714844
aa(lp6
S'timestamp'
p7
aF1.910210132598877
aatp8
Rp9
.ccollections
OrderedDict
p0
((lp1
(lp2
S'state'
p3
aI400
aa(lp4
S'distance'
p5
aF387.59214782714844
aa(lp6
S'timestamp'
p7
aF1.910344123840332
aatp8
Rp9
.ccollections
OrderedDict
p0
((lp1
(lp2
S'state'
p3
aI400
aa(lp4
S'distance'
p5
aF387.59214782714844
aa(lp6
S'timestamp'
p7
aF1.920600175857544
aatp8
Rp9
.ccollections
OrderedDict
p0
((lp1
(lp2
S'state'
p3
aI400
aa(lp4
S'distance'
p5
aF387.59214782714844
aa(lp6
S'timestamp'
p7
aF1.920776128768921
aatp8
Rp9
.ccollections
OrderedDict
p0
((lp1
(lp2
S'state'
p3
aI400
aa(lp4
S'distance'
p5
aF387.59214782714844
aa(lp6
S'timestamp'
p7
aF1.930800199508667
aatp8
Rp9
.ccollections
OrderedDict
p0
((lp1
(lp2
S'state'
p3
aI400
aa(lp4
S'distance'
p5
aF387.59214782714844
aa(lp6
S'timestamp'
p7
aF1.9308850765228271
aatp8
Rp9
.ccollections
OrderedDict
p0
((lp1
(lp2
S'state'
p3
aI400
aa(lp4
S'distance'
p5
aF387.59214782714844
aa(lp6
S'timestamp'
p7
aF1.9402790069580078
aatp8
Rp9
.ccollections
OrderedDict
p0
((lp1
(lp2
S'state'
p3
aI400
aa(lp4
S'distance'
p5
aF387.59214782714844
aa(lp6
S'timestamp'
p7
aF1.9406261444091797
aatp8
Rp9
.ccollections
OrderedDict
p0
((lp1
(lp2
S'state'
p3
aI400
aa(lp4
S'distance'
p5
aF387.59214782714844
aa(lp6
S'timestamp'
p7
aF1.9506499767303467
aatp8
Rp9
.ccollections
OrderedDict
p0
((lp1
(lp2
S'state'
p3
aI400
aa(lp4
S'distance'
p5
aF387.59214782714844
aa(lp6
S'timestamp'
p7
aF1.9507241249084473
aatp8
Rp9
.ccollections
OrderedDict
p0
((lp1
(lp2
S'state'
p3
aI400
aa(lp4
S'distance'
p5
aF387.59214782714844
aa(lp6
S'timestamp'
p7
aF1.9701461791992188
aatp8
Rp9
.ccollections
OrderedDict
p0
((lp1
(lp2
S'state'
p3
aI400
aa(lp4
S'distance'
p5
aF387.59214782714844
aa(lp6
S'timestamp'
p7
aF1.9709951877593994
aatp8
Rp9
.ccollections
OrderedDict
p0
((lp1
(lp2
S'state'
p3
aI400
aa(lp4
S'distance'
p5
aF387.59214782714844
aa(lp6
S'timestamp'
p7
aF1.9717531204223633
aatp8
Rp9
.ccollections
OrderedDict
p0
((lp1
(lp2
S'state'
p3
aI400
aa(lp4
S'distance'
p5
aF387.59214782714844
aa(lp6
S'timestamp'
p7
aF1.9720799922943115
aatp8
Rp9
.ccollections
OrderedDict
p0
((lp1
(lp2
S'state'
p3
aI400
aa(lp4
S'distance'
p5
aF387.59214782714844
aa(lp6
S'timestamp'
p7
aF1.980760097503662
aatp8
Rp9
.ccollections
OrderedDict
p0
((lp1
(lp2
S'state'
p3
aI400
aa(lp4
S'distance'
p5
aF387.59214782714844
aa(lp6
S'timestamp'
p7
aF1.9808661937713623
aatp8
Rp9
.ccollections
OrderedDict
p0
((lp1
(lp2
S'state'
p3
aI400
aa(lp4
S'distance'
p5
aF387.59214782714844
aa(lp6
S'timestamp'
p7
aF1.9902842044830322
aatp8
Rp9
.ccollections
OrderedDict
p0
((lp1
(lp2
S'state'
p3
aI400
aa(lp4
S'distance'
p5
aF387.59214782714844
aa(lp6
S'timestamp'
p7
aF1.9910240173339844
aatp8
Rp9
.ccollections
OrderedDict
p0
((lp1
(lp2
S'state'
p3
aI400
aa(lp4
S'distance'
p5
aF387.59214782714844
aa(lp6
S'timestamp'
p7
aF2.000030040740967
aatp8
Rp9
.ccollections
OrderedDict
p0
((lp1
(lp2
S'state'
p3
aI400
aa(lp4
S'distance'
p5
aF387.59214782714844
aa(lp6
S'timestamp'
p7
aF2.0006940364837646
aatp8
Rp9
.ccollections
OrderedDict
p0
((lp1
(lp2
S'state'
p3
aI400
aa(lp4
S'distance'
p5
aF387.59214782714844
aa(lp6
S'timestamp'
p7
aF2.010258197784424
aatp8
Rp9
.ccollections
OrderedDict
p0
((lp1
(lp2
S'state'
p3
aI400
aa(lp4
S'distance'
p5
aF387.59214782714844
aa(lp6
S'timestamp'
p7
aF2.011190176010132
aatp8
Rp9
.ccollections
OrderedDict
p0
((lp1
(lp2
S'state'
p3
aI400
aa(lp4
S'distance'
p5
aF387.59214782714844
aa(lp6
S'timestamp'
p7
aF2.0201611518859863
aatp8
Rp9
.ccollections
OrderedDict
p0
((lp1
(lp2
S'state'
p3
aI400
aa(lp4
S'distance'
p5
aF387.59214782714844
aa(lp6
S'timestamp'
p7
aF2.0205330848693848
aatp8
Rp9
.ccollections
OrderedDict
p0
((lp1
(lp2
S'state'
p3
aI400
aa(lp4
S'distance'
p5
aF387.59214782714844
aa(lp6
S'timestamp'
p7
aF2.029937982559204
aatp8
Rp9
.ccollections
OrderedDict
p0
((lp1
(lp2
S'state'
p3
aI400
aa(lp4
S'distance'
p5
aF387.59214782714844
aa(lp6
S'timestamp'
p7
aF2.0300211906433105
aatp8
Rp9
.ccollections
OrderedDict
p0
((lp1
(lp2
S'state'
p3
aI400
aa(lp4
S'distance'
p5
aF387.59214782714844
aa(lp6
S'timestamp'
p7
aF2.040001153945923
aatp8
Rp9
.ccollections
OrderedDict
p0
((lp1
(lp2
S'state'
p3
aI400
aa(lp4
S'distance'
p5
aF387.59214782714844
aa(lp6
S'timestamp'
p7
aF2.041246175765991
aatp8
Rp9
.ccollections
OrderedDict
p0
((lp1
(lp2
S'state'
p3
aI400
aa(lp4
S'distance'
p5
aF387.59214782714844
aa(lp6
S'timestamp'
p7
aF2.0505361557006836
aatp8
Rp9
.ccollections
OrderedDict
p0
((lp1
(lp2
S'state'
p3
aI400
aa(lp4
S'distance'
p5
aF387.59214782714844
aa(lp6
S'timestamp'
p7
aF2.050861120223999
aatp8
Rp9
.ccollections
OrderedDict
p0
((lp1
(lp2
S'state'
p3
aI400
aa(lp4
S'distance'
p5
aF387.59214782714844
aa(lp6
S'timestamp'
p7
aF2.0603511333465576
aatp8
Rp9
.ccollections
OrderedDict
p0
((lp1
(lp2
S'state'
p3
aI400
aa(lp4
S'distance'
p5
aF387.59214782714844
aa(lp6
S'timestamp'
p7
aF2.060439109802246
aatp8
Rp9
.ccollections
OrderedDict
p0
((lp1
(lp2
S'state'
p3
aI400
aa(lp4
S'distance'
p5
aF387.59214782714844
aa(lp6
S'timestamp'
p7
aF2.070716142654419
aatp8
Rp9
.ccollections
OrderedDict
p0
((lp1
(lp2
S'state'
p3
aI400
aa(lp4
S'distance'
p5
aF387.59214782714844
aa(lp6
S'timestamp'
p7
aF2.0717761516571045
aatp8
Rp9
.ccollections
OrderedDict
p0
((lp1
(lp2
S'state'
p3
aI400
aa(lp4
S'distance'
p5
aF387.59214782714844
aa(lp6
S'timestamp'
p7
aF2.080238103866577
aatp8
Rp9
.ccollections
OrderedDict
p0
((lp1
(lp2
S'state'
p3
aI400
aa(lp4
S'distance'
p5
aF387.59214782714844
aa(lp6
S'timestamp'
p7
aF2.080838203430176
aatp8
Rp9
.ccollections
OrderedDict
p0
((lp1
(lp2
S'state'
p3
aI400
aa(lp4
S'distance'
p5
aF387.59214782714844
aa(lp6
S'timestamp'
p7
aF2.090512990951538
aatp8
Rp9
.ccollections
OrderedDict
p0
((lp1
(lp2
S'state'
p3
aI400
aa(lp4
S'distance'
p5
aF387.59214782714844
aa(lp6
S'timestamp'
p7
aF2.090620994567871
aatp8
Rp9
.ccollections
OrderedDict
p0
((lp1
(lp2
S'state'
p3
aI400
aa(lp4
S'distance'
p5
aF387.59214782714844
aa(lp6
S'timestamp'
p7
aF2.1002440452575684
aatp8
Rp9
.ccollections
OrderedDict
p0
((lp1
(lp2
S'state'
p3
aI400
aa(lp4
S'distance'
p5
aF387.59214782714844
aa(lp6
S'timestamp'
p7
aF2.100419044494629
aatp8
Rp9
.ccollections
OrderedDict
p0
((lp1
(lp2
S'state'
p3
aI400
aa(lp4
S'distance'
p5
aF387.59214782714844
aa(lp6
S'timestamp'
p7
aF2.1201109886169434
aatp8
Rp9
.ccollections
OrderedDict
p0
((lp1
(lp2
S'state'
p3
aI400
aa(lp4
S'distance'
p5
aF387.59214782714844
aa(lp6
S'timestamp'
p7
aF2.1203131675720215
aatp8
Rp9
.ccollections
OrderedDict
p0
((lp1
(lp2
S'state'
p3
aI400
aa(lp4
S'distance'
p5
aF387.59214782714844
aa(lp6
S'timestamp'
p7
aF2.12107515335083
aatp8
Rp9
.ccollections
OrderedDict
p0
((lp1
(lp2
S'state'
p3
aI400
aa(lp4
S'distance'
p5
aF387.59214782714844
aa(lp6
S'timestamp'
p7
aF2.1305601596832275
aatp8
Rp9
.ccollections
OrderedDict
p0
((lp1
(lp2
S'state'
p3
aI400
aa(lp4
S'distance'
p5
aF387.59214782714844
aa(lp6
S'timestamp'
p7
aF2.1308841705322266
aatp8
Rp9
.ccollections
OrderedDict
p0
((lp1
(lp2
S'state'
p3
aI400
aa(lp4
S'distance'
p5
aF387.59214782714844
aa(lp6
S'timestamp'
p7
aF2.1314501762390137
aatp8
Rp9
.ccollections
OrderedDict
p0
((lp1
(lp2
S'state'
p3
aI400
aa(lp4
S'distance'
p5
aF387.59214782714844
aa(lp6
S'timestamp'
p7
aF2.1402580738067627
aatp8
Rp9
.ccollections
OrderedDict
p0
((lp1
(lp2
S'state'
p3
aI400
aa(lp4
S'distance'
p5
aF387.59214782714844
aa(lp6
S'timestamp'
p7
aF2.1405751705169678
aatp8
Rp9
.ccollections
OrderedDict
p0
((lp1
(lp2
S'state'
p3
aI400
aa(lp4
S'distance'
p5
aF387.59214782714844
aa(lp6
S'timestamp'
p7
aF2.150797128677368
aatp8
Rp9
.ccollections
OrderedDict
p0
((lp1
(lp2
S'state'
p3
aI400
aa(lp4
S'distance'
p5
aF387.59214782714844
aa(lp6
S'timestamp'
p7
aF2.151285171508789
aatp8
Rp9
.ccollections
OrderedDict
p0
((lp1
(lp2
S'state'
p3
aI400
aa(lp4
S'distance'
p5
aF387.59214782714844
aa(lp6
S'timestamp'
p7
aF2.160229206085205
aatp8
Rp9
.ccollections
OrderedDict
p0
((lp1
(lp2
S'state'
p3
aI400
aa(lp4
S'distance'
p5
aF387.59214782714844
aa(lp6
S'timestamp'
p7
aF2.160611152648926
aatp8
Rp9
.ccollections
OrderedDict
p0
((lp1
(lp2
S'state'
p3
aI400
aa(lp4
S'distance'
p5
aF387.59214782714844
aa(lp6
S'timestamp'
p7
aF2.1810860633850098
aatp8
Rp9
.ccollections
OrderedDict
p0
((lp1
(lp2
S'state'
p3
aI400
aa(lp4
S'distance'
p5
aF387.59214782714844
aa(lp6
S'timestamp'
p7
aF2.1815731525421143
aatp8
Rp9
.ccollections
OrderedDict
p0
((lp1
(lp2
S'state'
p3
aI400
aa(lp4
S'distance'
p5
aF387.59214782714844
aa(lp6
S'timestamp'
p7
aF2.181648015975952
aatp8
Rp9
.ccollections
OrderedDict
p0
((lp1
(lp2
S'state'
p3
aI400
aa(lp4
S'distance'
p5
aF387.59214782714844
aa(lp6
S'timestamp'
p7
aF2.181716203689575
aatp8
Rp9
.ccollections
OrderedDict
p0
((lp1
(lp2
S'state'
p3
aI400
aa(lp4
S'distance'
p5
aF387.59214782714844
aa(lp6
S'timestamp'
p7
aF2.190148115158081
aatp8
Rp9
.ccollections
OrderedDict
p0
((lp1
(lp2
S'state'
p3
aI400
aa(lp4
S'distance'
p5
aF387.59214782714844
aa(lp6
S'timestamp'
p7
aF2.1905300617218018
aatp8
Rp9
.ccollections
OrderedDict
p0
((lp1
(lp2
S'state'
p3
aI400
aa(lp4
S'distance'
p5
aF387.59214782714844
aa(lp6
S'timestamp'
p7
aF2.2014009952545166
aatp8
Rp9
.ccollections
OrderedDict
p0
((lp1
(lp2
S'state'
p3
aI400
aa(lp4
S'distance'
p5
aF387.59214782714844
aa(lp6
S'timestamp'
p7
aF2.2109429836273193
aatp8
Rp9
.ccollections
OrderedDict
p0
((lp1
(lp2
S'state'
p3
aI400
aa(lp4
S'distance'
p5
aF387.59214782714844
aa(lp6
S'timestamp'
p7
aF2.211083173751831
aatp8
Rp9
.ccollections
OrderedDict
p0
((lp1
(lp2
S'state'
p3
aI400
aa(lp4
S'distance'
p5
aF387.59214782714844
aa(lp6
S'timestamp'
p7
aF2.2112221717834473
aatp8
Rp9
.ccollections
OrderedDict
p0
((lp1
(lp2
S'state'
p3
aI400
aa(lp4
S'distance'
p5
aF387.59214782714844
aa(lp6
S'timestamp'
p7
aF2.220600128173828
aatp8
Rp9
.ccollections
OrderedDict
p0
((lp1
(lp2
S'state'
p3
aI400
aa(lp4
S'distance'
p5
aF387.59214782714844
aa(lp6
S'timestamp'
p7
aF2.2209479808807373
aatp8
Rp9
.ccollections
OrderedDict
p0
((lp1
(lp2
S'state'
p3
aI400
aa(lp4
S'distance'
p5
aF387.59214782714844
aa(lp6
S'timestamp'
p7
aF2.2306160926818848
aatp8
Rp9
.ccollections
OrderedDict
p0
((lp1
(lp2
S'state'
p3
aI400
aa(lp4
S'distance'
p5
aF387.59214782714844
aa(lp6
S'timestamp'
p7
aF2.2309460639953613
aatp8
Rp9
.ccollections
OrderedDict
p0
((lp1
(lp2
S'state'
p3
aI400
aa(lp4
S'distance'
p5
aF387.59214782714844
aa(lp6
S'timestamp'
p7
aF2.2403831481933594
aatp8
Rp9
.ccollections
OrderedDict
p0
((lp1
(lp2
S'state'
p3
aI400
aa(lp4
S'distance'
p5
aF387.59214782714844
aa(lp6
S'timestamp'
p7
aF2.2409400939941406
aatp8
Rp9
.ccollections
OrderedDict
p0
((lp1
(lp2
S'state'
p3
aI400
aa(lp4
S'distance'
p5
aF387.59214782714844
aa(lp6
S'timestamp'
p7
aF2.250915050506592
aatp8
Rp9
.ccollections
OrderedDict
p0
((lp1
(lp2
S'state'
p3
aI400
aa(lp4
S'distance'
p5
aF387.59214782714844
aa(lp6
S'timestamp'
p7
aF2.251101016998291
aatp8
Rp9
.ccollections
OrderedDict
p0
((lp1
(lp2
S'state'
p3
aI400
aa(lp4
S'distance'
p5
aF387.59214782714844
aa(lp6
S'timestamp'
p7
aF2.260601043701172
aatp8
Rp9
.ccollections
OrderedDict
p0
((lp1
(lp2
S'state'
p3
aI400
aa(lp4
S'distance'
p5
aF387.59214782714844
aa(lp6
S'timestamp'
p7
aF2.261134147644043
aatp8
Rp9
.ccollections
OrderedDict
p0
((lp1
(lp2
S'state'
p3
aI400
aa(lp4
S'distance'
p5
aF387.59214782714844
aa(lp6
S'timestamp'
p7
aF2.270263195037842
aatp8
Rp9
.ccollections
OrderedDict
p0
((lp1
(lp2
S'state'
p3
aI400
aa(lp4
S'distance'
p5
aF387.59214782714844
aa(lp6
S'timestamp'
p7
aF2.270979166030884
aatp8
Rp9
.ccollections
OrderedDict
p0
((lp1
(lp2
S'state'
p3
aI400
aa(lp4
S'distance'
p5
aF387.59214782714844
aa(lp6
S'timestamp'
p7
aF2.2807490825653076
aatp8
Rp9
.ccollections
OrderedDict
p0
((lp1
(lp2
S'state'
p3
aI400
aa(lp4
S'distance'
p5
aF387.59214782714844
aa(lp6
S'timestamp'
p7
aF2.281270980834961
aatp8
Rp9
.ccollections
OrderedDict
p0
((lp1
(lp2
S'state'
p3
aI400
aa(lp4
S'distance'
p5
aF387.59214782714844
aa(lp6
S'timestamp'
p7
aF2.290739059448242
aatp8
Rp9
.ccollections
OrderedDict
p0
((lp1
(lp2
S'state'
p3
aI400
aa(lp4
S'distance'
p5
aF387.59214782714844
aa(lp6
S'timestamp'
p7
aF2.291452169418335
aatp8
Rp9
.ccollections
OrderedDict
p0
((lp1
(lp2
S'state'
p3
aI400
aa(lp4
S'distance'
p5
aF387.59214782714844
aa(lp6
S'timestamp'
p7
aF2.300546169281006
aatp8
Rp9
.ccollections
OrderedDict
p0
((lp1
(lp2
S'state'
p3
aI400
aa(lp4
S'distance'
p5
aF387.59214782714844
aa(lp6
S'timestamp'
p7
aF2.3011929988861084
aatp8
Rp9
.ccollections
OrderedDict
p0
((lp1
(lp2
S'state'
p3
aI400
aa(lp4
S'distance'
p5
aF387.59214782714844
aa(lp6
S'timestamp'
p7
aF2.309969186782837
aatp8
Rp9
.ccollections
OrderedDict
p0
((lp1
(lp2
S'state'
p3
aI400
aa(lp4
S'distance'
p5
aF387.59214782714844
aa(lp6
S'timestamp'
p7
aF2.3111250400543213
aatp8
Rp9
.ccollections
OrderedDict
p0
((lp1
(lp2
S'state'
p3
aI400
aa(lp4
S'distance'
p5
aF387.59214782714844
aa(lp6
S'timestamp'
p7
aF2.3204121589660645
aatp8
Rp9
.ccollections
OrderedDict
p0
((lp1
(lp2
S'state'
p3
aI400
aa(lp4
S'distance'
p5
aF387.59214782714844
aa(lp6
S'timestamp'
p7
aF2.3207030296325684
aatp8
Rp9
.ccollections
OrderedDict
p0
((lp1
(lp2
S'state'
p3
aI400
aa(lp4
S'distance'
p5
aF387.59214782714844
aa(lp6
S'timestamp'
p7
aF2.3304100036621094
aatp8
Rp9
.ccollections
OrderedDict
p0
((lp1
(lp2
S'state'
p3
aI400
aa(lp4
S'distance'
p5
aF387.59214782714844
aa(lp6
S'timestamp'
p7
aF2.330597162246704
aatp8
Rp9
.ccollections
OrderedDict
p0
((lp1
(lp2
S'state'
p3
aI400
aa(lp4
S'distance'
p5
aF387.59214782714844
aa(lp6
S'timestamp'
p7
aF2.340097188949585
aatp8
Rp9
.ccollections
OrderedDict
p0
((lp1
(lp2
S'state'
p3
aI400
aa(lp4
S'distance'
p5
aF387.59214782714844
aa(lp6
S'timestamp'
p7
aF2.3403830528259277
aatp8
Rp9
.ccollections
OrderedDict
p0
((lp1
(lp2
S'state'
p3
aI400
aa(lp4
S'distance'
p5
aF387.59214782714844
aa(lp6
S'timestamp'
p7
aF2.351011037826538
aatp8
Rp9
.ccollections
OrderedDict
p0
((lp1
(lp2
S'state'
p3
aI400
aa(lp4
S'distance'
p5
aF387.59214782714844
aa(lp6
S'timestamp'
p7
aF2.351274013519287
aatp8
Rp9
.ccollections
OrderedDict
p0
((lp1
(lp2
S'state'
p3
aI400
aa(lp4
S'distance'
p5
aF387.59214782714844
aa(lp6
S'timestamp'
p7
aF2.3608341217041016
aatp8
Rp9
.ccollections
OrderedDict
p0
((lp1
(lp2
S'state'
p3
aI400
aa(lp4
S'distance'
p5
aF387.59214782714844
aa(lp6
S'timestamp'
p7
aF2.3610501289367676
aatp8
Rp9
.ccollections
OrderedDict
p0
((lp1
(lp2
S'state'
p3
aI400
aa(lp4
S'distance'
p5
aF387.59214782714844
aa(lp6
S'timestamp'
p7
aF2.3698441982269287
aatp8
Rp9
.ccollections
OrderedDict
p0
((lp1
(lp2
S'state'
p3
aI400
aa(lp4
S'distance'
p5
aF387.59214782714844
aa(lp6
S'timestamp'
p7
aF2.3703091144561768
aatp8
Rp9
.ccollections
OrderedDict
p0
((lp1
(lp2
S'state'
p3
aI400
aa(lp4
S'distance'
p5
aF387.59214782714844
aa(lp6
S'timestamp'
p7
aF2.3802950382232666
aatp8
Rp9
.ccollections
OrderedDict
p0
((lp1
(lp2
S'state'
p3
aI400
aa(lp4
S'distance'
p5
aF387.59214782714844
aa(lp6
S'timestamp'
p7
aF2.3807921409606934
aatp8
Rp9
.ccollections
OrderedDict
p0
((lp1
(lp2
S'state'
p3
aI400
aa(lp4
S'distance'
p5
aF387.59214782714844
aa(lp6
S'timestamp'
p7
aF2.3906400203704834
aatp8
Rp9
.ccollections
OrderedDict
p0
((lp1
(lp2
S'state'
p3
aI400
aa(lp4
S'distance'
p5
aF387.59214782714844
aa(lp6
S'timestamp'
p7
aF2.3907151222229004
aatp8
Rp9
.ccollections
OrderedDict
p0
((lp1
(lp2
S'state'
p3
aI400
aa(lp4
S'distance'
p5
aF387.59214782714844
aa(lp6
S'timestamp'
p7
aF2.4001832008361816
aatp8
Rp9
.ccollections
OrderedDict
p0
((lp1
(lp2
S'state'
p3
aI400
aa(lp4
S'distance'
p5
aF387.59214782714844
aa(lp6
S'timestamp'
p7
aF2.401522159576416
aatp8
Rp9
.ccollections
OrderedDict
p0
((lp1
(lp2
S'state'
p3
aI400
aa(lp4
S'distance'
p5
aF387.59214782714844
aa(lp6
S'timestamp'
p7
aF2.4098219871520996
aatp8
Rp9
.ccollections
OrderedDict
p0
((lp1
(lp2
S'state'
p3
aI400
aa(lp4
S'distance'
p5
aF387.59214782714844
aa(lp6
S'timestamp'
p7
aF2.4123010635375977
aatp8
Rp9
.ccollections
OrderedDict
p0
((lp1
(lp2
S'state'
p3
aI400
aa(lp4
S'distance'
p5
aF387.59214782714844
aa(lp6
S'timestamp'
p7
aF2.421924114227295
aatp8
Rp9
.ccollections
OrderedDict
p0
((lp1
(lp2
S'state'
p3
aI400
aa(lp4
S'distance'
p5
aF387.59214782714844
aa(lp6
S'timestamp'
p7
aF2.422213077545166
aatp8
Rp9
.ccollections
OrderedDict
p0
((lp1
(lp2
S'state'
p3
aI400
aa(lp4
S'distance'
p5
aF387.59214782714844
aa(lp6
S'timestamp'
p7
aF2.43139910697937
aatp8
Rp9
.ccollections
OrderedDict
p0
((lp1
(lp2
S'state'
p3
aI400
aa(lp4
S'distance'
p5
aF387.59214782714844
aa(lp6
S'timestamp'
p7
aF2.4329640865325928
aatp8
Rp9
.ccollections
OrderedDict
p0
((lp1
(lp2
S'state'
p3
aI400
aa(lp4
S'distance'
p5
aF387.59214782714844
aa(lp6
S'timestamp'
p7
aF2.4398670196533203
aatp8
Rp9
.ccollections
OrderedDict
p0
((lp1
(lp2
S'state'
p3
aI400
aa(lp4
S'distance'
p5
aF387.59214782714844
aa(lp6
S'timestamp'
p7
aF2.440599203109741
aatp8
Rp9
.ccollections
OrderedDict
p0
((lp1
(lp2
S'state'
p3
aI400
aa(lp4
S'distance'
p5
aF387.59214782714844
aa(lp6
S'timestamp'
p7
aF2.4497880935668945
aatp8
Rp9
.ccollections
OrderedDict
p0
((lp1
(lp2
S'state'
p3
aI400
aa(lp4
S'distance'
p5
aF387.59214782714844
aa(lp6
S'timestamp'
p7
aF2.4511401653289795
aatp8
Rp9
.ccollections
OrderedDict
p0
((lp1
(lp2
S'state'
p3
aI400
aa(lp4
S'distance'
p5
aF387.59214782714844
aa(lp6
S'timestamp'
p7
aF2.459968090057373
aatp8
Rp9
.ccollections
OrderedDict
p0
((lp1
(lp2
S'state'
p3
aI400
aa(lp4
S'distance'
p5
aF387.59214782714844
aa(lp6
S'timestamp'
p7
aF2.461106061935425
aatp8
Rp9
.ccollections
OrderedDict
p0
((lp1
(lp2
S'state'
p3
aI400
aa(lp4
S'distance'
p5
aF387.59214782714844
aa(lp6
S'timestamp'
p7
aF2.470003128051758
aatp8
Rp9
.ccollections
OrderedDict
p0
((lp1
(lp2
S'state'
p3
aI400
aa(lp4
S'distance'
p5
aF387.59214782714844
aa(lp6
S'timestamp'
p7
aF2.470156192779541
aatp8
Rp9
.ccollections
OrderedDict
p0
((lp1
(lp2
S'state'
p3
aI400
aa(lp4
S'distance'
p5
aF387.59214782714844
aa(lp6
S'timestamp'
p7
aF2.4796550273895264
aatp8
Rp9
.ccollections
OrderedDict
p0
((lp1
(lp2
S'state'
p3
aI400
aa(lp4
S'distance'
p5
aF387.59214782714844
aa(lp6
S'timestamp'
p7
aF2.4809200763702393
aatp8
Rp9
.ccollections
OrderedDict
p0
((lp1
(lp2
S'state'
p3
aI400
aa(lp4
S'distance'
p5
aF387.59214782714844
aa(lp6
S'timestamp'
p7
aF2.489826202392578
aatp8
Rp9
.ccollections
OrderedDict
p0
((lp1
(lp2
S'state'
p3
aI400
aa(lp4
S'distance'
p5
aF387.59214782714844
aa(lp6
S'timestamp'
p7
aF2.493474006652832
aatp8
Rp9
.ccollections
OrderedDict
p0
((lp1
(lp2
S'state'
p3
aI0
aa(lp4
S'distance'
p5
aF387.59214782714844
aa(lp6
S'timestamp'
p7
aF2.500429153442383
aatp8
Rp9
.ccollections
OrderedDict
p0
((lp1
(lp2
S'state'
p3
aI0
aa(lp4
S'distance'
p5
aF281.69409942626953
aa(lp6
S'timestamp'
p7
aF3.0984840393066406
aatp8
Rp9
.ccollections
OrderedDict
p0
((lp1
(lp2
S'state'
p3
aI0
aa(lp4
S'distance'
p5
aF281.69409942626953
aa(lp6
S'timestamp'
p7
aF3.098778009414673
aatp8
Rp9
.ccollections
OrderedDict
p0
((lp1
(lp2
S'state'
p3
aI0
aa(lp4
S'distance'
p5
aF281.69409942626953
aa(lp6
S'timestamp'
p7
aF3.103241205215454
aatp8
Rp9
.ccollections
OrderedDict
p0
((lp1
(lp2
S'state'
p3
aI0
aa(lp4
S'distance'
p5
aF281.69409942626953
aa(lp6
S'timestamp'
p7
aF3.105039119720459
aatp8
Rp9
.ccollections
OrderedDict
p0
((lp1
(lp2
S'state'
p3
aI0
aa(lp4
S'distance'
p5
aF281.69409942626953
aa(lp6
S'timestamp'
p7
aF3.106775999069214
aatp8
Rp9
.ccollections
OrderedDict
p0
((lp1
(lp2
S'state'
p3
aI0
aa(lp4
S'distance'
p5
aF281.69409942626953
aa(lp6
S'timestamp'
p7
aF3.1106271743774414
aatp8
Rp9
.ccollections
OrderedDict
p0
((lp1
(lp2
S'state'
p3
aI0
aa(lp4
S'distance'
p5
aF281.69409942626953
aa(lp6
S'timestamp'
p7
aF3.1122121810913086
aatp8
Rp9
.ccollections
OrderedDict
p0
((lp1
(lp2
S'state'
p3
aI0
aa(lp4
S'distance'
p5
aF281.69409942626953
aa(lp6
S'timestamp'
p7
aF3.1253750324249268
aatp8
Rp9
.ccollections
OrderedDict
p0
((lp1
(lp2
S'state'
p3
aI0
aa(lp4
S'distance'
p5
aF281.69409942626953
aa(lp6
S'timestamp'
p7
aF3.1259469985961914
aatp8
Rp9
.ccollections
OrderedDict
p0
((lp1
(lp2
S'state'
p3
aI0
aa(lp4
S'distance'
p5
aF281.69409942626953
aa(lp6
S'timestamp'
p7
aF3.130136013031006
aatp8
Rp9
.ccollections
OrderedDict
p0
((lp1
(lp2
S'state'
p3
aI0
aa(lp4
S'distance'
p5
aF281.69409942626953
aa(lp6
S'timestamp'
p7
aF3.1309151649475098
aatp8
Rp9
.ccollections
OrderedDict
p0
((lp1
(lp2
S'state'
p3
aI0
aa(lp4
S'distance'
p5
aF281.69409942626953
aa(lp6
S'timestamp'
p7
aF3.1400179862976074
aatp8
Rp9
.ccollections
OrderedDict
p0
((lp1
(lp2
S'state'
p3
aI0
aa(lp4
S'distance'
p5
aF281.69409942626953
aa(lp6
S'timestamp'
p7
aF3.1402480602264404
aatp8
Rp9
.ccollections
OrderedDict
p0
((lp1
(lp2
S'state'
p3
aI0
aa(lp4
S'distance'
p5
aF281.69409942626953
aa(lp6
S'timestamp'
p7
aF3.1499011516571045
aatp8
Rp9
.ccollections
OrderedDict
p0
((lp1
(lp2
S'state'
p3
aI0
aa(lp4
S'distance'
p5
aF281.69409942626953
aa(lp6
S'timestamp'
p7
aF3.150151014328003
aatp8
Rp9
.ccollections
OrderedDict
p0
((lp1
(lp2
S'state'
p3
aI0
aa(lp4
S'distance'
p5
aF281.69409942626953
aa(lp6
S'timestamp'
p7
aF3.1598269939422607
aatp8
Rp9
.ccollections
OrderedDict
p0
((lp1
(lp2
S'state'
p3
aI0
aa(lp4
S'distance'
p5
aF281.69409942626953
aa(lp6
S'timestamp'
p7
aF3.1602489948272705
aatp8
Rp9
.ccollections
OrderedDict
p0
((lp1
(lp2
S'state'
p3
aI0
aa(lp4
S'distance'
p5
aF281.69409942626953
aa(lp6
S'timestamp'
p7
aF3.1697030067443848
aatp8
Rp9
.ccollections
OrderedDict
p0
((lp1
(lp2
S'state'
p3
aI0
aa(lp4
S'distance'
p5
aF281.69409942626953
aa(lp6
S'timestamp'
p7
aF3.1797711849212646
aatp8
Rp9
.ccollections
OrderedDict
p0
((lp1
(lp2
S'state'
p3
aI0
aa(lp4
S'distance'
p5
aF281.69409942626953
aa(lp6
S'timestamp'
p7
aF3.1800880432128906
aatp8
Rp9
.ccollections
OrderedDict
p0
((lp1
(lp2
S'state'
p3
aI0
aa(lp4
S'distance'
p5
aF281.69409942626953
aa(lp6
S'timestamp'
p7
aF3.1811251640319824
aatp8
Rp9
.ccollections
OrderedDict
p0
((lp1
(lp2
S'state'
p3
aI0
aa(lp4
S'distance'
p5
aF281.69409942626953
aa(lp6
S'timestamp'
p7
aF3.1997621059417725
aatp8
Rp9
.ccollections
OrderedDict
p0
((lp1
(lp2
S'state'
p3
aI0
aa(lp4
S'distance'
p5
aF281.69409942626953
aa(lp6
S'timestamp'
p7
aF3.20971417427063
aatp8
Rp9
.ccollections
OrderedDict
p0
((lp1
(lp2
S'state'
p3
aI0
aa(lp4
S'distance'
p5
aF281.69409942626953
aa(lp6
S'timestamp'
p7
aF3.2099180221557617
aatp8
Rp9
.ccollections
OrderedDict
p0
((lp1
(lp2
S'state'
p3
aI0
aa(lp4
S'distance'
p5
aF281.69409942626953
aa(lp6
S'timestamp'
p7
aF3.2105751037597656
aatp8
Rp9
.ccollections
OrderedDict
p0
((lp1
(lp2
S'state'
p3
aI0
aa(lp4
S'distance'
p5
aF281.69409942626953
aa(lp6
S'timestamp'
p7
aF3.2109429836273193
aatp8
Rp9
.ccollections
OrderedDict
p0
((lp1
(lp2
S'state'
p3
aI0
aa(lp4
S'distance'
p5
aF281.69409942626953
aa(lp6
S'timestamp'
p7
aF3.21976900100708
aatp8
Rp9
.ccollections
OrderedDict
p0
((lp1
(lp2
S'state'
p3
aI0
aa(lp4
S'distance'
p5
aF281.69409942626953
aa(lp6
S'timestamp'
p7
aF3.2200779914855957
aatp8
Rp9
.ccollections
OrderedDict
p0
((lp1
(lp2
S'state'
p3
aI0
aa(lp4
S'distance'
p5
aF281.69409942626953
aa(lp6
S'timestamp'
p7
aF3.2216711044311523
aatp8
Rp9
.ccollections
OrderedDict
p0
((lp1
(lp2
S'state'
p3
aI0
aa(lp4
S'distance'
p5
aF281.69409942626953
aa(lp6
S'timestamp'
p7
aF3.239650011062622
aatp8
Rp9
.ccollections
OrderedDict
p0
((lp1
(lp2
S'state'
p3
aI0
aa(lp4
S'distance'
p5
aF281.69409942626953
aa(lp6
S'timestamp'
p7
aF3.240058183670044
aatp8
Rp9
.ccollections
OrderedDict
p0
((lp1
(lp2
S'state'
p3
aI0
aa(lp4
S'distance'
p5
aF281.69409942626953
aa(lp6
S'timestamp'
p7
aF3.240610122680664
aatp8
Rp9
.ccollections
OrderedDict
p0
((lp1
(lp2
S'state'
p3
aI0
aa(lp4
S'distance'
p5
aF281.69409942626953
aa(lp6
S'timestamp'
p7
aF3.2409780025482178
aatp8
Rp9
.ccollections
OrderedDict
p0
((lp1
(lp2
S'state'
p3
aI0
aa(lp4
S'distance'
p5
aF281.69409942626953
aa(lp6
S'timestamp'
p7
aF3.249803066253662
aatp8
Rp9
.ccollections
OrderedDict
p0
((lp1
(lp2
S'state'
p3
aI0
aa(lp4
S'distance'
p5
aF281.69409942626953
aa(lp6
S'timestamp'
p7
aF3.2502760887145996
aatp8
Rp9
.ccollections
OrderedDict
p0
((lp1
(lp2
S'state'
p3
aI0
aa(lp4
S'distance'
p5
aF281.69409942626953
aa(lp6
S'timestamp'
p7
aF3.259768009185791
aatp8
Rp9
.ccollections
OrderedDict
p0
((lp1
(lp2
S'state'
p3
aI0
aa(lp4
S'distance'
p5
aF281.69409942626953
aa(lp6
S'timestamp'
p7
aF3.260308027267456
aatp8
Rp9
.ccollections
OrderedDict
p0
((lp1
(lp2
S'state'
p3
aI0
aa(lp4
S'distance'
p5
aF281.69409942626953
aa(lp6
S'timestamp'
p7
aF3.269761085510254
aatp8
Rp9
.ccollections
OrderedDict
p0
((lp1
(lp2
S'state'
p3
aI0
aa(lp4
S'distance'
p5
aF281.69409942626953
aa(lp6
S'timestamp'
p7
aF3.2700700759887695
aatp8
Rp9
.ccollections
OrderedDict
p0
((lp1
(lp2
S'state'
p3
aI0
aa(lp4
S'distance'
p5
aF281.69409942626953
aa(lp6
S'timestamp'
p7
aF3.2798590660095215
aatp8
Rp9
.ccollections
OrderedDict
p0
((lp1
(lp2
S'state'
p3
aI0
aa(lp4
S'distance'
p5
aF281.69409942626953
aa(lp6
S'timestamp'
p7
aF3.2804131507873535
aatp8
Rp9
.ccollections
OrderedDict
p0
((lp1
(lp2
S'state'
p3
aI0
aa(lp4
S'distance'
p5
aF281.69409942626953
aa(lp6
S'timestamp'
p7
aF3.289729118347168
aatp8
Rp9
.ccollections
OrderedDict
p0
((lp1
(lp2
S'state'
p3
aI0
aa(lp4
S'distance'
p5
aF281.69409942626953
aa(lp6
S'timestamp'
p7
aF3.2915380001068115
aatp8
Rp9
.ccollections
OrderedDict
p0
((lp1
(lp2
S'state'
p3
aI0
aa(lp4
S'distance'
p5
aF281.69409942626953
aa(lp6
S'timestamp'
p7
aF3.3208680152893066
aatp8
Rp9
.ccollections
OrderedDict
p0
((lp1
(lp2
S'state'
p3
aI0
aa(lp4
S'distance'
p5
aF281.69409942626953
aa(lp6
S'timestamp'
p7
aF3.321195125579834
aatp8
Rp9
.ccollections
OrderedDict
p0
((lp1
(lp2
S'state'
p3
aI0
aa(lp4
S'distance'
p5
aF281.69409942626953
aa(lp6
S'timestamp'
p7
aF3.3223531246185303
aatp8
Rp9
.ccollections
OrderedDict
p0
((lp1
(lp2
S'state'
p3
aI0
aa(lp4
S'distance'
p5
aF281.69409942626953
aa(lp6
S'timestamp'
p7
aF3.322923183441162
aatp8
Rp9
.ccollections
OrderedDict
p0
((lp1
(lp2
S'state'
p3
aI0
aa(lp4
S'distance'
p5
aF281.69409942626953
aa(lp6
S'timestamp'
p7
aF3.3296849727630615
aatp8
Rp9
.ccollections
OrderedDict
p0
((lp1
(lp2
S'state'
p3
aI0
aa(lp4
S'distance'
p5
aF281.69409942626953
aa(lp6
S'timestamp'
p7
aF3.330454111099243
aatp8
Rp9
.ccollections
OrderedDict
p0
((lp1
(lp2
S'state'
p3
aI0
aa(lp4
S'distance'
p5
aF281.69409942626953
aa(lp6
S'timestamp'
p7
aF3.330857038497925
aatp8
Rp9
.ccollections
OrderedDict
p0
((lp1
(lp2
S'state'
p3
aI0
aa(lp4
S'distance'
p5
aF281.69409942626953
aa(lp6
S'timestamp'
p7
aF3.3315529823303223
aatp8
Rp9
.ccollections
OrderedDict
p0
((lp1
(lp2
S'state'
p3
aI0
aa(lp4
S'distance'
p5
aF281.69409942626953
aa(lp6
S'timestamp'
p7
aF3.340358018875122
aatp8
Rp9
.ccollections
OrderedDict
p0
((lp1
(lp2
S'state'
p3
aI0
aa(lp4
S'distance'
p5
aF281.69409942626953
aa(lp6
S'timestamp'
p7
aF3.3414900302886963
aatp8
Rp9
.ccollections
OrderedDict
p0
((lp1
(lp2
S'state'
p3
aI0
aa(lp4
S'distance'
p5
aF281.69409942626953
aa(lp6
S'timestamp'
p7
aF3.350255012512207
aatp8
Rp9
.ccollections
OrderedDict
p0
((lp1
(lp2
S'state'
p3
aI0
aa(lp4
S'distance'
p5
aF281.69409942626953
aa(lp6
S'timestamp'
p7
aF3.3504230976104736
aatp8
Rp9
.ccollections
OrderedDict
p0
((lp1
(lp2
S'state'
p3
aI0
aa(lp4
S'distance'
p5
aF281.69409942626953
aa(lp6
S'timestamp'
p7
aF3.3697781562805176
aatp8
Rp9
.ccollections
OrderedDict
p0
((lp1
(lp2
S'state'
p3
aI0
aa(lp4
S'distance'
p5
aF281.69409942626953
aa(lp6
S'timestamp'
p7
aF3.370448112487793
aatp8
Rp9
.ccollections
OrderedDict
p0
((lp1
(lp2
S'state'
p3
aI0
aa(lp4
S'distance'
p5
aF281.69409942626953
aa(lp6
S'timestamp'
p7
aF3.3714311122894287
aatp8
Rp9
.ccollections
OrderedDict
p0
((lp1
(lp2
S'state'
p3
aI0
aa(lp4
S'distance'
p5
aF281.69409942626953
aa(lp6
S'timestamp'
p7
aF3.3715100288391113
aatp8
Rp9
.ccollections
OrderedDict
p0
((lp1
(lp2
S'state'
p3
aI0
aa(lp4
S'distance'
p5
aF281.69409942626953
aa(lp6
S'timestamp'
p7
aF3.3899831771850586
aatp8
Rp9
.ccollections
OrderedDict
p0
((lp1
(lp2
S'state'
p3
aI0
aa(lp4
S'distance'
p5
aF281.69409942626953
aa(lp6
S'timestamp'
p7
aF3.391052007675171
aatp8
Rp9
.ccollections
OrderedDict
p0
((lp1
(lp2
S'state'
p3
aI0
aa(lp4
S'distance'
p5
aF281.69409942626953
aa(lp6
S'timestamp'
p7
aF3.3912200927734375
aatp8
Rp9
.ccollections
OrderedDict
p0
((lp1
(lp2
S'state'
p3
aI400
aa(lp4
S'distance'
p5
aF281.69409942626953
aa(lp6
S'timestamp'
p7
aF3.39211106300354
aatp8
Rp9
.ccollections
OrderedDict
p0
((lp1
(lp2
S'state'
p3
aI400
aa(lp4
S'distance'
p5
aF281.69409942626953
aa(lp6
S'timestamp'
p7
aF3.411717176437378
aatp8
Rp9
.ccollections
OrderedDict
p0
((lp1
(lp2
S'state'
p3
aI400
aa(lp4
S'distance'
p5
aF281.69409942626953
aa(lp6
S'timestamp'
p7
aF3.411895990371704
aatp8
Rp9
.ccollections
OrderedDict
p0
((lp1
(lp2
S'state'
p3
aI400
aa(lp4
S'distance'
p5
aF281.69409942626953
aa(lp6
S'timestamp'
p7
aF3.41680908203125
aatp8
Rp9
.ccollections
OrderedDict
p0
((lp1
(lp2
S'state'
p3
aI400
aa(lp4
S'distance'
p5
aF281.69409942626953
aa(lp6
S'timestamp'
p7
aF3.4171640872955322
aatp8
Rp9
.ccollections
OrderedDict
p0
((lp1
(lp2
S'state'
p3
aI400
aa(lp4
S'distance'
p5
aF281.69409942626953
aa(lp6
S'timestamp'
p7
aF3.422666072845459
aatp8
Rp9
.ccollections
OrderedDict
p0
((lp1
(lp2
S'state'
p3
aI400
aa(lp4
S'distance'
p5
aF281.69409942626953
aa(lp6
S'timestamp'
p7
aF3.423436164855957
aatp8
Rp9
.ccollections
OrderedDict
p0
((lp1
(lp2
S'state'
p3
aI400
aa(lp4
S'distance'
p5
aF281.69409942626953
aa(lp6
S'timestamp'
p7
aF3.441157102584839
aatp8
Rp9
.ccollections
OrderedDict
p0
((lp1
(lp2
S'state'
p3
aI400
aa(lp4
S'distance'
p5
aF281.69409942626953
aa(lp6
S'timestamp'
p7
aF3.4413580894470215
aatp8
Rp9
.ccollections
OrderedDict
p0
((lp1
(lp2
S'state'
p3
aI400
aa(lp4
S'distance'
p5
aF281.69409942626953
aa(lp6
S'timestamp'
p7
aF3.442885160446167
aatp8
Rp9
.ccollections
OrderedDict
p0
((lp1
(lp2
S'state'
p3
aI400
aa(lp4
S'distance'
p5
aF281.69409942626953
aa(lp6
S'timestamp'
p7
aF3.4476380348205566
aatp8
Rp9
.ccollections
OrderedDict
p0
((lp1
(lp2
S'state'
p3
aI400
aa(lp4
S'distance'
p5
aF281.69409942626953
aa(lp6
S'timestamp'
p7
aF3.4556970596313477
aatp8
Rp9
.ccollections
OrderedDict
p0
((lp1
(lp2
S'state'
p3
aI400
aa(lp4
S'distance'
p5
aF281.69409942626953
aa(lp6
S'timestamp'
p7
aF3.456268072128296
aatp8
Rp9
.ccollections
OrderedDict
p0
((lp1
(lp2
S'state'
p3
aI400
aa(lp4
S'distance'
p5
aF281.69409942626953
aa(lp6
S'timestamp'
p7
aF3.4604971408843994
aatp8
Rp9
.ccollections
OrderedDict
p0
((lp1
(lp2
S'state'
p3
aI400
aa(lp4
S'distance'
p5
aF281.69409942626953
aa(lp6
S'timestamp'
p7
aF3.460681200027466
aatp8
Rp9
.ccollections
OrderedDict
p0
((lp1
(lp2
S'state'
p3
aI400
aa(lp4
S'distance'
p5
aF281.69409942626953
aa(lp6
S'timestamp'
p7
aF3.4706921577453613
aatp8
Rp9
.ccollections
OrderedDict
p0
((lp1
(lp2
S'state'
p3
aI400
aa(lp4
S'distance'
p5
aF281.69409942626953
aa(lp6
S'timestamp'
p7
aF3.4709219932556152
aatp8
Rp9
.ccollections
OrderedDict
p0
((lp1
(lp2
S'state'
p3
aI400
aa(lp4
S'distance'
p5
aF281.69409942626953
aa(lp6
S'timestamp'
p7
aF3.479875087738037
aatp8
Rp9
.ccollections
OrderedDict
p0
((lp1
(lp2
S'state'
p3
aI400
aa(lp4
S'distance'
p5
aF281.69409942626953
aa(lp6
S'timestamp'
p7
aF3.4800591468811035
aatp8
Rp9
.ccollections
OrderedDict
p0
((lp1
(lp2
S'state'
p3
aI400
aa(lp4
S'distance'
p5
aF281.69409942626953
aa(lp6
S'timestamp'
p7
aF3.489741086959839
aatp8
Rp9
.ccollections
OrderedDict
p0
((lp1
(lp2
S'state'
p3
aI400
aa(lp4
S'distance'
p5
aF281.69409942626953
aa(lp6
S'timestamp'
p7
aF3.490417003631592
aatp8
Rp9
.ccollections
OrderedDict
p0
((lp1
(lp2
S'state'
p3
aI400
aa(lp4
S'distance'
p5
aF281.69409942626953
aa(lp6
S'timestamp'
p7
aF3.4996960163116455
aatp8
Rp9
.ccollections
OrderedDict
p0
((lp1
(lp2
S'state'
p3
aI400
aa(lp4
S'distance'
p5
aF281.69409942626953
aa(lp6
S'timestamp'
p7
aF3.5002281665802
aatp8
Rp9
.ccollections
OrderedDict
p0
((lp1
(lp2
S'state'
p3
aI400
aa(lp4
S'distance'
p5
aF281.69409942626953
aa(lp6
S'timestamp'
p7
aF3.5099520683288574
aatp8
Rp9
.ccollections
OrderedDict
p0
((lp1
(lp2
S'state'
p3
aI400
aa(lp4
S'distance'
p5
aF281.69409942626953
aa(lp6
S'timestamp'
p7
aF3.5101401805877686
aatp8
Rp9
.ccollections
OrderedDict
p0
((lp1
(lp2
S'state'
p3
aI400
aa(lp4
S'distance'
p5
aF281.69409942626953
aa(lp6
S'timestamp'
p7
aF3.519690990447998
aatp8
Rp9
.ccollections
OrderedDict
p0
((lp1
(lp2
S'state'
p3
aI400
aa(lp4
S'distance'
p5
aF281.69409942626953
aa(lp6
S'timestamp'
p7
aF3.5204501152038574
aatp8
Rp9
.ccollections
OrderedDict
p0
((lp1
(lp2
S'state'
p3
aI400
aa(lp4
S'distance'
p5
aF281.69409942626953
aa(lp6
S'timestamp'
p7
aF3.5297091007232666
aatp8
Rp9
.ccollections
OrderedDict
p0
((lp1
(lp2
S'state'
p3
aI400
aa(lp4
S'distance'
p5
aF281.69409942626953
aa(lp6
S'timestamp'
p7
aF3.530224084854126
aatp8
Rp9
.ccollections
OrderedDict
p0
((lp1
(lp2
S'state'
p3
aI400
aa(lp4
S'distance'
p5
aF281.69409942626953
aa(lp6
S'timestamp'
p7
aF3.5397770404815674
aatp8
Rp9
.ccollections
OrderedDict
p0
((lp1
(lp2
S'state'
p3
aI400
aa(lp4
S'distance'
p5
aF281.69409942626953
aa(lp6
S'timestamp'
p7
aF3.540471076965332
aatp8
Rp9
.ccollections
OrderedDict
p0
((lp1
(lp2
S'state'
p3
aI400
aa(lp4
S'distance'
p5
aF281.69409942626953
aa(lp6
S'timestamp'
p7
aF3.549774169921875
aatp8
Rp9
.ccollections
OrderedDict
p0
((lp1
(lp2
S'state'
p3
aI400
aa(lp4
S'distance'
p5
aF281.69409942626953
aa(lp6
S'timestamp'
p7
aF3.5501770973205566
aatp8
Rp9
.ccollections
OrderedDict
p0
((lp1
(lp2
S'state'
p3
aI400
aa(lp4
S'distance'
p5
aF281.69409942626953
aa(lp6
S'timestamp'
p7
aF3.559777021408081
aatp8
Rp9
.ccollections
OrderedDict
p0
((lp1
(lp2
S'state'
p3
aI400
aa(lp4
S'distance'
p5
aF281.69409942626953
aa(lp6
S'timestamp'
p7
aF3.5603420734405518
aatp8
Rp9
.ccollections
OrderedDict
p0
((lp1
(lp2
S'state'
p3
aI400
aa(lp4
S'distance'
p5
aF281.69409942626953
aa(lp6
S'timestamp'
p7
aF3.569768190383911
aatp8
Rp9
.ccollections
OrderedDict
p0
((lp1
(lp2
S'state'
p3
aI400
aa(lp4
S'distance'
p5
aF281.69409942626953
aa(lp6
S'timestamp'
p7
aF3.570280075073242
aatp8
Rp9
.ccollections
OrderedDict
p0
((lp1
(lp2
S'state'
p3
aI400
aa(lp4
S'distance'
p5
aF281.69409942626953
aa(lp6
S'timestamp'
p7
aF3.579724073410034
aatp8
Rp9
.ccollections
OrderedDict
p0
((lp1
(lp2
S'state'
p3
aI400
aa(lp4
S'distance'
p5
aF281.69409942626953
aa(lp6
S'timestamp'
p7
aF3.580183982849121
aatp8
Rp9
.ccollections
OrderedDict
p0
((lp1
(lp2
S'state'
p3
aI400
aa(lp4
S'distance'
p5
aF281.69409942626953
aa(lp6
S'timestamp'
p7
aF3.62026309967041
aatp8
Rp9
.ccollections
OrderedDict
p0
((lp1
(lp2
S'state'
p3
aI400
aa(lp4
S'distance'
p5
aF281.69409942626953
aa(lp6
S'timestamp'
p7
aF3.6223599910736084
aatp8
Rp9
.ccollections
OrderedDict
p0
((lp1
(lp2
S'state'
p3
aI400
aa(lp4
S'distance'
p5
aF281.69409942626953
aa(lp6
S'timestamp'
p7
aF3.6225781440734863
aatp8
Rp9
.ccollections
OrderedDict
p0
((lp1
(lp2
S'state'
p3
aI400
aa(lp4
S'distance'
p5
aF281.69409942626953
aa(lp6
S'timestamp'
p7
aF3.625091075897217
aatp8
Rp9
.ccollections
OrderedDict
p0
((lp1
(lp2
S'state'
p3
aI400
aa(lp4
S'distance'
p5
aF281.69409942626953
aa(lp6
S'timestamp'
p7
aF3.6406710147857666
aatp8
Rp9
.ccollections
OrderedDict
p0
((lp1
(lp2
S'state'
p3
aI400
aa(lp4
S'distance'
p5
aF281.69409942626953
aa(lp6
S'timestamp'
p7
aF3.6460750102996826
aatp8
Rp9
.ccollections
OrderedDict
p0
((lp1
(lp2
S'state'
p3
aI400
aa(lp4
S'distance'
p5
aF281.69409942626953
aa(lp6
S'timestamp'
p7
aF3.6463351249694824
aatp8
Rp9
.ccollections
OrderedDict
p0
((lp1
(lp2
S'state'
p3
aI400
aa(lp4
S'distance'
p5
aF281.69409942626953
aa(lp6
S'timestamp'
p7
aF3.6474790573120117
aatp8
Rp9
.ccollections
OrderedDict
p0
((lp1
(lp2
S'state'
p3
aI400
aa(lp4
S'distance'
p5
aF281.69409942626953
aa(lp6
S'timestamp'
p7
aF3.6479151248931885
aatp8
Rp9
.ccollections
OrderedDict
p0
((lp1
(lp2
S'state'
p3
aI400
aa(lp4
S'distance'
p5
aF281.69409942626953
aa(lp6
S'timestamp'
p7
aF3.6555330753326416
aatp8
Rp9
.ccollections
OrderedDict
p0
((lp1
(lp2
S'state'
p3
aI400
aa(lp4
S'distance'
p5
aF281.69409942626953
aa(lp6
S'timestamp'
p7
aF3.6674652099609375
aatp8
Rp9
.ccollections
OrderedDict
p0
((lp1
(lp2
S'state'
p3
aI400
aa(lp4
S'distance'
p5
aF281.69409942626953
aa(lp6
S'timestamp'
p7
aF3.667656183242798
aatp8
Rp9
.ccollections
OrderedDict
p0
((lp1
(lp2
S'state'
p3
aI400
aa(lp4
S'distance'
p5
aF281.69409942626953
aa(lp6
S'timestamp'
p7
aF3.6677989959716797
aatp8
Rp9
.ccollections
OrderedDict
p0
((lp1
(lp2
S'state'
p3
aI400
aa(lp4
S'distance'
p5
aF281.69409942626953
aa(lp6
S'timestamp'
p7
aF3.667924165725708
aatp8
Rp9
.ccollections
OrderedDict
p0
((lp1
(lp2
S'state'
p3
aI400
aa(lp4
S'distance'
p5
aF281.69409942626953
aa(lp6
S'timestamp'
p7
aF3.6708362102508545
aatp8
Rp9
.ccollections
OrderedDict
p0
((lp1
(lp2
S'state'
p3
aI400
aa(lp4
S'distance'
p5
aF281.69409942626953
aa(lp6
S'timestamp'
p7
aF3.671128988265991
aatp8
Rp9
.ccollections
OrderedDict
p0
((lp1
(lp2
S'state'
p3
aI400
aa(lp4
S'distance'
p5
aF281.69409942626953
aa(lp6
S'timestamp'
p7
aF3.6728241443634033
aatp8
Rp9
.ccollections
OrderedDict
p0
((lp1
(lp2
S'state'
p3
aI400
aa(lp4
S'distance'
p5
aF281.69409942626953
aa(lp6
S'timestamp'
p7
aF3.672999143600464
aatp8
Rp9
.ccollections
OrderedDict
p0
((lp1
(lp2
S'state'
p3
aI400
aa(lp4
S'distance'
p5
aF281.69409942626953
aa(lp6
S'timestamp'
p7
aF3.6845951080322266
aatp8
Rp9
.ccollections
OrderedDict
p0
((lp1
(lp2
S'state'
p3
aI400
aa(lp4
S'distance'
p5
aF281.69409942626953
aa(lp6
S'timestamp'
p7
aF3.6915371417999268
aatp8
Rp9
.ccollections
OrderedDict
p0
((lp1
(lp2
S'state'
p3
aI400
aa(lp4
S'distance'
p5
aF281.69409942626953
aa(lp6
S'timestamp'
p7
aF3.6920809745788574
aatp8
Rp9
.ccollections
OrderedDict
p0
((lp1
(lp2
S'state'
p3
aI400
aa(lp4
S'distance'
p5
aF281.69409942626953
aa(lp6
S'timestamp'
p7
aF3.694768190383911
aatp8
Rp9
.ccollections
OrderedDict
p0
((lp1
(lp2
S'state'
p3
aI400
aa(lp4
S'distance'
p5
aF281.69409942626953
aa(lp6
S'timestamp'
p7
aF3.6998281478881836
aatp8
Rp9
.ccollections
OrderedDict
p0
((lp1
(lp2
S'state'
p3
aI400
aa(lp4
S'distance'
p5
aF281.69409942626953
aa(lp6
S'timestamp'
p7
aF3.7005531787872314
aatp8
Rp9
.ccollections
OrderedDict
p0
((lp1
(lp2
S'state'
p3
aI400
aa(lp4
S'distance'
p5
aF281.69409942626953
aa(lp6
S'timestamp'
p7
aF3.7103731632232666
aatp8
Rp9
.ccollections
OrderedDict
p0
((lp1
(lp2
S'state'
p3
aI400
aa(lp4
S'distance'
p5
aF281.69409942626953
aa(lp6
S'timestamp'
p7
aF3.7114601135253906
aatp8
Rp9
.ccollections
OrderedDict
p0
((lp1
(lp2
S'state'
p3
aI400
aa(lp4
S'distance'
p5
aF281.69409942626953
aa(lp6
S'timestamp'
p7
aF3.7200841903686523
aatp8
Rp9
.ccollections
OrderedDict
p0
((lp1
(lp2
S'state'
p3
aI400
aa(lp4
S'distance'
p5
aF281.69409942626953
aa(lp6
S'timestamp'
p7
aF3.720527172088623
aatp8
Rp9
.ccollections
OrderedDict
p0
((lp1
(lp2
S'state'
p3
aI400
aa(lp4
S'distance'
p5
aF281.69409942626953
aa(lp6
S'timestamp'
p7
aF3.730525016784668
aatp8
Rp9
.ccollections
OrderedDict
p0
((lp1
(lp2
S'state'
p3
aI400
aa(lp4
S'distance'
p5
aF281.69409942626953
aa(lp6
S'timestamp'
p7
aF3.730654001235962
aatp8
Rp9
.ccollections
OrderedDict
p0
((lp1
(lp2
S'state'
p3
aI400
aa(lp4
S'distance'
p5
aF281.69409942626953
aa(lp6
S'timestamp'
p7
aF3.740689992904663
aatp8
Rp9
.ccollections
OrderedDict
p0
((lp1
(lp2
S'state'
p3
aI400
aa(lp4
S'distance'
p5
aF281.69409942626953
aa(lp6
S'timestamp'
p7
aF3.7408130168914795
aatp8
Rp9
.ccollections
OrderedDict
p0
((lp1
(lp2
S'state'
p3
aI400
aa(lp4
S'distance'
p5
aF281.69409942626953
aa(lp6
S'timestamp'
p7
aF3.750247001647949
aatp8
Rp9
.ccollections
OrderedDict
p0
((lp1
(lp2
S'state'
p3
aI400
aa(lp4
S'distance'
p5
aF281.69409942626953
aa(lp6
S'timestamp'
p7
aF3.7506561279296875
aatp8
Rp9
.ccollections
OrderedDict
p0
((lp1
(lp2
S'state'
p3
aI400
aa(lp4
S'distance'
p5
aF281.69409942626953
aa(lp6
S'timestamp'
p7
aF3.7599360942840576
aatp8
Rp9
.ccollections
OrderedDict
p0
((lp1
(lp2
S'state'
p3
aI400
aa(lp4
S'distance'
p5
aF281.69409942626953
aa(lp6
S'timestamp'
p7
aF3.7615041732788086
aatp8
Rp9
.ccollections
OrderedDict
p0
((lp1
(lp2
S'state'
p3
aI400
aa(lp4
S'distance'
p5
aF281.69409942626953
aa(lp6
S'timestamp'
p7
aF3.770447015762329
aatp8
Rp9
.ccollections
OrderedDict
p0
((lp1
(lp2
S'state'
p3
aI400
aa(lp4
S'distance'
p5
aF281.69409942626953
aa(lp6
S'timestamp'
p7
aF3.7705299854278564
aatp8
Rp9
.ccollections
OrderedDict
p0
((lp1
(lp2
S'state'
p3
aI400
aa(lp4
S'distance'
p5
aF281.69409942626953
aa(lp6
S'timestamp'
p7
aF3.780841112136841
aatp8
Rp9
.ccollections
OrderedDict
p0
((lp1
(lp2
S'state'
p3
aI400
aa(lp4
S'distance'
p5
aF281.69409942626953
aa(lp6
S'timestamp'
p7
aF3.78096604347229
aatp8
Rp9
.ccollections
OrderedDict
p0
((lp1
(lp2
S'state'
p3
aI400
aa(lp4
S'distance'
p5
aF281.69409942626953
aa(lp6
S'timestamp'
p7
aF3.7910289764404297
aatp8
Rp9
.ccollections
OrderedDict
p0
((lp1
(lp2
S'state'
p3
aI400
aa(lp4
S'distance'
p5
aF281.69409942626953
aa(lp6
S'timestamp'
p7
aF3.7911410331726074
aatp8
Rp9
.ccollections
OrderedDict
p0
((lp1
(lp2
S'state'
p3
aI400
aa(lp4
S'distance'
p5
aF281.69409942626953
aa(lp6
S'timestamp'
p7
aF3.8005290031433105
aatp8
Rp9
.ccollections
OrderedDict
p0
((lp1
(lp2
S'state'
p3
aI400
aa(lp4
S'distance'
p5
aF281.69409942626953
aa(lp6
S'timestamp'
p7
aF3.800701141357422
aatp8
Rp9
.ccollections
OrderedDict
p0
((lp1
(lp2
S'state'
p3
aI400
aa(lp4
S'distance'
p5
aF281.69409942626953
aa(lp6
S'timestamp'
p7
aF3.810070037841797
aatp8
Rp9
.ccollections
OrderedDict
p0
((lp1
(lp2
S'state'
p3
aI400
aa(lp4
S'distance'
p5
aF281.69409942626953
aa(lp6
S'timestamp'
p7
aF3.8115601539611816
aatp8
Rp9
.ccollections
OrderedDict
p0
((lp1
(lp2
S'state'
p3
aI400
aa(lp4
S'distance'
p5
aF281.69409942626953
aa(lp6
S'timestamp'
p7
aF3.8204400539398193
aatp8
Rp9
.ccollections
OrderedDict
p0
((lp1
(lp2
S'state'
p3
aI400
aa(lp4
S'distance'
p5
aF281.69409942626953
aa(lp6
S'timestamp'
p7
aF3.820629119873047
aatp8
Rp9
.ccollections
OrderedDict
p0
((lp1
(lp2
S'state'
p3
aI400
aa(lp4
S'distance'
p5
aF281.69409942626953
aa(lp6
S'timestamp'
p7
aF3.8306360244750977
aatp8
Rp9
.ccollections
OrderedDict
p0
((lp1
(lp2
S'state'
p3
aI400
aa(lp4
S'distance'
p5
aF281.69409942626953
aa(lp6
S'timestamp'
p7
aF3.8308331966400146
aatp8
Rp9
.ccollections
OrderedDict
p0
((lp1
(lp2
S'state'
p3
aI400
aa(lp4
S'distance'
p5
aF281.69409942626953
aa(lp6
S'timestamp'
p7
aF3.839815139770508
aatp8
Rp9
.ccollections
OrderedDict
p0
((lp1
(lp2
S'state'
p3
aI400
aa(lp4
S'distance'
p5
aF281.69409942626953
aa(lp6
S'timestamp'
p7
aF3.840658187866211
aatp8
Rp9
.ccollections
OrderedDict
p0
((lp1
(lp2
S'state'
p3
aI400
aa(lp4
S'distance'
p5
aF281.69409942626953
aa(lp6
S'timestamp'
p7
aF3.850404977798462
aatp8
Rp9
.ccollections
OrderedDict
p0
((lp1
(lp2
S'state'
p3
aI400
aa(lp4
S'distance'
p5
aF281.69409942626953
aa(lp6
S'timestamp'
p7
aF3.8508901596069336
aatp8
Rp9
.ccollections
OrderedDict
p0
((lp1
(lp2
S'state'
p3
aI400
aa(lp4
S'distance'
p5
aF281.69409942626953
aa(lp6
S'timestamp'
p7
aF3.8608670234680176
aatp8
Rp9
.ccollections
OrderedDict
p0
((lp1
(lp2
S'state'
p3
aI400
aa(lp4
S'distance'
p5
aF281.69409942626953
aa(lp6
S'timestamp'
p7
aF3.8611841201782227
aatp8
Rp9
.ccollections
OrderedDict
p0
((lp1
(lp2
S'state'
p3
aI400
aa(lp4
S'distance'
p5
aF281.69409942626953
aa(lp6
S'timestamp'
p7
aF3.870601177215576
aatp8
Rp9
.ccollections
OrderedDict
p0
((lp1
(lp2
S'state'
p3
aI400
aa(lp4
S'distance'
p5
aF281.69409942626953
aa(lp6
S'timestamp'
p7
aF3.8709371089935303
aatp8
Rp9
.ccollections
OrderedDict
p0
((lp1
(lp2
S'state'
p3
aI400
aa(lp4
S'distance'
p5
aF281.69409942626953
aa(lp6
S'timestamp'
p7
aF3.8804571628570557
aatp8
Rp9
.ccollections
OrderedDict
p0
((lp1
(lp2
S'state'
p3
aI400
aa(lp4
S'distance'
p5
aF281.69409942626953
aa(lp6
S'timestamp'
p7
aF3.880635976791382
aatp8
Rp9
.ccollections
OrderedDict
p0
((lp1
(lp2
S'state'
p3
aI400
aa(lp4
S'distance'
p5
aF281.69409942626953
aa(lp6
S'timestamp'
p7
aF3.891098976135254
aatp8
Rp9
.ccollections
OrderedDict
p0
((lp1
(lp2
S'state'
p3
aI400
aa(lp4
S'distance'
p5
aF281.69409942626953
aa(lp6
S'timestamp'
p7
aF3.8915791511535645
aatp8
Rp9
.ccollections
OrderedDict
p0
((lp1
(lp2
S'state'
p3
aI400
aa(lp4
S'distance'
p5
aF281.69409942626953
aa(lp6
S'timestamp'
p7
aF3.9002439975738525
aatp8
Rp9
.ccollections
OrderedDict
p0
((lp1
(lp2
S'state'
p3
aI400
aa(lp4
S'distance'
p5
aF281.69409942626953
aa(lp6
S'timestamp'
p7
aF3.901108980178833
aatp8
Rp9
.ccollections
OrderedDict
p0
((lp1
(lp2
S'state'
p3
aI400
aa(lp4
S'distance'
p5
aF281.69409942626953
aa(lp6
S'timestamp'
p7
aF3.9201180934906006
aatp8
Rp9
.ccollections
OrderedDict
p0
((lp1
(lp2
S'state'
p3
aI400
aa(lp4
S'distance'
p5
aF281.69409942626953
aa(lp6
S'timestamp'
p7
aF3.920271158218384
aatp8
Rp9
.ccollections
OrderedDict
p0
((lp1
(lp2
S'state'
p3
aI400
aa(lp4
S'distance'
p5
aF281.69409942626953
aa(lp6
S'timestamp'
p7
aF3.92191219329834
aatp8
Rp9
.ccollections
OrderedDict
p0
((lp1
(lp2
S'state'
p3
aI400
aa(lp4
S'distance'
p5
aF281.69409942626953
aa(lp6
S'timestamp'
p7
aF3.922847032546997
aatp8
Rp9
.ccollections
OrderedDict
p0
((lp1
(lp2
S'state'
p3
aI400
aa(lp4
S'distance'
p5
aF281.69409942626953
aa(lp6
S'timestamp'
p7
aF3.9310431480407715
aatp8
Rp9
.ccollections
OrderedDict
p0
((lp1
(lp2
S'state'
p3
aI400
aa(lp4
S'distance'
p5
aF281.69409942626953
aa(lp6
S'timestamp'
p7
aF3.9317240715026855
aatp8
Rp9
.ccollections
OrderedDict
p0
((lp1
(lp2
S'state'
p3
aI400
aa(lp4
S'distance'
p5
aF281.69409942626953
aa(lp6
S'timestamp'
p7
aF3.940423011779785
aatp8
Rp9
.ccollections
OrderedDict
p0
((lp1
(lp2
S'state'
p3
aI400
aa(lp4
S'distance'
p5
aF281.69409942626953
aa(lp6
S'timestamp'
p7
aF3.9405910968780518
aatp8
Rp9
.ccollections
OrderedDict
p0
((lp1
(lp2
S'state'
p3
aI400
aa(lp4
S'distance'
p5
aF281.69409942626953
aa(lp6
S'timestamp'
p7
aF3.95044207572937
aatp8
Rp9
.ccollections
OrderedDict
p0
((lp1
(lp2
S'state'
p3
aI400
aa(lp4
S'distance'
p5
aF281.69409942626953
aa(lp6
S'timestamp'
p7
aF3.950810194015503
aatp8
Rp9
.ccollections
OrderedDict
p0
((lp1
(lp2
S'state'
p3
aI400
aa(lp4
S'distance'
p5
aF281.69409942626953
aa(lp6
S'timestamp'
p7
aF3.9597160816192627
aatp8
Rp9
.ccollections
OrderedDict
p0
((lp1
(lp2
S'state'
p3
aI400
aa(lp4
S'distance'
p5
aF281.69409942626953
aa(lp6
S'timestamp'
p7
aF3.960628032684326
aatp8
Rp9
.ccollections
OrderedDict
p0
((lp1
(lp2
S'state'
p3
aI400
aa(lp4
S'distance'
p5
aF281.69409942626953
aa(lp6
S'timestamp'
p7
aF3.9702181816101074
aatp8
Rp9
.ccollections
OrderedDict
p0
((lp1
(lp2
S'state'
p3
aI400
aa(lp4
S'distance'
p5
aF281.69409942626953
aa(lp6
S'timestamp'
p7
aF3.9712932109832764
aatp8
Rp9
.ccollections
OrderedDict
p0
((lp1
(lp2
S'state'
p3
aI400
aa(lp4
S'distance'
p5
aF281.69409942626953
aa(lp6
S'timestamp'
p7
aF3.980668067932129
aatp8
Rp9
.ccollections
OrderedDict
p0
((lp1
(lp2
S'state'
p3
aI400
aa(lp4
S'distance'
p5
aF281.69409942626953
aa(lp6
S'timestamp'
p7
aF3.9807400703430176
aatp8
Rp9
.ccollections
OrderedDict
p0
((lp1
(lp2
S'state'
p3
aI400
aa(lp4
S'distance'
p5
aF281.69409942626953
aa(lp6
S'timestamp'
p7
aF3.9906280040740967
aatp8
Rp9
.ccollections
OrderedDict
p0
((lp1
(lp2
S'state'
p3
aI400
aa(lp4
S'distance'
p5
aF281.69409942626953
aa(lp6
S'timestamp'
p7
aF3.9913830757141113
aatp8
Rp9
.ccollections
OrderedDict
p0
((lp1
(lp2
S'state'
p3
aI400
aa(lp4
S'distance'
p5
aF281.69409942626953
aa(lp6
S'timestamp'
p7
aF4.000897169113159
aatp8
Rp9
.ccollections
OrderedDict
p0
((lp1
(lp2
S'state'
p3
aI400
aa(lp4
S'distance'
p5
aF281.69409942626953
aa(lp6
S'timestamp'
p7
aF4.000972032546997
aatp8
Rp9
.ccollections
OrderedDict
p0
((lp1
(lp2
S'state'
p3
aI400
aa(lp4
S'distance'
p5
aF281.69409942626953
aa(lp6
S'timestamp'
p7
aF4.010294198989868
aatp8
Rp9
.ccollections
OrderedDict
p0
((lp1
(lp2
S'state'
p3
aI400
aa(lp4
S'distance'
p5
aF281.69409942626953
aa(lp6
S'timestamp'
p7
aF4.010378122329712
aatp8
Rp9
.ccollections
OrderedDict
p0
((lp1
(lp2
S'state'
p3
aI400
aa(lp4
S'distance'
p5
aF281.69409942626953
aa(lp6
S'timestamp'
p7
aF4.020378112792969
aatp8
Rp9
.ccollections
OrderedDict
p0
((lp1
(lp2
S'state'
p3
aI400
aa(lp4
S'distance'
p5
aF281.69409942626953
aa(lp6
S'timestamp'
p7
aF4.020795106887817
aatp8
Rp9
.ccollections
OrderedDict
p0
((lp1
(lp2
S'state'
p3
aI400
aa(lp4
S'distance'
p5
aF281.69409942626953
aa(lp6
S'timestamp'
p7
aF4.030151128768921
aatp8
Rp9
.ccollections
OrderedDict
p0
((lp1
(lp2
S'state'
p3
aI400
aa(lp4
S'distance'
p5
aF281.69409942626953
aa(lp6
S'timestamp'
p7
aF4.030246019363403
aatp8
Rp9
.ccollections
OrderedDict
p0
((lp1
(lp2
S'state'
p3
aI400
aa(lp4
S'distance'
p5
aF281.69409942626953
aa(lp6
S'timestamp'
p7
aF4.040743112564087
aatp8
Rp9
.ccollections
OrderedDict
p0
((lp1
(lp2
S'state'
p3
aI400
aa(lp4
S'distance'
p5
aF281.69409942626953
aa(lp6
S'timestamp'
p7
aF4.0411601066589355
aatp8
Rp9
.ccollections
OrderedDict
p0
((lp1
(lp2
S'state'
p3
aI400
aa(lp4
S'distance'
p5
aF281.69409942626953
aa(lp6
S'timestamp'
p7
aF4.051025152206421
aatp8
Rp9
.ccollections
OrderedDict
p0
((lp1
(lp2
S'state'
p3
aI400
aa(lp4
S'distance'
p5
aF281.69409942626953
aa(lp6
S'timestamp'
p7
aF4.060355186462402
aatp8
Rp9
.ccollections
OrderedDict
p0
((lp1
(lp2
S'state'
p3
aI400
aa(lp4
S'distance'
p5
aF281.69409942626953
aa(lp6
S'timestamp'
p7
aF4.060490131378174
aatp8
Rp9
.ccollections
OrderedDict
p0
((lp1
(lp2
S'state'
p3
aI400
aa(lp4
S'distance'
p5
aF281.69409942626953
aa(lp6
S'timestamp'
p7
aF4.061195135116577
aatp8
Rp9
.ccollections
OrderedDict
p0
((lp1
(lp2
S'state'
p3
aI400
aa(lp4
S'distance'
p5
aF281.69409942626953
aa(lp6
S'timestamp'
p7
aF4.070372104644775
aatp8
Rp9
.ccollections
OrderedDict
p0
((lp1
(lp2
S'state'
p3
aI400
aa(lp4
S'distance'
p5
aF281.69409942626953
aa(lp6
S'timestamp'
p7
aF4.07069206237793
aatp8
Rp9
.ccollections
OrderedDict
p0
((lp1
(lp2
S'state'
p3
aI400
aa(lp4
S'distance'
p5
aF281.69409942626953
aa(lp6
S'timestamp'
p7
aF4.080207109451294
aatp8
Rp9
.ccollections
OrderedDict
p0
((lp1
(lp2
S'state'
p3
aI400
aa(lp4
S'distance'
p5
aF281.69409942626953
aa(lp6
S'timestamp'
p7
aF4.081054210662842
aatp8
Rp9
.ccollections
OrderedDict
p0
((lp1
(lp2
S'state'
p3
aI400
aa(lp4
S'distance'
p5
aF281.69409942626953
aa(lp6
S'timestamp'
p7
aF4.090148210525513
aatp8
Rp9
.ccollections
OrderedDict
p0
((lp1
(lp2
S'state'
p3
aI400
aa(lp4
S'distance'
p5
aF281.69409942626953
aa(lp6
S'timestamp'
p7
aF4.091361999511719
aatp8
Rp9
.ccollections
OrderedDict
p0
((lp1
(lp2
S'state'
p3
aI400
aa(lp4
S'distance'
p5
aF281.69409942626953
aa(lp6
S'timestamp'
p7
aF4.100253105163574
aatp8
Rp9
.ccollections
OrderedDict
p0
((lp1
(lp2
S'state'
p3
aI400
aa(lp4
S'distance'
p5
aF281.69409942626953
aa(lp6
S'timestamp'
p7
aF4.100468158721924
aatp8
Rp9
.ccollections
OrderedDict
p0
((lp1
(lp2
S'state'
p3
aI400
aa(lp4
S'distance'
p5
aF281.69409942626953
aa(lp6
S'timestamp'
p7
aF4.120151996612549
aatp8
Rp9
.ccollections
OrderedDict
p0
((lp1
(lp2
S'state'
p3
aI400
aa(lp4
S'distance'
p5
aF281.69409942626953
aa(lp6
S'timestamp'
p7
aF4.120484113693237
aatp8
Rp9
.ccollections
OrderedDict
p0
((lp1
(lp2
S'state'
p3
aI400
aa(lp4
S'distance'
p5
aF281.69409942626953
aa(lp6
S'timestamp'
p7
aF4.121896982192993
aatp8
Rp9
.ccollections
OrderedDict
p0
((lp1
(lp2
S'state'
p3
aI400
aa(lp4
S'distance'
p5
aF281.69409942626953
aa(lp6
S'timestamp'
p7
aF4.122941017150879
aatp8
Rp9
.ccollections
OrderedDict
p0
((lp1
(lp2
S'state'
p3
aI400
aa(lp4
S'distance'
p5
aF281.69409942626953
aa(lp6
S'timestamp'
p7
aF4.130637168884277
aatp8
Rp9
.ccollections
OrderedDict
p0
((lp1
(lp2
S'state'
p3
aI400
aa(lp4
S'distance'
p5
aF281.69409942626953
aa(lp6
S'timestamp'
p7
aF4.131350994110107
aatp8
Rp9
.ccollections
OrderedDict
p0
((lp1
(lp2
S'state'
p3
aI400
aa(lp4
S'distance'
p5
aF281.69409942626953
aa(lp6
S'timestamp'
p7
aF4.14011812210083
aatp8
Rp9
.ccollections
OrderedDict
p0
((lp1
(lp2
S'state'
p3
aI400
aa(lp4
S'distance'
p5
aF281.69409942626953
aa(lp6
S'timestamp'
p7
aF4.14050817489624
aatp8
Rp9
.ccollections
OrderedDict
p0
((lp1
(lp2
S'state'
p3
aI400
aa(lp4
S'distance'
p5
aF281.69409942626953
aa(lp6
S'timestamp'
p7
aF4.151007175445557
aatp8
Rp9
.ccollections
OrderedDict
p0
((lp1
(lp2
S'state'
p3
aI400
aa(lp4
S'distance'
p5
aF281.69409942626953
aa(lp6
S'timestamp'
p7
aF4.1511390209198
aatp8
Rp9
.ccollections
OrderedDict
p0
((lp1
(lp2
S'state'
p3
aI400
aa(lp4
S'distance'
p5
aF281.69409942626953
aa(lp6
S'timestamp'
p7
aF4.161029100418091
aatp8
Rp9
.ccollections
OrderedDict
p0
((lp1
(lp2
S'state'
p3
aI400
aa(lp4
S'distance'
p5
aF281.69409942626953
aa(lp6
S'timestamp'
p7
aF4.161171197891235
aatp8
Rp9
.ccollections
OrderedDict
p0
((lp1
(lp2
S'state'
p3
aI400
aa(lp4
S'distance'
p5
aF281.69409942626953
aa(lp6
S'timestamp'
p7
aF4.170894145965576
aatp8
Rp9
.ccollections
OrderedDict
p0
((lp1
(lp2
S'state'
p3
aI400
aa(lp4
S'distance'
p5
aF281.69409942626953
aa(lp6
S'timestamp'
p7
aF4.171017169952393
aatp8
Rp9
.ccollections
OrderedDict
p0
((lp1
(lp2
S'state'
p3
aI400
aa(lp4
S'distance'
p5
aF281.69409942626953
aa(lp6
S'timestamp'
p7
aF4.180639028549194
aatp8
Rp9
.ccollections
OrderedDict
p0
((lp1
(lp2
S'state'
p3
aI400
aa(lp4
S'distance'
p5
aF281.69409942626953
aa(lp6
S'timestamp'
p7
aF4.181213140487671
aatp8
Rp9
.ccollections
OrderedDict
p0
((lp1
(lp2
S'state'
p3
aI400
aa(lp4
S'distance'
p5
aF281.69409942626953
aa(lp6
S'timestamp'
p7
aF4.190647125244141
aatp8
Rp9
.ccollections
OrderedDict
p0
((lp1
(lp2
S'state'
p3
aI400
aa(lp4
S'distance'
p5
aF281.69409942626953
aa(lp6
S'timestamp'
p7
aF4.191169023513794
aatp8
Rp9
.ccollections
OrderedDict
p0
((lp1
(lp2
S'state'
p3
aI400
aa(lp4
S'distance'
p5
aF281.69409942626953
aa(lp6
S'timestamp'
p7
aF4.200817108154297
aatp8
Rp9
.ccollections
OrderedDict
p0
((lp1
(lp2
S'state'
p3
aI400
aa(lp4
S'distance'
p5
aF281.69409942626953
aa(lp6
S'timestamp'
p7
aF4.201959133148193
aatp8
Rp9
.ccollections
OrderedDict
p0
((lp1
(lp2
S'state'
p3
aI400
aa(lp4
S'distance'
p5
aF281.69409942626953
aa(lp6
S'timestamp'
p7
aF4.210232973098755
aatp8
Rp9
.ccollections
OrderedDict
p0
((lp1
(lp2
S'state'
p3
aI400
aa(lp4
S'distance'
p5
aF281.69409942626953
aa(lp6
S'timestamp'
p7
aF4.211899995803833
aatp8
Rp9
.ccollections
OrderedDict
p0
((lp1
(lp2
S'state'
p3
aI400
aa(lp4
S'distance'
p5
aF281.69409942626953
aa(lp6
S'timestamp'
p7
aF4.225203037261963
aatp8
Rp9
.ccollections
OrderedDict
p0
((lp1
(lp2
S'state'
p3
aI400
aa(lp4
S'distance'
p5
aF281.69409942626953
aa(lp6
S'timestamp'
p7
aF4.226161003112793
aatp8
Rp9
.ccollections
OrderedDict
p0
((lp1
(lp2
S'state'
p3
aI400
aa(lp4
S'distance'
p5
aF281.69409942626953
aa(lp6
S'timestamp'
p7
aF4.2363080978393555
aatp8
Rp9
.ccollections
OrderedDict
p0
((lp1
(lp2
S'state'
p3
aI400
aa(lp4
S'distance'
p5
aF281.69409942626953
aa(lp6
S'timestamp'
p7
aF4.237114191055298
aatp8
Rp9
.ccollections
OrderedDict
p0
((lp1
(lp2
S'state'
p3
aI400
aa(lp4
S'distance'
p5
aF281.69409942626953
aa(lp6
S'timestamp'
p7
aF4.244075059890747
aatp8
Rp9
.ccollections
OrderedDict
p0
((lp1
(lp2
S'state'
p3
aI400
aa(lp4
S'distance'
p5
aF281.69409942626953
aa(lp6
S'timestamp'
p7
aF4.24430513381958
aatp8
Rp9
.ccollections
OrderedDict
p0
((lp1
(lp2
S'state'
p3
aI400
aa(lp4
S'distance'
p5
aF281.69409942626953
aa(lp6
S'timestamp'
p7
aF4.25048303604126
aatp8
Rp9
.ccollections
OrderedDict
p0
((lp1
(lp2
S'state'
p3
aI400
aa(lp4
S'distance'
p5
aF281.69409942626953
aa(lp6
S'timestamp'
p7
aF4.252238035202026
aatp8
Rp9
.ccollections
OrderedDict
p0
((lp1
(lp2
S'state'
p3
aI400
aa(lp4
S'distance'
p5
aF281.69409942626953
aa(lp6
S'timestamp'
p7
aF4.260519027709961
aatp8
Rp9
.ccollections
OrderedDict
p0
((lp1
(lp2
S'state'
p3
aI400
aa(lp4
S'distance'
p5
aF281.69409942626953
aa(lp6
S'timestamp'
p7
aF4.26068115234375
aatp8
Rp9
.ccollections
OrderedDict
p0
((lp1
(lp2
S'state'
p3
aI400
aa(lp4
S'distance'
p5
aF281.69409942626953
aa(lp6
S'timestamp'
p7
aF4.270437002182007
aatp8
Rp9
.ccollections
OrderedDict
p0
((lp1
(lp2
S'state'
p3
aI400
aa(lp4
S'distance'
p5
aF281.69409942626953
aa(lp6
S'timestamp'
p7
aF4.270699977874756
aatp8
Rp9
.ccollections
OrderedDict
p0
((lp1
(lp2
S'state'
p3
aI0
aa(lp4
S'distance'
p5
aF281.69409942626953
aa(lp6
S'timestamp'
p7
aF4.2812840938568115
aatp8
Rp9
.ccollections
OrderedDict
p0
((lp1
(lp2
S'state'
p3
aI0
aa(lp4
S'distance'
p5
aF180.0928077697754
aa(lp6
S'timestamp'
p7
aF4.880990028381348
aatp8
Rp9
.ccollections
OrderedDict
p0
((lp1
(lp2
S'state'
p3
aI0
aa(lp4
S'distance'
p5
aF180.0928077697754
aa(lp6
S'timestamp'
p7
aF4.892390012741089
aatp8
Rp9
.ccollections
OrderedDict
p0
((lp1
(lp2
S'state'
p3
aI0
aa(lp4
S'distance'
p5
aF180.0928077697754
aa(lp6
S'timestamp'
p7
aF4.892752170562744
aatp8
Rp9
.ccollections
OrderedDict
p0
((lp1
(lp2
S'state'
p3
aI0
aa(lp4
S'distance'
p5
aF180.0928077697754
aa(lp6
S'timestamp'
p7
aF4.922930002212524
aatp8
Rp9
.ccollections
OrderedDict
p0
((lp1
(lp2
S'state'
p3
aI0
aa(lp4
S'distance'
p5
aF180.0928077697754
aa(lp6
S'timestamp'
p7
aF4.930345058441162
aatp8
Rp9
.ccollections
OrderedDict
p0
((lp1
(lp2
S'state'
p3
aI0
aa(lp4
S'distance'
p5
aF180.0928077697754
aa(lp6
S'timestamp'
p7
aF4.930530071258545
aatp8
Rp9
.ccollections
OrderedDict
p0
((lp1
(lp2
S'state'
p3
aI0
aa(lp4
S'distance'
p5
aF180.0928077697754
aa(lp6
S'timestamp'
p7
aF4.931349039077759
aatp8
Rp9
.ccollections
OrderedDict
p0
((lp1
(lp2
S'state'
p3
aI0
aa(lp4
S'distance'
p5
aF180.0928077697754
aa(lp6
S'timestamp'
p7
aF4.939862012863159
aatp8
Rp9
.ccollections
OrderedDict
p0
((lp1
(lp2
S'state'
p3
aI0
aa(lp4
S'distance'
p5
aF180.0928077697754
aa(lp6
S'timestamp'
p7
aF4.940261125564575
aatp8
Rp9
.ccollections
OrderedDict
p0
((lp1
(lp2
S'state'
p3
aI0
aa(lp4
S'distance'
p5
aF180.0928077697754
aa(lp6
S'timestamp'
p7
aF4.949824094772339
aatp8
Rp9
.ccollections
OrderedDict
p0
((lp1
(lp2
S'state'
p3
aI0
aa(lp4
S'distance'
p5
aF180.0928077697754
aa(lp6
S'timestamp'
p7
aF4.95044207572937
aatp8
Rp9
.ccollections
OrderedDict
p0
((lp1
(lp2
S'state'
p3
aI0
aa(lp4
S'distance'
p5
aF180.0928077697754
aa(lp6
S'timestamp'
p7
aF4.950651168823242
aatp8
Rp9
.ccollections
OrderedDict
p0
((lp1
(lp2
S'state'
p3
aI0
aa(lp4
S'distance'
p5
aF180.0928077697754
aa(lp6
S'timestamp'
p7
aF4.9515061378479
aatp8
Rp9
.ccollections
OrderedDict
p0
((lp1
(lp2
S'state'
p3
aI0
aa(lp4
S'distance'
p5
aF180.0928077697754
aa(lp6
S'timestamp'
p7
aF4.95995020866394
aatp8
Rp9
.ccollections
OrderedDict
p0
((lp1
(lp2
S'state'
p3
aI0
aa(lp4
S'distance'
p5
aF180.0928077697754
aa(lp6
S'timestamp'
p7
aF4.960085153579712
aatp8
Rp9
.ccollections
OrderedDict
p0
((lp1
(lp2
S'state'
p3
aI0
aa(lp4
S'distance'
p5
aF180.0928077697754
aa(lp6
S'timestamp'
p7
aF4.960494041442871
aatp8
Rp9
.ccollections
OrderedDict
p0
((lp1
(lp2
S'state'
p3
aI0
aa(lp4
S'distance'
p5
aF180.0928077697754
aa(lp6
S'timestamp'
p7
aF4.961006164550781
aatp8
Rp9
.ccollections
OrderedDict
p0
((lp1
(lp2
S'state'
p3
aI0
aa(lp4
S'distance'
p5
aF180.0928077697754
aa(lp6
S'timestamp'
p7
aF4.96995210647583
aatp8
Rp9
.ccollections
OrderedDict
p0
((lp1
(lp2
S'state'
p3
aI0
aa(lp4
S'distance'
p5
aF180.0928077697754
aa(lp6
S'timestamp'
p7
aF4.970215082168579
aatp8
Rp9
.ccollections
OrderedDict
p0
((lp1
(lp2
S'state'
p3
aI0
aa(lp4
S'distance'
p5
aF180.0928077697754
aa(lp6
S'timestamp'
p7
aF4.97972297668457
aatp8
Rp9
.ccollections
OrderedDict
p0
((lp1
(lp2
S'state'
p3
aI0
aa(lp4
S'distance'
p5
aF180.0928077697754
aa(lp6
S'timestamp'
p7
aF4.980255126953125
aatp8
Rp9
.ccollections
OrderedDict
p0
((lp1
(lp2
S'state'
p3
aI0
aa(lp4
S'distance'
p5
aF180.0928077697754
aa(lp6
S'timestamp'
p7
aF5.009891986846924
aatp8
Rp9
.ccollections
OrderedDict
p0
((lp1
(lp2
S'state'
p3
aI0
aa(lp4
S'distance'
p5
aF180.0928077697754
aa(lp6
S'timestamp'
p7
aF5.0102009773254395
aatp8
Rp9
.ccollections
OrderedDict
p0
((lp1
(lp2
S'state'
p3
aI0
aa(lp4
S'distance'
p5
aF180.0928077697754
aa(lp6
S'timestamp'
p7
aF5.0110180377960205
aatp8
Rp9
.ccollections
OrderedDict
p0
((lp1
(lp2
S'state'
p3
aI0
aa(lp4
S'distance'
p5
aF180.0928077697754
aa(lp6
S'timestamp'
p7
aF5.012020111083984
aatp8
Rp9
.ccollections
OrderedDict
p0
((lp1
(lp2
S'state'
p3
aI0
aa(lp4
S'distance'
p5
aF180.0928077697754
aa(lp6
S'timestamp'
p7
aF5.01987099647522
aatp8
Rp9
.ccollections
OrderedDict
p0
((lp1
(lp2
S'state'
p3
aI0
aa(lp4
S'distance'
p5
aF180.0928077697754
aa(lp6
S'timestamp'
p7
aF5.020214080810547
aatp8
Rp9
.ccollections
OrderedDict
p0
((lp1
(lp2
S'state'
p3
aI0
aa(lp4
S'distance'
p5
aF180.0928077697754
aa(lp6
S'timestamp'
p7
aF5.020716190338135
aatp8
Rp9
.ccollections
OrderedDict
p0
((lp1
(lp2
S'state'
p3
aI0
aa(lp4
S'distance'
p5
aF180.0928077697754
aa(lp6
S'timestamp'
p7
aF5.020982027053833
aatp8
Rp9
.ccollections
OrderedDict
p0
((lp1
(lp2
S'state'
p3
aI0
aa(lp4
S'distance'
p5
aF180.0928077697754
aa(lp6
S'timestamp'
p7
aF5.02987003326416
aatp8
Rp9
.ccollections
OrderedDict
p0
((lp1
(lp2
S'state'
p3
aI0
aa(lp4
S'distance'
p5
aF180.0928077697754
aa(lp6
S'timestamp'
p7
aF5.03130316734314
aatp8
Rp9
.ccollections
OrderedDict
p0
((lp1
(lp2
S'state'
p3
aI0
aa(lp4
S'distance'
p5
aF180.0928077697754
aa(lp6
S'timestamp'
p7
aF5.039690017700195
aatp8
Rp9
.ccollections
OrderedDict
p0
((lp1
(lp2
S'state'
p3
aI0
aa(lp4
S'distance'
p5
aF180.0928077697754
aa(lp6
S'timestamp'
p7
aF5.049921035766602
aatp8
Rp9
.ccollections
OrderedDict
p0
((lp1
(lp2
S'state'
p3
aI0
aa(lp4
S'distance'
p5
aF180.0928077697754
aa(lp6
S'timestamp'
p7
aF5.050243139266968
aatp8
Rp9
.ccollections
OrderedDict
p0
((lp1
(lp2
S'state'
p3
aI0
aa(lp4
S'distance'
p5
aF180.0928077697754
aa(lp6
S'timestamp'
p7
aF5.06008505821228
aatp8
Rp9
.ccollections
OrderedDict
p0
((lp1
(lp2
S'state'
p3
aI0
aa(lp4
S'distance'
p5
aF180.0928077697754
aa(lp6
S'timestamp'
p7
aF5.060619115829468
aatp8
Rp9
.ccollections
OrderedDict
p0
((lp1
(lp2
S'state'
p3
aI0
aa(lp4
S'distance'
p5
aF180.0928077697754
aa(lp6
S'timestamp'
p7
aF5.060702085494995
aatp8
Rp9
.ccollections
OrderedDict
p0
((lp1
(lp2
S'state'
p3
aI0
aa(lp4
S'distance'
p5
aF180.0928077697754
aa(lp6
S'timestamp'
p7
aF5.079894065856934
aatp8
Rp9
.ccollections
OrderedDict
p0
((lp1
(lp2
S'state'
p3
aI0
aa(lp4
S'distance'
p5
aF180.0928077697754
aa(lp6
S'timestamp'
p7
aF5.08056116104126
aatp8
Rp9
.ccollections
OrderedDict
p0
((lp1
(lp2
S'state'
p3
aI0
aa(lp4
S'distance'
p5
aF180.0928077697754
aa(lp6
S'timestamp'
p7
aF5.080893039703369
aatp8
Rp9
.ccollections
OrderedDict
p0
((lp1
(lp2
S'state'
p3
aI0
aa(lp4
S'distance'
p5
aF180.0928077697754
aa(lp6
S'timestamp'
p7
aF5.08108115196228
aatp8
Rp9
.ccollections
OrderedDict
p0
((lp1
(lp2
S'state'
p3
aI0
aa(lp4
S'distance'
p5
aF180.0928077697754
aa(lp6
S'timestamp'
p7
aF5.0899059772491455
aatp8
Rp9
.ccollections
OrderedDict
p0
((lp1
(lp2
S'state'
p3
aI0
aa(lp4
S'distance'
p5
aF180.0928077697754
aa(lp6
S'timestamp'
p7
aF5.090456008911133
aatp8
Rp9
.ccollections
OrderedDict
p0
((lp1
(lp2
S'state'
p3
aI0
aa(lp4
S'distance'
p5
aF180.0928077697754
aa(lp6
S'timestamp'
p7
aF5.099799156188965
aatp8
Rp9
.ccollections
OrderedDict
p0
((lp1
(lp2
S'state'
p3
aI0
aa(lp4
S'distance'
p5
aF180.0928077697754
aa(lp6
S'timestamp'
p7
aF5.100084066390991
aatp8
Rp9
.ccollections
OrderedDict
p0
((lp1
(lp2
S'state'
p3
aI0
aa(lp4
S'distance'
p5
aF180.0928077697754
aa(lp6
S'timestamp'
p7
aF5.1099090576171875
aatp8
Rp9
.ccollections
OrderedDict
p0
((lp1
(lp2
S'state'
p3
aI0
aa(lp4
S'distance'
p5
aF180.0928077697754
aa(lp6
S'timestamp'
p7
aF5.110061168670654
aatp8
Rp9
.ccollections
OrderedDict
p0
((lp1
(lp2
S'state'
p3
aI0
aa(lp4
S'distance'
p5
aF180.0928077697754
aa(lp6
S'timestamp'
p7
aF5.119920015335083
aatp8
Rp9
.ccollections
OrderedDict
p0
((lp1
(lp2
S'state'
p3
aI0
aa(lp4
S'distance'
p5
aF180.0928077697754
aa(lp6
S'timestamp'
p7
aF5.120391130447388
aatp8
Rp9
.ccollections
OrderedDict
p0
((lp1
(lp2
S'state'
p3
aI0
aa(lp4
S'distance'
p5
aF180.0928077697754
aa(lp6
S'timestamp'
p7
aF5.129848003387451
aatp8
Rp9
.ccollections
OrderedDict
p0
((lp1
(lp2
S'state'
p3
aI0
aa(lp4
S'distance'
p5
aF180.0928077697754
aa(lp6
S'timestamp'
p7
aF5.1302490234375
aatp8
Rp9
.ccollections
OrderedDict
p0
((lp1
(lp2
S'state'
p3
aI0
aa(lp4
S'distance'
p5
aF180.0928077697754
aa(lp6
S'timestamp'
p7
aF5.1399900913238525
aatp8
Rp9
.ccollections
OrderedDict
p0
((lp1
(lp2
S'state'
p3
aI0
aa(lp4
S'distance'
p5
aF180.0928077697754
aa(lp6
S'timestamp'
p7
aF5.140232086181641
aatp8
Rp9
.ccollections
OrderedDict
p0
((lp1
(lp2
S'state'
p3
aI0
aa(lp4
S'distance'
p5
aF180.0928077697754
aa(lp6
S'timestamp'
p7
aF5.159937143325806
aatp8
Rp9
.ccollections
OrderedDict
p0
((lp1
(lp2
S'state'
p3
aI0
aa(lp4
S'distance'
p5
aF180.0928077697754
aa(lp6
S'timestamp'
p7
aF5.169723987579346
aatp8
Rp9
.ccollections
OrderedDict
p0
((lp1
(lp2
S'state'
p3
aI0
aa(lp4
S'distance'
p5
aF180.0928077697754
aa(lp6
S'timestamp'
p7
aF5.170293092727661
aatp8
Rp9
.ccollections
OrderedDict
p0
((lp1
(lp2
S'state'
p3
aI0
aa(lp4
S'distance'
p5
aF180.0928077697754
aa(lp6
S'timestamp'
p7
aF5.171917200088501
aatp8
Rp9
.ccollections
OrderedDict
p0
((lp1
(lp2
S'state'
p3
aI0
aa(lp4
S'distance'
p5
aF180.0928077697754
aa(lp6
S'timestamp'
p7
aF5.172953128814697
aatp8
Rp9
.ccollections
OrderedDict
p0
((lp1
(lp2
S'state'
p3
aI0
aa(lp4
S'distance'
p5
aF180.0928077697754
aa(lp6
S'timestamp'
p7
aF5.1898109912872314
aatp8
Rp9
.ccollections
OrderedDict
p0
((lp1
(lp2
S'state'
p3
aI0
aa(lp4
S'distance'
p5
aF180.0928077697754
aa(lp6
S'timestamp'
p7
aF5.190176010131836
aatp8
Rp9
.ccollections
OrderedDict
p0
((lp1
(lp2
S'state'
p3
aI0
aa(lp4
S'distance'
p5
aF180.0928077697754
aa(lp6
S'timestamp'
p7
aF5.1903791427612305
aatp8
Rp9
.ccollections
OrderedDict
p0
((lp1
(lp2
S'state'
p3
aI0
aa(lp4
S'distance'
p5
aF180.0928077697754
aa(lp6
S'timestamp'
p7
aF5.191214084625244
aatp8
Rp9
.ccollections
OrderedDict
p0
((lp1
(lp2
S'state'
p3
aI0
aa(lp4
S'distance'
p5
aF180.0928077697754
aa(lp6
S'timestamp'
p7
aF5.199942111968994
aatp8
Rp9
.ccollections
OrderedDict
p0
((lp1
(lp2
S'state'
p3
aI0
aa(lp4
S'distance'
p5
aF180.0928077697754
aa(lp6
S'timestamp'
p7
aF5.200298070907593
aatp8
Rp9
.ccollections
OrderedDict
p0
((lp1
(lp2
S'state'
p3
aI0
aa(lp4
S'distance'
p5
aF180.0928077697754
aa(lp6
S'timestamp'
p7
aF5.201246976852417
aatp8
Rp9
.ccollections
OrderedDict
p0
((lp1
(lp2
S'state'
p3
aI0
aa(lp4
S'distance'
p5
aF180.0928077697754
aa(lp6
S'timestamp'
p7
aF5.209808111190796
aatp8
Rp9
.ccollections
OrderedDict
p0
((lp1
(lp2
S'state'
p3
aI0
aa(lp4
S'distance'
p5
aF180.0928077697754
aa(lp6
S'timestamp'
p7
aF5.210251092910767
aatp8
Rp9
.ccollections
OrderedDict
p0
((lp1
(lp2
S'state'
p3
aI0
aa(lp4
S'distance'
p5
aF180.0928077697754
aa(lp6
S'timestamp'
p7
aF5.229865074157715
aatp8
Rp9
.ccollections
OrderedDict
p0
((lp1
(lp2
S'state'
p3
aI0
aa(lp4
S'distance'
p5
aF180.0928077697754
aa(lp6
S'timestamp'
p7
aF5.230499029159546
aatp8
Rp9
.ccollections
OrderedDict
p0
((lp1
(lp2
S'state'
p3
aI0
aa(lp4
S'distance'
p5
aF180.0928077697754
aa(lp6
S'timestamp'
p7
aF5.230879068374634
aatp8
Rp9
.ccollections
OrderedDict
p0
((lp1
(lp2
S'state'
p3
aI0
aa(lp4
S'distance'
p5
aF180.0928077697754
aa(lp6
S'timestamp'
p7
aF5.231106996536255
aatp8
Rp9
.ccollections
OrderedDict
p0
((lp1
(lp2
S'state'
p3
aI0
aa(lp4
S'distance'
p5
aF180.0928077697754
aa(lp6
S'timestamp'
p7
aF5.239751100540161
aatp8
Rp9
.ccollections
OrderedDict
p0
((lp1
(lp2
S'state'
p3
aI0
aa(lp4
S'distance'
p5
aF180.0928077697754
aa(lp6
S'timestamp'
p7
aF5.24029803276062
aatp8
Rp9
.ccollections
OrderedDict
p0
((lp1
(lp2
S'state'
p3
aI0
aa(lp4
S'distance'
p5
aF180.0928077697754
aa(lp6
S'timestamp'
p7
aF5.259855031967163
aatp8
Rp9
.ccollections
OrderedDict
p0
((lp1
(lp2
S'state'
p3
aI0
aa(lp4
S'distance'
p5
aF180.0928077697754
aa(lp6
S'timestamp'
p7
aF5.260016202926636
aatp8
Rp9
.ccollections
OrderedDict
p0
((lp1
(lp2
S'state'
p3
aI0
aa(lp4
S'distance'
p5
aF180.0928077697754
aa(lp6
S'timestamp'
p7
aF5.260497093200684
aatp8
Rp9
.ccollections
OrderedDict
p0
((lp1
(lp2
S'state'
p3
aI0
aa(lp4
S'distance'
p5
aF180.0928077697754
aa(lp6
S'timestamp'
p7
aF5.261152029037476
aatp8
Rp9
.ccollections
OrderedDict
p0
((lp1
(lp2
S'state'
p3
aI0
aa(lp4
S'distance'
p5
aF180.0928077697754
aa(lp6
S'timestamp'
p7
aF5.269761085510254
aatp8
Rp9
.ccollections
OrderedDict
p0
((lp1
(lp2
S'state'
p3
aI0
aa(lp4
S'distance'
p5
aF180.0928077697754
aa(lp6
S'timestamp'
p7
aF5.270342111587524
aatp8
Rp9
.ccollections
OrderedDict
p0
((lp1
(lp2
S'state'
p3
aI0
aa(lp4
S'distance'
p5
aF180.0928077697754
aa(lp6
S'timestamp'
p7
aF5.279819011688232
aatp8
Rp9
.ccollections
OrderedDict
p0
((lp1
(lp2
S'state'
p3
aI0
aa(lp4
S'distance'
p5
aF180.0928077697754
aa(lp6
S'timestamp'
p7
aF5.2803120613098145
aatp8
Rp9
.ccollections
OrderedDict
p0
((lp1
(lp2
S'state'
p3
aI0
aa(lp4
S'distance'
p5
aF180.0928077697754
aa(lp6
S'timestamp'
p7
aF5.290074110031128
aatp8
Rp9
.ccollections
OrderedDict
p0
((lp1
(lp2
S'state'
p3
aI0
aa(lp4
S'distance'
p5
aF180.0928077697754
aa(lp6
S'timestamp'
p7
aF5.290493011474609
aatp8
Rp9
.ccollections
OrderedDict
p0
((lp1
(lp2
S'state'
p3
aI0
aa(lp4
S'distance'
p5
aF180.0928077697754
aa(lp6
S'timestamp'
p7
aF5.299998044967651
aatp8
Rp9
.ccollections
OrderedDict
p0
((lp1
(lp2
S'state'
p3
aI0
aa(lp4
S'distance'
p5
aF180.0928077697754
aa(lp6
S'timestamp'
p7
aF5.300292015075684
aatp8
Rp9
.ccollections
OrderedDict
p0
((lp1
(lp2
S'state'
p3
aI0
aa(lp4
S'distance'
p5
aF180.0928077697754
aa(lp6
S'timestamp'
p7
aF5.309821128845215
aatp8
Rp9
.ccollections
OrderedDict
p0
((lp1
(lp2
S'state'
p3
aI0
aa(lp4
S'distance'
p5
aF180.0928077697754
aa(lp6
S'timestamp'
p7
aF5.31035304069519
aatp8
Rp9
.ccollections
OrderedDict
p0
((lp1
(lp2
S'state'
p3
aI0
aa(lp4
S'distance'
p5
aF180.0928077697754
aa(lp6
S'timestamp'
p7
aF5.319920063018799
aatp8
Rp9
.ccollections
OrderedDict
p0
((lp1
(lp2
S'state'
p3
aI0
aa(lp4
S'distance'
p5
aF180.0928077697754
aa(lp6
S'timestamp'
p7
aF5.320345163345337
aatp8
Rp9
.ccollections
OrderedDict
p0
((lp1
(lp2
S'state'
p3
aI0
aa(lp4
S'distance'
p5
aF180.0928077697754
aa(lp6
S'timestamp'
p7
aF5.329920053482056
aatp8
Rp9
.ccollections
OrderedDict
p0
((lp1
(lp2
S'state'
p3
aI0
aa(lp4
S'distance'
p5
aF180.0928077697754
aa(lp6
S'timestamp'
p7
aF5.330219984054565
aatp8
Rp9
.ccollections
OrderedDict
p0
((lp1
(lp2
S'state'
p3
aI0
aa(lp4
S'distance'
p5
aF180.0928077697754
aa(lp6
S'timestamp'
p7
aF5.340464115142822
aatp8
Rp9
.ccollections
OrderedDict
p0
((lp1
(lp2
S'state'
p3
aI0
aa(lp4
S'distance'
p5
aF180.0928077697754
aa(lp6
S'timestamp'
p7
aF5.3405539989471436
aatp8
Rp9
.ccollections
OrderedDict
p0
((lp1
(lp2
S'state'
p3
aI0
aa(lp4
S'distance'
p5
aF180.0928077697754
aa(lp6
S'timestamp'
p7
aF5.349842071533203
aatp8
Rp9
.ccollections
OrderedDict
p0
((lp1
(lp2
S'state'
p3
aI0
aa(lp4
S'distance'
p5
aF180.0928077697754
aa(lp6
S'timestamp'
p7
aF5.359945058822632
aatp8
Rp9
.ccollections
OrderedDict
p0
((lp1
(lp2
S'state'
p3
aI0
aa(lp4
S'distance'
p5
aF180.0928077697754
aa(lp6
S'timestamp'
p7
aF5.360074996948242
aatp8
Rp9
.ccollections
OrderedDict
p0
((lp1
(lp2
S'state'
p3
aI400
aa(lp4
S'distance'
p5
aF180.0928077697754
aa(lp6
S'timestamp'
p7
aF5.360676050186157
aatp8
Rp9
.ccollections
OrderedDict
p0
((lp1
(lp2
S'state'
p3
aI400
aa(lp4
S'distance'
p5
aF180.0928077697754
aa(lp6
S'timestamp'
p7
aF5.369825124740601
aatp8
Rp9
.ccollections
OrderedDict
p0
((lp1
(lp2
S'state'
p3
aI400
aa(lp4
S'distance'
p5
aF180.0928077697754
aa(lp6
S'timestamp'
p7
aF5.370260000228882
aatp8
Rp9
.ccollections
OrderedDict
p0
((lp1
(lp2
S'state'
p3
aI400
aa(lp4
S'distance'
p5
aF180.0928077697754
aa(lp6
S'timestamp'
p7
aF5.380284070968628
aatp8
Rp9
.ccollections
OrderedDict
p0
((lp1
(lp2
S'state'
p3
aI400
aa(lp4
S'distance'
p5
aF180.0928077697754
aa(lp6
S'timestamp'
p7
aF5.380460977554321
aatp8
Rp9
.ccollections
OrderedDict
p0
((lp1
(lp2
S'state'
p3
aI400
aa(lp4
S'distance'
p5
aF180.0928077697754
aa(lp6
S'timestamp'
p7
aF5.390091180801392
aatp8
Rp9
.ccollections
OrderedDict
p0
((lp1
(lp2
S'state'
p3
aI400
aa(lp4
S'distance'
p5
aF180.0928077697754
aa(lp6
S'timestamp'
p7
aF5.3906660079956055
aatp8
Rp9
.ccollections
OrderedDict
p0
((lp1
(lp2
S'state'
p3
aI400
aa(lp4
S'distance'
p5
aF180.0928077697754
aa(lp6
S'timestamp'
p7
aF5.4012110233306885
aatp8
Rp9
.ccollections
OrderedDict
p0
((lp1
(lp2
S'state'
p3
aI400
aa(lp4
S'distance'
p5
aF180.0928077697754
aa(lp6
S'timestamp'
p7
aF5.401334047317505
aatp8
Rp9
.ccollections
OrderedDict
p0
((lp1
(lp2
S'state'
p3
aI400
aa(lp4
S'distance'
p5
aF180.0928077697754
aa(lp6
S'timestamp'
p7
aF5.415024995803833
aatp8
Rp9
.ccollections
OrderedDict
p0
((lp1
(lp2
S'state'
p3
aI400
aa(lp4
S'distance'
p5
aF180.0928077697754
aa(lp6
S'timestamp'
p7
aF5.415839195251465
aatp8
Rp9
.ccollections
OrderedDict
p0
((lp1
(lp2
S'state'
p3
aI400
aa(lp4
S'distance'
p5
aF180.0928077697754
aa(lp6
S'timestamp'
p7
aF5.421485185623169
aatp8
Rp9
.ccollections
OrderedDict
p0
((lp1
(lp2
S'state'
p3
aI400
aa(lp4
S'distance'
p5
aF180.0928077697754
aa(lp6
S'timestamp'
p7
aF5.421816110610962
aatp8
Rp9
.ccollections
OrderedDict
p0
((lp1
(lp2
S'state'
p3
aI400
aa(lp4
S'distance'
p5
aF180.0928077697754
aa(lp6
S'timestamp'
p7
aF5.430843114852905
aatp8
Rp9
.ccollections
OrderedDict
p0
((lp1
(lp2
S'state'
p3
aI400
aa(lp4
S'distance'
p5
aF180.0928077697754
aa(lp6
S'timestamp'
p7
aF5.432062149047852
aatp8
Rp9
.ccollections
OrderedDict
p0
((lp1
(lp2
S'state'
p3
aI400
aa(lp4
S'distance'
p5
aF180.0928077697754
aa(lp6
S'timestamp'
p7
aF5.457754135131836
aatp8
Rp9
.ccollections
OrderedDict
p0
((lp1
(lp2
S'state'
p3
aI400
aa(lp4
S'distance'
p5
aF180.0928077697754
aa(lp6
S'timestamp'
p7
aF5.457981109619141
aatp8
Rp9
.ccollections
OrderedDict
p0
((lp1
(lp2
S'state'
p3
aI400
aa(lp4
S'distance'
p5
aF180.0928077697754
aa(lp6
S'timestamp'
p7
aF5.460021018981934
aatp8
Rp9
.ccollections
OrderedDict
p0
((lp1
(lp2
S'state'
p3
aI400
aa(lp4
S'distance'
p5
aF180.0928077697754
aa(lp6
S'timestamp'
p7
aF5.460486173629761
aatp8
Rp9
.ccollections
OrderedDict
p0
((lp1
(lp2
S'state'
p3
aI400
aa(lp4
S'distance'
p5
aF180.0928077697754
aa(lp6
S'timestamp'
p7
aF5.470017194747925
aatp8
Rp9
.ccollections
OrderedDict
p0
((lp1
(lp2
S'state'
p3
aI400
aa(lp4
S'distance'
p5
aF180.0928077697754
aa(lp6
S'timestamp'
p7
aF5.4705541133880615
aatp8
Rp9
.ccollections
OrderedDict
p0
((lp1
(lp2
S'state'
p3
aI400
aa(lp4
S'distance'
p5
aF180.0928077697754
aa(lp6
S'timestamp'
p7
aF5.471758127212524
aatp8
Rp9
.ccollections
OrderedDict
p0
((lp1
(lp2
S'state'
p3
aI400
aa(lp4
S'distance'
p5
aF180.0928077697754
aa(lp6
S'timestamp'
p7
aF5.472290992736816
aatp8
Rp9
.ccollections
OrderedDict
p0
((lp1
(lp2
S'state'
p3
aI400
aa(lp4
S'distance'
p5
aF180.0928077697754
aa(lp6
S'timestamp'
p7
aF5.479703187942505
aatp8
Rp9
.ccollections
OrderedDict
p0
((lp1
(lp2
S'state'
p3
aI400
aa(lp4
S'distance'
p5
aF180.0928077697754
aa(lp6
S'timestamp'
p7
aF5.480426073074341
aatp8
Rp9
.ccollections
OrderedDict
p0
((lp1
(lp2
S'state'
p3
aI400
aa(lp4
S'distance'
p5
aF180.0928077697754
aa(lp6
S'timestamp'
p7
aF5.489783048629761
aatp8
Rp9
.ccollections
OrderedDict
p0
((lp1
(lp2
S'state'
p3
aI400
aa(lp4
S'distance'
p5
aF180.0928077697754
aa(lp6
S'timestamp'
p7
aF5.490276098251343
aatp8
Rp9
.ccollections
OrderedDict
p0
((lp1
(lp2
S'state'
p3
aI400
aa(lp4
S'distance'
p5
aF180.0928077697754
aa(lp6
S'timestamp'
p7
aF5.499828100204468
aatp8
Rp9
.ccollections
OrderedDict
p0
((lp1
(lp2
S'state'
p3
aI400
aa(lp4
S'distance'
p5
aF180.0928077697754
aa(lp6
S'timestamp'
p7
aF5.5003461837768555
aatp8
Rp9
.ccollections
OrderedDict
p0
((lp1
(lp2
S'state'
p3
aI400
aa(lp4
S'distance'
p5
aF180.0928077697754
aa(lp6
S'timestamp'
p7
aF5.571091175079346
aatp8
Rp9
.ccollections
OrderedDict
p0
((lp1
(lp2
S'state'
p3
aI400
aa(lp4
S'distance'
p5
aF180.0928077697754
aa(lp6
S'timestamp'
p7
aF5.572935104370117
aatp8
Rp9
.ccollections
OrderedDict
p0
((lp1
(lp2
S'state'
p3
aI400
aa(lp4
S'distance'
p5
aF180.0928077697754
aa(lp6
S'timestamp'
p7
aF5.573728084564209
aatp8
Rp9
.ccollections
OrderedDict
p0
((lp1
(lp2
S'state'
p3
aI400
aa(lp4
S'distance'
p5
aF180.0928077697754
aa(lp6
S'timestamp'
p7
aF5.573949098587036
aatp8
Rp9
.ccollections
OrderedDict
p0
((lp1
(lp2
S'state'
p3
aI400
aa(lp4
S'distance'
p5
aF180.0928077697754
aa(lp6
S'timestamp'
p7
aF5.574748992919922
aatp8
Rp9
.ccollections
OrderedDict
p0
((lp1
(lp2
S'state'
p3
aI400
aa(lp4
S'distance'
p5
aF180.0928077697754
aa(lp6
S'timestamp'
p7
aF5.57632303237915
aatp8
Rp9
.ccollections
OrderedDict
p0
((lp1
(lp2
S'state'
p3
aI400
aa(lp4
S'distance'
p5
aF180.0928077697754
aa(lp6
S'timestamp'
p7
aF5.578330039978027
aatp8
Rp9
.ccollections
OrderedDict
p0
((lp1
(lp2
S'state'
p3
aI400
aa(lp4
S'distance'
p5
aF180.0928077697754
aa(lp6
S'timestamp'
p7
aF5.578548192977905
aatp8
Rp9
.ccollections
OrderedDict
p0
((lp1
(lp2
S'state'
p3
aI400
aa(lp4
S'distance'
p5
aF180.0928077697754
aa(lp6
S'timestamp'
p7
aF5.578620195388794
aatp8
Rp9
.ccollections
OrderedDict
p0
((lp1
(lp2
S'state'
p3
aI400
aa(lp4
S'distance'
p5
aF180.0928077697754
aa(lp6
S'timestamp'
p7
aF5.578749179840088
aatp8
Rp9
.ccollections
OrderedDict
p0
((lp1
(lp2
S'state'
p3
aI400
aa(lp4
S'distance'
p5
aF180.0928077697754
aa(lp6
S'timestamp'
p7
aF5.579630136489868
aatp8
Rp9
.ccollections
OrderedDict
p0
((lp1
(lp2
S'state'
p3
aI400
aa(lp4
S'distance'
p5
aF180.0928077697754
aa(lp6
S'timestamp'
p7
aF5.579729080200195
aatp8
Rp9
.ccollections
OrderedDict
p0
((lp1
(lp2
S'state'
p3
aI400
aa(lp4
S'distance'
p5
aF180.0928077697754
aa(lp6
S'timestamp'
p7
aF5.579852104187012
aatp8
Rp9
.ccollections
OrderedDict
p0
((lp1
(lp2
S'state'
p3
aI400
aa(lp4
S'distance'
p5
aF180.0928077697754
aa(lp6
S'timestamp'
p7
aF5.5799241065979
aatp8
Rp9
.ccollections
OrderedDict
p0
((lp1
(lp2
S'state'
p3
aI400
aa(lp4
S'distance'
p5
aF180.0928077697754
aa(lp6
S'timestamp'
p7
aF5.5800089836120605
aatp8
Rp9
.ccollections
OrderedDict
p0
((lp1
(lp2
S'state'
p3
aI400
aa(lp4
S'distance'
p5
aF180.0928077697754
aa(lp6
S'timestamp'
p7
aF5.581140041351318
aatp8
Rp9
.ccollections
OrderedDict
p0
((lp1
(lp2
S'state'
p3
aI400
aa(lp4
S'distance'
p5
aF180.0928077697754
aa(lp6
S'timestamp'
p7
aF5.610788106918335
aatp8
Rp9
.ccollections
OrderedDict
p0
((lp1
(lp2
S'state'
p3
aI400
aa(lp4
S'distance'
p5
aF180.0928077697754
aa(lp6
S'timestamp'
p7
aF5.611380100250244
aatp8
Rp9
.ccollections
OrderedDict
p0
((lp1
(lp2
S'state'
p3
aI400
aa(lp4
S'distance'
p5
aF180.0928077697754
aa(lp6
S'timestamp'
p7
aF5.611863136291504
aatp8
Rp9
.ccollections
OrderedDict
p0
((lp1
(lp2
S'state'
p3
aI400
aa(lp4
S'distance'
p5
aF180.0928077697754
aa(lp6
S'timestamp'
p7
aF5.6126930713653564
aatp8
Rp9
.ccollections
OrderedDict
p0
((lp1
(lp2
S'state'
p3
aI400
aa(lp4
S'distance'
p5
aF180.0928077697754
aa(lp6
S'timestamp'
p7
aF5.620244026184082
aatp8
Rp9
.ccollections
OrderedDict
p0
((lp1
(lp2
S'state'
p3
aI400
aa(lp4
S'distance'
p5
aF180.0928077697754
aa(lp6
S'timestamp'
p7
aF5.620983123779297
aatp8
Rp9
.ccollections
OrderedDict
p0
((lp1
(lp2
S'state'
p3
aI400
aa(lp4
S'distance'
p5
aF180.0928077697754
aa(lp6
S'timestamp'
p7
aF5.621504068374634
aatp8
Rp9
.ccollections
OrderedDict
p0
((lp1
(lp2
S'state'
p3
aI400
aa(lp4
S'distance'
p5
aF180.0928077697754
aa(lp6
S'timestamp'
p7
aF5.622327089309692
aatp8
Rp9
.ccollections
OrderedDict
p0
((lp1
(lp2
S'state'
p3
aI400
aa(lp4
S'distance'
p5
aF180.0928077697754
aa(lp6
S'timestamp'
p7
aF5.630444049835205
aatp8
Rp9
.ccollections
OrderedDict
p0
((lp1
(lp2
S'state'
p3
aI400
aa(lp4
S'distance'
p5
aF180.0928077697754
aa(lp6
S'timestamp'
p7
aF5.630552053451538
aatp8
Rp9
.ccollections
OrderedDict
p0
((lp1
(lp2
S'state'
p3
aI400
aa(lp4
S'distance'
p5
aF180.0928077697754
aa(lp6
S'timestamp'
p7
aF5.6401331424713135
aatp8
Rp9
.ccollections
OrderedDict
p0
((lp1
(lp2
S'state'
p3
aI400
aa(lp4
S'distance'
p5
aF180.0928077697754
aa(lp6
S'timestamp'
p7
aF5.642395973205566
aatp8
Rp9
.ccollections
OrderedDict
p0
((lp1
(lp2
S'state'
p3
aI400
aa(lp4
S'distance'
p5
aF180.0928077697754
aa(lp6
S'timestamp'
p7
aF5.650443077087402
aatp8
Rp9
.ccollections
OrderedDict
p0
((lp1
(lp2
S'state'
p3
aI400
aa(lp4
S'distance'
p5
aF180.0928077697754
aa(lp6
S'timestamp'
p7
aF5.650519132614136
aatp8
Rp9
.ccollections
OrderedDict
p0
((lp1
(lp2
S'state'
p3
aI400
aa(lp4
S'distance'
p5
aF180.0928077697754
aa(lp6
S'timestamp'
p7
aF5.659927129745483
aatp8
Rp9
.ccollections
OrderedDict
p0
((lp1
(lp2
S'state'
p3
aI400
aa(lp4
S'distance'
p5
aF180.0928077697754
aa(lp6
S'timestamp'
p7
aF5.67038106918335
aatp8
Rp9
.ccollections
OrderedDict
p0
((lp1
(lp2
S'state'
p3
aI400
aa(lp4
S'distance'
p5
aF180.0928077697754
aa(lp6
S'timestamp'
p7
aF5.6707141399383545
aatp8
Rp9
.ccollections
OrderedDict
p0
((lp1
(lp2
S'state'
p3
aI400
aa(lp4
S'distance'
p5
aF180.0928077697754
aa(lp6
S'timestamp'
p7
aF5.671657085418701
aatp8
Rp9
.ccollections
OrderedDict
p0
((lp1
(lp2
S'state'
p3
aI400
aa(lp4
S'distance'
p5
aF180.0928077697754
aa(lp6
S'timestamp'
p7
aF5.680154085159302
aatp8
Rp9
.ccollections
OrderedDict
p0
((lp1
(lp2
S'state'
p3
aI400
aa(lp4
S'distance'
p5
aF180.0928077697754
aa(lp6
S'timestamp'
p7
aF5.680756092071533
aatp8
Rp9
.ccollections
OrderedDict
p0
((lp1
(lp2
S'state'
p3
aI400
aa(lp4
S'distance'
p5
aF180.0928077697754
aa(lp6
S'timestamp'
p7
aF5.68999719619751
aatp8
Rp9
.ccollections
OrderedDict
p0
((lp1
(lp2
S'state'
p3
aI400
aa(lp4
S'distance'
p5
aF180.0928077697754
aa(lp6
S'timestamp'
p7
aF5.690536975860596
aatp8
Rp9
.ccollections
OrderedDict
p0
((lp1
(lp2
S'state'
p3
aI400
aa(lp4
S'distance'
p5
aF180.0928077697754
aa(lp6
S'timestamp'
p7
aF5.699895143508911
aatp8
Rp9
.ccollections
OrderedDict
p0
((lp1
(lp2
S'state'
p3
aI400
aa(lp4
S'distance'
p5
aF180.0928077697754
aa(lp6
S'timestamp'
p7
aF5.700685024261475
aatp8
Rp9
.ccollections
OrderedDict
p0
((lp1
(lp2
S'state'
p3
aI400
aa(lp4
S'distance'
p5
aF180.0928077697754
aa(lp6
S'timestamp'
p7
aF5.710242033004761
aatp8
Rp9
.ccollections
OrderedDict
p0
((lp1
(lp2
S'state'
p3
aI400
aa(lp4
S'distance'
p5
aF180.0928077697754
aa(lp6
S'timestamp'
p7
aF5.710319995880127
aatp8
Rp9
.ccollections
OrderedDict
p0
((lp1
(lp2
S'state'
p3
aI400
aa(lp4
S'distance'
p5
aF180.0928077697754
aa(lp6
S'timestamp'
p7
aF5.729940176010132
aatp8
Rp9
.ccollections
OrderedDict
p0
((lp1
(lp2
S'state'
p3
aI400
aa(lp4
S'distance'
p5
aF180.0928077697754
aa(lp6
S'timestamp'
p7
aF5.730722188949585
aatp8
Rp9
.ccollections
OrderedDict
p0
((lp1
(lp2
S'state'
p3
aI400
aa(lp4
S'distance'
p5
aF180.0928077697754
aa(lp6
S'timestamp'
p7
aF5.731448173522949
aatp8
Rp9
.ccollections
OrderedDict
p0
((lp1
(lp2
S'state'
p3
aI400
aa(lp4
S'distance'
p5
aF180.0928077697754
aa(lp6
S'timestamp'
p7
aF5.7315239906311035
aatp8
Rp9
.ccollections
OrderedDict
p0
((lp1
(lp2
S'state'
p3
aI400
aa(lp4
S'distance'
p5
aF180.0928077697754
aa(lp6
S'timestamp'
p7
aF5.739838123321533
aatp8
Rp9
.ccollections
OrderedDict
p0
((lp1
(lp2
S'state'
p3
aI400
aa(lp4
S'distance'
p5
aF180.0928077697754
aa(lp6
S'timestamp'
p7
aF5.740494012832642
aatp8
Rp9
.ccollections
OrderedDict
p0
((lp1
(lp2
S'state'
p3
aI400
aa(lp4
S'distance'
p5
aF180.0928077697754
aa(lp6
S'timestamp'
p7
aF5.76000714302063
aatp8
Rp9
.ccollections
OrderedDict
p0
((lp1
(lp2
S'state'
p3
aI400
aa(lp4
S'distance'
p5
aF180.0928077697754
aa(lp6
S'timestamp'
p7
aF5.76016902923584
aatp8
Rp9
.ccollections
OrderedDict
p0
((lp1
(lp2
S'state'
p3
aI400
aa(lp4
S'distance'
p5
aF180.0928077697754
aa(lp6
S'timestamp'
p7
aF5.760457992553711
aatp8
Rp9
.ccollections
OrderedDict
p0
((lp1
(lp2
S'state'
p3
aI400
aa(lp4
S'distance'
p5
aF180.0928077697754
aa(lp6
S'timestamp'
p7
aF5.761251211166382
aatp8
Rp9
.ccollections
OrderedDict
p0
((lp1
(lp2
S'state'
p3
aI400
aa(lp4
S'distance'
p5
aF180.0928077697754
aa(lp6
S'timestamp'
p7
aF5.769850015640259
aatp8
Rp9
.ccollections
OrderedDict
p0
((lp1
(lp2
S'state'
p3
aI400
aa(lp4
S'distance'
p5
aF180.0928077697754
aa(lp6
S'timestamp'
p7
aF5.771026134490967
aatp8
Rp9
.ccollections
OrderedDict
p0
((lp1
(lp2
S'state'
p3
aI400
aa(lp4
S'distance'
p5
aF180.0928077697754
aa(lp6
S'timestamp'
p7
aF5.779858112335205
aatp8
Rp9
.ccollections
OrderedDict
p0
((lp1
(lp2
S'state'
p3
aI400
aa(lp4
S'distance'
p5
aF180.0928077697754
aa(lp6
S'timestamp'
p7
aF5.780689001083374
aatp8
Rp9
.ccollections
OrderedDict
p0
((lp1
(lp2
S'state'
p3
aI400
aa(lp4
S'distance'
p5
aF180.0928077697754
aa(lp6
S'timestamp'
p7
aF5.790369033813477
aatp8
Rp9
.ccollections
OrderedDict
p0
((lp1
(lp2
S'state'
p3
aI400
aa(lp4
S'distance'
p5
aF180.0928077697754
aa(lp6
S'timestamp'
p7
aF5.790456056594849
aatp8
Rp9
.ccollections
OrderedDict
p0
((lp1
(lp2
S'state'
p3
aI400
aa(lp4
S'distance'
p5
aF180.0928077697754
aa(lp6
S'timestamp'
p7
aF5.8202900886535645
aatp8
Rp9
.ccollections
OrderedDict
p0
((lp1
(lp2
S'state'
p3
aI400
aa(lp4
S'distance'
p5
aF180.0928077697754
aa(lp6
S'timestamp'
p7
aF5.820868015289307
aatp8
Rp9
.ccollections
OrderedDict
p0
((lp1
(lp2
S'state'
p3
aI400
aa(lp4
S'distance'
p5
aF180.0928077697754
aa(lp6
S'timestamp'
p7
aF5.821503162384033
aatp8
Rp9
.ccollections
OrderedDict
p0
((lp1
(lp2
S'state'
p3
aI400
aa(lp4
S'distance'
p5
aF180.0928077697754
aa(lp6
S'timestamp'
p7
aF5.822164058685303
aatp8
Rp9
.ccollections
OrderedDict
p0
((lp1
(lp2
S'state'
p3
aI400
aa(lp4
S'distance'
p5
aF180.0928077697754
aa(lp6
S'timestamp'
p7
aF5.83014702796936
aatp8
Rp9
.ccollections
OrderedDict
p0
((lp1
(lp2
S'state'
p3
aI400
aa(lp4
S'distance'
p5
aF180.0928077697754
aa(lp6
S'timestamp'
p7
aF5.8303210735321045
aatp8
Rp9
.ccollections
OrderedDict
p0
((lp1
(lp2
S'state'
p3
aI400
aa(lp4
S'distance'
p5
aF180.0928077697754
aa(lp6
S'timestamp'
p7
aF5.831319093704224
aatp8
Rp9
.ccollections
OrderedDict
p0
((lp1
(lp2
S'state'
p3
aI400
aa(lp4
S'distance'
p5
aF180.0928077697754
aa(lp6
S'timestamp'
p7
aF5.832360029220581
aatp8
Rp9
.ccollections
OrderedDict
p0
((lp1
(lp2
S'state'
p3
aI400
aa(lp4
S'distance'
p5
aF180.0928077697754
aa(lp6
S'timestamp'
p7
aF5.840384006500244
aatp8
Rp9
.ccollections
OrderedDict
p0
((lp1
(lp2
S'state'
p3
aI400
aa(lp4
S'distance'
p5
aF180.0928077697754
aa(lp6
S'timestamp'
p7
aF5.840977191925049
aatp8
Rp9
.ccollections
OrderedDict
p0
((lp1
(lp2
S'state'
p3
aI400
aa(lp4
S'distance'
p5
aF180.0928077697754
aa(lp6
S'timestamp'
p7
aF5.850366115570068
aatp8
Rp9
.ccollections
OrderedDict
p0
((lp1
(lp2
S'state'
p3
aI400
aa(lp4
S'distance'
p5
aF180.0928077697754
aa(lp6
S'timestamp'
p7
aF5.850816011428833
aatp8
Rp9
.ccollections
OrderedDict
p0
((lp1
(lp2
S'state'
p3
aI400
aa(lp4
S'distance'
p5
aF180.0928077697754
aa(lp6
S'timestamp'
p7
aF5.8603761196136475
aatp8
Rp9
.ccollections
OrderedDict
p0
((lp1
(lp2
S'state'
p3
aI400
aa(lp4
S'distance'
p5
aF180.0928077697754
aa(lp6
S'timestamp'
p7
aF5.860702037811279
aatp8
Rp9
.ccollections
OrderedDict
p0
((lp1
(lp2
S'state'
p3
aI400
aa(lp4
S'distance'
p5
aF180.0928077697754
aa(lp6
S'timestamp'
p7
aF5.870376110076904
aatp8
Rp9
.ccollections
OrderedDict
p0
((lp1
(lp2
S'state'
p3
aI400
aa(lp4
S'distance'
p5
aF180.0928077697754
aa(lp6
S'timestamp'
p7
aF5.870506048202515
aatp8
Rp9
.ccollections
OrderedDict
p0
((lp1
(lp2
S'state'
p3
aI400
aa(lp4
S'distance'
p5
aF180.0928077697754
aa(lp6
S'timestamp'
p7
aF5.879849195480347
aatp8
Rp9
.ccollections
OrderedDict
p0
((lp1
(lp2
S'state'
p3
aI400
aa(lp4
S'distance'
p5
aF180.0928077697754
aa(lp6
S'timestamp'
p7
aF5.880284070968628
aatp8
Rp9
.ccollections
OrderedDict
p0
((lp1
(lp2
S'state'
p3
aI400
aa(lp4
S'distance'
p5
aF180.0928077697754
aa(lp6
S'timestamp'
p7
aF5.890400171279907
aatp8
Rp9
.ccollections
OrderedDict
p0
((lp1
(lp2
S'state'
p3
aI400
aa(lp4
S'distance'
p5
aF180.0928077697754
aa(lp6
S'timestamp'
p7
aF5.890738010406494
aatp8
Rp9
.ccollections
OrderedDict
p0
((lp1
(lp2
S'state'
p3
aI400
aa(lp4
S'distance'
p5
aF180.0928077697754
aa(lp6
S'timestamp'
p7
aF5.9002790451049805
aatp8
Rp9
.ccollections
OrderedDict
p0
((lp1
(lp2
S'state'
p3
aI400
aa(lp4
S'distance'
p5
aF180.0928077697754
aa(lp6
S'timestamp'
p7
aF5.910377025604248
aatp8
Rp9
.ccollections
OrderedDict
p0
((lp1
(lp2
S'state'
p3
aI400
aa(lp4
S'distance'
p5
aF180.0928077697754
aa(lp6
S'timestamp'
p7
aF5.910534143447876
aatp8
Rp9
.ccollections
OrderedDict
p0
((lp1
(lp2
S'state'
p3
aI400
aa(lp4
S'distance'
p5
aF180.0928077697754
aa(lp6
S'timestamp'
p7
aF5.9112889766693115
aatp8
Rp9
.ccollections
OrderedDict
p0
((lp1
(lp2
S'state'
p3
aI400
aa(lp4
S'distance'
p5
aF180.0928077697754
aa(lp6
S'timestamp'
p7
aF5.920766115188599
aatp8
Rp9
.ccollections
OrderedDict
p0
((lp1
(lp2
S'state'
p3
aI400
aa(lp4
S'distance'
p5
aF180.0928077697754
aa(lp6
S'timestamp'
p7
aF5.92108416557312
aatp8
Rp9
.ccollections
OrderedDict
p0
((lp1
(lp2
S'state'
p3
aI400
aa(lp4
S'distance'
p5
aF180.0928077697754
aa(lp6
S'timestamp'
p7
aF5.940535068511963
aatp8
Rp9
.ccollections
OrderedDict
p0
((lp1
(lp2
S'state'
p3
aI400
aa(lp4
S'distance'
p5
aF180.0928077697754
aa(lp6
S'timestamp'
p7
aF5.940697193145752
aatp8
Rp9
.ccollections
OrderedDict
p0
((lp1
(lp2
S'state'
p3
aI400
aa(lp4
S'distance'
p5
aF180.0928077697754
aa(lp6
S'timestamp'
p7
aF5.942115068435669
aatp8
Rp9
.ccollections
OrderedDict
p0
((lp1
(lp2
S'state'
p3
aI400
aa(lp4
S'distance'
p5
aF180.0928077697754
aa(lp6
S'timestamp'
p7
aF5.943004131317139
aatp8
Rp9
.ccollections
OrderedDict
p0
((lp1
(lp2
S'state'
p3
aI400
aa(lp4
S'distance'
p5
aF180.0928077697754
aa(lp6
S'timestamp'
p7
aF5.950035095214844
aatp8
Rp9
.ccollections
OrderedDict
p0
((lp1
(lp2
S'state'
p3
aI400
aa(lp4
S'distance'
p5
aF180.0928077697754
aa(lp6
S'timestamp'
p7
aF5.950651168823242
aatp8
Rp9
.ccollections
OrderedDict
p0
((lp1
(lp2
S'state'
p3
aI400
aa(lp4
S'distance'
p5
aF180.0928077697754
aa(lp6
S'timestamp'
p7
aF5.960337162017822
aatp8
Rp9
.ccollections
OrderedDict
p0
((lp1
(lp2
S'state'
p3
aI400
aa(lp4
S'distance'
p5
aF180.0928077697754
aa(lp6
S'timestamp'
p7
aF5.96089506149292
aatp8
Rp9
.ccollections
OrderedDict
p0
((lp1
(lp2
S'state'
p3
aI400
aa(lp4
S'distance'
p5
aF180.0928077697754
aa(lp6
S'timestamp'
p7
aF5.970982074737549
aatp8
Rp9
.ccollections
OrderedDict
p0
((lp1
(lp2
S'state'
p3
aI400
aa(lp4
S'distance'
p5
aF180.0928077697754
aa(lp6
S'timestamp'
p7
aF5.971623182296753
aatp8
Rp9
.ccollections
OrderedDict
p0
((lp1
(lp2
S'state'
p3
aI400
aa(lp4
S'distance'
p5
aF180.0928077697754
aa(lp6
S'timestamp'
p7
aF5.9804370403289795
aatp8
Rp9
.ccollections
OrderedDict
p0
((lp1
(lp2
S'state'
p3
aI400
aa(lp4
S'distance'
p5
aF180.0928077697754
aa(lp6
S'timestamp'
p7
aF5.980997085571289
aatp8
Rp9
.ccollections
OrderedDict
p0
((lp1
(lp2
S'state'
p3
aI400
aa(lp4
S'distance'
p5
aF180.0928077697754
aa(lp6
S'timestamp'
p7
aF5.990447044372559
aatp8
Rp9
.ccollections
OrderedDict
p0
((lp1
(lp2
S'state'
p3
aI400
aa(lp4
S'distance'
p5
aF180.0928077697754
aa(lp6
S'timestamp'
p7
aF5.9908530712127686
aatp8
Rp9
.ccollections
OrderedDict
p0
((lp1
(lp2
S'state'
p3
aI400
aa(lp4
S'distance'
p5
aF180.0928077697754
aa(lp6
S'timestamp'
p7
aF6.0011210441589355
aatp8
Rp9
.ccollections
OrderedDict
p0
((lp1
(lp2
S'state'
p3
aI400
aa(lp4
S'distance'
p5
aF180.0928077697754
aa(lp6
S'timestamp'
p7
aF6.001525163650513
aatp8
Rp9
.ccollections
OrderedDict
p0
((lp1
(lp2
S'state'
p3
aI0
aa(lp4
S'distance'
p5
aF180.0928077697754
aa(lp6
S'timestamp'
p7
aF6.011150121688843
aatp8
Rp9
.ccollections
OrderedDict
p0
((lp1
(lp2
S'state'
p3
aI0
aa(lp4
S'distance'
p5
aF83.33168029785156
aa(lp6
S'timestamp'
p7
aF6.577787160873413
aatp8
Rp9
.ccollections
OrderedDict
p0
((lp1
(lp2
S'state'
p3
aI0
aa(lp4
S'distance'
p5
aF83.33168029785156
aa(lp6
S'timestamp'
p7
aF6.591792106628418
aatp8
Rp9
.ccollections
OrderedDict
p0
((lp1
(lp2
S'state'
p3
aI0
aa(lp4
S'distance'
p5
aF83.33168029785156
aa(lp6
S'timestamp'
p7
aF6.592079162597656
aatp8
Rp9
.ccollections
OrderedDict
p0
((lp1
(lp2
S'state'
p3
aI0
aa(lp4
S'distance'
p5
aF83.33168029785156
aa(lp6
S'timestamp'
p7
aF6.592384099960327
aatp8
Rp9
.ccollections
OrderedDict
p0
((lp1
(lp2
S'state'
p3
aI0
aa(lp4
S'distance'
p5
aF83.33168029785156
aa(lp6
S'timestamp'
p7
aF6.592967987060547
aatp8
Rp9
.ccollections
OrderedDict
p0
((lp1
(lp2
S'state'
p3
aI0
aa(lp4
S'distance'
p5
aF83.33168029785156
aa(lp6
S'timestamp'
p7
aF6.600260972976685
aatp8
Rp9
.ccollections
OrderedDict
p0
((lp1
(lp2
S'state'
p3
aI0
aa(lp4
S'distance'
p5
aF83.33168029785156
aa(lp6
S'timestamp'
p7
aF6.602050065994263
aatp8
Rp9
.ccollections
OrderedDict
p0
((lp1
(lp2
S'state'
p3
aI0
aa(lp4
S'distance'
p5
aF83.33168029785156
aa(lp6
S'timestamp'
p7
aF6.6106061935424805
aatp8
Rp9
.ccollections
OrderedDict
p0
((lp1
(lp2
S'state'
p3
aI0
aa(lp4
S'distance'
p5
aF83.33168029785156
aa(lp6
S'timestamp'
p7
aF6.610694169998169
aatp8
Rp9
.ccollections
OrderedDict
p0
((lp1
(lp2
S'state'
p3
aI0
aa(lp4
S'distance'
p5
aF83.33168029785156
aa(lp6
S'timestamp'
p7
aF6.62023401260376
aatp8
Rp9
.ccollections
OrderedDict
p0
((lp1
(lp2
S'state'
p3
aI0
aa(lp4
S'distance'
p5
aF83.33168029785156
aa(lp6
S'timestamp'
p7
aF6.620612144470215
aatp8
Rp9
.ccollections
OrderedDict
p0
((lp1
(lp2
S'state'
p3
aI0
aa(lp4
S'distance'
p5
aF83.33168029785156
aa(lp6
S'timestamp'
p7
aF6.6348021030426025
aatp8
Rp9
.ccollections
OrderedDict
p0
((lp1
(lp2
S'state'
p3
aI0
aa(lp4
S'distance'
p5
aF83.33168029785156
aa(lp6
S'timestamp'
p7
aF6.635402202606201
aatp8
Rp9
.ccollections
OrderedDict
p0
((lp1
(lp2
S'state'
p3
aI0
aa(lp4
S'distance'
p5
aF83.33168029785156
aa(lp6
S'timestamp'
p7
aF6.641265153884888
aatp8
Rp9
.ccollections
OrderedDict
p0
((lp1
(lp2
S'state'
p3
aI0
aa(lp4
S'distance'
p5
aF83.33168029785156
aa(lp6
S'timestamp'
p7
aF6.649935007095337
aatp8
Rp9
.ccollections
OrderedDict
p0
((lp1
(lp2
S'state'
p3
aI0
aa(lp4
S'distance'
p5
aF83.33168029785156
aa(lp6
S'timestamp'
p7
aF6.65077805519104
aatp8
Rp9
.ccollections
OrderedDict
p0
((lp1
(lp2
S'state'
p3
aI0
aa(lp4
S'distance'
p5
aF83.33168029785156
aa(lp6
S'timestamp'
p7
aF6.651363134384155
aatp8
Rp9
.ccollections
OrderedDict
p0
((lp1
(lp2
S'state'
p3
aI0
aa(lp4
S'distance'
p5
aF83.33168029785156
aa(lp6
S'timestamp'
p7
aF6.6601481437683105
aatp8
Rp9
.ccollections
OrderedDict
p0
((lp1
(lp2
S'state'
p3
aI0
aa(lp4
S'distance'
p5
aF83.33168029785156
aa(lp6
S'timestamp'
p7
aF6.6604790687561035
aatp8
Rp9
.ccollections
OrderedDict
p0
((lp1
(lp2
S'state'
p3
aI0
aa(lp4
S'distance'
p5
aF83.33168029785156
aa(lp6
S'timestamp'
p7
aF6.669769048690796
aatp8
Rp9
.ccollections
OrderedDict
p0
((lp1
(lp2
S'state'
p3
aI0
aa(lp4
S'distance'
p5
aF83.33168029785156
aa(lp6
S'timestamp'
p7
aF6.670165061950684
aatp8
Rp9
.ccollections
OrderedDict
p0
((lp1
(lp2
S'state'
p3
aI0
aa(lp4
S'distance'
p5
aF83.33168029785156
aa(lp6
S'timestamp'
p7
aF6.679916143417358
aatp8
Rp9
.ccollections
OrderedDict
p0
((lp1
(lp2
S'state'
p3
aI0
aa(lp4
S'distance'
p5
aF83.33168029785156
aa(lp6
S'timestamp'
p7
aF6.680946111679077
aatp8
Rp9
.ccollections
OrderedDict
p0
((lp1
(lp2
S'state'
p3
aI0
aa(lp4
S'distance'
p5
aF83.33168029785156
aa(lp6
S'timestamp'
p7
aF6.690001010894775
aatp8
Rp9
.ccollections
OrderedDict
p0
((lp1
(lp2
S'state'
p3
aI0
aa(lp4
S'distance'
p5
aF83.33168029785156
aa(lp6
S'timestamp'
p7
aF6.69062614440918
aatp8
Rp9
.ccollections
OrderedDict
p0
((lp1
(lp2
S'state'
p3
aI0
aa(lp4
S'distance'
p5
aF83.33168029785156
aa(lp6
S'timestamp'
p7
aF6.699962139129639
aatp8
Rp9
.ccollections
OrderedDict
p0
((lp1
(lp2
S'state'
p3
aI0
aa(lp4
S'distance'
p5
aF83.33168029785156
aa(lp6
S'timestamp'
p7
aF6.700118064880371
aatp8
Rp9
.ccollections
OrderedDict
p0
((lp1
(lp2
S'state'
p3
aI0
aa(lp4
S'distance'
p5
aF83.33168029785156
aa(lp6
S'timestamp'
p7
aF6.709865093231201
aatp8
Rp9
.ccollections
OrderedDict
p0
((lp1
(lp2
S'state'
p3
aI0
aa(lp4
S'distance'
p5
aF83.33168029785156
aa(lp6
S'timestamp'
p7
aF6.710468053817749
aatp8
Rp9
.ccollections
OrderedDict
p0
((lp1
(lp2
S'state'
p3
aI0
aa(lp4
S'distance'
p5
aF83.33168029785156
aa(lp6
S'timestamp'
p7
aF6.71989107131958
aatp8
Rp9
.ccollections
OrderedDict
p0
((lp1
(lp2
S'state'
p3
aI0
aa(lp4
S'distance'
p5
aF83.33168029785156
aa(lp6
S'timestamp'
p7
aF6.720818042755127
aatp8
Rp9
.ccollections
OrderedDict
p0
((lp1
(lp2
S'state'
p3
aI0
aa(lp4
S'distance'
p5
aF83.33168029785156
aa(lp6
S'timestamp'
p7
aF6.7299840450286865
aatp8
Rp9
.ccollections
OrderedDict
p0
((lp1
(lp2
S'state'
p3
aI0
aa(lp4
S'distance'
p5
aF83.33168029785156
aa(lp6
S'timestamp'
p7
aF6.730643033981323
aatp8
Rp9
.ccollections
OrderedDict
p0
((lp1
(lp2
S'state'
p3
aI0
aa(lp4
S'distance'
p5
aF83.33168029785156
aa(lp6
S'timestamp'
p7
aF6.741304159164429
aatp8
Rp9
.ccollections
OrderedDict
p0
((lp1
(lp2
S'state'
p3
aI0
aa(lp4
S'distance'
p5
aF83.33168029785156
aa(lp6
S'timestamp'
p7
aF6.7414751052856445
aatp8
Rp9
.ccollections
OrderedDict
p0
((lp1
(lp2
S'state'
p3
aI0
aa(lp4
S'distance'
p5
aF83.33168029785156
aa(lp6
S'timestamp'
p7
aF6.758836030960083
aatp8
Rp9
.ccollections
OrderedDict
p0
((lp1
(lp2
S'state'
p3
aI0
aa(lp4
S'distance'
p5
aF83.33168029785156
aa(lp6
S'timestamp'
p7
aF6.7633750438690186
aatp8
Rp9
.ccollections
OrderedDict
p0
((lp1
(lp2
S'state'
p3
aI0
aa(lp4
S'distance'
p5
aF83.33168029785156
aa(lp6
S'timestamp'
p7
aF6.763700008392334
aatp8
Rp9
.ccollections
OrderedDict
p0
((lp1
(lp2
S'state'
p3
aI0
aa(lp4
S'distance'
p5
aF83.33168029785156
aa(lp6
S'timestamp'
p7
aF6.763982057571411
aatp8
Rp9
.ccollections
OrderedDict
p0
((lp1
(lp2
S'state'
p3
aI0
aa(lp4
S'distance'
p5
aF83.33168029785156
aa(lp6
S'timestamp'
p7
aF6.776400089263916
aatp8
Rp9
.ccollections
OrderedDict
p0
((lp1
(lp2
S'state'
p3
aI0
aa(lp4
S'distance'
p5
aF83.33168029785156
aa(lp6
S'timestamp'
p7
aF6.778081178665161
aatp8
Rp9
.ccollections
OrderedDict
p0
((lp1
(lp2
S'state'
p3
aI0
aa(lp4
S'distance'
p5
aF83.33168029785156
aa(lp6
S'timestamp'
p7
aF6.782189130783081
aatp8
Rp9
.ccollections
OrderedDict
p0
((lp1
(lp2
S'state'
p3
aI0
aa(lp4
S'distance'
p5
aF83.33168029785156
aa(lp6
S'timestamp'
p7
aF6.782679080963135
aatp8
Rp9
.ccollections
OrderedDict
p0
((lp1
(lp2
S'state'
p3
aI0
aa(lp4
S'distance'
p5
aF83.33168029785156
aa(lp6
S'timestamp'
p7
aF6.790286064147949
aatp8
Rp9
.ccollections
OrderedDict
p0
((lp1
(lp2
S'state'
p3
aI0
aa(lp4
S'distance'
p5
aF83.33168029785156
aa(lp6
S'timestamp'
p7
aF6.7904791831970215
aatp8
Rp9
.ccollections
OrderedDict
p0
((lp1
(lp2
S'state'
p3
aI0
aa(lp4
S'distance'
p5
aF83.33168029785156
aa(lp6
S'timestamp'
p7
aF6.79993200302124
aatp8
Rp9
.ccollections
OrderedDict
p0
((lp1
(lp2
S'state'
p3
aI0
aa(lp4
S'distance'
p5
aF83.33168029785156
aa(lp6
S'timestamp'
p7
aF6.800610065460205
aatp8
Rp9
.ccollections
OrderedDict
p0
((lp1
(lp2
S'state'
p3
aI0
aa(lp4
S'distance'
p5
aF83.33168029785156
aa(lp6
S'timestamp'
p7
aF6.809897184371948
aatp8
Rp9
.ccollections
OrderedDict
p0
((lp1
(lp2
S'state'
p3
aI0
aa(lp4
S'distance'
p5
aF83.33168029785156
aa(lp6
S'timestamp'
p7
aF6.810506105422974
aatp8
Rp9
.ccollections
OrderedDict
p0
((lp1
(lp2
S'state'
p3
aI0
aa(lp4
S'distance'
p5
aF83.33168029785156
aa(lp6
S'timestamp'
p7
aF6.819935083389282
aatp8
Rp9
.ccollections
OrderedDict
p0
((lp1
(lp2
S'state'
p3
aI0
aa(lp4
S'distance'
p5
aF83.33168029785156
aa(lp6
S'timestamp'
p7
aF6.820339202880859
aatp8
Rp9
.ccollections
OrderedDict
p0
((lp1
(lp2
S'state'
p3
aI0
aa(lp4
S'distance'
p5
aF83.33168029785156
aa(lp6
S'timestamp'
p7
aF6.8299901485443115
aatp8
Rp9
.ccollections
OrderedDict
p0
((lp1
(lp2
S'state'
p3
aI0
aa(lp4
S'distance'
p5
aF83.33168029785156
aa(lp6
S'timestamp'
p7
aF6.830385208129883
aatp8
Rp9
.ccollections
OrderedDict
p0
((lp1
(lp2
S'state'
p3
aI0
aa(lp4
S'distance'
p5
aF83.33168029785156
aa(lp6
S'timestamp'
p7
aF6.840143203735352
aatp8
Rp9
.ccollections
OrderedDict
p0
((lp1
(lp2
S'state'
p3
aI0
aa(lp4
S'distance'
p5
aF83.33168029785156
aa(lp6
S'timestamp'
p7
aF6.840789079666138
aatp8
Rp9
.ccollections
OrderedDict
p0
((lp1
(lp2
S'state'
p3
aI0
aa(lp4
S'distance'
p5
aF83.33168029785156
aa(lp6
S'timestamp'
p7
aF6.8499062061309814
aatp8
Rp9
.ccollections
OrderedDict
p0
((lp1
(lp2
S'state'
p3
aI0
aa(lp4
S'distance'
p5
aF83.33168029785156
aa(lp6
S'timestamp'
p7
aF6.850414037704468
aatp8
Rp9
.ccollections
OrderedDict
p0
((lp1
(lp2
S'state'
p3
aI0
aa(lp4
S'distance'
p5
aF83.33168029785156
aa(lp6
S'timestamp'
p7
aF6.859860181808472
aatp8
Rp9
.ccollections
OrderedDict
p0
((lp1
(lp2
S'state'
p3
aI0
aa(lp4
S'distance'
p5
aF83.33168029785156
aa(lp6
S'timestamp'
p7
aF6.860424995422363
aatp8
Rp9
.ccollections
OrderedDict
p0
((lp1
(lp2
S'state'
p3
aI0
aa(lp4
S'distance'
p5
aF83.33168029785156
aa(lp6
S'timestamp'
p7
aF6.869911193847656
aatp8
Rp9
.ccollections
OrderedDict
p0
((lp1
(lp2
S'state'
p3
aI0
aa(lp4
S'distance'
p5
aF83.33168029785156
aa(lp6
S'timestamp'
p7
aF6.870344161987305
aatp8
Rp9
.ccollections
OrderedDict
p0
((lp1
(lp2
S'state'
p3
aI0
aa(lp4
S'distance'
p5
aF83.33168029785156
aa(lp6
S'timestamp'
p7
aF6.879986047744751
aatp8
Rp9
.ccollections
OrderedDict
p0
((lp1
(lp2
S'state'
p3
aI0
aa(lp4
S'distance'
p5
aF83.33168029785156
aa(lp6
S'timestamp'
p7
aF6.880514144897461
aatp8
Rp9
.ccollections
OrderedDict
p0
((lp1
(lp2
S'state'
p3
aI0
aa(lp4
S'distance'
p5
aF83.33168029785156
aa(lp6
S'timestamp'
p7
aF6.8899290561676025
aatp8
Rp9
.ccollections
OrderedDict
p0
((lp1
(lp2
S'state'
p3
aI0
aa(lp4
S'distance'
p5
aF83.33168029785156
aa(lp6
S'timestamp'
p7
aF6.890392065048218
aatp8
Rp9
.ccollections
OrderedDict
p0
((lp1
(lp2
S'state'
p3
aI0
aa(lp4
S'distance'
p5
aF83.33168029785156
aa(lp6
S'timestamp'
p7
aF6.899893045425415
aatp8
Rp9
.ccollections
OrderedDict
p0
((lp1
(lp2
S'state'
p3
aI0
aa(lp4
S'distance'
p5
aF83.33168029785156
aa(lp6
S'timestamp'
p7
aF6.900551080703735
aatp8
Rp9
.ccollections
OrderedDict
p0
((lp1
(lp2
S'state'
p3
aI0
aa(lp4
S'distance'
p5
aF83.33168029785156
aa(lp6
S'timestamp'
p7
aF6.9298930168151855
aatp8
Rp9
.ccollections
OrderedDict
p0
((lp1
(lp2
S'state'
p3
aI0
aa(lp4
S'distance'
p5
aF83.33168029785156
aa(lp6
S'timestamp'
p7
aF6.939894199371338
aatp8
Rp9
.ccollections
OrderedDict
p0
((lp1
(lp2
S'state'
p3
aI0
aa(lp4
S'distance'
p5
aF83.33168029785156
aa(lp6
S'timestamp'
p7
aF6.940246105194092
aatp8
Rp9
.ccollections
OrderedDict
p0
((lp1
(lp2
S'state'
p3
aI0
aa(lp4
S'distance'
p5
aF83.33168029785156
aa(lp6
S'timestamp'
p7
aF6.940401077270508
aatp8
Rp9
.ccollections
OrderedDict
p0
((lp1
(lp2
S'state'
p3
aI0
aa(lp4
S'distance'
p5
aF83.33168029785156
aa(lp6
S'timestamp'
p7
aF6.94159197807312
aatp8
Rp9
.ccollections
OrderedDict
p0
((lp1
(lp2
S'state'
p3
aI0
aa(lp4
S'distance'
p5
aF83.33168029785156
aa(lp6
S'timestamp'
p7
aF6.950422048568726
aatp8
Rp9
.ccollections
OrderedDict
p0
((lp1
(lp2
S'state'
p3
aI0
aa(lp4
S'distance'
p5
aF83.33168029785156
aa(lp6
S'timestamp'
p7
aF6.950607061386108
aatp8
Rp9
.ccollections
OrderedDict
p0
((lp1
(lp2
S'state'
p3
aI0
aa(lp4
S'distance'
p5
aF83.33168029785156
aa(lp6
S'timestamp'
p7
aF6.951495170593262
aatp8
Rp9
.ccollections
OrderedDict
p0
((lp1
(lp2
S'state'
p3
aI0
aa(lp4
S'distance'
p5
aF83.33168029785156
aa(lp6
S'timestamp'
p7
aF6.952675104141235
aatp8
Rp9
.ccollections
OrderedDict
p0
((lp1
(lp2
S'state'
p3
aI0
aa(lp4
S'distance'
p5
aF83.33168029785156
aa(lp6
S'timestamp'
p7
aF6.9600090980529785
aatp8
Rp9
.ccollections
OrderedDict
p0
((lp1
(lp2
S'state'
p3
aI0
aa(lp4
S'distance'
p5
aF83.33168029785156
aa(lp6
S'timestamp'
p7
aF6.960623025894165
aatp8
Rp9
.ccollections
OrderedDict
p0
((lp1
(lp2
S'state'
p3
aI0
aa(lp4
S'distance'
p5
aF83.33168029785156
aa(lp6
S'timestamp'
p7
aF6.96111798286438
aatp8
Rp9
.ccollections
OrderedDict
p0
((lp1
(lp2
S'state'
p3
aI0
aa(lp4
S'distance'
p5
aF83.33168029785156
aa(lp6
S'timestamp'
p7
aF6.979918003082275
aatp8
Rp9
.ccollections
OrderedDict
p0
((lp1
(lp2
S'state'
p3
aI0
aa(lp4
S'distance'
p5
aF83.33168029785156
aa(lp6
S'timestamp'
p7
aF6.980149030685425
aatp8
Rp9
.ccollections
OrderedDict
p0
((lp1
(lp2
S'state'
p3
aI0
aa(lp4
S'distance'
p5
aF83.33168029785156
aa(lp6
S'timestamp'
p7
aF6.981805086135864
aatp8
Rp9
.ccollections
OrderedDict
p0
((lp1
(lp2
S'state'
p3
aI0
aa(lp4
S'distance'
p5
aF83.33168029785156
aa(lp6
S'timestamp'
p7
aF6.982786178588867
aatp8
Rp9
.ccollections
OrderedDict
p0
((lp1
(lp2
S'state'
p3
aI0
aa(lp4
S'distance'
p5
aF83.33168029785156
aa(lp6
S'timestamp'
p7
aF6.989864110946655
aatp8
Rp9
.ccollections
OrderedDict
p0
((lp1
(lp2
S'state'
p3
aI0
aa(lp4
S'distance'
p5
aF83.33168029785156
aa(lp6
S'timestamp'
p7
aF6.990086078643799
aatp8
Rp9
.ccollections
OrderedDict
p0
((lp1
(lp2
S'state'
p3
aI0
aa(lp4
S'distance'
p5
aF83.33168029785156
aa(lp6
S'timestamp'
p7
aF7.000023126602173
aatp8
Rp9
.ccollections
OrderedDict
p0
((lp1
(lp2
S'state'
p3
aI0
aa(lp4
S'distance'
p5
aF83.33168029785156
aa(lp6
S'timestamp'
p7
aF7.000567197799683
aatp8
Rp9
.ccollections
OrderedDict
p0
((lp1
(lp2
S'state'
p3
aI0
aa(lp4
S'distance'
p5
aF83.33168029785156
aa(lp6
S'timestamp'
p7
aF7.009864091873169
aatp8
Rp9
.ccollections
OrderedDict
p0
((lp1
(lp2
S'state'
p3
aI0
aa(lp4
S'distance'
p5
aF83.33168029785156
aa(lp6
S'timestamp'
p7
aF7.020071983337402
aatp8
Rp9
.ccollections
OrderedDict
p0
((lp1
(lp2
S'state'
p3
aI0
aa(lp4
S'distance'
p5
aF83.33168029785156
aa(lp6
S'timestamp'
p7
aF7.020518064498901
aatp8
Rp9
.ccollections
OrderedDict
p0
((lp1
(lp2
S'state'
p3
aI0
aa(lp4
S'distance'
p5
aF83.33168029785156
aa(lp6
S'timestamp'
p7
aF7.0214011669158936
aatp8
Rp9
.ccollections
OrderedDict
p0
((lp1
(lp2
S'state'
p3
aI0
aa(lp4
S'distance'
p5
aF83.33168029785156
aa(lp6
S'timestamp'
p7
aF7.029988050460815
aatp8
Rp9
.ccollections
OrderedDict
p0
((lp1
(lp2
S'state'
p3
aI0
aa(lp4
S'distance'
p5
aF83.33168029785156
aa(lp6
S'timestamp'
p7
aF7.030182123184204
aatp8
Rp9
.ccollections
OrderedDict
p0
((lp1
(lp2
S'state'
p3
aI0
aa(lp4
S'distance'
p5
aF83.33168029785156
aa(lp6
S'timestamp'
p7
aF7.040163040161133
aatp8
Rp9
.ccollections
OrderedDict
p0
((lp1
(lp2
S'state'
p3
aI0
aa(lp4
S'distance'
p5
aF83.33168029785156
aa(lp6
S'timestamp'
p7
aF7.04243016242981
aatp8
Rp9
.ccollections
OrderedDict
p0
((lp1
(lp2
S'state'
p3
aI0
aa(lp4
S'distance'
p5
aF83.33168029785156
aa(lp6
S'timestamp'
p7
aF7.049885034561157
aatp8
Rp9
.ccollections
OrderedDict
p0
((lp1
(lp2
S'state'
p3
aI0
aa(lp4
S'distance'
p5
aF83.33168029785156
aa(lp6
S'timestamp'
p7
aF7.050477981567383
aatp8
Rp9
.ccollections
OrderedDict
p0
((lp1
(lp2
S'state'
p3
aI0
aa(lp4
S'distance'
p5
aF83.33168029785156
aa(lp6
S'timestamp'
p7
aF7.060145139694214
aatp8
Rp9
.ccollections
OrderedDict
p0
((lp1
(lp2
S'state'
p3
aI0
aa(lp4
S'distance'
p5
aF83.33168029785156
aa(lp6
S'timestamp'
p7
aF7.060605049133301
aatp8
Rp9
.ccollections
OrderedDict
p0
((lp1
(lp2
S'state'
p3
aI0
aa(lp4
S'distance'
p5
aF83.33168029785156
aa(lp6
S'timestamp'
p7
aF7.070543050765991
aatp8
Rp9
.ccollections
OrderedDict
p0
((lp1
(lp2
S'state'
p3
aI0
aa(lp4
S'distance'
p5
aF83.33168029785156
aa(lp6
S'timestamp'
p7
aF7.071211099624634
aatp8
Rp9
.ccollections
OrderedDict
p0
((lp1
(lp2
S'state'
p3
aI0
aa(lp4
S'distance'
p5
aF83.33168029785156
aa(lp6
S'timestamp'
p7
aF7.080061197280884
aatp8
Rp9
.ccollections
OrderedDict
p0
((lp1
(lp2
S'state'
p3
aI0
aa(lp4
S'distance'
p5
aF83.33168029785156
aa(lp6
S'timestamp'
p7
aF7.081411123275757
aatp8
Rp9
.ccollections
OrderedDict
p0
((lp1
(lp2
S'state'
p3
aI0
aa(lp4
S'distance'
p5
aF83.33168029785156
aa(lp6
S'timestamp'
p7
aF7.090157985687256
aatp8
Rp9
.ccollections
OrderedDict
p0
((lp1
(lp2
S'state'
p3
aI0
aa(lp4
S'distance'
p5
aF83.33168029785156
aa(lp6
S'timestamp'
p7
aF7.091498136520386
aatp8
Rp9
.ccollections
OrderedDict
p0
((lp1
(lp2
S'state'
p3
aI0
aa(lp4
S'distance'
p5
aF83.33168029785156
aa(lp6
S'timestamp'
p7
aF7.099910020828247
aatp8
Rp9
.ccollections
OrderedDict
p0
((lp1
(lp2
S'state'
p3
aI0
aa(lp4
S'distance'
p5
aF83.33168029785156
aa(lp6
S'timestamp'
p7
aF7.100542068481445
aatp8
Rp9
.ccollections
OrderedDict
p0
((lp1
(lp2
S'state'
p3
aI0
aa(lp4
S'distance'
p5
aF83.33168029785156
aa(lp6
S'timestamp'
p7
aF7.1099770069122314
aatp8
Rp9
.ccollections
OrderedDict
p0
((lp1
(lp2
S'state'
p3
aI0
aa(lp4
S'distance'
p5
aF83.33168029785156
aa(lp6
S'timestamp'
p7
aF7.110491991043091
aatp8
Rp9
.ccollections
OrderedDict
p0
((lp1
(lp2
S'state'
p3
aI0
aa(lp4
S'distance'
p5
aF83.33168029785156
aa(lp6
S'timestamp'
p7
aF7.1199951171875
aatp8
Rp9
.ccollections
OrderedDict
p0
((lp1
(lp2
S'state'
p3
aI0
aa(lp4
S'distance'
p5
aF83.33168029785156
aa(lp6
S'timestamp'
p7
aF7.121392011642456
aatp8
Rp9
.ccollections
OrderedDict
p0
((lp1
(lp2
S'state'
p3
aI0
aa(lp4
S'distance'
p5
aF83.33168029785156
aa(lp6
S'timestamp'
p7
aF7.130089044570923
aatp8
Rp9
.ccollections
OrderedDict
p0
((lp1
(lp2
S'state'
p3
aI0
aa(lp4
S'distance'
p5
aF83.33168029785156
aa(lp6
S'timestamp'
p7
aF7.131282091140747
aatp8
Rp9
.ccollections
OrderedDict
p0
((lp1
(lp2
S'state'
p3
aI0
aa(lp4
S'distance'
p5
aF83.33168029785156
aa(lp6
S'timestamp'
p7
aF7.159875154495239
aatp8
Rp9
.ccollections
OrderedDict
p0
((lp1
(lp2
S'state'
p3
aI0
aa(lp4
S'distance'
p5
aF83.33168029785156
aa(lp6
S'timestamp'
p7
aF7.1711320877075195
aatp8
Rp9
.ccollections
OrderedDict
p0
((lp1
(lp2
S'state'
p3
aI0
aa(lp4
S'distance'
p5
aF83.33168029785156
aa(lp6
S'timestamp'
p7
aF7.171224117279053
aatp8
Rp9
.ccollections
OrderedDict
p0
((lp1
(lp2
S'state'
p3
aI0
aa(lp4
S'distance'
p5
aF83.33168029785156
aa(lp6
S'timestamp'
p7
aF7.171826124191284
aatp8
Rp9
.ccollections
OrderedDict
p0
((lp1
(lp2
S'state'
p3
aI0
aa(lp4
S'distance'
p5
aF83.33168029785156
aa(lp6
S'timestamp'
p7
aF7.1729161739349365
aatp8
Rp9
.ccollections
OrderedDict
p0
((lp1
(lp2
S'state'
p3
aI0
aa(lp4
S'distance'
p5
aF83.33168029785156
aa(lp6
S'timestamp'
p7
aF7.179961204528809
aatp8
Rp9
.ccollections
OrderedDict
p0
((lp1
(lp2
S'state'
p3
aI0
aa(lp4
S'distance'
p5
aF83.33168029785156
aa(lp6
S'timestamp'
p7
aF7.1805100440979
aatp8
Rp9
.ccollections
OrderedDict
p0
((lp1
(lp2
S'state'
p3
aI0
aa(lp4
S'distance'
p5
aF83.33168029785156
aa(lp6
S'timestamp'
p7
aF7.181758165359497
aatp8
Rp9
.ccollections
OrderedDict
p0
((lp1
(lp2
S'state'
p3
aI0
aa(lp4
S'distance'
p5
aF83.33168029785156
aa(lp6
S'timestamp'
p7
aF7.182820081710815
aatp8
Rp9
.ccollections
OrderedDict
p0
((lp1
(lp2
S'state'
p3
aI0
aa(lp4
S'distance'
p5
aF83.33168029785156
aa(lp6
S'timestamp'
p7
aF7.1904661655426025
aatp8
Rp9
.ccollections
OrderedDict
p0
((lp1
(lp2
S'state'
p3
aI0
aa(lp4
S'distance'
p5
aF83.33168029785156
aa(lp6
S'timestamp'
p7
aF7.19064998626709
aatp8
Rp9
.ccollections
OrderedDict
p0
((lp1
(lp2
S'state'
p3
aI0
aa(lp4
S'distance'
p5
aF83.33168029785156
aa(lp6
S'timestamp'
p7
aF7.192395210266113
aatp8
Rp9
.ccollections
OrderedDict
p0
((lp1
(lp2
S'state'
p3
aI0
aa(lp4
S'distance'
p5
aF83.33168029785156
aa(lp6
S'timestamp'
p7
aF7.200059175491333
aatp8
Rp9
.ccollections
OrderedDict
p0
((lp1
(lp2
S'state'
p3
aI0
aa(lp4
S'distance'
p5
aF83.33168029785156
aa(lp6
S'timestamp'
p7
aF7.200810194015503
aatp8
Rp9
.ccollections
OrderedDict
p0
((lp1
(lp2
S'state'
p3
aI0
aa(lp4
S'distance'
p5
aF83.33168029785156
aa(lp6
S'timestamp'
p7
aF7.220081090927124
aatp8
Rp9
.ccollections
OrderedDict
p0
((lp1
(lp2
S'state'
p3
aI0
aa(lp4
S'distance'
p5
aF83.33168029785156
aa(lp6
S'timestamp'
p7
aF7.222369194030762
aatp8
Rp9
.ccollections
OrderedDict
p0
((lp1
(lp2
S'state'
p3
aI0
aa(lp4
S'distance'
p5
aF83.33168029785156
aa(lp6
S'timestamp'
p7
aF7.222555160522461
aatp8
Rp9
.ccollections
OrderedDict
p0
((lp1
(lp2
S'state'
p3
aI0
aa(lp4
S'distance'
p5
aF83.33168029785156
aa(lp6
S'timestamp'
p7
aF7.223445177078247
aatp8
Rp9
.ccollections
OrderedDict
p0
((lp1
(lp2
S'state'
p3
aI0
aa(lp4
S'distance'
p5
aF83.33168029785156
aa(lp6
S'timestamp'
p7
aF7.232478141784668
aatp8
Rp9
.ccollections
OrderedDict
p0
((lp1
(lp2
S'state'
p3
aI0
aa(lp4
S'distance'
p5
aF83.33168029785156
aa(lp6
S'timestamp'
p7
aF7.23327898979187
aatp8
Rp9
.ccollections
OrderedDict
p0
((lp1
(lp2
S'state'
p3
aI0
aa(lp4
S'distance'
p5
aF83.33168029785156
aa(lp6
S'timestamp'
p7
aF7.24132513999939
aatp8
Rp9
.ccollections
OrderedDict
p0
((lp1
(lp2
S'state'
p3
aI0
aa(lp4
S'distance'
p5
aF83.33168029785156
aa(lp6
S'timestamp'
p7
aF7.242279052734375
aatp8
Rp9
.ccollections
OrderedDict
p0
((lp1
(lp2
S'state'
p3
aI0
aa(lp4
S'distance'
p5
aF83.33168029785156
aa(lp6
S'timestamp'
p7
aF7.249958038330078
aatp8
Rp9
.ccollections
OrderedDict
p0
((lp1
(lp2
S'state'
p3
aI0
aa(lp4
S'distance'
p5
aF83.33168029785156
aa(lp6
S'timestamp'
p7
aF7.25148606300354
aatp8
Rp9
.ccollections
OrderedDict
p0
((lp1
(lp2
S'state'
p3
aI0
aa(lp4
S'distance'
p5
aF83.33168029785156
aa(lp6
S'timestamp'
p7
aF7.260040998458862
aatp8
Rp9
.ccollections
OrderedDict
p0
((lp1
(lp2
S'state'
p3
aI0
aa(lp4
S'distance'
p5
aF83.33168029785156
aa(lp6
S'timestamp'
p7
aF7.260249137878418
aatp8
Rp9
.ccollections
OrderedDict
p0
((lp1
(lp2
S'state'
p3
aI0
aa(lp4
S'distance'
p5
aF83.33168029785156
aa(lp6
S'timestamp'
p7
aF7.269958972930908
aatp8
Rp9
.ccollections
OrderedDict
p0
((lp1
(lp2
S'state'
p3
aI0
aa(lp4
S'distance'
p5
aF83.33168029785156
aa(lp6
S'timestamp'
p7
aF7.270792007446289
aatp8
Rp9
.ccollections
OrderedDict
p0
((lp1
(lp2
S'state'
p3
aI0
aa(lp4
S'distance'
p5
aF83.33168029785156
aa(lp6
S'timestamp'
p7
aF7.280976057052612
aatp8
Rp9
.ccollections
OrderedDict
p0
((lp1
(lp2
S'state'
p3
aI0
aa(lp4
S'distance'
p5
aF83.33168029785156
aa(lp6
S'timestamp'
p7
aF7.28156304359436
aatp8
Rp9
.ccollections
OrderedDict
p0
((lp1
(lp2
S'state'
p3
aI0
aa(lp4
S'distance'
p5
aF83.33168029785156
aa(lp6
S'timestamp'
p7
aF7.310322999954224
aatp8
Rp9
.ccollections
OrderedDict
p0
((lp1
(lp2
S'state'
p3
aI0
aa(lp4
S'distance'
p5
aF83.33168029785156
aa(lp6
S'timestamp'
p7
aF7.310397148132324
aatp8
Rp9
.ccollections
OrderedDict
p0
((lp1
(lp2
S'state'
p3
aI0
aa(lp4
S'distance'
p5
aF83.33168029785156
aa(lp6
S'timestamp'
p7
aF7.311577081680298
aatp8
Rp9
.ccollections
OrderedDict
p0
((lp1
(lp2
S'state'
p3
aI0
aa(lp4
S'distance'
p5
aF83.33168029785156
aa(lp6
S'timestamp'
p7
aF7.312635183334351
aatp8
Rp9
.ccollections
OrderedDict
p0
((lp1
(lp2
S'state'
p3
aI0
aa(lp4
S'distance'
p5
aF83.33168029785156
aa(lp6
S'timestamp'
p7
aF7.320954084396362
aatp8
Rp9
.ccollections
OrderedDict
p0
((lp1
(lp2
S'state'
p3
aI0
aa(lp4
S'distance'
p5
aF83.33168029785156
aa(lp6
S'timestamp'
p7
aF7.321619033813477
aatp8
Rp9
.ccollections
OrderedDict
p0
((lp1
(lp2
S'state'
p3
aI0
aa(lp4
S'distance'
p5
aF83.33168029785156
aa(lp6
S'timestamp'
p7
aF7.321710109710693
aatp8
Rp9
.ccollections
OrderedDict
p0
((lp1
(lp2
S'state'
p3
aI0
aa(lp4
S'distance'
p5
aF83.33168029785156
aa(lp6
S'timestamp'
p7
aF7.3224451541900635
aatp8
Rp9
.ccollections
OrderedDict
p0
((lp1
(lp2
S'state'
p3
aI0
aa(lp4
S'distance'
p5
aF83.33168029785156
aa(lp6
S'timestamp'
p7
aF7.3308210372924805
aatp8
Rp9
.ccollections
OrderedDict
p0
((lp1
(lp2
S'state'
p3
aI0
aa(lp4
S'distance'
p5
aF83.33168029785156
aa(lp6
S'timestamp'
p7
aF7.33097505569458
aatp8
Rp9
.ccollections
OrderedDict
p0
((lp1
(lp2
S'state'
p3
aI0
aa(lp4
S'distance'
p5
aF83.33168029785156
aa(lp6
S'timestamp'
p7
aF7.340602159500122
aatp8
Rp9
.ccollections
OrderedDict
p0
((lp1
(lp2
S'state'
p3
aI0
aa(lp4
S'distance'
p5
aF83.33168029785156
aa(lp6
S'timestamp'
p7
aF7.34105110168457
aatp8
Rp9
.ccollections
OrderedDict
p0
((lp1
(lp2
S'state'
p3
aI0
aa(lp4
S'distance'
p5
aF83.33168029785156
aa(lp6
S'timestamp'
p7
aF7.350351095199585
aatp8
Rp9
.ccollections
OrderedDict
p0
((lp1
(lp2
S'state'
p3
aI0
aa(lp4
S'distance'
p5
aF83.33168029785156
aa(lp6
S'timestamp'
p7
aF7.351222991943359
aatp8
Rp9
.ccollections
OrderedDict
p0
((lp1
(lp2
S'state'
p3
aI0
aa(lp4
S'distance'
p5
aF83.33168029785156
aa(lp6
S'timestamp'
p7
aF7.3605430126190186
aatp8
Rp9
.ccollections
OrderedDict
p0
((lp1
(lp2
S'state'
p3
aI0
aa(lp4
S'distance'
p5
aF83.33168029785156
aa(lp6
S'timestamp'
p7
aF7.360697031021118
aatp8
Rp9
.ccollections
OrderedDict
p0
((lp1
(lp2
S'state'
p3
aI0
aa(lp4
S'distance'
p5
aF83.33168029785156
aa(lp6
S'timestamp'
p7
aF7.381599187850952
aatp8
Rp9
.ccollections
OrderedDict
p0
((lp1
(lp2
S'state'
p3
aI0
aa(lp4
S'distance'
p5
aF83.33168029785156
aa(lp6
S'timestamp'
p7
aF7.3901660442352295
aatp8
Rp9
.ccollections
OrderedDict
p0
((lp1
(lp2
S'state'
p3
aI0
aa(lp4
S'distance'
p5
aF83.33168029785156
aa(lp6
S'timestamp'
p7
aF7.3903679847717285
aatp8
Rp9
.ccollections
OrderedDict
p0
((lp1
(lp2
S'state'
p3
aI0
aa(lp4
S'distance'
p5
aF83.33168029785156
aa(lp6
S'timestamp'
p7
aF7.391637086868286
aatp8
Rp9
.ccollections
OrderedDict
p0
((lp1
(lp2
S'state'
p3
aI0
aa(lp4
S'distance'
p5
aF83.33168029785156
aa(lp6
S'timestamp'
p7
aF7.392031192779541
aatp8
Rp9
.ccollections
OrderedDict
p0
((lp1
(lp2
S'state'
p3
aI0
aa(lp4
S'distance'
p5
aF83.33168029785156
aa(lp6
S'timestamp'
p7
aF7.401278018951416
aatp8
Rp9
.ccollections
OrderedDict
p0
((lp1
(lp2
S'state'
p3
aI0
aa(lp4
S'distance'
p5
aF83.33168029785156
aa(lp6
S'timestamp'
p7
aF7.4020280838012695
aatp8
Rp9
.ccollections
OrderedDict
p0
((lp1
(lp2
S'state'
p3
aI0
aa(lp4
S'distance'
p5
aF83.33168029785156
aa(lp6
S'timestamp'
p7
aF7.40217399597168
aatp8
Rp9
.ccollections
OrderedDict
p0
((lp1
(lp2
S'state'
p3
aI0
aa(lp4
S'distance'
p5
aF83.33168029785156
aa(lp6
S'timestamp'
p7
aF7.410336017608643
aatp8
Rp9
.ccollections
OrderedDict
p0
((lp1
(lp2
S'state'
p3
aI0
aa(lp4
S'distance'
p5
aF83.33168029785156
aa(lp6
S'timestamp'
p7
aF7.411027193069458
aatp8
Rp9
.ccollections
OrderedDict
p0
((lp1
(lp2
S'state'
p3
aI0
aa(lp4
S'distance'
p5
aF83.33168029785156
aa(lp6
S'timestamp'
p7
aF7.431244134902954
aatp8
Rp9
.ccollections
OrderedDict
p0
((lp1
(lp2
S'state'
p3
aI0
aa(lp4
S'distance'
p5
aF83.33168029785156
aa(lp6
S'timestamp'
p7
aF7.431378126144409
aatp8
Rp9
.ccollections
OrderedDict
p0
((lp1
(lp2
S'state'
p3
aI0
aa(lp4
S'distance'
p5
aF83.33168029785156
aa(lp6
S'timestamp'
p7
aF7.431483030319214
aatp8
Rp9
.ccollections
OrderedDict
p0
((lp1
(lp2
S'state'
p3
aI0
aa(lp4
S'distance'
p5
aF83.33168029785156
aa(lp6
S'timestamp'
p7
aF7.431552171707153
aatp8
Rp9
.ccollections
OrderedDict
p0
((lp1
(lp2
S'state'
p3
aI0
aa(lp4
S'distance'
p5
aF83.33168029785156
aa(lp6
S'timestamp'
p7
aF7.450473070144653
aatp8
Rp9
.ccollections
OrderedDict
p0
((lp1
(lp2
S'state'
p3
aI0
aa(lp4
S'distance'
p5
aF83.33168029785156
aa(lp6
S'timestamp'
p7
aF7.450604200363159
aatp8
Rp9
.ccollections
OrderedDict
p0
((lp1
(lp2
S'state'
p3
aI0
aa(lp4
S'distance'
p5
aF83.33168029785156
aa(lp6
S'timestamp'
p7
aF7.4514360427856445
aatp8
Rp9
.ccollections
OrderedDict
p0
((lp1
(lp2
S'state'
p3
aI0
aa(lp4
S'distance'
p5
aF83.33168029785156
aa(lp6
S'timestamp'
p7
aF7.45241904258728
aatp8
Rp9
.ccollections
OrderedDict
p0
((lp1
(lp2
S'state'
p3
aI0
aa(lp4
S'distance'
p5
aF83.33168029785156
aa(lp6
S'timestamp'
p7
aF7.461255073547363
aatp8
Rp9
.ccollections
OrderedDict
p0
((lp1
(lp2
S'state'
p3
aI0
aa(lp4
S'distance'
p5
aF83.33168029785156
aa(lp6
S'timestamp'
p7
aF7.461742162704468
aatp8
Rp9
.ccollections
OrderedDict
p0
((lp1
(lp2
S'state'
p3
aI0
aa(lp4
S'distance'
p5
aF83.33168029785156
aa(lp6
S'timestamp'
p7
aF7.4711480140686035
aatp8
Rp9
.ccollections
OrderedDict
p0
((lp1
(lp2
S'state'
p3
aI0
aa(lp4
S'distance'
p5
aF83.33168029785156
aa(lp6
S'timestamp'
p7
aF7.4712231159210205
aatp8
Rp9
.ccollections
OrderedDict
p0
((lp1
(lp2
S'state'
p3
aI0
aa(lp4
S'distance'
p5
aF83.33168029785156
aa(lp6
S'timestamp'
p7
aF7.480533123016357
aatp8
Rp9
.ccollections
OrderedDict
p0
((lp1
(lp2
S'state'
p3
aI0
aa(lp4
S'distance'
p5
aF83.33168029785156
aa(lp6
S'timestamp'
p7
aF7.480838060379028
aatp8
Rp9
.ccollections
OrderedDict
p0
((lp1
(lp2
S'state'
p3
aI0
aa(lp4
S'distance'
p5
aF83.33168029785156
aa(lp6
S'timestamp'
p7
aF7.490473031997681
aatp8
Rp9
.ccollections
OrderedDict
p0
((lp1
(lp2
S'state'
p3
aI0
aa(lp4
S'distance'
p5
aF83.33168029785156
aa(lp6
S'timestamp'
p7
aF7.490548133850098
aatp8
Rp9
.ccollections
OrderedDict
p0
((lp1
(lp2
S'state'
p3
aI0
aa(lp4
S'distance'
p5
aF83.33168029785156
aa(lp6
S'timestamp'
p7
aF7.500254154205322
aatp8
Rp9
.ccollections
OrderedDict
p0
((lp1
(lp2
S'state'
p3
aI0
aa(lp4
S'distance'
p5
aF83.33168029785156
aa(lp6
S'timestamp'
p7
aF7.500380039215088
aatp8
Rp9
.ccollections
OrderedDict
p0
((lp1
(lp2
S'state'
p3
aI0
aa(lp4
S'distance'
p5
aF83.33168029785156
aa(lp6
S'timestamp'
p7
aF7.510488033294678
aatp8
Rp9
.ccollections
OrderedDict
p0
((lp1
(lp2
S'state'
p3
aI0
aa(lp4
S'distance'
p5
aF83.33168029785156
aa(lp6
S'timestamp'
p7
aF7.521345138549805
aatp8
Rp9
.ccollections
OrderedDict
p0
((lp1
(lp2
S'state'
p3
aI0
aa(lp4
S'distance'
p5
aF83.33168029785156
aa(lp6
S'timestamp'
p7
aF7.522160053253174
aatp8
Rp9
.ccollections
OrderedDict
p0
((lp1
(lp2
S'state'
p3
aI0
aa(lp4
S'distance'
p5
aF83.33168029785156
aa(lp6
S'timestamp'
p7
aF7.522493124008179
aatp8
Rp9
.ccollections
OrderedDict
p0
((lp1
(lp2
S'state'
p3
aI0
aa(lp4
S'distance'
p5
aF83.33168029785156
aa(lp6
S'timestamp'
p7
aF7.531435012817383
aatp8
Rp9
.ccollections
OrderedDict
p0
((lp1
(lp2
S'state'
p3
aI0
aa(lp4
S'distance'
p5
aF83.33168029785156
aa(lp6
S'timestamp'
p7
aF7.532837152481079
aatp8
Rp9
.ccollections
OrderedDict
p0
((lp1
(lp2
S'state'
p3
aI0
aa(lp4
S'distance'
p5
aF83.33168029785156
aa(lp6
S'timestamp'
p7
aF7.541982173919678
aatp8
Rp9
.ccollections
OrderedDict
p0
((lp1
(lp2
S'state'
p3
aI0
aa(lp4
S'distance'
p5
aF83.33168029785156
aa(lp6
S'timestamp'
p7
aF7.54215407371521
aatp8
Rp9
.ccollections
OrderedDict
p0
((lp1
(lp2
S'state'
p3
aI0
aa(lp4
S'distance'
p5
aF83.33168029785156
aa(lp6
S'timestamp'
p7
aF7.551354169845581
aatp8
Rp9
.ccollections
OrderedDict
p0
((lp1
(lp2
S'state'
p3
aI0
aa(lp4
S'distance'
p5
aF83.33168029785156
aa(lp6
S'timestamp'
p7
aF7.551448106765747
aatp8
Rp9
.ccollections
OrderedDict
p0
((lp1
(lp2
S'state'
p3
aI0
aa(lp4
S'distance'
p5
aF83.33168029785156
aa(lp6
S'timestamp'
p7
aF7.560755014419556
aatp8
Rp9
.ccollections
OrderedDict
p0
((lp1
(lp2
S'state'
p3
aI0
aa(lp4
S'distance'
p5
aF83.33168029785156
aa(lp6
S'timestamp'
p7
aF7.5613791942596436
aatp8
Rp9
.ccollections
OrderedDict
p0
((lp1
(lp2
S'state'
p3
aI0
aa(lp4
S'distance'
p5
aF83.33168029785156
aa(lp6
S'timestamp'
p7
aF7.570052146911621
aatp8
Rp9
.ccollections
OrderedDict
p0
((lp1
(lp2
S'state'
p3
aI0
aa(lp4
S'distance'
p5
aF83.33168029785156
aa(lp6
S'timestamp'
p7
aF7.572314977645874
aatp8
Rp9
.ccollections
OrderedDict
p0
((lp1
(lp2
S'state'
p3
aI0
aa(lp4
S'distance'
p5
aF83.33168029785156
aa(lp6
S'timestamp'
p7
aF7.591337203979492
aatp8
Rp9
.ccollections
OrderedDict
p0
((lp1
(lp2
S'state'
p3
aI0
aa(lp4
S'distance'
p5
aF83.33168029785156
aa(lp6
S'timestamp'
p7
aF7.5914270877838135
aatp8
Rp9
.ccollections
OrderedDict
p0
((lp1
(lp2
S'state'
p3
aI0
aa(lp4
S'distance'
p5
aF83.33168029785156
aa(lp6
S'timestamp'
p7
aF7.591497182846069
aatp8
Rp9
.ccollections
OrderedDict
p0
((lp1
(lp2
S'state'
p3
aI0
aa(lp4
S'distance'
p5
aF83.33168029785156
aa(lp6
S'timestamp'
p7
aF7.591562986373901
aatp8
Rp9
.ccollections
OrderedDict
p0
((lp1
(lp2
S'state'
p3
aI0
aa(lp4
S'distance'
p5
aF83.33168029785156
aa(lp6
S'timestamp'
p7
aF7.600352048873901
aatp8
Rp9
.ccollections
OrderedDict
p0
((lp1
(lp2
S'state'
p3
aI0
aa(lp4
S'distance'
p5
aF83.33168029785156
aa(lp6
S'timestamp'
p7
aF7.600529193878174
aatp8
Rp9
.ccollections
OrderedDict
p0
((lp1
(lp2
S'state'
p3
aI0
aa(lp4
S'distance'
p5
aF83.33168029785156
aa(lp6
S'timestamp'
p7
aF7.610246181488037
aatp8
Rp9
.ccollections
OrderedDict
p0
((lp1
(lp2
S'state'
p3
aI0
aa(lp4
S'distance'
p5
aF83.33168029785156
aa(lp6
S'timestamp'
p7
aF7.610924005508423
aatp8
Rp9
.ccollections
OrderedDict
p0
((lp1
(lp2
S'state'
p3
aI0
aa(lp4
S'distance'
p5
aF83.33168029785156
aa(lp6
S'timestamp'
p7
aF7.6204400062561035
aatp8
Rp9
.ccollections
OrderedDict
p0
((lp1
(lp2
S'state'
p3
aI0
aa(lp4
S'distance'
p5
aF83.33168029785156
aa(lp6
S'timestamp'
p7
aF7.620633125305176
aatp8
Rp9
.ccollections
OrderedDict
p0
((lp1
(lp2
S'state'
p3
aI0
aa(lp4
S'distance'
p5
aF83.33168029785156
aa(lp6
S'timestamp'
p7
aF7.631146192550659
aatp8
Rp9
.ccollections
OrderedDict
p0
((lp1
(lp2
S'state'
p3
aI0
aa(lp4
S'distance'
p5
aF83.33168029785156
aa(lp6
S'timestamp'
p7
aF7.631224155426025
aatp8
Rp9
.ccollections
OrderedDict
p0
((lp1
(lp2
S'state'
p3
aI0
aa(lp4
S'distance'
p5
aF83.33168029785156
aa(lp6
S'timestamp'
p7
aF7.641156196594238
aatp8
Rp9
.ccollections
OrderedDict
p0
((lp1
(lp2
S'state'
p3
aI0
aa(lp4
S'distance'
p5
aF83.33168029785156
aa(lp6
S'timestamp'
p7
aF7.641586065292358
aatp8
Rp9
.ccollections
OrderedDict
p0
((lp1
(lp2
S'state'
p3
aI0
aa(lp4
S'distance'
p5
aF83.33168029785156
aa(lp6
S'timestamp'
p7
aF7.650221109390259
aatp8
Rp9
.ccollections
OrderedDict
p0
((lp1
(lp2
S'state'
p3
aI0
aa(lp4
S'distance'
p5
aF83.33168029785156
aa(lp6
S'timestamp'
p7
aF7.650735139846802
aatp8
Rp9
.ccollections
OrderedDict
p0
((lp1
(lp2
S'state'
p3
aI0
aa(lp4
S'distance'
p5
aF83.33168029785156
aa(lp6
S'timestamp'
p7
aF7.6713950634002686
aatp8
Rp9
.ccollections
OrderedDict
p0
((lp1
(lp2
S'state'
p3
aI0
aa(lp4
S'distance'
p5
aF83.33168029785156
aa(lp6
S'timestamp'
p7
aF7.672121047973633
aatp8
Rp9
.ccollections
OrderedDict
p0
((lp1
(lp2
S'state'
p3
aI0
aa(lp4
S'distance'
p5
aF83.33168029785156
aa(lp6
S'timestamp'
p7
aF7.672218084335327
aatp8
Rp9
.ccollections
OrderedDict
p0
((lp1
(lp2
S'state'
p3
aI0
aa(lp4
S'distance'
p5
aF83.33168029785156
aa(lp6
S'timestamp'
p7
aF7.672439098358154
aatp8
Rp9
.ccollections
OrderedDict
p0
((lp1
(lp2
S'state'
p3
aI0
aa(lp4
S'distance'
p5
aF83.33168029785156
aa(lp6
S'timestamp'
p7
aF7.680636167526245
aatp8
Rp9
.ccollections
OrderedDict
p0
((lp1
(lp2
S'state'
p3
aI0
aa(lp4
S'distance'
p5
aF83.33168029785156
aa(lp6
S'timestamp'
p7
aF7.680816173553467
aatp8
Rp9
.ccollections
OrderedDict
p0
((lp1
(lp2
S'state'
p3
aI0
aa(lp4
S'distance'
p5
aF83.33168029785156
aa(lp6
S'timestamp'
p7
aF7.691267013549805
aatp8
Rp9
.ccollections
OrderedDict
p0
((lp1
(lp2
S'state'
p3
aI0
aa(lp4
S'distance'
p5
aF83.33168029785156
aa(lp6
S'timestamp'
p7
aF7.691428184509277
aatp8
Rp9
.ccollections
OrderedDict
p0
((lp1
(lp2
S'state'
p3
aI0
aa(lp4
S'distance'
p5
aF83.33168029785156
aa(lp6
S'timestamp'
p7
aF7.70019006729126
aatp8
Rp9
.ccollections
OrderedDict
p0
((lp1
(lp2
S'state'
p3
aI0
aa(lp4
S'distance'
p5
aF83.33168029785156
aa(lp6
S'timestamp'
p7
aF7.7005720138549805
aatp8
Rp9
.ccollections
OrderedDict
p0
((lp1
(lp2
S'state'
p3
aI0
aa(lp4
S'distance'
p5
aF83.33168029785156
aa(lp6
S'timestamp'
p7
aF7.7102930545806885
aatp8
Rp9
.ccollections
OrderedDict
p0
((lp1
(lp2
S'state'
p3
aI0
aa(lp4
S'distance'
p5
aF83.33168029785156
aa(lp6
S'timestamp'
p7
aF7.710484981536865
aatp8
Rp9
.ccollections
OrderedDict
p0
((lp1
(lp2
S'state'
p3
aI0
aa(lp4
S'distance'
p5
aF83.33168029785156
aa(lp6
S'timestamp'
p7
aF7.72002100944519
aatp8
Rp9
.ccollections
OrderedDict
p0
((lp1
(lp2
S'state'
p3
aI0
aa(lp4
S'distance'
p5
aF83.33168029785156
aa(lp6
S'timestamp'
p7
aF7.720703125
aatp8
Rp9
.ccollections
OrderedDict
p0
((lp1
(lp2
S'state'
p3
aI0
aa(lp4
S'distance'
p5
aF83.33168029785156
aa(lp6
S'timestamp'
p7
aF7.731053113937378
aatp8
Rp9
.ccollections
OrderedDict
p0
((lp1
(lp2
S'state'
p3
aI0
aa(lp4
S'distance'
p5
aF83.33168029785156
aa(lp6
S'timestamp'
p7
aF7.73115611076355
aatp8
Rp9
.ccollections
OrderedDict
p0
((lp1
(lp2
S'state'
p3
aI0
aa(lp4
S'distance'
p5
aF83.33168029785156
aa(lp6
S'timestamp'
p7
aF7.74073600769043
aatp8
Rp9
.ccollections
OrderedDict
p0
((lp1
(lp2
S'state'
p3
aI0
aa(lp4
S'distance'
p5
aF83.33168029785156
aa(lp6
S'timestamp'
p7
aF7.740839004516602
aatp8
Rp9
.ccollections
OrderedDict
p0
((lp1
(lp2
S'state'
p3
aI0
aa(lp4
S'distance'
p5
aF83.33168029785156
aa(lp6
S'timestamp'
p7
aF7.750152111053467
aatp8
Rp9
.ccollections
OrderedDict
p0
((lp1
(lp2
S'state'
p3
aI0
aa(lp4
S'distance'
p5
aF83.33168029785156
aa(lp6
S'timestamp'
p7
aF7.761216163635254
aatp8
Rp9
.ccollections
OrderedDict
p0
((lp1
(lp2
S'state'
p3
aI0
aa(lp4
S'distance'
p5
aF83.33168029785156
aa(lp6
S'timestamp'
p7
aF7.761740207672119
aatp8
Rp9
.ccollections
OrderedDict
p0
((lp1
(lp2
S'state'
p3
aI0
aa(lp4
S'distance'
p5
aF83.33168029785156
aa(lp6
S'timestamp'
p7
aF7.762246131896973
aatp8
Rp9
.ccollections
OrderedDict
p0
((lp1
(lp2
S'state'
p3
aI0
aa(lp4
S'distance'
p5
aF83.33168029785156
aa(lp6
S'timestamp'
p7
aF7.770348072052002
aatp8
Rp9
.ccollections
OrderedDict
p0
((lp1
(lp2
S'state'
p3
aI0
aa(lp4
S'distance'
p5
aF83.33168029785156
aa(lp6
S'timestamp'
p7
aF7.770507097244263
aatp8
Rp9
.ccollections
OrderedDict
p0
((lp1
(lp2
S'state'
p3
aI0
aa(lp4
S'distance'
p5
aF83.33168029785156
aa(lp6
S'timestamp'
p7
aF7.780441045761108
aatp8
Rp9
.ccollections
OrderedDict
p0
((lp1
(lp2
S'state'
p3
aI0
aa(lp4
S'distance'
p5
aF83.33168029785156
aa(lp6
S'timestamp'
p7
aF7.780525207519531
aatp8
Rp9
.ccollections
OrderedDict
p0
((lp1
(lp2
S'state'
p3
aI0
aa(lp4
S'distance'
p5
aF83.33168029785156
aa(lp6
S'timestamp'
p7
aF7.790996074676514
aatp8
Rp9
.ccollections
OrderedDict
p0
((lp1
(lp2
S'state'
p3
aI0
aa(lp4
S'distance'
p5
aF83.33168029785156
aa(lp6
S'timestamp'
p7
aF7.7922492027282715
aatp8
Rp9
.ccollections
OrderedDict
p0
((lp1
(lp2
S'state'
p3
aI0
aa(lp4
S'distance'
p5
aF83.33168029785156
aa(lp6
S'timestamp'
p7
aF7.8012590408325195
aatp8
Rp9
.ccollections
OrderedDict
p0
((lp1
(lp2
S'state'
p3
aI0
aa(lp4
S'distance'
p5
aF83.33168029785156
aa(lp6
S'timestamp'
p7
aF7.801398992538452
aatp8
Rp9
.ccollections
OrderedDict
p0
((lp1
(lp2
S'state'
p3
aI0
aa(lp4
S'distance'
p5
aF83.33168029785156
aa(lp6
S'timestamp'
p7
aF7.810472011566162
aatp8
Rp9
.ccollections
OrderedDict
p0
((lp1
(lp2
S'state'
p3
aI0
aa(lp4
S'distance'
p5
aF83.33168029785156
aa(lp6
S'timestamp'
p7
aF7.810687065124512
aatp8
Rp9
.ccollections
OrderedDict
p0
((lp1
(lp2
S'state'
p3
aI0
aa(lp4
S'distance'
p5
aF83.33168029785156
aa(lp6
S'timestamp'
p7
aF7.820864200592041
aatp8
Rp9
.ccollections
OrderedDict
p0
((lp1
(lp2
S'state'
p3
aI0
aa(lp4
S'distance'
p5
aF83.33168029785156
aa(lp6
S'timestamp'
p7
aF7.8211610317230225
aatp8
Rp9
.ccollections
OrderedDict
p0
((lp1
(lp2
S'state'
p3
aI0
aa(lp4
S'distance'
p5
aF83.33168029785156
aa(lp6
S'timestamp'
p7
aF7.834130048751831
aatp8
Rp9
.ccollections
OrderedDict
p0
((lp1
(lp2
S'state'
p3
aI0
aa(lp4
S'distance'
p5
aF83.33168029785156
aa(lp6
S'timestamp'
p7
aF7.8343729972839355
aatp8
Rp9
.ccollections
OrderedDict
p0
((lp1
(lp2
S'state'
p3
aI0
aa(lp4
S'distance'
p5
aF83.33168029785156
aa(lp6
S'timestamp'
p7
aF7.847012996673584
aatp8
Rp9
.ccollections
OrderedDict
p0
((lp1
(lp2
S'state'
p3
aI0
aa(lp4
S'distance'
p5
aF83.33168029785156
aa(lp6
S'timestamp'
p7
aF7.848194122314453
aatp8
Rp9
.ccollections
OrderedDict
p0
((lp1
(lp2
S'state'
p3
aI0
aa(lp4
S'distance'
p5
aF83.33168029785156
aa(lp6
S'timestamp'
p7
aF7.8499979972839355
aatp8
Rp9
.ccollections
OrderedDict
p0
((lp1
(lp2
S'state'
p3
aI0
aa(lp4
S'distance'
p5
aF83.33168029785156
aa(lp6
S'timestamp'
p7
aF7.853085994720459
aatp8
Rp9
.ccollections
OrderedDict
p0
((lp1
(lp2
S'state'
p3
aI0
aa(lp4
S'distance'
p5
aF83.33168029785156
aa(lp6
S'timestamp'
p7
aF7.860275030136108
aatp8
Rp9
.ccollections
OrderedDict
p0
((lp1
(lp2
S'state'
p3
aI0
aa(lp4
S'distance'
p5
aF83.33168029785156
aa(lp6
S'timestamp'
p7
aF7.8634631633758545
aatp8
Rp9
.ccollections
OrderedDict
p0
((lp1
(lp2
S'state'
p3
aI0
aa(lp4
S'distance'
p5
aF83.33168029785156
aa(lp6
S'timestamp'
p7
aF7.870019197463989
aatp8
Rp9
.ccollections
OrderedDict
p0
((lp1
(lp2
S'state'
p3
aI0
aa(lp4
S'distance'
p5
aF83.33168029785156
aa(lp6
S'timestamp'
p7
aF7.8711371421813965
aatp8
Rp9
.ccollections
OrderedDict
p0
((lp1
(lp2
S'state'
p3
aI0
aa(lp4
S'distance'
p5
aF83.33168029785156
aa(lp6
S'timestamp'
p7
aF7.8802490234375
aatp8
Rp9
.ccollections
OrderedDict
p0
((lp1
(lp2
S'state'
p3
aI0
aa(lp4
S'distance'
p5
aF83.33168029785156
aa(lp6
S'timestamp'
p7
aF7.882507085800171
aatp8
Rp9
.ccollections
OrderedDict
p0
((lp1
(lp2
S'state'
p3
aI0
aa(lp4
S'distance'
p5
aF83.33168029785156
aa(lp6
S'timestamp'
p7
aF7.890079021453857
aatp8
Rp9
.ccollections
OrderedDict
p0
((lp1
(lp2
S'state'
p3
aI0
aa(lp4
S'distance'
p5
aF83.33168029785156
aa(lp6
S'timestamp'
p7
aF7.891762018203735
aatp8
Rp9
.ccollections
OrderedDict
p0
((lp1
(lp2
S'state'
p3
aI0
aa(lp4
S'distance'
p5
aF83.33168029785156
aa(lp6
S'timestamp'
p7
aF7.900192022323608
aatp8
Rp9
.ccollections
OrderedDict
p0
((lp1
(lp2
S'state'
p3
aI0
aa(lp4
S'distance'
p5
aF83.33168029785156
aa(lp6
S'timestamp'
p7
aF7.901201009750366
aatp8
Rp9
.ccollections
OrderedDict
p0
((lp1
(lp2
S'state'
p3
aI0
aa(lp4
S'distance'
p5
aF83.33168029785156
aa(lp6
S'timestamp'
p7
aF7.910646200180054
aatp8
Rp9
.ccollections
OrderedDict
p0
((lp1
(lp2
S'state'
p3
aI0
aa(lp4
S'distance'
p5
aF83.33168029785156
aa(lp6
S'timestamp'
p7
aF7.910718202590942
aatp8
Rp9
.ccollections
OrderedDict
p0
((lp1
(lp2
S'state'
p3
aI0
aa(lp4
S'distance'
p5
aF83.33168029785156
aa(lp6
S'timestamp'
p7
aF7.920773983001709
aatp8
Rp9
.ccollections
OrderedDict
p0
((lp1
(lp2
S'state'
p3
aI0
aa(lp4
S'distance'
p5
aF83.33168029785156
aa(lp6
S'timestamp'
p7
aF7.920904159545898
aatp8
Rp9
.ccollections
OrderedDict
p0
((lp1
(lp2
S'state'
p3
aI0
aa(lp4
S'distance'
p5
aF83.33168029785156
aa(lp6
S'timestamp'
p7
aF7.930669069290161
aatp8
Rp9
.ccollections
OrderedDict
p0
((lp1
(lp2
S'state'
p3
aI0
aa(lp4
S'distance'
p5
aF83.33168029785156
aa(lp6
S'timestamp'
p7
aF7.933087110519409
aatp8
Rp9
.ccollections
OrderedDict
p0
((lp1
(lp2
S'state'
p3
aI0
aa(lp4
S'distance'
p5
aF83.33168029785156
aa(lp6
S'timestamp'
p7
aF7.940453052520752
aatp8
Rp9
.ccollections
OrderedDict
p0
((lp1
(lp2
S'state'
p3
aI0
aa(lp4
S'distance'
p5
aF83.33168029785156
aa(lp6
S'timestamp'
p7
aF7.941213130950928
aatp8
Rp9
.ccollections
OrderedDict
p0
((lp1
(lp2
S'state'
p3
aI0
aa(lp4
S'distance'
p5
aF83.33168029785156
aa(lp6
S'timestamp'
p7
aF7.950257062911987
aatp8
Rp9
.ccollections
OrderedDict
p0
((lp1
(lp2
S'state'
p3
aI0
aa(lp4
S'distance'
p5
aF83.33168029785156
aa(lp6
S'timestamp'
p7
aF7.950462102890015
aatp8
Rp9
.ccollections
OrderedDict
p0
((lp1
(lp2
S'state'
p3
aI0
aa(lp4
S'distance'
p5
aF83.33168029785156
aa(lp6
S'timestamp'
p7
aF7.960805177688599
aatp8
Rp9
.ccollections
OrderedDict
p0
((lp1
(lp2
S'state'
p3
aI0
aa(lp4
S'distance'
p5
aF83.33168029785156
aa(lp6
S'timestamp'
p7
aF7.960970163345337
aatp8
Rp9
.ccollections
OrderedDict
p0
((lp1
(lp2
S'state'
p3
aI0
aa(lp4
S'distance'
p5
aF83.33168029785156
aa(lp6
S'timestamp'
p7
aF7.980277061462402
aatp8
Rp9
.ccollections
OrderedDict
p0
((lp1
(lp2
S'state'
p3
aI0
aa(lp4
S'distance'
p5
aF83.33168029785156
aa(lp6
S'timestamp'
p7
aF7.980472087860107
aatp8
Rp9
.ccollections
OrderedDict
p0
((lp1
(lp2
S'state'
p3
aI0
aa(lp4
S'distance'
p5
aF83.33168029785156
aa(lp6
S'timestamp'
p7
aF7.982104063034058
aatp8
Rp9
.ccollections
OrderedDict
p0
((lp1
(lp2
S'state'
p3
aI0
aa(lp4
S'distance'
p5
aF83.33168029785156
aa(lp6
S'timestamp'
p7
aF7.98218297958374
aatp8
Rp9
.ccollections
OrderedDict
p0
((lp1
(lp2
S'state'
p3
aI0
aa(lp4
S'distance'
p5
aF83.33168029785156
aa(lp6
S'timestamp'
p7
aF7.990279197692871
aatp8
Rp9
.ccollections
OrderedDict
p0
((lp1
(lp2
S'state'
p3
aI0
aa(lp4
S'distance'
p5
aF83.33168029785156
aa(lp6
S'timestamp'
p7
aF7.99040412902832
aatp8
Rp9
.ccollections
OrderedDict
p0
((lp1
(lp2
S'state'
p3
aI0
aa(lp4
S'distance'
p5
aF83.33168029785156
aa(lp6
S'timestamp'
p7
aF8.000651121139526
aatp8
Rp9
.ccollections
OrderedDict
p0
((lp1
(lp2
S'state'
p3
aI0
aa(lp4
S'distance'
p5
aF83.33168029785156
aa(lp6
S'timestamp'
p7
aF8.001236200332642
aatp8
Rp9
.