ccollections
OrderedDict
p0
((lp1
(lp2
S'state'
p3
aI0
aa(lp4
S'distance'
p5
aF375.2200241088867
aa(lp6
S'timestamp'
p7
aF0.006384849548339844
aatp8
Rp9
.ccollections
OrderedDict
p0
((lp1
(lp2
S'state'
p3
aI0
aa(lp4
S'distance'
p5
aF375.2200241088867
aa(lp6
S'timestamp'
p7
aF0.006465911865234375
aatp8
Rp9
.ccollections
OrderedDict
p0
((lp1
(lp2
S'state'
p3
aI0
aa(lp4
S'distance'
p5
aF375.2200241088867
aa(lp6
S'timestamp'
p7
aF0.007498979568481445
aatp8
Rp9
.ccollections
OrderedDict
p0
((lp1
(lp2
S'state'
p3
aI0
aa(lp4
S'distance'
p5
aF375.2200241088867
aa(lp6
S'timestamp'
p7
aF0.008440017700195312
aatp8
Rp9
.ccollections
OrderedDict
p0
((lp1
(lp2
S'state'
p3
aI0
aa(lp4
S'distance'
p5
aF375.2200241088867
aa(lp6
S'timestamp'
p7
aF0.021692991256713867
aatp8
Rp9
.ccollections
OrderedDict
p0
((lp1
(lp2
S'state'
p3
aI0
aa(lp4
S'distance'
p5
aF375.2200241088867
aa(lp6
S'timestamp'
p7
aF0.026285886764526367
aatp8
Rp9
.ccollections
OrderedDict
p0
((lp1
(lp2
S'state'
p3
aI0
aa(lp4
S'distance'
p5
aF375.2200241088867
aa(lp6
S'timestamp'
p7
aF0.03662991523742676
aatp8
Rp9
.ccollections
OrderedDict
p0
((lp1
(lp2
S'state'
p3
aI0
aa(lp4
S'distance'
p5
aF375.2200241088867
aa(lp6
S'timestamp'
p7
aF0.036801815032958984
aatp8
Rp9
.ccollections
OrderedDict
p0
((lp1
(lp2
S'state'
p3
aI0
aa(lp4
S'distance'
p5
aF375.2200241088867
aa(lp6
S'timestamp'
p7
aF0.038211822509765625
aatp8
Rp9
.ccollections
OrderedDict
p0
((lp1
(lp2
S'state'
p3
aI0
aa(lp4
S'distance'
p5
aF375.2200241088867
aa(lp6
S'timestamp'
p7
aF0.03918004035949707
aatp8
Rp9
.ccollections
OrderedDict
p0
((lp1
(lp2
S'state'
p3
aI0
aa(lp4
S'distance'
p5
aF375.2200241088867
aa(lp6
S'timestamp'
p7
aF0.04612302780151367
aatp8
Rp9
.ccollections
OrderedDict
p0
((lp1
(lp2
S'state'
p3
aI0
aa(lp4
S'distance'
p5
aF375.2200241088867
aa(lp6
S'timestamp'
p7
aF0.04663681983947754
aatp8
Rp9
.ccollections
OrderedDict
p0
((lp1
(lp2
S'state'
p3
aI0
aa(lp4
S'distance'
p5
aF375.2200241088867
aa(lp6
S'timestamp'
p7
aF0.05672097206115723
aatp8
Rp9
.ccollections
OrderedDict
p0
((lp1
(lp2
S'state'
p3
aI0
aa(lp4
S'distance'
p5
aF375.2200241088867
aa(lp6
S'timestamp'
p7
aF0.0575258731842041
aatp8
Rp9
.ccollections
OrderedDict
p0
((lp1
(lp2
S'state'
p3
aI0
aa(lp4
S'distance'
p5
aF375.2200241088867
aa(lp6
S'timestamp'
p7
aF0.06603789329528809
aatp8
Rp9
.ccollections
OrderedDict
p0
((lp1
(lp2
S'state'
p3
aI0
aa(lp4
S'distance'
p5
aF375.2200241088867
aa(lp6
S'timestamp'
p7
aF0.06657195091247559
aatp8
Rp9
.ccollections
OrderedDict
p0
((lp1
(lp2
S'state'
p3
aI0
aa(lp4
S'distance'
p5
aF375.2200241088867
aa(lp6
S'timestamp'
p7
aF0.0759420394897461
aatp8
Rp9
.ccollections
OrderedDict
p0
((lp1
(lp2
S'state'
p3
aI0
aa(lp4
S'distance'
p5
aF375.2200241088867
aa(lp6
S'timestamp'
p7
aF0.07665801048278809
aatp8
Rp9
.ccollections
OrderedDict
p0
((lp1
(lp2
S'state'
p3
aI0
aa(lp4
S'distance'
p5
aF375.2200241088867
aa(lp6
S'timestamp'
p7
aF0.08615303039550781
aatp8
Rp9
.ccollections
OrderedDict
p0
((lp1
(lp2
S'state'
p3
aI0
aa(lp4
S'distance'
p5
aF375.2200241088867
aa(lp6
S'timestamp'
p7
aF0.08655881881713867
aatp8
Rp9
.ccollections
OrderedDict
p0
((lp1
(lp2
S'state'
p3
aI0
aa(lp4
S'distance'
p5
aF375.2200241088867
aa(lp6
S'timestamp'
p7
aF0.1059260368347168
aatp8
Rp9
.ccollections
OrderedDict
p0
((lp1
(lp2
S'state'
p3
aI0
aa(lp4
S'distance'
p5
aF375.2200241088867
aa(lp6
S'timestamp'
p7
aF0.10648488998413086
aatp8
Rp9
.ccollections
OrderedDict
p0
((lp1
(lp2
S'state'
p3
aI0
aa(lp4
S'distance'
p5
aF375.2200241088867
aa(lp6
S'timestamp'
p7
aF0.10819196701049805
aatp8
Rp9
.ccollections
OrderedDict
p0
((lp1
(lp2
S'state'
p3
aI0
aa(lp4
S'distance'
p5
aF375.2200241088867
aa(lp6
S'timestamp'
p7
aF0.10909795761108398
aatp8
Rp9
.ccollections
OrderedDict
p0
((lp1
(lp2
S'state'
p3
aI0
aa(lp4
S'distance'
p5
aF375.2200241088867
aa(lp6
S'timestamp'
p7
aF0.11609101295471191
aatp8
Rp9
.ccollections
OrderedDict
p0
((lp1
(lp2
S'state'
p3
aI0
aa(lp4
S'distance'
p5
aF375.2200241088867
aa(lp6
S'timestamp'
p7
aF0.11657595634460449
aatp8
Rp9
.ccollections
OrderedDict
p0
((lp1
(lp2
S'state'
p3
aI0
aa(lp4
S'distance'
p5
aF375.2200241088867
aa(lp6
S'timestamp'
p7
aF0.1359269618988037
aatp8
Rp9
.ccollections
OrderedDict
p0
((lp1
(lp2
S'state'
p3
aI0
aa(lp4
S'distance'
p5
aF375.2200241088867
aa(lp6
S'timestamp'
p7
aF0.13643598556518555
aatp8
Rp9
.ccollections
OrderedDict
p0
((lp1
(lp2
S'state'
p3
aI0
aa(lp4
S'distance'
p5
aF375.2200241088867
aa(lp6
S'timestamp'
p7
aF0.13802289962768555
aatp8
Rp9
.ccollections
OrderedDict
p0
((lp1
(lp2
S'state'
p3
aI0
aa(lp4
S'distance'
p5
aF375.2200241088867
aa(lp6
S'timestamp'
p7
aF0.13912487030029297
aatp8
Rp9
.ccollections
OrderedDict
p0
((lp1
(lp2
S'state'
p3
aI0
aa(lp4
S'distance'
p5
aF375.2200241088867
aa(lp6
S'timestamp'
p7
aF0.14621996879577637
aatp8
Rp9
.ccollections
OrderedDict
p0
((lp1
(lp2
S'state'
p3
aI0
aa(lp4
S'distance'
p5
aF375.2200241088867
aa(lp6
S'timestamp'
p7
aF0.1465599536895752
aatp8
Rp9
.ccollections
OrderedDict
p0
((lp1
(lp2
S'state'
p3
aI0
aa(lp4
S'distance'
p5
aF375.2200241088867
aa(lp6
S'timestamp'
p7
aF0.15600991249084473
aatp8
Rp9
.ccollections
OrderedDict
p0
((lp1
(lp2
S'state'
p3
aI0
aa(lp4
S'distance'
p5
aF375.2200241088867
aa(lp6
S'timestamp'
p7
aF0.15647101402282715
aatp8
Rp9
.ccollections
OrderedDict
p0
((lp1
(lp2
S'state'
p3
aI0
aa(lp4
S'distance'
p5
aF375.2200241088867
aa(lp6
S'timestamp'
p7
aF0.1759169101715088
aatp8
Rp9
.ccollections
OrderedDict
p0
((lp1
(lp2
S'state'
p3
aI0
aa(lp4
S'distance'
p5
aF375.2200241088867
aa(lp6
S'timestamp'
p7
aF0.1763899326324463
aatp8
Rp9
.ccollections
OrderedDict
p0
((lp1
(lp2
S'state'
p3
aI0
aa(lp4
S'distance'
p5
aF375.2200241088867
aa(lp6
S'timestamp'
p7
aF0.17736101150512695
aatp8
Rp9
.ccollections
OrderedDict
p0
((lp1
(lp2
S'state'
p3
aI0
aa(lp4
S'distance'
p5
aF375.2200241088867
aa(lp6
S'timestamp'
p7
aF0.1774439811706543
aatp8
Rp9
.ccollections
OrderedDict
p0
((lp1
(lp2
S'state'
p3
aI0
aa(lp4
S'distance'
p5
aF375.2200241088867
aa(lp6
S'timestamp'
p7
aF0.20636582374572754
aatp8
Rp9
.ccollections
OrderedDict
p0
((lp1
(lp2
S'state'
p3
aI0
aa(lp4
S'distance'
p5
aF375.2200241088867
aa(lp6
S'timestamp'
p7
aF0.20644783973693848
aatp8
Rp9
.ccollections
OrderedDict
p0
((lp1
(lp2
S'state'
p3
aI0
aa(lp4
S'distance'
p5
aF375.2200241088867
aa(lp6
S'timestamp'
p7
aF0.20751380920410156
aatp8
Rp9
.ccollections
OrderedDict
p0
((lp1
(lp2
S'state'
p3
aI0
aa(lp4
S'distance'
p5
aF375.2200241088867
aa(lp6
S'timestamp'
p7
aF0.20852184295654297
aatp8
Rp9
.ccollections
OrderedDict
p0
((lp1
(lp2
S'state'
p3
aI0
aa(lp4
S'distance'
p5
aF375.2200241088867
aa(lp6
S'timestamp'
p7
aF0.21632599830627441
aatp8
Rp9
.ccollections
OrderedDict
p0
((lp1
(lp2
S'state'
p3
aI0
aa(lp4
S'distance'
p5
aF375.2200241088867
aa(lp6
S'timestamp'
p7
aF0.2164139747619629
aatp8
Rp9
.ccollections
OrderedDict
p0
((lp1
(lp2
S'state'
p3
aI0
aa(lp4
S'distance'
p5
aF375.2200241088867
aa(lp6
S'timestamp'
p7
aF0.22594594955444336
aatp8
Rp9
.ccollections
OrderedDict
p0
((lp1
(lp2
S'state'
p3
aI0
aa(lp4
S'distance'
p5
aF375.2200241088867
aa(lp6
S'timestamp'
p7
aF0.22644400596618652
aatp8
Rp9
.ccollections
OrderedDict
p0
((lp1
(lp2
S'state'
p3
aI0
aa(lp4
S'distance'
p5
aF375.2200241088867
aa(lp6
S'timestamp'
p7
aF0.228118896484375
aatp8
Rp9
.ccollections
OrderedDict
p0
((lp1
(lp2
S'state'
p3
aI0
aa(lp4
S'distance'
p5
aF375.2200241088867
aa(lp6
S'timestamp'
p7
aF0.229050874710083
aatp8
Rp9
.ccollections
OrderedDict
p0
((lp1
(lp2
S'state'
p3
aI0
aa(lp4
S'distance'
p5
aF375.2200241088867
aa(lp6
S'timestamp'
p7
aF0.24605989456176758
aatp8
Rp9
.ccollections
OrderedDict
p0
((lp1
(lp2
S'state'
p3
aI0
aa(lp4
S'distance'
p5
aF375.2200241088867
aa(lp6
S'timestamp'
p7
aF0.24645400047302246
aatp8
Rp9
.ccollections
OrderedDict
p0
((lp1
(lp2
S'state'
p3
aI0
aa(lp4
S'distance'
p5
aF375.2200241088867
aa(lp6
S'timestamp'
p7
aF0.2471308708190918
aatp8
Rp9
.ccollections
OrderedDict
p0
((lp1
(lp2
S'state'
p3
aI0
aa(lp4
S'distance'
p5
aF375.2200241088867
aa(lp6
S'timestamp'
p7
aF0.24744892120361328
aatp8
Rp9
.ccollections
OrderedDict
p0
((lp1
(lp2
S'state'
p3
aI0
aa(lp4
S'distance'
p5
aF375.2200241088867
aa(lp6
S'timestamp'
p7
aF0.2561318874359131
aatp8
Rp9
.ccollections
OrderedDict
p0
((lp1
(lp2
S'state'
p3
aI0
aa(lp4
S'distance'
p5
aF375.2200241088867
aa(lp6
S'timestamp'
p7
aF0.25661802291870117
aatp8
Rp9
.ccollections
OrderedDict
p0
((lp1
(lp2
S'state'
p3
aI0
aa(lp4
S'distance'
p5
aF375.2200241088867
aa(lp6
S'timestamp'
p7
aF0.2764759063720703
aatp8
Rp9
.ccollections
OrderedDict
p0
((lp1
(lp2
S'state'
p3
aI0
aa(lp4
S'distance'
p5
aF375.2200241088867
aa(lp6
S'timestamp'
p7
aF0.27655792236328125
aatp8
Rp9
.ccollections
OrderedDict
p0
((lp1
(lp2
S'state'
p3
aI0
aa(lp4
S'distance'
p5
aF375.2200241088867
aa(lp6
S'timestamp'
p7
aF0.2774808406829834
aatp8
Rp9
.ccollections
OrderedDict
p0
((lp1
(lp2
S'state'
p3
aI0
aa(lp4
S'distance'
p5
aF375.2200241088867
aa(lp6
S'timestamp'
p7
aF0.27852296829223633
aatp8
Rp9
.ccollections
OrderedDict
p0
((lp1
(lp2
S'state'
p3
aI0
aa(lp4
S'distance'
p5
aF375.2200241088867
aa(lp6
S'timestamp'
p7
aF0.30600881576538086
aatp8
Rp9
.ccollections
OrderedDict
p0
((lp1
(lp2
S'state'
p3
aI0
aa(lp4
S'distance'
p5
aF375.2200241088867
aa(lp6
S'timestamp'
p7
aF0.3063778877258301
aatp8
Rp9
.ccollections
OrderedDict
p0
((lp1
(lp2
S'state'
p3
aI0
aa(lp4
S'distance'
p5
aF375.2200241088867
aa(lp6
S'timestamp'
p7
aF0.3071599006652832
aatp8
Rp9
.ccollections
OrderedDict
p0
((lp1
(lp2
S'state'
p3
aI0
aa(lp4
S'distance'
p5
aF375.2200241088867
aa(lp6
S'timestamp'
p7
aF0.3074188232421875
aatp8
Rp9
.ccollections
OrderedDict
p0
((lp1
(lp2
S'state'
p3
aI0
aa(lp4
S'distance'
p5
aF375.2200241088867
aa(lp6
S'timestamp'
p7
aF0.31609201431274414
aatp8
Rp9
.ccollections
OrderedDict
p0
((lp1
(lp2
S'state'
p3
aI0
aa(lp4
S'distance'
p5
aF375.2200241088867
aa(lp6
S'timestamp'
p7
aF0.3164219856262207
aatp8
Rp9
.ccollections
OrderedDict
p0
((lp1
(lp2
S'state'
p3
aI0
aa(lp4
S'distance'
p5
aF375.2200241088867
aa(lp6
S'timestamp'
p7
aF0.31812286376953125
aatp8
Rp9
.ccollections
OrderedDict
p0
((lp1
(lp2
S'state'
p3
aI0
aa(lp4
S'distance'
p5
aF375.2200241088867
aa(lp6
S'timestamp'
p7
aF0.31906890869140625
aatp8
Rp9
.ccollections
OrderedDict
p0
((lp1
(lp2
S'state'
p3
aI0
aa(lp4
S'distance'
p5
aF375.2200241088867
aa(lp6
S'timestamp'
p7
aF0.3260200023651123
aatp8
Rp9
.ccollections
OrderedDict
p0
((lp1
(lp2
S'state'
p3
aI0
aa(lp4
S'distance'
p5
aF375.2200241088867
aa(lp6
S'timestamp'
p7
aF0.32645487785339355
aatp8
Rp9
.ccollections
OrderedDict
p0
((lp1
(lp2
S'state'
p3
aI0
aa(lp4
S'distance'
p5
aF375.2200241088867
aa(lp6
S'timestamp'
p7
aF0.33597898483276367
aatp8
Rp9
.ccollections
OrderedDict
p0
((lp1
(lp2
S'state'
p3
aI0
aa(lp4
S'distance'
p5
aF375.2200241088867
aa(lp6
S'timestamp'
p7
aF0.33657097816467285
aatp8
Rp9
.ccollections
OrderedDict
p0
((lp1
(lp2
S'state'
p3
aI0
aa(lp4
S'distance'
p5
aF375.2200241088867
aa(lp6
S'timestamp'
p7
aF0.3459279537200928
aatp8
Rp9
.ccollections
OrderedDict
p0
((lp1
(lp2
S'state'
p3
aI0
aa(lp4
S'distance'
p5
aF375.2200241088867
aa(lp6
S'timestamp'
p7
aF0.34664392471313477
aatp8
Rp9
.ccollections
OrderedDict
p0
((lp1
(lp2
S'state'
p3
aI0
aa(lp4
S'distance'
p5
aF375.2200241088867
aa(lp6
S'timestamp'
p7
aF0.35639500617980957
aatp8
Rp9
.ccollections
OrderedDict
p0
((lp1
(lp2
S'state'
p3
aI0
aa(lp4
S'distance'
p5
aF375.2200241088867
aa(lp6
S'timestamp'
p7
aF0.35648083686828613
aatp8
Rp9
.ccollections
OrderedDict
p0
((lp1
(lp2
S'state'
p3
aI0
aa(lp4
S'distance'
p5
aF375.2200241088867
aa(lp6
S'timestamp'
p7
aF0.3760998249053955
aatp8
Rp9
.ccollections
OrderedDict
p0
((lp1
(lp2
S'state'
p3
aI0
aa(lp4
S'distance'
p5
aF375.2200241088867
aa(lp6
S'timestamp'
p7
aF0.3767049312591553
aatp8
Rp9
.ccollections
OrderedDict
p0
((lp1
(lp2
S'state'
p3
aI0
aa(lp4
S'distance'
p5
aF375.2200241088867
aa(lp6
S'timestamp'
p7
aF0.3768019676208496
aatp8
Rp9
.ccollections
OrderedDict
p0
((lp1
(lp2
S'state'
p3
aI0
aa(lp4
S'distance'
p5
aF375.2200241088867
aa(lp6
S'timestamp'
p7
aF0.3778069019317627
aatp8
Rp9
.ccollections
OrderedDict
p0
((lp1
(lp2
S'state'
p3
aI0
aa(lp4
S'distance'
p5
aF375.2200241088867
aa(lp6
S'timestamp'
p7
aF0.38602280616760254
aatp8
Rp9
.ccollections
OrderedDict
p0
((lp1
(lp2
S'state'
p3
aI0
aa(lp4
S'distance'
p5
aF375.2200241088867
aa(lp6
S'timestamp'
p7
aF0.38653087615966797
aatp8
Rp9
.ccollections
OrderedDict
p0
((lp1
(lp2
S'state'
p3
aI0
aa(lp4
S'distance'
p5
aF375.2200241088867
aa(lp6
S'timestamp'
p7
aF0.3961048126220703
aatp8
Rp9
.ccollections
OrderedDict
p0
((lp1
(lp2
S'state'
p3
aI0
aa(lp4
S'distance'
p5
aF375.2200241088867
aa(lp6
S'timestamp'
p7
aF0.39658284187316895
aatp8
Rp9
.ccollections
OrderedDict
p0
((lp1
(lp2
S'state'
p3
aI0
aa(lp4
S'distance'
p5
aF375.2200241088867
aa(lp6
S'timestamp'
p7
aF0.4063420295715332
aatp8
Rp9
.ccollections
OrderedDict
p0
((lp1
(lp2
S'state'
p3
aI0
aa(lp4
S'distance'
p5
aF375.2200241088867
aa(lp6
S'timestamp'
p7
aF0.40642499923706055
aatp8
Rp9
.ccollections
OrderedDict
p0
((lp1
(lp2
S'state'
p3
aI0
aa(lp4
S'distance'
p5
aF375.2200241088867
aa(lp6
S'timestamp'
p7
aF0.4159848690032959
aatp8
Rp9
.ccollections
OrderedDict
p0
((lp1
(lp2
S'state'
p3
aI0
aa(lp4
S'distance'
p5
aF375.2200241088867
aa(lp6
S'timestamp'
p7
aF0.41645288467407227
aatp8
Rp9
.ccollections
OrderedDict
p0
((lp1
(lp2
S'state'
p3
aI0
aa(lp4
S'distance'
p5
aF375.2200241088867
aa(lp6
S'timestamp'
p7
aF0.4261770248413086
aatp8
Rp9
.ccollections
OrderedDict
p0
((lp1
(lp2
S'state'
p3
aI0
aa(lp4
S'distance'
p5
aF375.2200241088867
aa(lp6
S'timestamp'
p7
aF0.4265708923339844
aatp8
Rp9
.ccollections
OrderedDict
p0
((lp1
(lp2
S'state'
p3
aI0
aa(lp4
S'distance'
p5
aF375.2200241088867
aa(lp6
S'timestamp'
p7
aF0.4360008239746094
aatp8
Rp9
.ccollections
OrderedDict
p0
((lp1
(lp2
S'state'
p3
aI0
aa(lp4
S'distance'
p5
aF375.2200241088867
aa(lp6
S'timestamp'
p7
aF0.4369828701019287
aatp8
Rp9
.ccollections
OrderedDict
p0
((lp1
(lp2
S'state'
p3
aI0
aa(lp4
S'distance'
p5
aF375.2200241088867
aa(lp6
S'timestamp'
p7
aF0.4563438892364502
aatp8
Rp9
.ccollections
OrderedDict
p0
((lp1
(lp2
S'state'
p3
aI0
aa(lp4
S'distance'
p5
aF375.2200241088867
aa(lp6
S'timestamp'
p7
aF0.4564208984375
aatp8
Rp9
.ccollections
OrderedDict
p0
((lp1
(lp2
S'state'
p3
aI0
aa(lp4
S'distance'
p5
aF375.2200241088867
aa(lp6
S'timestamp'
p7
aF0.4574759006500244
aatp8
Rp9
.ccollections
OrderedDict
p0
((lp1
(lp2
S'state'
p3
aI0
aa(lp4
S'distance'
p5
aF375.2200241088867
aa(lp6
S'timestamp'
p7
aF0.4585440158843994
aatp8
Rp9
.ccollections
OrderedDict
p0
((lp1
(lp2
S'state'
p3
aI0
aa(lp4
S'distance'
p5
aF375.2200241088867
aa(lp6
S'timestamp'
p7
aF0.4659578800201416
aatp8
Rp9
.ccollections
OrderedDict
p0
((lp1
(lp2
S'state'
p3
aI0
aa(lp4
S'distance'
p5
aF375.2200241088867
aa(lp6
S'timestamp'
p7
aF0.4665029048919678
aatp8
Rp9
.ccollections
OrderedDict
p0
((lp1
(lp2
S'state'
p3
aI0
aa(lp4
S'distance'
p5
aF375.2200241088867
aa(lp6
S'timestamp'
p7
aF0.4761078357696533
aatp8
Rp9
.ccollections
OrderedDict
p0
((lp1
(lp2
S'state'
p3
aI0
aa(lp4
S'distance'
p5
aF375.2200241088867
aa(lp6
S'timestamp'
p7
aF0.476503849029541
aatp8
Rp9
.ccollections
OrderedDict
p0
((lp1
(lp2
S'state'
p3
aI0
aa(lp4
S'distance'
p5
aF375.2200241088867
aa(lp6
S'timestamp'
p7
aF0.48631787300109863
aatp8
Rp9
.ccollections
OrderedDict
p0
((lp1
(lp2
S'state'
p3
aI0
aa(lp4
S'distance'
p5
aF375.2200241088867
aa(lp6
S'timestamp'
p7
aF0.4864039421081543
aatp8
Rp9
.ccollections
OrderedDict
p0
((lp1
(lp2
S'state'
p3
aI0
aa(lp4
S'distance'
p5
aF375.2200241088867
aa(lp6
S'timestamp'
p7
aF0.4964430332183838
aatp8
Rp9
.ccollections
OrderedDict
p0
((lp1
(lp2
S'state'
p3
aI0
aa(lp4
S'distance'
p5
aF375.2200241088867
aa(lp6
S'timestamp'
p7
aF0.4965229034423828
aatp8
Rp9
.ccollections
OrderedDict
p0
((lp1
(lp2
S'state'
p3
aI0
aa(lp4
S'distance'
p5
aF375.2200241088867
aa(lp6
S'timestamp'
p7
aF0.5058510303497314
aatp8
Rp9
.ccollections
OrderedDict
p0
((lp1
(lp2
S'state'
p3
aI0
aa(lp4
S'distance'
p5
aF375.2200241088867
aa(lp6
S'timestamp'
p7
aF0.5065748691558838
aatp8
Rp9
.ccollections
OrderedDict
p0
((lp1
(lp2
S'state'
p3
aI0
aa(lp4
S'distance'
p5
aF375.2200241088867
aa(lp6
S'timestamp'
p7
aF0.5160260200500488
aatp8
Rp9
.ccollections
OrderedDict
p0
((lp1
(lp2
S'state'
p3
aI0
aa(lp4
S'distance'
p5
aF375.2200241088867
aa(lp6
S'timestamp'
p7
aF0.516467809677124
aatp8
Rp9
.ccollections
OrderedDict
p0
((lp1
(lp2
S'state'
p3
aI0
aa(lp4
S'distance'
p5
aF375.2200241088867
aa(lp6
S'timestamp'
p7
aF0.5263988971710205
aatp8
Rp9
.ccollections
OrderedDict
p0
((lp1
(lp2
S'state'
p3
aI0
aa(lp4
S'distance'
p5
aF375.2200241088867
aa(lp6
S'timestamp'
p7
aF0.5264978408813477
aatp8
Rp9
.ccollections
OrderedDict
p0
((lp1
(lp2
S'state'
p3
aI0
aa(lp4
S'distance'
p5
aF375.2200241088867
aa(lp6
S'timestamp'
p7
aF0.546057939529419
aatp8
Rp9
.ccollections
OrderedDict
p0
((lp1
(lp2
S'state'
p3
aI0
aa(lp4
S'distance'
p5
aF375.2200241088867
aa(lp6
S'timestamp'
p7
aF0.5468249320983887
aatp8
Rp9
.ccollections
OrderedDict
p0
((lp1
(lp2
S'state'
p3
aI0
aa(lp4
S'distance'
p5
aF375.2200241088867
aa(lp6
S'timestamp'
p7
aF0.5484609603881836
aatp8
Rp9
.ccollections
OrderedDict
p0
((lp1
(lp2
S'state'
p3
aI0
aa(lp4
S'distance'
p5
aF375.2200241088867
aa(lp6
S'timestamp'
p7
aF0.549407958984375
aatp8
Rp9
.ccollections
OrderedDict
p0
((lp1
(lp2
S'state'
p3
aI0
aa(lp4
S'distance'
p5
aF375.2200241088867
aa(lp6
S'timestamp'
p7
aF0.5560479164123535
aatp8
Rp9
.ccollections
OrderedDict
p0
((lp1
(lp2
S'state'
p3
aI0
aa(lp4
S'distance'
p5
aF375.2200241088867
aa(lp6
S'timestamp'
p7
aF0.556459903717041
aatp8
Rp9
.ccollections
OrderedDict
p0
((lp1
(lp2
S'state'
p3
aI0
aa(lp4
S'distance'
p5
aF375.2200241088867
aa(lp6
S'timestamp'
p7
aF0.5763809680938721
aatp8
Rp9
.ccollections
OrderedDict
p0
((lp1
(lp2
S'state'
p3
aI0
aa(lp4
S'distance'
p5
aF375.2200241088867
aa(lp6
S'timestamp'
p7
aF0.5764570236206055
aatp8
Rp9
.ccollections
OrderedDict
p0
((lp1
(lp2
S'state'
p3
aI0
aa(lp4
S'distance'
p5
aF375.2200241088867
aa(lp6
S'timestamp'
p7
aF0.577380895614624
aatp8
Rp9
.ccollections
OrderedDict
p0
((lp1
(lp2
S'state'
p3
aI0
aa(lp4
S'distance'
p5
aF375.2200241088867
aa(lp6
S'timestamp'
p7
aF0.5785388946533203
aatp8
Rp9
.ccollections
OrderedDict
p0
((lp1
(lp2
S'state'
p3
aI0
aa(lp4
S'distance'
p5
aF375.2200241088867
aa(lp6
S'timestamp'
p7
aF0.5861058235168457
aatp8
Rp9
.ccollections
OrderedDict
p0
((lp1
(lp2
S'state'
p3
aI0
aa(lp4
S'distance'
p5
aF375.2200241088867
aa(lp6
S'timestamp'
p7
aF0.5864608287811279
aatp8
Rp9
.ccollections
OrderedDict
p0
((lp1
(lp2
S'state'
p3
aI0
aa(lp4
S'distance'
p5
aF375.2200241088867
aa(lp6
S'timestamp'
p7
aF0.5961558818817139
aatp8
Rp9
.ccollections
OrderedDict
p0
((lp1
(lp2
S'state'
p3
aI0
aa(lp4
S'distance'
p5
aF375.2200241088867
aa(lp6
S'timestamp'
p7
aF0.5964999198913574
aatp8
Rp9
.ccollections
OrderedDict
p0
((lp1
(lp2
S'state'
p3
aI0
aa(lp4
S'distance'
p5
aF375.2200241088867
aa(lp6
S'timestamp'
p7
aF0.6067168712615967
aatp8
Rp9
.ccollections
OrderedDict
p0
((lp1
(lp2
S'state'
p3
aI0
aa(lp4
S'distance'
p5
aF375.2200241088867
aa(lp6
S'timestamp'
p7
aF0.6069469451904297
aatp8
Rp9
.ccollections
OrderedDict
p0
((lp1
(lp2
S'state'
p3
aI0
aa(lp4
S'distance'
p5
aF375.2200241088867
aa(lp6
S'timestamp'
p7
aF0.616257905960083
aatp8
Rp9
.ccollections
OrderedDict
p0
((lp1
(lp2
S'state'
p3
aI0
aa(lp4
S'distance'
p5
aF375.2200241088867
aa(lp6
S'timestamp'
p7
aF0.616736888885498
aatp8
Rp9
.ccollections
OrderedDict
p0
((lp1
(lp2
S'state'
p3
aI0
aa(lp4
S'distance'
p5
aF375.2200241088867
aa(lp6
S'timestamp'
p7
aF0.6258659362792969
aatp8
Rp9
.ccollections
OrderedDict
p0
((lp1
(lp2
S'state'
p3
aI0
aa(lp4
S'distance'
p5
aF375.2200241088867
aa(lp6
S'timestamp'
p7
aF0.6265909671783447
aatp8
Rp9
.ccollections
OrderedDict
p0
((lp1
(lp2
S'state'
p3
aI0
aa(lp4
S'distance'
p5
aF375.2200241088867
aa(lp6
S'timestamp'
p7
aF0.6361868381500244
aatp8
Rp9
.ccollections
OrderedDict
p0
((lp1
(lp2
S'state'
p3
aI0
aa(lp4
S'distance'
p5
aF375.2200241088867
aa(lp6
S'timestamp'
p7
aF0.6365559101104736
aatp8
Rp9
.ccollections
OrderedDict
p0
((lp1
(lp2
S'state'
p3
aI0
aa(lp4
S'distance'
p5
aF375.2200241088867
aa(lp6
S'timestamp'
p7
aF0.6459498405456543
aatp8
Rp9
.ccollections
OrderedDict
p0
((lp1
(lp2
S'state'
p3
aI0
aa(lp4
S'distance'
p5
aF375.2200241088867
aa(lp6
S'timestamp'
p7
aF0.6466059684753418
aatp8
Rp9
.ccollections
OrderedDict
p0
((lp1
(lp2
S'state'
p3
aI0
aa(lp4
S'distance'
p5
aF375.2200241088867
aa(lp6
S'timestamp'
p7
aF0.6562058925628662
aatp8
Rp9
.ccollections
OrderedDict
p0
((lp1
(lp2
S'state'
p3
aI0
aa(lp4
S'distance'
p5
aF375.2200241088867
aa(lp6
S'timestamp'
p7
aF0.6564929485321045
aatp8
Rp9
.ccollections
OrderedDict
p0
((lp1
(lp2
S'state'
p3
aI0
aa(lp4
S'distance'
p5
aF375.2200241088867
aa(lp6
S'timestamp'
p7
aF0.6863160133361816
aatp8
Rp9
.ccollections
OrderedDict
p0
((lp1
(lp2
S'state'
p3
aI0
aa(lp4
S'distance'
p5
aF375.2200241088867
aa(lp6
S'timestamp'
p7
aF0.6863949298858643
aatp8
Rp9
.ccollections
OrderedDict
p0
((lp1
(lp2
S'state'
p3
aI0
aa(lp4
S'distance'
p5
aF375.2200241088867
aa(lp6
S'timestamp'
p7
aF0.6879458427429199
aatp8
Rp9
.ccollections
OrderedDict
p0
((lp1
(lp2
S'state'
p3
aI0
aa(lp4
S'distance'
p5
aF375.2200241088867
aa(lp6
S'timestamp'
p7
aF0.6886768341064453
aatp8
Rp9
.ccollections
OrderedDict
p0
((lp1
(lp2
S'state'
p3
aI0
aa(lp4
S'distance'
p5
aF375.2200241088867
aa(lp6
S'timestamp'
p7
aF0.6963179111480713
aatp8
Rp9
.ccollections
OrderedDict
p0
((lp1
(lp2
S'state'
p3
aI0
aa(lp4
S'distance'
p5
aF375.2200241088867
aa(lp6
S'timestamp'
p7
aF0.6963968276977539
aatp8
Rp9
.ccollections
OrderedDict
p0
((lp1
(lp2
S'state'
p3
aI0
aa(lp4
S'distance'
p5
aF375.2200241088867
aa(lp6
S'timestamp'
p7
aF0.697458028793335
aatp8
Rp9
.ccollections
OrderedDict
p0
((lp1
(lp2
S'state'
p3
aI0
aa(lp4
S'distance'
p5
aF375.2200241088867
aa(lp6
S'timestamp'
p7
aF0.6984829902648926
aatp8
Rp9
.ccollections
OrderedDict
p0
((lp1
(lp2
S'state'
p3
aI0
aa(lp4
S'distance'
p5
aF375.2200241088867
aa(lp6
S'timestamp'
p7
aF0.7059628963470459
aatp8
Rp9
.ccollections
OrderedDict
p0
((lp1
(lp2
S'state'
p3
aI0
aa(lp4
S'distance'
p5
aF375.2200241088867
aa(lp6
S'timestamp'
p7
aF0.7066318988800049
aatp8
Rp9
.ccollections
OrderedDict
p0
((lp1
(lp2
S'state'
p3
aI0
aa(lp4
S'distance'
p5
aF375.2200241088867
aa(lp6
S'timestamp'
p7
aF0.7160840034484863
aatp8
Rp9
.ccollections
OrderedDict
p0
((lp1
(lp2
S'state'
p3
aI0
aa(lp4
S'distance'
p5
aF375.2200241088867
aa(lp6
S'timestamp'
p7
aF0.7164649963378906
aatp8
Rp9
.ccollections
OrderedDict
p0
((lp1
(lp2
S'state'
p3
aI0
aa(lp4
S'distance'
p5
aF375.2200241088867
aa(lp6
S'timestamp'
p7
aF0.7264118194580078
aatp8
Rp9
.ccollections
OrderedDict
p0
((lp1
(lp2
S'state'
p3
aI0
aa(lp4
S'distance'
p5
aF375.2200241088867
aa(lp6
S'timestamp'
p7
aF0.7264938354492188
aatp8
Rp9
.ccollections
OrderedDict
p0
((lp1
(lp2
S'state'
p3
aI0
aa(lp4
S'distance'
p5
aF375.2200241088867
aa(lp6
S'timestamp'
p7
aF0.7359118461608887
aatp8
Rp9
.ccollections
OrderedDict
p0
((lp1
(lp2
S'state'
p3
aI0
aa(lp4
S'distance'
p5
aF375.2200241088867
aa(lp6
S'timestamp'
p7
aF0.7365248203277588
aatp8
Rp9
.ccollections
OrderedDict
p0
((lp1
(lp2
S'state'
p3
aI0
aa(lp4
S'distance'
p5
aF375.2200241088867
aa(lp6
S'timestamp'
p7
aF0.7460029125213623
aatp8
Rp9
.ccollections
OrderedDict
p0
((lp1
(lp2
S'state'
p3
aI0
aa(lp4
S'distance'
p5
aF375.2200241088867
aa(lp6
S'timestamp'
p7
aF0.7466440200805664
aatp8
Rp9
.ccollections
OrderedDict
p0
((lp1
(lp2
S'state'
p3
aI0
aa(lp4
S'distance'
p5
aF375.2200241088867
aa(lp6
S'timestamp'
p7
aF0.7561459541320801
aatp8
Rp9
.ccollections
OrderedDict
p0
((lp1
(lp2
S'state'
p3
aI0
aa(lp4
S'distance'
p5
aF375.2200241088867
aa(lp6
S'timestamp'
p7
aF0.7564468383789062
aatp8
Rp9
.ccollections
OrderedDict
p0
((lp1
(lp2
S'state'
p3
aI0
aa(lp4
S'distance'
p5
aF375.2200241088867
aa(lp6
S'timestamp'
p7
aF0.7661688327789307
aatp8
Rp9
.ccollections
OrderedDict
p0
((lp1
(lp2
S'state'
p3
aI0
aa(lp4
S'distance'
p5
aF375.2200241088867
aa(lp6
S'timestamp'
p7
aF0.7664539813995361
aatp8
Rp9
.ccollections
OrderedDict
p0
((lp1
(lp2
S'state'
p3
aI0
aa(lp4
S'distance'
p5
aF375.2200241088867
aa(lp6
S'timestamp'
p7
aF0.7759988307952881
aatp8
Rp9
.ccollections
OrderedDict
p0
((lp1
(lp2
S'state'
p3
aI0
aa(lp4
S'distance'
p5
aF375.2200241088867
aa(lp6
S'timestamp'
p7
aF0.7764840126037598
aatp8
Rp9
.ccollections
OrderedDict
p0
((lp1
(lp2
S'state'
p3
aI0
aa(lp4
S'distance'
p5
aF375.2200241088867
aa(lp6
S'timestamp'
p7
aF0.7859828472137451
aatp8
Rp9
.ccollections
OrderedDict
p0
((lp1
(lp2
S'state'
p3
aI0
aa(lp4
S'distance'
p5
aF375.2200241088867
aa(lp6
S'timestamp'
p7
aF0.7865560054779053
aatp8
Rp9
.ccollections
OrderedDict
p0
((lp1
(lp2
S'state'
p3
aI0
aa(lp4
S'distance'
p5
aF375.2200241088867
aa(lp6
S'timestamp'
p7
aF0.796440839767456
aatp8
Rp9
.ccollections
OrderedDict
p0
((lp1
(lp2
S'state'
p3
aI0
aa(lp4
S'distance'
p5
aF375.2200241088867
aa(lp6
S'timestamp'
p7
aF0.7965779304504395
aatp8
Rp9
.ccollections
OrderedDict
p0
((lp1
(lp2
S'state'
p3
aI0
aa(lp4
S'distance'
p5
aF375.2200241088867
aa(lp6
S'timestamp'
p7
aF0.8061468601226807
aatp8
Rp9
.ccollections
OrderedDict
p0
((lp1
(lp2
S'state'
p3
aI0
aa(lp4
S'distance'
p5
aF375.2200241088867
aa(lp6
S'timestamp'
p7
aF0.8064618110656738
aatp8
Rp9
.ccollections
OrderedDict
p0
((lp1
(lp2
S'state'
p3
aI0
aa(lp4
S'distance'
p5
aF375.2200241088867
aa(lp6
S'timestamp'
p7
aF0.815985918045044
aatp8
Rp9
.ccollections
OrderedDict
p0
((lp1
(lp2
S'state'
p3
aI0
aa(lp4
S'distance'
p5
aF375.2200241088867
aa(lp6
S'timestamp'
p7
aF0.8165218830108643
aatp8
Rp9
.ccollections
OrderedDict
p0
((lp1
(lp2
S'state'
p3
aI0
aa(lp4
S'distance'
p5
aF375.2200241088867
aa(lp6
S'timestamp'
p7
aF0.8260948657989502
aatp8
Rp9
.ccollections
OrderedDict
p0
((lp1
(lp2
S'state'
p3
aI0
aa(lp4
S'distance'
p5
aF375.2200241088867
aa(lp6
S'timestamp'
p7
aF0.8265838623046875
aatp8
Rp9
.ccollections
OrderedDict
p0
((lp1
(lp2
S'state'
p3
aI0
aa(lp4
S'distance'
p5
aF375.2200241088867
aa(lp6
S'timestamp'
p7
aF0.8363308906555176
aatp8
Rp9
.ccollections
OrderedDict
p0
((lp1
(lp2
S'state'
p3
aI0
aa(lp4
S'distance'
p5
aF375.2200241088867
aa(lp6
S'timestamp'
p7
aF0.8364179134368896
aatp8
Rp9
.ccollections
OrderedDict
p0
((lp1
(lp2
S'state'
p3
aI0
aa(lp4
S'distance'
p5
aF375.2200241088867
aa(lp6
S'timestamp'
p7
aF0.8559138774871826
aatp8
Rp9
.ccollections
OrderedDict
p0
((lp1
(lp2
S'state'
p3
aI0
aa(lp4
S'distance'
p5
aF375.2200241088867
aa(lp6
S'timestamp'
p7
aF0.8564269542694092
aatp8
Rp9
.ccollections
OrderedDict
p0
((lp1
(lp2
S'state'
p3
aI0
aa(lp4
S'distance'
p5
aF375.2200241088867
aa(lp6
S'timestamp'
p7
aF0.8581268787384033
aatp8
Rp9
.ccollections
OrderedDict
p0
((lp1
(lp2
S'state'
p3
aI0
aa(lp4
S'distance'
p5
aF375.2200241088867
aa(lp6
S'timestamp'
p7
aF0.8589940071105957
aatp8
Rp9
.ccollections
OrderedDict
p0
((lp1
(lp2
S'state'
p3
aI0
aa(lp4
S'distance'
p5
aF375.2200241088867
aa(lp6
S'timestamp'
p7
aF0.8658590316772461
aatp8
Rp9
.ccollections
OrderedDict
p0
((lp1
(lp2
S'state'
p3
aI0
aa(lp4
S'distance'
p5
aF375.2200241088867
aa(lp6
S'timestamp'
p7
aF0.8665080070495605
aatp8
Rp9
.ccollections
OrderedDict
p0
((lp1
(lp2
S'state'
p3
aI0
aa(lp4
S'distance'
p5
aF375.2200241088867
aa(lp6
S'timestamp'
p7
aF0.8762929439544678
aatp8
Rp9
.ccollections
OrderedDict
p0
((lp1
(lp2
S'state'
p3
aI0
aa(lp4
S'distance'
p5
aF375.2200241088867
aa(lp6
S'timestamp'
p7
aF0.8764069080352783
aatp8
Rp9
.ccollections
OrderedDict
p0
((lp1
(lp2
S'state'
p3
aI0
aa(lp4
S'distance'
p5
aF375.2200241088867
aa(lp6
S'timestamp'
p7
aF0.8859570026397705
aatp8
Rp9
.ccollections
OrderedDict
p0
((lp1
(lp2
S'state'
p3
aI0
aa(lp4
S'distance'
p5
aF375.2200241088867
aa(lp6
S'timestamp'
p7
aF0.8865809440612793
aatp8
Rp9
.ccollections
OrderedDict
p0
((lp1
(lp2
S'state'
p3
aI0
aa(lp4
S'distance'
p5
aF375.2200241088867
aa(lp6
S'timestamp'
p7
aF0.8959879875183105
aatp8
Rp9
.ccollections
OrderedDict
p0
((lp1
(lp2
S'state'
p3
aI0
aa(lp4
S'distance'
p5
aF375.2200241088867
aa(lp6
S'timestamp'
p7
aF0.8964798450469971
aatp8
Rp9
.ccollections
OrderedDict
p0
((lp1
(lp2
S'state'
p3
aI0
aa(lp4
S'distance'
p5
aF375.2200241088867
aa(lp6
S'timestamp'
p7
aF0.905987024307251
aatp8
Rp9
.ccollections
OrderedDict
p0
((lp1
(lp2
S'state'
p3
aI0
aa(lp4
S'distance'
p5
aF375.2200241088867
aa(lp6
S'timestamp'
p7
aF0.9064478874206543
aatp8
Rp9
.ccollections
OrderedDict
p0
((lp1
(lp2
S'state'
p3
aI0
aa(lp4
S'distance'
p5
aF375.2200241088867
aa(lp6
S'timestamp'
p7
aF0.9161789417266846
aatp8
Rp9
.ccollections
OrderedDict
p0
((lp1
(lp2
S'state'
p3
aI0
aa(lp4
S'distance'
p5
aF375.2200241088867
aa(lp6
S'timestamp'
p7
aF0.916982889175415
aatp8
Rp9
.ccollections
OrderedDict
p0
((lp1
(lp2
S'state'
p3
aI0
aa(lp4
S'distance'
p5
aF375.2200241088867
aa(lp6
S'timestamp'
p7
aF0.9258019924163818
aatp8
Rp9
.ccollections
OrderedDict
p0
((lp1
(lp2
S'state'
p3
aI0
aa(lp4
S'distance'
p5
aF375.2200241088867
aa(lp6
S'timestamp'
p7
aF0.9265849590301514
aatp8
Rp9
.ccollections
OrderedDict
p0
((lp1
(lp2
S'state'
p3
aI0
aa(lp4
S'distance'
p5
aF375.2200241088867
aa(lp6
S'timestamp'
p7
aF0.9362249374389648
aatp8
Rp9
.ccollections
OrderedDict
p0
((lp1
(lp2
S'state'
p3
aI0
aa(lp4
S'distance'
p5
aF375.2200241088867
aa(lp6
S'timestamp'
p7
aF0.9365439414978027
aatp8
Rp9
.ccollections
OrderedDict
p0
((lp1
(lp2
S'state'
p3
aI0
aa(lp4
S'distance'
p5
aF375.2200241088867
aa(lp6
S'timestamp'
p7
aF0.9460158348083496
aatp8
Rp9
.ccollections
OrderedDict
p0
((lp1
(lp2
S'state'
p3
aI0
aa(lp4
S'distance'
p5
aF375.2200241088867
aa(lp6
S'timestamp'
p7
aF0.9467008113861084
aatp8
Rp9
.ccollections
OrderedDict
p0
((lp1
(lp2
S'state'
p3
aI0
aa(lp4
S'distance'
p5
aF375.2200241088867
aa(lp6
S'timestamp'
p7
aF0.9561929702758789
aatp8
Rp9
.ccollections
OrderedDict
p0
((lp1
(lp2
S'state'
p3
aI0
aa(lp4
S'distance'
p5
aF375.2200241088867
aa(lp6
S'timestamp'
p7
aF0.9565749168395996
aatp8
Rp9
.ccollections
OrderedDict
p0
((lp1
(lp2
S'state'
p3
aI0
aa(lp4
S'distance'
p5
aF375.2200241088867
aa(lp6
S'timestamp'
p7
aF0.9664280414581299
aatp8
Rp9
.ccollections
OrderedDict
p0
((lp1
(lp2
S'state'
p3
aI0
aa(lp4
S'distance'
p5
aF375.2200241088867
aa(lp6
S'timestamp'
p7
aF0.9665179252624512
aatp8
Rp9
.ccollections
OrderedDict
p0
((lp1
(lp2
S'state'
p3
aI0
aa(lp4
S'distance'
p5
aF375.2200241088867
aa(lp6
S'timestamp'
p7
aF0.9764080047607422
aatp8
Rp9
.ccollections
OrderedDict
p0
((lp1
(lp2
S'state'
p3
aI0
aa(lp4
S'distance'
p5
aF375.2200241088867
aa(lp6
S'timestamp'
p7
aF0.9771850109100342
aatp8
Rp9
.ccollections
OrderedDict
p0
((lp1
(lp2
S'state'
p3
aI0
aa(lp4
S'distance'
p5
aF375.2200241088867
aa(lp6
S'timestamp'
p7
aF0.9872000217437744
aatp8
Rp9
.ccollections
OrderedDict
p0
((lp1
(lp2
S'state'
p3
aI0
aa(lp4
S'distance'
p5
aF375.2200241088867
aa(lp6
S'timestamp'
p7
aF0.9875149726867676
aatp8
Rp9
.ccollections
OrderedDict
p0
((lp1
(lp2
S'state'
p3
aI0
aa(lp4
S'distance'
p5
aF375.2200241088867
aa(lp6
S'timestamp'
p7
aF0.9959948062896729
aatp8
Rp9
.ccollections
OrderedDict
p0
((lp1
(lp2
S'state'
p3
aI0
aa(lp4
S'distance'
p5
aF375.2200241088867
aa(lp6
S'timestamp'
p7
aF0.9966030120849609
aatp8
Rp9
.ccollections
OrderedDict
p0
((lp1
(lp2
S'state'
p3
aI0
aa(lp4
S'distance'
p5
aF375.2200241088867
aa(lp6
S'timestamp'
p7
aF1.005821943283081
aatp8
Rp9
.ccollections
OrderedDict
p0
((lp1
(lp2
S'state'
p3
aI0
aa(lp4
S'distance'
p5
aF375.2200241088867
aa(lp6
S'timestamp'
p7
aF1.0064969062805176
aatp8
Rp9
.ccollections
OrderedDict
p0
((lp1
(lp2
S'state'
p3
aI0
aa(lp4
S'distance'
p5
aF375.2200241088867
aa(lp6
S'timestamp'
p7
aF1.0163509845733643
aatp8
Rp9
.ccollections
OrderedDict
p0
((lp1
(lp2
S'state'
p3
aI0
aa(lp4
S'distance'
p5
aF375.2200241088867
aa(lp6
S'timestamp'
p7
aF1.0164308547973633
aatp8
Rp9
.ccollections
OrderedDict
p0
((lp1
(lp2
S'state'
p3
aI0
aa(lp4
S'distance'
p5
aF375.2200241088867
aa(lp6
S'timestamp'
p7
aF1.0259718894958496
aatp8
Rp9
.ccollections
OrderedDict
p0
((lp1
(lp2
S'state'
p3
aI0
aa(lp4
S'distance'
p5
aF375.2200241088867
aa(lp6
S'timestamp'
p7
aF1.026425838470459
aatp8
Rp9
.ccollections
OrderedDict
p0
((lp1
(lp2
S'state'
p3
aI0
aa(lp4
S'distance'
p5
aF375.2200241088867
aa(lp6
S'timestamp'
p7
aF1.0364630222320557
aatp8
Rp9
.ccollections
OrderedDict
p0
((lp1
(lp2
S'state'
p3
aI0
aa(lp4
S'distance'
p5
aF375.2200241088867
aa(lp6
S'timestamp'
p7
aF1.036545991897583
aatp8
Rp9
.ccollections
OrderedDict
p0
((lp1
(lp2
S'state'
p3
aI0
aa(lp4
S'distance'
p5
aF375.2200241088867
aa(lp6
S'timestamp'
p7
aF1.0466029644012451
aatp8
Rp9
.ccollections
OrderedDict
p0
((lp1
(lp2
S'state'
p3
aI0
aa(lp4
S'distance'
p5
aF375.2200241088867
aa(lp6
S'timestamp'
p7
aF1.0472500324249268
aatp8
Rp9
.ccollections
OrderedDict
p0
((lp1
(lp2
S'state'
p3
aI0
aa(lp4
S'distance'
p5
aF375.2200241088867
aa(lp6
S'timestamp'
p7
aF1.0660078525543213
aatp8
Rp9
.ccollections
OrderedDict
p0
((lp1
(lp2
S'state'
p3
aI0
aa(lp4
S'distance'
p5
aF375.2200241088867
aa(lp6
S'timestamp'
p7
aF1.0662949085235596
aatp8
Rp9
.ccollections
OrderedDict
p0
((lp1
(lp2
S'state'
p3
aI0
aa(lp4
S'distance'
p5
aF375.2200241088867
aa(lp6
S'timestamp'
p7
aF1.0669419765472412
aatp8
Rp9
.ccollections
OrderedDict
p0
((lp1
(lp2
S'state'
p3
aI0
aa(lp4
S'distance'
p5
aF375.2200241088867
aa(lp6
S'timestamp'
p7
aF1.067368984222412
aatp8
Rp9
.ccollections
OrderedDict
p0
((lp1
(lp2
S'state'
p3
aI0
aa(lp4
S'distance'
p5
aF375.2200241088867
aa(lp6
S'timestamp'
p7
aF1.0761518478393555
aatp8
Rp9
.ccollections
OrderedDict
p0
((lp1
(lp2
S'state'
p3
aI0
aa(lp4
S'distance'
p5
aF375.2200241088867
aa(lp6
S'timestamp'
p7
aF1.0765049457550049
aatp8
Rp9
.ccollections
OrderedDict
p0
((lp1
(lp2
S'state'
p3
aI0
aa(lp4
S'distance'
p5
aF375.2200241088867
aa(lp6
S'timestamp'
p7
aF1.0861048698425293
aatp8
Rp9
.ccollections
OrderedDict
p0
((lp1
(lp2
S'state'
p3
aI0
aa(lp4
S'distance'
p5
aF375.2200241088867
aa(lp6
S'timestamp'
p7
aF1.0863959789276123
aatp8
Rp9
.ccollections
OrderedDict
p0
((lp1
(lp2
S'state'
p3
aI0
aa(lp4
S'distance'
p5
aF375.2200241088867
aa(lp6
S'timestamp'
p7
aF1.0963809490203857
aatp8
Rp9
.ccollections
OrderedDict
p0
((lp1
(lp2
S'state'
p3
aI0
aa(lp4
S'distance'
p5
aF375.2200241088867
aa(lp6
S'timestamp'
p7
aF1.096458911895752
aatp8
Rp9
.ccollections
OrderedDict
p0
((lp1
(lp2
S'state'
p3
aI0
aa(lp4
S'distance'
p5
aF375.2200241088867
aa(lp6
S'timestamp'
p7
aF1.1059508323669434
aatp8
Rp9
.ccollections
OrderedDict
p0
((lp1
(lp2
S'state'
p3
aI0
aa(lp4
S'distance'
p5
aF375.2200241088867
aa(lp6
S'timestamp'
p7
aF1.1064329147338867
aatp8
Rp9
.ccollections
OrderedDict
p0
((lp1
(lp2
S'state'
p3
aI0
aa(lp4
S'distance'
p5
aF375.2200241088867
aa(lp6
S'timestamp'
p7
aF1.1161248683929443
aatp8
Rp9
.ccollections
OrderedDict
p0
((lp1
(lp2
S'state'
p3
aI0
aa(lp4
S'distance'
p5
aF375.2200241088867
aa(lp6
S'timestamp'
p7
aF1.1166260242462158
aatp8
Rp9
.ccollections
OrderedDict
p0
((lp1
(lp2
S'state'
p3
aI0
aa(lp4
S'distance'
p5
aF375.2200241088867
aa(lp6
S'timestamp'
p7
aF1.1263070106506348
aatp8
Rp9
.ccollections
OrderedDict
p0
((lp1
(lp2
S'state'
p3
aI0
aa(lp4
S'distance'
p5
aF375.2200241088867
aa(lp6
S'timestamp'
p7
aF1.1263978481292725
aatp8
Rp9
.ccollections
OrderedDict
p0
((lp1
(lp2
S'state'
p3
aI0
aa(lp4
S'distance'
p5
aF375.2200241088867
aa(lp6
S'timestamp'
p7
aF1.1363708972930908
aatp8
Rp9
.ccollections
OrderedDict
p0
((lp1
(lp2
S'state'
p3
aI0
aa(lp4
S'distance'
p5
aF375.2200241088867
aa(lp6
S'timestamp'
p7
aF1.1459689140319824
aatp8
Rp9
.ccollections
OrderedDict
p0
((lp1
(lp2
S'state'
p3
aI0
aa(lp4
S'distance'
p5
aF375.2200241088867
aa(lp6
S'timestamp'
p7
aF1.146310806274414
aatp8
Rp9
.ccollections
OrderedDict
p0
((lp1
(lp2
S'state'
p3
aI0
aa(lp4
S'distance'
p5
aF375.2200241088867
aa(lp6
S'timestamp'
p7
aF1.147110939025879
aatp8
Rp9
.ccollections
OrderedDict
p0
((lp1
(lp2
S'state'
p3
aI0
aa(lp4
S'distance'
p5
aF375.2200241088867
aa(lp6
S'timestamp'
p7
aF1.1563098430633545
aatp8
Rp9
.ccollections
OrderedDict
p0
((lp1
(lp2
S'state'
p3
aI0
aa(lp4
S'distance'
p5
aF375.2200241088867
aa(lp6
S'timestamp'
p7
aF1.1564159393310547
aatp8
Rp9
.ccollections
OrderedDict
p0
((lp1
(lp2
S'state'
p3
aI0
aa(lp4
S'distance'
p5
aF375.2200241088867
aa(lp6
S'timestamp'
p7
aF1.1663739681243896
aatp8
Rp9
.ccollections
OrderedDict
p0
((lp1
(lp2
S'state'
p3
aI0
aa(lp4
S'distance'
p5
aF375.2200241088867
aa(lp6
S'timestamp'
p7
aF1.1664538383483887
aatp8
Rp9
.ccollections
OrderedDict
p0
((lp1
(lp2
S'state'
p3
aI0
aa(lp4
S'distance'
p5
aF375.2200241088867
aa(lp6
S'timestamp'
p7
aF1.1762759685516357
aatp8
Rp9
.ccollections
OrderedDict
p0
((lp1
(lp2
S'state'
p3
aI0
aa(lp4
S'distance'
p5
aF375.2200241088867
aa(lp6
S'timestamp'
p7
aF1.1863210201263428
aatp8
Rp9
.ccollections
OrderedDict
p0
((lp1
(lp2
S'state'
p3
aI0
aa(lp4
S'distance'
p5
aF375.2200241088867
aa(lp6
S'timestamp'
p7
aF1.187180995941162
aatp8
Rp9
.ccollections
OrderedDict
p0
((lp1
(lp2
S'state'
p3
aI0
aa(lp4
S'distance'
p5
aF375.2200241088867
aa(lp6
S'timestamp'
p7
aF1.1886818408966064
aatp8
Rp9
.ccollections
OrderedDict
p0
((lp1
(lp2
S'state'
p3
aI0
aa(lp4
S'distance'
p5
aF375.2200241088867
aa(lp6
S'timestamp'
p7
aF1.1962859630584717
aatp8
Rp9
.ccollections
OrderedDict
p0
((lp1
(lp2
S'state'
p3
aI0
aa(lp4
S'distance'
p5
aF375.2200241088867
aa(lp6
S'timestamp'
p7
aF1.1965179443359375
aatp8
Rp9
.ccollections
OrderedDict
p0
((lp1
(lp2
S'state'
p3
aI0
aa(lp4
S'distance'
p5
aF375.2200241088867
aa(lp6
S'timestamp'
p7
aF1.2070388793945312
aatp8
Rp9
.ccollections
OrderedDict
p0
((lp1
(lp2
S'state'
p3
aI0
aa(lp4
S'distance'
p5
aF375.2200241088867
aa(lp6
S'timestamp'
p7
aF1.207190990447998
aatp8
Rp9
.ccollections
OrderedDict
p0
((lp1
(lp2
S'state'
p3
aI0
aa(lp4
S'distance'
p5
aF375.2200241088867
aa(lp6
S'timestamp'
p7
aF1.2166898250579834
aatp8
Rp9
.ccollections
OrderedDict
p0
((lp1
(lp2
S'state'
p3
aI0
aa(lp4
S'distance'
p5
aF375.2200241088867
aa(lp6
S'timestamp'
p7
aF1.2170588970184326
aatp8
Rp9
.ccollections
OrderedDict
p0
((lp1
(lp2
S'state'
p3
aI0
aa(lp4
S'distance'
p5
aF375.2200241088867
aa(lp6
S'timestamp'
p7
aF1.226099967956543
aatp8
Rp9
.ccollections
OrderedDict
p0
((lp1
(lp2
S'state'
p3
aI0
aa(lp4
S'distance'
p5
aF375.2200241088867
aa(lp6
S'timestamp'
p7
aF1.22639799118042
aatp8
Rp9
.ccollections
OrderedDict
p0
((lp1
(lp2
S'state'
p3
aI0
aa(lp4
S'distance'
p5
aF375.2200241088867
aa(lp6
S'timestamp'
p7
aF1.2362959384918213
aatp8
Rp9
.ccollections
OrderedDict
p0
((lp1
(lp2
S'state'
p3
aI0
aa(lp4
S'distance'
p5
aF375.2200241088867
aa(lp6
S'timestamp'
p7
aF1.2363858222961426
aatp8
Rp9
.ccollections
OrderedDict
p0
((lp1
(lp2
S'state'
p3
aI0
aa(lp4
S'distance'
p5
aF375.2200241088867
aa(lp6
S'timestamp'
p7
aF1.2459478378295898
aatp8
Rp9
.ccollections
OrderedDict
p0
((lp1
(lp2
S'state'
p3
aI0
aa(lp4
S'distance'
p5
aF375.2200241088867
aa(lp6
S'timestamp'
p7
aF1.2464599609375
aatp8
Rp9
.ccollections
OrderedDict
p0
((lp1
(lp2
S'state'
p3
aI0
aa(lp4
S'distance'
p5
aF375.2200241088867
aa(lp6
S'timestamp'
p7
aF1.2563560009002686
aatp8
Rp9
.ccollections
OrderedDict
p0
((lp1
(lp2
S'state'
p3
aI0
aa(lp4
S'distance'
p5
aF375.2200241088867
aa(lp6
S'timestamp'
p7
aF1.2565019130706787
aatp8
Rp9
.ccollections
OrderedDict
p0
((lp1
(lp2
S'state'
p3
aI0
aa(lp4
S'distance'
p5
aF375.2200241088867
aa(lp6
S'timestamp'
p7
aF1.2659289836883545
aatp8
Rp9
.ccollections
OrderedDict
p0
((lp1
(lp2
S'state'
p3
aI0
aa(lp4
S'distance'
p5
aF375.2200241088867
aa(lp6
S'timestamp'
p7
aF1.2664809226989746
aatp8
Rp9
.ccollections
OrderedDict
p0
((lp1
(lp2
S'state'
p3
aI0
aa(lp4
S'distance'
p5
aF375.2200241088867
aa(lp6
S'timestamp'
p7
aF1.2862768173217773
aatp8
Rp9
.ccollections
OrderedDict
p0
((lp1
(lp2
S'state'
p3
aI0
aa(lp4
S'distance'
p5
aF375.2200241088867
aa(lp6
S'timestamp'
p7
aF1.2863609790802002
aatp8
Rp9
.ccollections
OrderedDict
p0
((lp1
(lp2
S'state'
p3
aI0
aa(lp4
S'distance'
p5
aF375.2200241088867
aa(lp6
S'timestamp'
p7
aF1.2880330085754395
aatp8
Rp9
.ccollections
OrderedDict
p0
((lp1
(lp2
S'state'
p3
aI0
aa(lp4
S'distance'
p5
aF375.2200241088867
aa(lp6
S'timestamp'
p7
aF1.2890939712524414
aatp8
Rp9
.ccollections
OrderedDict
p0
((lp1
(lp2
S'state'
p3
aI0
aa(lp4
S'distance'
p5
aF375.2200241088867
aa(lp6
S'timestamp'
p7
aF1.29634690284729
aatp8
Rp9
.ccollections
OrderedDict
p0
((lp1
(lp2
S'state'
p3
aI0
aa(lp4
S'distance'
p5
aF375.2200241088867
aa(lp6
S'timestamp'
p7
aF1.2964718341827393
aatp8
Rp9
.ccollections
OrderedDict
p0
((lp1
(lp2
S'state'
p3
aI0
aa(lp4
S'distance'
p5
aF375.2200241088867
aa(lp6
S'timestamp'
p7
aF1.306264877319336
aatp8
Rp9
.ccollections
OrderedDict
p0
((lp1
(lp2
S'state'
p3
aI0
aa(lp4
S'distance'
p5
aF375.2200241088867
aa(lp6
S'timestamp'
p7
aF1.3063809871673584
aatp8
Rp9
.ccollections
OrderedDict
p0
((lp1
(lp2
S'state'
p3
aI0
aa(lp4
S'distance'
p5
aF375.2200241088867
aa(lp6
S'timestamp'
p7
aF1.3160638809204102
aatp8
Rp9
.ccollections
OrderedDict
p0
((lp1
(lp2
S'state'
p3
aI0
aa(lp4
S'distance'
p5
aF375.2200241088867
aa(lp6
S'timestamp'
p7
aF1.3164830207824707
aatp8
Rp9
.ccollections
OrderedDict
p0
((lp1
(lp2
S'state'
p3
aI0
aa(lp4
S'distance'
p5
aF375.2200241088867
aa(lp6
S'timestamp'
p7
aF1.3261308670043945
aatp8
Rp9
.ccollections
OrderedDict
p0
((lp1
(lp2
S'state'
p3
aI0
aa(lp4
S'distance'
p5
aF375.2200241088867
aa(lp6
S'timestamp'
p7
aF1.3265750408172607
aatp8
Rp9
.ccollections
OrderedDict
p0
((lp1
(lp2
S'state'
p3
aI0
aa(lp4
S'distance'
p5
aF375.2200241088867
aa(lp6
S'timestamp'
p7
aF1.3363368511199951
aatp8
Rp9
.ccollections
OrderedDict
p0
((lp1
(lp2
S'state'
p3
aI0
aa(lp4
S'distance'
p5
aF375.2200241088867
aa(lp6
S'timestamp'
p7
aF1.3364479541778564
aatp8
Rp9
.ccollections
OrderedDict
p0
((lp1
(lp2
S'state'
p3
aI0
aa(lp4
S'distance'
p5
aF375.2200241088867
aa(lp6
S'timestamp'
p7
aF1.3608548641204834
aatp8
Rp9
.ccollections
OrderedDict
p0
((lp1
(lp2
S'state'
p3
aI0
aa(lp4
S'distance'
p5
aF375.2200241088867
aa(lp6
S'timestamp'
p7
aF1.3622958660125732
aatp8
Rp9
.ccollections
OrderedDict
p0
((lp1
(lp2
S'state'
p3
aI0
aa(lp4
S'distance'
p5
aF375.2200241088867
aa(lp6
S'timestamp'
p7
aF1.3666889667510986
aatp8
Rp9
.ccollections
OrderedDict
p0
((lp1
(lp2
S'state'
p3
aI0
aa(lp4
S'distance'
p5
aF375.2200241088867
aa(lp6
S'timestamp'
p7
aF1.3669190406799316
aatp8
Rp9
.ccollections
OrderedDict
p0
((lp1
(lp2
S'state'
p3
aI0
aa(lp4
S'distance'
p5
aF375.2200241088867
aa(lp6
S'timestamp'
p7
aF1.367177963256836
aatp8
Rp9
.ccollections
OrderedDict
p0
((lp1
(lp2
S'state'
p3
aI0
aa(lp4
S'distance'
p5
aF375.2200241088867
aa(lp6
S'timestamp'
p7
aF1.3673369884490967
aatp8
Rp9
.ccollections
OrderedDict
p0
((lp1
(lp2
S'state'
p3
aI0
aa(lp4
S'distance'
p5
aF375.2200241088867
aa(lp6
S'timestamp'
p7
aF1.386488914489746
aatp8
Rp9
.ccollections
OrderedDict
p0
((lp1
(lp2
S'state'
p3
aI0
aa(lp4
S'distance'
p5
aF375.2200241088867
aa(lp6
S'timestamp'
p7
aF1.396286964416504
aatp8
Rp9
.ccollections
OrderedDict
p0
((lp1
(lp2
S'state'
p3
aI0
aa(lp4
S'distance'
p5
aF375.2200241088867
aa(lp6
S'timestamp'
p7
aF1.3963658809661865
aatp8
Rp9
.ccollections
OrderedDict
p0
((lp1
(lp2
S'state'
p3
aI0
aa(lp4
S'distance'
p5
aF375.2200241088867
aa(lp6
S'timestamp'
p7
aF1.397475004196167
aatp8
Rp9
.ccollections
OrderedDict
p0
((lp1
(lp2
S'state'
p3
aI0
aa(lp4
S'distance'
p5
aF375.2200241088867
aa(lp6
S'timestamp'
p7
aF1.3985910415649414
aatp8
Rp9
.ccollections
OrderedDict
p0
((lp1
(lp2
S'state'
p3
aI0
aa(lp4
S'distance'
p5
aF375.2200241088867
aa(lp6
S'timestamp'
p7
aF1.4060478210449219
aatp8
Rp9
.ccollections
OrderedDict
p0
((lp1
(lp2
S'state'
p3
aI0
aa(lp4
S'distance'
p5
aF375.2200241088867
aa(lp6
S'timestamp'
p7
aF1.4063289165496826
aatp8
Rp9
.ccollections
OrderedDict
p0
((lp1
(lp2
S'state'
p3
aI0
aa(lp4
S'distance'
p5
aF375.2200241088867
aa(lp6
S'timestamp'
p7
aF1.407538890838623
aatp8
Rp9
.ccollections
OrderedDict
p0
((lp1
(lp2
S'state'
p3
aI0
aa(lp4
S'distance'
p5
aF375.2200241088867
aa(lp6
S'timestamp'
p7
aF1.4163579940795898
aatp8
Rp9
.ccollections
OrderedDict
p0
((lp1
(lp2
S'state'
p3
aI0
aa(lp4
S'distance'
p5
aF375.2200241088867
aa(lp6
S'timestamp'
p7
aF1.4164419174194336
aatp8
Rp9
.ccollections
OrderedDict
p0
((lp1
(lp2
S'state'
p3
aI0
aa(lp4
S'distance'
p5
aF375.2200241088867
aa(lp6
S'timestamp'
p7
aF1.4259109497070312
aatp8
Rp9
.ccollections
OrderedDict
p0
((lp1
(lp2
S'state'
p3
aI0
aa(lp4
S'distance'
p5
aF375.2200241088867
aa(lp6
S'timestamp'
p7
aF1.4264018535614014
aatp8
Rp9
.ccollections
OrderedDict
p0
((lp1
(lp2
S'state'
p3
aI0
aa(lp4
S'distance'
p5
aF375.2200241088867
aa(lp6
S'timestamp'
p7
aF1.436079978942871
aatp8
Rp9
.ccollections
OrderedDict
p0
((lp1
(lp2
S'state'
p3
aI0
aa(lp4
S'distance'
p5
aF375.2200241088867
aa(lp6
S'timestamp'
p7
aF1.4365978240966797
aatp8
Rp9
.ccollections
OrderedDict
p0
((lp1
(lp2
S'state'
p3
aI0
aa(lp4
S'distance'
p5
aF375.2200241088867
aa(lp6
S'timestamp'
p7
aF1.446368932723999
aatp8
Rp9
.ccollections
OrderedDict
p0
((lp1
(lp2
S'state'
p3
aI0
aa(lp4
S'distance'
p5
aF375.2200241088867
aa(lp6
S'timestamp'
p7
aF1.4464490413665771
aatp8
Rp9
.ccollections
OrderedDict
p0
((lp1
(lp2
S'state'
p3
aI0
aa(lp4
S'distance'
p5
aF375.2200241088867
aa(lp6
S'timestamp'
p7
aF1.4563510417938232
aatp8
Rp9
.ccollections
OrderedDict
p0
((lp1
(lp2
S'state'
p3
aI0
aa(lp4
S'distance'
p5
aF375.2200241088867
aa(lp6
S'timestamp'
p7
aF1.4564318656921387
aatp8
Rp9
.ccollections
OrderedDict
p0
((lp1
(lp2
S'state'
p3
aI0
aa(lp4
S'distance'
p5
aF375.2200241088867
aa(lp6
S'timestamp'
p7
aF1.4661049842834473
aatp8
Rp9
.ccollections
OrderedDict
p0
((lp1
(lp2
S'state'
p3
aI0
aa(lp4
S'distance'
p5
aF375.2200241088867
aa(lp6
S'timestamp'
p7
aF1.4663958549499512
aatp8
Rp9
.ccollections
OrderedDict
p0
((lp1
(lp2
S'state'
p3
aI0
aa(lp4
S'distance'
p5
aF375.2200241088867
aa(lp6
S'timestamp'
p7
aF1.4760990142822266
aatp8
Rp9
.ccollections
OrderedDict
p0
((lp1
(lp2
S'state'
p3
aI0
aa(lp4
S'distance'
p5
aF375.2200241088867
aa(lp6
S'timestamp'
p7
aF1.476503849029541
aatp8
Rp9
.ccollections
OrderedDict
p0
((lp1
(lp2
S'state'
p3
aI0
aa(lp4
S'distance'
p5
aF375.2200241088867
aa(lp6
S'timestamp'
p7
aF1.4863018989562988
aatp8
Rp9
.ccollections
OrderedDict
p0
((lp1
(lp2
S'state'
p3
aI0
aa(lp4
S'distance'
p5
aF375.2200241088867
aa(lp6
S'timestamp'
p7
aF1.4863858222961426
aatp8
Rp9
.ccollections
OrderedDict
p0
((lp1
(lp2
S'state'
p3
aI0
aa(lp4
S'distance'
p5
aF375.2200241088867
aa(lp6
S'timestamp'
p7
aF1.4963610172271729
aatp8
Rp9
.ccollections
OrderedDict
p0
((lp1
(lp2
S'state'
p3
aI0
aa(lp4
S'distance'
p5
aF375.2200241088867
aa(lp6
S'timestamp'
p7
aF1.496438980102539
aatp8
Rp9
.ccollections
OrderedDict
p0
((lp1
(lp2
S'state'
p3
aI0
aa(lp4
S'distance'
p5
aF375.2200241088867
aa(lp6
S'timestamp'
p7
aF1.5060698986053467
aatp8
Rp9
.ccollections
OrderedDict
p0
((lp1
(lp2
S'state'
p3
aI0
aa(lp4
S'distance'
p5
aF375.2200241088867
aa(lp6
S'timestamp'
p7
aF1.5065529346466064
aatp8
Rp9
.ccollections
OrderedDict
p0
((lp1
(lp2
S'state'
p3
aI0
aa(lp4
S'distance'
p5
aF375.2200241088867
aa(lp6
S'timestamp'
p7
aF1.5160589218139648
aatp8
Rp9
.ccollections
OrderedDict
p0
((lp1
(lp2
S'state'
p3
aI0
aa(lp4
S'distance'
p5
aF375.2200241088867
aa(lp6
S'timestamp'
p7
aF1.5165619850158691
aatp8
Rp9
.ccollections
OrderedDict
p0
((lp1
(lp2
S'state'
p3
aI0
aa(lp4
S'distance'
p5
aF375.2200241088867
aa(lp6
S'timestamp'
p7
aF1.5260310173034668
aatp8
Rp9
.ccollections
OrderedDict
p0
((lp1
(lp2
S'state'
p3
aI0
aa(lp4
S'distance'
p5
aF375.2200241088867
aa(lp6
S'timestamp'
p7
aF1.5263938903808594
aatp8
Rp9
.ccollections
OrderedDict
p0
((lp1
(lp2
S'state'
p3
aI0
aa(lp4
S'distance'
p5
aF375.2200241088867
aa(lp6
S'timestamp'
p7
aF1.5363848209381104
aatp8
Rp9
.ccollections
OrderedDict
p0
((lp1
(lp2
S'state'
p3
aI0
aa(lp4
S'distance'
p5
aF375.2200241088867
aa(lp6
S'timestamp'
p7
aF1.5364630222320557
aatp8
Rp9
.ccollections
OrderedDict
p0
((lp1
(lp2
S'state'
p3
aI0
aa(lp4
S'distance'
p5
aF375.2200241088867
aa(lp6
S'timestamp'
p7
aF1.547118902206421
aatp8
Rp9
.ccollections
OrderedDict
p0
((lp1
(lp2
S'state'
p3
aI0
aa(lp4
S'distance'
p5
aF375.2200241088867
aa(lp6
S'timestamp'
p7
aF1.547333002090454
aatp8
Rp9
.ccollections
OrderedDict
p0
((lp1
(lp2
S'state'
p3
aI0
aa(lp4
S'distance'
p5
aF375.2200241088867
aa(lp6
S'timestamp'
p7
aF1.5560979843139648
aatp8
Rp9
.ccollections
OrderedDict
p0
((lp1
(lp2
S'state'
p3
aI0
aa(lp4
S'distance'
p5
aF375.2200241088867
aa(lp6
S'timestamp'
p7
aF1.5564649105072021
aatp8
Rp9
.ccollections
OrderedDict
p0
((lp1
(lp2
S'state'
p3
aI0
aa(lp4
S'distance'
p5
aF375.2200241088867
aa(lp6
S'timestamp'
p7
aF1.5662848949432373
aatp8
Rp9
.ccollections
OrderedDict
p0
((lp1
(lp2
S'state'
p3
aI0
aa(lp4
S'distance'
p5
aF375.2200241088867
aa(lp6
S'timestamp'
p7
aF1.566368818283081
aatp8
Rp9
.ccollections
OrderedDict
p0
((lp1
(lp2
S'state'
p3
aI0
aa(lp4
S'distance'
p5
aF375.2200241088867
aa(lp6
S'timestamp'
p7
aF1.5763449668884277
aatp8
Rp9
.ccollections
OrderedDict
p0
((lp1
(lp2
S'state'
p3
aI0
aa(lp4
S'distance'
p5
aF375.2200241088867
aa(lp6
S'timestamp'
p7
aF1.5764219760894775
aatp8
Rp9
.ccollections
OrderedDict
p0
((lp1
(lp2
S'state'
p3
aI0
aa(lp4
S'distance'
p5
aF375.2200241088867
aa(lp6
S'timestamp'
p7
aF1.586073875427246
aatp8
Rp9
.ccollections
OrderedDict
p0
((lp1
(lp2
S'state'
p3
aI0
aa(lp4
S'distance'
p5
aF375.2200241088867
aa(lp6
S'timestamp'
p7
aF1.5865659713745117
aatp8
Rp9
.ccollections
OrderedDict
p0
((lp1
(lp2
S'state'
p3
aI0
aa(lp4
S'distance'
p5
aF375.2200241088867
aa(lp6
S'timestamp'
p7
aF1.6061429977416992
aatp8
Rp9
.ccollections
OrderedDict
p0
((lp1
(lp2
S'state'
p3
aI0
aa(lp4
S'distance'
p5
aF375.2200241088867
aa(lp6
S'timestamp'
p7
aF1.6162898540496826
aatp8
Rp9
.ccollections
OrderedDict
p0
((lp1
(lp2
S'state'
p3
aI0
aa(lp4
S'distance'
p5
aF375.2200241088867
aa(lp6
S'timestamp'
p7
aF1.6163690090179443
aatp8
Rp9
.ccollections
OrderedDict
p0
((lp1
(lp2
S'state'
p3
aI0
aa(lp4
S'distance'
p5
aF375.2200241088867
aa(lp6
S'timestamp'
p7
aF1.6174559593200684
aatp8
Rp9
.ccollections
OrderedDict
p0
((lp1
(lp2
S'state'
p3
aI0
aa(lp4
S'distance'
p5
aF375.2200241088867
aa(lp6
S'timestamp'
p7
aF1.618433952331543
aatp8
Rp9
.ccollections
OrderedDict
p0
((lp1
(lp2
S'state'
p3
aI0
aa(lp4
S'distance'
p5
aF375.2200241088867
aa(lp6
S'timestamp'
p7
aF1.625985860824585
aatp8
Rp9
.ccollections
OrderedDict
p0
((lp1
(lp2
S'state'
p3
aI0
aa(lp4
S'distance'
p5
aF375.2200241088867
aa(lp6
S'timestamp'
p7
aF1.6263809204101562
aatp8
Rp9
.ccollections
OrderedDict
p0
((lp1
(lp2
S'state'
p3
aI0
aa(lp4
S'distance'
p5
aF375.2200241088867
aa(lp6
S'timestamp'
p7
aF1.6273529529571533
aatp8
Rp9
.ccollections
OrderedDict
p0
((lp1
(lp2
S'state'
p3
aI0
aa(lp4
S'distance'
p5
aF375.2200241088867
aa(lp6
S'timestamp'
p7
aF1.6362988948822021
aatp8
Rp9
.ccollections
OrderedDict
p0
((lp1
(lp2
S'state'
p3
aI0
aa(lp4
S'distance'
p5
aF375.2200241088867
aa(lp6
S'timestamp'
p7
aF1.6364150047302246
aatp8
Rp9
.ccollections
OrderedDict
p0
((lp1
(lp2
S'state'
p3
aI0
aa(lp4
S'distance'
p5
aF375.2200241088867
aa(lp6
S'timestamp'
p7
aF1.6563448905944824
aatp8
Rp9
.ccollections
OrderedDict
p0
((lp1
(lp2
S'state'
p3
aI0
aa(lp4
S'distance'
p5
aF375.2200241088867
aa(lp6
S'timestamp'
p7
aF1.6564269065856934
aatp8
Rp9
.ccollections
OrderedDict
p0
((lp1
(lp2
S'state'
p3
aI0
aa(lp4
S'distance'
p5
aF375.2200241088867
aa(lp6
S'timestamp'
p7
aF1.6580109596252441
aatp8
Rp9
.ccollections
OrderedDict
p0
((lp1
(lp2
S'state'
p3
aI0
aa(lp4
S'distance'
p5
aF375.2200241088867
aa(lp6
S'timestamp'
p7
aF1.6589338779449463
aatp8
Rp9
.ccollections
OrderedDict
p0
((lp1
(lp2
S'state'
p3
aI0
aa(lp4
S'distance'
p5
aF375.2200241088867
aa(lp6
S'timestamp'
p7
aF1.6660668849945068
aatp8
Rp9
.ccollections
OrderedDict
p0
((lp1
(lp2
S'state'
p3
aI0
aa(lp4
S'distance'
p5
aF375.2200241088867
aa(lp6
S'timestamp'
p7
aF1.6664938926696777
aatp8
Rp9
.ccollections
OrderedDict
p0
((lp1
(lp2
S'state'
p3
aI0
aa(lp4
S'distance'
p5
aF375.2200241088867
aa(lp6
S'timestamp'
p7
aF1.676347017288208
aatp8
Rp9
.ccollections
OrderedDict
p0
((lp1
(lp2
S'state'
p3
aI0
aa(lp4
S'distance'
p5
aF375.2200241088867
aa(lp6
S'timestamp'
p7
aF1.6764929294586182
aatp8
Rp9
.ccollections
OrderedDict
p0
((lp1
(lp2
S'state'
p3
aI0
aa(lp4
S'distance'
p5
aF375.2200241088867
aa(lp6
S'timestamp'
p7
aF1.6865968704223633
aatp8
Rp9
.ccollections
OrderedDict
p0
((lp1
(lp2
S'state'
p3
aI0
aa(lp4
S'distance'
p5
aF375.2200241088867
aa(lp6
S'timestamp'
p7
aF1.6872320175170898
aatp8
Rp9
.ccollections
OrderedDict
p0
((lp1
(lp2
S'state'
p3
aI0
aa(lp4
S'distance'
p5
aF375.2200241088867
aa(lp6
S'timestamp'
p7
aF1.6960029602050781
aatp8
Rp9
.ccollections
OrderedDict
p0
((lp1
(lp2
S'state'
p3
aI0
aa(lp4
S'distance'
p5
aF375.2200241088867
aa(lp6
S'timestamp'
p7
aF1.6964449882507324
aatp8
Rp9
.ccollections
OrderedDict
p0
((lp1
(lp2
S'state'
p3
aI0
aa(lp4
S'distance'
p5
aF375.2200241088867
aa(lp6
S'timestamp'
p7
aF1.7063930034637451
aatp8
Rp9
.ccollections
OrderedDict
p0
((lp1
(lp2
S'state'
p3
aI0
aa(lp4
S'distance'
p5
aF375.2200241088867
aa(lp6
S'timestamp'
p7
aF1.7064719200134277
aatp8
Rp9
.ccollections
OrderedDict
p0
((lp1
(lp2
S'state'
p3
aI0
aa(lp4
S'distance'
p5
aF375.2200241088867
aa(lp6
S'timestamp'
p7
aF1.7159428596496582
aatp8
Rp9
.ccollections
OrderedDict
p0
((lp1
(lp2
S'state'
p3
aI0
aa(lp4
S'distance'
p5
aF375.2200241088867
aa(lp6
S'timestamp'
p7
aF1.7163889408111572
aatp8
Rp9
.ccollections
OrderedDict
p0
((lp1
(lp2
S'state'
p3
aI0
aa(lp4
S'distance'
p5
aF375.2200241088867
aa(lp6
S'timestamp'
p7
aF1.7263388633728027
aatp8
Rp9
.ccollections
OrderedDict
p0
((lp1
(lp2
S'state'
p3
aI0
aa(lp4
S'distance'
p5
aF375.2200241088867
aa(lp6
S'timestamp'
p7
aF1.7264199256896973
aatp8
Rp9
.ccollections
OrderedDict
p0
((lp1
(lp2
S'state'
p3
aI0
aa(lp4
S'distance'
p5
aF375.2200241088867
aa(lp6
S'timestamp'
p7
aF1.736325979232788
aatp8
Rp9
.ccollections
OrderedDict
p0
((lp1
(lp2
S'state'
p3
aI0
aa(lp4
S'distance'
p5
aF375.2200241088867
aa(lp6
S'timestamp'
p7
aF1.7364108562469482
aatp8
Rp9
.ccollections
OrderedDict
p0
((lp1
(lp2
S'state'
p3
aI0
aa(lp4
S'distance'
p5
aF375.2200241088867
aa(lp6
S'timestamp'
p7
aF1.7462279796600342
aatp8
Rp9
.ccollections
OrderedDict
p0
((lp1
(lp2
S'state'
p3
aI0
aa(lp4
S'distance'
p5
aF375.2200241088867
aa(lp6
S'timestamp'
p7
aF1.7561728954315186
aatp8
Rp9
.ccollections
OrderedDict
p0
((lp1
(lp2
S'state'
p3
aI0
aa(lp4
S'distance'
p5
aF375.2200241088867
aa(lp6
S'timestamp'
p7
aF1.7562589645385742
aatp8
Rp9
.ccollections
OrderedDict
p0
((lp1
(lp2
S'state'
p3
aI0
aa(lp4
S'distance'
p5
aF375.2200241088867
aa(lp6
S'timestamp'
p7
aF1.7571008205413818
aatp8
Rp9
.ccollections
OrderedDict
p0
((lp1
(lp2
S'state'
p3
aI0
aa(lp4
S'distance'
p5
aF375.2200241088867
aa(lp6
S'timestamp'
p7
aF1.7660579681396484
aatp8
Rp9
.ccollections
OrderedDict
p0
((lp1
(lp2
S'state'
p3
aI0
aa(lp4
S'distance'
p5
aF375.2200241088867
aa(lp6
S'timestamp'
p7
aF1.766467809677124
aatp8
Rp9
.ccollections
OrderedDict
p0
((lp1
(lp2
S'state'
p3
aI400
aa(lp4
S'distance'
p5
aF375.2200241088867
aa(lp6
S'timestamp'
p7
aF1.776331901550293
aatp8
Rp9
.ccollections
OrderedDict
p0
((lp1
(lp2
S'state'
p3
aI400
aa(lp4
S'distance'
p5
aF375.2200241088867
aa(lp6
S'timestamp'
p7
aF1.7764170169830322
aatp8
Rp9
.ccollections
OrderedDict
p0
((lp1
(lp2
S'state'
p3
aI400
aa(lp4
S'distance'
p5
aF375.2200241088867
aa(lp6
S'timestamp'
p7
aF1.7859368324279785
aatp8
Rp9
.ccollections
OrderedDict
p0
((lp1
(lp2
S'state'
p3
aI400
aa(lp4
S'distance'
p5
aF375.2200241088867
aa(lp6
S'timestamp'
p7
aF1.7863948345184326
aatp8
Rp9
.ccollections
OrderedDict
p0
((lp1
(lp2
S'state'
p3
aI400
aa(lp4
S'distance'
p5
aF375.2200241088867
aa(lp6
S'timestamp'
p7
aF1.797778844833374
aatp8
Rp9
.ccollections
OrderedDict
p0
((lp1
(lp2
S'state'
p3
aI400
aa(lp4
S'distance'
p5
aF375.2200241088867
aa(lp6
S'timestamp'
p7
aF1.7980639934539795
aatp8
Rp9
.ccollections
OrderedDict
p0
((lp1
(lp2
S'state'
p3
aI400
aa(lp4
S'distance'
p5
aF375.2200241088867
aa(lp6
S'timestamp'
p7
aF1.806246042251587
aatp8
Rp9
.ccollections
OrderedDict
p0
((lp1
(lp2
S'state'
p3
aI400
aa(lp4
S'distance'
p5
aF375.2200241088867
aa(lp6
S'timestamp'
p7
aF1.8165898323059082
aatp8
Rp9
.ccollections
OrderedDict
p0
((lp1
(lp2
S'state'
p3
aI400
aa(lp4
S'distance'
p5
aF375.2200241088867
aa(lp6
S'timestamp'
p7
aF1.8167400360107422
aatp8
Rp9
.ccollections
OrderedDict
p0
((lp1
(lp2
S'state'
p3
aI400
aa(lp4
S'distance'
p5
aF375.2200241088867
aa(lp6
S'timestamp'
p7
aF1.817945957183838
aatp8
Rp9
.ccollections
OrderedDict
p0
((lp1
(lp2
S'state'
p3
aI400
aa(lp4
S'distance'
p5
aF375.2200241088867
aa(lp6
S'timestamp'
p7
aF1.8264429569244385
aatp8
Rp9
.ccollections
OrderedDict
p0
((lp1
(lp2
S'state'
p3
aI400
aa(lp4
S'distance'
p5
aF375.2200241088867
aa(lp6
S'timestamp'
p7
aF1.8265719413757324
aatp8
Rp9
.ccollections
OrderedDict
p0
((lp1
(lp2
S'state'
p3
aI400
aa(lp4
S'distance'
p5
aF375.2200241088867
aa(lp6
S'timestamp'
p7
aF1.8363168239593506
aatp8
Rp9
.ccollections
OrderedDict
p0
((lp1
(lp2
S'state'
p3
aI400
aa(lp4
S'distance'
p5
aF375.2200241088867
aa(lp6
S'timestamp'
p7
aF1.8364770412445068
aatp8
Rp9
.ccollections
OrderedDict
p0
((lp1
(lp2
S'state'
p3
aI400
aa(lp4
S'distance'
p5
aF375.2200241088867
aa(lp6
S'timestamp'
p7
aF1.8466260433197021
aatp8
Rp9
.ccollections
OrderedDict
p0
((lp1
(lp2
S'state'
p3
aI400
aa(lp4
S'distance'
p5
aF375.2200241088867
aa(lp6
S'timestamp'
p7
aF1.8470308780670166
aatp8
Rp9
.ccollections
OrderedDict
p0
((lp1
(lp2
S'state'
p3
aI400
aa(lp4
S'distance'
p5
aF375.2200241088867
aa(lp6
S'timestamp'
p7
aF1.8561079502105713
aatp8
Rp9
.ccollections
OrderedDict
p0
((lp1
(lp2
S'state'
p3
aI400
aa(lp4
S'distance'
p5
aF375.2200241088867
aa(lp6
S'timestamp'
p7
aF1.8565919399261475
aatp8
Rp9
.ccollections
OrderedDict
p0
((lp1
(lp2
S'state'
p3
aI400
aa(lp4
S'distance'
p5
aF375.2200241088867
aa(lp6
S'timestamp'
p7
aF1.876142978668213
aatp8
Rp9
.ccollections
OrderedDict
p0
((lp1
(lp2
S'state'
p3
aI400
aa(lp4
S'distance'
p5
aF375.2200241088867
aa(lp6
S'timestamp'
p7
aF1.8762569427490234
aatp8
Rp9
.ccollections
OrderedDict
p0
((lp1
(lp2
S'state'
p3
aI400
aa(lp4
S'distance'
p5
aF375.2200241088867
aa(lp6
S'timestamp'
p7
aF1.877413034439087
aatp8
Rp9
.ccollections
OrderedDict
p0
((lp1
(lp2
S'state'
p3
aI400
aa(lp4
S'distance'
p5
aF375.2200241088867
aa(lp6
S'timestamp'
p7
aF1.8782508373260498
aatp8
Rp9
.ccollections
OrderedDict
p0
((lp1
(lp2
S'state'
p3
aI400
aa(lp4
S'distance'
p5
aF375.2200241088867
aa(lp6
S'timestamp'
p7
aF1.8859989643096924
aatp8
Rp9
.ccollections
OrderedDict
p0
((lp1
(lp2
S'state'
p3
aI400
aa(lp4
S'distance'
p5
aF375.2200241088867
aa(lp6
S'timestamp'
p7
aF1.8864519596099854
aatp8
Rp9
.ccollections
OrderedDict
p0
((lp1
(lp2
S'state'
p3
aI400
aa(lp4
S'distance'
p5
aF375.2200241088867
aa(lp6
S'timestamp'
p7
aF1.8961198329925537
aatp8
Rp9
.ccollections
OrderedDict
p0
((lp1
(lp2
S'state'
p3
aI400
aa(lp4
S'distance'
p5
aF375.2200241088867
aa(lp6
S'timestamp'
p7
aF1.9062888622283936
aatp8
Rp9
.ccollections
OrderedDict
p0
((lp1
(lp2
S'state'
p3
aI400
aa(lp4
S'distance'
p5
aF375.2200241088867
aa(lp6
S'timestamp'
p7
aF1.9071400165557861
aatp8
Rp9
.ccollections
OrderedDict
p0
((lp1
(lp2
S'state'
p3
aI400
aa(lp4
S'distance'
p5
aF375.2200241088867
aa(lp6
S'timestamp'
p7
aF1.908686876296997
aatp8
Rp9
.ccollections
OrderedDict
p0
((lp1
(lp2
S'state'
p3
aI400
aa(lp4
S'distance'
p5
aF375.2200241088867
aa(lp6
S'timestamp'
p7
aF1.9259698390960693
aatp8
Rp9
.ccollections
OrderedDict
p0
((lp1
(lp2
S'state'
p3
aI400
aa(lp4
S'distance'
p5
aF375.2200241088867
aa(lp6
S'timestamp'
p7
aF1.92625093460083
aatp8
Rp9
.ccollections
OrderedDict
p0
((lp1
(lp2
S'state'
p3
aI400
aa(lp4
S'distance'
p5
aF375.2200241088867
aa(lp6
S'timestamp'
p7
aF1.9269859790802002
aatp8
Rp9
.ccollections
OrderedDict
p0
((lp1
(lp2
S'state'
p3
aI400
aa(lp4
S'distance'
p5
aF375.2200241088867
aa(lp6
S'timestamp'
p7
aF1.9274649620056152
aatp8
Rp9
.ccollections
OrderedDict
p0
((lp1
(lp2
S'state'
p3
aI400
aa(lp4
S'distance'
p5
aF375.2200241088867
aa(lp6
S'timestamp'
p7
aF1.936255931854248
aatp8
Rp9
.ccollections
OrderedDict
p0
((lp1
(lp2
S'state'
p3
aI400
aa(lp4
S'distance'
p5
aF375.2200241088867
aa(lp6
S'timestamp'
p7
aF1.936378002166748
aatp8
Rp9
.ccollections
OrderedDict
p0
((lp1
(lp2
S'state'
p3
aI400
aa(lp4
S'distance'
p5
aF375.2200241088867
aa(lp6
S'timestamp'
p7
aF1.946260929107666
aatp8
Rp9
.ccollections
OrderedDict
p0
((lp1
(lp2
S'state'
p3
aI400
aa(lp4
S'distance'
p5
aF375.2200241088867
aa(lp6
S'timestamp'
p7
aF1.946382999420166
aatp8
Rp9
.ccollections
OrderedDict
p0
((lp1
(lp2
S'state'
p3
aI400
aa(lp4
S'distance'
p5
aF375.2200241088867
aa(lp6
S'timestamp'
p7
aF1.956251859664917
aatp8
Rp9
.ccollections
OrderedDict
p0
((lp1
(lp2
S'state'
p3
aI400
aa(lp4
S'distance'
p5
aF375.2200241088867
aa(lp6
S'timestamp'
p7
aF1.9563689231872559
aatp8
Rp9
.ccollections
OrderedDict
p0
((lp1
(lp2
S'state'
p3
aI400
aa(lp4
S'distance'
p5
aF375.2200241088867
aa(lp6
S'timestamp'
p7
aF1.9660348892211914
aatp8
Rp9
.ccollections
OrderedDict
p0
((lp1
(lp2
S'state'
p3
aI400
aa(lp4
S'distance'
p5
aF375.2200241088867
aa(lp6
S'timestamp'
p7
aF1.9664549827575684
aatp8
Rp9
.ccollections
OrderedDict
p0
((lp1
(lp2
S'state'
p3
aI400
aa(lp4
S'distance'
p5
aF375.2200241088867
aa(lp6
S'timestamp'
p7
aF1.9763898849487305
aatp8
Rp9
.ccollections
OrderedDict
p0
((lp1
(lp2
S'state'
p3
aI400
aa(lp4
S'distance'
p5
aF375.2200241088867
aa(lp6
S'timestamp'
p7
aF1.9765129089355469
aatp8
Rp9
.ccollections
OrderedDict
p0
((lp1
(lp2
S'state'
p3
aI400
aa(lp4
S'distance'
p5
aF375.2200241088867
aa(lp6
S'timestamp'
p7
aF1.986016035079956
aatp8
Rp9
.ccollections
OrderedDict
p0
((lp1
(lp2
S'state'
p3
aI400
aa(lp4
S'distance'
p5
aF375.2200241088867
aa(lp6
S'timestamp'
p7
aF1.9863958358764648
aatp8
Rp9
.ccollections
OrderedDict
p0
((lp1
(lp2
S'state'
p3
aI400
aa(lp4
S'distance'
p5
aF375.2200241088867
aa(lp6
S'timestamp'
p7
aF1.995905876159668
aatp8
Rp9
.ccollections
OrderedDict
p0
((lp1
(lp2
S'state'
p3
aI400
aa(lp4
S'distance'
p5
aF375.2200241088867
aa(lp6
S'timestamp'
p7
aF1.996438980102539
aatp8
Rp9
.ccollections
OrderedDict
p0
((lp1
(lp2
S'state'
p3
aI400
aa(lp4
S'distance'
p5
aF375.2200241088867
aa(lp6
S'timestamp'
p7
aF2.006260871887207
aatp8
Rp9
.ccollections
OrderedDict
p0
((lp1
(lp2
S'state'
p3
aI400
aa(lp4
S'distance'
p5
aF375.2200241088867
aa(lp6
S'timestamp'
p7
aF2.0063788890838623
aatp8
Rp9
.ccollections
OrderedDict
p0
((lp1
(lp2
S'state'
p3
aI400
aa(lp4
S'distance'
p5
aF375.2200241088867
aa(lp6
S'timestamp'
p7
aF2.016288995742798
aatp8
Rp9
.ccollections
OrderedDict
p0
((lp1
(lp2
S'state'
p3
aI400
aa(lp4
S'distance'
p5
aF375.2200241088867
aa(lp6
S'timestamp'
p7
aF2.016408920288086
aatp8
Rp9
.ccollections
OrderedDict
p0
((lp1
(lp2
S'state'
p3
aI400
aa(lp4
S'distance'
p5
aF375.2200241088867
aa(lp6
S'timestamp'
p7
aF2.025851011276245
aatp8
Rp9
.ccollections
OrderedDict
p0
((lp1
(lp2
S'state'
p3
aI400
aa(lp4
S'distance'
p5
aF375.2200241088867
aa(lp6
S'timestamp'
p7
aF2.0264759063720703
aatp8
Rp9
.ccollections
OrderedDict
p0
((lp1
(lp2
S'state'
p3
aI400
aa(lp4
S'distance'
p5
aF375.2200241088867
aa(lp6
S'timestamp'
p7
aF2.0360589027404785
aatp8
Rp9
.ccollections
OrderedDict
p0
((lp1
(lp2
S'state'
p3
aI400
aa(lp4
S'distance'
p5
aF375.2200241088867
aa(lp6
S'timestamp'
p7
aF2.036376953125
aatp8
Rp9
.ccollections
OrderedDict
p0
((lp1
(lp2
S'state'
p3
aI400
aa(lp4
S'distance'
p5
aF375.2200241088867
aa(lp6
S'timestamp'
p7
aF2.046449899673462
aatp8
Rp9
.ccollections
OrderedDict
p0
((lp1
(lp2
S'state'
p3
aI400
aa(lp4
S'distance'
p5
aF375.2200241088867
aa(lp6
S'timestamp'
p7
aF2.046639919281006
aatp8
Rp9
.ccollections
OrderedDict
p0
((lp1
(lp2
S'state'
p3
aI400
aa(lp4
S'distance'
p5
aF375.2200241088867
aa(lp6
S'timestamp'
p7
aF2.056259870529175
aatp8
Rp9
.ccollections
OrderedDict
p0
((lp1
(lp2
S'state'
p3
aI400
aa(lp4
S'distance'
p5
aF375.2200241088867
aa(lp6
S'timestamp'
p7
aF2.056380033493042
aatp8
Rp9
.ccollections
OrderedDict
p0
((lp1
(lp2
S'state'
p3
aI400
aa(lp4
S'distance'
p5
aF375.2200241088867
aa(lp6
S'timestamp'
p7
aF2.065877914428711
aatp8
Rp9
.ccollections
OrderedDict
p0
((lp1
(lp2
S'state'
p3
aI400
aa(lp4
S'distance'
p5
aF375.2200241088867
aa(lp6
S'timestamp'
p7
aF2.066524028778076
aatp8
Rp9
.ccollections
OrderedDict
p0
((lp1
(lp2
S'state'
p3
aI400
aa(lp4
S'distance'
p5
aF375.2200241088867
aa(lp6
S'timestamp'
p7
aF2.0762739181518555
aatp8
Rp9
.ccollections
OrderedDict
p0
((lp1
(lp2
S'state'
p3
aI400
aa(lp4
S'distance'
p5
aF375.2200241088867
aa(lp6
S'timestamp'
p7
aF2.0764048099517822
aatp8
Rp9
.ccollections
OrderedDict
p0
((lp1
(lp2
S'state'
p3
aI400
aa(lp4
S'distance'
p5
aF375.2200241088867
aa(lp6
S'timestamp'
p7
aF2.085984945297241
aatp8
Rp9
.ccollections
OrderedDict
p0
((lp1
(lp2
S'state'
p3
aI400
aa(lp4
S'distance'
p5
aF375.2200241088867
aa(lp6
S'timestamp'
p7
aF2.086411952972412
aatp8
Rp9
.ccollections
OrderedDict
p0
((lp1
(lp2
S'state'
p3
aI400
aa(lp4
S'distance'
p5
aF375.2200241088867
aa(lp6
S'timestamp'
p7
aF2.0962719917297363
aatp8
Rp9
.ccollections
OrderedDict
p0
((lp1
(lp2
S'state'
p3
aI400
aa(lp4
S'distance'
p5
aF375.2200241088867
aa(lp6
S'timestamp'
p7
aF2.096392869949341
aatp8
Rp9
.ccollections
OrderedDict
p0
((lp1
(lp2
S'state'
p3
aI400
aa(lp4
S'distance'
p5
aF375.2200241088867
aa(lp6
S'timestamp'
p7
aF2.1062710285186768
aatp8
Rp9
.ccollections
OrderedDict
p0
((lp1
(lp2
S'state'
p3
aI400
aa(lp4
S'distance'
p5
aF375.2200241088867
aa(lp6
S'timestamp'
p7
aF2.106388807296753
aatp8
Rp9
.ccollections
OrderedDict
p0
((lp1
(lp2
S'state'
p3
aI400
aa(lp4
S'distance'
p5
aF375.2200241088867
aa(lp6
S'timestamp'
p7
aF2.115872859954834
aatp8
Rp9
.ccollections
OrderedDict
p0
((lp1
(lp2
S'state'
p3
aI400
aa(lp4
S'distance'
p5
aF375.2200241088867
aa(lp6
S'timestamp'
p7
aF2.1261608600616455
aatp8
Rp9
.ccollections
OrderedDict
p0
((lp1
(lp2
S'state'
p3
aI400
aa(lp4
S'distance'
p5
aF375.2200241088867
aa(lp6
S'timestamp'
p7
aF2.126281976699829
aatp8
Rp9
.ccollections
OrderedDict
p0
((lp1
(lp2
S'state'
p3
aI400
aa(lp4
S'distance'
p5
aF375.2200241088867
aa(lp6
S'timestamp'
p7
aF2.127401828765869
aatp8
Rp9
.ccollections
OrderedDict
p0
((lp1
(lp2
S'state'
p3
aI400
aa(lp4
S'distance'
p5
aF375.2200241088867
aa(lp6
S'timestamp'
p7
aF2.136322021484375
aatp8
Rp9
.ccollections
OrderedDict
p0
((lp1
(lp2
S'state'
p3
aI400
aa(lp4
S'distance'
p5
aF375.2200241088867
aa(lp6
S'timestamp'
p7
aF2.136436939239502
aatp8
Rp9
.ccollections
OrderedDict
p0
((lp1
(lp2
S'state'
p3
aI400
aa(lp4
S'distance'
p5
aF375.2200241088867
aa(lp6
S'timestamp'
p7
aF2.145848035812378
aatp8
Rp9
.ccollections
OrderedDict
p0
((lp1
(lp2
S'state'
p3
aI400
aa(lp4
S'distance'
p5
aF375.2200241088867
aa(lp6
S'timestamp'
p7
aF2.1465389728546143
aatp8
Rp9
.ccollections
OrderedDict
p0
((lp1
(lp2
S'state'
p3
aI400
aa(lp4
S'distance'
p5
aF375.2200241088867
aa(lp6
S'timestamp'
p7
aF2.157960891723633
aatp8
Rp9
.ccollections
OrderedDict
p0
((lp1
(lp2
S'state'
p3
aI400
aa(lp4
S'distance'
p5
aF375.2200241088867
aa(lp6
S'timestamp'
p7
aF2.1581249237060547
aatp8
Rp9
.ccollections
OrderedDict
p0
((lp1
(lp2
S'state'
p3
aI400
aa(lp4
S'distance'
p5
aF375.2200241088867
aa(lp6
S'timestamp'
p7
aF2.175949811935425
aatp8
Rp9
.ccollections
OrderedDict
p0
((lp1
(lp2
S'state'
p3
aI400
aa(lp4
S'distance'
p5
aF375.2200241088867
aa(lp6
S'timestamp'
p7
aF2.1763408184051514
aatp8
Rp9
.ccollections
OrderedDict
p0
((lp1
(lp2
S'state'
p3
aI400
aa(lp4
S'distance'
p5
aF375.2200241088867
aa(lp6
S'timestamp'
p7
aF2.1767818927764893
aatp8
Rp9
.ccollections
OrderedDict
p0
((lp1
(lp2
S'state'
p3
aI400
aa(lp4
S'distance'
p5
aF375.2200241088867
aa(lp6
S'timestamp'
p7
aF2.1774508953094482
aatp8
Rp9
.ccollections
OrderedDict
p0
((lp1
(lp2
S'state'
p3
aI400
aa(lp4
S'distance'
p5
aF375.2200241088867
aa(lp6
S'timestamp'
p7
aF2.1858649253845215
aatp8
Rp9
.ccollections
OrderedDict
p0
((lp1
(lp2
S'state'
p3
aI400
aa(lp4
S'distance'
p5
aF375.2200241088867
aa(lp6
S'timestamp'
p7
aF2.1864538192749023
aatp8
Rp9
.ccollections
OrderedDict
p0
((lp1
(lp2
S'state'
p3
aI400
aa(lp4
S'distance'
p5
aF375.2200241088867
aa(lp6
S'timestamp'
p7
aF2.1960608959198
aatp8
Rp9
.ccollections
OrderedDict
p0
((lp1
(lp2
S'state'
p3
aI400
aa(lp4
S'distance'
p5
aF375.2200241088867
aa(lp6
S'timestamp'
p7
aF2.1963679790496826
aatp8
Rp9
.ccollections
OrderedDict
p0
((lp1
(lp2
S'state'
p3
aI400
aa(lp4
S'distance'
p5
aF375.2200241088867
aa(lp6
S'timestamp'
p7
aF2.2059149742126465
aatp8
Rp9
.ccollections
OrderedDict
p0
((lp1
(lp2
S'state'
p3
aI400
aa(lp4
S'distance'
p5
aF375.2200241088867
aa(lp6
S'timestamp'
p7
aF2.2064809799194336
aatp8
Rp9
.ccollections
OrderedDict
p0
((lp1
(lp2
S'state'
p3
aI400
aa(lp4
S'distance'
p5
aF375.2200241088867
aa(lp6
S'timestamp'
p7
aF2.2162699699401855
aatp8
Rp9
.ccollections
OrderedDict
p0
((lp1
(lp2
S'state'
p3
aI400
aa(lp4
S'distance'
p5
aF375.2200241088867
aa(lp6
S'timestamp'
p7
aF2.21639084815979
aatp8
Rp9
.ccollections
OrderedDict
p0
((lp1
(lp2
S'state'
p3
aI400
aa(lp4
S'distance'
p5
aF375.2200241088867
aa(lp6
S'timestamp'
p7
aF2.2261929512023926
aatp8
Rp9
.ccollections
OrderedDict
p0
((lp1
(lp2
S'state'
p3
aI400
aa(lp4
S'distance'
p5
aF375.2200241088867
aa(lp6
S'timestamp'
p7
aF2.226327896118164
aatp8
Rp9
.ccollections
OrderedDict
p0
((lp1
(lp2
S'state'
p3
aI400
aa(lp4
S'distance'
p5
aF375.2200241088867
aa(lp6
S'timestamp'
p7
aF2.2359018325805664
aatp8
Rp9
.ccollections
OrderedDict
p0
((lp1
(lp2
S'state'
p3
aI400
aa(lp4
S'distance'
p5
aF375.2200241088867
aa(lp6
S'timestamp'
p7
aF2.2364299297332764
aatp8
Rp9
.ccollections
OrderedDict
p0
((lp1
(lp2
S'state'
p3
aI400
aa(lp4
S'distance'
p5
aF375.2200241088867
aa(lp6
S'timestamp'
p7
aF2.2460110187530518
aatp8
Rp9
.ccollections
OrderedDict
p0
((lp1
(lp2
S'state'
p3
aI400
aa(lp4
S'distance'
p5
aF375.2200241088867
aa(lp6
S'timestamp'
p7
aF2.246387004852295
aatp8
Rp9
.ccollections
OrderedDict
p0
((lp1
(lp2
S'state'
p3
aI400
aa(lp4
S'distance'
p5
aF375.2200241088867
aa(lp6
S'timestamp'
p7
aF2.256330966949463
aatp8
Rp9
.ccollections
OrderedDict
p0
((lp1
(lp2
S'state'
p3
aI400
aa(lp4
S'distance'
p5
aF375.2200241088867
aa(lp6
S'timestamp'
p7
aF2.256408929824829
aatp8
Rp9
.ccollections
OrderedDict
p0
((lp1
(lp2
S'state'
p3
aI400
aa(lp4
S'distance'
p5
aF375.2200241088867
aa(lp6
S'timestamp'
p7
aF2.2660629749298096
aatp8
Rp9
.ccollections
OrderedDict
p0
((lp1
(lp2
S'state'
p3
aI400
aa(lp4
S'distance'
p5
aF375.2200241088867
aa(lp6
S'timestamp'
p7
aF2.2665610313415527
aatp8
Rp9
.ccollections
OrderedDict
p0
((lp1
(lp2
S'state'
p3
aI400
aa(lp4
S'distance'
p5
aF375.2200241088867
aa(lp6
S'timestamp'
p7
aF2.2759158611297607
aatp8
Rp9
.ccollections
OrderedDict
p0
((lp1
(lp2
S'state'
p3
aI400
aa(lp4
S'distance'
p5
aF375.2200241088867
aa(lp6
S'timestamp'
p7
aF2.2764790058135986
aatp8
Rp9
.ccollections
OrderedDict
p0
((lp1
(lp2
S'state'
p3
aI400
aa(lp4
S'distance'
p5
aF375.2200241088867
aa(lp6
S'timestamp'
p7
aF2.285831928253174
aatp8
Rp9
.ccollections
OrderedDict
p0
((lp1
(lp2
S'state'
p3
aI400
aa(lp4
S'distance'
p5
aF375.2200241088867
aa(lp6
S'timestamp'
p7
aF2.2864630222320557
aatp8
Rp9
.ccollections
OrderedDict
p0
((lp1
(lp2
S'state'
p3
aI400
aa(lp4
S'distance'
p5
aF375.2200241088867
aa(lp6
S'timestamp'
p7
aF2.2963669300079346
aatp8
Rp9
.ccollections
OrderedDict
p0
((lp1
(lp2
S'state'
p3
aI400
aa(lp4
S'distance'
p5
aF375.2200241088867
aa(lp6
S'timestamp'
p7
aF2.2965009212493896
aatp8
Rp9
.ccollections
OrderedDict
p0
((lp1
(lp2
S'state'
p3
aI400
aa(lp4
S'distance'
p5
aF375.2200241088867
aa(lp6
S'timestamp'
p7
aF2.30604887008667
aatp8
Rp9
.ccollections
OrderedDict
p0
((lp1
(lp2
S'state'
p3
aI400
aa(lp4
S'distance'
p5
aF375.2200241088867
aa(lp6
S'timestamp'
p7
aF2.306414842605591
aatp8
Rp9
.ccollections
OrderedDict
p0
((lp1
(lp2
S'state'
p3
aI400
aa(lp4
S'distance'
p5
aF375.2200241088867
aa(lp6
S'timestamp'
p7
aF2.315903902053833
aatp8
Rp9
.ccollections
OrderedDict
p0
((lp1
(lp2
S'state'
p3
aI400
aa(lp4
S'distance'
p5
aF375.2200241088867
aa(lp6
S'timestamp'
p7
aF2.316537857055664
aatp8
Rp9
.ccollections
OrderedDict
p0
((lp1
(lp2
S'state'
p3
aI400
aa(lp4
S'distance'
p5
aF375.2200241088867
aa(lp6
S'timestamp'
p7
aF2.3259949684143066
aatp8
Rp9
.ccollections
OrderedDict
p0
((lp1
(lp2
S'state'
p3
aI400
aa(lp4
S'distance'
p5
aF375.2200241088867
aa(lp6
S'timestamp'
p7
aF2.326368808746338
aatp8
Rp9
.ccollections
OrderedDict
p0
((lp1
(lp2
S'state'
p3
aI400
aa(lp4
S'distance'
p5
aF375.2200241088867
aa(lp6
S'timestamp'
p7
aF2.33632493019104
aatp8
Rp9
.ccollections
OrderedDict
p0
((lp1
(lp2
S'state'
p3
aI400
aa(lp4
S'distance'
p5
aF375.2200241088867
aa(lp6
S'timestamp'
p7
aF2.3364439010620117
aatp8
Rp9
.ccollections
OrderedDict
p0
((lp1
(lp2
S'state'
p3
aI400
aa(lp4
S'distance'
p5
aF375.2200241088867
aa(lp6
S'timestamp'
p7
aF2.345808982849121
aatp8
Rp9
.ccollections
OrderedDict
p0
((lp1
(lp2
S'state'
p3
aI400
aa(lp4
S'distance'
p5
aF375.2200241088867
aa(lp6
S'timestamp'
p7
aF2.346508026123047
aatp8
Rp9
.ccollections
OrderedDict
p0
((lp1
(lp2
S'state'
p3
aI400
aa(lp4
S'distance'
p5
aF375.2200241088867
aa(lp6
S'timestamp'
p7
aF2.3557538986206055
aatp8
Rp9
.ccollections
OrderedDict
p0
((lp1
(lp2
S'state'
p3
aI400
aa(lp4
S'distance'
p5
aF375.2200241088867
aa(lp6
S'timestamp'
p7
aF2.3565449714660645
aatp8
Rp9
.ccollections
OrderedDict
p0
((lp1
(lp2
S'state'
p3
aI400
aa(lp4
S'distance'
p5
aF375.2200241088867
aa(lp6
S'timestamp'
p7
aF2.3662519454956055
aatp8
Rp9
.ccollections
OrderedDict
p0
((lp1
(lp2
S'state'
p3
aI400
aa(lp4
S'distance'
p5
aF375.2200241088867
aa(lp6
S'timestamp'
p7
aF2.366370916366577
aatp8
Rp9
.ccollections
OrderedDict
p0
((lp1
(lp2
S'state'
p3
aI400
aa(lp4
S'distance'
p5
aF375.2200241088867
aa(lp6
S'timestamp'
p7
aF2.376262903213501
aatp8
Rp9
.ccollections
OrderedDict
p0
((lp1
(lp2
S'state'
p3
aI400
aa(lp4
S'distance'
p5
aF375.2200241088867
aa(lp6
S'timestamp'
p7
aF2.3763909339904785
aatp8
Rp9
.ccollections
OrderedDict
p0
((lp1
(lp2
S'state'
p3
aI0
aa(lp4
S'distance'
p5
aF375.2200241088867
aa(lp6
S'timestamp'
p7
aF2.3858230113983154
aatp8
Rp9
.ccollections
OrderedDict
p0
((lp1
(lp2
S'state'
p3
aI0
aa(lp4
S'distance'
p5
aF264.6798095703125
aa(lp6
S'timestamp'
p7
aF2.947136878967285
aatp8
Rp9
.ccollections
OrderedDict
p0
((lp1
(lp2
S'state'
p3
aI0
aa(lp4
S'distance'
p5
aF264.6798095703125
aa(lp6
S'timestamp'
p7
aF2.9558188915252686
aatp8
Rp9
.ccollections
OrderedDict
p0
((lp1
(lp2
S'state'
p3
aI0
aa(lp4
S'distance'
p5
aF264.6798095703125
aa(lp6
S'timestamp'
p7
aF2.9567949771881104
aatp8
Rp9
.ccollections
OrderedDict
p0
((lp1
(lp2
S'state'
p3
aI0
aa(lp4
S'distance'
p5
aF264.6798095703125
aa(lp6
S'timestamp'
p7
aF2.9657859802246094
aatp8
Rp9
.ccollections
OrderedDict
p0
((lp1
(lp2
S'state'
p3
aI0
aa(lp4
S'distance'
p5
aF264.6798095703125
aa(lp6
S'timestamp'
p7
aF2.966336965560913
aatp8
Rp9
.ccollections
OrderedDict
p0
((lp1
(lp2
S'state'
p3
aI0
aa(lp4
S'distance'
p5
aF264.6798095703125
aa(lp6
S'timestamp'
p7
aF2.9857988357543945
aatp8
Rp9
.ccollections
OrderedDict
p0
((lp1
(lp2
S'state'
p3
aI0
aa(lp4
S'distance'
p5
aF264.6798095703125
aa(lp6
S'timestamp'
p7
aF2.986297845840454
aatp8
Rp9
.ccollections
OrderedDict
p0
((lp1
(lp2
S'state'
p3
aI0
aa(lp4
S'distance'
p5
aF264.6798095703125
aa(lp6
S'timestamp'
p7
aF2.986654043197632
aatp8
Rp9
.ccollections
OrderedDict
p0
((lp1
(lp2
S'state'
p3
aI0
aa(lp4
S'distance'
p5
aF264.6798095703125
aa(lp6
S'timestamp'
p7
aF2.988010883331299
aatp8
Rp9
.ccollections
OrderedDict
p0
((lp1
(lp2
S'state'
p3
aI0
aa(lp4
S'distance'
p5
aF264.6798095703125
aa(lp6
S'timestamp'
p7
aF2.9959969520568848
aatp8
Rp9
.ccollections
OrderedDict
p0
((lp1
(lp2
S'state'
p3
aI0
aa(lp4
S'distance'
p5
aF264.6798095703125
aa(lp6
S'timestamp'
p7
aF2.996340036392212
aatp8
Rp9
.ccollections
OrderedDict
p0
((lp1
(lp2
S'state'
p3
aI0
aa(lp4
S'distance'
p5
aF264.6798095703125
aa(lp6
S'timestamp'
p7
aF3.018159866333008
aatp8
Rp9
.ccollections
OrderedDict
p0
((lp1
(lp2
S'state'
p3
aI0
aa(lp4
S'distance'
p5
aF264.6798095703125
aa(lp6
S'timestamp'
p7
aF3.0184409618377686
aatp8
Rp9
.ccollections
OrderedDict
p0
((lp1
(lp2
S'state'
p3
aI0
aa(lp4
S'distance'
p5
aF264.6798095703125
aa(lp6
S'timestamp'
p7
aF3.020521879196167
aatp8
Rp9
.ccollections
OrderedDict
p0
((lp1
(lp2
S'state'
p3
aI0
aa(lp4
S'distance'
p5
aF264.6798095703125
aa(lp6
S'timestamp'
p7
aF3.0206680297851562
aatp8
Rp9
.ccollections
OrderedDict
p0
((lp1
(lp2
S'state'
p3
aI0
aa(lp4
S'distance'
p5
aF264.6798095703125
aa(lp6
S'timestamp'
p7
aF3.0267539024353027
aatp8
Rp9
.ccollections
OrderedDict
p0
((lp1
(lp2
S'state'
p3
aI0
aa(lp4
S'distance'
p5
aF264.6798095703125
aa(lp6
S'timestamp'
p7
aF3.026934862136841
aatp8
Rp9
.ccollections
OrderedDict
p0
((lp1
(lp2
S'state'
p3
aI0
aa(lp4
S'distance'
p5
aF264.6798095703125
aa(lp6
S'timestamp'
p7
aF3.035874843597412
aatp8
Rp9
.ccollections
OrderedDict
p0
((lp1
(lp2
S'state'
p3
aI0
aa(lp4
S'distance'
p5
aF264.6798095703125
aa(lp6
S'timestamp'
p7
aF3.036357879638672
aatp8
Rp9
.ccollections
OrderedDict
p0
((lp1
(lp2
S'state'
p3
aI0
aa(lp4
S'distance'
p5
aF264.6798095703125
aa(lp6
S'timestamp'
p7
aF3.0557289123535156
aatp8
Rp9
.ccollections
OrderedDict
p0
((lp1
(lp2
S'state'
p3
aI0
aa(lp4
S'distance'
p5
aF264.6798095703125
aa(lp6
S'timestamp'
p7
aF3.056241035461426
aatp8
Rp9
.ccollections
OrderedDict
p0
((lp1
(lp2
S'state'
p3
aI0
aa(lp4
S'distance'
p5
aF264.6798095703125
aa(lp6
S'timestamp'
p7
aF3.0572569370269775
aatp8
Rp9
.ccollections
OrderedDict
p0
((lp1
(lp2
S'state'
p3
aI0
aa(lp4
S'distance'
p5
aF264.6798095703125
aa(lp6
S'timestamp'
p7
aF3.05828595161438
aatp8
Rp9
.ccollections
OrderedDict
p0
((lp1
(lp2
S'state'
p3
aI0
aa(lp4
S'distance'
p5
aF264.6798095703125
aa(lp6
S'timestamp'
p7
aF3.065768003463745
aatp8
Rp9
.ccollections
OrderedDict
p0
((lp1
(lp2
S'state'
p3
aI0
aa(lp4
S'distance'
p5
aF264.6798095703125
aa(lp6
S'timestamp'
p7
aF3.066251039505005
aatp8
Rp9
.ccollections
OrderedDict
p0
((lp1
(lp2
S'state'
p3
aI0
aa(lp4
S'distance'
p5
aF264.6798095703125
aa(lp6
S'timestamp'
p7
aF3.117516040802002
aatp8
Rp9
.ccollections
OrderedDict
p0
((lp1
(lp2
S'state'
p3
aI0
aa(lp4
S'distance'
p5
aF264.6798095703125
aa(lp6
S'timestamp'
p7
aF3.118652820587158
aatp8
Rp9
.ccollections
OrderedDict
p0
((lp1
(lp2
S'state'
p3
aI0
aa(lp4
S'distance'
p5
aF264.6798095703125
aa(lp6
S'timestamp'
p7
aF3.1190149784088135
aatp8
Rp9
.ccollections
OrderedDict
p0
((lp1
(lp2
S'state'
p3
aI0
aa(lp4
S'distance'
p5
aF264.6798095703125
aa(lp6
S'timestamp'
p7
aF3.1191749572753906
aatp8
Rp9
.ccollections
OrderedDict
p0
((lp1
(lp2
S'state'
p3
aI0
aa(lp4
S'distance'
p5
aF264.6798095703125
aa(lp6
S'timestamp'
p7
aF3.1200008392333984
aatp8
Rp9
.ccollections
OrderedDict
p0
((lp1
(lp2
S'state'
p3
aI0
aa(lp4
S'distance'
p5
aF264.6798095703125
aa(lp6
S'timestamp'
p7
aF3.120149850845337
aatp8
Rp9
.ccollections
OrderedDict
p0
((lp1
(lp2
S'state'
p3
aI0
aa(lp4
S'distance'
p5
aF264.6798095703125
aa(lp6
S'timestamp'
p7
aF3.1203320026397705
aatp8
Rp9
.ccollections
OrderedDict
p0
((lp1
(lp2
S'state'
p3
aI0
aa(lp4
S'distance'
p5
aF264.6798095703125
aa(lp6
S'timestamp'
p7
aF3.1212010383605957
aatp8
Rp9
.ccollections
OrderedDict
p0
((lp1
(lp2
S'state'
p3
aI0
aa(lp4
S'distance'
p5
aF264.6798095703125
aa(lp6
S'timestamp'
p7
aF3.1213648319244385
aatp8
Rp9
.ccollections
OrderedDict
p0
((lp1
(lp2
S'state'
p3
aI0
aa(lp4
S'distance'
p5
aF264.6798095703125
aa(lp6
S'timestamp'
p7
aF3.121436834335327
aatp8
Rp9
.ccollections
OrderedDict
p0
((lp1
(lp2
S'state'
p3
aI0
aa(lp4
S'distance'
p5
aF264.6798095703125
aa(lp6
S'timestamp'
p7
aF3.13700795173645
aatp8
Rp9
.ccollections
OrderedDict
p0
((lp1
(lp2
S'state'
p3
aI0
aa(lp4
S'distance'
p5
aF264.6798095703125
aa(lp6
S'timestamp'
p7
aF3.1372179985046387
aatp8
Rp9
.ccollections
OrderedDict
p0
((lp1
(lp2
S'state'
p3
aI0
aa(lp4
S'distance'
p5
aF264.6798095703125
aa(lp6
S'timestamp'
p7
aF3.1373438835144043
aatp8
Rp9
.ccollections
OrderedDict
p0
((lp1
(lp2
S'state'
p3
aI0
aa(lp4
S'distance'
p5
aF264.6798095703125
aa(lp6
S'timestamp'
p7
aF3.137423038482666
aatp8
Rp9
.ccollections
OrderedDict
p0
((lp1
(lp2
S'state'
p3
aI0
aa(lp4
S'distance'
p5
aF264.6798095703125
aa(lp6
S'timestamp'
p7
aF3.1561930179595947
aatp8
Rp9
.ccollections
OrderedDict
p0
((lp1
(lp2
S'state'
p3
aI0
aa(lp4
S'distance'
p5
aF264.6798095703125
aa(lp6
S'timestamp'
p7
aF3.1562750339508057
aatp8
Rp9
.ccollections
OrderedDict
p0
((lp1
(lp2
S'state'
p3
aI0
aa(lp4
S'distance'
p5
aF264.6798095703125
aa(lp6
S'timestamp'
p7
aF3.157510995864868
aatp8
Rp9
.ccollections
OrderedDict
p0
((lp1
(lp2
S'state'
p3
aI0
aa(lp4
S'distance'
p5
aF264.6798095703125
aa(lp6
S'timestamp'
p7
aF3.1584718227386475
aatp8
Rp9
.ccollections
OrderedDict
p0
((lp1
(lp2
S'state'
p3
aI0
aa(lp4
S'distance'
p5
aF264.6798095703125
aa(lp6
S'timestamp'
p7
aF3.1662628650665283
aatp8
Rp9
.ccollections
OrderedDict
p0
((lp1
(lp2
S'state'
p3
aI0
aa(lp4
S'distance'
p5
aF264.6798095703125
aa(lp6
S'timestamp'
p7
aF3.1663479804992676
aatp8
Rp9
.ccollections
OrderedDict
p0
((lp1
(lp2
S'state'
p3
aI0
aa(lp4
S'distance'
p5
aF264.6798095703125
aa(lp6
S'timestamp'
p7
aF3.1763668060302734
aatp8
Rp9
.ccollections
OrderedDict
p0
((lp1
(lp2
S'state'
p3
aI0
aa(lp4
S'distance'
p5
aF264.6798095703125
aa(lp6
S'timestamp'
p7
aF3.1764419078826904
aatp8
Rp9
.ccollections
OrderedDict
p0
((lp1
(lp2
S'state'
p3
aI0
aa(lp4
S'distance'
p5
aF264.6798095703125
aa(lp6
S'timestamp'
p7
aF3.1858270168304443
aatp8
Rp9
.ccollections
OrderedDict
p0
((lp1
(lp2
S'state'
p3
aI0
aa(lp4
S'distance'
p5
aF264.6798095703125
aa(lp6
S'timestamp'
p7
aF3.186378002166748
aatp8
Rp9
.ccollections
OrderedDict
p0
((lp1
(lp2
S'state'
p3
aI0
aa(lp4
S'distance'
p5
aF264.6798095703125
aa(lp6
S'timestamp'
p7
aF3.1959989070892334
aatp8
Rp9
.ccollections
OrderedDict
p0
((lp1
(lp2
S'state'
p3
aI0
aa(lp4
S'distance'
p5
aF264.6798095703125
aa(lp6
S'timestamp'
p7
aF3.2158448696136475
aatp8
Rp9
.ccollections
OrderedDict
p0
((lp1
(lp2
S'state'
p3
aI0
aa(lp4
S'distance'
p5
aF264.6798095703125
aa(lp6
S'timestamp'
p7
aF3.216226816177368
aatp8
Rp9
.ccollections
OrderedDict
p0
((lp1
(lp2
S'state'
p3
aI0
aa(lp4
S'distance'
p5
aF264.6798095703125
aa(lp6
S'timestamp'
p7
aF3.2171640396118164
aatp8
Rp9
.ccollections
OrderedDict
p0
((lp1
(lp2
S'state'
p3
aI0
aa(lp4
S'distance'
p5
aF264.6798095703125
aa(lp6
S'timestamp'
p7
aF3.2172398567199707
aatp8
Rp9
.ccollections
OrderedDict
p0
((lp1
(lp2
S'state'
p3
aI0
aa(lp4
S'distance'
p5
aF264.6798095703125
aa(lp6
S'timestamp'
p7
aF3.245939016342163
aatp8
Rp9
.ccollections
OrderedDict
p0
((lp1
(lp2
S'state'
p3
aI0
aa(lp4
S'distance'
p5
aF264.6798095703125
aa(lp6
S'timestamp'
p7
aF3.24617600440979
aatp8
Rp9
.ccollections
OrderedDict
p0
((lp1
(lp2
S'state'
p3
aI0
aa(lp4
S'distance'
p5
aF264.6798095703125
aa(lp6
S'timestamp'
p7
aF3.24674391746521
aatp8
Rp9
.ccollections
OrderedDict
p0
((lp1
(lp2
S'state'
p3
aI0
aa(lp4
S'distance'
p5
aF264.6798095703125
aa(lp6
S'timestamp'
p7
aF3.2560739517211914
aatp8
Rp9
.ccollections
OrderedDict
p0
((lp1
(lp2
S'state'
p3
aI0
aa(lp4
S'distance'
p5
aF264.6798095703125
aa(lp6
S'timestamp'
p7
aF3.256157875061035
aatp8
Rp9
.ccollections
OrderedDict
p0
((lp1
(lp2
S'state'
p3
aI0
aa(lp4
S'distance'
p5
aF264.6798095703125
aa(lp6
S'timestamp'
p7
aF3.257424831390381
aatp8
Rp9
.ccollections
OrderedDict
p0
((lp1
(lp2
S'state'
p3
aI0
aa(lp4
S'distance'
p5
aF264.6798095703125
aa(lp6
S'timestamp'
p7
aF3.258445978164673
aatp8
Rp9
.ccollections
OrderedDict
p0
((lp1
(lp2
S'state'
p3
aI0
aa(lp4
S'distance'
p5
aF264.6798095703125
aa(lp6
S'timestamp'
p7
aF3.2659249305725098
aatp8
Rp9
.ccollections
OrderedDict
p0
((lp1
(lp2
S'state'
p3
aI0
aa(lp4
S'distance'
p5
aF264.6798095703125
aa(lp6
S'timestamp'
p7
aF3.266270875930786
aatp8
Rp9
.ccollections
OrderedDict
p0
((lp1
(lp2
S'state'
p3
aI0
aa(lp4
S'distance'
p5
aF264.6798095703125
aa(lp6
S'timestamp'
p7
aF3.2673609256744385
aatp8
Rp9
.ccollections
OrderedDict
p0
((lp1
(lp2
S'state'
p3
aI0
aa(lp4
S'distance'
p5
aF264.6798095703125
aa(lp6
S'timestamp'
p7
aF3.26851487159729
aatp8
Rp9
.ccollections
OrderedDict
p0
((lp1
(lp2
S'state'
p3
aI0
aa(lp4
S'distance'
p5
aF264.6798095703125
aa(lp6
S'timestamp'
p7
aF3.275934934616089
aatp8
Rp9
.ccollections
OrderedDict
p0
((lp1
(lp2
S'state'
p3
aI0
aa(lp4
S'distance'
p5
aF264.6798095703125
aa(lp6
S'timestamp'
p7
aF3.2861669063568115
aatp8
Rp9
.ccollections
OrderedDict
p0
((lp1
(lp2
S'state'
p3
aI0
aa(lp4
S'distance'
p5
aF264.6798095703125
aa(lp6
S'timestamp'
p7
aF3.286252975463867
aatp8
Rp9
.ccollections
OrderedDict
p0
((lp1
(lp2
S'state'
p3
aI0
aa(lp4
S'distance'
p5
aF264.6798095703125
aa(lp6
S'timestamp'
p7
aF3.2878899574279785
aatp8
Rp9
.ccollections
OrderedDict
p0
((lp1
(lp2
S'state'
p3
aI0
aa(lp4
S'distance'
p5
aF264.6798095703125
aa(lp6
S'timestamp'
p7
aF3.3058998584747314
aatp8
Rp9
.ccollections
OrderedDict
p0
((lp1
(lp2
S'state'
p3
aI0
aa(lp4
S'distance'
p5
aF264.6798095703125
aa(lp6
S'timestamp'
p7
aF3.3062148094177246
aatp8
Rp9
.ccollections
OrderedDict
p0
((lp1
(lp2
S'state'
p3
aI0
aa(lp4
S'distance'
p5
aF264.6798095703125
aa(lp6
S'timestamp'
p7
aF3.307304859161377
aatp8
Rp9
.ccollections
OrderedDict
p0
((lp1
(lp2
S'state'
p3
aI0
aa(lp4
S'distance'
p5
aF264.6798095703125
aa(lp6
S'timestamp'
p7
aF3.3084568977355957
aatp8
Rp9
.ccollections
OrderedDict
p0
((lp1
(lp2
S'state'
p3
aI0
aa(lp4
S'distance'
p5
aF264.6798095703125
aa(lp6
S'timestamp'
p7
aF3.315981864929199
aatp8
Rp9
.ccollections
OrderedDict
p0
((lp1
(lp2
S'state'
p3
aI0
aa(lp4
S'distance'
p5
aF264.6798095703125
aa(lp6
S'timestamp'
p7
aF3.3163158893585205
aatp8
Rp9
.ccollections
OrderedDict
p0
((lp1
(lp2
S'state'
p3
aI0
aa(lp4
S'distance'
p5
aF264.6798095703125
aa(lp6
S'timestamp'
p7
aF3.3258228302001953
aatp8
Rp9
.ccollections
OrderedDict
p0
((lp1
(lp2
S'state'
p3
aI0
aa(lp4
S'distance'
p5
aF264.6798095703125
aa(lp6
S'timestamp'
p7
aF3.326335906982422
aatp8
Rp9
.ccollections
OrderedDict
p0
((lp1
(lp2
S'state'
p3
aI0
aa(lp4
S'distance'
p5
aF264.6798095703125
aa(lp6
S'timestamp'
p7
aF3.3357839584350586
aatp8
Rp9
.ccollections
OrderedDict
p0
((lp1
(lp2
S'state'
p3
aI0
aa(lp4
S'distance'
p5
aF264.6798095703125
aa(lp6
S'timestamp'
p7
aF3.336422920227051
aatp8
Rp9
.ccollections
OrderedDict
p0
((lp1
(lp2
S'state'
p3
aI0
aa(lp4
S'distance'
p5
aF264.6798095703125
aa(lp6
S'timestamp'
p7
aF3.3457460403442383
aatp8
Rp9
.ccollections
OrderedDict
p0
((lp1
(lp2
S'state'
p3
aI0
aa(lp4
S'distance'
p5
aF264.6798095703125
aa(lp6
S'timestamp'
p7
aF3.3463878631591797
aatp8
Rp9
.ccollections
OrderedDict
p0
((lp1
(lp2
S'state'
p3
aI0
aa(lp4
S'distance'
p5
aF264.6798095703125
aa(lp6
S'timestamp'
p7
aF3.356220006942749
aatp8
Rp9
.ccollections
OrderedDict
p0
((lp1
(lp2
S'state'
p3
aI0
aa(lp4
S'distance'
p5
aF264.6798095703125
aa(lp6
S'timestamp'
p7
aF3.356339931488037
aatp8
Rp9
.ccollections
OrderedDict
p0
((lp1
(lp2
S'state'
p3
aI0
aa(lp4
S'distance'
p5
aF264.6798095703125
aa(lp6
S'timestamp'
p7
aF3.3660218715667725
aatp8
Rp9
.ccollections
OrderedDict
p0
((lp1
(lp2
S'state'
p3
aI0
aa(lp4
S'distance'
p5
aF264.6798095703125
aa(lp6
S'timestamp'
p7
aF3.3665668964385986
aatp8
Rp9
.ccollections
OrderedDict
p0
((lp1
(lp2
S'state'
p3
aI0
aa(lp4
S'distance'
p5
aF264.6798095703125
aa(lp6
S'timestamp'
p7
aF3.3757219314575195
aatp8
Rp9
.ccollections
OrderedDict
p0
((lp1
(lp2
S'state'
p3
aI0
aa(lp4
S'distance'
p5
aF264.6798095703125
aa(lp6
S'timestamp'
p7
aF3.3763058185577393
aatp8
Rp9
.ccollections
OrderedDict
p0
((lp1
(lp2
S'state'
p3
aI0
aa(lp4
S'distance'
p5
aF264.6798095703125
aa(lp6
S'timestamp'
p7
aF3.3859519958496094
aatp8
Rp9
.ccollections
OrderedDict
p0
((lp1
(lp2
S'state'
p3
aI0
aa(lp4
S'distance'
p5
aF264.6798095703125
aa(lp6
S'timestamp'
p7
aF3.386401891708374
aatp8
Rp9
.ccollections
OrderedDict
p0
((lp1
(lp2
S'state'
p3
aI0
aa(lp4
S'distance'
p5
aF264.6798095703125
aa(lp6
S'timestamp'
p7
aF3.3958020210266113
aatp8
Rp9
.ccollections
OrderedDict
p0
((lp1
(lp2
S'state'
p3
aI0
aa(lp4
S'distance'
p5
aF264.6798095703125
aa(lp6
S'timestamp'
p7
aF3.396366834640503
aatp8
Rp9
.ccollections
OrderedDict
p0
((lp1
(lp2
S'state'
p3
aI0
aa(lp4
S'distance'
p5
aF264.6798095703125
aa(lp6
S'timestamp'
p7
aF3.4059219360351562
aatp8
Rp9
.ccollections
OrderedDict
p0
((lp1
(lp2
S'state'
p3
aI0
aa(lp4
S'distance'
p5
aF264.6798095703125
aa(lp6
S'timestamp'
p7
aF3.4064948558807373
aatp8
Rp9
.ccollections
OrderedDict
p0
((lp1
(lp2
S'state'
p3
aI0
aa(lp4
S'distance'
p5
aF264.6798095703125
aa(lp6
S'timestamp'
p7
aF3.4158120155334473
aatp8
Rp9
.ccollections
OrderedDict
p0
((lp1
(lp2
S'state'
p3
aI0
aa(lp4
S'distance'
p5
aF264.6798095703125
aa(lp6
S'timestamp'
p7
aF3.4164299964904785
aatp8
Rp9
.ccollections
OrderedDict
p0
((lp1
(lp2
S'state'
p3
aI0
aa(lp4
S'distance'
p5
aF264.6798095703125
aa(lp6
S'timestamp'
p7
aF3.425778865814209
aatp8
Rp9
.ccollections
OrderedDict
p0
((lp1
(lp2
S'state'
p3
aI0
aa(lp4
S'distance'
p5
aF264.6798095703125
aa(lp6
S'timestamp'
p7
aF3.4262828826904297
aatp8
Rp9
.ccollections
OrderedDict
p0
((lp1
(lp2
S'state'
p3
aI0
aa(lp4
S'distance'
p5
aF264.6798095703125
aa(lp6
S'timestamp'
p7
aF3.4362428188323975
aatp8
Rp9
.ccollections
OrderedDict
p0
((lp1
(lp2
S'state'
p3
aI0
aa(lp4
S'distance'
p5
aF264.6798095703125
aa(lp6
S'timestamp'
p7
aF3.436323881149292
aatp8
Rp9
.ccollections
OrderedDict
p0
((lp1
(lp2
S'state'
p3
aI0
aa(lp4
S'distance'
p5
aF264.6798095703125
aa(lp6
S'timestamp'
p7
aF3.445744037628174
aatp8
Rp9
.ccollections
OrderedDict
p0
((lp1
(lp2
S'state'
p3
aI0
aa(lp4
S'distance'
p5
aF264.6798095703125
aa(lp6
S'timestamp'
p7
aF3.446367025375366
aatp8
Rp9
.ccollections
OrderedDict
p0
((lp1
(lp2
S'state'
p3
aI0
aa(lp4
S'distance'
p5
aF264.6798095703125
aa(lp6
S'timestamp'
p7
aF3.45574688911438
aatp8
Rp9
.ccollections
OrderedDict
p0
((lp1
(lp2
S'state'
p3
aI0
aa(lp4
S'distance'
p5
aF264.6798095703125
aa(lp6
S'timestamp'
p7
aF3.4564919471740723
aatp8
Rp9
.ccollections
OrderedDict
p0
((lp1
(lp2
S'state'
p3
aI400
aa(lp4
S'distance'
p5
aF264.6798095703125
aa(lp6
S'timestamp'
p7
aF3.465845823287964
aatp8
Rp9
.ccollections
OrderedDict
p0
((lp1
(lp2
S'state'
p3
aI400
aa(lp4
S'distance'
p5
aF264.6798095703125
aa(lp6
S'timestamp'
p7
aF3.4664018154144287
aatp8
Rp9
.ccollections
OrderedDict
p0
((lp1
(lp2
S'state'
p3
aI400
aa(lp4
S'distance'
p5
aF264.6798095703125
aa(lp6
S'timestamp'
p7
aF3.4960579872131348
aatp8
Rp9
.ccollections
OrderedDict
p0
((lp1
(lp2
S'state'
p3
aI400
aa(lp4
S'distance'
p5
aF264.6798095703125
aa(lp6
S'timestamp'
p7
aF3.498661994934082
aatp8
Rp9
.ccollections
OrderedDict
p0
((lp1
(lp2
S'state'
p3
aI400
aa(lp4
S'distance'
p5
aF264.6798095703125
aa(lp6
S'timestamp'
p7
aF3.498924970626831
aatp8
Rp9
.ccollections
OrderedDict
p0
((lp1
(lp2
S'state'
p3
aI400
aa(lp4
S'distance'
p5
aF264.6798095703125
aa(lp6
S'timestamp'
p7
aF3.500337839126587
aatp8
Rp9
.ccollections
OrderedDict
p0
((lp1
(lp2
S'state'
p3
aI400
aa(lp4
S'distance'
p5
aF264.6798095703125
aa(lp6
S'timestamp'
p7
aF3.505980968475342
aatp8
Rp9
.ccollections
OrderedDict
p0
((lp1
(lp2
S'state'
p3
aI400
aa(lp4
S'distance'
p5
aF264.6798095703125
aa(lp6
S'timestamp'
p7
aF3.5067238807678223
aatp8
Rp9
.ccollections
OrderedDict
p0
((lp1
(lp2
S'state'
p3
aI400
aa(lp4
S'distance'
p5
aF264.6798095703125
aa(lp6
S'timestamp'
p7
aF3.5084228515625
aatp8
Rp9
.ccollections
OrderedDict
p0
((lp1
(lp2
S'state'
p3
aI400
aa(lp4
S'distance'
p5
aF264.6798095703125
aa(lp6
S'timestamp'
p7
aF3.5091300010681152
aatp8
Rp9
.ccollections
OrderedDict
p0
((lp1
(lp2
S'state'
p3
aI400
aa(lp4
S'distance'
p5
aF264.6798095703125
aa(lp6
S'timestamp'
p7
aF3.5258100032806396
aatp8
Rp9
.ccollections
OrderedDict
p0
((lp1
(lp2
S'state'
p3
aI400
aa(lp4
S'distance'
p5
aF264.6798095703125
aa(lp6
S'timestamp'
p7
aF3.5263829231262207
aatp8
Rp9
.ccollections
OrderedDict
p0
((lp1
(lp2
S'state'
p3
aI400
aa(lp4
S'distance'
p5
aF264.6798095703125
aa(lp6
S'timestamp'
p7
aF3.5266149044036865
aatp8
Rp9
.ccollections
OrderedDict
p0
((lp1
(lp2
S'state'
p3
aI400
aa(lp4
S'distance'
p5
aF264.6798095703125
aa(lp6
S'timestamp'
p7
aF3.52751088142395
aatp8
Rp9
.ccollections
OrderedDict
p0
((lp1
(lp2
S'state'
p3
aI400
aa(lp4
S'distance'
p5
aF264.6798095703125
aa(lp6
S'timestamp'
p7
aF3.5556628704071045
aatp8
Rp9
.ccollections
OrderedDict
p0
((lp1
(lp2
S'state'
p3
aI400
aa(lp4
S'distance'
p5
aF264.6798095703125
aa(lp6
S'timestamp'
p7
aF3.5562968254089355
aatp8
Rp9
.ccollections
OrderedDict
p0
((lp1
(lp2
S'state'
p3
aI400
aa(lp4
S'distance'
p5
aF264.6798095703125
aa(lp6
S'timestamp'
p7
aF3.557905912399292
aatp8
Rp9
.ccollections
OrderedDict
p0
((lp1
(lp2
S'state'
p3
aI400
aa(lp4
S'distance'
p5
aF264.6798095703125
aa(lp6
S'timestamp'
p7
aF3.558969020843506
aatp8
Rp9
.ccollections
OrderedDict
p0
((lp1
(lp2
S'state'
p3
aI400
aa(lp4
S'distance'
p5
aF264.6798095703125
aa(lp6
S'timestamp'
p7
aF3.5760648250579834
aatp8
Rp9
.ccollections
OrderedDict
p0
((lp1
(lp2
S'state'
p3
aI400
aa(lp4
S'distance'
p5
aF264.6798095703125
aa(lp6
S'timestamp'
p7
aF3.576185941696167
aatp8
Rp9
.ccollections
OrderedDict
p0
((lp1
(lp2
S'state'
p3
aI400
aa(lp4
S'distance'
p5
aF264.6798095703125
aa(lp6
S'timestamp'
p7
aF3.5771918296813965
aatp8
Rp9
.ccollections
OrderedDict
p0
((lp1
(lp2
S'state'
p3
aI400
aa(lp4
S'distance'
p5
aF264.6798095703125
aa(lp6
S'timestamp'
p7
aF3.578310012817383
aatp8
Rp9
.ccollections
OrderedDict
p0
((lp1
(lp2
S'state'
p3
aI400
aa(lp4
S'distance'
p5
aF264.6798095703125
aa(lp6
S'timestamp'
p7
aF3.5858819484710693
aatp8
Rp9
.ccollections
OrderedDict
p0
((lp1
(lp2
S'state'
p3
aI400
aa(lp4
S'distance'
p5
aF264.6798095703125
aa(lp6
S'timestamp'
p7
aF3.586458921432495
aatp8
Rp9
.ccollections
OrderedDict
p0
((lp1
(lp2
S'state'
p3
aI400
aa(lp4
S'distance'
p5
aF264.6798095703125
aa(lp6
S'timestamp'
p7
aF3.5873658657073975
aatp8
Rp9
.ccollections
OrderedDict
p0
((lp1
(lp2
S'state'
p3
aI400
aa(lp4
S'distance'
p5
aF264.6798095703125
aa(lp6
S'timestamp'
p7
aF3.588277816772461
aatp8
Rp9
.ccollections
OrderedDict
p0
((lp1
(lp2
S'state'
p3
aI400
aa(lp4
S'distance'
p5
aF264.6798095703125
aa(lp6
S'timestamp'
p7
aF3.596130847930908
aatp8
Rp9
.ccollections
OrderedDict
p0
((lp1
(lp2
S'state'
p3
aI400
aa(lp4
S'distance'
p5
aF264.6798095703125
aa(lp6
S'timestamp'
p7
aF3.596252918243408
aatp8
Rp9
.ccollections
OrderedDict
p0
((lp1
(lp2
S'state'
p3
aI400
aa(lp4
S'distance'
p5
aF264.6798095703125
aa(lp6
S'timestamp'
p7
aF3.606109857559204
aatp8
Rp9
.ccollections
OrderedDict
p0
((lp1
(lp2
S'state'
p3
aI400
aa(lp4
S'distance'
p5
aF264.6798095703125
aa(lp6
S'timestamp'
p7
aF3.606454849243164
aatp8
Rp9
.ccollections
OrderedDict
p0
((lp1
(lp2
S'state'
p3
aI400
aa(lp4
S'distance'
p5
aF264.6798095703125
aa(lp6
S'timestamp'
p7
aF3.616452932357788
aatp8
Rp9
.ccollections
OrderedDict
p0
((lp1
(lp2
S'state'
p3
aI400
aa(lp4
S'distance'
p5
aF264.6798095703125
aa(lp6
S'timestamp'
p7
aF3.616726875305176
aatp8
Rp9
.ccollections
OrderedDict
p0
((lp1
(lp2
S'state'
p3
aI400
aa(lp4
S'distance'
p5
aF264.6798095703125
aa(lp6
S'timestamp'
p7
aF3.6358838081359863
aatp8
Rp9
.ccollections
OrderedDict
p0
((lp1
(lp2
S'state'
p3
aI400
aa(lp4
S'distance'
p5
aF264.6798095703125
aa(lp6
S'timestamp'
p7
aF3.636478900909424
aatp8
Rp9
.ccollections
OrderedDict
p0
((lp1
(lp2
S'state'
p3
aI400
aa(lp4
S'distance'
p5
aF264.6798095703125
aa(lp6
S'timestamp'
p7
aF3.6365809440612793
aatp8
Rp9
.ccollections
OrderedDict
p0
((lp1
(lp2
S'state'
p3
aI400
aa(lp4
S'distance'
p5
aF264.6798095703125
aa(lp6
S'timestamp'
p7
aF3.646064043045044
aatp8
Rp9
.ccollections
OrderedDict
p0
((lp1
(lp2
S'state'
p3
aI400
aa(lp4
S'distance'
p5
aF264.6798095703125
aa(lp6
S'timestamp'
p7
aF3.6461470127105713
aatp8
Rp9
.ccollections
OrderedDict
p0
((lp1
(lp2
S'state'
p3
aI400
aa(lp4
S'distance'
p5
aF264.6798095703125
aa(lp6
S'timestamp'
p7
aF3.6471309661865234
aatp8
Rp9
.ccollections
OrderedDict
p0
((lp1
(lp2
S'state'
p3
aI400
aa(lp4
S'distance'
p5
aF264.6798095703125
aa(lp6
S'timestamp'
p7
aF3.655911922454834
aatp8
Rp9
.ccollections
OrderedDict
p0
((lp1
(lp2
S'state'
p3
aI400
aa(lp4
S'distance'
p5
aF264.6798095703125
aa(lp6
S'timestamp'
p7
aF3.65627384185791
aatp8
Rp9
.ccollections
OrderedDict
p0
((lp1
(lp2
S'state'
p3
aI400
aa(lp4
S'distance'
p5
aF264.6798095703125
aa(lp6
S'timestamp'
p7
aF3.665949821472168
aatp8
Rp9
.ccollections
OrderedDict
p0
((lp1
(lp2
S'state'
p3
aI400
aa(lp4
S'distance'
p5
aF264.6798095703125
aa(lp6
S'timestamp'
p7
aF3.6663718223571777
aatp8
Rp9
.ccollections
OrderedDict
p0
((lp1
(lp2
S'state'
p3
aI400
aa(lp4
S'distance'
p5
aF264.6798095703125
aa(lp6
S'timestamp'
p7
aF3.676057815551758
aatp8
Rp9
.ccollections
OrderedDict
p0
((lp1
(lp2
S'state'
p3
aI400
aa(lp4
S'distance'
p5
aF264.6798095703125
aa(lp6
S'timestamp'
p7
aF3.6762659549713135
aatp8
Rp9
.ccollections
OrderedDict
p0
((lp1
(lp2
S'state'
p3
aI400
aa(lp4
S'distance'
p5
aF264.6798095703125
aa(lp6
S'timestamp'
p7
aF3.6869659423828125
aatp8
Rp9
.ccollections
OrderedDict
p0
((lp1
(lp2
S'state'
p3
aI400
aa(lp4
S'distance'
p5
aF264.6798095703125
aa(lp6
S'timestamp'
p7
aF3.687053918838501
aatp8
Rp9
.ccollections
OrderedDict
p0
((lp1
(lp2
S'state'
p3
aI400
aa(lp4
S'distance'
p5
aF264.6798095703125
aa(lp6
S'timestamp'
p7
aF3.706697940826416
aatp8
Rp9
.ccollections
OrderedDict
p0
((lp1
(lp2
S'state'
p3
aI400
aa(lp4
S'distance'
p5
aF264.6798095703125
aa(lp6
S'timestamp'
p7
aF3.706774950027466
aatp8
Rp9
.ccollections
OrderedDict
p0
((lp1
(lp2
S'state'
p3
aI400
aa(lp4
S'distance'
p5
aF264.6798095703125
aa(lp6
S'timestamp'
p7
aF3.7078378200531006
aatp8
Rp9
.ccollections
OrderedDict
p0
((lp1
(lp2
S'state'
p3
aI400
aa(lp4
S'distance'
p5
aF264.6798095703125
aa(lp6
S'timestamp'
p7
aF3.708889961242676
aatp8
Rp9
.ccollections
OrderedDict
p0
((lp1
(lp2
S'state'
p3
aI400
aa(lp4
S'distance'
p5
aF264.6798095703125
aa(lp6
S'timestamp'
p7
aF3.716033935546875
aatp8
Rp9
.ccollections
OrderedDict
p0
((lp1
(lp2
S'state'
p3
aI400
aa(lp4
S'distance'
p5
aF264.6798095703125
aa(lp6
S'timestamp'
p7
aF3.7162468433380127
aatp8
Rp9
.ccollections
OrderedDict
p0
((lp1
(lp2
S'state'
p3
aI400
aa(lp4
S'distance'
p5
aF264.6798095703125
aa(lp6
S'timestamp'
p7
aF3.7260818481445312
aatp8
Rp9
.ccollections
OrderedDict
p0
((lp1
(lp2
S'state'
p3
aI400
aa(lp4
S'distance'
p5
aF264.6798095703125
aa(lp6
S'timestamp'
p7
aF3.7262518405914307
aatp8
Rp9
.ccollections
OrderedDict
p0
((lp1
(lp2
S'state'
p3
aI400
aa(lp4
S'distance'
p5
aF264.6798095703125
aa(lp6
S'timestamp'
p7
aF3.7357349395751953
aatp8
Rp9
.ccollections
OrderedDict
p0
((lp1
(lp2
S'state'
p3
aI400
aa(lp4
S'distance'
p5
aF264.6798095703125
aa(lp6
S'timestamp'
p7
aF3.7363438606262207
aatp8
Rp9
.ccollections
OrderedDict
p0
((lp1
(lp2
S'state'
p3
aI400
aa(lp4
S'distance'
p5
aF264.6798095703125
aa(lp6
S'timestamp'
p7
aF3.74611496925354
aatp8
Rp9
.ccollections
OrderedDict
p0
((lp1
(lp2
S'state'
p3
aI400
aa(lp4
S'distance'
p5
aF264.6798095703125
aa(lp6
S'timestamp'
p7
aF3.746363878250122
aatp8
Rp9
.ccollections
OrderedDict
p0
((lp1
(lp2
S'state'
p3
aI400
aa(lp4
S'distance'
p5
aF264.6798095703125
aa(lp6
S'timestamp'
p7
aF3.7560579776763916
aatp8
Rp9
.ccollections
OrderedDict
p0
((lp1
(lp2
S'state'
p3
aI400
aa(lp4
S'distance'
p5
aF264.6798095703125
aa(lp6
S'timestamp'
p7
aF3.756258010864258
aatp8
Rp9
.ccollections
OrderedDict
p0
((lp1
(lp2
S'state'
p3
aI400
aa(lp4
S'distance'
p5
aF264.6798095703125
aa(lp6
S'timestamp'
p7
aF3.765983819961548
aatp8
Rp9
.ccollections
OrderedDict
p0
((lp1
(lp2
S'state'
p3
aI400
aa(lp4
S'distance'
p5
aF264.6798095703125
aa(lp6
S'timestamp'
p7
aF3.7663068771362305
aatp8
Rp9
.ccollections
OrderedDict
p0
((lp1
(lp2
S'state'
p3
aI400
aa(lp4
S'distance'
p5
aF264.6798095703125
aa(lp6
S'timestamp'
p7
aF3.775808811187744
aatp8
Rp9
.ccollections
OrderedDict
p0
((lp1
(lp2
S'state'
p3
aI400
aa(lp4
S'distance'
p5
aF264.6798095703125
aa(lp6
S'timestamp'
p7
aF3.776474952697754
aatp8
Rp9
.ccollections
OrderedDict
p0
((lp1
(lp2
S'state'
p3
aI400
aa(lp4
S'distance'
p5
aF264.6798095703125
aa(lp6
S'timestamp'
p7
aF3.7860939502716064
aatp8
Rp9
.ccollections
OrderedDict
p0
((lp1
(lp2
S'state'
p3
aI400
aa(lp4
S'distance'
p5
aF264.6798095703125
aa(lp6
S'timestamp'
p7
aF3.7863588333129883
aatp8
Rp9
.ccollections
OrderedDict
p0
((lp1
(lp2
S'state'
p3
aI400
aa(lp4
S'distance'
p5
aF264.6798095703125
aa(lp6
S'timestamp'
p7
aF3.8060429096221924
aatp8
Rp9
.ccollections
OrderedDict
p0
((lp1
(lp2
S'state'
p3
aI400
aa(lp4
S'distance'
p5
aF264.6798095703125
aa(lp6
S'timestamp'
p7
aF3.8061740398406982
aatp8
Rp9
.ccollections
OrderedDict
p0
((lp1
(lp2
S'state'
p3
aI400
aa(lp4
S'distance'
p5
aF264.6798095703125
aa(lp6
S'timestamp'
p7
aF3.8066749572753906
aatp8
Rp9
.ccollections
OrderedDict
p0
((lp1
(lp2
S'state'
p3
aI400
aa(lp4
S'distance'
p5
aF264.6798095703125
aa(lp6
S'timestamp'
p7
aF3.8072669506073
aatp8
Rp9
.ccollections
OrderedDict
p0
((lp1
(lp2
S'state'
p3
aI400
aa(lp4
S'distance'
p5
aF264.6798095703125
aa(lp6
S'timestamp'
p7
aF3.815984010696411
aatp8
Rp9
.ccollections
OrderedDict
p0
((lp1
(lp2
S'state'
p3
aI400
aa(lp4
S'distance'
p5
aF264.6798095703125
aa(lp6
S'timestamp'
p7
aF3.8163368701934814
aatp8
Rp9
.ccollections
OrderedDict
p0
((lp1
(lp2
S'state'
p3
aI400
aa(lp4
S'distance'
p5
aF264.6798095703125
aa(lp6
S'timestamp'
p7
aF3.8259568214416504
aatp8
Rp9
.ccollections
OrderedDict
p0
((lp1
(lp2
S'state'
p3
aI400
aa(lp4
S'distance'
p5
aF264.6798095703125
aa(lp6
S'timestamp'
p7
aF3.82635498046875
aatp8
Rp9
.ccollections
OrderedDict
p0
((lp1
(lp2
S'state'
p3
aI400
aa(lp4
S'distance'
p5
aF264.6798095703125
aa(lp6
S'timestamp'
p7
aF3.8359429836273193
aatp8
Rp9
.ccollections
OrderedDict
p0
((lp1
(lp2
S'state'
p3
aI400
aa(lp4
S'distance'
p5
aF264.6798095703125
aa(lp6
S'timestamp'
p7
aF3.8363399505615234
aatp8
Rp9
.ccollections
OrderedDict
p0
((lp1
(lp2
S'state'
p3
aI400
aa(lp4
S'distance'
p5
aF264.6798095703125
aa(lp6
S'timestamp'
p7
aF3.8460779190063477
aatp8
Rp9
.ccollections
OrderedDict
p0
((lp1
(lp2
S'state'
p3
aI400
aa(lp4
S'distance'
p5
aF264.6798095703125
aa(lp6
S'timestamp'
p7
aF3.846259832382202
aatp8
Rp9
.ccollections
OrderedDict
p0
((lp1
(lp2
S'state'
p3
aI400
aa(lp4
S'distance'
p5
aF264.6798095703125
aa(lp6
S'timestamp'
p7
aF3.855914831161499
aatp8
Rp9
.ccollections
OrderedDict
p0
((lp1
(lp2
S'state'
p3
aI400
aa(lp4
S'distance'
p5
aF264.6798095703125
aa(lp6
S'timestamp'
p7
aF3.8563148975372314
aatp8
Rp9
.ccollections
OrderedDict
p0
((lp1
(lp2
S'state'
p3
aI400
aa(lp4
S'distance'
p5
aF264.6798095703125
aa(lp6
S'timestamp'
p7
aF3.867202043533325
aatp8
Rp9
.ccollections
OrderedDict
p0
((lp1
(lp2
S'state'
p3
aI400
aa(lp4
S'distance'
p5
aF264.6798095703125
aa(lp6
S'timestamp'
p7
aF3.8673219680786133
aatp8
Rp9
.ccollections
OrderedDict
p0
((lp1
(lp2
S'state'
p3
aI400
aa(lp4
S'distance'
p5
aF264.6798095703125
aa(lp6
S'timestamp'
p7
aF3.8759310245513916
aatp8
Rp9
.ccollections
OrderedDict
p0
((lp1
(lp2
S'state'
p3
aI400
aa(lp4
S'distance'
p5
aF264.6798095703125
aa(lp6
S'timestamp'
p7
aF3.876271963119507
aatp8
Rp9
.ccollections
OrderedDict
p0
((lp1
(lp2
S'state'
p3
aI400
aa(lp4
S'distance'
p5
aF264.6798095703125
aa(lp6
S'timestamp'
p7
aF3.886436939239502
aatp8
Rp9
.ccollections
OrderedDict
p0
((lp1
(lp2
S'state'
p3
aI400
aa(lp4
S'distance'
p5
aF264.6798095703125
aa(lp6
S'timestamp'
p7
aF3.8866209983825684
aatp8
Rp9
.ccollections
OrderedDict
p0
((lp1
(lp2
S'state'
p3
aI400
aa(lp4
S'distance'
p5
aF264.6798095703125
aa(lp6
S'timestamp'
p7
aF3.8965048789978027
aatp8
Rp9
.ccollections
OrderedDict
p0
((lp1
(lp2
S'state'
p3
aI400
aa(lp4
S'distance'
p5
aF264.6798095703125
aa(lp6
S'timestamp'
p7
aF3.8965859413146973
aatp8
Rp9
.ccollections
OrderedDict
p0
((lp1
(lp2
S'state'
p3
aI400
aa(lp4
S'distance'
p5
aF264.6798095703125
aa(lp6
S'timestamp'
p7
aF3.905879020690918
aatp8
Rp9
.ccollections
OrderedDict
p0
((lp1
(lp2
S'state'
p3
aI400
aa(lp4
S'distance'
p5
aF264.6798095703125
aa(lp6
S'timestamp'
p7
aF3.9066338539123535
aatp8
Rp9
.ccollections
OrderedDict
p0
((lp1
(lp2
S'state'
p3
aI400
aa(lp4
S'distance'
p5
aF264.6798095703125
aa(lp6
S'timestamp'
p7
aF3.9161198139190674
aatp8
Rp9
.ccollections
OrderedDict
p0
((lp1
(lp2
S'state'
p3
aI400
aa(lp4
S'distance'
p5
aF264.6798095703125
aa(lp6
S'timestamp'
p7
aF3.9162039756774902
aatp8
Rp9
.ccollections
OrderedDict
p0
((lp1
(lp2
S'state'
p3
aI400
aa(lp4
S'distance'
p5
aF264.6798095703125
aa(lp6
S'timestamp'
p7
aF3.9260268211364746
aatp8
Rp9
.ccollections
OrderedDict
p0
((lp1
(lp2
S'state'
p3
aI400
aa(lp4
S'distance'
p5
aF264.6798095703125
aa(lp6
S'timestamp'
p7
aF3.9263198375701904
aatp8
Rp9
.ccollections
OrderedDict
p0
((lp1
(lp2
S'state'
p3
aI400
aa(lp4
S'distance'
p5
aF264.6798095703125
aa(lp6
S'timestamp'
p7
aF3.935905933380127
aatp8
Rp9
.ccollections
OrderedDict
p0
((lp1
(lp2
S'state'
p3
aI400
aa(lp4
S'distance'
p5
aF264.6798095703125
aa(lp6
S'timestamp'
p7
aF3.9363279342651367
aatp8
Rp9
.ccollections
OrderedDict
p0
((lp1
(lp2
S'state'
p3
aI400
aa(lp4
S'distance'
p5
aF264.6798095703125
aa(lp6
S'timestamp'
p7
aF3.9461560249328613
aatp8
Rp9
.ccollections
OrderedDict
p0
((lp1
(lp2
S'state'
p3
aI400
aa(lp4
S'distance'
p5
aF264.6798095703125
aa(lp6
S'timestamp'
p7
aF3.9465789794921875
aatp8
Rp9
.ccollections
OrderedDict
p0
((lp1
(lp2
S'state'
p3
aI400
aa(lp4
S'distance'
p5
aF264.6798095703125
aa(lp6
S'timestamp'
p7
aF3.9560468196868896
aatp8
Rp9
.ccollections
OrderedDict
p0
((lp1
(lp2
S'state'
p3
aI400
aa(lp4
S'distance'
p5
aF264.6798095703125
aa(lp6
S'timestamp'
p7
aF3.956270933151245
aatp8
Rp9
.ccollections
OrderedDict
p0
((lp1
(lp2
S'state'
p3
aI400
aa(lp4
S'distance'
p5
aF264.6798095703125
aa(lp6
S'timestamp'
p7
aF3.9758598804473877
aatp8
Rp9
.ccollections
OrderedDict
p0
((lp1
(lp2
S'state'
p3
aI400
aa(lp4
S'distance'
p5
aF264.6798095703125
aa(lp6
S'timestamp'
p7
aF3.976219892501831
aatp8
Rp9
.ccollections
OrderedDict
p0
((lp1
(lp2
S'state'
p3
aI400
aa(lp4
S'distance'
p5
aF264.6798095703125
aa(lp6
S'timestamp'
p7
aF3.9771029949188232
aatp8
Rp9
.ccollections
OrderedDict
p0
((lp1
(lp2
S'state'
p3
aI400
aa(lp4
S'distance'
p5
aF264.6798095703125
aa(lp6
S'timestamp'
p7
aF3.977198839187622
aatp8
Rp9
.ccollections
OrderedDict
p0
((lp1
(lp2
S'state'
p3
aI400
aa(lp4
S'distance'
p5
aF264.6798095703125
aa(lp6
S'timestamp'
p7
aF3.9860799312591553
aatp8
Rp9
.ccollections
OrderedDict
p0
((lp1
(lp2
S'state'
p3
aI400
aa(lp4
S'distance'
p5
aF264.6798095703125
aa(lp6
S'timestamp'
p7
aF3.9864249229431152
aatp8
Rp9
.ccollections
OrderedDict
p0
((lp1
(lp2
S'state'
p3
aI400
aa(lp4
S'distance'
p5
aF264.6798095703125
aa(lp6
S'timestamp'
p7
aF3.996121883392334
aatp8
Rp9
.ccollections
OrderedDict
p0
((lp1
(lp2
S'state'
p3
aI400
aa(lp4
S'distance'
p5
aF264.6798095703125
aa(lp6
S'timestamp'
p7
aF3.996241807937622
aatp8
Rp9
.ccollections
OrderedDict
p0
((lp1
(lp2
S'state'
p3
aI400
aa(lp4
S'distance'
p5
aF264.6798095703125
aa(lp6
S'timestamp'
p7
aF4.006166934967041
aatp8
Rp9
.ccollections
OrderedDict
p0
((lp1
(lp2
S'state'
p3
aI400
aa(lp4
S'distance'
p5
aF264.6798095703125
aa(lp6
S'timestamp'
p7
aF4.006259918212891
aatp8
Rp9
.ccollections
OrderedDict
p0
((lp1
(lp2
S'state'
p3
aI400
aa(lp4
S'distance'
p5
aF264.6798095703125
aa(lp6
S'timestamp'
p7
aF4.015751838684082
aatp8
Rp9
.ccollections
OrderedDict
p0
((lp1
(lp2
S'state'
p3
aI400
aa(lp4
S'distance'
p5
aF264.6798095703125
aa(lp6
S'timestamp'
p7
aF4.0164618492126465
aatp8
Rp9
.ccollections
OrderedDict
p0
((lp1
(lp2
S'state'
p3
aI400
aa(lp4
S'distance'
p5
aF264.6798095703125
aa(lp6
S'timestamp'
p7
aF4.025868892669678
aatp8
Rp9
.ccollections
OrderedDict
p0
((lp1
(lp2
S'state'
p3
aI400
aa(lp4
S'distance'
p5
aF264.6798095703125
aa(lp6
S'timestamp'
p7
aF4.026314973831177
aatp8
Rp9
.ccollections
OrderedDict
p0
((lp1
(lp2
S'state'
p3
aI400
aa(lp4
S'distance'
p5
aF264.6798095703125
aa(lp6
S'timestamp'
p7
aF4.035754919052124
aatp8
Rp9
.ccollections
OrderedDict
p0
((lp1
(lp2
S'state'
p3
aI400
aa(lp4
S'distance'
p5
aF264.6798095703125
aa(lp6
S'timestamp'
p7
aF4.036430835723877
aatp8
Rp9
.ccollections
OrderedDict
p0
((lp1
(lp2
S'state'
p3
aI400
aa(lp4
S'distance'
p5
aF264.6798095703125
aa(lp6
S'timestamp'
p7
aF4.0458149909973145
aatp8
Rp9
.ccollections
OrderedDict
p0
((lp1
(lp2
S'state'
p3
aI400
aa(lp4
S'distance'
p5
aF264.6798095703125
aa(lp6
S'timestamp'
p7
aF4.0464208126068115
aatp8
Rp9
.ccollections
OrderedDict
p0
((lp1
(lp2
S'state'
p3
aI400
aa(lp4
S'distance'
p5
aF264.6798095703125
aa(lp6
S'timestamp'
p7
aF4.056248903274536
aatp8
Rp9
.ccollections
OrderedDict
p0
((lp1
(lp2
S'state'
p3
aI400
aa(lp4
S'distance'
p5
aF264.6798095703125
aa(lp6
S'timestamp'
p7
aF4.056375980377197
aatp8
Rp9
.ccollections
OrderedDict
p0
((lp1
(lp2
S'state'
p3
aI400
aa(lp4
S'distance'
p5
aF264.6798095703125
aa(lp6
S'timestamp'
p7
aF4.066150903701782
aatp8
Rp9
.ccollections
OrderedDict
p0
((lp1
(lp2
S'state'
p3
aI400
aa(lp4
S'distance'
p5
aF264.6798095703125
aa(lp6
S'timestamp'
p7
aF4.066272020339966
aatp8
Rp9
.ccollections
OrderedDict
p0
((lp1
(lp2
S'state'
p3
aI400
aa(lp4
S'distance'
p5
aF264.6798095703125
aa(lp6
S'timestamp'
p7
aF4.075960874557495
aatp8
Rp9
.ccollections
OrderedDict
p0
((lp1
(lp2
S'state'
p3
aI400
aa(lp4
S'distance'
p5
aF264.6798095703125
aa(lp6
S'timestamp'
p7
aF4.076364040374756
aatp8
Rp9
.ccollections
OrderedDict
p0
((lp1
(lp2
S'state'
p3
aI400
aa(lp4
S'distance'
p5
aF264.6798095703125
aa(lp6
S'timestamp'
p7
aF4.086169958114624
aatp8
Rp9
.ccollections
OrderedDict
p0
((lp1
(lp2
S'state'
p3
aI400
aa(lp4
S'distance'
p5
aF264.6798095703125
aa(lp6
S'timestamp'
p7
aF4.086288928985596
aatp8
Rp9
.ccollections
OrderedDict
p0
((lp1
(lp2
S'state'
p3
aI400
aa(lp4
S'distance'
p5
aF264.6798095703125
aa(lp6
S'timestamp'
p7
aF4.096134901046753
aatp8
Rp9
.ccollections
OrderedDict
p0
((lp1
(lp2
S'state'
p3
aI400
aa(lp4
S'distance'
p5
aF264.6798095703125
aa(lp6
S'timestamp'
p7
aF4.096254825592041
aatp8
Rp9
.ccollections
OrderedDict
p0
((lp1
(lp2
S'state'
p3
aI400
aa(lp4
S'distance'
p5
aF264.6798095703125
aa(lp6
S'timestamp'
p7
aF4.106133937835693
aatp8
Rp9
.ccollections
OrderedDict
p0
((lp1
(lp2
S'state'
p3
aI400
aa(lp4
S'distance'
p5
aF264.6798095703125
aa(lp6
S'timestamp'
p7
aF4.10626482963562
aatp8
Rp9
.ccollections
OrderedDict
p0
((lp1
(lp2
S'state'
p3
aI400
aa(lp4
S'distance'
p5
aF264.6798095703125
aa(lp6
S'timestamp'
p7
aF4.115931987762451
aatp8
Rp9
.ccollections
OrderedDict
p0
((lp1
(lp2
S'state'
p3
aI400
aa(lp4
S'distance'
p5
aF264.6798095703125
aa(lp6
S'timestamp'
p7
aF4.116325855255127
aatp8
Rp9
.ccollections
OrderedDict
p0
((lp1
(lp2
S'state'
p3
aI400
aa(lp4
S'distance'
p5
aF264.6798095703125
aa(lp6
S'timestamp'
p7
aF4.125808000564575
aatp8
Rp9
.ccollections
OrderedDict
p0
((lp1
(lp2
S'state'
p3
aI0
aa(lp4
S'distance'
p5
aF264.6798095703125
aa(lp6
S'timestamp'
p7
aF4.12630295753479
aatp8
Rp9
.ccollections
OrderedDict
p0
((lp1
(lp2
S'state'
p3
aI0
aa(lp4
S'distance'
p5
aF151.262451171875
aa(lp6
S'timestamp'
p7
aF4.696498870849609
aatp8
Rp9
.ccollections
OrderedDict
p0
((lp1
(lp2
S'state'
p3
aI0
aa(lp4
S'distance'
p5
aF151.262451171875
aa(lp6
S'timestamp'
p7
aF4.7057249546051025
aatp8
Rp9
.ccollections
OrderedDict
p0
((lp1
(lp2
S'state'
p3
aI0
aa(lp4
S'distance'
p5
aF151.262451171875
aa(lp6
S'timestamp'
p7
aF4.706316947937012
aatp8
Rp9
.ccollections
OrderedDict
p0
((lp1
(lp2
S'state'
p3
aI0
aa(lp4
S'distance'
p5
aF151.262451171875
aa(lp6
S'timestamp'
p7
aF4.71741795539856
aatp8
Rp9
.ccollections
OrderedDict
p0
((lp1
(lp2
S'state'
p3
aI0
aa(lp4
S'distance'
p5
aF151.262451171875
aa(lp6
S'timestamp'
p7
aF4.717526912689209
aatp8
Rp9
.ccollections
OrderedDict
p0
((lp1
(lp2
S'state'
p3
aI0
aa(lp4
S'distance'
p5
aF151.262451171875
aa(lp6
S'timestamp'
p7
aF4.725891828536987
aatp8
Rp9
.ccollections
OrderedDict
p0
((lp1
(lp2
S'state'
p3
aI0
aa(lp4
S'distance'
p5
aF151.262451171875
aa(lp6
S'timestamp'
p7
aF4.726224899291992
aatp8
Rp9
.ccollections
OrderedDict
p0
((lp1
(lp2
S'state'
p3
aI0
aa(lp4
S'distance'
p5
aF151.262451171875
aa(lp6
S'timestamp'
p7
aF4.735695838928223
aatp8
Rp9
.ccollections
OrderedDict
p0
((lp1
(lp2
S'state'
p3
aI0
aa(lp4
S'distance'
p5
aF151.262451171875
aa(lp6
S'timestamp'
p7
aF4.7362189292907715
aatp8
Rp9
.ccollections
OrderedDict
p0
((lp1
(lp2
S'state'
p3
aI0
aa(lp4
S'distance'
p5
aF151.262451171875
aa(lp6
S'timestamp'
p7
aF4.745576858520508
aatp8
Rp9
.ccollections
OrderedDict
p0
((lp1
(lp2
S'state'
p3
aI0
aa(lp4
S'distance'
p5
aF151.262451171875
aa(lp6
S'timestamp'
p7
aF4.7462639808654785
aatp8
Rp9
.ccollections
OrderedDict
p0
((lp1
(lp2
S'state'
p3
aI0
aa(lp4
S'distance'
p5
aF151.262451171875
aa(lp6
S'timestamp'
p7
aF4.755725860595703
aatp8
Rp9
.ccollections
OrderedDict
p0
((lp1
(lp2
S'state'
p3
aI0
aa(lp4
S'distance'
p5
aF151.262451171875
aa(lp6
S'timestamp'
p7
aF4.756237030029297
aatp8
Rp9
.ccollections
OrderedDict
p0
((lp1
(lp2
S'state'
p3
aI0
aa(lp4
S'distance'
p5
aF151.262451171875
aa(lp6
S'timestamp'
p7
aF4.766121864318848
aatp8
Rp9
.ccollections
OrderedDict
p0
((lp1
(lp2
S'state'
p3
aI0
aa(lp4
S'distance'
p5
aF151.262451171875
aa(lp6
S'timestamp'
p7
aF4.7662060260772705
aatp8
Rp9
.ccollections
OrderedDict
p0
((lp1
(lp2
S'state'
p3
aI0
aa(lp4
S'distance'
p5
aF151.262451171875
aa(lp6
S'timestamp'
p7
aF4.775895833969116
aatp8
Rp9
.ccollections
OrderedDict
p0
((lp1
(lp2
S'state'
p3
aI0
aa(lp4
S'distance'
p5
aF151.262451171875
aa(lp6
S'timestamp'
p7
aF4.776221990585327
aatp8
Rp9
.ccollections
OrderedDict
p0
((lp1
(lp2
S'state'
p3
aI0
aa(lp4
S'distance'
p5
aF151.262451171875
aa(lp6
S'timestamp'
p7
aF4.785614013671875
aatp8
Rp9
.ccollections
OrderedDict
p0
((lp1
(lp2
S'state'
p3
aI0
aa(lp4
S'distance'
p5
aF151.262451171875
aa(lp6
S'timestamp'
p7
aF4.786367893218994
aatp8
Rp9
.ccollections
OrderedDict
p0
((lp1
(lp2
S'state'
p3
aI0
aa(lp4
S'distance'
p5
aF151.262451171875
aa(lp6
S'timestamp'
p7
aF4.795909881591797
aatp8
Rp9
.ccollections
OrderedDict
p0
((lp1
(lp2
S'state'
p3
aI0
aa(lp4
S'distance'
p5
aF151.262451171875
aa(lp6
S'timestamp'
p7
aF4.796177864074707
aatp8
Rp9
.ccollections
OrderedDict
p0
((lp1
(lp2
S'state'
p3
aI0
aa(lp4
S'distance'
p5
aF151.262451171875
aa(lp6
S'timestamp'
p7
aF4.817104816436768
aatp8
Rp9
.ccollections
OrderedDict
p0
((lp1
(lp2
S'state'
p3
aI0
aa(lp4
S'distance'
p5
aF151.262451171875
aa(lp6
S'timestamp'
p7
aF4.817795991897583
aatp8
Rp9
.ccollections
OrderedDict
p0
((lp1
(lp2
S'state'
p3
aI0
aa(lp4
S'distance'
p5
aF151.262451171875
aa(lp6
S'timestamp'
p7
aF4.817956924438477
aatp8
Rp9
.ccollections
OrderedDict
p0
((lp1
(lp2
S'state'
p3
aI0
aa(lp4
S'distance'
p5
aF151.262451171875
aa(lp6
S'timestamp'
p7
aF4.818904876708984
aatp8
Rp9
.ccollections
OrderedDict
p0
((lp1
(lp2
S'state'
p3
aI0
aa(lp4
S'distance'
p5
aF151.262451171875
aa(lp6
S'timestamp'
p7
aF4.826681852340698
aatp8
Rp9
.ccollections
OrderedDict
p0
((lp1
(lp2
S'state'
p3
aI0
aa(lp4
S'distance'
p5
aF151.262451171875
aa(lp6
S'timestamp'
p7
aF4.826970815658569
aatp8
Rp9
.ccollections
OrderedDict
p0
((lp1
(lp2
S'state'
p3
aI0
aa(lp4
S'distance'
p5
aF151.262451171875
aa(lp6
S'timestamp'
p7
aF4.836051940917969
aatp8
Rp9
.ccollections
OrderedDict
p0
((lp1
(lp2
S'state'
p3
aI0
aa(lp4
S'distance'
p5
aF151.262451171875
aa(lp6
S'timestamp'
p7
aF4.836261034011841
aatp8
Rp9
.ccollections
OrderedDict
p0
((lp1
(lp2
S'state'
p3
aI0
aa(lp4
S'distance'
p5
aF151.262451171875
aa(lp6
S'timestamp'
p7
aF4.8462769985198975
aatp8
Rp9
.ccollections
OrderedDict
p0
((lp1
(lp2
S'state'
p3
aI0
aa(lp4
S'distance'
p5
aF151.262451171875
aa(lp6
S'timestamp'
p7
aF4.846400022506714
aatp8
Rp9
.ccollections
OrderedDict
p0
((lp1
(lp2
S'state'
p3
aI0
aa(lp4
S'distance'
p5
aF151.262451171875
aa(lp6
S'timestamp'
p7
aF4.855676889419556
aatp8
Rp9
.ccollections
OrderedDict
p0
((lp1
(lp2
S'state'
p3
aI0
aa(lp4
S'distance'
p5
aF151.262451171875
aa(lp6
S'timestamp'
p7
aF4.856328964233398
aatp8
Rp9
.ccollections
OrderedDict
p0
((lp1
(lp2
S'state'
p3
aI0
aa(lp4
S'distance'
p5
aF151.262451171875
aa(lp6
S'timestamp'
p7
aF4.865859031677246
aatp8
Rp9
.ccollections
OrderedDict
p0
((lp1
(lp2
S'state'
p3
aI0
aa(lp4
S'distance'
p5
aF151.262451171875
aa(lp6
S'timestamp'
p7
aF4.866215944290161
aatp8
Rp9
.ccollections
OrderedDict
p0
((lp1
(lp2
S'state'
p3
aI0
aa(lp4
S'distance'
p5
aF151.262451171875
aa(lp6
S'timestamp'
p7
aF4.875607013702393
aatp8
Rp9
.ccollections
OrderedDict
p0
((lp1
(lp2
S'state'
p3
aI0
aa(lp4
S'distance'
p5
aF151.262451171875
aa(lp6
S'timestamp'
p7
aF4.876200914382935
aatp8
Rp9
.ccollections
OrderedDict
p0
((lp1
(lp2
S'state'
p3
aI0
aa(lp4
S'distance'
p5
aF151.262451171875
aa(lp6
S'timestamp'
p7
aF4.886119842529297
aatp8
Rp9
.ccollections
OrderedDict
p0
((lp1
(lp2
S'state'
p3
aI0
aa(lp4
S'distance'
p5
aF151.262451171875
aa(lp6
S'timestamp'
p7
aF4.886246919631958
aatp8
Rp9
.ccollections
OrderedDict
p0
((lp1
(lp2
S'state'
p3
aI0
aa(lp4
S'distance'
p5
aF151.262451171875
aa(lp6
S'timestamp'
p7
aF4.896194934844971
aatp8
Rp9
.ccollections
OrderedDict
p0
((lp1
(lp2
S'state'
p3
aI0
aa(lp4
S'distance'
p5
aF151.262451171875
aa(lp6
S'timestamp'
p7
aF4.896314859390259
aatp8
Rp9
.ccollections
OrderedDict
p0
((lp1
(lp2
S'state'
p3
aI0
aa(lp4
S'distance'
p5
aF151.262451171875
aa(lp6
S'timestamp'
p7
aF4.905807018280029
aatp8
Rp9
.ccollections
OrderedDict
p0
((lp1
(lp2
S'state'
p3
aI0
aa(lp4
S'distance'
p5
aF151.262451171875
aa(lp6
S'timestamp'
p7
aF4.906319856643677
aatp8
Rp9
.ccollections
OrderedDict
p0
((lp1
(lp2
S'state'
p3
aI0
aa(lp4
S'distance'
p5
aF151.262451171875
aa(lp6
S'timestamp'
p7
aF4.915690898895264
aatp8
Rp9
.ccollections
OrderedDict
p0
((lp1
(lp2
S'state'
p3
aI0
aa(lp4
S'distance'
p5
aF151.262451171875
aa(lp6
S'timestamp'
p7
aF4.916294813156128
aatp8
Rp9
.ccollections
OrderedDict
p0
((lp1
(lp2
S'state'
p3
aI0
aa(lp4
S'distance'
p5
aF151.262451171875
aa(lp6
S'timestamp'
p7
aF4.926074028015137
aatp8
Rp9
.ccollections
OrderedDict
p0
((lp1
(lp2
S'state'
p3
aI0
aa(lp4
S'distance'
p5
aF151.262451171875
aa(lp6
S'timestamp'
p7
aF4.926195859909058
aatp8
Rp9
.ccollections
OrderedDict
p0
((lp1
(lp2
S'state'
p3
aI0
aa(lp4
S'distance'
p5
aF151.262451171875
aa(lp6
S'timestamp'
p7
aF4.935772895812988
aatp8
Rp9
.ccollections
OrderedDict
p0
((lp1
(lp2
S'state'
p3
aI0
aa(lp4
S'distance'
p5
aF151.262451171875
aa(lp6
S'timestamp'
p7
aF4.936224937438965
aatp8
Rp9
.ccollections
OrderedDict
p0
((lp1
(lp2
S'state'
p3
aI0
aa(lp4
S'distance'
p5
aF151.262451171875
aa(lp6
S'timestamp'
p7
aF4.945765972137451
aatp8
Rp9
.ccollections
OrderedDict
p0
((lp1
(lp2
S'state'
p3
aI0
aa(lp4
S'distance'
p5
aF151.262451171875
aa(lp6
S'timestamp'
p7
aF4.946236848831177
aatp8
Rp9
.ccollections
OrderedDict
p0
((lp1
(lp2
S'state'
p3
aI0
aa(lp4
S'distance'
p5
aF151.262451171875
aa(lp6
S'timestamp'
p7
aF4.955674886703491
aatp8
Rp9
.ccollections
OrderedDict
p0
((lp1
(lp2
S'state'
p3
aI0
aa(lp4
S'distance'
p5
aF151.262451171875
aa(lp6
S'timestamp'
p7
aF4.956298828125
aatp8
Rp9
.ccollections
OrderedDict
p0
((lp1
(lp2
S'state'
p3
aI0
aa(lp4
S'distance'
p5
aF151.262451171875
aa(lp6
S'timestamp'
p7
aF4.965711832046509
aatp8
Rp9
.ccollections
OrderedDict
p0
((lp1
(lp2
S'state'
p3
aI0
aa(lp4
S'distance'
p5
aF151.262451171875
aa(lp6
S'timestamp'
p7
aF4.96632194519043
aatp8
Rp9
.ccollections
OrderedDict
p0
((lp1
(lp2
S'state'
p3
aI0
aa(lp4
S'distance'
p5
aF151.262451171875
aa(lp6
S'timestamp'
p7
aF5.005685806274414
aatp8
Rp9
.ccollections
OrderedDict
p0
((lp1
(lp2
S'state'
p3
aI0
aa(lp4
S'distance'
p5
aF151.262451171875
aa(lp6
S'timestamp'
p7
aF5.006242036819458
aatp8
Rp9
.ccollections
OrderedDict
p0
((lp1
(lp2
S'state'
p3
aI0
aa(lp4
S'distance'
p5
aF151.262451171875
aa(lp6
S'timestamp'
p7
aF5.006518840789795
aatp8
Rp9
.ccollections
OrderedDict
p0
((lp1
(lp2
S'state'
p3
aI0
aa(lp4
S'distance'
p5
aF151.262451171875
aa(lp6
S'timestamp'
p7
aF5.015791893005371
aatp8
Rp9
.ccollections
OrderedDict
p0
((lp1
(lp2
S'state'
p3
aI0
aa(lp4
S'distance'
p5
aF151.262451171875
aa(lp6
S'timestamp'
p7
aF5.0161378383636475
aatp8
Rp9
.ccollections
OrderedDict
p0
((lp1
(lp2
S'state'
p3
aI0
aa(lp4
S'distance'
p5
aF151.262451171875
aa(lp6
S'timestamp'
p7
aF5.0173118114471436
aatp8
Rp9
.ccollections
OrderedDict
p0
((lp1
(lp2
S'state'
p3
aI0
aa(lp4
S'distance'
p5
aF151.262451171875
aa(lp6
S'timestamp'
p7
aF5.018302917480469
aatp8
Rp9
.ccollections
OrderedDict
p0
((lp1
(lp2
S'state'
p3
aI0
aa(lp4
S'distance'
p5
aF151.262451171875
aa(lp6
S'timestamp'
p7
aF5.025962829589844
aatp8
Rp9
.ccollections
OrderedDict
p0
((lp1
(lp2
S'state'
p3
aI0
aa(lp4
S'distance'
p5
aF151.262451171875
aa(lp6
S'timestamp'
p7
aF5.026049852371216
aatp8
Rp9
.ccollections
OrderedDict
p0
((lp1
(lp2
S'state'
p3
aI0
aa(lp4
S'distance'
p5
aF151.262451171875
aa(lp6
S'timestamp'
p7
aF5.027195930480957
aatp8
Rp9
.ccollections
OrderedDict
p0
((lp1
(lp2
S'state'
p3
aI0
aa(lp4
S'distance'
p5
aF151.262451171875
aa(lp6
S'timestamp'
p7
aF5.027997016906738
aatp8
Rp9
.ccollections
OrderedDict
p0
((lp1
(lp2
S'state'
p3
aI0
aa(lp4
S'distance'
p5
aF151.262451171875
aa(lp6
S'timestamp'
p7
aF5.03577995300293
aatp8
Rp9
.ccollections
OrderedDict
p0
((lp1
(lp2
S'state'
p3
aI0
aa(lp4
S'distance'
p5
aF151.262451171875
aa(lp6
S'timestamp'
p7
aF5.036130905151367
aatp8
Rp9
.ccollections
OrderedDict
p0
((lp1
(lp2
S'state'
p3
aI0
aa(lp4
S'distance'
p5
aF151.262451171875
aa(lp6
S'timestamp'
p7
aF5.036962985992432
aatp8
Rp9
.ccollections
OrderedDict
p0
((lp1
(lp2
S'state'
p3
aI0
aa(lp4
S'distance'
p5
aF151.262451171875
aa(lp6
S'timestamp'
p7
aF5.045817852020264
aatp8
Rp9
.ccollections
OrderedDict
p0
((lp1
(lp2
S'state'
p3
aI0
aa(lp4
S'distance'
p5
aF151.262451171875
aa(lp6
S'timestamp'
p7
aF5.046505928039551
aatp8
Rp9
.ccollections
OrderedDict
p0
((lp1
(lp2
S'state'
p3
aI0
aa(lp4
S'distance'
p5
aF151.262451171875
aa(lp6
S'timestamp'
p7
aF5.0557849407196045
aatp8
Rp9
.ccollections
OrderedDict
p0
((lp1
(lp2
S'state'
p3
aI0
aa(lp4
S'distance'
p5
aF151.262451171875
aa(lp6
S'timestamp'
p7
aF5.056303977966309
aatp8
Rp9
.ccollections
OrderedDict
p0
((lp1
(lp2
S'state'
p3
aI0
aa(lp4
S'distance'
p5
aF151.262451171875
aa(lp6
S'timestamp'
p7
aF5.06584095954895
aatp8
Rp9
.ccollections
OrderedDict
p0
((lp1
(lp2
S'state'
p3
aI0
aa(lp4
S'distance'
p5
aF151.262451171875
aa(lp6
S'timestamp'
p7
aF5.066227912902832
aatp8
Rp9
.ccollections
OrderedDict
p0
((lp1
(lp2
S'state'
p3
aI0
aa(lp4
S'distance'
p5
aF151.262451171875
aa(lp6
S'timestamp'
p7
aF5.075632810592651
aatp8
Rp9
.ccollections
OrderedDict
p0
((lp1
(lp2
S'state'
p3
aI0
aa(lp4
S'distance'
p5
aF151.262451171875
aa(lp6
S'timestamp'
p7
aF5.085628986358643
aatp8
Rp9
.ccollections
OrderedDict
p0
((lp1
(lp2
S'state'
p3
aI0
aa(lp4
S'distance'
p5
aF151.262451171875
aa(lp6
S'timestamp'
p7
aF5.086268901824951
aatp8
Rp9
.ccollections
OrderedDict
p0
((lp1
(lp2
S'state'
p3
aI0
aa(lp4
S'distance'
p5
aF151.262451171875
aa(lp6
S'timestamp'
p7
aF5.086621999740601
aatp8
Rp9
.ccollections
OrderedDict
p0
((lp1
(lp2
S'state'
p3
aI0
aa(lp4
S'distance'
p5
aF151.262451171875
aa(lp6
S'timestamp'
p7
aF5.095893859863281
aatp8
Rp9
.ccollections
OrderedDict
p0
((lp1
(lp2
S'state'
p3
aI0
aa(lp4
S'distance'
p5
aF151.262451171875
aa(lp6
S'timestamp'
p7
aF5.096190929412842
aatp8
Rp9
.ccollections
OrderedDict
p0
((lp1
(lp2
S'state'
p3
aI0
aa(lp4
S'distance'
p5
aF151.262451171875
aa(lp6
S'timestamp'
p7
aF5.105672836303711
aatp8
Rp9
.ccollections
OrderedDict
p0
((lp1
(lp2
S'state'
p3
aI0
aa(lp4
S'distance'
p5
aF151.262451171875
aa(lp6
S'timestamp'
p7
aF5.106365919113159
aatp8
Rp9
.ccollections
OrderedDict
p0
((lp1
(lp2
S'state'
p3
aI0
aa(lp4
S'distance'
p5
aF151.262451171875
aa(lp6
S'timestamp'
p7
aF5.115633010864258
aatp8
Rp9
.ccollections
OrderedDict
p0
((lp1
(lp2
S'state'
p3
aI0
aa(lp4
S'distance'
p5
aF151.262451171875
aa(lp6
S'timestamp'
p7
aF5.1162779331207275
aatp8
Rp9
.ccollections
OrderedDict
p0
((lp1
(lp2
S'state'
p3
aI0
aa(lp4
S'distance'
p5
aF151.262451171875
aa(lp6
S'timestamp'
p7
aF5.126121997833252
aatp8
Rp9
.ccollections
OrderedDict
p0
((lp1
(lp2
S'state'
p3
aI0
aa(lp4
S'distance'
p5
aF151.262451171875
aa(lp6
S'timestamp'
p7
aF5.126246929168701
aatp8
Rp9
.ccollections
OrderedDict
p0
((lp1
(lp2
S'state'
p3
aI0
aa(lp4
S'distance'
p5
aF151.262451171875
aa(lp6
S'timestamp'
p7
aF5.135835886001587
aatp8
Rp9
.ccollections
OrderedDict
p0
((lp1
(lp2
S'state'
p3
aI0
aa(lp4
S'distance'
p5
aF151.262451171875
aa(lp6
S'timestamp'
p7
aF5.136307001113892
aatp8
Rp9
.ccollections
OrderedDict
p0
((lp1
(lp2
S'state'
p3
aI0
aa(lp4
S'distance'
p5
aF151.262451171875
aa(lp6
S'timestamp'
p7
aF5.145671844482422
aatp8
Rp9
.ccollections
OrderedDict
p0
((lp1
(lp2
S'state'
p3
aI0
aa(lp4
S'distance'
p5
aF151.262451171875
aa(lp6
S'timestamp'
p7
aF5.146277904510498
aatp8
Rp9
.ccollections
OrderedDict
p0
((lp1
(lp2
S'state'
p3
aI0
aa(lp4
S'distance'
p5
aF151.262451171875
aa(lp6
S'timestamp'
p7
aF5.165804862976074
aatp8
Rp9
.ccollections
OrderedDict
p0
((lp1
(lp2
S'state'
p3
aI0
aa(lp4
S'distance'
p5
aF151.262451171875
aa(lp6
S'timestamp'
p7
aF5.166100978851318
aatp8
Rp9
.ccollections
OrderedDict
p0
((lp1
(lp2
S'state'
p3
aI0
aa(lp4
S'distance'
p5
aF151.262451171875
aa(lp6
S'timestamp'
p7
aF5.167151927947998
aatp8
Rp9
.ccollections
OrderedDict
p0
((lp1
(lp2
S'state'
p3
aI0
aa(lp4
S'distance'
p5
aF151.262451171875
aa(lp6
S'timestamp'
p7
aF5.1680638790130615
aatp8
Rp9
.ccollections
OrderedDict
p0
((lp1
(lp2
S'state'
p3
aI0
aa(lp4
S'distance'
p5
aF151.262451171875
aa(lp6
S'timestamp'
p7
aF5.175714015960693
aatp8
Rp9
.ccollections
OrderedDict
p0
((lp1
(lp2
S'state'
p3
aI0
aa(lp4
S'distance'
p5
aF151.262451171875
aa(lp6
S'timestamp'
p7
aF5.176306962966919
aatp8
Rp9
.ccollections
OrderedDict
p0
((lp1
(lp2
S'state'
p3
aI0
aa(lp4
S'distance'
p5
aF151.262451171875
aa(lp6
S'timestamp'
p7
aF5.185580015182495
aatp8
Rp9
.ccollections
OrderedDict
p0
((lp1
(lp2
S'state'
p3
aI0
aa(lp4
S'distance'
p5
aF151.262451171875
aa(lp6
S'timestamp'
p7
aF5.186333894729614
aatp8
Rp9
.ccollections
OrderedDict
p0
((lp1
(lp2
S'state'
p3
aI0
aa(lp4
S'distance'
p5
aF151.262451171875
aa(lp6
S'timestamp'
p7
aF5.195530891418457
aatp8
Rp9
.ccollections
OrderedDict
p0
((lp1
(lp2
S'state'
p3
aI0
aa(lp4
S'distance'
p5
aF151.262451171875
aa(lp6
S'timestamp'
p7
aF5.196105003356934
aatp8
Rp9
.ccollections
OrderedDict
p0
((lp1
(lp2
S'state'
p3
aI0
aa(lp4
S'distance'
p5
aF151.262451171875
aa(lp6
S'timestamp'
p7
aF5.205737829208374
aatp8
Rp9
.ccollections
OrderedDict
p0
((lp1
(lp2
S'state'
p3
aI0
aa(lp4
S'distance'
p5
aF151.262451171875
aa(lp6
S'timestamp'
p7
aF5.206249952316284
aatp8
Rp9
.ccollections
OrderedDict
p0
((lp1
(lp2
S'state'
p3
aI0
aa(lp4
S'distance'
p5
aF151.262451171875
aa(lp6
S'timestamp'
p7
aF5.215847015380859
aatp8
Rp9
.ccollections
OrderedDict
p0
((lp1
(lp2
S'state'
p3
aI0
aa(lp4
S'distance'
p5
aF151.262451171875
aa(lp6
S'timestamp'
p7
aF5.216148853302002
aatp8
Rp9
.ccollections
OrderedDict
p0
((lp1
(lp2
S'state'
p3
aI400
aa(lp4
S'distance'
p5
aF151.262451171875
aa(lp6
S'timestamp'
p7
aF5.225623846054077
aatp8
Rp9
.ccollections
OrderedDict
p0
((lp1
(lp2
S'state'
p3
aI400
aa(lp4
S'distance'
p5
aF151.262451171875
aa(lp6
S'timestamp'
p7
aF5.226255893707275
aatp8
Rp9
.ccollections
OrderedDict
p0
((lp1
(lp2
S'state'
p3
aI400
aa(lp4
S'distance'
p5
aF151.262451171875
aa(lp6
S'timestamp'
p7
aF5.235759019851685
aatp8
Rp9
.ccollections
OrderedDict
p0
((lp1
(lp2
S'state'
p3
aI400
aa(lp4
S'distance'
p5
aF151.262451171875
aa(lp6
S'timestamp'
p7
aF5.236227989196777
aatp8
Rp9
.ccollections
OrderedDict
p0
((lp1
(lp2
S'state'
p3
aI400
aa(lp4
S'distance'
p5
aF151.262451171875
aa(lp6
S'timestamp'
p7
aF5.2465598583221436
aatp8
Rp9
.ccollections
OrderedDict
p0
((lp1
(lp2
S'state'
p3
aI400
aa(lp4
S'distance'
p5
aF151.262451171875
aa(lp6
S'timestamp'
p7
aF5.2577879428863525
aatp8
Rp9
.ccollections
OrderedDict
p0
((lp1
(lp2
S'state'
p3
aI400
aa(lp4
S'distance'
p5
aF151.262451171875
aa(lp6
S'timestamp'
p7
aF5.257908821105957
aatp8
Rp9
.ccollections
OrderedDict
p0
((lp1
(lp2
S'state'
p3
aI400
aa(lp4
S'distance'
p5
aF151.262451171875
aa(lp6
S'timestamp'
p7
aF5.258008003234863
aatp8
Rp9
.ccollections
OrderedDict
p0
((lp1
(lp2
S'state'
p3
aI400
aa(lp4
S'distance'
p5
aF151.262451171875
aa(lp6
S'timestamp'
p7
aF5.267154932022095
aatp8
Rp9
.ccollections
OrderedDict
p0
((lp1
(lp2
S'state'
p3
aI400
aa(lp4
S'distance'
p5
aF151.262451171875
aa(lp6
S'timestamp'
p7
aF5.267668008804321
aatp8
Rp9
.ccollections
OrderedDict
p0
((lp1
(lp2
S'state'
p3
aI400
aa(lp4
S'distance'
p5
aF151.262451171875
aa(lp6
S'timestamp'
p7
aF5.276320934295654
aatp8
Rp9
.ccollections
OrderedDict
p0
((lp1
(lp2
S'state'
p3
aI400
aa(lp4
S'distance'
p5
aF151.262451171875
aa(lp6
S'timestamp'
p7
aF5.27683687210083
aatp8
Rp9
.ccollections
OrderedDict
p0
((lp1
(lp2
S'state'
p3
aI400
aa(lp4
S'distance'
p5
aF151.262451171875
aa(lp6
S'timestamp'
p7
aF5.285754919052124
aatp8
Rp9
.ccollections
OrderedDict
p0
((lp1
(lp2
S'state'
p3
aI400
aa(lp4
S'distance'
p5
aF151.262451171875
aa(lp6
S'timestamp'
p7
aF5.286240816116333
aatp8
Rp9
.ccollections
OrderedDict
p0
((lp1
(lp2
S'state'
p3
aI400
aa(lp4
S'distance'
p5
aF151.262451171875
aa(lp6
S'timestamp'
p7
aF5.305614948272705
aatp8
Rp9
.ccollections
OrderedDict
p0
((lp1
(lp2
S'state'
p3
aI400
aa(lp4
S'distance'
p5
aF151.262451171875
aa(lp6
S'timestamp'
p7
aF5.306164026260376
aatp8
Rp9
.ccollections
OrderedDict
p0
((lp1
(lp2
S'state'
p3
aI400
aa(lp4
S'distance'
p5
aF151.262451171875
aa(lp6
S'timestamp'
p7
aF5.30667781829834
aatp8
Rp9
.ccollections
OrderedDict
p0
((lp1
(lp2
S'state'
p3
aI400
aa(lp4
S'distance'
p5
aF151.262451171875
aa(lp6
S'timestamp'
p7
aF5.307153940200806
aatp8
Rp9
.ccollections
OrderedDict
p0
((lp1
(lp2
S'state'
p3
aI400
aa(lp4
S'distance'
p5
aF151.262451171875
aa(lp6
S'timestamp'
p7
aF5.315659999847412
aatp8
Rp9
.ccollections
OrderedDict
p0
((lp1
(lp2
S'state'
p3
aI400
aa(lp4
S'distance'
p5
aF151.262451171875
aa(lp6
S'timestamp'
p7
aF5.326027870178223
aatp8
Rp9
.ccollections
OrderedDict
p0
((lp1
(lp2
S'state'
p3
aI400
aa(lp4
S'distance'
p5
aF151.262451171875
aa(lp6
S'timestamp'
p7
aF5.326148986816406
aatp8
Rp9
.ccollections
OrderedDict
p0
((lp1
(lp2
S'state'
p3
aI400
aa(lp4
S'distance'
p5
aF151.262451171875
aa(lp6
S'timestamp'
p7
aF5.336103916168213
aatp8
Rp9
.ccollections
OrderedDict
p0
((lp1
(lp2
S'state'
p3
aI400
aa(lp4
S'distance'
p5
aF151.262451171875
aa(lp6
S'timestamp'
p7
aF5.336220026016235
aatp8
Rp9
.ccollections
OrderedDict
p0
((lp1
(lp2
S'state'
p3
aI400
aa(lp4
S'distance'
p5
aF151.262451171875
aa(lp6
S'timestamp'
p7
aF5.337070941925049
aatp8
Rp9
.ccollections
OrderedDict
p0
((lp1
(lp2
S'state'
p3
aI400
aa(lp4
S'distance'
p5
aF151.262451171875
aa(lp6
S'timestamp'
p7
aF5.345810890197754
aatp8
Rp9
.ccollections
OrderedDict
p0
((lp1
(lp2
S'state'
p3
aI400
aa(lp4
S'distance'
p5
aF151.262451171875
aa(lp6
S'timestamp'
p7
aF5.346220016479492
aatp8
Rp9
.ccollections
OrderedDict
p0
((lp1
(lp2
S'state'
p3
aI400
aa(lp4
S'distance'
p5
aF151.262451171875
aa(lp6
S'timestamp'
p7
aF5.355727910995483
aatp8
Rp9
.ccollections
OrderedDict
p0
((lp1
(lp2
S'state'
p3
aI400
aa(lp4
S'distance'
p5
aF151.262451171875
aa(lp6
S'timestamp'
p7
aF5.356257915496826
aatp8
Rp9
.ccollections
OrderedDict
p0
((lp1
(lp2
S'state'
p3
aI400
aa(lp4
S'distance'
p5
aF151.262451171875
aa(lp6
S'timestamp'
p7
aF5.3956828117370605
aatp8
Rp9
.ccollections
OrderedDict
p0
((lp1
(lp2
S'state'
p3
aI400
aa(lp4
S'distance'
p5
aF151.262451171875
aa(lp6
S'timestamp'
p7
aF5.396174907684326
aatp8
Rp9
.ccollections
OrderedDict
p0
((lp1
(lp2
S'state'
p3
aI400
aa(lp4
S'distance'
p5
aF151.262451171875
aa(lp6
S'timestamp'
p7
aF5.397004842758179
aatp8
Rp9
.ccollections
OrderedDict
p0
((lp1
(lp2
S'state'
p3
aI400
aa(lp4
S'distance'
p5
aF151.262451171875
aa(lp6
S'timestamp'
p7
aF5.397097826004028
aatp8
Rp9
.ccollections
OrderedDict
p0
((lp1
(lp2
S'state'
p3
aI400
aa(lp4
S'distance'
p5
aF151.262451171875
aa(lp6
S'timestamp'
p7
aF5.406073808670044
aatp8
Rp9
.ccollections
OrderedDict
p0
((lp1
(lp2
S'state'
p3
aI400
aa(lp4
S'distance'
p5
aF151.262451171875
aa(lp6
S'timestamp'
p7
aF5.406402826309204
aatp8
Rp9
.ccollections
OrderedDict
p0
((lp1
(lp2
S'state'
p3
aI400
aa(lp4
S'distance'
p5
aF151.262451171875
aa(lp6
S'timestamp'
p7
aF5.406513929367065
aatp8
Rp9
.ccollections
OrderedDict
p0
((lp1
(lp2
S'state'
p3
aI400
aa(lp4
S'distance'
p5
aF151.262451171875
aa(lp6
S'timestamp'
p7
aF5.407533884048462
aatp8
Rp9
.ccollections
OrderedDict
p0
((lp1
(lp2
S'state'
p3
aI400
aa(lp4
S'distance'
p5
aF151.262451171875
aa(lp6
S'timestamp'
p7
aF5.41815185546875
aatp8
Rp9
.ccollections
OrderedDict
p0
((lp1
(lp2
S'state'
p3
aI400
aa(lp4
S'distance'
p5
aF151.262451171875
aa(lp6
S'timestamp'
p7
aF5.418355941772461
aatp8
Rp9
.ccollections
OrderedDict
p0
((lp1
(lp2
S'state'
p3
aI400
aa(lp4
S'distance'
p5
aF151.262451171875
aa(lp6
S'timestamp'
p7
aF5.418570041656494
aatp8
Rp9
.ccollections
OrderedDict
p0
((lp1
(lp2
S'state'
p3
aI400
aa(lp4
S'distance'
p5
aF151.262451171875
aa(lp6
S'timestamp'
p7
aF5.41888689994812
aatp8
Rp9
.ccollections
OrderedDict
p0
((lp1
(lp2
S'state'
p3
aI400
aa(lp4
S'distance'
p5
aF151.262451171875
aa(lp6
S'timestamp'
p7
aF5.42692494392395
aatp8
Rp9
.ccollections
OrderedDict
p0
((lp1
(lp2
S'state'
p3
aI400
aa(lp4
S'distance'
p5
aF151.262451171875
aa(lp6
S'timestamp'
p7
aF5.427845001220703
aatp8
Rp9
.ccollections
OrderedDict
p0
((lp1
(lp2
S'state'
p3
aI400
aa(lp4
S'distance'
p5
aF151.262451171875
aa(lp6
S'timestamp'
p7
aF5.435861825942993
aatp8
Rp9
.ccollections
OrderedDict
p0
((lp1
(lp2
S'state'
p3
aI400
aa(lp4
S'distance'
p5
aF151.262451171875
aa(lp6
S'timestamp'
p7
aF5.436172962188721
aatp8
Rp9
.ccollections
OrderedDict
p0
((lp1
(lp2
S'state'
p3
aI400
aa(lp4
S'distance'
p5
aF151.262451171875
aa(lp6
S'timestamp'
p7
aF5.45596981048584
aatp8
Rp9
.ccollections
OrderedDict
p0
((lp1
(lp2
S'state'
p3
aI400
aa(lp4
S'distance'
p5
aF151.262451171875
aa(lp6
S'timestamp'
p7
aF5.456300973892212
aatp8
Rp9
.ccollections
OrderedDict
p0
((lp1
(lp2
S'state'
p3
aI400
aa(lp4
S'distance'
p5
aF151.262451171875
aa(lp6
S'timestamp'
p7
aF5.457775831222534
aatp8
Rp9
.ccollections
OrderedDict
p0
((lp1
(lp2
S'state'
p3
aI400
aa(lp4
S'distance'
p5
aF151.262451171875
aa(lp6
S'timestamp'
p7
aF5.458807945251465
aatp8
Rp9
.ccollections
OrderedDict
p0
((lp1
(lp2
S'state'
p3
aI400
aa(lp4
S'distance'
p5
aF151.262451171875
aa(lp6
S'timestamp'
p7
aF5.465673923492432
aatp8
Rp9
.ccollections
OrderedDict
p0
((lp1
(lp2
S'state'
p3
aI400
aa(lp4
S'distance'
p5
aF151.262451171875
aa(lp6
S'timestamp'
p7
aF5.466235876083374
aatp8
Rp9
.ccollections
OrderedDict
p0
((lp1
(lp2
S'state'
p3
aI400
aa(lp4
S'distance'
p5
aF151.262451171875
aa(lp6
S'timestamp'
p7
aF5.475675821304321
aatp8
Rp9
.ccollections
OrderedDict
p0
((lp1
(lp2
S'state'
p3
aI400
aa(lp4
S'distance'
p5
aF151.262451171875
aa(lp6
S'timestamp'
p7
aF5.476303815841675
aatp8
Rp9
.ccollections
OrderedDict
p0
((lp1
(lp2
S'state'
p3
aI400
aa(lp4
S'distance'
p5
aF151.262451171875
aa(lp6
S'timestamp'
p7
aF5.48583197593689
aatp8
Rp9
.ccollections
OrderedDict
p0
((lp1
(lp2
S'state'
p3
aI400
aa(lp4
S'distance'
p5
aF151.262451171875
aa(lp6
S'timestamp'
p7
aF5.5059239864349365
aatp8
Rp9
.ccollections
OrderedDict
p0
((lp1
(lp2
S'state'
p3
aI400
aa(lp4
S'distance'
p5
aF151.262451171875
aa(lp6
S'timestamp'
p7
aF5.506070852279663
aatp8
Rp9
.ccollections
OrderedDict
p0
((lp1
(lp2
S'state'
p3
aI400
aa(lp4
S'distance'
p5
aF151.262451171875
aa(lp6
S'timestamp'
p7
aF5.5073699951171875
aatp8
Rp9
.ccollections
OrderedDict
p0
((lp1
(lp2
S'state'
p3
aI400
aa(lp4
S'distance'
p5
aF151.262451171875
aa(lp6
S'timestamp'
p7
aF5.508373975753784
aatp8
Rp9
.ccollections
OrderedDict
p0
((lp1
(lp2
S'state'
p3
aI400
aa(lp4
S'distance'
p5
aF151.262451171875
aa(lp6
S'timestamp'
p7
aF5.515739917755127
aatp8
Rp9
.ccollections
OrderedDict
p0
((lp1
(lp2
S'state'
p3
aI400
aa(lp4
S'distance'
p5
aF151.262451171875
aa(lp6
S'timestamp'
p7
aF5.51605486869812
aatp8
Rp9
.ccollections
OrderedDict
p0
((lp1
(lp2
S'state'
p3
aI400
aa(lp4
S'distance'
p5
aF151.262451171875
aa(lp6
S'timestamp'
p7
aF5.517139911651611
aatp8
Rp9
.ccollections
OrderedDict
p0
((lp1
(lp2
S'state'
p3
aI400
aa(lp4
S'distance'
p5
aF151.262451171875
aa(lp6
S'timestamp'
p7
aF5.525852918624878
aatp8
Rp9
.ccollections
OrderedDict
p0
((lp1
(lp2
S'state'
p3
aI400
aa(lp4
S'distance'
p5
aF151.262451171875
aa(lp6
S'timestamp'
p7
aF5.526219844818115
aatp8
Rp9
.ccollections
OrderedDict
p0
((lp1
(lp2
S'state'
p3
aI400
aa(lp4
S'distance'
p5
aF151.262451171875
aa(lp6
S'timestamp'
p7
aF5.5358569622039795
aatp8
Rp9
.ccollections
OrderedDict
p0
((lp1
(lp2
S'state'
p3
aI400
aa(lp4
S'distance'
p5
aF151.262451171875
aa(lp6
S'timestamp'
p7
aF5.536374807357788
aatp8
Rp9
.ccollections
OrderedDict
p0
((lp1
(lp2
S'state'
p3
aI400
aa(lp4
S'distance'
p5
aF151.262451171875
aa(lp6
S'timestamp'
p7
aF5.545904874801636
aatp8
Rp9
.ccollections
OrderedDict
p0
((lp1
(lp2
S'state'
p3
aI400
aa(lp4
S'distance'
p5
aF151.262451171875
aa(lp6
S'timestamp'
p7
aF5.5462729930877686
aatp8
Rp9
.ccollections
OrderedDict
p0
((lp1
(lp2
S'state'
p3
aI400
aa(lp4
S'distance'
p5
aF151.262451171875
aa(lp6
S'timestamp'
p7
aF5.555678844451904
aatp8
Rp9
.ccollections
OrderedDict
p0
((lp1
(lp2
S'state'
p3
aI400
aa(lp4
S'distance'
p5
aF151.262451171875
aa(lp6
S'timestamp'
p7
aF5.556221961975098
aatp8
Rp9
.ccollections
OrderedDict
p0
((lp1
(lp2
S'state'
p3
aI400
aa(lp4
S'distance'
p5
aF151.262451171875
aa(lp6
S'timestamp'
p7
aF5.565726041793823
aatp8
Rp9
.ccollections
OrderedDict
p0
((lp1
(lp2
S'state'
p3
aI400
aa(lp4
S'distance'
p5
aF151.262451171875
aa(lp6
S'timestamp'
p7
aF5.566299915313721
aatp8
Rp9
.ccollections
OrderedDict
p0
((lp1
(lp2
S'state'
p3
aI400
aa(lp4
S'distance'
p5
aF151.262451171875
aa(lp6
S'timestamp'
p7
aF5.575803995132446
aatp8
Rp9
.ccollections
OrderedDict
p0
((lp1
(lp2
S'state'
p3
aI400
aa(lp4
S'distance'
p5
aF151.262451171875
aa(lp6
S'timestamp'
p7
aF5.5762858390808105
aatp8
Rp9
.ccollections
OrderedDict
p0
((lp1
(lp2
S'state'
p3
aI400
aa(lp4
S'distance'
p5
aF151.262451171875
aa(lp6
S'timestamp'
p7
aF5.585705041885376
aatp8
Rp9
.ccollections
OrderedDict
p0
((lp1
(lp2
S'state'
p3
aI400
aa(lp4
S'distance'
p5
aF151.262451171875
aa(lp6
S'timestamp'
p7
aF5.586211919784546
aatp8
Rp9
.ccollections
OrderedDict
p0
((lp1
(lp2
S'state'
p3
aI400
aa(lp4
S'distance'
p5
aF151.262451171875
aa(lp6
S'timestamp'
p7
aF5.595773935317993
aatp8
Rp9
.ccollections
OrderedDict
p0
((lp1
(lp2
S'state'
p3
aI400
aa(lp4
S'distance'
p5
aF151.262451171875
aa(lp6
S'timestamp'
p7
aF5.596246957778931
aatp8
Rp9
.ccollections
OrderedDict
p0
((lp1
(lp2
S'state'
p3
aI400
aa(lp4
S'distance'
p5
aF151.262451171875
aa(lp6
S'timestamp'
p7
aF5.60584282875061
aatp8
Rp9
.ccollections
OrderedDict
p0
((lp1
(lp2
S'state'
p3
aI400
aa(lp4
S'distance'
p5
aF151.262451171875
aa(lp6
S'timestamp'
p7
aF5.606209993362427
aatp8
Rp9
.ccollections
OrderedDict
p0
((lp1
(lp2
S'state'
p3
aI400
aa(lp4
S'distance'
p5
aF151.262451171875
aa(lp6
S'timestamp'
p7
aF5.615553855895996
aatp8
Rp9
.ccollections
OrderedDict
p0
((lp1
(lp2
S'state'
p3
aI400
aa(lp4
S'distance'
p5
aF151.262451171875
aa(lp6
S'timestamp'
p7
aF5.6162269115448
aatp8
Rp9
.ccollections
OrderedDict
p0
((lp1
(lp2
S'state'
p3
aI400
aa(lp4
S'distance'
p5
aF151.262451171875
aa(lp6
S'timestamp'
p7
aF5.62611198425293
aatp8
Rp9
.ccollections
OrderedDict
p0
((lp1
(lp2
S'state'
p3
aI400
aa(lp4
S'distance'
p5
aF151.262451171875
aa(lp6
S'timestamp'
p7
aF5.626195907592773
aatp8
Rp9
.ccollections
OrderedDict
p0
((lp1
(lp2
S'state'
p3
aI400
aa(lp4
S'distance'
p5
aF151.262451171875
aa(lp6
S'timestamp'
p7
aF5.635617971420288
aatp8
Rp9
.ccollections
OrderedDict
p0
((lp1
(lp2
S'state'
p3
aI400
aa(lp4
S'distance'
p5
aF151.262451171875
aa(lp6
S'timestamp'
p7
aF5.6363630294799805
aatp8
Rp9
.ccollections
OrderedDict
p0
((lp1
(lp2
S'state'
p3
aI400
aa(lp4
S'distance'
p5
aF151.262451171875
aa(lp6
S'timestamp'
p7
aF5.6458258628845215
aatp8
Rp9
.ccollections
OrderedDict
p0
((lp1
(lp2
S'state'
p3
aI400
aa(lp4
S'distance'
p5
aF151.262451171875
aa(lp6
S'timestamp'
p7
aF5.646240949630737
aatp8
Rp9
.ccollections
OrderedDict
p0
((lp1
(lp2
S'state'
p3
aI400
aa(lp4
S'distance'
p5
aF151.262451171875
aa(lp6
S'timestamp'
p7
aF5.6559388637542725
aatp8
Rp9
.ccollections
OrderedDict
p0
((lp1
(lp2
S'state'
p3
aI400
aa(lp4
S'distance'
p5
aF151.262451171875
aa(lp6
S'timestamp'
p7
aF5.656365871429443
aatp8
Rp9
.ccollections
OrderedDict
p0
((lp1
(lp2
S'state'
p3
aI400
aa(lp4
S'distance'
p5
aF151.262451171875
aa(lp6
S'timestamp'
p7
aF5.665679931640625
aatp8
Rp9
.ccollections
OrderedDict
p0
((lp1
(lp2
S'state'
p3
aI400
aa(lp4
S'distance'
p5
aF151.262451171875
aa(lp6
S'timestamp'
p7
aF5.666316986083984
aatp8
Rp9
.ccollections
OrderedDict
p0
((lp1
(lp2
S'state'
p3
aI400
aa(lp4
S'distance'
p5
aF151.262451171875
aa(lp6
S'timestamp'
p7
aF5.675674915313721
aatp8
Rp9
.ccollections
OrderedDict
p0
((lp1
(lp2
S'state'
p3
aI400
aa(lp4
S'distance'
p5
aF151.262451171875
aa(lp6
S'timestamp'
p7
aF5.676235914230347
aatp8
Rp9
.ccollections
OrderedDict
p0
((lp1
(lp2
S'state'
p3
aI400
aa(lp4
S'distance'
p5
aF151.262451171875
aa(lp6
S'timestamp'
p7
aF5.685771942138672
aatp8
Rp9
.ccollections
OrderedDict
p0
((lp1
(lp2
S'state'
p3
aI400
aa(lp4
S'distance'
p5
aF151.262451171875
aa(lp6
S'timestamp'
p7
aF5.6862428188323975
aatp8
Rp9
.ccollections
OrderedDict
p0
((lp1
(lp2
S'state'
p3
aI400
aa(lp4
S'distance'
p5
aF151.262451171875
aa(lp6
S'timestamp'
p7
aF5.695868968963623
aatp8
Rp9
.ccollections
OrderedDict
p0
((lp1
(lp2
S'state'
p3
aI400
aa(lp4
S'distance'
p5
aF151.262451171875
aa(lp6
S'timestamp'
p7
aF5.696163892745972
aatp8
Rp9
.ccollections
OrderedDict
p0
((lp1
(lp2
S'state'
p3
aI400
aa(lp4
S'distance'
p5
aF151.262451171875
aa(lp6
S'timestamp'
p7
aF5.705979824066162
aatp8
Rp9
.ccollections
OrderedDict
p0
((lp1
(lp2
S'state'
p3
aI400
aa(lp4
S'distance'
p5
aF151.262451171875
aa(lp6
S'timestamp'
p7
aF5.70619797706604
aatp8
Rp9
.ccollections
OrderedDict
p0
((lp1
(lp2
S'state'
p3
aI400
aa(lp4
S'distance'
p5
aF151.262451171875
aa(lp6
S'timestamp'
p7
aF5.715961933135986
aatp8
Rp9
.ccollections
OrderedDict
p0
((lp1
(lp2
S'state'
p3
aI400
aa(lp4
S'distance'
p5
aF151.262451171875
aa(lp6
S'timestamp'
p7
aF5.716217994689941
aatp8
Rp9
.ccollections
OrderedDict
p0
((lp1
(lp2
S'state'
p3
aI400
aa(lp4
S'distance'
p5
aF151.262451171875
aa(lp6
S'timestamp'
p7
aF5.725948810577393
aatp8
Rp9
.ccollections
OrderedDict
p0
((lp1
(lp2
S'state'
p3
aI400
aa(lp4
S'distance'
p5
aF151.262451171875
aa(lp6
S'timestamp'
p7
aF5.726148843765259
aatp8
Rp9
.ccollections
OrderedDict
p0
((lp1
(lp2
S'state'
p3
aI400
aa(lp4
S'distance'
p5
aF151.262451171875
aa(lp6
S'timestamp'
p7
aF5.735801935195923
aatp8
Rp9
.ccollections
OrderedDict
p0
((lp1
(lp2
S'state'
p3
aI400
aa(lp4
S'distance'
p5
aF151.262451171875
aa(lp6
S'timestamp'
p7
aF5.73624587059021
aatp8
Rp9
.ccollections
OrderedDict
p0
((lp1
(lp2
S'state'
p3
aI400
aa(lp4
S'distance'
p5
aF151.262451171875
aa(lp6
S'timestamp'
p7
aF5.745625972747803
aatp8
Rp9
.ccollections
OrderedDict
p0
((lp1
(lp2
S'state'
p3
aI400
aa(lp4
S'distance'
p5
aF151.262451171875
aa(lp6
S'timestamp'
p7
aF5.746291875839233
aatp8
Rp9
.ccollections
OrderedDict
p0
((lp1
(lp2
S'state'
p3
aI400
aa(lp4
S'distance'
p5
aF151.262451171875
aa(lp6
S'timestamp'
p7
aF5.755949974060059
aatp8
Rp9
.ccollections
OrderedDict
p0
((lp1
(lp2
S'state'
p3
aI400
aa(lp4
S'distance'
p5
aF151.262451171875
aa(lp6
S'timestamp'
p7
aF5.75612998008728
aatp8
Rp9
.ccollections
OrderedDict
p0
((lp1
(lp2
S'state'
p3
aI400
aa(lp4
S'distance'
p5
aF151.262451171875
aa(lp6
S'timestamp'
p7
aF5.775771856307983
aatp8
Rp9
.ccollections
OrderedDict
p0
((lp1
(lp2
S'state'
p3
aI400
aa(lp4
S'distance'
p5
aF151.262451171875
aa(lp6
S'timestamp'
p7
aF5.776141881942749
aatp8
Rp9
.ccollections
OrderedDict
p0
((lp1
(lp2
S'state'
p3
aI400
aa(lp4
S'distance'
p5
aF151.262451171875
aa(lp6
S'timestamp'
p7
aF5.776811838150024
aatp8
Rp9
.ccollections
OrderedDict
p0
((lp1
(lp2
S'state'
p3
aI400
aa(lp4
S'distance'
p5
aF151.262451171875
aa(lp6
S'timestamp'
p7
aF5.777103900909424
aatp8
Rp9
.ccollections
OrderedDict
p0
((lp1
(lp2
S'state'
p3
aI400
aa(lp4
S'distance'
p5
aF151.262451171875
aa(lp6
S'timestamp'
p7
aF5.785642862319946
aatp8
Rp9
.ccollections
OrderedDict
p0
((lp1
(lp2
S'state'
p3
aI400
aa(lp4
S'distance'
p5
aF151.262451171875
aa(lp6
S'timestamp'
p7
aF5.786257028579712
aatp8
Rp9
.ccollections
OrderedDict
p0
((lp1
(lp2
S'state'
p3
aI400
aa(lp4
S'distance'
p5
aF151.262451171875
aa(lp6
S'timestamp'
p7
aF5.796128034591675
aatp8
Rp9
.ccollections
OrderedDict
p0
((lp1
(lp2
S'state'
p3
aI400
aa(lp4
S'distance'
p5
aF151.262451171875
aa(lp6
S'timestamp'
p7
aF5.796329975128174
aatp8
Rp9
.ccollections
OrderedDict
p0
((lp1
(lp2
S'state'
p3
aI400
aa(lp4
S'distance'
p5
aF151.262451171875
aa(lp6
S'timestamp'
p7
aF5.805964946746826
aatp8
Rp9
.ccollections
OrderedDict
p0
((lp1
(lp2
S'state'
p3
aI400
aa(lp4
S'distance'
p5
aF151.262451171875
aa(lp6
S'timestamp'
p7
aF5.806111812591553
aatp8
Rp9
.ccollections
OrderedDict
p0
((lp1
(lp2
S'state'
p3
aI400
aa(lp4
S'distance'
p5
aF151.262451171875
aa(lp6
S'timestamp'
p7
aF5.815830945968628
aatp8
Rp9
.ccollections
OrderedDict
p0
((lp1
(lp2
S'state'
p3
aI400
aa(lp4
S'distance'
p5
aF151.262451171875
aa(lp6
S'timestamp'
p7
aF5.816157817840576
aatp8
Rp9
.ccollections
OrderedDict
p0
((lp1
(lp2
S'state'
p3
aI400
aa(lp4
S'distance'
p5
aF151.262451171875
aa(lp6
S'timestamp'
p7
aF5.825716972351074
aatp8
Rp9
.ccollections
OrderedDict
p0
((lp1
(lp2
S'state'
p3
aI400
aa(lp4
S'distance'
p5
aF151.262451171875
aa(lp6
S'timestamp'
p7
aF5.826279878616333
aatp8
Rp9
.ccollections
OrderedDict
p0
((lp1
(lp2
S'state'
p3
aI400
aa(lp4
S'distance'
p5
aF151.262451171875
aa(lp6
S'timestamp'
p7
aF5.8358588218688965
aatp8
Rp9
.ccollections
OrderedDict
p0
((lp1
(lp2
S'state'
p3
aI400
aa(lp4
S'distance'
p5
aF151.262451171875
aa(lp6
S'timestamp'
p7
aF5.836228847503662
aatp8
Rp9
.ccollections
OrderedDict
p0
((lp1
(lp2
S'state'
p3
aI400
aa(lp4
S'distance'
p5
aF151.262451171875
aa(lp6
S'timestamp'
p7
aF5.845727920532227
aatp8
Rp9
.ccollections
OrderedDict
p0
((lp1
(lp2
S'state'
p3
aI400
aa(lp4
S'distance'
p5
aF151.262451171875
aa(lp6
S'timestamp'
p7
aF5.8462159633636475
aatp8
Rp9
.ccollections
OrderedDict
p0
((lp1
(lp2
S'state'
p3
aI400
aa(lp4
S'distance'
p5
aF151.262451171875
aa(lp6
S'timestamp'
p7
aF5.855835914611816
aatp8
Rp9
.ccollections
OrderedDict
p0
((lp1
(lp2
S'state'
p3
aI400
aa(lp4
S'distance'
p5
aF151.262451171875
aa(lp6
S'timestamp'
p7
aF5.856220960617065
aatp8
Rp9
.ccollections
OrderedDict
p0
((lp1
(lp2
S'state'
p3
aI400
aa(lp4
S'distance'
p5
aF151.262451171875
aa(lp6
S'timestamp'
p7
aF5.865851879119873
aatp8
Rp9
.ccollections
OrderedDict
p0
((lp1
(lp2
S'state'
p3
aI400
aa(lp4
S'distance'
p5
aF151.262451171875
aa(lp6
S'timestamp'
p7
aF5.8661580085754395
aatp8
Rp9
.ccollections
OrderedDict
p0
((lp1
(lp2
S'state'
p3
aI400
aa(lp4
S'distance'
p5
aF151.262451171875
aa(lp6
S'timestamp'
p7
aF5.875723838806152
aatp8
Rp9
.ccollections
OrderedDict
p0
((lp1
(lp2
S'state'
p3
aI400
aa(lp4
S'distance'
p5
aF151.262451171875
aa(lp6
S'timestamp'
p7
aF5.876274824142456
aatp8
Rp9
.ccollections
OrderedDict
p0
((lp1
(lp2
S'state'
p3
aI0
aa(lp4
S'distance'
p5
aF151.262451171875
aa(lp6
S'timestamp'
p7
aF5.886113882064819
aatp8
Rp9
.ccollections
OrderedDict
p0
((lp1
(lp2
S'state'
p3
aI0
aa(lp4
S'distance'
p5
aF46.72926425933838
aa(lp6
S'timestamp'
p7
aF6.446391820907593
aatp8
Rp9
.ccollections
OrderedDict
p0
((lp1
(lp2
S'state'
p3
aI0
aa(lp4
S'distance'
p5
aF46.72926425933838
aa(lp6
S'timestamp'
p7
aF6.455924987792969
aatp8
Rp9
.ccollections
OrderedDict
p0
((lp1
(lp2
S'state'
p3
aI0
aa(lp4
S'distance'
p5
aF46.72926425933838
aa(lp6
S'timestamp'
p7
aF6.456157922744751
aatp8
Rp9
.ccollections
OrderedDict
p0
((lp1
(lp2
S'state'
p3
aI0
aa(lp4
S'distance'
p5
aF46.72926425933838
aa(lp6
S'timestamp'
p7
aF6.466231822967529
aatp8
Rp9
.ccollections
OrderedDict
p0
((lp1
(lp2
S'state'
p3
aI0
aa(lp4
S'distance'
p5
aF46.72926425933838
aa(lp6
S'timestamp'
p7
aF6.4663169384002686
aatp8
Rp9
.ccollections
OrderedDict
p0
((lp1
(lp2
S'state'
p3
aI0
aa(lp4
S'distance'
p5
aF46.72926425933838
aa(lp6
S'timestamp'
p7
aF6.4756920337677
aatp8
Rp9
.ccollections
OrderedDict
p0
((lp1
(lp2
S'state'
p3
aI0
aa(lp4
S'distance'
p5
aF46.72926425933838
aa(lp6
S'timestamp'
p7
aF6.476294994354248
aatp8
Rp9
.ccollections
OrderedDict
p0
((lp1
(lp2
S'state'
p3
aI0
aa(lp4
S'distance'
p5
aF46.72926425933838
aa(lp6
S'timestamp'
p7
aF6.485695838928223
aatp8
Rp9
.ccollections
OrderedDict
p0
((lp1
(lp2
S'state'
p3
aI0
aa(lp4
S'distance'
p5
aF46.72926425933838
aa(lp6
S'timestamp'
p7
aF6.486104965209961
aatp8
Rp9
.ccollections
OrderedDict
p0
((lp1
(lp2
S'state'
p3
aI0
aa(lp4
S'distance'
p5
aF46.72926425933838
aa(lp6
S'timestamp'
p7
aF6.495837926864624
aatp8
Rp9
.ccollections
OrderedDict
p0
((lp1
(lp2
S'state'
p3
aI0
aa(lp4
S'distance'
p5
aF46.72926425933838
aa(lp6
S'timestamp'
p7
aF6.496280908584595
aatp8
Rp9
.ccollections
OrderedDict
p0
((lp1
(lp2
S'state'
p3
aI0
aa(lp4
S'distance'
p5
aF46.72926425933838
aa(lp6
S'timestamp'
p7
aF6.50578498840332
aatp8
Rp9
.ccollections
OrderedDict
p0
((lp1
(lp2
S'state'
p3
aI0
aa(lp4
S'distance'
p5
aF46.72926425933838
aa(lp6
S'timestamp'
p7
aF6.506198883056641
aatp8
Rp9
.ccollections
OrderedDict
p0
((lp1
(lp2
S'state'
p3
aI0
aa(lp4
S'distance'
p5
aF46.72926425933838
aa(lp6
S'timestamp'
p7
aF6.515811920166016
aatp8
Rp9
.ccollections
OrderedDict
p0
((lp1
(lp2
S'state'
p3
aI0
aa(lp4
S'distance'
p5
aF46.72926425933838
aa(lp6
S'timestamp'
p7
aF6.516199827194214
aatp8
Rp9
.ccollections
OrderedDict
p0
((lp1
(lp2
S'state'
p3
aI0
aa(lp4
S'distance'
p5
aF46.72926425933838
aa(lp6
S'timestamp'
p7
aF6.5258378982543945
aatp8
Rp9
.ccollections
OrderedDict
p0
((lp1
(lp2
S'state'
p3
aI0
aa(lp4
S'distance'
p5
aF46.72926425933838
aa(lp6
S'timestamp'
p7
aF6.526188850402832
aatp8
Rp9
.ccollections
OrderedDict
p0
((lp1
(lp2
S'state'
p3
aI0
aa(lp4
S'distance'
p5
aF46.72926425933838
aa(lp6
S'timestamp'
p7
aF6.535962820053101
aatp8
Rp9
.ccollections
OrderedDict
p0
((lp1
(lp2
S'state'
p3
aI0
aa(lp4
S'distance'
p5
aF46.72926425933838
aa(lp6
S'timestamp'
p7
aF6.536175012588501
aatp8
Rp9
.ccollections
OrderedDict
p0
((lp1
(lp2
S'state'
p3
aI0
aa(lp4
S'distance'
p5
aF46.72926425933838
aa(lp6
S'timestamp'
p7
aF6.545684814453125
aatp8
Rp9
.ccollections
OrderedDict
p0
((lp1
(lp2
S'state'
p3
aI0
aa(lp4
S'distance'
p5
aF46.72926425933838
aa(lp6
S'timestamp'
p7
aF6.546283006668091
aatp8
Rp9
.ccollections
OrderedDict
p0
((lp1
(lp2
S'state'
p3
aI0
aa(lp4
S'distance'
p5
aF46.72926425933838
aa(lp6
S'timestamp'
p7
aF6.555686950683594
aatp8
Rp9
.ccollections
OrderedDict
p0
((lp1
(lp2
S'state'
p3
aI0
aa(lp4
S'distance'
p5
aF46.72926425933838
aa(lp6
S'timestamp'
p7
aF6.556192874908447
aatp8
Rp9
.ccollections
OrderedDict
p0
((lp1
(lp2
S'state'
p3
aI0
aa(lp4
S'distance'
p5
aF46.72926425933838
aa(lp6
S'timestamp'
p7
aF6.56601881980896
aatp8
Rp9
.ccollections
OrderedDict
p0
((lp1
(lp2
S'state'
p3
aI0
aa(lp4
S'distance'
p5
aF46.72926425933838
aa(lp6
S'timestamp'
p7
aF6.566104888916016
aatp8
Rp9
.ccollections
OrderedDict
p0
((lp1
(lp2
S'state'
p3
aI0
aa(lp4
S'distance'
p5
aF46.72926425933838
aa(lp6
S'timestamp'
p7
aF6.575626850128174
aatp8
Rp9
.ccollections
OrderedDict
p0
((lp1
(lp2
S'state'
p3
aI0
aa(lp4
S'distance'
p5
aF46.72926425933838
aa(lp6
S'timestamp'
p7
aF6.576408863067627
aatp8
Rp9
.ccollections
OrderedDict
p0
((lp1
(lp2
S'state'
p3
aI0
aa(lp4
S'distance'
p5
aF46.72926425933838
aa(lp6
S'timestamp'
p7
aF6.585747003555298
aatp8
Rp9
.ccollections
OrderedDict
p0
((lp1
(lp2
S'state'
p3
aI0
aa(lp4
S'distance'
p5
aF46.72926425933838
aa(lp6
S'timestamp'
p7
aF6.586148977279663
aatp8
Rp9
.ccollections
OrderedDict
p0
((lp1
(lp2
S'state'
p3
aI0
aa(lp4
S'distance'
p5
aF46.72926425933838
aa(lp6
S'timestamp'
p7
aF6.596019983291626
aatp8
Rp9
.ccollections
OrderedDict
p0
((lp1
(lp2
S'state'
p3
aI0
aa(lp4
S'distance'
p5
aF46.72926425933838
aa(lp6
S'timestamp'
p7
aF6.596107006072998
aatp8
Rp9
.ccollections
OrderedDict
p0
((lp1
(lp2
S'state'
p3
aI0
aa(lp4
S'distance'
p5
aF46.72926425933838
aa(lp6
S'timestamp'
p7
aF6.606923818588257
aatp8
Rp9
.ccollections
OrderedDict
p0
((lp1
(lp2
S'state'
p3
aI0
aa(lp4
S'distance'
p5
aF46.72926425933838
aa(lp6
S'timestamp'
p7
aF6.607004880905151
aatp8
Rp9
.ccollections
OrderedDict
p0
((lp1
(lp2
S'state'
p3
aI0
aa(lp4
S'distance'
p5
aF46.72926425933838
aa(lp6
S'timestamp'
p7
aF6.616135835647583
aatp8
Rp9
.ccollections
OrderedDict
p0
((lp1
(lp2
S'state'
p3
aI0
aa(lp4
S'distance'
p5
aF46.72926425933838
aa(lp6
S'timestamp'
p7
aF6.616312026977539
aatp8
Rp9
.ccollections
OrderedDict
p0
((lp1
(lp2
S'state'
p3
aI0
aa(lp4
S'distance'
p5
aF46.72926425933838
aa(lp6
S'timestamp'
p7
aF6.626471042633057
aatp8
Rp9
.ccollections
OrderedDict
p0
((lp1
(lp2
S'state'
p3
aI0
aa(lp4
S'distance'
p5
aF46.72926425933838
aa(lp6
S'timestamp'
p7
aF6.626582860946655
aatp8
Rp9
.ccollections
OrderedDict
p0
((lp1
(lp2
S'state'
p3
aI0
aa(lp4
S'distance'
p5
aF46.72926425933838
aa(lp6
S'timestamp'
p7
aF6.635998964309692
aatp8
Rp9
.ccollections
OrderedDict
p0
((lp1
(lp2
S'state'
p3
aI0
aa(lp4
S'distance'
p5
aF46.72926425933838
aa(lp6
S'timestamp'
p7
aF6.636157035827637
aatp8
Rp9
.ccollections
OrderedDict
p0
((lp1
(lp2
S'state'
p3
aI0
aa(lp4
S'distance'
p5
aF46.72926425933838
aa(lp6
S'timestamp'
p7
aF6.64565896987915
aatp8
Rp9
.ccollections
OrderedDict
p0
((lp1
(lp2
S'state'
p3
aI0
aa(lp4
S'distance'
p5
aF46.72926425933838
aa(lp6
S'timestamp'
p7
aF6.646190881729126
aatp8
Rp9
.ccollections
OrderedDict
p0
((lp1
(lp2
S'state'
p3
aI0
aa(lp4
S'distance'
p5
aF46.72926425933838
aa(lp6
S'timestamp'
p7
aF6.655800819396973
aatp8
Rp9
.ccollections
OrderedDict
p0
((lp1
(lp2
S'state'
p3
aI0
aa(lp4
S'distance'
p5
aF46.72926425933838
aa(lp6
S'timestamp'
p7
aF6.656136989593506
aatp8
Rp9
.ccollections
OrderedDict
p0
((lp1
(lp2
S'state'
p3
aI0
aa(lp4
S'distance'
p5
aF46.72926425933838
aa(lp6
S'timestamp'
p7
aF6.665966987609863
aatp8
Rp9
.ccollections
OrderedDict
p0
((lp1
(lp2
S'state'
p3
aI0
aa(lp4
S'distance'
p5
aF46.72926425933838
aa(lp6
S'timestamp'
p7
aF6.666201829910278
aatp8
Rp9
.ccollections
OrderedDict
p0
((lp1
(lp2
S'state'
p3
aI0
aa(lp4
S'distance'
p5
aF46.72926425933838
aa(lp6
S'timestamp'
p7
aF6.675642013549805
aatp8
Rp9
.ccollections
OrderedDict
p0
((lp1
(lp2
S'state'
p3
aI0
aa(lp4
S'distance'
p5
aF46.72926425933838
aa(lp6
S'timestamp'
p7
aF6.676369905471802
aatp8
Rp9
.ccollections
OrderedDict
p0
((lp1
(lp2
S'state'
p3
aI0
aa(lp4
S'distance'
p5
aF46.72926425933838
aa(lp6
S'timestamp'
p7
aF6.6857709884643555
aatp8
Rp9
.ccollections
OrderedDict
p0
((lp1
(lp2
S'state'
p3
aI0
aa(lp4
S'distance'
p5
aF46.72926425933838
aa(lp6
S'timestamp'
p7
aF6.686125993728638
aatp8
Rp9
.ccollections
OrderedDict
p0
((lp1
(lp2
S'state'
p3
aI0
aa(lp4
S'distance'
p5
aF46.72926425933838
aa(lp6
S'timestamp'
p7
aF6.695940971374512
aatp8
Rp9
.ccollections
OrderedDict
p0
((lp1
(lp2
S'state'
p3
aI0
aa(lp4
S'distance'
p5
aF46.72926425933838
aa(lp6
S'timestamp'
p7
aF6.696156024932861
aatp8
Rp9
.ccollections
OrderedDict
p0
((lp1
(lp2
S'state'
p3
aI0
aa(lp4
S'distance'
p5
aF46.72926425933838
aa(lp6
S'timestamp'
p7
aF6.70566987991333
aatp8
Rp9
.ccollections
OrderedDict
p0
((lp1
(lp2
S'state'
p3
aI0
aa(lp4
S'distance'
p5
aF46.72926425933838
aa(lp6
S'timestamp'
p7
aF6.706086874008179
aatp8
Rp9
.ccollections
OrderedDict
p0
((lp1
(lp2
S'state'
p3
aI0
aa(lp4
S'distance'
p5
aF46.72926425933838
aa(lp6
S'timestamp'
p7
aF6.7160279750823975
aatp8
Rp9
.ccollections
OrderedDict
p0
((lp1
(lp2
S'state'
p3
aI0
aa(lp4
S'distance'
p5
aF46.72926425933838
aa(lp6
S'timestamp'
p7
aF6.716200828552246
aatp8
Rp9
.ccollections
OrderedDict
p0
((lp1
(lp2
S'state'
p3
aI0
aa(lp4
S'distance'
p5
aF46.72926425933838
aa(lp6
S'timestamp'
p7
aF6.7258758544921875
aatp8
Rp9
.ccollections
OrderedDict
p0
((lp1
(lp2
S'state'
p3
aI0
aa(lp4
S'distance'
p5
aF46.72926425933838
aa(lp6
S'timestamp'
p7
aF6.726120948791504
aatp8
Rp9
.ccollections
OrderedDict
p0
((lp1
(lp2
S'state'
p3
aI0
aa(lp4
S'distance'
p5
aF46.72926425933838
aa(lp6
S'timestamp'
p7
aF6.735857963562012
aatp8
Rp9
.ccollections
OrderedDict
p0
((lp1
(lp2
S'state'
p3
aI0
aa(lp4
S'distance'
p5
aF46.72926425933838
aa(lp6
S'timestamp'
p7
aF6.736153841018677
aatp8
Rp9
.ccollections
OrderedDict
p0
((lp1
(lp2
S'state'
p3
aI0
aa(lp4
S'distance'
p5
aF46.72926425933838
aa(lp6
S'timestamp'
p7
aF6.745714902877808
aatp8
Rp9
.ccollections
OrderedDict
p0
((lp1
(lp2
S'state'
p3
aI0
aa(lp4
S'distance'
p5
aF46.72926425933838
aa(lp6
S'timestamp'
p7
aF6.746173858642578
aatp8
Rp9
.ccollections
OrderedDict
p0
((lp1
(lp2
S'state'
p3
aI0
aa(lp4
S'distance'
p5
aF46.72926425933838
aa(lp6
S'timestamp'
p7
aF6.755759954452515
aatp8
Rp9
.ccollections
OrderedDict
p0
((lp1
(lp2
S'state'
p3
aI0
aa(lp4
S'distance'
p5
aF46.72926425933838
aa(lp6
S'timestamp'
p7
aF6.765913963317871
aatp8
Rp9
.ccollections
OrderedDict
p0
((lp1
(lp2
S'state'
p3
aI0
aa(lp4
S'distance'
p5
aF46.72926425933838
aa(lp6
S'timestamp'
p7
aF6.7660298347473145
aatp8
Rp9
.ccollections
OrderedDict
p0
((lp1
(lp2
S'state'
p3
aI0
aa(lp4
S'distance'
p5
aF46.72926425933838
aa(lp6
S'timestamp'
p7
aF6.767076015472412
aatp8
Rp9
.ccollections
OrderedDict
p0
((lp1
(lp2
S'state'
p3
aI0
aa(lp4
S'distance'
p5
aF46.72926425933838
aa(lp6
S'timestamp'
p7
aF6.775915861129761
aatp8
Rp9
.ccollections
OrderedDict
p0
((lp1
(lp2
S'state'
p3
aI0
aa(lp4
S'distance'
p5
aF46.72926425933838
aa(lp6
S'timestamp'
p7
aF6.776096820831299
aatp8
Rp9
.ccollections
OrderedDict
p0
((lp1
(lp2
S'state'
p3
aI0
aa(lp4
S'distance'
p5
aF46.72926425933838
aa(lp6
S'timestamp'
p7
aF6.785789966583252
aatp8
Rp9
.ccollections
OrderedDict
p0
((lp1
(lp2
S'state'
p3
aI0
aa(lp4
S'distance'
p5
aF46.72926425933838
aa(lp6
S'timestamp'
p7
aF6.786172866821289
aatp8
Rp9
.ccollections
OrderedDict
p0
((lp1
(lp2
S'state'
p3
aI0
aa(lp4
S'distance'
p5
aF46.72926425933838
aa(lp6
S'timestamp'
p7
aF6.795997858047485
aatp8
Rp9
.ccollections
OrderedDict
p0
((lp1
(lp2
S'state'
p3
aI0
aa(lp4
S'distance'
p5
aF46.72926425933838
aa(lp6
S'timestamp'
p7
aF6.796166896820068
aatp8
Rp9
.ccollections
OrderedDict
p0
((lp1
(lp2
S'state'
p3
aI0
aa(lp4
S'distance'
p5
aF46.72926425933838
aa(lp6
S'timestamp'
p7
aF6.805912971496582
aatp8
Rp9
.ccollections
OrderedDict
p0
((lp1
(lp2
S'state'
p3
aI0
aa(lp4
S'distance'
p5
aF46.72926425933838
aa(lp6
S'timestamp'
p7
aF6.80606484413147
aatp8
Rp9
.ccollections
OrderedDict
p0
((lp1
(lp2
S'state'
p3
aI0
aa(lp4
S'distance'
p5
aF46.72926425933838
aa(lp6
S'timestamp'
p7
aF6.815805912017822
aatp8
Rp9
.ccollections
OrderedDict
p0
((lp1
(lp2
S'state'
p3
aI0
aa(lp4
S'distance'
p5
aF46.72926425933838
aa(lp6
S'timestamp'
p7
aF6.816210985183716
aatp8
Rp9
.ccollections
OrderedDict
p0
((lp1
(lp2
S'state'
p3
aI0
aa(lp4
S'distance'
p5
aF46.72926425933838
aa(lp6
S'timestamp'
p7
aF6.82591986656189
aatp8
Rp9
.ccollections
OrderedDict
p0
((lp1
(lp2
S'state'
p3
aI0
aa(lp4
S'distance'
p5
aF46.72926425933838
aa(lp6
S'timestamp'
p7
aF6.826092004776001
aatp8
Rp9
.ccollections
OrderedDict
p0
((lp1
(lp2
S'state'
p3
aI0
aa(lp4
S'distance'
p5
aF46.72926425933838
aa(lp6
S'timestamp'
p7
aF6.835675954818726
aatp8
Rp9
.ccollections
OrderedDict
p0
((lp1
(lp2
S'state'
p3
aI0
aa(lp4
S'distance'
p5
aF46.72926425933838
aa(lp6
S'timestamp'
p7
aF6.836197853088379
aatp8
Rp9
.ccollections
OrderedDict
p0
((lp1
(lp2
S'state'
p3
aI0
aa(lp4
S'distance'
p5
aF46.72926425933838
aa(lp6
S'timestamp'
p7
aF6.8458030223846436
aatp8
Rp9
.ccollections
OrderedDict
p0
((lp1
(lp2
S'state'
p3
aI0
aa(lp4
S'distance'
p5
aF46.72926425933838
aa(lp6
S'timestamp'
p7
aF6.846169948577881
aatp8
Rp9
.ccollections
OrderedDict
p0
((lp1
(lp2
S'state'
p3
aI0
aa(lp4
S'distance'
p5
aF46.72926425933838
aa(lp6
S'timestamp'
p7
aF6.855913877487183
aatp8
Rp9
.ccollections
OrderedDict
p0
((lp1
(lp2
S'state'
p3
aI0
aa(lp4
S'distance'
p5
aF46.72926425933838
aa(lp6
S'timestamp'
p7
aF6.856145858764648
aatp8
Rp9
.ccollections
OrderedDict
p0
((lp1
(lp2
S'state'
p3
aI0
aa(lp4
S'distance'
p5
aF46.72926425933838
aa(lp6
S'timestamp'
p7
aF6.865835905075073
aatp8
Rp9
.ccollections
OrderedDict
p0
((lp1
(lp2
S'state'
p3
aI0
aa(lp4
S'distance'
p5
aF46.72926425933838
aa(lp6
S'timestamp'
p7
aF6.866117000579834
aatp8
Rp9
.ccollections
OrderedDict
p0
((lp1
(lp2
S'state'
p3
aI0
aa(lp4
S'distance'
p5
aF46.72926425933838
aa(lp6
S'timestamp'
p7
aF6.876025915145874
aatp8
Rp9
.ccollections
OrderedDict
p0
((lp1
(lp2
S'state'
p3
aI0
aa(lp4
S'distance'
p5
aF46.72926425933838
aa(lp6
S'timestamp'
p7
aF6.876159906387329
aatp8
Rp9
.ccollections
OrderedDict
p0
((lp1
(lp2
S'state'
p3
aI0
aa(lp4
S'distance'
p5
aF46.72926425933838
aa(lp6
S'timestamp'
p7
aF6.885710954666138
aatp8
Rp9
.ccollections
OrderedDict
p0
((lp1
(lp2
S'state'
p3
aI0
aa(lp4
S'distance'
p5
aF46.72926425933838
aa(lp6
S'timestamp'
p7
aF6.88614296913147
aatp8
Rp9
.ccollections
OrderedDict
p0
((lp1
(lp2
S'state'
p3
aI0
aa(lp4
S'distance'
p5
aF46.72926425933838
aa(lp6
S'timestamp'
p7
aF6.895956993103027
aatp8
Rp9
.ccollections
OrderedDict
p0
((lp1
(lp2
S'state'
p3
aI0
aa(lp4
S'distance'
p5
aF46.72926425933838
aa(lp6
S'timestamp'
p7
aF6.896098852157593
aatp8
Rp9
.ccollections
OrderedDict
p0
((lp1
(lp2
S'state'
p3
aI0
aa(lp4
S'distance'
p5
aF46.72926425933838
aa(lp6
S'timestamp'
p7
aF6.905642986297607
aatp8
Rp9
.ccollections
OrderedDict
p0
((lp1
(lp2
S'state'
p3
aI0
aa(lp4
S'distance'
p5
aF46.72926425933838
aa(lp6
S'timestamp'
p7
aF6.906117916107178
aatp8
Rp9
.ccollections
OrderedDict
p0
((lp1
(lp2
S'state'
p3
aI0
aa(lp4
S'distance'
p5
aF46.72926425933838
aa(lp6
S'timestamp'
p7
aF6.915750026702881
aatp8
Rp9
.ccollections
OrderedDict
p0
((lp1
(lp2
S'state'
p3
aI0
aa(lp4
S'distance'
p5
aF46.72926425933838
aa(lp6
S'timestamp'
p7
aF6.91612696647644
aatp8
Rp9
.ccollections
OrderedDict
p0
((lp1
(lp2
S'state'
p3
aI0
aa(lp4
S'distance'
p5
aF46.72926425933838
aa(lp6
S'timestamp'
p7
aF6.925793886184692
aatp8
Rp9
.ccollections
OrderedDict
p0
((lp1
(lp2
S'state'
p3
aI0
aa(lp4
S'distance'
p5
aF46.72926425933838
aa(lp6
S'timestamp'
p7
aF6.926095962524414
aatp8
Rp9
.ccollections
OrderedDict
p0
((lp1
(lp2
S'state'
p3
aI0
aa(lp4
S'distance'
p5
aF46.72926425933838
aa(lp6
S'timestamp'
p7
aF6.935837984085083
aatp8
Rp9
.ccollections
OrderedDict
p0
((lp1
(lp2
S'state'
p3
aI0
aa(lp4
S'distance'
p5
aF46.72926425933838
aa(lp6
S'timestamp'
p7
aF6.936147928237915
aatp8
Rp9
.ccollections
OrderedDict
p0
((lp1
(lp2
S'state'
p3
aI0
aa(lp4
S'distance'
p5
aF46.72926425933838
aa(lp6
S'timestamp'
p7
aF6.945626974105835
aatp8
Rp9
.ccollections
OrderedDict
p0
((lp1
(lp2
S'state'
p3
aI0
aa(lp4
S'distance'
p5
aF46.72926425933838
aa(lp6
S'timestamp'
p7
aF6.946257829666138
aatp8
Rp9
.ccollections
OrderedDict
p0
((lp1
(lp2
S'state'
p3
aI0
aa(lp4
S'distance'
p5
aF46.72926425933838
aa(lp6
S'timestamp'
p7
aF6.955744028091431
aatp8
Rp9
.ccollections
OrderedDict
p0
((lp1
(lp2
S'state'
p3
aI0
aa(lp4
S'distance'
p5
aF46.72926425933838
aa(lp6
S'timestamp'
p7
aF6.975766897201538
aatp8
Rp9
.ccollections
OrderedDict
p0
((lp1
(lp2
S'state'
p3
aI0
aa(lp4
S'distance'
p5
aF46.72926425933838
aa(lp6
S'timestamp'
p7
aF6.976027965545654
aatp8
Rp9
.ccollections
OrderedDict
p0
((lp1
(lp2
S'state'
p3
aI0
aa(lp4
S'distance'
p5
aF46.72926425933838
aa(lp6
S'timestamp'
p7
aF6.976589918136597
aatp8
Rp9
.ccollections
OrderedDict
p0
((lp1
(lp2
S'state'
p3
aI0
aa(lp4
S'distance'
p5
aF46.72926425933838
aa(lp6
S'timestamp'
p7
aF6.9771528244018555
aatp8
Rp9
.ccollections
OrderedDict
p0
((lp1
(lp2
S'state'
p3
aI0
aa(lp4
S'distance'
p5
aF46.72926425933838
aa(lp6
S'timestamp'
p7
aF6.985738039016724
aatp8
Rp9
.ccollections
OrderedDict
p0
((lp1
(lp2
S'state'
p3
aI0
aa(lp4
S'distance'
p5
aF46.72926425933838
aa(lp6
S'timestamp'
p7
aF6.986126899719238
aatp8
Rp9
.ccollections
OrderedDict
p0
((lp1
(lp2
S'state'
p3
aI0
aa(lp4
S'distance'
p5
aF46.72926425933838
aa(lp6
S'timestamp'
p7
aF6.9871790409088135
aatp8
Rp9
.ccollections
OrderedDict
p0
((lp1
(lp2
S'state'
p3
aI0
aa(lp4
S'distance'
p5
aF46.72926425933838
aa(lp6
S'timestamp'
p7
aF6.995857000350952
aatp8
Rp9
.ccollections
OrderedDict
p0
((lp1
(lp2
S'state'
p3
aI0
aa(lp4
S'distance'
p5
aF46.72926425933838
aa(lp6
S'timestamp'
p7
aF6.996088027954102
aatp8
Rp9
.ccollections
OrderedDict
p0
((lp1
(lp2
S'state'
p3
aI0
aa(lp4
S'distance'
p5
aF46.72926425933838
aa(lp6
S'timestamp'
p7
aF7.005745887756348
aatp8
Rp9
.ccollections
OrderedDict
p0
((lp1
(lp2
S'state'
p3
aI0
aa(lp4
S'distance'
p5
aF46.72926425933838
aa(lp6
S'timestamp'
p7
aF7.006410837173462
aatp8
Rp9
.ccollections
OrderedDict
p0
((lp1
(lp2
S'state'
p3
aI0
aa(lp4
S'distance'
p5
aF46.72926425933838
aa(lp6
S'timestamp'
p7
aF7.015733003616333
aatp8
Rp9
.ccollections
OrderedDict
p0
((lp1
(lp2
S'state'
p3
aI0
aa(lp4
S'distance'
p5
aF46.72926425933838
aa(lp6
S'timestamp'
p7
aF7.016140937805176
aatp8
Rp9
.ccollections
OrderedDict
p0
((lp1
(lp2
S'state'
p3
aI0
aa(lp4
S'distance'
p5
aF46.72926425933838
aa(lp6
S'timestamp'
p7
aF7.025653839111328
aatp8
Rp9
.ccollections
OrderedDict
p0
((lp1
(lp2
S'state'
p3
aI0
aa(lp4
S'distance'
p5
aF46.72926425933838
aa(lp6
S'timestamp'
p7
aF7.026144027709961
aatp8
Rp9
.ccollections
OrderedDict
p0
((lp1
(lp2
S'state'
p3
aI0
aa(lp4
S'distance'
p5
aF46.72926425933838
aa(lp6
S'timestamp'
p7
aF7.04600191116333
aatp8
Rp9
.ccollections
OrderedDict
p0
((lp1
(lp2
S'state'
p3
aI0
aa(lp4
S'distance'
p5
aF46.72926425933838
aa(lp6
S'timestamp'
p7
aF7.046097040176392
aatp8
Rp9
.ccollections
OrderedDict
p0
((lp1
(lp2
S'state'
p3
aI0
aa(lp4
S'distance'
p5
aF46.72926425933838
aa(lp6
S'timestamp'
p7
aF7.047032833099365
aatp8
Rp9
.ccollections
OrderedDict
p0
((lp1
(lp2
S'state'
p3
aI0
aa(lp4
S'distance'
p5
aF46.72926425933838
aa(lp6
S'timestamp'
p7
aF7.047120809555054
aatp8
Rp9
.ccollections
OrderedDict
p0
((lp1
(lp2
S'state'
p3
aI0
aa(lp4
S'distance'
p5
aF46.72926425933838
aa(lp6
S'timestamp'
p7
aF7.055727958679199
aatp8
Rp9
.ccollections
OrderedDict
p0
((lp1
(lp2
S'state'
p3
aI0
aa(lp4
S'distance'
p5
aF46.72926425933838
aa(lp6
S'timestamp'
p7
aF7.0562779903411865
aatp8
Rp9
.ccollections
OrderedDict
p0
((lp1
(lp2
S'state'
p3
aI0
aa(lp4
S'distance'
p5
aF46.72926425933838
aa(lp6
S'timestamp'
p7
aF7.0660059452056885
aatp8
Rp9
.ccollections
OrderedDict
p0
((lp1
(lp2
S'state'
p3
aI0
aa(lp4
S'distance'
p5
aF46.72926425933838
aa(lp6
S'timestamp'
p7
aF7.066090822219849
aatp8
Rp9
.ccollections
OrderedDict
p0
((lp1
(lp2
S'state'
p3
aI0
aa(lp4
S'distance'
p5
aF46.72926425933838
aa(lp6
S'timestamp'
p7
aF7.075947999954224
aatp8
Rp9
.ccollections
OrderedDict
p0
((lp1
(lp2
S'state'
p3
aI0
aa(lp4
S'distance'
p5
aF46.72926425933838
aa(lp6
S'timestamp'
p7
aF7.076089859008789
aatp8
Rp9
.ccollections
OrderedDict
p0
((lp1
(lp2
S'state'
p3
aI0
aa(lp4
S'distance'
p5
aF46.72926425933838
aa(lp6
S'timestamp'
p7
aF7.085882902145386
aatp8
Rp9
.ccollections
OrderedDict
p0
((lp1
(lp2
S'state'
p3
aI0
aa(lp4
S'distance'
p5
aF46.72926425933838
aa(lp6
S'timestamp'
p7
aF7.086158990859985
aatp8
Rp9
.ccollections
OrderedDict
p0
((lp1
(lp2
S'state'
p3
aI0
aa(lp4
S'distance'
p5
aF46.72926425933838
aa(lp6
S'timestamp'
p7
aF7.095469951629639
aatp8
Rp9
.ccollections
OrderedDict
p0
((lp1
(lp2
S'state'
p3
aI0
aa(lp4
S'distance'
p5
aF46.72926425933838
aa(lp6
S'timestamp'
p7
aF7.0962018966674805
aatp8
Rp9
.ccollections
OrderedDict
p0
((lp1
(lp2
S'state'
p3
aI0
aa(lp4
S'distance'
p5
aF46.72926425933838
aa(lp6
S'timestamp'
p7
aF7.105844020843506
aatp8
Rp9
.ccollections
OrderedDict
p0
((lp1
(lp2
S'state'
p3
aI0
aa(lp4
S'distance'
p5
aF46.72926425933838
aa(lp6
S'timestamp'
p7
aF7.106122970581055
aatp8
Rp9
.ccollections
OrderedDict
p0
((lp1
(lp2
S'state'
p3
aI0
aa(lp4
S'distance'
p5
aF46.72926425933838
aa(lp6
S'timestamp'
p7
aF7.115675926208496
aatp8
Rp9
.ccollections
OrderedDict
p0
((lp1
(lp2
S'state'
p3
aI0
aa(lp4
S'distance'
p5
aF46.72926425933838
aa(lp6
S'timestamp'
p7
aF7.116170883178711
aatp8
Rp9
.ccollections
OrderedDict
p0
((lp1
(lp2
S'state'
p3
aI0
aa(lp4
S'distance'
p5
aF46.72926425933838
aa(lp6
S'timestamp'
p7
aF7.125805854797363
aatp8
Rp9
.ccollections
OrderedDict
p0
((lp1
(lp2
S'state'
p3
aI0
aa(lp4
S'distance'
p5
aF46.72926425933838
aa(lp6
S'timestamp'
p7
aF7.126185894012451
aatp8
Rp9
.ccollections
OrderedDict
p0
((lp1
(lp2
S'state'
p3
aI0
aa(lp4
S'distance'
p5
aF46.72926425933838
aa(lp6
S'timestamp'
p7
aF7.135915040969849
aatp8
Rp9
.ccollections
OrderedDict
p0
((lp1
(lp2
S'state'
p3
aI0
aa(lp4
S'distance'
p5
aF46.72926425933838
aa(lp6
S'timestamp'
p7
aF7.13616681098938
aatp8
Rp9
.ccollections
OrderedDict
p0
((lp1
(lp2
S'state'
p3
aI0
aa(lp4
S'distance'
p5
aF46.72926425933838
aa(lp6
S'timestamp'
p7
aF7.145769834518433
aatp8
Rp9
.ccollections
OrderedDict
p0
((lp1
(lp2
S'state'
p3
aI0
aa(lp4
S'distance'
p5
aF46.72926425933838
aa(lp6
S'timestamp'
p7
aF7.146101951599121
aatp8
Rp9
.ccollections
OrderedDict
p0
((lp1
(lp2
S'state'
p3
aI0
aa(lp4
S'distance'
p5
aF46.72926425933838
aa(lp6
S'timestamp'
p7
aF7.155784845352173
aatp8
Rp9
.ccollections
OrderedDict
p0
((lp1
(lp2
S'state'
p3
aI0
aa(lp4
S'distance'
p5
aF46.72926425933838
aa(lp6
S'timestamp'
p7
aF7.1561119556427
aatp8
Rp9
.ccollections
OrderedDict
p0
((lp1
(lp2
S'state'
p3
aI0
aa(lp4
S'distance'
p5
aF46.72926425933838
aa(lp6
S'timestamp'
p7
aF7.165823936462402
aatp8
Rp9
.ccollections
OrderedDict
p0
((lp1
(lp2
S'state'
p3
aI0
aa(lp4
S'distance'
p5
aF46.72926425933838
aa(lp6
S'timestamp'
p7
aF7.16612696647644
aatp8
Rp9
.ccollections
OrderedDict
p0
((lp1
(lp2
S'state'
p3
aI0
aa(lp4
S'distance'
p5
aF46.72926425933838
aa(lp6
S'timestamp'
p7
aF7.1759819984436035
aatp8
Rp9
.ccollections
OrderedDict
p0
((lp1
(lp2
S'state'
p3
aI0
aa(lp4
S'distance'
p5
aF46.72926425933838
aa(lp6
S'timestamp'
p7
aF7.176111936569214
aatp8
Rp9
.ccollections
OrderedDict
p0
((lp1
(lp2
S'state'
p3
aI0
aa(lp4
S'distance'
p5
aF46.72926425933838
aa(lp6
S'timestamp'
p7
aF7.1856849193573
aatp8
Rp9
.ccollections
OrderedDict
p0
((lp1
(lp2
S'state'
p3
aI0
aa(lp4
S'distance'
p5
aF46.72926425933838
aa(lp6
S'timestamp'
p7
aF7.1861560344696045
aatp8
Rp9
.ccollections
OrderedDict
p0
((lp1
(lp2
S'state'
p3
aI0
aa(lp4
S'distance'
p5
aF46.72926425933838
aa(lp6
S'timestamp'
p7
aF7.205899953842163
aatp8
Rp9
.ccollections
OrderedDict
p0
((lp1
(lp2
S'state'
p3
aI0
aa(lp4
S'distance'
p5
aF46.72926425933838
aa(lp6
S'timestamp'
p7
aF7.2060089111328125
aatp8
Rp9
.ccollections
OrderedDict
p0
((lp1
(lp2
S'state'
p3
aI0
aa(lp4
S'distance'
p5
aF46.72926425933838
aa(lp6
S'timestamp'
p7
aF7.207331895828247
aatp8
Rp9
.ccollections
OrderedDict
p0
((lp1
(lp2
S'state'
p3
aI0
aa(lp4
S'distance'
p5
aF46.72926425933838
aa(lp6
S'timestamp'
p7
aF7.208361864089966
aatp8
Rp9
.ccollections
OrderedDict
p0
((lp1
(lp2
S'state'
p3
aI0
aa(lp4
S'distance'
p5
aF46.72926425933838
aa(lp6
S'timestamp'
p7
aF7.216059923171997
aatp8
Rp9
.ccollections
OrderedDict
p0
((lp1
(lp2
S'state'
p3
aI0
aa(lp4
S'distance'
p5
aF46.72926425933838
aa(lp6
S'timestamp'
p7
aF7.216153860092163
aatp8
Rp9
.ccollections
OrderedDict
p0
((lp1
(lp2
S'state'
p3
aI0
aa(lp4
S'distance'
p5
aF46.72926425933838
aa(lp6
S'timestamp'
p7
aF7.2261199951171875
aatp8
Rp9
.ccollections
OrderedDict
p0
((lp1
(lp2
S'state'
p3
aI0
aa(lp4
S'distance'
p5
aF46.72926425933838
aa(lp6
S'timestamp'
p7
aF7.226239919662476
aatp8
Rp9
.ccollections
OrderedDict
p0
((lp1
(lp2
S'state'
p3
aI0
aa(lp4
S'distance'
p5
aF46.72926425933838
aa(lp6
S'timestamp'
p7
aF7.235790014266968
aatp8
Rp9
.ccollections
OrderedDict
p0
((lp1
(lp2
S'state'
p3
aI0
aa(lp4
S'distance'
p5
aF46.72926425933838
aa(lp6
S'timestamp'
p7
aF7.236941814422607
aatp8
Rp9
.ccollections
OrderedDict
p0
((lp1
(lp2
S'state'
p3
aI0
aa(lp4
S'distance'
p5
aF46.72926425933838
aa(lp6
S'timestamp'
p7
aF7.2456278800964355
aatp8
Rp9
.ccollections
OrderedDict
p0
((lp1
(lp2
S'state'
p3
aI0
aa(lp4
S'distance'
p5
aF46.72926425933838
aa(lp6
S'timestamp'
p7
aF7.24617600440979
aatp8
Rp9
.ccollections
OrderedDict
p0
((lp1
(lp2
S'state'
p3
aI0
aa(lp4
S'distance'
p5
aF46.72926425933838
aa(lp6
S'timestamp'
p7
aF7.255971908569336
aatp8
Rp9
.ccollections
OrderedDict
p0
((lp1
(lp2
S'state'
p3
aI0
aa(lp4
S'distance'
p5
aF46.72926425933838
aa(lp6
S'timestamp'
p7
aF7.256065845489502
aatp8
Rp9
.ccollections
OrderedDict
p0
((lp1
(lp2
S'state'
p3
aI0
aa(lp4
S'distance'
p5
aF46.72926425933838
aa(lp6
S'timestamp'
p7
aF7.2655558586120605
aatp8
Rp9
.ccollections
OrderedDict
p0
((lp1
(lp2
S'state'
p3
aI0
aa(lp4
S'distance'
p5
aF46.72926425933838
aa(lp6
S'timestamp'
p7
aF7.266220808029175
aatp8
Rp9
.ccollections
OrderedDict
p0
((lp1
(lp2
S'state'
p3
aI0
aa(lp4
S'distance'
p5
aF46.72926425933838
aa(lp6
S'timestamp'
p7
aF7.275792837142944
aatp8
Rp9
.ccollections
OrderedDict
p0
((lp1
(lp2
S'state'
p3
aI0
aa(lp4
S'distance'
p5
aF46.72926425933838
aa(lp6
S'timestamp'
p7
aF7.276170969009399
aatp8
Rp9
.ccollections
OrderedDict
p0
((lp1
(lp2
S'state'
p3
aI0
aa(lp4
S'distance'
p5
aF46.72926425933838
aa(lp6
S'timestamp'
p7
aF7.285527944564819
aatp8
Rp9
.ccollections
OrderedDict
p0
((lp1
(lp2
S'state'
p3
aI0
aa(lp4
S'distance'
p5
aF46.72926425933838
aa(lp6
S'timestamp'
p7
aF7.286223888397217
aatp8
Rp9
.ccollections
OrderedDict
p0
((lp1
(lp2
S'state'
p3
aI0
aa(lp4
S'distance'
p5
aF46.72926425933838
aa(lp6
S'timestamp'
p7
aF7.305591821670532
aatp8
Rp9
.ccollections
OrderedDict
p0
((lp1
(lp2
S'state'
p3
aI0
aa(lp4
S'distance'
p5
aF46.72926425933838
aa(lp6
S'timestamp'
p7
aF7.305980920791626
aatp8
Rp9
.ccollections
OrderedDict
p0
((lp1
(lp2
S'state'
p3
aI0
aa(lp4
S'distance'
p5
aF46.72926425933838
aa(lp6
S'timestamp'
p7
aF7.306927919387817
aatp8
Rp9
.ccollections
OrderedDict
p0
((lp1
(lp2
S'state'
p3
aI0
aa(lp4
S'distance'
p5
aF46.72926425933838
aa(lp6
S'timestamp'
p7
aF7.307015895843506
aatp8
Rp9
.ccollections
OrderedDict
p0
((lp1
(lp2
S'state'
p3
aI0
aa(lp4
S'distance'
p5
aF46.72926425933838
aa(lp6
S'timestamp'
p7
aF7.315615892410278
aatp8
Rp9
.ccollections
OrderedDict
p0
((lp1
(lp2
S'state'
p3
aI0
aa(lp4
S'distance'
p5
aF46.72926425933838
aa(lp6
S'timestamp'
p7
aF7.316227912902832
aatp8
Rp9
.ccollections
OrderedDict
p0
((lp1
(lp2
S'state'
p3
aI0
aa(lp4
S'distance'
p5
aF46.72926425933838
aa(lp6
S'timestamp'
p7
aF7.32573390007019
aatp8
Rp9
.ccollections
OrderedDict
p0
((lp1
(lp2
S'state'
p3
aI0
aa(lp4
S'distance'
p5
aF46.72926425933838
aa(lp6
S'timestamp'
p7
aF7.326045036315918
aatp8
Rp9
.ccollections
OrderedDict
p0
((lp1
(lp2
S'state'
p3
aI0
aa(lp4
S'distance'
p5
aF46.72926425933838
aa(lp6
S'timestamp'
p7
aF7.335908889770508
aatp8
Rp9
.ccollections
OrderedDict
p0
((lp1
(lp2
S'state'
p3
aI0
aa(lp4
S'distance'
p5
aF46.72926425933838
aa(lp6
S'timestamp'
p7
aF7.336076974868774
aatp8
Rp9
.ccollections
OrderedDict
p0
((lp1
(lp2
S'state'
p3
aI0
aa(lp4
S'distance'
p5
aF46.72926425933838
aa(lp6
S'timestamp'
p7
aF7.345566034317017
aatp8
Rp9
.ccollections
OrderedDict
p0
((lp1
(lp2
S'state'
p3
aI0
aa(lp4
S'distance'
p5
aF46.72926425933838
aa(lp6
S'timestamp'
p7
aF7.346168041229248
aatp8
Rp9
.ccollections
OrderedDict
p0
((lp1
(lp2
S'state'
p3
aI0
aa(lp4
S'distance'
p5
aF46.72926425933838
aa(lp6
S'timestamp'
p7
aF7.355623006820679
aatp8
Rp9
.ccollections
OrderedDict
p0
((lp1
(lp2
S'state'
p3
aI0
aa(lp4
S'distance'
p5
aF46.72926425933838
aa(lp6
S'timestamp'
p7
aF7.356184005737305
aatp8
Rp9
.ccollections
OrderedDict
p0
((lp1
(lp2
S'state'
p3
aI0
aa(lp4
S'distance'
p5
aF46.72926425933838
aa(lp6
S'timestamp'
p7
aF7.365649938583374
aatp8
Rp9
.ccollections
OrderedDict
p0
((lp1
(lp2
S'state'
p3
aI0
aa(lp4
S'distance'
p5
aF46.72926425933838
aa(lp6
S'timestamp'
p7
aF7.366161823272705
aatp8
Rp9
.ccollections
OrderedDict
p0
((lp1
(lp2
S'state'
p3
aI0
aa(lp4
S'distance'
p5
aF46.72926425933838
aa(lp6
S'timestamp'
p7
aF7.385541915893555
aatp8
Rp9
.ccollections
OrderedDict
p0
((lp1
(lp2
S'state'
p3
aI0
aa(lp4
S'distance'
p5
aF46.72926425933838
aa(lp6
S'timestamp'
p7
aF7.386261940002441
aatp8
Rp9
.ccollections
OrderedDict
p0
((lp1
(lp2
S'state'
p3
aI0
aa(lp4
S'distance'
p5
aF46.72926425933838
aa(lp6
S'timestamp'
p7
aF7.387787818908691
aatp8
Rp9
.ccollections
OrderedDict
p0
((lp1
(lp2
S'state'
p3
aI0
aa(lp4
S'distance'
p5
aF46.72926425933838
aa(lp6
S'timestamp'
p7
aF7.388875961303711
aatp8
Rp9
.ccollections
OrderedDict
p0
((lp1
(lp2
S'state'
p3
aI0
aa(lp4
S'distance'
p5
aF46.72926425933838
aa(lp6
S'timestamp'
p7
aF7.395546913146973
aatp8
Rp9
.ccollections
OrderedDict
p0
((lp1
(lp2
S'state'
p3
aI0
aa(lp4
S'distance'
p5
aF46.72926425933838
aa(lp6
S'timestamp'
p7
aF7.4057958126068115
aatp8
Rp9
.ccollections
OrderedDict
p0
((lp1
(lp2
S'state'
p3
aI0
aa(lp4
S'distance'
p5
aF46.72926425933838
aa(lp6
S'timestamp'
p7
aF7.406028985977173
aatp8
Rp9
.ccollections
OrderedDict
p0
((lp1
(lp2
S'state'
p3
aI0
aa(lp4
S'distance'
p5
aF46.72926425933838
aa(lp6
S'timestamp'
p7
aF7.407095909118652
aatp8
Rp9
.ccollections
OrderedDict
p0
((lp1
(lp2
S'state'
p3
aI0
aa(lp4
S'distance'
p5
aF46.72926425933838
aa(lp6
S'timestamp'
p7
aF7.415550947189331
aatp8
Rp9
.ccollections
OrderedDict
p0
((lp1
(lp2
S'state'
p3
aI0
aa(lp4
S'distance'
p5
aF46.72926425933838
aa(lp6
S'timestamp'
p7
aF7.416137933731079
aatp8
Rp9
.ccollections
OrderedDict
p0
((lp1
(lp2
S'state'
p3
aI0
aa(lp4
S'distance'
p5
aF46.72926425933838
aa(lp6
S'timestamp'
p7
aF7.425617933273315
aatp8
Rp9
.ccollections
OrderedDict
p0
((lp1
(lp2
S'state'
p3
aI0
aa(lp4
S'distance'
p5
aF46.72926425933838
aa(lp6
S'timestamp'
p7
aF7.426095008850098
aatp8
Rp9
.ccollections
OrderedDict
p0
((lp1
(lp2
S'state'
p3
aI0
aa(lp4
S'distance'
p5
aF46.72926425933838
aa(lp6
S'timestamp'
p7
aF7.435778856277466
aatp8
Rp9
.ccollections
OrderedDict
p0
((lp1
(lp2
S'state'
p3
aI0
aa(lp4
S'distance'
p5
aF46.72926425933838
aa(lp6
S'timestamp'
p7
aF7.43621301651001
aatp8
Rp9
.ccollections
OrderedDict
p0
((lp1
(lp2
S'state'
p3
aI0
aa(lp4
S'distance'
p5
aF46.72926425933838
aa(lp6
S'timestamp'
p7
aF7.445745944976807
aatp8
Rp9
.ccollections
OrderedDict
p0
((lp1
(lp2
S'state'
p3
aI0
aa(lp4
S'distance'
p5
aF46.72926425933838
aa(lp6
S'timestamp'
p7
aF7.446065902709961
aatp8
Rp9
.ccollections
OrderedDict
p0
((lp1
(lp2
S'state'
p3
aI0
aa(lp4
S'distance'
p5
aF46.72926425933838
aa(lp6
S'timestamp'
p7
aF7.455617904663086
aatp8
Rp9
.ccollections
OrderedDict
p0
((lp1
(lp2
S'state'
p3
aI0
aa(lp4
S'distance'
p5
aF46.72926425933838
aa(lp6
S'timestamp'
p7
aF7.456277847290039
aatp8
Rp9
.ccollections
OrderedDict
p0
((lp1
(lp2
S'state'
p3
aI0
aa(lp4
S'distance'
p5
aF46.72926425933838
aa(lp6
S'timestamp'
p7
aF7.465883016586304
aatp8
Rp9
.ccollections
OrderedDict
p0
((lp1
(lp2
S'state'
p3
aI0
aa(lp4
S'distance'
p5
aF46.72926425933838
aa(lp6
S'timestamp'
p7
aF7.466048955917358
aatp8
Rp9
.ccollections
OrderedDict
p0
((lp1
(lp2
S'state'
p3
aI0
aa(lp4
S'distance'
p5
aF46.72926425933838
aa(lp6
S'timestamp'
p7
aF7.475968837738037
aatp8
Rp9
.ccollections
OrderedDict
p0
((lp1
(lp2
S'state'
p3
aI0
aa(lp4
S'distance'
p5
aF46.72926425933838
aa(lp6
S'timestamp'
p7
aF7.476054906845093
aatp8
Rp9
.ccollections
OrderedDict
p0
((lp1
(lp2
S'state'
p3
aI0
aa(lp4
S'distance'
p5
aF46.72926425933838
aa(lp6
S'timestamp'
p7
aF7.485749959945679
aatp8
Rp9
.ccollections
OrderedDict
p0
((lp1
(lp2
S'state'
p3
aI0
aa(lp4
S'distance'
p5
aF46.72926425933838
aa(lp6
S'timestamp'
p7
aF7.486148834228516
aatp8
Rp9
.ccollections
OrderedDict
p0
((lp1
(lp2
S'state'
p3
aI0
aa(lp4
S'distance'
p5
aF46.72926425933838
aa(lp6
S'timestamp'
p7
aF7.495630979537964
aatp8
Rp9
.ccollections
OrderedDict
p0
((lp1
(lp2
S'state'
p3
aI0
aa(lp4
S'distance'
p5
aF46.72926425933838
aa(lp6
S'timestamp'
p7
aF7.4962990283966064
aatp8
Rp9
.ccollections
OrderedDict
p0
((lp1
(lp2
S'state'
p3
aI0
aa(lp4
S'distance'
p5
aF46.72926425933838
aa(lp6
S'timestamp'
p7
aF7.505551815032959
aatp8
Rp9
.ccollections
OrderedDict
p0
((lp1
(lp2
S'state'
p3
aI0
aa(lp4
S'distance'
p5
aF46.72926425933838
aa(lp6
S'timestamp'
p7
aF7.506215810775757
aatp8
Rp9
.ccollections
OrderedDict
p0
((lp1
(lp2
S'state'
p3
aI0
aa(lp4
S'distance'
p5
aF46.72926425933838
aa(lp6
S'timestamp'
p7
aF7.515620946884155
aatp8
Rp9
.ccollections
OrderedDict
p0
((lp1
(lp2
S'state'
p3
aI0
aa(lp4
S'distance'
p5
aF46.72926425933838
aa(lp6
S'timestamp'
p7
aF7.516189813613892
aatp8
Rp9
.ccollections
OrderedDict
p0
((lp1
(lp2
S'state'
p3
aI0
aa(lp4
S'distance'
p5
aF46.72926425933838
aa(lp6
S'timestamp'
p7
aF7.525768041610718
aatp8
Rp9
.ccollections
OrderedDict
p0
((lp1
(lp2
S'state'
p3
aI0
aa(lp4
S'distance'
p5
aF46.72926425933838
aa(lp6
S'timestamp'
p7
aF7.526113033294678
aatp8
Rp9
.ccollections
OrderedDict
p0
((lp1
(lp2
S'state'
p3
aI0
aa(lp4
S'distance'
p5
aF46.72926425933838
aa(lp6
S'timestamp'
p7
aF7.535876989364624
aatp8
Rp9
.ccollections
OrderedDict
p0
((lp1
(lp2
S'state'
p3
aI0
aa(lp4
S'distance'
p5
aF46.72926425933838
aa(lp6
S'timestamp'
p7
aF7.536060810089111
aatp8
Rp9
.ccollections
OrderedDict
p0
((lp1
(lp2
S'state'
p3
aI0
aa(lp4
S'distance'
p5
aF46.72926425933838
aa(lp6
S'timestamp'
p7
aF7.545670032501221
aatp8
Rp9
.ccollections
OrderedDict
p0
((lp1
(lp2
S'state'
p3
aI0
aa(lp4
S'distance'
p5
aF46.72926425933838
aa(lp6
S'timestamp'
p7
aF7.546141862869263
aatp8
Rp9
.ccollections
OrderedDict
p0
((lp1
(lp2
S'state'
p3
aI0
aa(lp4
S'distance'
p5
aF46.72926425933838
aa(lp6
S'timestamp'
p7
aF7.555693864822388
aatp8
Rp9
.ccollections
OrderedDict
p0
((lp1
(lp2
S'state'
p3
aI0
aa(lp4
S'distance'
p5
aF46.72926425933838
aa(lp6
S'timestamp'
p7
aF7.556113004684448
aatp8
Rp9
.ccollections
OrderedDict
p0
((lp1
(lp2
S'state'
p3
aI0
aa(lp4
S'distance'
p5
aF46.72926425933838
aa(lp6
S'timestamp'
p7
aF7.565891981124878
aatp8
Rp9
.ccollections
OrderedDict
p0
((lp1
(lp2
S'state'
p3
aI0
aa(lp4
S'distance'
p5
aF46.72926425933838
aa(lp6
S'timestamp'
p7
aF7.566110849380493
aatp8
Rp9
.ccollections
OrderedDict
p0
((lp1
(lp2
S'state'
p3
aI0
aa(lp4
S'distance'
p5
aF46.72926425933838
aa(lp6
S'timestamp'
p7
aF7.575734853744507
aatp8
Rp9
.ccollections
OrderedDict
p0
((lp1
(lp2
S'state'
p3
aI0
aa(lp4
S'distance'
p5
aF46.72926425933838
aa(lp6
S'timestamp'
p7
aF7.57607102394104
aatp8
Rp9
.ccollections
OrderedDict
p0
((lp1
(lp2
S'state'
p3
aI0
aa(lp4
S'distance'
p5
aF46.72926425933838
aa(lp6
S'timestamp'
p7
aF7.5857789516448975
aatp8
Rp9
.ccollections
OrderedDict
p0
((lp1
(lp2
S'state'
p3
aI0
aa(lp4
S'distance'
p5
aF46.72926425933838
aa(lp6
S'timestamp'
p7
aF7.58630895614624
aatp8
Rp9
.ccollections
OrderedDict
p0
((lp1
(lp2
S'state'
p3
aI0
aa(lp4
S'distance'
p5
aF46.72926425933838
aa(lp6
S'timestamp'
p7
aF7.595723867416382
aatp8
Rp9
.ccollections
OrderedDict
p0
((lp1
(lp2
S'state'
p3
aI0
aa(lp4
S'distance'
p5
aF46.72926425933838
aa(lp6
S'timestamp'
p7
aF7.596177816390991
aatp8
Rp9
.ccollections
OrderedDict
p0
((lp1
(lp2
S'state'
p3
aI0
aa(lp4
S'distance'
p5
aF46.72926425933838
aa(lp6
S'timestamp'
p7
aF7.605695962905884
aatp8
Rp9
.ccollections
OrderedDict
p0
((lp1
(lp2
S'state'
p3
aI0
aa(lp4
S'distance'
p5
aF46.72926425933838
aa(lp6
S'timestamp'
p7
aF7.606096029281616
aatp8
Rp9
.ccollections
OrderedDict
p0
((lp1
(lp2
S'state'
p3
aI0
aa(lp4
S'distance'
p5
aF46.72926425933838
aa(lp6
S'timestamp'
p7
aF7.615978956222534
aatp8
Rp9
.ccollections
OrderedDict
p0
((lp1
(lp2
S'state'
p3
aI0
aa(lp4
S'distance'
p5
aF46.72926425933838
aa(lp6
S'timestamp'
p7
aF7.616067886352539
aatp8
Rp9
.ccollections
OrderedDict
p0
((lp1
(lp2
S'state'
p3
aI0
aa(lp4
S'distance'
p5
aF46.72926425933838
aa(lp6
S'timestamp'
p7
aF7.625514984130859
aatp8
Rp9
.ccollections
OrderedDict
p0
((lp1
(lp2
S'state'
p3
aI0
aa(lp4
S'distance'
p5
aF46.72926425933838
aa(lp6
S'timestamp'
p7
aF7.626165866851807
aatp8
Rp9
.ccollections
OrderedDict
p0
((lp1
(lp2
S'state'
p3
aI0
aa(lp4
S'distance'
p5
aF46.72926425933838
aa(lp6
S'timestamp'
p7
aF7.635587930679321
aatp8
Rp9
.ccollections
OrderedDict
p0
((lp1
(lp2
S'state'
p3
aI0
aa(lp4
S'distance'
p5
aF46.72926425933838
aa(lp6
S'timestamp'
p7
aF7.636229991912842
aatp8
Rp9
.ccollections
OrderedDict
p0
((lp1
(lp2
S'state'
p3
aI0
aa(lp4
S'distance'
p5
aF46.72926425933838
aa(lp6
S'timestamp'
p7
aF7.645730018615723
aatp8
Rp9
.ccollections
OrderedDict
p0
((lp1
(lp2
S'state'
p3
aI0
aa(lp4
S'distance'
p5
aF46.72926425933838
aa(lp6
S'timestamp'
p7
aF7.646337032318115
aatp8
Rp9
.ccollections
OrderedDict
p0
((lp1
(lp2
S'state'
p3
aI0
aa(lp4
S'distance'
p5
aF46.72926425933838
aa(lp6
S'timestamp'
p7
aF7.655772924423218
aatp8
Rp9
.ccollections
OrderedDict
p0
((lp1
(lp2
S'state'
p3
aI0
aa(lp4
S'distance'
p5
aF46.72926425933838
aa(lp6
S'timestamp'
p7
aF7.656071901321411
aatp8
Rp9
.ccollections
OrderedDict
p0
((lp1
(lp2
S'state'
p3
aI0
aa(lp4
S'distance'
p5
aF46.72926425933838
aa(lp6
S'timestamp'
p7
aF7.665452003479004
aatp8
Rp9
.ccollections
OrderedDict
p0
((lp1
(lp2
S'state'
p3
aI0
aa(lp4
S'distance'
p5
aF46.72926425933838
aa(lp6
S'timestamp'
p7
aF7.666189908981323
aatp8
Rp9
.ccollections
OrderedDict
p0
((lp1
(lp2
S'state'
p3
aI0
aa(lp4
S'distance'
p5
aF46.72926425933838
aa(lp6
S'timestamp'
p7
aF7.676074981689453
aatp8
Rp9
.ccollections
OrderedDict
p0
((lp1
(lp2
S'state'
p3
aI0
aa(lp4
S'distance'
p5
aF46.72926425933838
aa(lp6
S'timestamp'
p7
aF7.67616081237793
aatp8
Rp9
.ccollections
OrderedDict
p0
((lp1
(lp2
S'state'
p3
aI0
aa(lp4
S'distance'
p5
aF46.72926425933838
aa(lp6
S'timestamp'
p7
aF7.685686826705933
aatp8
Rp9
.ccollections
OrderedDict
p0
((lp1
(lp2
S'state'
p3
aI0
aa(lp4
S'distance'
p5
aF46.72926425933838
aa(lp6
S'timestamp'
p7
aF7.686092853546143
aatp8
Rp9
.ccollections
OrderedDict
p0
((lp1
(lp2
S'state'
p3
aI0
aa(lp4
S'distance'
p5
aF46.72926425933838
aa(lp6
S'timestamp'
p7
aF7.695809841156006
aatp8
Rp9
.ccollections
OrderedDict
p0
((lp1
(lp2
S'state'
p3
aI0
aa(lp4
S'distance'
p5
aF46.72926425933838
aa(lp6
S'timestamp'
p7
aF7.705646991729736
aatp8
Rp9
.ccollections
OrderedDict
p0
((lp1
(lp2
S'state'
p3
aI0
aa(lp4
S'distance'
p5
aF46.72926425933838
aa(lp6
S'timestamp'
p7
aF7.70592999458313
aatp8
Rp9
.ccollections
OrderedDict
p0
((lp1
(lp2
S'state'
p3
aI0
aa(lp4
S'distance'
p5
aF46.72926425933838
aa(lp6
S'timestamp'
p7
aF7.706884860992432
aatp8
Rp9
.ccollections
OrderedDict
p0
((lp1
(lp2
S'state'
p3
aI0
aa(lp4
S'distance'
p5
aF46.72926425933838
aa(lp6
S'timestamp'
p7
aF7.715595006942749
aatp8
Rp9
.ccollections
OrderedDict
p0
((lp1
(lp2
S'state'
p3
aI0
aa(lp4
S'distance'
p5
aF46.72926425933838
aa(lp6
S'timestamp'
p7
aF7.716257810592651
aatp8
Rp9
.ccollections
OrderedDict
p0
((lp1
(lp2
S'state'
p3
aI0
aa(lp4
S'distance'
p5
aF46.72926425933838
aa(lp6
S'timestamp'
p7
aF7.7256858348846436
aatp8
Rp9
.ccollections
OrderedDict
p0
((lp1
(lp2
S'state'
p3
aI0
aa(lp4
S'distance'
p5
aF46.72926425933838
aa(lp6
S'timestamp'
p7
aF7.726123809814453
aatp8
Rp9
.ccollections
OrderedDict
p0
((lp1
(lp2
S'state'
p3
aI0
aa(lp4
S'distance'
p5
aF46.72926425933838
aa(lp6
S'timestamp'
p7
aF7.735862970352173
aatp8
Rp9
.ccollections
OrderedDict
p0
((lp1
(lp2
S'state'
p3
aI0
aa(lp4
S'distance'
p5
aF46.72926425933838
aa(lp6
S'timestamp'
p7
aF7.736066818237305
aatp8
Rp9
.ccollections
OrderedDict
p0
((lp1
(lp2
S'state'
p3
aI0
aa(lp4
S'distance'
p5
aF46.72926425933838
aa(lp6
S'timestamp'
p7
aF7.745832920074463
aatp8
Rp9
.ccollections
OrderedDict
p0
((lp1
(lp2
S'state'
p3
aI0
aa(lp4
S'distance'
p5
aF46.72926425933838
aa(lp6
S'timestamp'
p7
aF7.746389865875244
aatp8
Rp9
.ccollections
OrderedDict
p0
((lp1
(lp2
S'state'
p3
aI0
aa(lp4
S'distance'
p5
aF46.72926425933838
aa(lp6
S'timestamp'
p7
aF7.75563383102417
aatp8
Rp9
.ccollections
OrderedDict
p0
((lp1
(lp2
S'state'
p3
aI0
aa(lp4
S'distance'
p5
aF46.72926425933838
aa(lp6
S'timestamp'
p7
aF7.7561798095703125
aatp8
Rp9
.ccollections
OrderedDict
p0
((lp1
(lp2
S'state'
p3
aI0
aa(lp4
S'distance'
p5
aF46.72926425933838
aa(lp6
S'timestamp'
p7
aF7.765679836273193
aatp8
Rp9
.ccollections
OrderedDict
p0
((lp1
(lp2
S'state'
p3
aI0
aa(lp4
S'distance'
p5
aF46.72926425933838
aa(lp6
S'timestamp'
p7
aF7.76612401008606
aatp8
Rp9
.ccollections
OrderedDict
p0
((lp1
(lp2
S'state'
p3
aI0
aa(lp4
S'distance'
p5
aF46.72926425933838
aa(lp6
S'timestamp'
p7
aF7.775760889053345
aatp8
Rp9
.ccollections
OrderedDict
p0
((lp1
(lp2
S'state'
p3
aI0
aa(lp4
S'distance'
p5
aF46.72926425933838
aa(lp6
S'timestamp'
p7
aF7.77606201171875
aatp8
Rp9
.ccollections
OrderedDict
p0
((lp1
(lp2
S'state'
p3
aI0
aa(lp4
S'distance'
p5
aF46.72926425933838
aa(lp6
S'timestamp'
p7
aF7.785838842391968
aatp8
Rp9
.ccollections
OrderedDict
p0
((lp1
(lp2
S'state'
p3
aI0
aa(lp4
S'distance'
p5
aF46.72926425933838
aa(lp6
S'timestamp'
p7
aF7.786075830459595
aatp8
Rp9
.ccollections
OrderedDict
p0
((lp1
(lp2
S'state'
p3
aI0
aa(lp4
S'distance'
p5
aF46.72926425933838
aa(lp6
S'timestamp'
p7
aF7.79581093788147
aatp8
Rp9
.ccollections
OrderedDict
p0
((lp1
(lp2
S'state'
p3
aI0
aa(lp4
S'distance'
p5
aF46.72926425933838
aa(lp6
S'timestamp'
p7
aF7.796214818954468
aatp8
Rp9
.ccollections
OrderedDict
p0
((lp1
(lp2
S'state'
p3
aI0
aa(lp4
S'distance'
p5
aF46.72926425933838
aa(lp6
S'timestamp'
p7
aF7.8055689334869385
aatp8
Rp9
.ccollections
OrderedDict
p0
((lp1
(lp2
S'state'
p3
aI0
aa(lp4
S'distance'
p5
aF46.72926425933838
aa(lp6
S'timestamp'
p7
aF7.806100845336914
aatp8
Rp9
.ccollections
OrderedDict
p0
((lp1
(lp2
S'state'
p3
aI0
aa(lp4
S'distance'
p5
aF46.72926425933838
aa(lp6
S'timestamp'
p7
aF7.815670967102051
aatp8
Rp9
.ccollections
OrderedDict
p0
((lp1
(lp2
S'state'
p3
aI0
aa(lp4
S'distance'
p5
aF46.72926425933838
aa(lp6
S'timestamp'
p7
aF7.816191911697388
aatp8
Rp9
.ccollections
OrderedDict
p0
((lp1
(lp2
S'state'
p3
aI0
aa(lp4
S'distance'
p5
aF46.72926425933838
aa(lp6
S'timestamp'
p7
aF7.826897859573364
aatp8
Rp9
.ccollections
OrderedDict
p0
((lp1
(lp2
S'state'
p3
aI0
aa(lp4
S'distance'
p5
aF46.72926425933838
aa(lp6
S'timestamp'
p7
aF7.8273749351501465
aatp8
Rp9
.ccollections
OrderedDict
p0
((lp1
(lp2
S'state'
p3
aI0
aa(lp4
S'distance'
p5
aF46.72926425933838
aa(lp6
S'timestamp'
p7
aF7.835806846618652
aatp8
Rp9
.ccollections
OrderedDict
p0
((lp1
(lp2
S'state'
p3
aI0
aa(lp4
S'distance'
p5
aF46.72926425933838
aa(lp6
S'timestamp'
p7
aF7.836253881454468
aatp8
Rp9
.ccollections
OrderedDict
p0
((lp1
(lp2
S'state'
p3
aI0
aa(lp4
S'distance'
p5
aF46.72926425933838
aa(lp6
S'timestamp'
p7
aF7.846256971359253
aatp8
Rp9
.ccollections
OrderedDict
p0
((lp1
(lp2
S'state'
p3
aI0
aa(lp4
S'distance'
p5
aF46.72926425933838
aa(lp6
S'timestamp'
p7
aF7.846506834030151
aatp8
Rp9
.ccollections
OrderedDict
p0
((lp1
(lp2
S'state'
p3
aI0
aa(lp4
S'distance'
p5
aF46.72926425933838
aa(lp6
S'timestamp'
p7
aF7.855875015258789
aatp8
Rp9
.ccollections
OrderedDict
p0
((lp1
(lp2
S'state'
p3
aI0
aa(lp4
S'distance'
p5
aF46.72926425933838
aa(lp6
S'timestamp'
p7
aF7.856026887893677
aatp8
Rp9
.ccollections
OrderedDict
p0
((lp1
(lp2
S'state'
p3
aI0
aa(lp4
S'distance'
p5
aF46.72926425933838
aa(lp6
S'timestamp'
p7
aF7.865429878234863
aatp8
Rp9
.ccollections
OrderedDict
p0
((lp1
(lp2
S'state'
p3
aI0
aa(lp4
S'distance'
p5
aF46.72926425933838
aa(lp6
S'timestamp'
p7
aF7.8661949634552
aatp8
Rp9
.ccollections
OrderedDict
p0
((lp1
(lp2
S'state'
p3
aI0
aa(lp4
S'distance'
p5
aF46.72926425933838
aa(lp6
S'timestamp'
p7
aF7.87550687789917
aatp8
Rp9
.ccollections
OrderedDict
p0
((lp1
(lp2
S'state'
p3
aI0
aa(lp4
S'distance'
p5
aF46.72926425933838
aa(lp6
S'timestamp'
p7
aF7.876194953918457
aatp8
Rp9
.ccollections
OrderedDict
p0
((lp1
(lp2
S'state'
p3
aI0
aa(lp4
S'distance'
p5
aF46.72926425933838
aa(lp6
S'timestamp'
p7
aF7.885890007019043
aatp8
Rp9
.ccollections
OrderedDict
p0
((lp1
(lp2
S'state'
p3
aI0
aa(lp4
S'distance'
p5
aF46.72926425933838
aa(lp6
S'timestamp'
p7
aF7.886039972305298
aatp8
Rp9
.ccollections
OrderedDict
p0
((lp1
(lp2
S'state'
p3
aI0
aa(lp4
S'distance'
p5
aF46.72926425933838
aa(lp6
S'timestamp'
p7
aF7.895526885986328
aatp8
Rp9
.ccollections
OrderedDict
p0
((lp1
(lp2
S'state'
p3
aI0
aa(lp4
S'distance'
p5
aF46.72926425933838
aa(lp6
S'timestamp'
p7
aF7.896281957626343
aatp8
Rp9
.ccollections
OrderedDict
p0
((lp1
(lp2
S'state'
p3
aI0
aa(lp4
S'distance'
p5
aF46.72926425933838
aa(lp6
S'timestamp'
p7
aF7.905633926391602
aatp8
Rp9
.ccollections
OrderedDict
p0
((lp1
(lp2
S'state'
p3
aI0
aa(lp4
S'distance'
p5
aF46.72926425933838
aa(lp6
S'timestamp'
p7
aF7.906024932861328
aatp8
Rp9
.ccollections
OrderedDict
p0
((lp1
(lp2
S'state'
p3
aI0
aa(lp4
S'distance'
p5
aF46.72926425933838
aa(lp6
S'timestamp'
p7
aF7.925489902496338
aatp8
Rp9
.ccollections
OrderedDict
p0
((lp1
(lp2
S'state'
p3
aI0
aa(lp4
S'distance'
p5
aF46.72926425933838
aa(lp6
S'timestamp'
p7
aF7.925945997238159
aatp8
Rp9
.ccollections
OrderedDict
p0
((lp1
(lp2
S'state'
p3
aI0
aa(lp4
S'distance'
p5
aF46.72926425933838
aa(lp6
S'timestamp'
p7
aF7.926713943481445
aatp8
Rp9
.ccollections
OrderedDict
p0
((lp1
(lp2
S'state'
p3
aI0
aa(lp4
S'distance'
p5
aF46.72926425933838
aa(lp6
S'timestamp'
p7
aF7.927026987075806
aatp8
Rp9
.ccollections
OrderedDict
p0
((lp1
(lp2
S'state'
p3
aI0
aa(lp4
S'distance'
p5
aF46.72926425933838
aa(lp6
S'timestamp'
p7
aF7.9357500076293945
aatp8
Rp9
.ccollections
OrderedDict
p0
((lp1
(lp2
S'state'
p3
aI0
aa(lp4
S'distance'
p5
aF46.72926425933838
aa(lp6
S'timestamp'
p7
aF7.936110019683838
aatp8
Rp9
.ccollections
OrderedDict
p0
((lp1
(lp2
S'state'
p3
aI0
aa(lp4
S'distance'
p5
aF46.72926425933838
aa(lp6
S'timestamp'
p7
aF7.945860862731934
aatp8
Rp9
.ccollections
OrderedDict
p0
((lp1
(lp2
S'state'
p3
aI0
aa(lp4
S'distance'
p5
aF46.72926425933838
aa(lp6
S'timestamp'
p7
aF7.946054935455322
aatp8
Rp9
.ccollections
OrderedDict
p0
((lp1
(lp2
S'state'
p3
aI0
aa(lp4
S'distance'
p5
aF46.72926425933838
aa(lp6
S'timestamp'
p7
aF7.955950975418091
aatp8
Rp9
.ccollections
OrderedDict
p0
((lp1
(lp2
S'state'
p3
aI0
aa(lp4
S'distance'
p5
aF46.72926425933838
aa(lp6
S'timestamp'
p7
aF7.956035852432251
aatp8
Rp9
.ccollections
OrderedDict
p0
((lp1
(lp2
S'state'
p3
aI0
aa(lp4
S'distance'
p5
aF46.72926425933838
aa(lp6
S'timestamp'
p7
aF7.966630935668945
aatp8
Rp9
.ccollections
OrderedDict
p0
((lp1
(lp2
S'state'
p3
aI0
aa(lp4
S'distance'
p5
aF46.72926425933838
aa(lp6
S'timestamp'
p7
aF7.966706991195679
aatp8
Rp9
.ccollections
OrderedDict
p0
((lp1
(lp2
S'state'
p3
aI0
aa(lp4
S'distance'
p5
aF46.72926425933838
aa(lp6
S'timestamp'
p7
aF7.97563099861145
aatp8
Rp9
.ccollections
OrderedDict
p0
((lp1
(lp2
S'state'
p3
aI0
aa(lp4
S'distance'
p5
aF46.72926425933838
aa(lp6
S'timestamp'
p7
aF7.976045846939087
aatp8
Rp9
.ccollections
OrderedDict
p0
((lp1
(lp2
S'state'
p3
aI0
aa(lp4
S'distance'
p5
aF46.72926425933838
aa(lp6
S'timestamp'
p7
aF7.9855358600616455
aatp8
Rp9
.ccollections
OrderedDict
p0
((lp1
(lp2
S'state'
p3
aI0
aa(lp4
S'distance'
p5
aF46.72926425933838
aa(lp6
S'timestamp'
p7
aF7.986099004745483
aatp8
Rp9
.ccollections
OrderedDict
p0
((lp1
(lp2
S'state'
p3
aI0
aa(lp4
S'distance'
p5
aF46.72926425933838
aa(lp6
S'timestamp'
p7
aF7.995564937591553
aatp8
Rp9
.ccollections
OrderedDict
p0
((lp1
(lp2
S'state'
p3
aI0
aa(lp4
S'distance'
p5
aF46.72926425933838
aa(lp6
S'timestamp'
p7
aF7.996078968048096
aatp8
Rp9
.ccollections
OrderedDict
p0
((lp1
(lp2
S'state'
p3
aI0
aa(lp4
S'distance'
p5
aF46.72926425933838
aa(lp6
S'timestamp'
p7
aF8.005576848983765
aatp8
Rp9
.ccollections
OrderedDict
p0
((lp1
(lp2
S'state'
p3
aI0
aa(lp4
S'distance'
p5
aF46.72926425933838
aa(lp6
S'timestamp'
p7
aF8.006147861480713
aatp8
Rp9
.