ccollections
OrderedDict
p0
((lp1
(lp2
S'state'
p3
aI0
aa(lp4
S'distance'
p5
aF375.696044921875
aa(lp6
S'timestamp'
p7
aF0.0027549266815185547
aatp8
Rp9
.ccollections
OrderedDict
p0
((lp1
(lp2
S'state'
p3
aI0
aa(lp4
S'distance'
p5
aF375.696044921875
aa(lp6
S'timestamp'
p7
aF0.004397869110107422
aatp8
Rp9
.ccollections
OrderedDict
p0
((lp1
(lp2
S'state'
p3
aI0
aa(lp4
S'distance'
p5
aF375.696044921875
aa(lp6
S'timestamp'
p7
aF0.013206005096435547
aatp8
Rp9
.ccollections
OrderedDict
p0
((lp1
(lp2
S'state'
p3
aI0
aa(lp4
S'distance'
p5
aF375.696044921875
aa(lp6
S'timestamp'
p7
aF0.014827966690063477
aatp8
Rp9
.ccollections
OrderedDict
p0
((lp1
(lp2
S'state'
p3
aI0
aa(lp4
S'distance'
p5
aF375.696044921875
aa(lp6
S'timestamp'
p7
aF0.02270793914794922
aatp8
Rp9
.ccollections
OrderedDict
p0
((lp1
(lp2
S'state'
p3
aI0
aa(lp4
S'distance'
p5
aF375.696044921875
aa(lp6
S'timestamp'
p7
aF0.02410292625427246
aatp8
Rp9
.ccollections
OrderedDict
p0
((lp1
(lp2
S'state'
p3
aI0
aa(lp4
S'distance'
p5
aF375.696044921875
aa(lp6
S'timestamp'
p7
aF0.03422403335571289
aatp8
Rp9
.ccollections
OrderedDict
p0
((lp1
(lp2
S'state'
p3
aI0
aa(lp4
S'distance'
p5
aF375.696044921875
aa(lp6
S'timestamp'
p7
aF0.037652015686035156
aatp8
Rp9
.ccollections
OrderedDict
p0
((lp1
(lp2
S'state'
p3
aI0
aa(lp4
S'distance'
p5
aF375.696044921875
aa(lp6
S'timestamp'
p7
aF0.044523000717163086
aatp8
Rp9
.ccollections
OrderedDict
p0
((lp1
(lp2
S'state'
p3
aI0
aa(lp4
S'distance'
p5
aF375.696044921875
aa(lp6
S'timestamp'
p7
aF0.04475593566894531
aatp8
Rp9
.ccollections
OrderedDict
p0
((lp1
(lp2
S'state'
p3
aI0
aa(lp4
S'distance'
p5
aF375.696044921875
aa(lp6
S'timestamp'
p7
aF0.05462503433227539
aatp8
Rp9
.ccollections
OrderedDict
p0
((lp1
(lp2
S'state'
p3
aI0
aa(lp4
S'distance'
p5
aF375.696044921875
aa(lp6
S'timestamp'
p7
aF0.05472397804260254
aatp8
Rp9
.ccollections
OrderedDict
p0
((lp1
(lp2
S'state'
p3
aI0
aa(lp4
S'distance'
p5
aF375.696044921875
aa(lp6
S'timestamp'
p7
aF0.0627739429473877
aatp8
Rp9
.ccollections
OrderedDict
p0
((lp1
(lp2
S'state'
p3
aI0
aa(lp4
S'distance'
p5
aF375.696044921875
aa(lp6
S'timestamp'
p7
aF0.06352901458740234
aatp8
Rp9
.ccollections
OrderedDict
p0
((lp1
(lp2
S'state'
p3
aI0
aa(lp4
S'distance'
p5
aF375.696044921875
aa(lp6
S'timestamp'
p7
aF0.07300782203674316
aatp8
Rp9
.ccollections
OrderedDict
p0
((lp1
(lp2
S'state'
p3
aI0
aa(lp4
S'distance'
p5
aF375.696044921875
aa(lp6
S'timestamp'
p7
aF0.07369399070739746
aatp8
Rp9
.ccollections
OrderedDict
p0
((lp1
(lp2
S'state'
p3
aI0
aa(lp4
S'distance'
p5
aF375.696044921875
aa(lp6
S'timestamp'
p7
aF0.08262395858764648
aatp8
Rp9
.ccollections
OrderedDict
p0
((lp1
(lp2
S'state'
p3
aI0
aa(lp4
S'distance'
p5
aF375.696044921875
aa(lp6
S'timestamp'
p7
aF0.08352899551391602
aatp8
Rp9
.ccollections
OrderedDict
p0
((lp1
(lp2
S'state'
p3
aI0
aa(lp4
S'distance'
p5
aF375.696044921875
aa(lp6
S'timestamp'
p7
aF0.09277987480163574
aatp8
Rp9
.ccollections
OrderedDict
p0
((lp1
(lp2
S'state'
p3
aI0
aa(lp4
S'distance'
p5
aF375.696044921875
aa(lp6
S'timestamp'
p7
aF0.09350204467773438
aatp8
Rp9
.ccollections
OrderedDict
p0
((lp1
(lp2
S'state'
p3
aI0
aa(lp4
S'distance'
p5
aF375.696044921875
aa(lp6
S'timestamp'
p7
aF0.10273885726928711
aatp8
Rp9
.ccollections
OrderedDict
p0
((lp1
(lp2
S'state'
p3
aI0
aa(lp4
S'distance'
p5
aF375.696044921875
aa(lp6
S'timestamp'
p7
aF0.1036989688873291
aatp8
Rp9
.ccollections
OrderedDict
p0
((lp1
(lp2
S'state'
p3
aI0
aa(lp4
S'distance'
p5
aF375.696044921875
aa(lp6
S'timestamp'
p7
aF0.11292004585266113
aatp8
Rp9
.ccollections
OrderedDict
p0
((lp1
(lp2
S'state'
p3
aI0
aa(lp4
S'distance'
p5
aF375.696044921875
aa(lp6
S'timestamp'
p7
aF0.11352300643920898
aatp8
Rp9
.ccollections
OrderedDict
p0
((lp1
(lp2
S'state'
p3
aI0
aa(lp4
S'distance'
p5
aF375.696044921875
aa(lp6
S'timestamp'
p7
aF0.12269997596740723
aatp8
Rp9
.ccollections
OrderedDict
p0
((lp1
(lp2
S'state'
p3
aI0
aa(lp4
S'distance'
p5
aF375.696044921875
aa(lp6
S'timestamp'
p7
aF0.12357902526855469
aatp8
Rp9
.ccollections
OrderedDict
p0
((lp1
(lp2
S'state'
p3
aI0
aa(lp4
S'distance'
p5
aF375.696044921875
aa(lp6
S'timestamp'
p7
aF0.13506197929382324
aatp8
Rp9
.ccollections
OrderedDict
p0
((lp1
(lp2
S'state'
p3
aI0
aa(lp4
S'distance'
p5
aF375.696044921875
aa(lp6
S'timestamp'
p7
aF0.1355588436126709
aatp8
Rp9
.ccollections
OrderedDict
p0
((lp1
(lp2
S'state'
p3
aI0
aa(lp4
S'distance'
p5
aF375.696044921875
aa(lp6
S'timestamp'
p7
aF0.1626899242401123
aatp8
Rp9
.ccollections
OrderedDict
p0
((lp1
(lp2
S'state'
p3
aI0
aa(lp4
S'distance'
p5
aF375.696044921875
aa(lp6
S'timestamp'
p7
aF0.1730198860168457
aatp8
Rp9
.ccollections
OrderedDict
p0
((lp1
(lp2
S'state'
p3
aI0
aa(lp4
S'distance'
p5
aF375.696044921875
aa(lp6
S'timestamp'
p7
aF0.1736009120941162
aatp8
Rp9
.ccollections
OrderedDict
p0
((lp1
(lp2
S'state'
p3
aI0
aa(lp4
S'distance'
p5
aF375.696044921875
aa(lp6
S'timestamp'
p7
aF0.17542004585266113
aatp8
Rp9
.ccollections
OrderedDict
p0
((lp1
(lp2
S'state'
p3
aI0
aa(lp4
S'distance'
p5
aF375.696044921875
aa(lp6
S'timestamp'
p7
aF0.17612004280090332
aatp8
Rp9
.ccollections
OrderedDict
p0
((lp1
(lp2
S'state'
p3
aI0
aa(lp4
S'distance'
p5
aF375.696044921875
aa(lp6
S'timestamp'
p7
aF0.18288803100585938
aatp8
Rp9
.ccollections
OrderedDict
p0
((lp1
(lp2
S'state'
p3
aI0
aa(lp4
S'distance'
p5
aF375.696044921875
aa(lp6
S'timestamp'
p7
aF0.18334698677062988
aatp8
Rp9
.ccollections
OrderedDict
p0
((lp1
(lp2
S'state'
p3
aI0
aa(lp4
S'distance'
p5
aF375.696044921875
aa(lp6
S'timestamp'
p7
aF0.1839900016784668
aatp8
Rp9
.ccollections
OrderedDict
p0
((lp1
(lp2
S'state'
p3
aI0
aa(lp4
S'distance'
p5
aF375.696044921875
aa(lp6
S'timestamp'
p7
aF0.1842489242553711
aatp8
Rp9
.ccollections
OrderedDict
p0
((lp1
(lp2
S'state'
p3
aI0
aa(lp4
S'distance'
p5
aF375.696044921875
aa(lp6
S'timestamp'
p7
aF0.19261503219604492
aatp8
Rp9
.ccollections
OrderedDict
p0
((lp1
(lp2
S'state'
p3
aI0
aa(lp4
S'distance'
p5
aF375.696044921875
aa(lp6
S'timestamp'
p7
aF0.19351887702941895
aatp8
Rp9
.ccollections
OrderedDict
p0
((lp1
(lp2
S'state'
p3
aI0
aa(lp4
S'distance'
p5
aF375.696044921875
aa(lp6
S'timestamp'
p7
aF0.1952190399169922
aatp8
Rp9
.ccollections
OrderedDict
p0
((lp1
(lp2
S'state'
p3
aI0
aa(lp4
S'distance'
p5
aF375.696044921875
aa(lp6
S'timestamp'
p7
aF0.2028789520263672
aatp8
Rp9
.ccollections
OrderedDict
p0
((lp1
(lp2
S'state'
p3
aI0
aa(lp4
S'distance'
p5
aF375.696044921875
aa(lp6
S'timestamp'
p7
aF0.20351099967956543
aatp8
Rp9
.ccollections
OrderedDict
p0
((lp1
(lp2
S'state'
p3
aI0
aa(lp4
S'distance'
p5
aF375.696044921875
aa(lp6
S'timestamp'
p7
aF0.21296381950378418
aatp8
Rp9
.ccollections
OrderedDict
p0
((lp1
(lp2
S'state'
p3
aI0
aa(lp4
S'distance'
p5
aF375.696044921875
aa(lp6
S'timestamp'
p7
aF0.2134418487548828
aatp8
Rp9
.ccollections
OrderedDict
p0
((lp1
(lp2
S'state'
p3
aI0
aa(lp4
S'distance'
p5
aF375.696044921875
aa(lp6
S'timestamp'
p7
aF0.22304987907409668
aatp8
Rp9
.ccollections
OrderedDict
p0
((lp1
(lp2
S'state'
p3
aI0
aa(lp4
S'distance'
p5
aF375.696044921875
aa(lp6
S'timestamp'
p7
aF0.2235720157623291
aatp8
Rp9
.ccollections
OrderedDict
p0
((lp1
(lp2
S'state'
p3
aI0
aa(lp4
S'distance'
p5
aF375.696044921875
aa(lp6
S'timestamp'
p7
aF0.2328338623046875
aatp8
Rp9
.ccollections
OrderedDict
p0
((lp1
(lp2
S'state'
p3
aI0
aa(lp4
S'distance'
p5
aF375.696044921875
aa(lp6
S'timestamp'
p7
aF0.2334580421447754
aatp8
Rp9
.ccollections
OrderedDict
p0
((lp1
(lp2
S'state'
p3
aI0
aa(lp4
S'distance'
p5
aF375.696044921875
aa(lp6
S'timestamp'
p7
aF0.2527618408203125
aatp8
Rp9
.ccollections
OrderedDict
p0
((lp1
(lp2
S'state'
p3
aI0
aa(lp4
S'distance'
p5
aF375.696044921875
aa(lp6
S'timestamp'
p7
aF0.2535698413848877
aatp8
Rp9
.ccollections
OrderedDict
p0
((lp1
(lp2
S'state'
p3
aI0
aa(lp4
S'distance'
p5
aF375.696044921875
aa(lp6
S'timestamp'
p7
aF0.2552919387817383
aatp8
Rp9
.ccollections
OrderedDict
p0
((lp1
(lp2
S'state'
p3
aI0
aa(lp4
S'distance'
p5
aF375.696044921875
aa(lp6
S'timestamp'
p7
aF0.25612497329711914
aatp8
Rp9
.ccollections
OrderedDict
p0
((lp1
(lp2
S'state'
p3
aI0
aa(lp4
S'distance'
p5
aF375.696044921875
aa(lp6
S'timestamp'
p7
aF0.26276087760925293
aatp8
Rp9
.ccollections
OrderedDict
p0
((lp1
(lp2
S'state'
p3
aI0
aa(lp4
S'distance'
p5
aF375.696044921875
aa(lp6
S'timestamp'
p7
aF0.26381587982177734
aatp8
Rp9
.ccollections
OrderedDict
p0
((lp1
(lp2
S'state'
p3
aI0
aa(lp4
S'distance'
p5
aF375.696044921875
aa(lp6
S'timestamp'
p7
aF0.27307581901550293
aatp8
Rp9
.ccollections
OrderedDict
p0
((lp1
(lp2
S'state'
p3
aI0
aa(lp4
S'distance'
p5
aF375.696044921875
aa(lp6
S'timestamp'
p7
aF0.2736678123474121
aatp8
Rp9
.ccollections
OrderedDict
p0
((lp1
(lp2
S'state'
p3
aI0
aa(lp4
S'distance'
p5
aF375.696044921875
aa(lp6
S'timestamp'
p7
aF0.28269195556640625
aatp8
Rp9
.ccollections
OrderedDict
p0
((lp1
(lp2
S'state'
p3
aI0
aa(lp4
S'distance'
p5
aF375.696044921875
aa(lp6
S'timestamp'
p7
aF0.2835218906402588
aatp8
Rp9
.ccollections
OrderedDict
p0
((lp1
(lp2
S'state'
p3
aI0
aa(lp4
S'distance'
p5
aF375.696044921875
aa(lp6
S'timestamp'
p7
aF0.2929558753967285
aatp8
Rp9
.ccollections
OrderedDict
p0
((lp1
(lp2
S'state'
p3
aI0
aa(lp4
S'distance'
p5
aF375.696044921875
aa(lp6
S'timestamp'
p7
aF0.29360389709472656
aatp8
Rp9
.ccollections
OrderedDict
p0
((lp1
(lp2
S'state'
p3
aI0
aa(lp4
S'distance'
p5
aF375.696044921875
aa(lp6
S'timestamp'
p7
aF0.3030228614807129
aatp8
Rp9
.ccollections
OrderedDict
p0
((lp1
(lp2
S'state'
p3
aI0
aa(lp4
S'distance'
p5
aF375.696044921875
aa(lp6
S'timestamp'
p7
aF0.30359888076782227
aatp8
Rp9
.ccollections
OrderedDict
p0
((lp1
(lp2
S'state'
p3
aI0
aa(lp4
S'distance'
p5
aF375.696044921875
aa(lp6
S'timestamp'
p7
aF0.3128089904785156
aatp8
Rp9
.ccollections
OrderedDict
p0
((lp1
(lp2
S'state'
p3
aI0
aa(lp4
S'distance'
p5
aF375.696044921875
aa(lp6
S'timestamp'
p7
aF0.3135490417480469
aatp8
Rp9
.ccollections
OrderedDict
p0
((lp1
(lp2
S'state'
p3
aI0
aa(lp4
S'distance'
p5
aF375.696044921875
aa(lp6
S'timestamp'
p7
aF0.32290101051330566
aatp8
Rp9
.ccollections
OrderedDict
p0
((lp1
(lp2
S'state'
p3
aI0
aa(lp4
S'distance'
p5
aF375.696044921875
aa(lp6
S'timestamp'
p7
aF0.32341790199279785
aatp8
Rp9
.ccollections
OrderedDict
p0
((lp1
(lp2
S'state'
p3
aI0
aa(lp4
S'distance'
p5
aF375.696044921875
aa(lp6
S'timestamp'
p7
aF0.3329908847808838
aatp8
Rp9
.ccollections
OrderedDict
p0
((lp1
(lp2
S'state'
p3
aI0
aa(lp4
S'distance'
p5
aF375.696044921875
aa(lp6
S'timestamp'
p7
aF0.3336489200592041
aatp8
Rp9
.ccollections
OrderedDict
p0
((lp1
(lp2
S'state'
p3
aI0
aa(lp4
S'distance'
p5
aF375.696044921875
aa(lp6
S'timestamp'
p7
aF0.34284090995788574
aatp8
Rp9
.ccollections
OrderedDict
p0
((lp1
(lp2
S'state'
p3
aI0
aa(lp4
S'distance'
p5
aF375.696044921875
aa(lp6
S'timestamp'
p7
aF0.34354186058044434
aatp8
Rp9
.ccollections
OrderedDict
p0
((lp1
(lp2
S'state'
p3
aI0
aa(lp4
S'distance'
p5
aF375.696044921875
aa(lp6
S'timestamp'
p7
aF0.3530428409576416
aatp8
Rp9
.ccollections
OrderedDict
p0
((lp1
(lp2
S'state'
p3
aI0
aa(lp4
S'distance'
p5
aF375.696044921875
aa(lp6
S'timestamp'
p7
aF0.3535599708557129
aatp8
Rp9
.ccollections
OrderedDict
p0
((lp1
(lp2
S'state'
p3
aI0
aa(lp4
S'distance'
p5
aF375.696044921875
aa(lp6
S'timestamp'
p7
aF0.3627300262451172
aatp8
Rp9
.ccollections
OrderedDict
p0
((lp1
(lp2
S'state'
p3
aI0
aa(lp4
S'distance'
p5
aF375.696044921875
aa(lp6
S'timestamp'
p7
aF0.3635249137878418
aatp8
Rp9
.ccollections
OrderedDict
p0
((lp1
(lp2
S'state'
p3
aI0
aa(lp4
S'distance'
p5
aF375.696044921875
aa(lp6
S'timestamp'
p7
aF0.37296581268310547
aatp8
Rp9
.ccollections
OrderedDict
p0
((lp1
(lp2
S'state'
p3
aI0
aa(lp4
S'distance'
p5
aF375.696044921875
aa(lp6
S'timestamp'
p7
aF0.3736138343811035
aatp8
Rp9
.ccollections
OrderedDict
p0
((lp1
(lp2
S'state'
p3
aI0
aa(lp4
S'distance'
p5
aF375.696044921875
aa(lp6
S'timestamp'
p7
aF0.3828868865966797
aatp8
Rp9
.ccollections
OrderedDict
p0
((lp1
(lp2
S'state'
p3
aI0
aa(lp4
S'distance'
p5
aF375.696044921875
aa(lp6
S'timestamp'
p7
aF0.38374900817871094
aatp8
Rp9
.ccollections
OrderedDict
p0
((lp1
(lp2
S'state'
p3
aI0
aa(lp4
S'distance'
p5
aF375.696044921875
aa(lp6
S'timestamp'
p7
aF0.3927450180053711
aatp8
Rp9
.ccollections
OrderedDict
p0
((lp1
(lp2
S'state'
p3
aI0
aa(lp4
S'distance'
p5
aF375.696044921875
aa(lp6
S'timestamp'
p7
aF0.39372682571411133
aatp8
Rp9
.ccollections
OrderedDict
p0
((lp1
(lp2
S'state'
p3
aI0
aa(lp4
S'distance'
p5
aF375.696044921875
aa(lp6
S'timestamp'
p7
aF0.4130859375
aatp8
Rp9
.ccollections
OrderedDict
p0
((lp1
(lp2
S'state'
p3
aI0
aa(lp4
S'distance'
p5
aF375.696044921875
aa(lp6
S'timestamp'
p7
aF0.41353702545166016
aatp8
Rp9
.ccollections
OrderedDict
p0
((lp1
(lp2
S'state'
p3
aI0
aa(lp4
S'distance'
p5
aF375.696044921875
aa(lp6
S'timestamp'
p7
aF0.4143960475921631
aatp8
Rp9
.ccollections
OrderedDict
p0
((lp1
(lp2
S'state'
p3
aI0
aa(lp4
S'distance'
p5
aF375.696044921875
aa(lp6
S'timestamp'
p7
aF0.4150209426879883
aatp8
Rp9
.ccollections
OrderedDict
p0
((lp1
(lp2
S'state'
p3
aI0
aa(lp4
S'distance'
p5
aF375.696044921875
aa(lp6
S'timestamp'
p7
aF0.4227750301361084
aatp8
Rp9
.ccollections
OrderedDict
p0
((lp1
(lp2
S'state'
p3
aI0
aa(lp4
S'distance'
p5
aF375.696044921875
aa(lp6
S'timestamp'
p7
aF0.42398881912231445
aatp8
Rp9
.ccollections
OrderedDict
p0
((lp1
(lp2
S'state'
p3
aI0
aa(lp4
S'distance'
p5
aF375.696044921875
aa(lp6
S'timestamp'
p7
aF0.43276381492614746
aatp8
Rp9
.ccollections
OrderedDict
p0
((lp1
(lp2
S'state'
p3
aI0
aa(lp4
S'distance'
p5
aF375.696044921875
aa(lp6
S'timestamp'
p7
aF0.4339790344238281
aatp8
Rp9
.ccollections
OrderedDict
p0
((lp1
(lp2
S'state'
p3
aI0
aa(lp4
S'distance'
p5
aF375.696044921875
aa(lp6
S'timestamp'
p7
aF0.44286489486694336
aatp8
Rp9
.ccollections
OrderedDict
p0
((lp1
(lp2
S'state'
p3
aI0
aa(lp4
S'distance'
p5
aF375.696044921875
aa(lp6
S'timestamp'
p7
aF0.44393086433410645
aatp8
Rp9
.ccollections
OrderedDict
p0
((lp1
(lp2
S'state'
p3
aI0
aa(lp4
S'distance'
p5
aF375.696044921875
aa(lp6
S'timestamp'
p7
aF0.45259785652160645
aatp8
Rp9
.ccollections
OrderedDict
p0
((lp1
(lp2
S'state'
p3
aI0
aa(lp4
S'distance'
p5
aF375.696044921875
aa(lp6
S'timestamp'
p7
aF0.4538910388946533
aatp8
Rp9
.ccollections
OrderedDict
p0
((lp1
(lp2
S'state'
p3
aI0
aa(lp4
S'distance'
p5
aF375.696044921875
aa(lp6
S'timestamp'
p7
aF0.46283483505249023
aatp8
Rp9
.ccollections
OrderedDict
p0
((lp1
(lp2
S'state'
p3
aI0
aa(lp4
S'distance'
p5
aF375.696044921875
aa(lp6
S'timestamp'
p7
aF0.4639739990234375
aatp8
Rp9
.ccollections
OrderedDict
p0
((lp1
(lp2
S'state'
p3
aI0
aa(lp4
S'distance'
p5
aF375.696044921875
aa(lp6
S'timestamp'
p7
aF0.47300291061401367
aatp8
Rp9
.ccollections
OrderedDict
p0
((lp1
(lp2
S'state'
p3
aI0
aa(lp4
S'distance'
p5
aF375.696044921875
aa(lp6
S'timestamp'
p7
aF0.4739110469818115
aatp8
Rp9
.ccollections
OrderedDict
p0
((lp1
(lp2
S'state'
p3
aI0
aa(lp4
S'distance'
p5
aF375.696044921875
aa(lp6
S'timestamp'
p7
aF0.4827709197998047
aatp8
Rp9
.ccollections
OrderedDict
p0
((lp1
(lp2
S'state'
p3
aI0
aa(lp4
S'distance'
p5
aF375.696044921875
aa(lp6
S'timestamp'
p7
aF0.486630916595459
aatp8
Rp9
.ccollections
OrderedDict
p0
((lp1
(lp2
S'state'
p3
aI0
aa(lp4
S'distance'
p5
aF375.696044921875
aa(lp6
S'timestamp'
p7
aF0.49307799339294434
aatp8
Rp9
.ccollections
OrderedDict
p0
((lp1
(lp2
S'state'
p3
aI0
aa(lp4
S'distance'
p5
aF375.696044921875
aa(lp6
S'timestamp'
p7
aF0.49355387687683105
aatp8
Rp9
.ccollections
OrderedDict
p0
((lp1
(lp2
S'state'
p3
aI0
aa(lp4
S'distance'
p5
aF375.696044921875
aa(lp6
S'timestamp'
p7
aF0.5031828880310059
aatp8
Rp9
.ccollections
OrderedDict
p0
((lp1
(lp2
S'state'
p3
aI0
aa(lp4
S'distance'
p5
aF375.696044921875
aa(lp6
S'timestamp'
p7
aF0.5034358501434326
aatp8
Rp9
.ccollections
OrderedDict
p0
((lp1
(lp2
S'state'
p3
aI0
aa(lp4
S'distance'
p5
aF375.696044921875
aa(lp6
S'timestamp'
p7
aF0.5131409168243408
aatp8
Rp9
.ccollections
OrderedDict
p0
((lp1
(lp2
S'state'
p3
aI0
aa(lp4
S'distance'
p5
aF375.696044921875
aa(lp6
S'timestamp'
p7
aF0.5138049125671387
aatp8
Rp9
.ccollections
OrderedDict
p0
((lp1
(lp2
S'state'
p3
aI0
aa(lp4
S'distance'
p5
aF375.696044921875
aa(lp6
S'timestamp'
p7
aF0.5228359699249268
aatp8
Rp9
.ccollections
OrderedDict
p0
((lp1
(lp2
S'state'
p3
aI0
aa(lp4
S'distance'
p5
aF375.696044921875
aa(lp6
S'timestamp'
p7
aF0.5237698554992676
aatp8
Rp9
.ccollections
OrderedDict
p0
((lp1
(lp2
S'state'
p3
aI0
aa(lp4
S'distance'
p5
aF375.696044921875
aa(lp6
S'timestamp'
p7
aF0.533066987991333
aatp8
Rp9
.ccollections
OrderedDict
p0
((lp1
(lp2
S'state'
p3
aI0
aa(lp4
S'distance'
p5
aF375.696044921875
aa(lp6
S'timestamp'
p7
aF0.533754825592041
aatp8
Rp9
.ccollections
OrderedDict
p0
((lp1
(lp2
S'state'
p3
aI0
aa(lp4
S'distance'
p5
aF375.696044921875
aa(lp6
S'timestamp'
p7
aF0.5429258346557617
aatp8
Rp9
.ccollections
OrderedDict
p0
((lp1
(lp2
S'state'
p3
aI0
aa(lp4
S'distance'
p5
aF375.696044921875
aa(lp6
S'timestamp'
p7
aF0.5436608791351318
aatp8
Rp9
.ccollections
OrderedDict
p0
((lp1
(lp2
S'state'
p3
aI0
aa(lp4
S'distance'
p5
aF375.696044921875
aa(lp6
S'timestamp'
p7
aF0.5529448986053467
aatp8
Rp9
.ccollections
OrderedDict
p0
((lp1
(lp2
S'state'
p3
aI0
aa(lp4
S'distance'
p5
aF375.696044921875
aa(lp6
S'timestamp'
p7
aF0.5535728931427002
aatp8
Rp9
.ccollections
OrderedDict
p0
((lp1
(lp2
S'state'
p3
aI0
aa(lp4
S'distance'
p5
aF375.696044921875
aa(lp6
S'timestamp'
p7
aF0.562748908996582
aatp8
Rp9
.ccollections
OrderedDict
p0
((lp1
(lp2
S'state'
p3
aI0
aa(lp4
S'distance'
p5
aF375.696044921875
aa(lp6
S'timestamp'
p7
aF0.564007043838501
aatp8
Rp9
.ccollections
OrderedDict
p0
((lp1
(lp2
S'state'
p3
aI0
aa(lp4
S'distance'
p5
aF375.696044921875
aa(lp6
S'timestamp'
p7
aF0.5729358196258545
aatp8
Rp9
.ccollections
OrderedDict
p0
((lp1
(lp2
S'state'
p3
aI0
aa(lp4
S'distance'
p5
aF375.696044921875
aa(lp6
S'timestamp'
p7
aF0.5735118389129639
aatp8
Rp9
.ccollections
OrderedDict
p0
((lp1
(lp2
S'state'
p3
aI0
aa(lp4
S'distance'
p5
aF375.696044921875
aa(lp6
S'timestamp'
p7
aF0.5833659172058105
aatp8
Rp9
.ccollections
OrderedDict
p0
((lp1
(lp2
S'state'
p3
aI0
aa(lp4
S'distance'
p5
aF375.696044921875
aa(lp6
S'timestamp'
p7
aF0.5838470458984375
aatp8
Rp9
.ccollections
OrderedDict
p0
((lp1
(lp2
S'state'
p3
aI0
aa(lp4
S'distance'
p5
aF375.696044921875
aa(lp6
S'timestamp'
p7
aF0.5939960479736328
aatp8
Rp9
.ccollections
OrderedDict
p0
((lp1
(lp2
S'state'
p3
aI0
aa(lp4
S'distance'
p5
aF375.696044921875
aa(lp6
S'timestamp'
p7
aF0.5946660041809082
aatp8
Rp9
.ccollections
OrderedDict
p0
((lp1
(lp2
S'state'
p3
aI0
aa(lp4
S'distance'
p5
aF375.696044921875
aa(lp6
S'timestamp'
p7
aF0.6137659549713135
aatp8
Rp9
.ccollections
OrderedDict
p0
((lp1
(lp2
S'state'
p3
aI0
aa(lp4
S'distance'
p5
aF375.696044921875
aa(lp6
S'timestamp'
p7
aF0.6147618293762207
aatp8
Rp9
.ccollections
OrderedDict
p0
((lp1
(lp2
S'state'
p3
aI0
aa(lp4
S'distance'
p5
aF375.696044921875
aa(lp6
S'timestamp'
p7
aF0.6148428916931152
aatp8
Rp9
.ccollections
OrderedDict
p0
((lp1
(lp2
S'state'
p3
aI0
aa(lp4
S'distance'
p5
aF375.696044921875
aa(lp6
S'timestamp'
p7
aF0.6151368618011475
aatp8
Rp9
.ccollections
OrderedDict
p0
((lp1
(lp2
S'state'
p3
aI0
aa(lp4
S'distance'
p5
aF375.696044921875
aa(lp6
S'timestamp'
p7
aF0.6329970359802246
aatp8
Rp9
.ccollections
OrderedDict
p0
((lp1
(lp2
S'state'
p3
aI0
aa(lp4
S'distance'
p5
aF375.696044921875
aa(lp6
S'timestamp'
p7
aF0.6335709095001221
aatp8
Rp9
.ccollections
OrderedDict
p0
((lp1
(lp2
S'state'
p3
aI0
aa(lp4
S'distance'
p5
aF375.696044921875
aa(lp6
S'timestamp'
p7
aF0.6353600025177002
aatp8
Rp9
.ccollections
OrderedDict
p0
((lp1
(lp2
S'state'
p3
aI0
aa(lp4
S'distance'
p5
aF375.696044921875
aa(lp6
S'timestamp'
p7
aF0.6361439228057861
aatp8
Rp9
.ccollections
OrderedDict
p0
((lp1
(lp2
S'state'
p3
aI0
aa(lp4
S'distance'
p5
aF375.696044921875
aa(lp6
S'timestamp'
p7
aF0.6430449485778809
aatp8
Rp9
.ccollections
OrderedDict
p0
((lp1
(lp2
S'state'
p3
aI0
aa(lp4
S'distance'
p5
aF375.696044921875
aa(lp6
S'timestamp'
p7
aF0.6530129909515381
aatp8
Rp9
.ccollections
OrderedDict
p0
((lp1
(lp2
S'state'
p3
aI0
aa(lp4
S'distance'
p5
aF375.696044921875
aa(lp6
S'timestamp'
p7
aF0.6541478633880615
aatp8
Rp9
.ccollections
OrderedDict
p0
((lp1
(lp2
S'state'
p3
aI0
aa(lp4
S'distance'
p5
aF375.696044921875
aa(lp6
S'timestamp'
p7
aF0.6542189121246338
aatp8
Rp9
.ccollections
OrderedDict
p0
((lp1
(lp2
S'state'
p3
aI0
aa(lp4
S'distance'
p5
aF375.696044921875
aa(lp6
S'timestamp'
p7
aF0.6626858711242676
aatp8
Rp9
.ccollections
OrderedDict
p0
((lp1
(lp2
S'state'
p3
aI0
aa(lp4
S'distance'
p5
aF375.696044921875
aa(lp6
S'timestamp'
p7
aF0.6638278961181641
aatp8
Rp9
.ccollections
OrderedDict
p0
((lp1
(lp2
S'state'
p3
aI0
aa(lp4
S'distance'
p5
aF375.696044921875
aa(lp6
S'timestamp'
p7
aF0.6845738887786865
aatp8
Rp9
.ccollections
OrderedDict
p0
((lp1
(lp2
S'state'
p3
aI0
aa(lp4
S'distance'
p5
aF375.696044921875
aa(lp6
S'timestamp'
p7
aF0.6847269535064697
aatp8
Rp9
.ccollections
OrderedDict
p0
((lp1
(lp2
S'state'
p3
aI0
aa(lp4
S'distance'
p5
aF375.696044921875
aa(lp6
S'timestamp'
p7
aF0.6849579811096191
aatp8
Rp9
.ccollections
OrderedDict
p0
((lp1
(lp2
S'state'
p3
aI0
aa(lp4
S'distance'
p5
aF375.696044921875
aa(lp6
S'timestamp'
p7
aF0.693997859954834
aatp8
Rp9
.ccollections
OrderedDict
p0
((lp1
(lp2
S'state'
p3
aI0
aa(lp4
S'distance'
p5
aF375.696044921875
aa(lp6
S'timestamp'
p7
aF0.694321870803833
aatp8
Rp9
.ccollections
OrderedDict
p0
((lp1
(lp2
S'state'
p3
aI0
aa(lp4
S'distance'
p5
aF375.696044921875
aa(lp6
S'timestamp'
p7
aF0.6953778266906738
aatp8
Rp9
.ccollections
OrderedDict
p0
((lp1
(lp2
S'state'
p3
aI0
aa(lp4
S'distance'
p5
aF375.696044921875
aa(lp6
S'timestamp'
p7
aF0.7026989459991455
aatp8
Rp9
.ccollections
OrderedDict
p0
((lp1
(lp2
S'state'
p3
aI0
aa(lp4
S'distance'
p5
aF375.696044921875
aa(lp6
S'timestamp'
p7
aF0.7131619453430176
aatp8
Rp9
.ccollections
OrderedDict
p0
((lp1
(lp2
S'state'
p3
aI0
aa(lp4
S'distance'
p5
aF375.696044921875
aa(lp6
S'timestamp'
p7
aF0.7132508754730225
aatp8
Rp9
.ccollections
OrderedDict
p0
((lp1
(lp2
S'state'
p3
aI0
aa(lp4
S'distance'
p5
aF375.696044921875
aa(lp6
S'timestamp'
p7
aF0.7139279842376709
aatp8
Rp9
.ccollections
OrderedDict
p0
((lp1
(lp2
S'state'
p3
aI0
aa(lp4
S'distance'
p5
aF375.696044921875
aa(lp6
S'timestamp'
p7
aF0.7228288650512695
aatp8
Rp9
.ccollections
OrderedDict
p0
((lp1
(lp2
S'state'
p3
aI0
aa(lp4
S'distance'
p5
aF375.696044921875
aa(lp6
S'timestamp'
p7
aF0.7243669033050537
aatp8
Rp9
.ccollections
OrderedDict
p0
((lp1
(lp2
S'state'
p3
aI0
aa(lp4
S'distance'
p5
aF375.696044921875
aa(lp6
S'timestamp'
p7
aF0.7335200309753418
aatp8
Rp9
.ccollections
OrderedDict
p0
((lp1
(lp2
S'state'
p3
aI0
aa(lp4
S'distance'
p5
aF375.696044921875
aa(lp6
S'timestamp'
p7
aF0.7338488101959229
aatp8
Rp9
.ccollections
OrderedDict
p0
((lp1
(lp2
S'state'
p3
aI0
aa(lp4
S'distance'
p5
aF375.696044921875
aa(lp6
S'timestamp'
p7
aF0.7430148124694824
aatp8
Rp9
.ccollections
OrderedDict
p0
((lp1
(lp2
S'state'
p3
aI0
aa(lp4
S'distance'
p5
aF375.696044921875
aa(lp6
S'timestamp'
p7
aF0.7438468933105469
aatp8
Rp9
.ccollections
OrderedDict
p0
((lp1
(lp2
S'state'
p3
aI0
aa(lp4
S'distance'
p5
aF375.696044921875
aa(lp6
S'timestamp'
p7
aF0.7530338764190674
aatp8
Rp9
.ccollections
OrderedDict
p0
((lp1
(lp2
S'state'
p3
aI0
aa(lp4
S'distance'
p5
aF375.696044921875
aa(lp6
S'timestamp'
p7
aF0.753842830657959
aatp8
Rp9
.ccollections
OrderedDict
p0
((lp1
(lp2
S'state'
p3
aI0
aa(lp4
S'distance'
p5
aF375.696044921875
aa(lp6
S'timestamp'
p7
aF0.7633919715881348
aatp8
Rp9
.ccollections
OrderedDict
p0
((lp1
(lp2
S'state'
p3
aI0
aa(lp4
S'distance'
p5
aF375.696044921875
aa(lp6
S'timestamp'
p7
aF0.763469934463501
aatp8
Rp9
.ccollections
OrderedDict
p0
((lp1
(lp2
S'state'
p3
aI0
aa(lp4
S'distance'
p5
aF375.696044921875
aa(lp6
S'timestamp'
p7
aF0.7735979557037354
aatp8
Rp9
.ccollections
OrderedDict
p0
((lp1
(lp2
S'state'
p3
aI0
aa(lp4
S'distance'
p5
aF375.696044921875
aa(lp6
S'timestamp'
p7
aF0.7745208740234375
aatp8
Rp9
.ccollections
OrderedDict
p0
((lp1
(lp2
S'state'
p3
aI0
aa(lp4
S'distance'
p5
aF375.696044921875
aa(lp6
S'timestamp'
p7
aF0.7830069065093994
aatp8
Rp9
.ccollections
OrderedDict
p0
((lp1
(lp2
S'state'
p3
aI0
aa(lp4
S'distance'
p5
aF375.696044921875
aa(lp6
S'timestamp'
p7
aF0.7841448783874512
aatp8
Rp9
.ccollections
OrderedDict
p0
((lp1
(lp2
S'state'
p3
aI0
aa(lp4
S'distance'
p5
aF375.696044921875
aa(lp6
S'timestamp'
p7
aF0.7929539680480957
aatp8
Rp9
.ccollections
OrderedDict
p0
((lp1
(lp2
S'state'
p3
aI0
aa(lp4
S'distance'
p5
aF375.696044921875
aa(lp6
S'timestamp'
p7
aF0.7937569618225098
aatp8
Rp9
.ccollections
OrderedDict
p0
((lp1
(lp2
S'state'
p3
aI0
aa(lp4
S'distance'
p5
aF375.696044921875
aa(lp6
S'timestamp'
p7
aF0.8032510280609131
aatp8
Rp9
.ccollections
OrderedDict
p0
((lp1
(lp2
S'state'
p3
aI0
aa(lp4
S'distance'
p5
aF375.696044921875
aa(lp6
S'timestamp'
p7
aF0.8039720058441162
aatp8
Rp9
.ccollections
OrderedDict
p0
((lp1
(lp2
S'state'
p3
aI0
aa(lp4
S'distance'
p5
aF375.696044921875
aa(lp6
S'timestamp'
p7
aF0.8130648136138916
aatp8
Rp9
.ccollections
OrderedDict
p0
((lp1
(lp2
S'state'
p3
aI0
aa(lp4
S'distance'
p5
aF375.696044921875
aa(lp6
S'timestamp'
p7
aF0.8142240047454834
aatp8
Rp9
.ccollections
OrderedDict
p0
((lp1
(lp2
S'state'
p3
aI0
aa(lp4
S'distance'
p5
aF375.696044921875
aa(lp6
S'timestamp'
p7
aF0.8228340148925781
aatp8
Rp9
.ccollections
OrderedDict
p0
((lp1
(lp2
S'state'
p3
aI0
aa(lp4
S'distance'
p5
aF375.696044921875
aa(lp6
S'timestamp'
p7
aF0.8240258693695068
aatp8
Rp9
.ccollections
OrderedDict
p0
((lp1
(lp2
S'state'
p3
aI0
aa(lp4
S'distance'
p5
aF375.696044921875
aa(lp6
S'timestamp'
p7
aF0.8329689502716064
aatp8
Rp9
.ccollections
OrderedDict
p0
((lp1
(lp2
S'state'
p3
aI0
aa(lp4
S'distance'
p5
aF375.696044921875
aa(lp6
S'timestamp'
p7
aF0.8340198993682861
aatp8
Rp9
.ccollections
OrderedDict
p0
((lp1
(lp2
S'state'
p3
aI0
aa(lp4
S'distance'
p5
aF375.696044921875
aa(lp6
S'timestamp'
p7
aF0.8434679508209229
aatp8
Rp9
.ccollections
OrderedDict
p0
((lp1
(lp2
S'state'
p3
aI0
aa(lp4
S'distance'
p5
aF375.696044921875
aa(lp6
S'timestamp'
p7
aF0.844296932220459
aatp8
Rp9
.ccollections
OrderedDict
p0
((lp1
(lp2
S'state'
p3
aI0
aa(lp4
S'distance'
p5
aF375.696044921875
aa(lp6
S'timestamp'
p7
aF0.8529608249664307
aatp8
Rp9
.ccollections
OrderedDict
p0
((lp1
(lp2
S'state'
p3
aI0
aa(lp4
S'distance'
p5
aF375.696044921875
aa(lp6
S'timestamp'
p7
aF0.8540408611297607
aatp8
Rp9
.ccollections
OrderedDict
p0
((lp1
(lp2
S'state'
p3
aI0
aa(lp4
S'distance'
p5
aF375.696044921875
aa(lp6
S'timestamp'
p7
aF0.8628640174865723
aatp8
Rp9
.ccollections
OrderedDict
p0
((lp1
(lp2
S'state'
p3
aI0
aa(lp4
S'distance'
p5
aF375.696044921875
aa(lp6
S'timestamp'
p7
aF0.8639190196990967
aatp8
Rp9
.ccollections
OrderedDict
p0
((lp1
(lp2
S'state'
p3
aI0
aa(lp4
S'distance'
p5
aF375.696044921875
aa(lp6
S'timestamp'
p7
aF0.8730318546295166
aatp8
Rp9
.ccollections
OrderedDict
p0
((lp1
(lp2
S'state'
p3
aI0
aa(lp4
S'distance'
p5
aF375.696044921875
aa(lp6
S'timestamp'
p7
aF0.8741118907928467
aatp8
Rp9
.ccollections
OrderedDict
p0
((lp1
(lp2
S'state'
p3
aI0
aa(lp4
S'distance'
p5
aF375.696044921875
aa(lp6
S'timestamp'
p7
aF0.8828029632568359
aatp8
Rp9
.ccollections
OrderedDict
p0
((lp1
(lp2
S'state'
p3
aI0
aa(lp4
S'distance'
p5
aF375.696044921875
aa(lp6
S'timestamp'
p7
aF0.8841118812561035
aatp8
Rp9
.ccollections
OrderedDict
p0
((lp1
(lp2
S'state'
p3
aI0
aa(lp4
S'distance'
p5
aF375.696044921875
aa(lp6
S'timestamp'
p7
aF0.8929238319396973
aatp8
Rp9
.ccollections
OrderedDict
p0
((lp1
(lp2
S'state'
p3
aI0
aa(lp4
S'distance'
p5
aF375.696044921875
aa(lp6
S'timestamp'
p7
aF0.8937618732452393
aatp8
Rp9
.ccollections
OrderedDict
p0
((lp1
(lp2
S'state'
p3
aI0
aa(lp4
S'distance'
p5
aF375.696044921875
aa(lp6
S'timestamp'
p7
aF0.9028279781341553
aatp8
Rp9
.ccollections
OrderedDict
p0
((lp1
(lp2
S'state'
p3
aI0
aa(lp4
S'distance'
p5
aF375.696044921875
aa(lp6
S'timestamp'
p7
aF0.9036400318145752
aatp8
Rp9
.ccollections
OrderedDict
p0
((lp1
(lp2
S'state'
p3
aI0
aa(lp4
S'distance'
p5
aF375.696044921875
aa(lp6
S'timestamp'
p7
aF0.9133470058441162
aatp8
Rp9
.ccollections
OrderedDict
p0
((lp1
(lp2
S'state'
p3
aI0
aa(lp4
S'distance'
p5
aF375.696044921875
aa(lp6
S'timestamp'
p7
aF0.9135258197784424
aatp8
Rp9
.ccollections
OrderedDict
p0
((lp1
(lp2
S'state'
p3
aI0
aa(lp4
S'distance'
p5
aF375.696044921875
aa(lp6
S'timestamp'
p7
aF0.9228308200836182
aatp8
Rp9
.ccollections
OrderedDict
p0
((lp1
(lp2
S'state'
p3
aI0
aa(lp4
S'distance'
p5
aF375.696044921875
aa(lp6
S'timestamp'
p7
aF0.9238748550415039
aatp8
Rp9
.ccollections
OrderedDict
p0
((lp1
(lp2
S'state'
p3
aI0
aa(lp4
S'distance'
p5
aF375.696044921875
aa(lp6
S'timestamp'
p7
aF0.9330389499664307
aatp8
Rp9
.ccollections
OrderedDict
p0
((lp1
(lp2
S'state'
p3
aI0
aa(lp4
S'distance'
p5
aF375.696044921875
aa(lp6
S'timestamp'
p7
aF0.9341118335723877
aatp8
Rp9
.ccollections
OrderedDict
p0
((lp1
(lp2
S'state'
p3
aI0
aa(lp4
S'distance'
p5
aF375.696044921875
aa(lp6
S'timestamp'
p7
aF0.9427268505096436
aatp8
Rp9
.ccollections
OrderedDict
p0
((lp1
(lp2
S'state'
p3
aI0
aa(lp4
S'distance'
p5
aF375.696044921875
aa(lp6
S'timestamp'
p7
aF0.9439878463745117
aatp8
Rp9
.ccollections
OrderedDict
p0
((lp1
(lp2
S'state'
p3
aI0
aa(lp4
S'distance'
p5
aF375.696044921875
aa(lp6
S'timestamp'
p7
aF0.9530279636383057
aatp8
Rp9
.ccollections
OrderedDict
p0
((lp1
(lp2
S'state'
p3
aI0
aa(lp4
S'distance'
p5
aF375.696044921875
aa(lp6
S'timestamp'
p7
aF0.954049825668335
aatp8
Rp9
.ccollections
OrderedDict
p0
((lp1
(lp2
S'state'
p3
aI0
aa(lp4
S'distance'
p5
aF375.696044921875
aa(lp6
S'timestamp'
p7
aF0.9629349708557129
aatp8
Rp9
.ccollections
OrderedDict
p0
((lp1
(lp2
S'state'
p3
aI0
aa(lp4
S'distance'
p5
aF375.696044921875
aa(lp6
S'timestamp'
p7
aF0.9641740322113037
aatp8
Rp9
.ccollections
OrderedDict
p0
((lp1
(lp2
S'state'
p3
aI0
aa(lp4
S'distance'
p5
aF375.696044921875
aa(lp6
S'timestamp'
p7
aF0.9730520248413086
aatp8
Rp9
.ccollections
OrderedDict
p0
((lp1
(lp2
S'state'
p3
aI0
aa(lp4
S'distance'
p5
aF375.696044921875
aa(lp6
S'timestamp'
p7
aF0.9739618301391602
aatp8
Rp9
.ccollections
OrderedDict
p0
((lp1
(lp2
S'state'
p3
aI0
aa(lp4
S'distance'
p5
aF375.696044921875
aa(lp6
S'timestamp'
p7
aF0.9833199977874756
aatp8
Rp9
.ccollections
OrderedDict
p0
((lp1
(lp2
S'state'
p3
aI0
aa(lp4
S'distance'
p5
aF375.696044921875
aa(lp6
S'timestamp'
p7
aF0.98390793800354
aatp8
Rp9
.ccollections
OrderedDict
p0
((lp1
(lp2
S'state'
p3
aI0
aa(lp4
S'distance'
p5
aF375.696044921875
aa(lp6
S'timestamp'
p7
aF0.9928469657897949
aatp8
Rp9
.ccollections
OrderedDict
p0
((lp1
(lp2
S'state'
p3
aI0
aa(lp4
S'distance'
p5
aF375.696044921875
aa(lp6
S'timestamp'
p7
aF0.9938650131225586
aatp8
Rp9
.ccollections
OrderedDict
p0
((lp1
(lp2
S'state'
p3
aI0
aa(lp4
S'distance'
p5
aF375.696044921875
aa(lp6
S'timestamp'
p7
aF1.0034139156341553
aatp8
Rp9
.ccollections
OrderedDict
p0
((lp1
(lp2
S'state'
p3
aI0
aa(lp4
S'distance'
p5
aF375.696044921875
aa(lp6
S'timestamp'
p7
aF1.003598928451538
aatp8
Rp9
.ccollections
OrderedDict
p0
((lp1
(lp2
S'state'
p3
aI0
aa(lp4
S'distance'
p5
aF375.696044921875
aa(lp6
S'timestamp'
p7
aF1.0129499435424805
aatp8
Rp9
.ccollections
OrderedDict
p0
((lp1
(lp2
S'state'
p3
aI0
aa(lp4
S'distance'
p5
aF375.696044921875
aa(lp6
S'timestamp'
p7
aF1.013998031616211
aatp8
Rp9
.ccollections
OrderedDict
p0
((lp1
(lp2
S'state'
p3
aI0
aa(lp4
S'distance'
p5
aF375.696044921875
aa(lp6
S'timestamp'
p7
aF1.0227789878845215
aatp8
Rp9
.ccollections
OrderedDict
p0
((lp1
(lp2
S'state'
p3
aI0
aa(lp4
S'distance'
p5
aF375.696044921875
aa(lp6
S'timestamp'
p7
aF1.0240788459777832
aatp8
Rp9
.ccollections
OrderedDict
p0
((lp1
(lp2
S'state'
p3
aI0
aa(lp4
S'distance'
p5
aF375.696044921875
aa(lp6
S'timestamp'
p7
aF1.0328128337860107
aatp8
Rp9
.ccollections
OrderedDict
p0
((lp1
(lp2
S'state'
p3
aI0
aa(lp4
S'distance'
p5
aF375.696044921875
aa(lp6
S'timestamp'
p7
aF1.033918857574463
aatp8
Rp9
.ccollections
OrderedDict
p0
((lp1
(lp2
S'state'
p3
aI0
aa(lp4
S'distance'
p5
aF375.696044921875
aa(lp6
S'timestamp'
p7
aF1.0431578159332275
aatp8
Rp9
.ccollections
OrderedDict
p0
((lp1
(lp2
S'state'
p3
aI0
aa(lp4
S'distance'
p5
aF375.696044921875
aa(lp6
S'timestamp'
p7
aF1.0438458919525146
aatp8
Rp9
.ccollections
OrderedDict
p0
((lp1
(lp2
S'state'
p3
aI0
aa(lp4
S'distance'
p5
aF375.696044921875
aa(lp6
S'timestamp'
p7
aF1.0529398918151855
aatp8
Rp9
.ccollections
OrderedDict
p0
((lp1
(lp2
S'state'
p3
aI0
aa(lp4
S'distance'
p5
aF375.696044921875
aa(lp6
S'timestamp'
p7
aF1.054081916809082
aatp8
Rp9
.ccollections
OrderedDict
p0
((lp1
(lp2
S'state'
p3
aI0
aa(lp4
S'distance'
p5
aF375.696044921875
aa(lp6
S'timestamp'
p7
aF1.062837839126587
aatp8
Rp9
.ccollections
OrderedDict
p0
((lp1
(lp2
S'state'
p3
aI0
aa(lp4
S'distance'
p5
aF375.696044921875
aa(lp6
S'timestamp'
p7
aF1.0639939308166504
aatp8
Rp9
.ccollections
OrderedDict
p0
((lp1
(lp2
S'state'
p3
aI0
aa(lp4
S'distance'
p5
aF375.696044921875
aa(lp6
S'timestamp'
p7
aF1.0732970237731934
aatp8
Rp9
.ccollections
OrderedDict
p0
((lp1
(lp2
S'state'
p3
aI0
aa(lp4
S'distance'
p5
aF375.696044921875
aa(lp6
S'timestamp'
p7
aF1.0742268562316895
aatp8
Rp9
.ccollections
OrderedDict
p0
((lp1
(lp2
S'state'
p3
aI0
aa(lp4
S'distance'
p5
aF375.696044921875
aa(lp6
S'timestamp'
p7
aF1.0833008289337158
aatp8
Rp9
.ccollections
OrderedDict
p0
((lp1
(lp2
S'state'
p3
aI0
aa(lp4
S'distance'
p5
aF375.696044921875
aa(lp6
S'timestamp'
p7
aF1.083961009979248
aatp8
Rp9
.ccollections
OrderedDict
p0
((lp1
(lp2
S'state'
p3
aI0
aa(lp4
S'distance'
p5
aF375.696044921875
aa(lp6
S'timestamp'
p7
aF1.0929160118103027
aatp8
Rp9
.ccollections
OrderedDict
p0
((lp1
(lp2
S'state'
p3
aI0
aa(lp4
S'distance'
p5
aF375.696044921875
aa(lp6
S'timestamp'
p7
aF1.0938749313354492
aatp8
Rp9
.ccollections
OrderedDict
p0
((lp1
(lp2
S'state'
p3
aI0
aa(lp4
S'distance'
p5
aF375.696044921875
aa(lp6
S'timestamp'
p7
aF1.1035709381103516
aatp8
Rp9
.ccollections
OrderedDict
p0
((lp1
(lp2
S'state'
p3
aI0
aa(lp4
S'distance'
p5
aF375.696044921875
aa(lp6
S'timestamp'
p7
aF1.1036880016326904
aatp8
Rp9
.ccollections
OrderedDict
p0
((lp1
(lp2
S'state'
p3
aI0
aa(lp4
S'distance'
p5
aF375.696044921875
aa(lp6
S'timestamp'
p7
aF1.1131818294525146
aatp8
Rp9
.ccollections
OrderedDict
p0
((lp1
(lp2
S'state'
p3
aI0
aa(lp4
S'distance'
p5
aF375.696044921875
aa(lp6
S'timestamp'
p7
aF1.1132969856262207
aatp8
Rp9
.ccollections
OrderedDict
p0
((lp1
(lp2
S'state'
p3
aI0
aa(lp4
S'distance'
p5
aF375.696044921875
aa(lp6
S'timestamp'
p7
aF1.1229939460754395
aatp8
Rp9
.ccollections
OrderedDict
p0
((lp1
(lp2
S'state'
p3
aI0
aa(lp4
S'distance'
p5
aF375.696044921875
aa(lp6
S'timestamp'
p7
aF1.1239349842071533
aatp8
Rp9
.ccollections
OrderedDict
p0
((lp1
(lp2
S'state'
p3
aI0
aa(lp4
S'distance'
p5
aF375.696044921875
aa(lp6
S'timestamp'
p7
aF1.1340298652648926
aatp8
Rp9
.ccollections
OrderedDict
p0
((lp1
(lp2
S'state'
p3
aI0
aa(lp4
S'distance'
p5
aF375.696044921875
aa(lp6
S'timestamp'
p7
aF1.134178876876831
aatp8
Rp9
.ccollections
OrderedDict
p0
((lp1
(lp2
S'state'
p3
aI0
aa(lp4
S'distance'
p5
aF375.696044921875
aa(lp6
S'timestamp'
p7
aF1.1428279876708984
aatp8
Rp9
.ccollections
OrderedDict
p0
((lp1
(lp2
S'state'
p3
aI0
aa(lp4
S'distance'
p5
aF375.696044921875
aa(lp6
S'timestamp'
p7
aF1.1439008712768555
aatp8
Rp9
.ccollections
OrderedDict
p0
((lp1
(lp2
S'state'
p3
aI0
aa(lp4
S'distance'
p5
aF375.696044921875
aa(lp6
S'timestamp'
p7
aF1.1528079509735107
aatp8
Rp9
.ccollections
OrderedDict
p0
((lp1
(lp2
S'state'
p3
aI0
aa(lp4
S'distance'
p5
aF375.696044921875
aa(lp6
S'timestamp'
p7
aF1.1538479328155518
aatp8
Rp9
.ccollections
OrderedDict
p0
((lp1
(lp2
S'state'
p3
aI0
aa(lp4
S'distance'
p5
aF375.696044921875
aa(lp6
S'timestamp'
p7
aF1.162787914276123
aatp8
Rp9
.ccollections
OrderedDict
p0
((lp1
(lp2
S'state'
p3
aI0
aa(lp4
S'distance'
p5
aF375.696044921875
aa(lp6
S'timestamp'
p7
aF1.1644399166107178
aatp8
Rp9
.ccollections
OrderedDict
p0
((lp1
(lp2
S'state'
p3
aI0
aa(lp4
S'distance'
p5
aF375.696044921875
aa(lp6
S'timestamp'
p7
aF1.172989845275879
aatp8
Rp9
.ccollections
OrderedDict
p0
((lp1
(lp2
S'state'
p3
aI0
aa(lp4
S'distance'
p5
aF375.696044921875
aa(lp6
S'timestamp'
p7
aF1.1736760139465332
aatp8
Rp9
.ccollections
OrderedDict
p0
((lp1
(lp2
S'state'
p3
aI0
aa(lp4
S'distance'
p5
aF375.696044921875
aa(lp6
S'timestamp'
p7
aF1.183046817779541
aatp8
Rp9
.ccollections
OrderedDict
p0
((lp1
(lp2
S'state'
p3
aI0
aa(lp4
S'distance'
p5
aF375.696044921875
aa(lp6
S'timestamp'
p7
aF1.183945894241333
aatp8
Rp9
.ccollections
OrderedDict
p0
((lp1
(lp2
S'state'
p3
aI0
aa(lp4
S'distance'
p5
aF375.696044921875
aa(lp6
S'timestamp'
p7
aF1.1929879188537598
aatp8
Rp9
.ccollections
OrderedDict
p0
((lp1
(lp2
S'state'
p3
aI0
aa(lp4
S'distance'
p5
aF375.696044921875
aa(lp6
S'timestamp'
p7
aF1.194309949874878
aatp8
Rp9
.ccollections
OrderedDict
p0
((lp1
(lp2
S'state'
p3
aI0
aa(lp4
S'distance'
p5
aF375.696044921875
aa(lp6
S'timestamp'
p7
aF1.213554859161377
aatp8
Rp9
.ccollections
OrderedDict
p0
((lp1
(lp2
S'state'
p3
aI0
aa(lp4
S'distance'
p5
aF375.696044921875
aa(lp6
S'timestamp'
p7
aF1.214444875717163
aatp8
Rp9
.ccollections
OrderedDict
p0
((lp1
(lp2
S'state'
p3
aI0
aa(lp4
S'distance'
p5
aF375.696044921875
aa(lp6
S'timestamp'
p7
aF1.2145638465881348
aatp8
Rp9
.ccollections
OrderedDict
p0
((lp1
(lp2
S'state'
p3
aI0
aa(lp4
S'distance'
p5
aF375.696044921875
aa(lp6
S'timestamp'
p7
aF1.2154710292816162
aatp8
Rp9
.ccollections
OrderedDict
p0
((lp1
(lp2
S'state'
p3
aI0
aa(lp4
S'distance'
p5
aF375.696044921875
aa(lp6
S'timestamp'
p7
aF1.2226879596710205
aatp8
Rp9
.ccollections
OrderedDict
p0
((lp1
(lp2
S'state'
p3
aI0
aa(lp4
S'distance'
p5
aF375.696044921875
aa(lp6
S'timestamp'
p7
aF1.223891019821167
aatp8
Rp9
.ccollections
OrderedDict
p0
((lp1
(lp2
S'state'
p3
aI0
aa(lp4
S'distance'
p5
aF375.696044921875
aa(lp6
S'timestamp'
p7
aF1.2329349517822266
aatp8
Rp9
.ccollections
OrderedDict
p0
((lp1
(lp2
S'state'
p3
aI0
aa(lp4
S'distance'
p5
aF375.696044921875
aa(lp6
S'timestamp'
p7
aF1.2338619232177734
aatp8
Rp9
.ccollections
OrderedDict
p0
((lp1
(lp2
S'state'
p3
aI0
aa(lp4
S'distance'
p5
aF375.696044921875
aa(lp6
S'timestamp'
p7
aF1.243055820465088
aatp8
Rp9
.ccollections
OrderedDict
p0
((lp1
(lp2
S'state'
p3
aI0
aa(lp4
S'distance'
p5
aF375.696044921875
aa(lp6
S'timestamp'
p7
aF1.2447550296783447
aatp8
Rp9
.ccollections
OrderedDict
p0
((lp1
(lp2
S'state'
p3
aI0
aa(lp4
S'distance'
p5
aF375.696044921875
aa(lp6
S'timestamp'
p7
aF1.2527329921722412
aatp8
Rp9
.ccollections
OrderedDict
p0
((lp1
(lp2
S'state'
p3
aI0
aa(lp4
S'distance'
p5
aF375.696044921875
aa(lp6
S'timestamp'
p7
aF1.2541158199310303
aatp8
Rp9
.ccollections
OrderedDict
p0
((lp1
(lp2
S'state'
p3
aI0
aa(lp4
S'distance'
p5
aF375.696044921875
aa(lp6
S'timestamp'
p7
aF1.2627480030059814
aatp8
Rp9
.ccollections
OrderedDict
p0
((lp1
(lp2
S'state'
p3
aI0
aa(lp4
S'distance'
p5
aF375.696044921875
aa(lp6
S'timestamp'
p7
aF1.2634198665618896
aatp8
Rp9
.ccollections
OrderedDict
p0
((lp1
(lp2
S'state'
p3
aI0
aa(lp4
S'distance'
p5
aF375.696044921875
aa(lp6
S'timestamp'
p7
aF1.2829949855804443
aatp8
Rp9
.ccollections
OrderedDict
p0
((lp1
(lp2
S'state'
p3
aI0
aa(lp4
S'distance'
p5
aF375.696044921875
aa(lp6
S'timestamp'
p7
aF1.2839839458465576
aatp8
Rp9
.ccollections
OrderedDict
p0
((lp1
(lp2
S'state'
p3
aI0
aa(lp4
S'distance'
p5
aF375.696044921875
aa(lp6
S'timestamp'
p7
aF1.2844610214233398
aatp8
Rp9
.ccollections
OrderedDict
p0
((lp1
(lp2
S'state'
p3
aI0
aa(lp4
S'distance'
p5
aF375.696044921875
aa(lp6
S'timestamp'
p7
aF1.2849810123443604
aatp8
Rp9
.ccollections
OrderedDict
p0
((lp1
(lp2
S'state'
p3
aI0
aa(lp4
S'distance'
p5
aF375.696044921875
aa(lp6
S'timestamp'
p7
aF1.3039870262145996
aatp8
Rp9
.ccollections
OrderedDict
p0
((lp1
(lp2
S'state'
p3
aI0
aa(lp4
S'distance'
p5
aF375.696044921875
aa(lp6
S'timestamp'
p7
aF1.3129949569702148
aatp8
Rp9
.ccollections
OrderedDict
p0
((lp1
(lp2
S'state'
p3
aI0
aa(lp4
S'distance'
p5
aF375.696044921875
aa(lp6
S'timestamp'
p7
aF1.3136930465698242
aatp8
Rp9
.ccollections
OrderedDict
p0
((lp1
(lp2
S'state'
p3
aI0
aa(lp4
S'distance'
p5
aF375.696044921875
aa(lp6
S'timestamp'
p7
aF1.3228108882904053
aatp8
Rp9
.ccollections
OrderedDict
p0
((lp1
(lp2
S'state'
p3
aI0
aa(lp4
S'distance'
p5
aF375.696044921875
aa(lp6
S'timestamp'
p7
aF1.3334479331970215
aatp8
Rp9
.ccollections
OrderedDict
p0
((lp1
(lp2
S'state'
p3
aI0
aa(lp4
S'distance'
p5
aF375.696044921875
aa(lp6
S'timestamp'
p7
aF1.3336520195007324
aatp8
Rp9
.ccollections
OrderedDict
p0
((lp1
(lp2
S'state'
p3
aI0
aa(lp4
S'distance'
p5
aF375.696044921875
aa(lp6
S'timestamp'
p7
aF1.334455966949463
aatp8
Rp9
.ccollections
OrderedDict
p0
((lp1
(lp2
S'state'
p3
aI0
aa(lp4
S'distance'
p5
aF375.696044921875
aa(lp6
S'timestamp'
p7
aF1.334630012512207
aatp8
Rp9
.ccollections
OrderedDict
p0
((lp1
(lp2
S'state'
p3
aI0
aa(lp4
S'distance'
p5
aF375.696044921875
aa(lp6
S'timestamp'
p7
aF1.3427529335021973
aatp8
Rp9
.ccollections
OrderedDict
p0
((lp1
(lp2
S'state'
p3
aI0
aa(lp4
S'distance'
p5
aF375.696044921875
aa(lp6
S'timestamp'
p7
aF1.3464369773864746
aatp8
Rp9
.ccollections
OrderedDict
p0
((lp1
(lp2
S'state'
p3
aI0
aa(lp4
S'distance'
p5
aF375.696044921875
aa(lp6
S'timestamp'
p7
aF1.3467090129852295
aatp8
Rp9
.ccollections
OrderedDict
p0
((lp1
(lp2
S'state'
p3
aI0
aa(lp4
S'distance'
p5
aF375.696044921875
aa(lp6
S'timestamp'
p7
aF1.3475208282470703
aatp8
Rp9
.ccollections
OrderedDict
p0
((lp1
(lp2
S'state'
p3
aI0
aa(lp4
S'distance'
p5
aF375.696044921875
aa(lp6
S'timestamp'
p7
aF1.3629820346832275
aatp8
Rp9
.ccollections
OrderedDict
p0
((lp1
(lp2
S'state'
p3
aI0
aa(lp4
S'distance'
p5
aF375.696044921875
aa(lp6
S'timestamp'
p7
aF1.3638429641723633
aatp8
Rp9
.ccollections
OrderedDict
p0
((lp1
(lp2
S'state'
p3
aI0
aa(lp4
S'distance'
p5
aF375.696044921875
aa(lp6
S'timestamp'
p7
aF1.3653268814086914
aatp8
Rp9
.ccollections
OrderedDict
p0
((lp1
(lp2
S'state'
p3
aI0
aa(lp4
S'distance'
p5
aF375.696044921875
aa(lp6
S'timestamp'
p7
aF1.3658678531646729
aatp8
Rp9
.ccollections
OrderedDict
p0
((lp1
(lp2
S'state'
p3
aI0
aa(lp4
S'distance'
p5
aF375.696044921875
aa(lp6
S'timestamp'
p7
aF1.3729259967803955
aatp8
Rp9
.ccollections
OrderedDict
p0
((lp1
(lp2
S'state'
p3
aI0
aa(lp4
S'distance'
p5
aF375.696044921875
aa(lp6
S'timestamp'
p7
aF1.3737599849700928
aatp8
Rp9
.ccollections
OrderedDict
p0
((lp1
(lp2
S'state'
p3
aI0
aa(lp4
S'distance'
p5
aF375.696044921875
aa(lp6
S'timestamp'
p7
aF1.3931689262390137
aatp8
Rp9
.ccollections
OrderedDict
p0
((lp1
(lp2
S'state'
p3
aI0
aa(lp4
S'distance'
p5
aF375.696044921875
aa(lp6
S'timestamp'
p7
aF1.393617868423462
aatp8
Rp9
.ccollections
OrderedDict
p0
((lp1
(lp2
S'state'
p3
aI0
aa(lp4
S'distance'
p5
aF375.696044921875
aa(lp6
S'timestamp'
p7
aF1.3953239917755127
aatp8
Rp9
.ccollections
OrderedDict
p0
((lp1
(lp2
S'state'
p3
aI0
aa(lp4
S'distance'
p5
aF375.696044921875
aa(lp6
S'timestamp'
p7
aF1.3957059383392334
aatp8
Rp9
.ccollections
OrderedDict
p0
((lp1
(lp2
S'state'
p3
aI0
aa(lp4
S'distance'
p5
aF375.696044921875
aa(lp6
S'timestamp'
p7
aF1.4142589569091797
aatp8
Rp9
.ccollections
OrderedDict
p0
((lp1
(lp2
S'state'
p3
aI0
aa(lp4
S'distance'
p5
aF375.696044921875
aa(lp6
S'timestamp'
p7
aF1.414607048034668
aatp8
Rp9
.ccollections
OrderedDict
p0
((lp1
(lp2
S'state'
p3
aI0
aa(lp4
S'distance'
p5
aF375.696044921875
aa(lp6
S'timestamp'
p7
aF1.4164559841156006
aatp8
Rp9
.ccollections
OrderedDict
p0
((lp1
(lp2
S'state'
p3
aI0
aa(lp4
S'distance'
p5
aF375.696044921875
aa(lp6
S'timestamp'
p7
aF1.4165959358215332
aatp8
Rp9
.ccollections
OrderedDict
p0
((lp1
(lp2
S'state'
p3
aI0
aa(lp4
S'distance'
p5
aF375.696044921875
aa(lp6
S'timestamp'
p7
aF1.422677993774414
aatp8
Rp9
.ccollections
OrderedDict
p0
((lp1
(lp2
S'state'
p3
aI0
aa(lp4
S'distance'
p5
aF375.696044921875
aa(lp6
S'timestamp'
p7
aF1.4235408306121826
aatp8
Rp9
.ccollections
OrderedDict
p0
((lp1
(lp2
S'state'
p3
aI0
aa(lp4
S'distance'
p5
aF375.696044921875
aa(lp6
S'timestamp'
p7
aF1.44278883934021
aatp8
Rp9
.ccollections
OrderedDict
p0
((lp1
(lp2
S'state'
p3
aI0
aa(lp4
S'distance'
p5
aF375.696044921875
aa(lp6
S'timestamp'
p7
aF1.4432828426361084
aatp8
Rp9
.ccollections
OrderedDict
p0
((lp1
(lp2
S'state'
p3
aI0
aa(lp4
S'distance'
p5
aF375.696044921875
aa(lp6
S'timestamp'
p7
aF1.4442570209503174
aatp8
Rp9
.ccollections
OrderedDict
p0
((lp1
(lp2
S'state'
p3
aI0
aa(lp4
S'distance'
p5
aF375.696044921875
aa(lp6
S'timestamp'
p7
aF1.4443979263305664
aatp8
Rp9
.ccollections
OrderedDict
p0
((lp1
(lp2
S'state'
p3
aI0
aa(lp4
S'distance'
p5
aF375.696044921875
aa(lp6
S'timestamp'
p7
aF1.4527578353881836
aatp8
Rp9
.ccollections
OrderedDict
p0
((lp1
(lp2
S'state'
p3
aI0
aa(lp4
S'distance'
p5
aF375.696044921875
aa(lp6
S'timestamp'
p7
aF1.453415870666504
aatp8
Rp9
.ccollections
OrderedDict
p0
((lp1
(lp2
S'state'
p3
aI0
aa(lp4
S'distance'
p5
aF375.696044921875
aa(lp6
S'timestamp'
p7
aF1.4627819061279297
aatp8
Rp9
.ccollections
OrderedDict
p0
((lp1
(lp2
S'state'
p3
aI0
aa(lp4
S'distance'
p5
aF375.696044921875
aa(lp6
S'timestamp'
p7
aF1.472743034362793
aatp8
Rp9
.ccollections
OrderedDict
p0
((lp1
(lp2
S'state'
p3
aI0
aa(lp4
S'distance'
p5
aF375.696044921875
aa(lp6
S'timestamp'
p7
aF1.473510980606079
aatp8
Rp9
.ccollections
OrderedDict
p0
((lp1
(lp2
S'state'
p3
aI0
aa(lp4
S'distance'
p5
aF375.696044921875
aa(lp6
S'timestamp'
p7
aF1.4741089344024658
aatp8
Rp9
.ccollections
OrderedDict
p0
((lp1
(lp2
S'state'
p3
aI0
aa(lp4
S'distance'
p5
aF375.696044921875
aa(lp6
S'timestamp'
p7
aF1.4828698635101318
aatp8
Rp9
.ccollections
OrderedDict
p0
((lp1
(lp2
S'state'
p3
aI0
aa(lp4
S'distance'
p5
aF375.696044921875
aa(lp6
S'timestamp'
p7
aF1.4938149452209473
aatp8
Rp9
.ccollections
OrderedDict
p0
((lp1
(lp2
S'state'
p3
aI0
aa(lp4
S'distance'
p5
aF375.696044921875
aa(lp6
S'timestamp'
p7
aF1.4940869808197021
aatp8
Rp9
.ccollections
OrderedDict
p0
((lp1
(lp2
S'state'
p3
aI0
aa(lp4
S'distance'
p5
aF375.696044921875
aa(lp6
S'timestamp'
p7
aF1.4942679405212402
aatp8
Rp9
.ccollections
OrderedDict
p0
((lp1
(lp2
S'state'
p3
aI0
aa(lp4
S'distance'
p5
aF375.696044921875
aa(lp6
S'timestamp'
p7
aF1.5035929679870605
aatp8
Rp9
.ccollections
OrderedDict
p0
((lp1
(lp2
S'state'
p3
aI0
aa(lp4
S'distance'
p5
aF375.696044921875
aa(lp6
S'timestamp'
p7
aF1.504734992980957
aatp8
Rp9
.ccollections
OrderedDict
p0
((lp1
(lp2
S'state'
p3
aI0
aa(lp4
S'distance'
p5
aF375.696044921875
aa(lp6
S'timestamp'
p7
aF1.5129549503326416
aatp8
Rp9
.ccollections
OrderedDict
p0
((lp1
(lp2
S'state'
p3
aI0
aa(lp4
S'distance'
p5
aF375.696044921875
aa(lp6
S'timestamp'
p7
aF1.5134799480438232
aatp8
Rp9
.ccollections
OrderedDict
p0
((lp1
(lp2
S'state'
p3
aI0
aa(lp4
S'distance'
p5
aF375.696044921875
aa(lp6
S'timestamp'
p7
aF1.5228238105773926
aatp8
Rp9
.ccollections
OrderedDict
p0
((lp1
(lp2
S'state'
p3
aI0
aa(lp4
S'distance'
p5
aF375.696044921875
aa(lp6
S'timestamp'
p7
aF1.5237269401550293
aatp8
Rp9
.ccollections
OrderedDict
p0
((lp1
(lp2
S'state'
p3
aI0
aa(lp4
S'distance'
p5
aF375.696044921875
aa(lp6
S'timestamp'
p7
aF1.5327589511871338
aatp8
Rp9
.ccollections
OrderedDict
p0
((lp1
(lp2
S'state'
p3
aI0
aa(lp4
S'distance'
p5
aF375.696044921875
aa(lp6
S'timestamp'
p7
aF1.534341812133789
aatp8
Rp9
.ccollections
OrderedDict
p0
((lp1
(lp2
S'state'
p3
aI0
aa(lp4
S'distance'
p5
aF375.696044921875
aa(lp6
S'timestamp'
p7
aF1.5437099933624268
aatp8
Rp9
.ccollections
OrderedDict
p0
((lp1
(lp2
S'state'
p3
aI0
aa(lp4
S'distance'
p5
aF375.696044921875
aa(lp6
S'timestamp'
p7
aF1.5441949367523193
aatp8
Rp9
.ccollections
OrderedDict
p0
((lp1
(lp2
S'state'
p3
aI0
aa(lp4
S'distance'
p5
aF375.696044921875
aa(lp6
S'timestamp'
p7
aF1.552945852279663
aatp8
Rp9
.ccollections
OrderedDict
p0
((lp1
(lp2
S'state'
p3
aI0
aa(lp4
S'distance'
p5
aF375.696044921875
aa(lp6
S'timestamp'
p7
aF1.553804874420166
aatp8
Rp9
.ccollections
OrderedDict
p0
((lp1
(lp2
S'state'
p3
aI0
aa(lp4
S'distance'
p5
aF375.696044921875
aa(lp6
S'timestamp'
p7
aF1.5628550052642822
aatp8
Rp9
.ccollections
OrderedDict
p0
((lp1
(lp2
S'state'
p3
aI0
aa(lp4
S'distance'
p5
aF375.696044921875
aa(lp6
S'timestamp'
p7
aF1.56345796585083
aatp8
Rp9
.ccollections
OrderedDict
p0
((lp1
(lp2
S'state'
p3
aI0
aa(lp4
S'distance'
p5
aF375.696044921875
aa(lp6
S'timestamp'
p7
aF1.5730528831481934
aatp8
Rp9
.ccollections
OrderedDict
p0
((lp1
(lp2
S'state'
p3
aI0
aa(lp4
S'distance'
p5
aF375.696044921875
aa(lp6
S'timestamp'
p7
aF1.5736398696899414
aatp8
Rp9
.ccollections
OrderedDict
p0
((lp1
(lp2
S'state'
p3
aI0
aa(lp4
S'distance'
p5
aF375.696044921875
aa(lp6
S'timestamp'
p7
aF1.583076000213623
aatp8
Rp9
.ccollections
OrderedDict
p0
((lp1
(lp2
S'state'
p3
aI0
aa(lp4
S'distance'
p5
aF375.696044921875
aa(lp6
S'timestamp'
p7
aF1.5838730335235596
aatp8
Rp9
.ccollections
OrderedDict
p0
((lp1
(lp2
S'state'
p3
aI0
aa(lp4
S'distance'
p5
aF375.696044921875
aa(lp6
S'timestamp'
p7
aF1.5927200317382812
aatp8
Rp9
.ccollections
OrderedDict
p0
((lp1
(lp2
S'state'
p3
aI0
aa(lp4
S'distance'
p5
aF375.696044921875
aa(lp6
S'timestamp'
p7
aF1.5941088199615479
aatp8
Rp9
.ccollections
OrderedDict
p0
((lp1
(lp2
S'state'
p3
aI0
aa(lp4
S'distance'
p5
aF375.696044921875
aa(lp6
S'timestamp'
p7
aF1.602686882019043
aatp8
Rp9
.ccollections
OrderedDict
p0
((lp1
(lp2
S'state'
p3
aI0
aa(lp4
S'distance'
p5
aF375.696044921875
aa(lp6
S'timestamp'
p7
aF1.6038010120391846
aatp8
Rp9
.ccollections
OrderedDict
p0
((lp1
(lp2
S'state'
p3
aI0
aa(lp4
S'distance'
p5
aF375.696044921875
aa(lp6
S'timestamp'
p7
aF1.612813949584961
aatp8
Rp9
.ccollections
OrderedDict
p0
((lp1
(lp2
S'state'
p3
aI0
aa(lp4
S'distance'
p5
aF375.696044921875
aa(lp6
S'timestamp'
p7
aF1.6135139465332031
aatp8
Rp9
.ccollections
OrderedDict
p0
((lp1
(lp2
S'state'
p3
aI0
aa(lp4
S'distance'
p5
aF375.696044921875
aa(lp6
S'timestamp'
p7
aF1.6226909160614014
aatp8
Rp9
.ccollections
OrderedDict
p0
((lp1
(lp2
S'state'
p3
aI0
aa(lp4
S'distance'
p5
aF375.696044921875
aa(lp6
S'timestamp'
p7
aF1.623642921447754
aatp8
Rp9
.ccollections
OrderedDict
p0
((lp1
(lp2
S'state'
p3
aI0
aa(lp4
S'distance'
p5
aF375.696044921875
aa(lp6
S'timestamp'
p7
aF1.6328818798065186
aatp8
Rp9
.ccollections
OrderedDict
p0
((lp1
(lp2
S'state'
p3
aI0
aa(lp4
S'distance'
p5
aF375.696044921875
aa(lp6
S'timestamp'
p7
aF1.6339750289916992
aatp8
Rp9
.ccollections
OrderedDict
p0
((lp1
(lp2
S'state'
p3
aI0
aa(lp4
S'distance'
p5
aF375.696044921875
aa(lp6
S'timestamp'
p7
aF1.6429078578948975
aatp8
Rp9
.ccollections
OrderedDict
p0
((lp1
(lp2
S'state'
p3
aI0
aa(lp4
S'distance'
p5
aF375.696044921875
aa(lp6
S'timestamp'
p7
aF1.6438558101654053
aatp8
Rp9
.ccollections
OrderedDict
p0
((lp1
(lp2
S'state'
p3
aI0
aa(lp4
S'distance'
p5
aF375.696044921875
aa(lp6
S'timestamp'
p7
aF1.6529719829559326
aatp8
Rp9
.ccollections
OrderedDict
p0
((lp1
(lp2
S'state'
p3
aI0
aa(lp4
S'distance'
p5
aF375.696044921875
aa(lp6
S'timestamp'
p7
aF1.6565399169921875
aatp8
Rp9
.ccollections
OrderedDict
p0
((lp1
(lp2
S'state'
p3
aI0
aa(lp4
S'distance'
p5
aF375.696044921875
aa(lp6
S'timestamp'
p7
aF1.6633830070495605
aatp8
Rp9
.ccollections
OrderedDict
p0
((lp1
(lp2
S'state'
p3
aI0
aa(lp4
S'distance'
p5
aF375.696044921875
aa(lp6
S'timestamp'
p7
aF1.66536283493042
aatp8
Rp9
.ccollections
OrderedDict
p0
((lp1
(lp2
S'state'
p3
aI0
aa(lp4
S'distance'
p5
aF375.696044921875
aa(lp6
S'timestamp'
p7
aF1.6728389263153076
aatp8
Rp9
.ccollections
OrderedDict
p0
((lp1
(lp2
S'state'
p3
aI0
aa(lp4
S'distance'
p5
aF375.696044921875
aa(lp6
S'timestamp'
p7
aF1.6735529899597168
aatp8
Rp9
.ccollections
OrderedDict
p0
((lp1
(lp2
S'state'
p3
aI0
aa(lp4
S'distance'
p5
aF375.696044921875
aa(lp6
S'timestamp'
p7
aF1.682770013809204
aatp8
Rp9
.ccollections
OrderedDict
p0
((lp1
(lp2
S'state'
p3
aI0
aa(lp4
S'distance'
p5
aF375.696044921875
aa(lp6
S'timestamp'
p7
aF1.683910846710205
aatp8
Rp9
.ccollections
OrderedDict
p0
((lp1
(lp2
S'state'
p3
aI0
aa(lp4
S'distance'
p5
aF375.696044921875
aa(lp6
S'timestamp'
p7
aF1.6929218769073486
aatp8
Rp9
.ccollections
OrderedDict
p0
((lp1
(lp2
S'state'
p3
aI0
aa(lp4
S'distance'
p5
aF375.696044921875
aa(lp6
S'timestamp'
p7
aF1.694234848022461
aatp8
Rp9
.ccollections
OrderedDict
p0
((lp1
(lp2
S'state'
p3
aI0
aa(lp4
S'distance'
p5
aF375.696044921875
aa(lp6
S'timestamp'
p7
aF1.7030320167541504
aatp8
Rp9
.ccollections
OrderedDict
p0
((lp1
(lp2
S'state'
p3
aI0
aa(lp4
S'distance'
p5
aF375.696044921875
aa(lp6
S'timestamp'
p7
aF1.7041008472442627
aatp8
Rp9
.ccollections
OrderedDict
p0
((lp1
(lp2
S'state'
p3
aI0
aa(lp4
S'distance'
p5
aF375.696044921875
aa(lp6
S'timestamp'
p7
aF1.7126410007476807
aatp8
Rp9
.ccollections
OrderedDict
p0
((lp1
(lp2
S'state'
p3
aI0
aa(lp4
S'distance'
p5
aF375.696044921875
aa(lp6
S'timestamp'
p7
aF1.7135848999023438
aatp8
Rp9
.ccollections
OrderedDict
p0
((lp1
(lp2
S'state'
p3
aI0
aa(lp4
S'distance'
p5
aF375.696044921875
aa(lp6
S'timestamp'
p7
aF1.7227609157562256
aatp8
Rp9
.ccollections
OrderedDict
p0
((lp1
(lp2
S'state'
p3
aI0
aa(lp4
S'distance'
p5
aF375.696044921875
aa(lp6
S'timestamp'
p7
aF1.7237930297851562
aatp8
Rp9
.ccollections
OrderedDict
p0
((lp1
(lp2
S'state'
p3
aI0
aa(lp4
S'distance'
p5
aF375.696044921875
aa(lp6
S'timestamp'
p7
aF1.7330389022827148
aatp8
Rp9
.ccollections
OrderedDict
p0
((lp1
(lp2
S'state'
p3
aI0
aa(lp4
S'distance'
p5
aF375.696044921875
aa(lp6
S'timestamp'
p7
aF1.7333300113677979
aatp8
Rp9
.ccollections
OrderedDict
p0
((lp1
(lp2
S'state'
p3
aI0
aa(lp4
S'distance'
p5
aF375.696044921875
aa(lp6
S'timestamp'
p7
aF1.7529728412628174
aatp8
Rp9
.ccollections
OrderedDict
p0
((lp1
(lp2
S'state'
p3
aI0
aa(lp4
S'distance'
p5
aF375.696044921875
aa(lp6
S'timestamp'
p7
aF1.7534708976745605
aatp8
Rp9
.ccollections
OrderedDict
p0
((lp1
(lp2
S'state'
p3
aI0
aa(lp4
S'distance'
p5
aF375.696044921875
aa(lp6
S'timestamp'
p7
aF1.75581693649292
aatp8
Rp9
.ccollections
OrderedDict
p0
((lp1
(lp2
S'state'
p3
aI0
aa(lp4
S'distance'
p5
aF375.696044921875
aa(lp6
S'timestamp'
p7
aF1.7559669017791748
aatp8
Rp9
.ccollections
OrderedDict
p0
((lp1
(lp2
S'state'
p3
aI0
aa(lp4
S'distance'
p5
aF375.696044921875
aa(lp6
S'timestamp'
p7
aF1.76285982131958
aatp8
Rp9
.ccollections
OrderedDict
p0
((lp1
(lp2
S'state'
p3
aI0
aa(lp4
S'distance'
p5
aF375.696044921875
aa(lp6
S'timestamp'
p7
aF1.7639739513397217
aatp8
Rp9
.ccollections
OrderedDict
p0
((lp1
(lp2
S'state'
p3
aI0
aa(lp4
S'distance'
p5
aF375.696044921875
aa(lp6
S'timestamp'
p7
aF1.773068904876709
aatp8
Rp9
.ccollections
OrderedDict
p0
((lp1
(lp2
S'state'
p3
aI0
aa(lp4
S'distance'
p5
aF375.696044921875
aa(lp6
S'timestamp'
p7
aF1.773439884185791
aatp8
Rp9
.ccollections
OrderedDict
p0
((lp1
(lp2
S'state'
p3
aI0
aa(lp4
S'distance'
p5
aF375.696044921875
aa(lp6
S'timestamp'
p7
aF1.7826638221740723
aatp8
Rp9
.ccollections
OrderedDict
p0
((lp1
(lp2
S'state'
p3
aI0
aa(lp4
S'distance'
p5
aF375.696044921875
aa(lp6
S'timestamp'
p7
aF1.7836430072784424
aatp8
Rp9
.ccollections
OrderedDict
p0
((lp1
(lp2
S'state'
p3
aI0
aa(lp4
S'distance'
p5
aF375.696044921875
aa(lp6
S'timestamp'
p7
aF1.8029489517211914
aatp8
Rp9
.ccollections
OrderedDict
p0
((lp1
(lp2
S'state'
p3
aI0
aa(lp4
S'distance'
p5
aF375.696044921875
aa(lp6
S'timestamp'
p7
aF1.803520917892456
aatp8
Rp9
.ccollections
OrderedDict
p0
((lp1
(lp2
S'state'
p3
aI0
aa(lp4
S'distance'
p5
aF375.696044921875
aa(lp6
S'timestamp'
p7
aF1.8053088188171387
aatp8
Rp9
.ccollections
OrderedDict
p0
((lp1
(lp2
S'state'
p3
aI0
aa(lp4
S'distance'
p5
aF375.696044921875
aa(lp6
S'timestamp'
p7
aF1.8059289455413818
aatp8
Rp9
.ccollections
OrderedDict
p0
((lp1
(lp2
S'state'
p3
aI0
aa(lp4
S'distance'
p5
aF375.696044921875
aa(lp6
S'timestamp'
p7
aF1.8237450122833252
aatp8
Rp9
.ccollections
OrderedDict
p0
((lp1
(lp2
S'state'
p3
aI0
aa(lp4
S'distance'
p5
aF375.696044921875
aa(lp6
S'timestamp'
p7
aF1.82401704788208
aatp8
Rp9
.ccollections
OrderedDict
p0
((lp1
(lp2
S'state'
p3
aI0
aa(lp4
S'distance'
p5
aF375.696044921875
aa(lp6
S'timestamp'
p7
aF1.8243868350982666
aatp8
Rp9
.ccollections
OrderedDict
p0
((lp1
(lp2
S'state'
p3
aI0
aa(lp4
S'distance'
p5
aF375.696044921875
aa(lp6
S'timestamp'
p7
aF1.8246049880981445
aatp8
Rp9
.ccollections
OrderedDict
p0
((lp1
(lp2
S'state'
p3
aI0
aa(lp4
S'distance'
p5
aF375.696044921875
aa(lp6
S'timestamp'
p7
aF1.832702875137329
aatp8
Rp9
.ccollections
OrderedDict
p0
((lp1
(lp2
S'state'
p3
aI0
aa(lp4
S'distance'
p5
aF375.696044921875
aa(lp6
S'timestamp'
p7
aF1.834014892578125
aatp8
Rp9
.ccollections
OrderedDict
p0
((lp1
(lp2
S'state'
p3
aI0
aa(lp4
S'distance'
p5
aF375.696044921875
aa(lp6
S'timestamp'
p7
aF1.863297939300537
aatp8
Rp9
.ccollections
OrderedDict
p0
((lp1
(lp2
S'state'
p3
aI0
aa(lp4
S'distance'
p5
aF375.696044921875
aa(lp6
S'timestamp'
p7
aF1.8634898662567139
aatp8
Rp9
.ccollections
OrderedDict
p0
((lp1
(lp2
S'state'
p3
aI400
aa(lp4
S'distance'
p5
aF375.696044921875
aa(lp6
S'timestamp'
p7
aF1.865015983581543
aatp8
Rp9
.ccollections
OrderedDict
p0
((lp1
(lp2
S'state'
p3
aI400
aa(lp4
S'distance'
p5
aF375.696044921875
aa(lp6
S'timestamp'
p7
aF1.8657338619232178
aatp8
Rp9
.ccollections
OrderedDict
p0
((lp1
(lp2
S'state'
p3
aI400
aa(lp4
S'distance'
p5
aF375.696044921875
aa(lp6
S'timestamp'
p7
aF1.8727209568023682
aatp8
Rp9
.ccollections
OrderedDict
p0
((lp1
(lp2
S'state'
p3
aI400
aa(lp4
S'distance'
p5
aF375.696044921875
aa(lp6
S'timestamp'
p7
aF1.8733959197998047
aatp8
Rp9
.ccollections
OrderedDict
p0
((lp1
(lp2
S'state'
p3
aI400
aa(lp4
S'distance'
p5
aF375.696044921875
aa(lp6
S'timestamp'
p7
aF1.8755848407745361
aatp8
Rp9
.ccollections
OrderedDict
p0
((lp1
(lp2
S'state'
p3
aI400
aa(lp4
S'distance'
p5
aF375.696044921875
aa(lp6
S'timestamp'
p7
aF1.8770349025726318
aatp8
Rp9
.ccollections
OrderedDict
p0
((lp1
(lp2
S'state'
p3
aI400
aa(lp4
S'distance'
p5
aF375.696044921875
aa(lp6
S'timestamp'
p7
aF1.8854408264160156
aatp8
Rp9
.ccollections
OrderedDict
p0
((lp1
(lp2
S'state'
p3
aI400
aa(lp4
S'distance'
p5
aF375.696044921875
aa(lp6
S'timestamp'
p7
aF1.8856899738311768
aatp8
Rp9
.ccollections
OrderedDict
p0
((lp1
(lp2
S'state'
p3
aI400
aa(lp4
S'distance'
p5
aF375.696044921875
aa(lp6
S'timestamp'
p7
aF1.8992269039154053
aatp8
Rp9
.ccollections
OrderedDict
p0
((lp1
(lp2
S'state'
p3
aI400
aa(lp4
S'distance'
p5
aF375.696044921875
aa(lp6
S'timestamp'
p7
aF1.9004778861999512
aatp8
Rp9
.ccollections
OrderedDict
p0
((lp1
(lp2
S'state'
p3
aI400
aa(lp4
S'distance'
p5
aF375.696044921875
aa(lp6
S'timestamp'
p7
aF1.9031989574432373
aatp8
Rp9
.ccollections
OrderedDict
p0
((lp1
(lp2
S'state'
p3
aI400
aa(lp4
S'distance'
p5
aF375.696044921875
aa(lp6
S'timestamp'
p7
aF1.9062538146972656
aatp8
Rp9
.ccollections
OrderedDict
p0
((lp1
(lp2
S'state'
p3
aI400
aa(lp4
S'distance'
p5
aF375.696044921875
aa(lp6
S'timestamp'
p7
aF1.9133679866790771
aatp8
Rp9
.ccollections
OrderedDict
p0
((lp1
(lp2
S'state'
p3
aI400
aa(lp4
S'distance'
p5
aF375.696044921875
aa(lp6
S'timestamp'
p7
aF1.9144768714904785
aatp8
Rp9
.ccollections
OrderedDict
p0
((lp1
(lp2
S'state'
p3
aI400
aa(lp4
S'distance'
p5
aF375.696044921875
aa(lp6
S'timestamp'
p7
aF1.9227449893951416
aatp8
Rp9
.ccollections
OrderedDict
p0
((lp1
(lp2
S'state'
p3
aI400
aa(lp4
S'distance'
p5
aF375.696044921875
aa(lp6
S'timestamp'
p7
aF1.9234378337860107
aatp8
Rp9
.ccollections
OrderedDict
p0
((lp1
(lp2
S'state'
p3
aI400
aa(lp4
S'distance'
p5
aF375.696044921875
aa(lp6
S'timestamp'
p7
aF1.9328389167785645
aatp8
Rp9
.ccollections
OrderedDict
p0
((lp1
(lp2
S'state'
p3
aI400
aa(lp4
S'distance'
p5
aF375.696044921875
aa(lp6
S'timestamp'
p7
aF1.933457851409912
aatp8
Rp9
.ccollections
OrderedDict
p0
((lp1
(lp2
S'state'
p3
aI400
aa(lp4
S'distance'
p5
aF375.696044921875
aa(lp6
S'timestamp'
p7
aF1.9428939819335938
aatp8
Rp9
.ccollections
OrderedDict
p0
((lp1
(lp2
S'state'
p3
aI400
aa(lp4
S'distance'
p5
aF375.696044921875
aa(lp6
S'timestamp'
p7
aF1.9439568519592285
aatp8
Rp9
.ccollections
OrderedDict
p0
((lp1
(lp2
S'state'
p3
aI400
aa(lp4
S'distance'
p5
aF375.696044921875
aa(lp6
S'timestamp'
p7
aF1.9529809951782227
aatp8
Rp9
.ccollections
OrderedDict
p0
((lp1
(lp2
S'state'
p3
aI400
aa(lp4
S'distance'
p5
aF375.696044921875
aa(lp6
S'timestamp'
p7
aF1.954103946685791
aatp8
Rp9
.ccollections
OrderedDict
p0
((lp1
(lp2
S'state'
p3
aI400
aa(lp4
S'distance'
p5
aF375.696044921875
aa(lp6
S'timestamp'
p7
aF1.9628949165344238
aatp8
Rp9
.ccollections
OrderedDict
p0
((lp1
(lp2
S'state'
p3
aI400
aa(lp4
S'distance'
p5
aF375.696044921875
aa(lp6
S'timestamp'
p7
aF1.9635858535766602
aatp8
Rp9
.ccollections
OrderedDict
p0
((lp1
(lp2
S'state'
p3
aI400
aa(lp4
S'distance'
p5
aF375.696044921875
aa(lp6
S'timestamp'
p7
aF1.9727299213409424
aatp8
Rp9
.ccollections
OrderedDict
p0
((lp1
(lp2
S'state'
p3
aI400
aa(lp4
S'distance'
p5
aF375.696044921875
aa(lp6
S'timestamp'
p7
aF1.9744069576263428
aatp8
Rp9
.ccollections
OrderedDict
p0
((lp1
(lp2
S'state'
p3
aI400
aa(lp4
S'distance'
p5
aF375.696044921875
aa(lp6
S'timestamp'
p7
aF1.9827020168304443
aatp8
Rp9
.ccollections
OrderedDict
p0
((lp1
(lp2
S'state'
p3
aI400
aa(lp4
S'distance'
p5
aF375.696044921875
aa(lp6
S'timestamp'
p7
aF1.9837968349456787
aatp8
Rp9
.ccollections
OrderedDict
p0
((lp1
(lp2
S'state'
p3
aI400
aa(lp4
S'distance'
p5
aF375.696044921875
aa(lp6
S'timestamp'
p7
aF1.9930109977722168
aatp8
Rp9
.ccollections
OrderedDict
p0
((lp1
(lp2
S'state'
p3
aI400
aa(lp4
S'distance'
p5
aF375.696044921875
aa(lp6
S'timestamp'
p7
aF1.9934439659118652
aatp8
Rp9
.ccollections
OrderedDict
p0
((lp1
(lp2
S'state'
p3
aI400
aa(lp4
S'distance'
p5
aF375.696044921875
aa(lp6
S'timestamp'
p7
aF2.014861822128296
aatp8
Rp9
.ccollections
OrderedDict
p0
((lp1
(lp2
S'state'
p3
aI400
aa(lp4
S'distance'
p5
aF375.696044921875
aa(lp6
S'timestamp'
p7
aF2.015542984008789
aatp8
Rp9
.ccollections
OrderedDict
p0
((lp1
(lp2
S'state'
p3
aI400
aa(lp4
S'distance'
p5
aF375.696044921875
aa(lp6
S'timestamp'
p7
aF2.0160489082336426
aatp8
Rp9
.ccollections
OrderedDict
p0
((lp1
(lp2
S'state'
p3
aI400
aa(lp4
S'distance'
p5
aF375.696044921875
aa(lp6
S'timestamp'
p7
aF2.0169968605041504
aatp8
Rp9
.ccollections
OrderedDict
p0
((lp1
(lp2
S'state'
p3
aI400
aa(lp4
S'distance'
p5
aF375.696044921875
aa(lp6
S'timestamp'
p7
aF2.022944927215576
aatp8
Rp9
.ccollections
OrderedDict
p0
((lp1
(lp2
S'state'
p3
aI400
aa(lp4
S'distance'
p5
aF375.696044921875
aa(lp6
S'timestamp'
p7
aF2.023653984069824
aatp8
Rp9
.ccollections
OrderedDict
p0
((lp1
(lp2
S'state'
p3
aI400
aa(lp4
S'distance'
p5
aF375.696044921875
aa(lp6
S'timestamp'
p7
aF2.033267021179199
aatp8
Rp9
.ccollections
OrderedDict
p0
((lp1
(lp2
S'state'
p3
aI400
aa(lp4
S'distance'
p5
aF375.696044921875
aa(lp6
S'timestamp'
p7
aF2.03377103805542
aatp8
Rp9
.ccollections
OrderedDict
p0
((lp1
(lp2
S'state'
p3
aI400
aa(lp4
S'distance'
p5
aF375.696044921875
aa(lp6
S'timestamp'
p7
aF2.042841911315918
aatp8
Rp9
.ccollections
OrderedDict
p0
((lp1
(lp2
S'state'
p3
aI400
aa(lp4
S'distance'
p5
aF375.696044921875
aa(lp6
S'timestamp'
p7
aF2.0435118675231934
aatp8
Rp9
.ccollections
OrderedDict
p0
((lp1
(lp2
S'state'
p3
aI400
aa(lp4
S'distance'
p5
aF375.696044921875
aa(lp6
S'timestamp'
p7
aF2.0632879734039307
aatp8
Rp9
.ccollections
OrderedDict
p0
((lp1
(lp2
S'state'
p3
aI400
aa(lp4
S'distance'
p5
aF375.696044921875
aa(lp6
S'timestamp'
p7
aF2.063467025756836
aatp8
Rp9
.ccollections
OrderedDict
p0
((lp1
(lp2
S'state'
p3
aI400
aa(lp4
S'distance'
p5
aF375.696044921875
aa(lp6
S'timestamp'
p7
aF2.0649490356445312
aatp8
Rp9
.ccollections
OrderedDict
p0
((lp1
(lp2
S'state'
p3
aI400
aa(lp4
S'distance'
p5
aF375.696044921875
aa(lp6
S'timestamp'
p7
aF2.065871000289917
aatp8
Rp9
.ccollections
OrderedDict
p0
((lp1
(lp2
S'state'
p3
aI400
aa(lp4
S'distance'
p5
aF375.696044921875
aa(lp6
S'timestamp'
p7
aF2.072695016860962
aatp8
Rp9
.ccollections
OrderedDict
p0
((lp1
(lp2
S'state'
p3
aI400
aa(lp4
S'distance'
p5
aF375.696044921875
aa(lp6
S'timestamp'
p7
aF2.073560953140259
aatp8
Rp9
.ccollections
OrderedDict
p0
((lp1
(lp2
S'state'
p3
aI400
aa(lp4
S'distance'
p5
aF375.696044921875
aa(lp6
S'timestamp'
p7
aF2.083209991455078
aatp8
Rp9
.ccollections
OrderedDict
p0
((lp1
(lp2
S'state'
p3
aI400
aa(lp4
S'distance'
p5
aF375.696044921875
aa(lp6
S'timestamp'
p7
aF2.0834310054779053
aatp8
Rp9
.ccollections
OrderedDict
p0
((lp1
(lp2
S'state'
p3
aI400
aa(lp4
S'distance'
p5
aF375.696044921875
aa(lp6
S'timestamp'
p7
aF2.0928728580474854
aatp8
Rp9
.ccollections
OrderedDict
p0
((lp1
(lp2
S'state'
p3
aI400
aa(lp4
S'distance'
p5
aF375.696044921875
aa(lp6
S'timestamp'
p7
aF2.093832015991211
aatp8
Rp9
.ccollections
OrderedDict
p0
((lp1
(lp2
S'state'
p3
aI400
aa(lp4
S'distance'
p5
aF375.696044921875
aa(lp6
S'timestamp'
p7
aF2.1026840209960938
aatp8
Rp9
.ccollections
OrderedDict
p0
((lp1
(lp2
S'state'
p3
aI400
aa(lp4
S'distance'
p5
aF375.696044921875
aa(lp6
S'timestamp'
p7
aF2.103710889816284
aatp8
Rp9
.ccollections
OrderedDict
p0
((lp1
(lp2
S'state'
p3
aI400
aa(lp4
S'distance'
p5
aF375.696044921875
aa(lp6
S'timestamp'
p7
aF2.1126530170440674
aatp8
Rp9
.ccollections
OrderedDict
p0
((lp1
(lp2
S'state'
p3
aI400
aa(lp4
S'distance'
p5
aF375.696044921875
aa(lp6
S'timestamp'
p7
aF2.1137709617614746
aatp8
Rp9
.ccollections
OrderedDict
p0
((lp1
(lp2
S'state'
p3
aI400
aa(lp4
S'distance'
p5
aF375.696044921875
aa(lp6
S'timestamp'
p7
aF2.122704029083252
aatp8
Rp9
.ccollections
OrderedDict
p0
((lp1
(lp2
S'state'
p3
aI400
aa(lp4
S'distance'
p5
aF375.696044921875
aa(lp6
S'timestamp'
p7
aF2.123502016067505
aatp8
Rp9
.ccollections
OrderedDict
p0
((lp1
(lp2
S'state'
p3
aI400
aa(lp4
S'distance'
p5
aF375.696044921875
aa(lp6
S'timestamp'
p7
aF2.132884979248047
aatp8
Rp9
.ccollections
OrderedDict
p0
((lp1
(lp2
S'state'
p3
aI400
aa(lp4
S'distance'
p5
aF375.696044921875
aa(lp6
S'timestamp'
p7
aF2.1342029571533203
aatp8
Rp9
.ccollections
OrderedDict
p0
((lp1
(lp2
S'state'
p3
aI400
aa(lp4
S'distance'
p5
aF375.696044921875
aa(lp6
S'timestamp'
p7
aF2.143131971359253
aatp8
Rp9
.ccollections
OrderedDict
p0
((lp1
(lp2
S'state'
p3
aI400
aa(lp4
S'distance'
p5
aF375.696044921875
aa(lp6
S'timestamp'
p7
aF2.143259048461914
aatp8
Rp9
.ccollections
OrderedDict
p0
((lp1
(lp2
S'state'
p3
aI400
aa(lp4
S'distance'
p5
aF375.696044921875
aa(lp6
S'timestamp'
p7
aF2.1529369354248047
aatp8
Rp9
.ccollections
OrderedDict
p0
((lp1
(lp2
S'state'
p3
aI400
aa(lp4
S'distance'
p5
aF375.696044921875
aa(lp6
S'timestamp'
p7
aF2.1535098552703857
aatp8
Rp9
.ccollections
OrderedDict
p0
((lp1
(lp2
S'state'
p3
aI400
aa(lp4
S'distance'
p5
aF375.696044921875
aa(lp6
S'timestamp'
p7
aF2.1626598834991455
aatp8
Rp9
.ccollections
OrderedDict
p0
((lp1
(lp2
S'state'
p3
aI400
aa(lp4
S'distance'
p5
aF375.696044921875
aa(lp6
S'timestamp'
p7
aF2.1635630130767822
aatp8
Rp9
.ccollections
OrderedDict
p0
((lp1
(lp2
S'state'
p3
aI400
aa(lp4
S'distance'
p5
aF375.696044921875
aa(lp6
S'timestamp'
p7
aF2.1729068756103516
aatp8
Rp9
.ccollections
OrderedDict
p0
((lp1
(lp2
S'state'
p3
aI400
aa(lp4
S'distance'
p5
aF375.696044921875
aa(lp6
S'timestamp'
p7
aF2.173454999923706
aatp8
Rp9
.ccollections
OrderedDict
p0
((lp1
(lp2
S'state'
p3
aI400
aa(lp4
S'distance'
p5
aF375.696044921875
aa(lp6
S'timestamp'
p7
aF2.182675838470459
aatp8
Rp9
.ccollections
OrderedDict
p0
((lp1
(lp2
S'state'
p3
aI400
aa(lp4
S'distance'
p5
aF375.696044921875
aa(lp6
S'timestamp'
p7
aF2.1836869716644287
aatp8
Rp9
.ccollections
OrderedDict
p0
((lp1
(lp2
S'state'
p3
aI400
aa(lp4
S'distance'
p5
aF375.696044921875
aa(lp6
S'timestamp'
p7
aF2.19256591796875
aatp8
Rp9
.ccollections
OrderedDict
p0
((lp1
(lp2
S'state'
p3
aI400
aa(lp4
S'distance'
p5
aF375.696044921875
aa(lp6
S'timestamp'
p7
aF2.193485975265503
aatp8
Rp9
.ccollections
OrderedDict
p0
((lp1
(lp2
S'state'
p3
aI400
aa(lp4
S'distance'
p5
aF375.696044921875
aa(lp6
S'timestamp'
p7
aF2.2028608322143555
aatp8
Rp9
.ccollections
OrderedDict
p0
((lp1
(lp2
S'state'
p3
aI400
aa(lp4
S'distance'
p5
aF375.696044921875
aa(lp6
S'timestamp'
p7
aF2.203505039215088
aatp8
Rp9
.ccollections
OrderedDict
p0
((lp1
(lp2
S'state'
p3
aI400
aa(lp4
S'distance'
p5
aF375.696044921875
aa(lp6
S'timestamp'
p7
aF2.2232818603515625
aatp8
Rp9
.ccollections
OrderedDict
p0
((lp1
(lp2
S'state'
p3
aI400
aa(lp4
S'distance'
p5
aF375.696044921875
aa(lp6
S'timestamp'
p7
aF2.2234978675842285
aatp8
Rp9
.ccollections
OrderedDict
p0
((lp1
(lp2
S'state'
p3
aI400
aa(lp4
S'distance'
p5
aF375.696044921875
aa(lp6
S'timestamp'
p7
aF2.2251079082489014
aatp8
Rp9
.ccollections
OrderedDict
p0
((lp1
(lp2
S'state'
p3
aI400
aa(lp4
S'distance'
p5
aF375.696044921875
aa(lp6
S'timestamp'
p7
aF2.2251839637756348
aatp8
Rp9
.ccollections
OrderedDict
p0
((lp1
(lp2
S'state'
p3
aI400
aa(lp4
S'distance'
p5
aF375.696044921875
aa(lp6
S'timestamp'
p7
aF2.233372926712036
aatp8
Rp9
.ccollections
OrderedDict
p0
((lp1
(lp2
S'state'
p3
aI400
aa(lp4
S'distance'
p5
aF375.696044921875
aa(lp6
S'timestamp'
p7
aF2.2340269088745117
aatp8
Rp9
.ccollections
OrderedDict
p0
((lp1
(lp2
S'state'
p3
aI400
aa(lp4
S'distance'
p5
aF375.696044921875
aa(lp6
S'timestamp'
p7
aF2.243945837020874
aatp8
Rp9
.ccollections
OrderedDict
p0
((lp1
(lp2
S'state'
p3
aI400
aa(lp4
S'distance'
p5
aF375.696044921875
aa(lp6
S'timestamp'
p7
aF2.2441229820251465
aatp8
Rp9
.ccollections
OrderedDict
p0
((lp1
(lp2
S'state'
p3
aI400
aa(lp4
S'distance'
p5
aF375.696044921875
aa(lp6
S'timestamp'
p7
aF2.2528209686279297
aatp8
Rp9
.ccollections
OrderedDict
p0
((lp1
(lp2
S'state'
p3
aI400
aa(lp4
S'distance'
p5
aF375.696044921875
aa(lp6
S'timestamp'
p7
aF2.253890037536621
aatp8
Rp9
.ccollections
OrderedDict
p0
((lp1
(lp2
S'state'
p3
aI400
aa(lp4
S'distance'
p5
aF375.696044921875
aa(lp6
S'timestamp'
p7
aF2.2626118659973145
aatp8
Rp9
.ccollections
OrderedDict
p0
((lp1
(lp2
S'state'
p3
aI400
aa(lp4
S'distance'
p5
aF375.696044921875
aa(lp6
S'timestamp'
p7
aF2.263495922088623
aatp8
Rp9
.ccollections
OrderedDict
p0
((lp1
(lp2
S'state'
p3
aI400
aa(lp4
S'distance'
p5
aF375.696044921875
aa(lp6
S'timestamp'
p7
aF2.2726328372955322
aatp8
Rp9
.ccollections
OrderedDict
p0
((lp1
(lp2
S'state'
p3
aI400
aa(lp4
S'distance'
p5
aF375.696044921875
aa(lp6
S'timestamp'
p7
aF2.2735660076141357
aatp8
Rp9
.ccollections
OrderedDict
p0
((lp1
(lp2
S'state'
p3
aI400
aa(lp4
S'distance'
p5
aF375.696044921875
aa(lp6
S'timestamp'
p7
aF2.2826738357543945
aatp8
Rp9
.ccollections
OrderedDict
p0
((lp1
(lp2
S'state'
p3
aI400
aa(lp4
S'distance'
p5
aF375.696044921875
aa(lp6
S'timestamp'
p7
aF2.2835898399353027
aatp8
Rp9
.ccollections
OrderedDict
p0
((lp1
(lp2
S'state'
p3
aI400
aa(lp4
S'distance'
p5
aF375.696044921875
aa(lp6
S'timestamp'
p7
aF2.293401002883911
aatp8
Rp9
.ccollections
OrderedDict
p0
((lp1
(lp2
S'state'
p3
aI400
aa(lp4
S'distance'
p5
aF375.696044921875
aa(lp6
S'timestamp'
p7
aF2.293571949005127
aatp8
Rp9
.ccollections
OrderedDict
p0
((lp1
(lp2
S'state'
p3
aI400
aa(lp4
S'distance'
p5
aF375.696044921875
aa(lp6
S'timestamp'
p7
aF2.302685022354126
aatp8
Rp9
.ccollections
OrderedDict
p0
((lp1
(lp2
S'state'
p3
aI400
aa(lp4
S'distance'
p5
aF375.696044921875
aa(lp6
S'timestamp'
p7
aF2.3037469387054443
aatp8
Rp9
.ccollections
OrderedDict
p0
((lp1
(lp2
S'state'
p3
aI400
aa(lp4
S'distance'
p5
aF375.696044921875
aa(lp6
S'timestamp'
p7
aF2.312582015991211
aatp8
Rp9
.ccollections
OrderedDict
p0
((lp1
(lp2
S'state'
p3
aI400
aa(lp4
S'distance'
p5
aF375.696044921875
aa(lp6
S'timestamp'
p7
aF2.313370943069458
aatp8
Rp9
.ccollections
OrderedDict
p0
((lp1
(lp2
S'state'
p3
aI400
aa(lp4
S'distance'
p5
aF375.696044921875
aa(lp6
S'timestamp'
p7
aF2.322934865951538
aatp8
Rp9
.ccollections
OrderedDict
p0
((lp1
(lp2
S'state'
p3
aI400
aa(lp4
S'distance'
p5
aF375.696044921875
aa(lp6
S'timestamp'
p7
aF2.3235418796539307
aatp8
Rp9
.ccollections
OrderedDict
p0
((lp1
(lp2
S'state'
p3
aI400
aa(lp4
S'distance'
p5
aF375.696044921875
aa(lp6
S'timestamp'
p7
aF2.3327858448028564
aatp8
Rp9
.ccollections
OrderedDict
p0
((lp1
(lp2
S'state'
p3
aI400
aa(lp4
S'distance'
p5
aF375.696044921875
aa(lp6
S'timestamp'
p7
aF2.3333728313446045
aatp8
Rp9
.ccollections
OrderedDict
p0
((lp1
(lp2
S'state'
p3
aI400
aa(lp4
S'distance'
p5
aF375.696044921875
aa(lp6
S'timestamp'
p7
aF2.343127965927124
aatp8
Rp9
.ccollections
OrderedDict
p0
((lp1
(lp2
S'state'
p3
aI400
aa(lp4
S'distance'
p5
aF375.696044921875
aa(lp6
S'timestamp'
p7
aF2.344151020050049
aatp8
Rp9
.ccollections
OrderedDict
p0
((lp1
(lp2
S'state'
p3
aI400
aa(lp4
S'distance'
p5
aF375.696044921875
aa(lp6
S'timestamp'
p7
aF2.3528058528900146
aatp8
Rp9
.ccollections
OrderedDict
p0
((lp1
(lp2
S'state'
p3
aI400
aa(lp4
S'distance'
p5
aF375.696044921875
aa(lp6
S'timestamp'
p7
aF2.353912830352783
aatp8
Rp9
.ccollections
OrderedDict
p0
((lp1
(lp2
S'state'
p3
aI400
aa(lp4
S'distance'
p5
aF375.696044921875
aa(lp6
S'timestamp'
p7
aF2.3628218173980713
aatp8
Rp9
.ccollections
OrderedDict
p0
((lp1
(lp2
S'state'
p3
aI400
aa(lp4
S'distance'
p5
aF375.696044921875
aa(lp6
S'timestamp'
p7
aF2.363417863845825
aatp8
Rp9
.ccollections
OrderedDict
p0
((lp1
(lp2
S'state'
p3
aI400
aa(lp4
S'distance'
p5
aF375.696044921875
aa(lp6
S'timestamp'
p7
aF2.3727049827575684
aatp8
Rp9
.ccollections
OrderedDict
p0
((lp1
(lp2
S'state'
p3
aI400
aa(lp4
S'distance'
p5
aF375.696044921875
aa(lp6
S'timestamp'
p7
aF2.3734049797058105
aatp8
Rp9
.ccollections
OrderedDict
p0
((lp1
(lp2
S'state'
p3
aI400
aa(lp4
S'distance'
p5
aF375.696044921875
aa(lp6
S'timestamp'
p7
aF2.382558822631836
aatp8
Rp9
.ccollections
OrderedDict
p0
((lp1
(lp2
S'state'
p3
aI400
aa(lp4
S'distance'
p5
aF375.696044921875
aa(lp6
S'timestamp'
p7
aF2.38374400138855
aatp8
Rp9
.ccollections
OrderedDict
p0
((lp1
(lp2
S'state'
p3
aI400
aa(lp4
S'distance'
p5
aF375.696044921875
aa(lp6
S'timestamp'
p7
aF2.3926219940185547
aatp8
Rp9
.ccollections
OrderedDict
p0
((lp1
(lp2
S'state'
p3
aI400
aa(lp4
S'distance'
p5
aF375.696044921875
aa(lp6
S'timestamp'
p7
aF2.393622875213623
aatp8
Rp9
.ccollections
OrderedDict
p0
((lp1
(lp2
S'state'
p3
aI400
aa(lp4
S'distance'
p5
aF375.696044921875
aa(lp6
S'timestamp'
p7
aF2.4038848876953125
aatp8
Rp9
.ccollections
OrderedDict
p0
((lp1
(lp2
S'state'
p3
aI400
aa(lp4
S'distance'
p5
aF375.696044921875
aa(lp6
S'timestamp'
p7
aF2.4039599895477295
aatp8
Rp9
.ccollections
OrderedDict
p0
((lp1
(lp2
S'state'
p3
aI400
aa(lp4
S'distance'
p5
aF375.696044921875
aa(lp6
S'timestamp'
p7
aF2.4154279232025146
aatp8
Rp9
.ccollections
OrderedDict
p0
((lp1
(lp2
S'state'
p3
aI400
aa(lp4
S'distance'
p5
aF375.696044921875
aa(lp6
S'timestamp'
p7
aF2.415863037109375
aatp8
Rp9
.ccollections
OrderedDict
p0
((lp1
(lp2
S'state'
p3
aI400
aa(lp4
S'distance'
p5
aF375.696044921875
aa(lp6
S'timestamp'
p7
aF2.4234650135040283
aatp8
Rp9
.ccollections
OrderedDict
p0
((lp1
(lp2
S'state'
p3
aI400
aa(lp4
S'distance'
p5
aF375.696044921875
aa(lp6
S'timestamp'
p7
aF2.4239799976348877
aatp8
Rp9
.ccollections
OrderedDict
p0
((lp1
(lp2
S'state'
p3
aI0
aa(lp4
S'distance'
p5
aF375.696044921875
aa(lp6
S'timestamp'
p7
aF2.432816982269287
aatp8
Rp9
.ccollections
OrderedDict
p0
((lp1
(lp2
S'state'
p3
aI0
aa(lp4
S'distance'
p5
aF266.7018127441406
aa(lp6
S'timestamp'
p7
aF2.994670867919922
aatp8
Rp9
.ccollections
OrderedDict
p0
((lp1
(lp2
S'state'
p3
aI0
aa(lp4
S'distance'
p5
aF266.7018127441406
aa(lp6
S'timestamp'
p7
aF2.9957869052886963
aatp8
Rp9
.ccollections
OrderedDict
p0
((lp1
(lp2
S'state'
p3
aI0
aa(lp4
S'distance'
p5
aF266.7018127441406
aa(lp6
S'timestamp'
p7
aF3.002596855163574
aatp8
Rp9
.ccollections
OrderedDict
p0
((lp1
(lp2
S'state'
p3
aI0
aa(lp4
S'distance'
p5
aF266.7018127441406
aa(lp6
S'timestamp'
p7
aF3.0034070014953613
aatp8
Rp9
.ccollections
OrderedDict
p0
((lp1
(lp2
S'state'
p3
aI0
aa(lp4
S'distance'
p5
aF266.7018127441406
aa(lp6
S'timestamp'
p7
aF3.0125808715820312
aatp8
Rp9
.ccollections
OrderedDict
p0
((lp1
(lp2
S'state'
p3
aI0
aa(lp4
S'distance'
p5
aF266.7018127441406
aa(lp6
S'timestamp'
p7
aF3.013556957244873
aatp8
Rp9
.ccollections
OrderedDict
p0
((lp1
(lp2
S'state'
p3
aI0
aa(lp4
S'distance'
p5
aF266.7018127441406
aa(lp6
S'timestamp'
p7
aF3.0246520042419434
aatp8
Rp9
.ccollections
OrderedDict
p0
((lp1
(lp2
S'state'
p3
aI0
aa(lp4
S'distance'
p5
aF266.7018127441406
aa(lp6
S'timestamp'
p7
aF3.0258560180664062
aatp8
Rp9
.ccollections
OrderedDict
p0
((lp1
(lp2
S'state'
p3
aI0
aa(lp4
S'distance'
p5
aF266.7018127441406
aa(lp6
S'timestamp'
p7
aF3.033928871154785
aatp8
Rp9
.ccollections
OrderedDict
p0
((lp1
(lp2
S'state'
p3
aI0
aa(lp4
S'distance'
p5
aF266.7018127441406
aa(lp6
S'timestamp'
p7
aF3.0343029499053955
aatp8
Rp9
.ccollections
OrderedDict
p0
((lp1
(lp2
S'state'
p3
aI0
aa(lp4
S'distance'
p5
aF266.7018127441406
aa(lp6
S'timestamp'
p7
aF3.0426979064941406
aatp8
Rp9
.ccollections
OrderedDict
p0
((lp1
(lp2
S'state'
p3
aI0
aa(lp4
S'distance'
p5
aF266.7018127441406
aa(lp6
S'timestamp'
p7
aF3.0438618659973145
aatp8
Rp9
.ccollections
OrderedDict
p0
((lp1
(lp2
S'state'
p3
aI0
aa(lp4
S'distance'
p5
aF266.7018127441406
aa(lp6
S'timestamp'
p7
aF3.0525920391082764
aatp8
Rp9
.ccollections
OrderedDict
p0
((lp1
(lp2
S'state'
p3
aI0
aa(lp4
S'distance'
p5
aF266.7018127441406
aa(lp6
S'timestamp'
p7
aF3.05379581451416
aatp8
Rp9
.ccollections
OrderedDict
p0
((lp1
(lp2
S'state'
p3
aI0
aa(lp4
S'distance'
p5
aF266.7018127441406
aa(lp6
S'timestamp'
p7
aF3.063187837600708
aatp8
Rp9
.ccollections
OrderedDict
p0
((lp1
(lp2
S'state'
p3
aI0
aa(lp4
S'distance'
p5
aF266.7018127441406
aa(lp6
S'timestamp'
p7
aF3.063469886779785
aatp8
Rp9
.ccollections
OrderedDict
p0
((lp1
(lp2
S'state'
p3
aI0
aa(lp4
S'distance'
p5
aF266.7018127441406
aa(lp6
S'timestamp'
p7
aF3.0826268196105957
aatp8
Rp9
.ccollections
OrderedDict
p0
((lp1
(lp2
S'state'
p3
aI0
aa(lp4
S'distance'
p5
aF266.7018127441406
aa(lp6
S'timestamp'
p7
aF3.083479881286621
aatp8
Rp9
.ccollections
OrderedDict
p0
((lp1
(lp2
S'state'
p3
aI0
aa(lp4
S'distance'
p5
aF266.7018127441406
aa(lp6
S'timestamp'
p7
aF3.084203004837036
aatp8
Rp9
.ccollections
OrderedDict
p0
((lp1
(lp2
S'state'
p3
aI0
aa(lp4
S'distance'
p5
aF266.7018127441406
aa(lp6
S'timestamp'
p7
aF3.084697961807251
aatp8
Rp9
.ccollections
OrderedDict
p0
((lp1
(lp2
S'state'
p3
aI0
aa(lp4
S'distance'
p5
aF266.7018127441406
aa(lp6
S'timestamp'
p7
aF3.0927999019622803
aatp8
Rp9
.ccollections
OrderedDict
p0
((lp1
(lp2
S'state'
p3
aI0
aa(lp4
S'distance'
p5
aF266.7018127441406
aa(lp6
S'timestamp'
p7
aF3.093358039855957
aatp8
Rp9
.ccollections
OrderedDict
p0
((lp1
(lp2
S'state'
p3
aI0
aa(lp4
S'distance'
p5
aF266.7018127441406
aa(lp6
S'timestamp'
p7
aF3.1027398109436035
aatp8
Rp9
.ccollections
OrderedDict
p0
((lp1
(lp2
S'state'
p3
aI0
aa(lp4
S'distance'
p5
aF266.7018127441406
aa(lp6
S'timestamp'
p7
aF3.104151964187622
aatp8
Rp9
.ccollections
OrderedDict
p0
((lp1
(lp2
S'state'
p3
aI0
aa(lp4
S'distance'
p5
aF266.7018127441406
aa(lp6
S'timestamp'
p7
aF3.1125478744506836
aatp8
Rp9
.ccollections
OrderedDict
p0
((lp1
(lp2
S'state'
p3
aI0
aa(lp4
S'distance'
p5
aF266.7018127441406
aa(lp6
S'timestamp'
p7
aF3.113865852355957
aatp8
Rp9
.ccollections
OrderedDict
p0
((lp1
(lp2
S'state'
p3
aI0
aa(lp4
S'distance'
p5
aF266.7018127441406
aa(lp6
S'timestamp'
p7
aF3.132563829421997
aatp8
Rp9
.ccollections
OrderedDict
p0
((lp1
(lp2
S'state'
p3
aI0
aa(lp4
S'distance'
p5
aF266.7018127441406
aa(lp6
S'timestamp'
p7
aF3.1337850093841553
aatp8
Rp9
.ccollections
OrderedDict
p0
((lp1
(lp2
S'state'
p3
aI0
aa(lp4
S'distance'
p5
aF266.7018127441406
aa(lp6
S'timestamp'
p7
aF3.1358799934387207
aatp8
Rp9
.ccollections
OrderedDict
p0
((lp1
(lp2
S'state'
p3
aI0
aa(lp4
S'distance'
p5
aF266.7018127441406
aa(lp6
S'timestamp'
p7
aF3.136046886444092
aatp8
Rp9
.ccollections
OrderedDict
p0
((lp1
(lp2
S'state'
p3
aI0
aa(lp4
S'distance'
p5
aF266.7018127441406
aa(lp6
S'timestamp'
p7
aF3.142490863800049
aatp8
Rp9
.ccollections
OrderedDict
p0
((lp1
(lp2
S'state'
p3
aI0
aa(lp4
S'distance'
p5
aF266.7018127441406
aa(lp6
S'timestamp'
p7
aF3.144028902053833
aatp8
Rp9
.ccollections
OrderedDict
p0
((lp1
(lp2
S'state'
p3
aI400
aa(lp4
S'distance'
p5
aF266.7018127441406
aa(lp6
S'timestamp'
p7
aF3.153296947479248
aatp8
Rp9
.ccollections
OrderedDict
p0
((lp1
(lp2
S'state'
p3
aI400
aa(lp4
S'distance'
p5
aF266.7018127441406
aa(lp6
S'timestamp'
p7
aF3.1539230346679688
aatp8
Rp9
.ccollections
OrderedDict
p0
((lp1
(lp2
S'state'
p3
aI400
aa(lp4
S'distance'
p5
aF266.7018127441406
aa(lp6
S'timestamp'
p7
aF3.162811040878296
aatp8
Rp9
.ccollections
OrderedDict
p0
((lp1
(lp2
S'state'
p3
aI400
aa(lp4
S'distance'
p5
aF266.7018127441406
aa(lp6
S'timestamp'
p7
aF3.1658389568328857
aatp8
Rp9
.ccollections
OrderedDict
p0
((lp1
(lp2
S'state'
p3
aI400
aa(lp4
S'distance'
p5
aF266.7018127441406
aa(lp6
S'timestamp'
p7
aF3.1735448837280273
aatp8
Rp9
.ccollections
OrderedDict
p0
((lp1
(lp2
S'state'
p3
aI400
aa(lp4
S'distance'
p5
aF266.7018127441406
aa(lp6
S'timestamp'
p7
aF3.174124002456665
aatp8
Rp9
.ccollections
OrderedDict
p0
((lp1
(lp2
S'state'
p3
aI400
aa(lp4
S'distance'
p5
aF266.7018127441406
aa(lp6
S'timestamp'
p7
aF3.1865649223327637
aatp8
Rp9
.ccollections
OrderedDict
p0
((lp1
(lp2
S'state'
p3
aI400
aa(lp4
S'distance'
p5
aF266.7018127441406
aa(lp6
S'timestamp'
p7
aF3.186689853668213
aatp8
Rp9
.ccollections
OrderedDict
p0
((lp1
(lp2
S'state'
p3
aI400
aa(lp4
S'distance'
p5
aF266.7018127441406
aa(lp6
S'timestamp'
p7
aF3.19307804107666
aatp8
Rp9
.ccollections
OrderedDict
p0
((lp1
(lp2
S'state'
p3
aI400
aa(lp4
S'distance'
p5
aF266.7018127441406
aa(lp6
S'timestamp'
p7
aF3.194206953048706
aatp8
Rp9
.ccollections
OrderedDict
p0
((lp1
(lp2
S'state'
p3
aI400
aa(lp4
S'distance'
p5
aF266.7018127441406
aa(lp6
S'timestamp'
p7
aF3.2032079696655273
aatp8
Rp9
.ccollections
OrderedDict
p0
((lp1
(lp2
S'state'
p3
aI400
aa(lp4
S'distance'
p5
aF266.7018127441406
aa(lp6
S'timestamp'
p7
aF3.205725908279419
aatp8
Rp9
.ccollections
OrderedDict
p0
((lp1
(lp2
S'state'
p3
aI400
aa(lp4
S'distance'
p5
aF266.7018127441406
aa(lp6
S'timestamp'
p7
aF3.212632894515991
aatp8
Rp9
.ccollections
OrderedDict
p0
((lp1
(lp2
S'state'
p3
aI400
aa(lp4
S'distance'
p5
aF266.7018127441406
aa(lp6
S'timestamp'
p7
aF3.213289976119995
aatp8
Rp9
.ccollections
OrderedDict
p0
((lp1
(lp2
S'state'
p3
aI400
aa(lp4
S'distance'
p5
aF266.7018127441406
aa(lp6
S'timestamp'
p7
aF3.2225399017333984
aatp8
Rp9
.ccollections
OrderedDict
p0
((lp1
(lp2
S'state'
p3
aI400
aa(lp4
S'distance'
p5
aF266.7018127441406
aa(lp6
S'timestamp'
p7
aF3.2234790325164795
aatp8
Rp9
.ccollections
OrderedDict
p0
((lp1
(lp2
S'state'
p3
aI400
aa(lp4
S'distance'
p5
aF266.7018127441406
aa(lp6
S'timestamp'
p7
aF3.2324860095977783
aatp8
Rp9
.ccollections
OrderedDict
p0
((lp1
(lp2
S'state'
p3
aI400
aa(lp4
S'distance'
p5
aF266.7018127441406
aa(lp6
S'timestamp'
p7
aF3.2333438396453857
aatp8
Rp9
.ccollections
OrderedDict
p0
((lp1
(lp2
S'state'
p3
aI400
aa(lp4
S'distance'
p5
aF266.7018127441406
aa(lp6
S'timestamp'
p7
aF3.2425479888916016
aatp8
Rp9
.ccollections
OrderedDict
p0
((lp1
(lp2
S'state'
p3
aI400
aa(lp4
S'distance'
p5
aF266.7018127441406
aa(lp6
S'timestamp'
p7
aF3.2433109283447266
aatp8
Rp9
.ccollections
OrderedDict
p0
((lp1
(lp2
S'state'
p3
aI400
aa(lp4
S'distance'
p5
aF266.7018127441406
aa(lp6
S'timestamp'
p7
aF3.252725839614868
aatp8
Rp9
.ccollections
OrderedDict
p0
((lp1
(lp2
S'state'
p3
aI400
aa(lp4
S'distance'
p5
aF266.7018127441406
aa(lp6
S'timestamp'
p7
aF3.253384828567505
aatp8
Rp9
.ccollections
OrderedDict
p0
((lp1
(lp2
S'state'
p3
aI400
aa(lp4
S'distance'
p5
aF266.7018127441406
aa(lp6
S'timestamp'
p7
aF3.262542963027954
aatp8
Rp9
.ccollections
OrderedDict
p0
((lp1
(lp2
S'state'
p3
aI400
aa(lp4
S'distance'
p5
aF266.7018127441406
aa(lp6
S'timestamp'
p7
aF3.2633719444274902
aatp8
Rp9
.ccollections
OrderedDict
p0
((lp1
(lp2
S'state'
p3
aI400
aa(lp4
S'distance'
p5
aF266.7018127441406
aa(lp6
S'timestamp'
p7
aF3.272542953491211
aatp8
Rp9
.ccollections
OrderedDict
p0
((lp1
(lp2
S'state'
p3
aI400
aa(lp4
S'distance'
p5
aF266.7018127441406
aa(lp6
S'timestamp'
p7
aF3.2733359336853027
aatp8
Rp9
.ccollections
OrderedDict
p0
((lp1
(lp2
S'state'
p3
aI400
aa(lp4
S'distance'
p5
aF266.7018127441406
aa(lp6
S'timestamp'
p7
aF3.282529830932617
aatp8
Rp9
.ccollections
OrderedDict
p0
((lp1
(lp2
S'state'
p3
aI400
aa(lp4
S'distance'
p5
aF266.7018127441406
aa(lp6
S'timestamp'
p7
aF3.2833800315856934
aatp8
Rp9
.ccollections
OrderedDict
p0
((lp1
(lp2
S'state'
p3
aI400
aa(lp4
S'distance'
p5
aF266.7018127441406
aa(lp6
S'timestamp'
p7
aF3.2928388118743896
aatp8
Rp9
.ccollections
OrderedDict
p0
((lp1
(lp2
S'state'
p3
aI400
aa(lp4
S'distance'
p5
aF266.7018127441406
aa(lp6
S'timestamp'
p7
aF3.293660879135132
aatp8
Rp9
.ccollections
OrderedDict
p0
((lp1
(lp2
S'state'
p3
aI400
aa(lp4
S'distance'
p5
aF266.7018127441406
aa(lp6
S'timestamp'
p7
aF3.3028759956359863
aatp8
Rp9
.ccollections
OrderedDict
p0
((lp1
(lp2
S'state'
p3
aI400
aa(lp4
S'distance'
p5
aF266.7018127441406
aa(lp6
S'timestamp'
p7
aF3.3034980297088623
aatp8
Rp9
.ccollections
OrderedDict
p0
((lp1
(lp2
S'state'
p3
aI400
aa(lp4
S'distance'
p5
aF266.7018127441406
aa(lp6
S'timestamp'
p7
aF3.312623977661133
aatp8
Rp9
.ccollections
OrderedDict
p0
((lp1
(lp2
S'state'
p3
aI400
aa(lp4
S'distance'
p5
aF266.7018127441406
aa(lp6
S'timestamp'
p7
aF3.313347816467285
aatp8
Rp9
.ccollections
OrderedDict
p0
((lp1
(lp2
S'state'
p3
aI400
aa(lp4
S'distance'
p5
aF266.7018127441406
aa(lp6
S'timestamp'
p7
aF3.3225488662719727
aatp8
Rp9
.ccollections
OrderedDict
p0
((lp1
(lp2
S'state'
p3
aI400
aa(lp4
S'distance'
p5
aF266.7018127441406
aa(lp6
S'timestamp'
p7
aF3.3236238956451416
aatp8
Rp9
.ccollections
OrderedDict
p0
((lp1
(lp2
S'state'
p3
aI400
aa(lp4
S'distance'
p5
aF266.7018127441406
aa(lp6
S'timestamp'
p7
aF3.342707872390747
aatp8
Rp9
.ccollections
OrderedDict
p0
((lp1
(lp2
S'state'
p3
aI400
aa(lp4
S'distance'
p5
aF266.7018127441406
aa(lp6
S'timestamp'
p7
aF3.34417986869812
aatp8
Rp9
.ccollections
OrderedDict
p0
((lp1
(lp2
S'state'
p3
aI400
aa(lp4
S'distance'
p5
aF266.7018127441406
aa(lp6
S'timestamp'
p7
aF3.3457629680633545
aatp8
Rp9
.ccollections
OrderedDict
p0
((lp1
(lp2
S'state'
p3
aI400
aa(lp4
S'distance'
p5
aF266.7018127441406
aa(lp6
S'timestamp'
p7
aF3.345836877822876
aatp8
Rp9
.ccollections
OrderedDict
p0
((lp1
(lp2
S'state'
p3
aI400
aa(lp4
S'distance'
p5
aF266.7018127441406
aa(lp6
S'timestamp'
p7
aF3.352592945098877
aatp8
Rp9
.ccollections
OrderedDict
p0
((lp1
(lp2
S'state'
p3
aI400
aa(lp4
S'distance'
p5
aF266.7018127441406
aa(lp6
S'timestamp'
p7
aF3.3535709381103516
aatp8
Rp9
.ccollections
OrderedDict
p0
((lp1
(lp2
S'state'
p3
aI400
aa(lp4
S'distance'
p5
aF266.7018127441406
aa(lp6
S'timestamp'
p7
aF3.3626179695129395
aatp8
Rp9
.ccollections
OrderedDict
p0
((lp1
(lp2
S'state'
p3
aI400
aa(lp4
S'distance'
p5
aF266.7018127441406
aa(lp6
S'timestamp'
p7
aF3.3638269901275635
aatp8
Rp9
.ccollections
OrderedDict
p0
((lp1
(lp2
S'state'
p3
aI400
aa(lp4
S'distance'
p5
aF266.7018127441406
aa(lp6
S'timestamp'
p7
aF3.3728349208831787
aatp8
Rp9
.ccollections
OrderedDict
p0
((lp1
(lp2
S'state'
p3
aI400
aa(lp4
S'distance'
p5
aF266.7018127441406
aa(lp6
S'timestamp'
p7
aF3.3736469745635986
aatp8
Rp9
.ccollections
OrderedDict
p0
((lp1
(lp2
S'state'
p3
aI400
aa(lp4
S'distance'
p5
aF266.7018127441406
aa(lp6
S'timestamp'
p7
aF3.3824849128723145
aatp8
Rp9
.ccollections
OrderedDict
p0
((lp1
(lp2
S'state'
p3
aI400
aa(lp4
S'distance'
p5
aF266.7018127441406
aa(lp6
S'timestamp'
p7
aF3.3841919898986816
aatp8
Rp9
.ccollections
OrderedDict
p0
((lp1
(lp2
S'state'
p3
aI400
aa(lp4
S'distance'
p5
aF266.7018127441406
aa(lp6
S'timestamp'
p7
aF3.4063968658447266
aatp8
Rp9
.ccollections
OrderedDict
p0
((lp1
(lp2
S'state'
p3
aI400
aa(lp4
S'distance'
p5
aF266.7018127441406
aa(lp6
S'timestamp'
p7
aF3.40647292137146
aatp8
Rp9
.ccollections
OrderedDict
p0
((lp1
(lp2
S'state'
p3
aI400
aa(lp4
S'distance'
p5
aF266.7018127441406
aa(lp6
S'timestamp'
p7
aF3.4065380096435547
aatp8
Rp9
.ccollections
OrderedDict
p0
((lp1
(lp2
S'state'
p3
aI400
aa(lp4
S'distance'
p5
aF266.7018127441406
aa(lp6
S'timestamp'
p7
aF3.406599998474121
aatp8
Rp9
.ccollections
OrderedDict
p0
((lp1
(lp2
S'state'
p3
aI400
aa(lp4
S'distance'
p5
aF266.7018127441406
aa(lp6
S'timestamp'
p7
aF3.412571907043457
aatp8
Rp9
.ccollections
OrderedDict
p0
((lp1
(lp2
S'state'
p3
aI400
aa(lp4
S'distance'
p5
aF266.7018127441406
aa(lp6
S'timestamp'
p7
aF3.4136579036712646
aatp8
Rp9
.ccollections
OrderedDict
p0
((lp1
(lp2
S'state'
p3
aI400
aa(lp4
S'distance'
p5
aF266.7018127441406
aa(lp6
S'timestamp'
p7
aF3.422847032546997
aatp8
Rp9
.ccollections
OrderedDict
p0
((lp1
(lp2
S'state'
p3
aI400
aa(lp4
S'distance'
p5
aF266.7018127441406
aa(lp6
S'timestamp'
p7
aF3.4236559867858887
aatp8
Rp9
.ccollections
OrderedDict
p0
((lp1
(lp2
S'state'
p3
aI400
aa(lp4
S'distance'
p5
aF266.7018127441406
aa(lp6
S'timestamp'
p7
aF3.4327008724212646
aatp8
Rp9
.ccollections
OrderedDict
p0
((lp1
(lp2
S'state'
p3
aI400
aa(lp4
S'distance'
p5
aF266.7018127441406
aa(lp6
S'timestamp'
p7
aF3.4336190223693848
aatp8
Rp9
.ccollections
OrderedDict
p0
((lp1
(lp2
S'state'
p3
aI400
aa(lp4
S'distance'
p5
aF266.7018127441406
aa(lp6
S'timestamp'
p7
aF3.4428160190582275
aatp8
Rp9
.ccollections
OrderedDict
p0
((lp1
(lp2
S'state'
p3
aI400
aa(lp4
S'distance'
p5
aF266.7018127441406
aa(lp6
S'timestamp'
p7
aF3.443666934967041
aatp8
Rp9
.ccollections
OrderedDict
p0
((lp1
(lp2
S'state'
p3
aI400
aa(lp4
S'distance'
p5
aF266.7018127441406
aa(lp6
S'timestamp'
p7
aF3.452805995941162
aatp8
Rp9
.ccollections
OrderedDict
p0
((lp1
(lp2
S'state'
p3
aI400
aa(lp4
S'distance'
p5
aF266.7018127441406
aa(lp6
S'timestamp'
p7
aF3.45369291305542
aatp8
Rp9
.ccollections
OrderedDict
p0
((lp1
(lp2
S'state'
p3
aI400
aa(lp4
S'distance'
p5
aF266.7018127441406
aa(lp6
S'timestamp'
p7
aF3.462934970855713
aatp8
Rp9
.ccollections
OrderedDict
p0
((lp1
(lp2
S'state'
p3
aI400
aa(lp4
S'distance'
p5
aF266.7018127441406
aa(lp6
S'timestamp'
p7
aF3.463754892349243
aatp8
Rp9
.ccollections
OrderedDict
p0
((lp1
(lp2
S'state'
p3
aI400
aa(lp4
S'distance'
p5
aF266.7018127441406
aa(lp6
S'timestamp'
p7
aF3.4726948738098145
aatp8
Rp9
.ccollections
OrderedDict
p0
((lp1
(lp2
S'state'
p3
aI400
aa(lp4
S'distance'
p5
aF266.7018127441406
aa(lp6
S'timestamp'
p7
aF3.47318696975708
aatp8
Rp9
.ccollections
OrderedDict
p0
((lp1
(lp2
S'state'
p3
aI400
aa(lp4
S'distance'
p5
aF266.7018127441406
aa(lp6
S'timestamp'
p7
aF3.4828319549560547
aatp8
Rp9
.ccollections
OrderedDict
p0
((lp1
(lp2
S'state'
p3
aI400
aa(lp4
S'distance'
p5
aF266.7018127441406
aa(lp6
S'timestamp'
p7
aF3.4834280014038086
aatp8
Rp9
.ccollections
OrderedDict
p0
((lp1
(lp2
S'state'
p3
aI400
aa(lp4
S'distance'
p5
aF266.7018127441406
aa(lp6
S'timestamp'
p7
aF3.4927308559417725
aatp8
Rp9
.ccollections
OrderedDict
p0
((lp1
(lp2
S'state'
p3
aI400
aa(lp4
S'distance'
p5
aF266.7018127441406
aa(lp6
S'timestamp'
p7
aF3.493324041366577
aatp8
Rp9
.ccollections
OrderedDict
p0
((lp1
(lp2
S'state'
p3
aI400
aa(lp4
S'distance'
p5
aF266.7018127441406
aa(lp6
S'timestamp'
p7
aF3.512799024581909
aatp8
Rp9
.ccollections
OrderedDict
p0
((lp1
(lp2
S'state'
p3
aI400
aa(lp4
S'distance'
p5
aF266.7018127441406
aa(lp6
S'timestamp'
p7
aF3.5135068893432617
aatp8
Rp9
.ccollections
OrderedDict
p0
((lp1
(lp2
S'state'
p3
aI400
aa(lp4
S'distance'
p5
aF266.7018127441406
aa(lp6
S'timestamp'
p7
aF3.5143070220947266
aatp8
Rp9
.ccollections
OrderedDict
p0
((lp1
(lp2
S'state'
p3
aI400
aa(lp4
S'distance'
p5
aF266.7018127441406
aa(lp6
S'timestamp'
p7
aF3.514781951904297
aatp8
Rp9
.ccollections
OrderedDict
p0
((lp1
(lp2
S'state'
p3
aI400
aa(lp4
S'distance'
p5
aF266.7018127441406
aa(lp6
S'timestamp'
p7
aF3.523376941680908
aatp8
Rp9
.ccollections
OrderedDict
p0
((lp1
(lp2
S'state'
p3
aI400
aa(lp4
S'distance'
p5
aF266.7018127441406
aa(lp6
S'timestamp'
p7
aF3.524197816848755
aatp8
Rp9
.ccollections
OrderedDict
p0
((lp1
(lp2
S'state'
p3
aI400
aa(lp4
S'distance'
p5
aF266.7018127441406
aa(lp6
S'timestamp'
p7
aF3.552379846572876
aatp8
Rp9
.ccollections
OrderedDict
p0
((lp1
(lp2
S'state'
p3
aI400
aa(lp4
S'distance'
p5
aF266.7018127441406
aa(lp6
S'timestamp'
p7
aF3.5534579753875732
aatp8
Rp9
.ccollections
OrderedDict
p0
((lp1
(lp2
S'state'
p3
aI400
aa(lp4
S'distance'
p5
aF266.7018127441406
aa(lp6
S'timestamp'
p7
aF3.5543339252471924
aatp8
Rp9
.ccollections
OrderedDict
p0
((lp1
(lp2
S'state'
p3
aI400
aa(lp4
S'distance'
p5
aF266.7018127441406
aa(lp6
S'timestamp'
p7
aF3.5544450283050537
aatp8
Rp9
.ccollections
OrderedDict
p0
((lp1
(lp2
S'state'
p3
aI400
aa(lp4
S'distance'
p5
aF266.7018127441406
aa(lp6
S'timestamp'
p7
aF3.562427043914795
aatp8
Rp9
.ccollections
OrderedDict
p0
((lp1
(lp2
S'state'
p3
aI400
aa(lp4
S'distance'
p5
aF266.7018127441406
aa(lp6
S'timestamp'
p7
aF3.5632870197296143
aatp8
Rp9
.ccollections
OrderedDict
p0
((lp1
(lp2
S'state'
p3
aI400
aa(lp4
S'distance'
p5
aF266.7018127441406
aa(lp6
S'timestamp'
p7
aF3.565682888031006
aatp8
Rp9
.ccollections
OrderedDict
p0
((lp1
(lp2
S'state'
p3
aI400
aa(lp4
S'distance'
p5
aF266.7018127441406
aa(lp6
S'timestamp'
p7
aF3.566023826599121
aatp8
Rp9
.ccollections
OrderedDict
p0
((lp1
(lp2
S'state'
p3
aI400
aa(lp4
S'distance'
p5
aF266.7018127441406
aa(lp6
S'timestamp'
p7
aF3.5728399753570557
aatp8
Rp9
.ccollections
OrderedDict
p0
((lp1
(lp2
S'state'
p3
aI400
aa(lp4
S'distance'
p5
aF266.7018127441406
aa(lp6
S'timestamp'
p7
aF3.573645830154419
aatp8
Rp9
.ccollections
OrderedDict
p0
((lp1
(lp2
S'state'
p3
aI400
aa(lp4
S'distance'
p5
aF266.7018127441406
aa(lp6
S'timestamp'
p7
aF3.582582950592041
aatp8
Rp9
.ccollections
OrderedDict
p0
((lp1
(lp2
S'state'
p3
aI400
aa(lp4
S'distance'
p5
aF266.7018127441406
aa(lp6
S'timestamp'
p7
aF3.583357810974121
aatp8
Rp9
.ccollections
OrderedDict
p0
((lp1
(lp2
S'state'
p3
aI400
aa(lp4
S'distance'
p5
aF266.7018127441406
aa(lp6
S'timestamp'
p7
aF3.59283185005188
aatp8
Rp9
.ccollections
OrderedDict
p0
((lp1
(lp2
S'state'
p3
aI400
aa(lp4
S'distance'
p5
aF266.7018127441406
aa(lp6
S'timestamp'
p7
aF3.594059944152832
aatp8
Rp9
.ccollections
OrderedDict
p0
((lp1
(lp2
S'state'
p3
aI400
aa(lp4
S'distance'
p5
aF266.7018127441406
aa(lp6
S'timestamp'
p7
aF3.602524995803833
aatp8
Rp9
.ccollections
OrderedDict
p0
((lp1
(lp2
S'state'
p3
aI400
aa(lp4
S'distance'
p5
aF266.7018127441406
aa(lp6
S'timestamp'
p7
aF3.6033010482788086
aatp8
Rp9
.ccollections
OrderedDict
p0
((lp1
(lp2
S'state'
p3
aI400
aa(lp4
S'distance'
p5
aF266.7018127441406
aa(lp6
S'timestamp'
p7
aF3.6134798526763916
aatp8
Rp9
.ccollections
OrderedDict
p0
((lp1
(lp2
S'state'
p3
aI400
aa(lp4
S'distance'
p5
aF266.7018127441406
aa(lp6
S'timestamp'
p7
aF3.615449905395508
aatp8
Rp9
.ccollections
OrderedDict
p0
((lp1
(lp2
S'state'
p3
aI400
aa(lp4
S'distance'
p5
aF266.7018127441406
aa(lp6
S'timestamp'
p7
aF3.6226909160614014
aatp8
Rp9
.ccollections
OrderedDict
p0
((lp1
(lp2
S'state'
p3
aI400
aa(lp4
S'distance'
p5
aF266.7018127441406
aa(lp6
S'timestamp'
p7
aF3.623163938522339
aatp8
Rp9
.ccollections
OrderedDict
p0
((lp1
(lp2
S'state'
p3
aI400
aa(lp4
S'distance'
p5
aF266.7018127441406
aa(lp6
S'timestamp'
p7
aF3.6330809593200684
aatp8
Rp9
.ccollections
OrderedDict
p0
((lp1
(lp2
S'state'
p3
aI400
aa(lp4
S'distance'
p5
aF266.7018127441406
aa(lp6
S'timestamp'
p7
aF3.6332688331604004
aatp8
Rp9
.ccollections
OrderedDict
p0
((lp1
(lp2
S'state'
p3
aI400
aa(lp4
S'distance'
p5
aF266.7018127441406
aa(lp6
S'timestamp'
p7
aF3.64294695854187
aatp8
Rp9
.ccollections
OrderedDict
p0
((lp1
(lp2
S'state'
p3
aI400
aa(lp4
S'distance'
p5
aF266.7018127441406
aa(lp6
S'timestamp'
p7
aF3.6432998180389404
aatp8
Rp9
.ccollections
OrderedDict
p0
((lp1
(lp2
S'state'
p3
aI400
aa(lp4
S'distance'
p5
aF266.7018127441406
aa(lp6
S'timestamp'
p7
aF3.6526029109954834
aatp8
Rp9
.ccollections
OrderedDict
p0
((lp1
(lp2
S'state'
p3
aI400
aa(lp4
S'distance'
p5
aF266.7018127441406
aa(lp6
S'timestamp'
p7
aF3.653237819671631
aatp8
Rp9
.ccollections
OrderedDict
p0
((lp1
(lp2
S'state'
p3
aI400
aa(lp4
S'distance'
p5
aF266.7018127441406
aa(lp6
S'timestamp'
p7
aF3.6627089977264404
aatp8
Rp9
.ccollections
OrderedDict
p0
((lp1
(lp2
S'state'
p3
aI400
aa(lp4
S'distance'
p5
aF266.7018127441406
aa(lp6
S'timestamp'
p7
aF3.6633260250091553
aatp8
Rp9
.ccollections
OrderedDict
p0
((lp1
(lp2
S'state'
p3
aI400
aa(lp4
S'distance'
p5
aF266.7018127441406
aa(lp6
S'timestamp'
p7
aF3.6728930473327637
aatp8
Rp9
.ccollections
OrderedDict
p0
((lp1
(lp2
S'state'
p3
aI400
aa(lp4
S'distance'
p5
aF266.7018127441406
aa(lp6
S'timestamp'
p7
aF3.6733558177948
aatp8
Rp9
.ccollections
OrderedDict
p0
((lp1
(lp2
S'state'
p3
aI400
aa(lp4
S'distance'
p5
aF266.7018127441406
aa(lp6
S'timestamp'
p7
aF3.682689905166626
aatp8
Rp9
.ccollections
OrderedDict
p0
((lp1
(lp2
S'state'
p3
aI400
aa(lp4
S'distance'
p5
aF266.7018127441406
aa(lp6
S'timestamp'
p7
aF3.6836259365081787
aatp8
Rp9
.ccollections
OrderedDict
p0
((lp1
(lp2
S'state'
p3
aI400
aa(lp4
S'distance'
p5
aF266.7018127441406
aa(lp6
S'timestamp'
p7
aF3.692685842514038
aatp8
Rp9
.ccollections
OrderedDict
p0
((lp1
(lp2
S'state'
p3
aI400
aa(lp4
S'distance'
p5
aF266.7018127441406
aa(lp6
S'timestamp'
p7
aF3.693711042404175
aatp8
Rp9
.ccollections
OrderedDict
p0
((lp1
(lp2
S'state'
p3
aI400
aa(lp4
S'distance'
p5
aF266.7018127441406
aa(lp6
S'timestamp'
p7
aF3.702826976776123
aatp8
Rp9
.ccollections
OrderedDict
p0
((lp1
(lp2
S'state'
p3
aI400
aa(lp4
S'distance'
p5
aF266.7018127441406
aa(lp6
S'timestamp'
p7
aF3.704179048538208
aatp8
Rp9
.ccollections
OrderedDict
p0
((lp1
(lp2
S'state'
p3
aI400
aa(lp4
S'distance'
p5
aF266.7018127441406
aa(lp6
S'timestamp'
p7
aF3.7125818729400635
aatp8
Rp9
.ccollections
OrderedDict
p0
((lp1
(lp2
S'state'
p3
aI400
aa(lp4
S'distance'
p5
aF266.7018127441406
aa(lp6
S'timestamp'
p7
aF3.7146730422973633
aatp8
Rp9
.ccollections
OrderedDict
p0
((lp1
(lp2
S'state'
p3
aI400
aa(lp4
S'distance'
p5
aF266.7018127441406
aa(lp6
S'timestamp'
p7
aF3.722625970840454
aatp8
Rp9
.ccollections
OrderedDict
p0
((lp1
(lp2
S'state'
p3
aI400
aa(lp4
S'distance'
p5
aF266.7018127441406
aa(lp6
S'timestamp'
p7
aF3.7236578464508057
aatp8
Rp9
.ccollections
OrderedDict
p0
((lp1
(lp2
S'state'
p3
aI400
aa(lp4
S'distance'
p5
aF266.7018127441406
aa(lp6
S'timestamp'
p7
aF3.732663869857788
aatp8
Rp9
.ccollections
OrderedDict
p0
((lp1
(lp2
S'state'
p3
aI400
aa(lp4
S'distance'
p5
aF266.7018127441406
aa(lp6
S'timestamp'
p7
aF3.7333438396453857
aatp8
Rp9
.ccollections
OrderedDict
p0
((lp1
(lp2
S'state'
p3
aI400
aa(lp4
S'distance'
p5
aF266.7018127441406
aa(lp6
S'timestamp'
p7
aF3.74263596534729
aatp8
Rp9
.ccollections
OrderedDict
p0
((lp1
(lp2
S'state'
p3
aI400
aa(lp4
S'distance'
p5
aF266.7018127441406
aa(lp6
S'timestamp'
p7
aF3.7436258792877197
aatp8
Rp9
.ccollections
OrderedDict
p0
((lp1
(lp2
S'state'
p3
aI400
aa(lp4
S'distance'
p5
aF266.7018127441406
aa(lp6
S'timestamp'
p7
aF3.752619981765747
aatp8
Rp9
.ccollections
OrderedDict
p0
((lp1
(lp2
S'state'
p3
aI400
aa(lp4
S'distance'
p5
aF266.7018127441406
aa(lp6
S'timestamp'
p7
aF3.753396987915039
aatp8
Rp9
.ccollections
OrderedDict
p0
((lp1
(lp2
S'state'
p3
aI400
aa(lp4
S'distance'
p5
aF266.7018127441406
aa(lp6
S'timestamp'
p7
aF3.762913942337036
aatp8
Rp9
.ccollections
OrderedDict
p0
((lp1
(lp2
S'state'
p3
aI400
aa(lp4
S'distance'
p5
aF266.7018127441406
aa(lp6
S'timestamp'
p7
aF3.7635889053344727
aatp8
Rp9
.ccollections
OrderedDict
p0
((lp1
(lp2
S'state'
p3
aI400
aa(lp4
S'distance'
p5
aF266.7018127441406
aa(lp6
S'timestamp'
p7
aF3.7728488445281982
aatp8
Rp9
.ccollections
OrderedDict
p0
((lp1
(lp2
S'state'
p3
aI400
aa(lp4
S'distance'
p5
aF266.7018127441406
aa(lp6
S'timestamp'
p7
aF3.7735519409179688
aatp8
Rp9
.ccollections
OrderedDict
p0
((lp1
(lp2
S'state'
p3
aI400
aa(lp4
S'distance'
p5
aF266.7018127441406
aa(lp6
S'timestamp'
p7
aF3.782796859741211
aatp8
Rp9
.ccollections
OrderedDict
p0
((lp1
(lp2
S'state'
p3
aI400
aa(lp4
S'distance'
p5
aF266.7018127441406
aa(lp6
S'timestamp'
p7
aF3.783705949783325
aatp8
Rp9
.ccollections
OrderedDict
p0
((lp1
(lp2
S'state'
p3
aI0
aa(lp4
S'distance'
p5
aF266.7018127441406
aa(lp6
S'timestamp'
p7
aF3.7928168773651123
aatp8
Rp9
.ccollections
OrderedDict
p0
((lp1
(lp2
S'state'
p3
aI0
aa(lp4
S'distance'
p5
aF155.70664978027344
aa(lp6
S'timestamp'
p7
aF4.384613990783691
aatp8
Rp9
.ccollections
OrderedDict
p0
((lp1
(lp2
S'state'
p3
aI0
aa(lp4
S'distance'
p5
aF155.70664978027344
aa(lp6
S'timestamp'
p7
aF4.385908842086792
aatp8
Rp9
.ccollections
OrderedDict
p0
((lp1
(lp2
S'state'
p3
aI0
aa(lp4
S'distance'
p5
aF155.70664978027344
aa(lp6
S'timestamp'
p7
aF4.392998933792114
aatp8
Rp9
.ccollections
OrderedDict
p0
((lp1
(lp2
S'state'
p3
aI0
aa(lp4
S'distance'
p5
aF155.70664978027344
aa(lp6
S'timestamp'
p7
aF4.394080877304077
aatp8
Rp9
.ccollections
OrderedDict
p0
((lp1
(lp2
S'state'
p3
aI0
aa(lp4
S'distance'
p5
aF155.70664978027344
aa(lp6
S'timestamp'
p7
aF4.402864933013916
aatp8
Rp9
.ccollections
OrderedDict
p0
((lp1
(lp2
S'state'
p3
aI0
aa(lp4
S'distance'
p5
aF155.70664978027344
aa(lp6
S'timestamp'
p7
aF4.403731822967529
aatp8
Rp9
.ccollections
OrderedDict
p0
((lp1
(lp2
S'state'
p3
aI0
aa(lp4
S'distance'
p5
aF155.70664978027344
aa(lp6
S'timestamp'
p7
aF4.412751913070679
aatp8
Rp9
.ccollections
OrderedDict
p0
((lp1
(lp2
S'state'
p3
aI0
aa(lp4
S'distance'
p5
aF155.70664978027344
aa(lp6
S'timestamp'
p7
aF4.4133360385894775
aatp8
Rp9
.ccollections
OrderedDict
p0
((lp1
(lp2
S'state'
p3
aI0
aa(lp4
S'distance'
p5
aF155.70664978027344
aa(lp6
S'timestamp'
p7
aF4.422760009765625
aatp8
Rp9
.ccollections
OrderedDict
p0
((lp1
(lp2
S'state'
p3
aI0
aa(lp4
S'distance'
p5
aF155.70664978027344
aa(lp6
S'timestamp'
p7
aF4.4233129024505615
aatp8
Rp9
.ccollections
OrderedDict
p0
((lp1
(lp2
S'state'
p3
aI0
aa(lp4
S'distance'
p5
aF155.70664978027344
aa(lp6
S'timestamp'
p7
aF4.432482004165649
aatp8
Rp9
.ccollections
OrderedDict
p0
((lp1
(lp2
S'state'
p3
aI0
aa(lp4
S'distance'
p5
aF155.70664978027344
aa(lp6
S'timestamp'
p7
aF4.433449983596802
aatp8
Rp9
.ccollections
OrderedDict
p0
((lp1
(lp2
S'state'
p3
aI0
aa(lp4
S'distance'
p5
aF155.70664978027344
aa(lp6
S'timestamp'
p7
aF4.442960977554321
aatp8
Rp9
.ccollections
OrderedDict
p0
((lp1
(lp2
S'state'
p3
aI0
aa(lp4
S'distance'
p5
aF155.70664978027344
aa(lp6
S'timestamp'
p7
aF4.443715810775757
aatp8
Rp9
.ccollections
OrderedDict
p0
((lp1
(lp2
S'state'
p3
aI0
aa(lp4
S'distance'
p5
aF155.70664978027344
aa(lp6
S'timestamp'
p7
aF4.452585935592651
aatp8
Rp9
.ccollections
OrderedDict
p0
((lp1
(lp2
S'state'
p3
aI0
aa(lp4
S'distance'
p5
aF155.70664978027344
aa(lp6
S'timestamp'
p7
aF4.4533209800720215
aatp8
Rp9
.ccollections
OrderedDict
p0
((lp1
(lp2
S'state'
p3
aI0
aa(lp4
S'distance'
p5
aF155.70664978027344
aa(lp6
S'timestamp'
p7
aF4.46278190612793
aatp8
Rp9
.ccollections
OrderedDict
p0
((lp1
(lp2
S'state'
p3
aI0
aa(lp4
S'distance'
p5
aF155.70664978027344
aa(lp6
S'timestamp'
p7
aF4.4633400440216064
aatp8
Rp9
.ccollections
OrderedDict
p0
((lp1
(lp2
S'state'
p3
aI0
aa(lp4
S'distance'
p5
aF155.70664978027344
aa(lp6
S'timestamp'
p7
aF4.47239089012146
aatp8
Rp9
.ccollections
OrderedDict
p0
((lp1
(lp2
S'state'
p3
aI0
aa(lp4
S'distance'
p5
aF155.70664978027344
aa(lp6
S'timestamp'
p7
aF4.473189830780029
aatp8
Rp9
.ccollections
OrderedDict
p0
((lp1
(lp2
S'state'
p3
aI0
aa(lp4
S'distance'
p5
aF155.70664978027344
aa(lp6
S'timestamp'
p7
aF4.482609987258911
aatp8
Rp9
.ccollections
OrderedDict
p0
((lp1
(lp2
S'state'
p3
aI0
aa(lp4
S'distance'
p5
aF155.70664978027344
aa(lp6
S'timestamp'
p7
aF4.483176946640015
aatp8
Rp9
.ccollections
OrderedDict
p0
((lp1
(lp2
S'state'
p3
aI0
aa(lp4
S'distance'
p5
aF155.70664978027344
aa(lp6
S'timestamp'
p7
aF4.492743015289307
aatp8
Rp9
.ccollections
OrderedDict
p0
((lp1
(lp2
S'state'
p3
aI0
aa(lp4
S'distance'
p5
aF155.70664978027344
aa(lp6
S'timestamp'
p7
aF4.493216037750244
aatp8
Rp9
.ccollections
OrderedDict
p0
((lp1
(lp2
S'state'
p3
aI0
aa(lp4
S'distance'
p5
aF155.70664978027344
aa(lp6
S'timestamp'
p7
aF4.502750873565674
aatp8
Rp9
.ccollections
OrderedDict
p0
((lp1
(lp2
S'state'
p3
aI0
aa(lp4
S'distance'
p5
aF155.70664978027344
aa(lp6
S'timestamp'
p7
aF4.503309011459351
aatp8
Rp9
.ccollections
OrderedDict
p0
((lp1
(lp2
S'state'
p3
aI0
aa(lp4
S'distance'
p5
aF155.70664978027344
aa(lp6
S'timestamp'
p7
aF4.512527942657471
aatp8
Rp9
.ccollections
OrderedDict
p0
((lp1
(lp2
S'state'
p3
aI0
aa(lp4
S'distance'
p5
aF155.70664978027344
aa(lp6
S'timestamp'
p7
aF4.513384819030762
aatp8
Rp9
.ccollections
OrderedDict
p0
((lp1
(lp2
S'state'
p3
aI0
aa(lp4
S'distance'
p5
aF155.70664978027344
aa(lp6
S'timestamp'
p7
aF4.522630929946899
aatp8
Rp9
.ccollections
OrderedDict
p0
((lp1
(lp2
S'state'
p3
aI0
aa(lp4
S'distance'
p5
aF155.70664978027344
aa(lp6
S'timestamp'
p7
aF4.523299932479858
aatp8
Rp9
.ccollections
OrderedDict
p0
((lp1
(lp2
S'state'
p3
aI0
aa(lp4
S'distance'
p5
aF155.70664978027344
aa(lp6
S'timestamp'
p7
aF4.5325539112091064
aatp8
Rp9
.ccollections
OrderedDict
p0
((lp1
(lp2
S'state'
p3
aI0
aa(lp4
S'distance'
p5
aF155.70664978027344
aa(lp6
S'timestamp'
p7
aF4.5333168506622314
aatp8
Rp9
.ccollections
OrderedDict
p0
((lp1
(lp2
S'state'
p3
aI0
aa(lp4
S'distance'
p5
aF155.70664978027344
aa(lp6
S'timestamp'
p7
aF4.542749881744385
aatp8
Rp9
.ccollections
OrderedDict
p0
((lp1
(lp2
S'state'
p3
aI0
aa(lp4
S'distance'
p5
aF155.70664978027344
aa(lp6
S'timestamp'
p7
aF4.543310880661011
aatp8
Rp9
.ccollections
OrderedDict
p0
((lp1
(lp2
S'state'
p3
aI0
aa(lp4
S'distance'
p5
aF155.70664978027344
aa(lp6
S'timestamp'
p7
aF4.5527379512786865
aatp8
Rp9
.ccollections
OrderedDict
p0
((lp1
(lp2
S'state'
p3
aI0
aa(lp4
S'distance'
p5
aF155.70664978027344
aa(lp6
S'timestamp'
p7
aF4.553257942199707
aatp8
Rp9
.ccollections
OrderedDict
p0
((lp1
(lp2
S'state'
p3
aI0
aa(lp4
S'distance'
p5
aF155.70664978027344
aa(lp6
S'timestamp'
p7
aF4.562968015670776
aatp8
Rp9
.ccollections
OrderedDict
p0
((lp1
(lp2
S'state'
p3
aI0
aa(lp4
S'distance'
p5
aF155.70664978027344
aa(lp6
S'timestamp'
p7
aF4.563475847244263
aatp8
Rp9
.ccollections
OrderedDict
p0
((lp1
(lp2
S'state'
p3
aI0
aa(lp4
S'distance'
p5
aF155.70664978027344
aa(lp6
S'timestamp'
p7
aF4.572397947311401
aatp8
Rp9
.ccollections
OrderedDict
p0
((lp1
(lp2
S'state'
p3
aI0
aa(lp4
S'distance'
p5
aF155.70664978027344
aa(lp6
S'timestamp'
p7
aF4.573390960693359
aatp8
Rp9
.ccollections
OrderedDict
p0
((lp1
(lp2
S'state'
p3
aI0
aa(lp4
S'distance'
p5
aF155.70664978027344
aa(lp6
S'timestamp'
p7
aF4.582728862762451
aatp8
Rp9
.ccollections
OrderedDict
p0
((lp1
(lp2
S'state'
p3
aI0
aa(lp4
S'distance'
p5
aF155.70664978027344
aa(lp6
S'timestamp'
p7
aF4.583369016647339
aatp8
Rp9
.ccollections
OrderedDict
p0
((lp1
(lp2
S'state'
p3
aI0
aa(lp4
S'distance'
p5
aF155.70664978027344
aa(lp6
S'timestamp'
p7
aF4.592494010925293
aatp8
Rp9
.ccollections
OrderedDict
p0
((lp1
(lp2
S'state'
p3
aI0
aa(lp4
S'distance'
p5
aF155.70664978027344
aa(lp6
S'timestamp'
p7
aF4.593361854553223
aatp8
Rp9
.ccollections
OrderedDict
p0
((lp1
(lp2
S'state'
p3
aI0
aa(lp4
S'distance'
p5
aF155.70664978027344
aa(lp6
S'timestamp'
p7
aF4.6025519371032715
aatp8
Rp9
.ccollections
OrderedDict
p0
((lp1
(lp2
S'state'
p3
aI0
aa(lp4
S'distance'
p5
aF155.70664978027344
aa(lp6
S'timestamp'
p7
aF4.603129863739014
aatp8
Rp9
.ccollections
OrderedDict
p0
((lp1
(lp2
S'state'
p3
aI0
aa(lp4
S'distance'
p5
aF155.70664978027344
aa(lp6
S'timestamp'
p7
aF4.613356828689575
aatp8
Rp9
.ccollections
OrderedDict
p0
((lp1
(lp2
S'state'
p3
aI0
aa(lp4
S'distance'
p5
aF155.70664978027344
aa(lp6
S'timestamp'
p7
aF4.613471984863281
aatp8
Rp9
.ccollections
OrderedDict
p0
((lp1
(lp2
S'state'
p3
aI0
aa(lp4
S'distance'
p5
aF155.70664978027344
aa(lp6
S'timestamp'
p7
aF4.622628927230835
aatp8
Rp9
.ccollections
OrderedDict
p0
((lp1
(lp2
S'state'
p3
aI0
aa(lp4
S'distance'
p5
aF155.70664978027344
aa(lp6
S'timestamp'
p7
aF4.623147964477539
aatp8
Rp9
.ccollections
OrderedDict
p0
((lp1
(lp2
S'state'
p3
aI0
aa(lp4
S'distance'
p5
aF155.70664978027344
aa(lp6
S'timestamp'
p7
aF4.642635822296143
aatp8
Rp9
.ccollections
OrderedDict
p0
((lp1
(lp2
S'state'
p3
aI0
aa(lp4
S'distance'
p5
aF155.70664978027344
aa(lp6
S'timestamp'
p7
aF4.643198013305664
aatp8
Rp9
.ccollections
OrderedDict
p0
((lp1
(lp2
S'state'
p3
aI0
aa(lp4
S'distance'
p5
aF155.70664978027344
aa(lp6
S'timestamp'
p7
aF4.645112037658691
aatp8
Rp9
.ccollections
OrderedDict
p0
((lp1
(lp2
S'state'
p3
aI400
aa(lp4
S'distance'
p5
aF155.70664978027344
aa(lp6
S'timestamp'
p7
aF4.645833969116211
aatp8
Rp9
.ccollections
OrderedDict
p0
((lp1
(lp2
S'state'
p3
aI400
aa(lp4
S'distance'
p5
aF155.70664978027344
aa(lp6
S'timestamp'
p7
aF4.663802862167358
aatp8
Rp9
.ccollections
OrderedDict
p0
((lp1
(lp2
S'state'
p3
aI400
aa(lp4
S'distance'
p5
aF155.70664978027344
aa(lp6
S'timestamp'
p7
aF4.664124965667725
aatp8
Rp9
.ccollections
OrderedDict
p0
((lp1
(lp2
S'state'
p3
aI400
aa(lp4
S'distance'
p5
aF155.70664978027344
aa(lp6
S'timestamp'
p7
aF4.665632963180542
aatp8
Rp9
.ccollections
OrderedDict
p0
((lp1
(lp2
S'state'
p3
aI400
aa(lp4
S'distance'
p5
aF155.70664978027344
aa(lp6
S'timestamp'
p7
aF4.666416883468628
aatp8
Rp9
.ccollections
OrderedDict
p0
((lp1
(lp2
S'state'
p3
aI400
aa(lp4
S'distance'
p5
aF155.70664978027344
aa(lp6
S'timestamp'
p7
aF4.672632932662964
aatp8
Rp9
.ccollections
OrderedDict
p0
((lp1
(lp2
S'state'
p3
aI400
aa(lp4
S'distance'
p5
aF155.70664978027344
aa(lp6
S'timestamp'
p7
aF4.673352003097534
aatp8
Rp9
.ccollections
OrderedDict
p0
((lp1
(lp2
S'state'
p3
aI400
aa(lp4
S'distance'
p5
aF155.70664978027344
aa(lp6
S'timestamp'
p7
aF4.683871030807495
aatp8
Rp9
.ccollections
OrderedDict
p0
((lp1
(lp2
S'state'
p3
aI400
aa(lp4
S'distance'
p5
aF155.70664978027344
aa(lp6
S'timestamp'
p7
aF4.685084819793701
aatp8
Rp9
.ccollections
OrderedDict
p0
((lp1
(lp2
S'state'
p3
aI400
aa(lp4
S'distance'
p5
aF155.70664978027344
aa(lp6
S'timestamp'
p7
aF4.695753812789917
aatp8
Rp9
.ccollections
OrderedDict
p0
((lp1
(lp2
S'state'
p3
aI400
aa(lp4
S'distance'
p5
aF155.70664978027344
aa(lp6
S'timestamp'
p7
aF4.697991847991943
aatp8
Rp9
.ccollections
OrderedDict
p0
((lp1
(lp2
S'state'
p3
aI400
aa(lp4
S'distance'
p5
aF155.70664978027344
aa(lp6
S'timestamp'
p7
aF4.712738990783691
aatp8
Rp9
.ccollections
OrderedDict
p0
((lp1
(lp2
S'state'
p3
aI400
aa(lp4
S'distance'
p5
aF155.70664978027344
aa(lp6
S'timestamp'
p7
aF4.713268041610718
aatp8
Rp9
.ccollections
OrderedDict
p0
((lp1
(lp2
S'state'
p3
aI400
aa(lp4
S'distance'
p5
aF155.70664978027344
aa(lp6
S'timestamp'
p7
aF4.714479923248291
aatp8
Rp9
.ccollections
OrderedDict
p0
((lp1
(lp2
S'state'
p3
aI400
aa(lp4
S'distance'
p5
aF155.70664978027344
aa(lp6
S'timestamp'
p7
aF4.7151939868927
aatp8
Rp9
.ccollections
OrderedDict
p0
((lp1
(lp2
S'state'
p3
aI400
aa(lp4
S'distance'
p5
aF155.70664978027344
aa(lp6
S'timestamp'
p7
aF4.722453832626343
aatp8
Rp9
.ccollections
OrderedDict
p0
((lp1
(lp2
S'state'
p3
aI400
aa(lp4
S'distance'
p5
aF155.70664978027344
aa(lp6
S'timestamp'
p7
aF4.723276853561401
aatp8
Rp9
.ccollections
OrderedDict
p0
((lp1
(lp2
S'state'
p3
aI400
aa(lp4
S'distance'
p5
aF155.70664978027344
aa(lp6
S'timestamp'
p7
aF4.732472896575928
aatp8
Rp9
.ccollections
OrderedDict
p0
((lp1
(lp2
S'state'
p3
aI400
aa(lp4
S'distance'
p5
aF155.70664978027344
aa(lp6
S'timestamp'
p7
aF4.733287811279297
aatp8
Rp9
.ccollections
OrderedDict
p0
((lp1
(lp2
S'state'
p3
aI400
aa(lp4
S'distance'
p5
aF155.70664978027344
aa(lp6
S'timestamp'
p7
aF4.743119955062866
aatp8
Rp9
.ccollections
OrderedDict
p0
((lp1
(lp2
S'state'
p3
aI400
aa(lp4
S'distance'
p5
aF155.70664978027344
aa(lp6
S'timestamp'
p7
aF4.744412899017334
aatp8
Rp9
.ccollections
OrderedDict
p0
((lp1
(lp2
S'state'
p3
aI400
aa(lp4
S'distance'
p5
aF155.70664978027344
aa(lp6
S'timestamp'
p7
aF4.752532005310059
aatp8
Rp9
.ccollections
OrderedDict
p0
((lp1
(lp2
S'state'
p3
aI400
aa(lp4
S'distance'
p5
aF155.70664978027344
aa(lp6
S'timestamp'
p7
aF4.753221035003662
aatp8
Rp9
.ccollections
OrderedDict
p0
((lp1
(lp2
S'state'
p3
aI400
aa(lp4
S'distance'
p5
aF155.70664978027344
aa(lp6
S'timestamp'
p7
aF4.7726709842681885
aatp8
Rp9
.ccollections
OrderedDict
p0
((lp1
(lp2
S'state'
p3
aI400
aa(lp4
S'distance'
p5
aF155.70664978027344
aa(lp6
S'timestamp'
p7
aF4.774266004562378
aatp8
Rp9
.ccollections
OrderedDict
p0
((lp1
(lp2
S'state'
p3
aI400
aa(lp4
S'distance'
p5
aF155.70664978027344
aa(lp6
S'timestamp'
p7
aF4.775357007980347
aatp8
Rp9
.ccollections
OrderedDict
p0
((lp1
(lp2
S'state'
p3
aI400
aa(lp4
S'distance'
p5
aF155.70664978027344
aa(lp6
S'timestamp'
p7
aF4.775741815567017
aatp8
Rp9
.ccollections
OrderedDict
p0
((lp1
(lp2
S'state'
p3
aI400
aa(lp4
S'distance'
p5
aF155.70664978027344
aa(lp6
S'timestamp'
p7
aF4.782567024230957
aatp8
Rp9
.ccollections
OrderedDict
p0
((lp1
(lp2
S'state'
p3
aI400
aa(lp4
S'distance'
p5
aF155.70664978027344
aa(lp6
S'timestamp'
p7
aF4.784142017364502
aatp8
Rp9
.ccollections
OrderedDict
p0
((lp1
(lp2
S'state'
p3
aI400
aa(lp4
S'distance'
p5
aF155.70664978027344
aa(lp6
S'timestamp'
p7
aF4.793028831481934
aatp8
Rp9
.ccollections
OrderedDict
p0
((lp1
(lp2
S'state'
p3
aI400
aa(lp4
S'distance'
p5
aF155.70664978027344
aa(lp6
S'timestamp'
p7
aF4.79374098777771
aatp8
Rp9
.ccollections
OrderedDict
p0
((lp1
(lp2
S'state'
p3
aI400
aa(lp4
S'distance'
p5
aF155.70664978027344
aa(lp6
S'timestamp'
p7
aF4.802387952804565
aatp8
Rp9
.ccollections
OrderedDict
p0
((lp1
(lp2
S'state'
p3
aI400
aa(lp4
S'distance'
p5
aF155.70664978027344
aa(lp6
S'timestamp'
p7
aF4.8035888671875
aatp8
Rp9
.ccollections
OrderedDict
p0
((lp1
(lp2
S'state'
p3
aI400
aa(lp4
S'distance'
p5
aF155.70664978027344
aa(lp6
S'timestamp'
p7
aF4.813139915466309
aatp8
Rp9
.ccollections
OrderedDict
p0
((lp1
(lp2
S'state'
p3
aI400
aa(lp4
S'distance'
p5
aF155.70664978027344
aa(lp6
S'timestamp'
p7
aF4.814771890640259
aatp8
Rp9
.ccollections
OrderedDict
p0
((lp1
(lp2
S'state'
p3
aI400
aa(lp4
S'distance'
p5
aF155.70664978027344
aa(lp6
S'timestamp'
p7
aF4.824152946472168
aatp8
Rp9
.ccollections
OrderedDict
p0
((lp1
(lp2
S'state'
p3
aI400
aa(lp4
S'distance'
p5
aF155.70664978027344
aa(lp6
S'timestamp'
p7
aF4.8243749141693115
aatp8
Rp9
.ccollections
OrderedDict
p0
((lp1
(lp2
S'state'
p3
aI400
aa(lp4
S'distance'
p5
aF155.70664978027344
aa(lp6
S'timestamp'
p7
aF4.832448959350586
aatp8
Rp9
.ccollections
OrderedDict
p0
((lp1
(lp2
S'state'
p3
aI400
aa(lp4
S'distance'
p5
aF155.70664978027344
aa(lp6
S'timestamp'
p7
aF4.833268880844116
aatp8
Rp9
.ccollections
OrderedDict
p0
((lp1
(lp2
S'state'
p3
aI400
aa(lp4
S'distance'
p5
aF155.70664978027344
aa(lp6
S'timestamp'
p7
aF4.852663993835449
aatp8
Rp9
.ccollections
OrderedDict
p0
((lp1
(lp2
S'state'
p3
aI400
aa(lp4
S'distance'
p5
aF155.70664978027344
aa(lp6
S'timestamp'
p7
aF4.853274822235107
aatp8
Rp9
.ccollections
OrderedDict
p0
((lp1
(lp2
S'state'
p3
aI400
aa(lp4
S'distance'
p5
aF155.70664978027344
aa(lp6
S'timestamp'
p7
aF4.854946851730347
aatp8
Rp9
.ccollections
OrderedDict
p0
((lp1
(lp2
S'state'
p3
aI400
aa(lp4
S'distance'
p5
aF155.70664978027344
aa(lp6
S'timestamp'
p7
aF4.855676889419556
aatp8
Rp9
.ccollections
OrderedDict
p0
((lp1
(lp2
S'state'
p3
aI400
aa(lp4
S'distance'
p5
aF155.70664978027344
aa(lp6
S'timestamp'
p7
aF4.872498035430908
aatp8
Rp9
.ccollections
OrderedDict
p0
((lp1
(lp2
S'state'
p3
aI400
aa(lp4
S'distance'
p5
aF155.70664978027344
aa(lp6
S'timestamp'
p7
aF4.873355865478516
aatp8
Rp9
.ccollections
OrderedDict
p0
((lp1
(lp2
S'state'
p3
aI400
aa(lp4
S'distance'
p5
aF155.70664978027344
aa(lp6
S'timestamp'
p7
aF4.8747758865356445
aatp8
Rp9
.ccollections
OrderedDict
p0
((lp1
(lp2
S'state'
p3
aI400
aa(lp4
S'distance'
p5
aF155.70664978027344
aa(lp6
S'timestamp'
p7
aF4.8757288455963135
aatp8
Rp9
.ccollections
OrderedDict
p0
((lp1
(lp2
S'state'
p3
aI400
aa(lp4
S'distance'
p5
aF155.70664978027344
aa(lp6
S'timestamp'
p7
aF4.882659912109375
aatp8
Rp9
.ccollections
OrderedDict
p0
((lp1
(lp2
S'state'
p3
aI400
aa(lp4
S'distance'
p5
aF155.70664978027344
aa(lp6
S'timestamp'
p7
aF4.8836870193481445
aatp8
Rp9
.ccollections
OrderedDict
p0
((lp1
(lp2
S'state'
p3
aI400
aa(lp4
S'distance'
p5
aF155.70664978027344
aa(lp6
S'timestamp'
p7
aF4.892582893371582
aatp8
Rp9
.ccollections
OrderedDict
p0
((lp1
(lp2
S'state'
p3
aI400
aa(lp4
S'distance'
p5
aF155.70664978027344
aa(lp6
S'timestamp'
p7
aF4.894207000732422
aatp8
Rp9
.ccollections
OrderedDict
p0
((lp1
(lp2
S'state'
p3
aI400
aa(lp4
S'distance'
p5
aF155.70664978027344
aa(lp6
S'timestamp'
p7
aF4.9027299880981445
aatp8
Rp9
.ccollections
OrderedDict
p0
((lp1
(lp2
S'state'
p3
aI400
aa(lp4
S'distance'
p5
aF155.70664978027344
aa(lp6
S'timestamp'
p7
aF4.903524875640869
aatp8
Rp9
.ccollections
OrderedDict
p0
((lp1
(lp2
S'state'
p3
aI400
aa(lp4
S'distance'
p5
aF155.70664978027344
aa(lp6
S'timestamp'
p7
aF4.912494897842407
aatp8
Rp9
.ccollections
OrderedDict
p0
((lp1
(lp2
S'state'
p3
aI400
aa(lp4
S'distance'
p5
aF155.70664978027344
aa(lp6
S'timestamp'
p7
aF4.913228988647461
aatp8
Rp9
.ccollections
OrderedDict
p0
((lp1
(lp2
S'state'
p3
aI400
aa(lp4
S'distance'
p5
aF155.70664978027344
aa(lp6
S'timestamp'
p7
aF4.9227049350738525
aatp8
Rp9
.ccollections
OrderedDict
p0
((lp1
(lp2
S'state'
p3
aI400
aa(lp4
S'distance'
p5
aF155.70664978027344
aa(lp6
S'timestamp'
p7
aF4.923913955688477
aatp8
Rp9
.ccollections
OrderedDict
p0
((lp1
(lp2
S'state'
p3
aI400
aa(lp4
S'distance'
p5
aF155.70664978027344
aa(lp6
S'timestamp'
p7
aF4.932705879211426
aatp8
Rp9
.ccollections
OrderedDict
p0
((lp1
(lp2
S'state'
p3
aI400
aa(lp4
S'distance'
p5
aF155.70664978027344
aa(lp6
S'timestamp'
p7
aF4.933733940124512
aatp8
Rp9
.ccollections
OrderedDict
p0
((lp1
(lp2
S'state'
p3
aI400
aa(lp4
S'distance'
p5
aF155.70664978027344
aa(lp6
S'timestamp'
p7
aF4.942487001419067
aatp8
Rp9
.ccollections
OrderedDict
p0
((lp1
(lp2
S'state'
p3
aI400
aa(lp4
S'distance'
p5
aF155.70664978027344
aa(lp6
S'timestamp'
p7
aF4.943490982055664
aatp8
Rp9
.ccollections
OrderedDict
p0
((lp1
(lp2
S'state'
p3
aI400
aa(lp4
S'distance'
p5
aF155.70664978027344
aa(lp6
S'timestamp'
p7
aF4.952509880065918
aatp8
Rp9
.ccollections
OrderedDict
p0
((lp1
(lp2
S'state'
p3
aI400
aa(lp4
S'distance'
p5
aF155.70664978027344
aa(lp6
S'timestamp'
p7
aF4.962373971939087
aatp8
Rp9
.ccollections
OrderedDict
p0
((lp1
(lp2
S'state'
p3
aI400
aa(lp4
S'distance'
p5
aF155.70664978027344
aa(lp6
S'timestamp'
p7
aF4.963371992111206
aatp8
Rp9
.ccollections
OrderedDict
p0
((lp1
(lp2
S'state'
p3
aI400
aa(lp4
S'distance'
p5
aF155.70664978027344
aa(lp6
S'timestamp'
p7
aF4.96483588218689
aatp8
Rp9
.ccollections
OrderedDict
p0
((lp1
(lp2
S'state'
p3
aI400
aa(lp4
S'distance'
p5
aF155.70664978027344
aa(lp6
S'timestamp'
p7
aF4.973372936248779
aatp8
Rp9
.ccollections
OrderedDict
p0
((lp1
(lp2
S'state'
p3
aI400
aa(lp4
S'distance'
p5
aF155.70664978027344
aa(lp6
S'timestamp'
p7
aF4.9740309715271
aatp8
Rp9
.ccollections
OrderedDict
p0
((lp1
(lp2
S'state'
p3
aI400
aa(lp4
S'distance'
p5
aF155.70664978027344
aa(lp6
S'timestamp'
p7
aF4.982456922531128
aatp8
Rp9
.ccollections
OrderedDict
p0
((lp1
(lp2
S'state'
p3
aI400
aa(lp4
S'distance'
p5
aF155.70664978027344
aa(lp6
S'timestamp'
p7
aF4.983151912689209
aatp8
Rp9
.ccollections
OrderedDict
p0
((lp1
(lp2
S'state'
p3
aI400
aa(lp4
S'distance'
p5
aF155.70664978027344
aa(lp6
S'timestamp'
p7
aF4.992496013641357
aatp8
Rp9
.ccollections
OrderedDict
p0
((lp1
(lp2
S'state'
p3
aI400
aa(lp4
S'distance'
p5
aF155.70664978027344
aa(lp6
S'timestamp'
p7
aF4.993327856063843
aatp8
Rp9
.ccollections
OrderedDict
p0
((lp1
(lp2
S'state'
p3
aI400
aa(lp4
S'distance'
p5
aF155.70664978027344
aa(lp6
S'timestamp'
p7
aF5.002440929412842
aatp8
Rp9
.ccollections
OrderedDict
p0
((lp1
(lp2
S'state'
p3
aI400
aa(lp4
S'distance'
p5
aF155.70664978027344
aa(lp6
S'timestamp'
p7
aF5.003676891326904
aatp8
Rp9
.ccollections
OrderedDict
p0
((lp1
(lp2
S'state'
p3
aI400
aa(lp4
S'distance'
p5
aF155.70664978027344
aa(lp6
S'timestamp'
p7
aF5.01255202293396
aatp8
Rp9
.ccollections
OrderedDict
p0
((lp1
(lp2
S'state'
p3
aI400
aa(lp4
S'distance'
p5
aF155.70664978027344
aa(lp6
S'timestamp'
p7
aF5.01299786567688
aatp8
Rp9
.ccollections
OrderedDict
p0
((lp1
(lp2
S'state'
p3
aI400
aa(lp4
S'distance'
p5
aF155.70664978027344
aa(lp6
S'timestamp'
p7
aF5.02265191078186
aatp8
Rp9
.ccollections
OrderedDict
p0
((lp1
(lp2
S'state'
p3
aI400
aa(lp4
S'distance'
p5
aF155.70664978027344
aa(lp6
S'timestamp'
p7
aF5.023377895355225
aatp8
Rp9
.ccollections
OrderedDict
p0
((lp1
(lp2
S'state'
p3
aI400
aa(lp4
S'distance'
p5
aF155.70664978027344
aa(lp6
S'timestamp'
p7
aF5.032487869262695
aatp8
Rp9
.ccollections
OrderedDict
p0
((lp1
(lp2
S'state'
p3
aI400
aa(lp4
S'distance'
p5
aF155.70664978027344
aa(lp6
S'timestamp'
p7
aF5.033267974853516
aatp8
Rp9
.ccollections
OrderedDict
p0
((lp1
(lp2
S'state'
p3
aI400
aa(lp4
S'distance'
p5
aF155.70664978027344
aa(lp6
S'timestamp'
p7
aF5.0425050258636475
aatp8
Rp9
.ccollections
OrderedDict
p0
((lp1
(lp2
S'state'
p3
aI400
aa(lp4
S'distance'
p5
aF155.70664978027344
aa(lp6
S'timestamp'
p7
aF5.043123960494995
aatp8
Rp9
.ccollections
OrderedDict
p0
((lp1
(lp2
S'state'
p3
aI400
aa(lp4
S'distance'
p5
aF155.70664978027344
aa(lp6
S'timestamp'
p7
aF5.052618026733398
aatp8
Rp9
.ccollections
OrderedDict
p0
((lp1
(lp2
S'state'
p3
aI400
aa(lp4
S'distance'
p5
aF155.70664978027344
aa(lp6
S'timestamp'
p7
aF5.053231954574585
aatp8
Rp9
.ccollections
OrderedDict
p0
((lp1
(lp2
S'state'
p3
aI400
aa(lp4
S'distance'
p5
aF155.70664978027344
aa(lp6
S'timestamp'
p7
aF5.062580823898315
aatp8
Rp9
.ccollections
OrderedDict
p0
((lp1
(lp2
S'state'
p3
aI400
aa(lp4
S'distance'
p5
aF155.70664978027344
aa(lp6
S'timestamp'
p7
aF5.063045024871826
aatp8
Rp9
.ccollections
OrderedDict
p0
((lp1
(lp2
S'state'
p3
aI400
aa(lp4
S'distance'
p5
aF155.70664978027344
aa(lp6
S'timestamp'
p7
aF5.072540044784546
aatp8
Rp9
.ccollections
OrderedDict
p0
((lp1
(lp2
S'state'
p3
aI400
aa(lp4
S'distance'
p5
aF155.70664978027344
aa(lp6
S'timestamp'
p7
aF5.073160886764526
aatp8
Rp9
.ccollections
OrderedDict
p0
((lp1
(lp2
S'state'
p3
aI400
aa(lp4
S'distance'
p5
aF155.70664978027344
aa(lp6
S'timestamp'
p7
aF5.082424879074097
aatp8
Rp9
.ccollections
OrderedDict
p0
((lp1
(lp2
S'state'
p3
aI400
aa(lp4
S'distance'
p5
aF155.70664978027344
aa(lp6
S'timestamp'
p7
aF5.092690944671631
aatp8
Rp9
.ccollections
OrderedDict
p0
((lp1
(lp2
S'state'
p3
aI400
aa(lp4
S'distance'
p5
aF155.70664978027344
aa(lp6
S'timestamp'
p7
aF5.093595027923584
aatp8
Rp9
.ccollections
OrderedDict
p0
((lp1
(lp2
S'state'
p3
aI400
aa(lp4
S'distance'
p5
aF155.70664978027344
aa(lp6
S'timestamp'
p7
aF5.094877004623413
aatp8
Rp9
.ccollections
OrderedDict
p0
((lp1
(lp2
S'state'
p3
aI400
aa(lp4
S'distance'
p5
aF155.70664978027344
aa(lp6
S'timestamp'
p7
aF5.1031389236450195
aatp8
Rp9
.ccollections
OrderedDict
p0
((lp1
(lp2
S'state'
p3
aI400
aa(lp4
S'distance'
p5
aF155.70664978027344
aa(lp6
S'timestamp'
p7
aF5.103796005249023
aatp8
Rp9
.ccollections
OrderedDict
p0
((lp1
(lp2
S'state'
p3
aI400
aa(lp4
S'distance'
p5
aF155.70664978027344
aa(lp6
S'timestamp'
p7
aF5.1128458976745605
aatp8
Rp9
.ccollections
OrderedDict
p0
((lp1
(lp2
S'state'
p3
aI400
aa(lp4
S'distance'
p5
aF155.70664978027344
aa(lp6
S'timestamp'
p7
aF5.113497972488403
aatp8
Rp9
.ccollections
OrderedDict
p0
((lp1
(lp2
S'state'
p3
aI400
aa(lp4
S'distance'
p5
aF155.70664978027344
aa(lp6
S'timestamp'
p7
aF5.12260890007019
aatp8
Rp9
.ccollections
OrderedDict
p0
((lp1
(lp2
S'state'
p3
aI400
aa(lp4
S'distance'
p5
aF155.70664978027344
aa(lp6
S'timestamp'
p7
aF5.132649898529053
aatp8
Rp9
.ccollections
OrderedDict
p0
((lp1
(lp2
S'state'
p3
aI400
aa(lp4
S'distance'
p5
aF155.70664978027344
aa(lp6
S'timestamp'
p7
aF5.133111953735352
aatp8
Rp9
.ccollections
OrderedDict
p0
((lp1
(lp2
S'state'
p3
aI400
aa(lp4
S'distance'
p5
aF155.70664978027344
aa(lp6
S'timestamp'
p7
aF5.134100914001465
aatp8
Rp9
.ccollections
OrderedDict
p0
((lp1
(lp2
S'state'
p3
aI400
aa(lp4
S'distance'
p5
aF155.70664978027344
aa(lp6
S'timestamp'
p7
aF5.1425440311431885
aatp8
Rp9
.ccollections
OrderedDict
p0
((lp1
(lp2
S'state'
p3
aI400
aa(lp4
S'distance'
p5
aF155.70664978027344
aa(lp6
S'timestamp'
p7
aF5.143126964569092
aatp8
Rp9
.ccollections
OrderedDict
p0
((lp1
(lp2
S'state'
p3
aI400
aa(lp4
S'distance'
p5
aF155.70664978027344
aa(lp6
S'timestamp'
p7
aF5.153239011764526
aatp8
Rp9
.ccollections
OrderedDict
p0
((lp1
(lp2
S'state'
p3
aI400
aa(lp4
S'distance'
p5
aF155.70664978027344
aa(lp6
S'timestamp'
p7
aF5.1533989906311035
aatp8
Rp9
.ccollections
OrderedDict
p0
((lp1
(lp2
S'state'
p3
aI400
aa(lp4
S'distance'
p5
aF155.70664978027344
aa(lp6
S'timestamp'
p7
aF5.162712812423706
aatp8
Rp9
.ccollections
OrderedDict
p0
((lp1
(lp2
S'state'
p3
aI400
aa(lp4
S'distance'
p5
aF155.70664978027344
aa(lp6
S'timestamp'
p7
aF5.163283824920654
aatp8
Rp9
.ccollections
OrderedDict
p0
((lp1
(lp2
S'state'
p3
aI400
aa(lp4
S'distance'
p5
aF155.70664978027344
aa(lp6
S'timestamp'
p7
aF5.1725969314575195
aatp8
Rp9
.ccollections
OrderedDict
p0
((lp1
(lp2
S'state'
p3
aI400
aa(lp4
S'distance'
p5
aF155.70664978027344
aa(lp6
S'timestamp'
p7
aF5.173638820648193
aatp8
Rp9
.ccollections
OrderedDict
p0
((lp1
(lp2
S'state'
p3
aI400
aa(lp4
S'distance'
p5
aF155.70664978027344
aa(lp6
S'timestamp'
p7
aF5.18244481086731
aatp8
Rp9
.ccollections
OrderedDict
p0
((lp1
(lp2
S'state'
p3
aI400
aa(lp4
S'distance'
p5
aF155.70664978027344
aa(lp6
S'timestamp'
p7
aF5.18400502204895
aatp8
Rp9
.ccollections
OrderedDict
p0
((lp1
(lp2
S'state'
p3
aI400
aa(lp4
S'distance'
p5
aF155.70664978027344
aa(lp6
S'timestamp'
p7
aF5.192344903945923
aatp8
Rp9
.ccollections
OrderedDict
p0
((lp1
(lp2
S'state'
p3
aI400
aa(lp4
S'distance'
p5
aF155.70664978027344
aa(lp6
S'timestamp'
p7
aF5.193289041519165
aatp8
Rp9
.ccollections
OrderedDict
p0
((lp1
(lp2
S'state'
p3
aI400
aa(lp4
S'distance'
p5
aF155.70664978027344
aa(lp6
S'timestamp'
p7
aF5.202440977096558
aatp8
Rp9
.ccollections
OrderedDict
p0
((lp1
(lp2
S'state'
p3
aI0
aa(lp4
S'distance'
p5
aF155.70664978027344
aa(lp6
S'timestamp'
p7
aF5.203372001647949
aatp8
Rp9
.ccollections
OrderedDict
p0
((lp1
(lp2
S'state'
p3
aI0
aa(lp4
S'distance'
p5
aF59.8638391494751
aa(lp6
S'timestamp'
p7
aF5.763633966445923
aatp8
Rp9
.ccollections
OrderedDict
p0
((lp1
(lp2
S'state'
p3
aI0
aa(lp4
S'distance'
p5
aF59.8638391494751
aa(lp6
S'timestamp'
p7
aF5.763770818710327
aatp8
Rp9
.ccollections
OrderedDict
p0
((lp1
(lp2
S'state'
p3
aI0
aa(lp4
S'distance'
p5
aF59.8638391494751
aa(lp6
S'timestamp'
p7
aF5.774902820587158
aatp8
Rp9
.ccollections
OrderedDict
p0
((lp1
(lp2
S'state'
p3
aI0
aa(lp4
S'distance'
p5
aF59.8638391494751
aa(lp6
S'timestamp'
p7
aF5.775720834732056
aatp8
Rp9
.ccollections
OrderedDict
p0
((lp1
(lp2
S'state'
p3
aI0
aa(lp4
S'distance'
p5
aF59.8638391494751
aa(lp6
S'timestamp'
p7
aF5.7824859619140625
aatp8
Rp9
.ccollections
OrderedDict
p0
((lp1
(lp2
S'state'
p3
aI0
aa(lp4
S'distance'
p5
aF59.8638391494751
aa(lp6
S'timestamp'
p7
aF5.783314943313599
aatp8
Rp9
.ccollections
OrderedDict
p0
((lp1
(lp2
S'state'
p3
aI0
aa(lp4
S'distance'
p5
aF59.8638391494751
aa(lp6
S'timestamp'
p7
aF5.792482852935791
aatp8
Rp9
.ccollections
OrderedDict
p0
((lp1
(lp2
S'state'
p3
aI0
aa(lp4
S'distance'
p5
aF59.8638391494751
aa(lp6
S'timestamp'
p7
aF5.793102025985718
aatp8
Rp9
.ccollections
OrderedDict
p0
((lp1
(lp2
S'state'
p3
aI0
aa(lp4
S'distance'
p5
aF59.8638391494751
aa(lp6
S'timestamp'
p7
aF5.802649021148682
aatp8
Rp9
.ccollections
OrderedDict
p0
((lp1
(lp2
S'state'
p3
aI0
aa(lp4
S'distance'
p5
aF59.8638391494751
aa(lp6
S'timestamp'
p7
aF5.803138971328735
aatp8
Rp9
.ccollections
OrderedDict
p0
((lp1
(lp2
S'state'
p3
aI0
aa(lp4
S'distance'
p5
aF59.8638391494751
aa(lp6
S'timestamp'
p7
aF5.812541961669922
aatp8
Rp9
.ccollections
OrderedDict
p0
((lp1
(lp2
S'state'
p3
aI0
aa(lp4
S'distance'
p5
aF59.8638391494751
aa(lp6
S'timestamp'
p7
aF5.813283920288086
aatp8
Rp9
.ccollections
OrderedDict
p0
((lp1
(lp2
S'state'
p3
aI0
aa(lp4
S'distance'
p5
aF59.8638391494751
aa(lp6
S'timestamp'
p7
aF5.822459936141968
aatp8
Rp9
.ccollections
OrderedDict
p0
((lp1
(lp2
S'state'
p3
aI0
aa(lp4
S'distance'
p5
aF59.8638391494751
aa(lp6
S'timestamp'
p7
aF5.823230028152466
aatp8
Rp9
.ccollections
OrderedDict
p0
((lp1
(lp2
S'state'
p3
aI0
aa(lp4
S'distance'
p5
aF59.8638391494751
aa(lp6
S'timestamp'
p7
aF5.832413911819458
aatp8
Rp9
.ccollections
OrderedDict
p0
((lp1
(lp2
S'state'
p3
aI0
aa(lp4
S'distance'
p5
aF59.8638391494751
aa(lp6
S'timestamp'
p7
aF5.833237886428833
aatp8
Rp9
.ccollections
OrderedDict
p0
((lp1
(lp2
S'state'
p3
aI0
aa(lp4
S'distance'
p5
aF59.8638391494751
aa(lp6
S'timestamp'
p7
aF5.8425538539886475
aatp8
Rp9
.ccollections
OrderedDict
p0
((lp1
(lp2
S'state'
p3
aI0
aa(lp4
S'distance'
p5
aF59.8638391494751
aa(lp6
S'timestamp'
p7
aF5.843189001083374
aatp8
Rp9
.ccollections
OrderedDict
p0
((lp1
(lp2
S'state'
p3
aI0
aa(lp4
S'distance'
p5
aF59.8638391494751
aa(lp6
S'timestamp'
p7
aF5.852612018585205
aatp8
Rp9
.ccollections
OrderedDict
p0
((lp1
(lp2
S'state'
p3
aI0
aa(lp4
S'distance'
p5
aF59.8638391494751
aa(lp6
S'timestamp'
p7
aF5.853535890579224
aatp8
Rp9
.ccollections
OrderedDict
p0
((lp1
(lp2
S'state'
p3
aI0
aa(lp4
S'distance'
p5
aF59.8638391494751
aa(lp6
S'timestamp'
p7
aF5.862561941146851
aatp8
Rp9
.ccollections
OrderedDict
p0
((lp1
(lp2
S'state'
p3
aI0
aa(lp4
S'distance'
p5
aF59.8638391494751
aa(lp6
S'timestamp'
p7
aF5.863226890563965
aatp8
Rp9
.ccollections
OrderedDict
p0
((lp1
(lp2
S'state'
p3
aI0
aa(lp4
S'distance'
p5
aF59.8638391494751
aa(lp6
S'timestamp'
p7
aF5.872390031814575
aatp8
Rp9
.ccollections
OrderedDict
p0
((lp1
(lp2
S'state'
p3
aI0
aa(lp4
S'distance'
p5
aF59.8638391494751
aa(lp6
S'timestamp'
p7
aF5.87352991104126
aatp8
Rp9
.ccollections
OrderedDict
p0
((lp1
(lp2
S'state'
p3
aI0
aa(lp4
S'distance'
p5
aF59.8638391494751
aa(lp6
S'timestamp'
p7
aF5.882333040237427
aatp8
Rp9
.ccollections
OrderedDict
p0
((lp1
(lp2
S'state'
p3
aI0
aa(lp4
S'distance'
p5
aF59.8638391494751
aa(lp6
S'timestamp'
p7
aF5.883280992507935
aatp8
Rp9
.ccollections
OrderedDict
p0
((lp1
(lp2
S'state'
p3
aI0
aa(lp4
S'distance'
p5
aF59.8638391494751
aa(lp6
S'timestamp'
p7
aF5.892695903778076
aatp8
Rp9
.ccollections
OrderedDict
p0
((lp1
(lp2
S'state'
p3
aI0
aa(lp4
S'distance'
p5
aF59.8638391494751
aa(lp6
S'timestamp'
p7
aF5.8930909633636475
aatp8
Rp9
.ccollections
OrderedDict
p0
((lp1
(lp2
S'state'
p3
aI0
aa(lp4
S'distance'
p5
aF59.8638391494751
aa(lp6
S'timestamp'
p7
aF5.902673006057739
aatp8
Rp9
.ccollections
OrderedDict
p0
((lp1
(lp2
S'state'
p3
aI0
aa(lp4
S'distance'
p5
aF59.8638391494751
aa(lp6
S'timestamp'
p7
aF5.903075933456421
aatp8
Rp9
.ccollections
OrderedDict
p0
((lp1
(lp2
S'state'
p3
aI0
aa(lp4
S'distance'
p5
aF59.8638391494751
aa(lp6
S'timestamp'
p7
aF5.912477970123291
aatp8
Rp9
.ccollections
OrderedDict
p0
((lp1
(lp2
S'state'
p3
aI0
aa(lp4
S'distance'
p5
aF59.8638391494751
aa(lp6
S'timestamp'
p7
aF5.915464878082275
aatp8
Rp9
.ccollections
OrderedDict
p0
((lp1
(lp2
S'state'
p3
aI0
aa(lp4
S'distance'
p5
aF59.8638391494751
aa(lp6
S'timestamp'
p7
aF5.92251992225647
aatp8
Rp9
.ccollections
OrderedDict
p0
((lp1
(lp2
S'state'
p3
aI0
aa(lp4
S'distance'
p5
aF59.8638391494751
aa(lp6
S'timestamp'
p7
aF5.92374587059021
aatp8
Rp9
.ccollections
OrderedDict
p0
((lp1
(lp2
S'state'
p3
aI0
aa(lp4
S'distance'
p5
aF59.8638391494751
aa(lp6
S'timestamp'
p7
aF5.932660818099976
aatp8
Rp9
.ccollections
OrderedDict
p0
((lp1
(lp2
S'state'
p3
aI0
aa(lp4
S'distance'
p5
aF59.8638391494751
aa(lp6
S'timestamp'
p7
aF5.933835983276367
aatp8
Rp9
.ccollections
OrderedDict
p0
((lp1
(lp2
S'state'
p3
aI0
aa(lp4
S'distance'
p5
aF59.8638391494751
aa(lp6
S'timestamp'
p7
aF5.9425578117370605
aatp8
Rp9
.ccollections
OrderedDict
p0
((lp1
(lp2
S'state'
p3
aI0
aa(lp4
S'distance'
p5
aF59.8638391494751
aa(lp6
S'timestamp'
p7
aF5.94317102432251
aatp8
Rp9
.ccollections
OrderedDict
p0
((lp1
(lp2
S'state'
p3
aI0
aa(lp4
S'distance'
p5
aF59.8638391494751
aa(lp6
S'timestamp'
p7
aF5.952558994293213
aatp8
Rp9
.ccollections
OrderedDict
p0
((lp1
(lp2
S'state'
p3
aI0
aa(lp4
S'distance'
p5
aF59.8638391494751
aa(lp6
S'timestamp'
p7
aF5.9531989097595215
aatp8
Rp9
.ccollections
OrderedDict
p0
((lp1
(lp2
S'state'
p3
aI0
aa(lp4
S'distance'
p5
aF59.8638391494751
aa(lp6
S'timestamp'
p7
aF5.962450981140137
aatp8
Rp9
.ccollections
OrderedDict
p0
((lp1
(lp2
S'state'
p3
aI0
aa(lp4
S'distance'
p5
aF59.8638391494751
aa(lp6
S'timestamp'
p7
aF5.964227914810181
aatp8
Rp9
.ccollections
OrderedDict
p0
((lp1
(lp2
S'state'
p3
aI0
aa(lp4
S'distance'
p5
aF59.8638391494751
aa(lp6
S'timestamp'
p7
aF5.9725799560546875
aatp8
Rp9
.ccollections
OrderedDict
p0
((lp1
(lp2
S'state'
p3
aI0
aa(lp4
S'distance'
p5
aF59.8638391494751
aa(lp6
S'timestamp'
p7
aF5.974043846130371
aatp8
Rp9
.ccollections
OrderedDict
p0
((lp1
(lp2
S'state'
p3
aI0
aa(lp4
S'distance'
p5
aF59.8638391494751
aa(lp6
S'timestamp'
p7
aF5.982431888580322
aatp8
Rp9
.ccollections
OrderedDict
p0
((lp1
(lp2
S'state'
p3
aI0
aa(lp4
S'distance'
p5
aF59.8638391494751
aa(lp6
S'timestamp'
p7
aF5.9840028285980225
aatp8
Rp9
.ccollections
OrderedDict
p0
((lp1
(lp2
S'state'
p3
aI0
aa(lp4
S'distance'
p5
aF59.8638391494751
aa(lp6
S'timestamp'
p7
aF5.992444038391113
aatp8
Rp9
.ccollections
OrderedDict
p0
((lp1
(lp2
S'state'
p3
aI0
aa(lp4
S'distance'
p5
aF59.8638391494751
aa(lp6
S'timestamp'
p7
aF5.993746995925903
aatp8
Rp9
.ccollections
OrderedDict
p0
((lp1
(lp2
S'state'
p3
aI0
aa(lp4
S'distance'
p5
aF59.8638391494751
aa(lp6
S'timestamp'
p7
aF6.00295090675354
aatp8
Rp9
.ccollections
OrderedDict
p0
((lp1
(lp2
S'state'
p3
aI0
aa(lp4
S'distance'
p5
aF59.8638391494751
aa(lp6
S'timestamp'
p7
aF6.003669023513794
aatp8
Rp9
.ccollections
OrderedDict
p0
((lp1
(lp2
S'state'
p3
aI0
aa(lp4
S'distance'
p5
aF59.8638391494751
aa(lp6
S'timestamp'
p7
aF6.012601852416992
aatp8
Rp9
.ccollections
OrderedDict
p0
((lp1
(lp2
S'state'
p3
aI0
aa(lp4
S'distance'
p5
aF59.8638391494751
aa(lp6
S'timestamp'
p7
aF6.013620853424072
aatp8
Rp9
.ccollections
OrderedDict
p0
((lp1
(lp2
S'state'
p3
aI0
aa(lp4
S'distance'
p5
aF59.8638391494751
aa(lp6
S'timestamp'
p7
aF6.023754835128784
aatp8
Rp9
.ccollections
OrderedDict
p0
((lp1
(lp2
S'state'
p3
aI0
aa(lp4
S'distance'
p5
aF59.8638391494751
aa(lp6
S'timestamp'
p7
aF6.023963928222656
aatp8
Rp9
.ccollections
OrderedDict
p0
((lp1
(lp2
S'state'
p3
aI0
aa(lp4
S'distance'
p5
aF59.8638391494751
aa(lp6
S'timestamp'
p7
aF6.033175945281982
aatp8
Rp9
.ccollections
OrderedDict
p0
((lp1
(lp2
S'state'
p3
aI0
aa(lp4
S'distance'
p5
aF59.8638391494751
aa(lp6
S'timestamp'
p7
aF6.033608913421631
aatp8
Rp9
.ccollections
OrderedDict
p0
((lp1
(lp2
S'state'
p3
aI0
aa(lp4
S'distance'
p5
aF59.8638391494751
aa(lp6
S'timestamp'
p7
aF6.043113946914673
aatp8
Rp9
.ccollections
OrderedDict
p0
((lp1
(lp2
S'state'
p3
aI0
aa(lp4
S'distance'
p5
aF59.8638391494751
aa(lp6
S'timestamp'
p7
aF6.043942928314209
aatp8
Rp9
.ccollections
OrderedDict
p0
((lp1
(lp2
S'state'
p3
aI0
aa(lp4
S'distance'
p5
aF59.8638391494751
aa(lp6
S'timestamp'
p7
aF6.05397891998291
aatp8
Rp9
.ccollections
OrderedDict
p0
((lp1
(lp2
S'state'
p3
aI0
aa(lp4
S'distance'
p5
aF59.8638391494751
aa(lp6
S'timestamp'
p7
aF6.054754972457886
aatp8
Rp9
.ccollections
OrderedDict
p0
((lp1
(lp2
S'state'
p3
aI0
aa(lp4
S'distance'
p5
aF59.8638391494751
aa(lp6
S'timestamp'
p7
aF6.062647819519043
aatp8
Rp9
.ccollections
OrderedDict
p0
((lp1
(lp2
S'state'
p3
aI0
aa(lp4
S'distance'
p5
aF59.8638391494751
aa(lp6
S'timestamp'
p7
aF6.063877820968628
aatp8
Rp9
.ccollections
OrderedDict
p0
((lp1
(lp2
S'state'
p3
aI0
aa(lp4
S'distance'
p5
aF59.8638391494751
aa(lp6
S'timestamp'
p7
aF6.072507858276367
aatp8
Rp9
.ccollections
OrderedDict
p0
((lp1
(lp2
S'state'
p3
aI0
aa(lp4
S'distance'
p5
aF59.8638391494751
aa(lp6
S'timestamp'
p7
aF6.077371835708618
aatp8
Rp9
.ccollections
OrderedDict
p0
((lp1
(lp2
S'state'
p3
aI0
aa(lp4
S'distance'
p5
aF59.8638391494751
aa(lp6
S'timestamp'
p7
aF6.084537029266357
aatp8
Rp9
.ccollections
OrderedDict
p0
((lp1
(lp2
S'state'
p3
aI0
aa(lp4
S'distance'
p5
aF59.8638391494751
aa(lp6
S'timestamp'
p7
aF6.0853729248046875
aatp8
Rp9
.ccollections
OrderedDict
p0
((lp1
(lp2
S'state'
p3
aI0
aa(lp4
S'distance'
p5
aF59.8638391494751
aa(lp6
S'timestamp'
p7
aF6.092650890350342
aatp8
Rp9
.ccollections
OrderedDict
p0
((lp1
(lp2
S'state'
p3
aI0
aa(lp4
S'distance'
p5
aF59.8638391494751
aa(lp6
S'timestamp'
p7
aF6.093475818634033
aatp8
Rp9
.ccollections
OrderedDict
p0
((lp1
(lp2
S'state'
p3
aI0
aa(lp4
S'distance'
p5
aF59.8638391494751
aa(lp6
S'timestamp'
p7
aF6.103585958480835
aatp8
Rp9
.ccollections
OrderedDict
p0
((lp1
(lp2
S'state'
p3
aI0
aa(lp4
S'distance'
p5
aF59.8638391494751
aa(lp6
S'timestamp'
p7
aF6.104766845703125
aatp8
Rp9
.ccollections
OrderedDict
p0
((lp1
(lp2
S'state'
p3
aI0
aa(lp4
S'distance'
p5
aF59.8638391494751
aa(lp6
S'timestamp'
p7
aF6.112646818161011
aatp8
Rp9
.ccollections
OrderedDict
p0
((lp1
(lp2
S'state'
p3
aI0
aa(lp4
S'distance'
p5
aF59.8638391494751
aa(lp6
S'timestamp'
p7
aF6.113524913787842
aatp8
Rp9
.ccollections
OrderedDict
p0
((lp1
(lp2
S'state'
p3
aI0
aa(lp4
S'distance'
p5
aF59.8638391494751
aa(lp6
S'timestamp'
p7
aF6.122753858566284
aatp8
Rp9
.ccollections
OrderedDict
p0
((lp1
(lp2
S'state'
p3
aI0
aa(lp4
S'distance'
p5
aF59.8638391494751
aa(lp6
S'timestamp'
p7
aF6.125516891479492
aatp8
Rp9
.ccollections
OrderedDict
p0
((lp1
(lp2
S'state'
p3
aI0
aa(lp4
S'distance'
p5
aF59.8638391494751
aa(lp6
S'timestamp'
p7
aF6.133282899856567
aatp8
Rp9
.ccollections
OrderedDict
p0
((lp1
(lp2
S'state'
p3
aI0
aa(lp4
S'distance'
p5
aF59.8638391494751
aa(lp6
S'timestamp'
p7
aF6.134928941726685
aatp8
Rp9
.ccollections
OrderedDict
p0
((lp1
(lp2
S'state'
p3
aI0
aa(lp4
S'distance'
p5
aF59.8638391494751
aa(lp6
S'timestamp'
p7
aF6.143441915512085
aatp8
Rp9
.ccollections
OrderedDict
p0
((lp1
(lp2
S'state'
p3
aI0
aa(lp4
S'distance'
p5
aF59.8638391494751
aa(lp6
S'timestamp'
p7
aF6.14457893371582
aatp8
Rp9
.ccollections
OrderedDict
p0
((lp1
(lp2
S'state'
p3
aI0
aa(lp4
S'distance'
p5
aF59.8638391494751
aa(lp6
S'timestamp'
p7
aF6.152318954467773
aatp8
Rp9
.ccollections
OrderedDict
p0
((lp1
(lp2
S'state'
p3
aI0
aa(lp4
S'distance'
p5
aF59.8638391494751
aa(lp6
S'timestamp'
p7
aF6.153230905532837
aatp8
Rp9
.ccollections
OrderedDict
p0
((lp1
(lp2
S'state'
p3
aI0
aa(lp4
S'distance'
p5
aF59.8638391494751
aa(lp6
S'timestamp'
p7
aF6.1625189781188965
aatp8
Rp9
.ccollections
OrderedDict
p0
((lp1
(lp2
S'state'
p3
aI0
aa(lp4
S'distance'
p5
aF59.8638391494751
aa(lp6
S'timestamp'
p7
aF6.163908004760742
aatp8
Rp9
.ccollections
OrderedDict
p0
((lp1
(lp2
S'state'
p3
aI0
aa(lp4
S'distance'
p5
aF59.8638391494751
aa(lp6
S'timestamp'
p7
aF6.17400598526001
aatp8
Rp9
.ccollections
OrderedDict
p0
((lp1
(lp2
S'state'
p3
aI0
aa(lp4
S'distance'
p5
aF59.8638391494751
aa(lp6
S'timestamp'
p7
aF6.174091815948486
aatp8
Rp9
.ccollections
OrderedDict
p0
((lp1
(lp2
S'state'
p3
aI0
aa(lp4
S'distance'
p5
aF59.8638391494751
aa(lp6
S'timestamp'
p7
aF6.182327032089233
aatp8
Rp9
.ccollections
OrderedDict
p0
((lp1
(lp2
S'state'
p3
aI0
aa(lp4
S'distance'
p5
aF59.8638391494751
aa(lp6
S'timestamp'
p7
aF6.183388948440552
aatp8
Rp9
.ccollections
OrderedDict
p0
((lp1
(lp2
S'state'
p3
aI0
aa(lp4
S'distance'
p5
aF59.8638391494751
aa(lp6
S'timestamp'
p7
aF6.193140029907227
aatp8
Rp9
.ccollections
OrderedDict
p0
((lp1
(lp2
S'state'
p3
aI0
aa(lp4
S'distance'
p5
aF59.8638391494751
aa(lp6
S'timestamp'
p7
aF6.193300008773804
aatp8
Rp9
.ccollections
OrderedDict
p0
((lp1
(lp2
S'state'
p3
aI0
aa(lp4
S'distance'
p5
aF59.8638391494751
aa(lp6
S'timestamp'
p7
aF6.20238995552063
aatp8
Rp9
.ccollections
OrderedDict
p0
((lp1
(lp2
S'state'
p3
aI0
aa(lp4
S'distance'
p5
aF59.8638391494751
aa(lp6
S'timestamp'
p7
aF6.2033069133758545
aatp8
Rp9
.ccollections
OrderedDict
p0
((lp1
(lp2
S'state'
p3
aI0
aa(lp4
S'distance'
p5
aF59.8638391494751
aa(lp6
S'timestamp'
p7
aF6.212389945983887
aatp8
Rp9
.ccollections
OrderedDict
p0
((lp1
(lp2
S'state'
p3
aI0
aa(lp4
S'distance'
p5
aF59.8638391494751
aa(lp6
S'timestamp'
p7
aF6.213336944580078
aatp8
Rp9
.ccollections
OrderedDict
p0
((lp1
(lp2
S'state'
p3
aI0
aa(lp4
S'distance'
p5
aF59.8638391494751
aa(lp6
S'timestamp'
p7
aF6.222486972808838
aatp8
Rp9
.ccollections
OrderedDict
p0
((lp1
(lp2
S'state'
p3
aI0
aa(lp4
S'distance'
p5
aF59.8638391494751
aa(lp6
S'timestamp'
p7
aF6.223546028137207
aatp8
Rp9
.ccollections
OrderedDict
p0
((lp1
(lp2
S'state'
p3
aI0
aa(lp4
S'distance'
p5
aF59.8638391494751
aa(lp6
S'timestamp'
p7
aF6.232324838638306
aatp8
Rp9
.ccollections
OrderedDict
p0
((lp1
(lp2
S'state'
p3
aI0
aa(lp4
S'distance'
p5
aF59.8638391494751
aa(lp6
S'timestamp'
p7
aF6.2334089279174805
aatp8
Rp9
.ccollections
OrderedDict
p0
((lp1
(lp2
S'state'
p3
aI0
aa(lp4
S'distance'
p5
aF59.8638391494751
aa(lp6
S'timestamp'
p7
aF6.243044853210449
aatp8
Rp9
.ccollections
OrderedDict
p0
((lp1
(lp2
S'state'
p3
aI0
aa(lp4
S'distance'
p5
aF59.8638391494751
aa(lp6
S'timestamp'
p7
aF6.244552850723267
aatp8
Rp9
.ccollections
OrderedDict
p0
((lp1
(lp2
S'state'
p3
aI0
aa(lp4
S'distance'
p5
aF59.8638391494751
aa(lp6
S'timestamp'
p7
aF6.253211975097656
aatp8
Rp9
.ccollections
OrderedDict
p0
((lp1
(lp2
S'state'
p3
aI0
aa(lp4
S'distance'
p5
aF59.8638391494751
aa(lp6
S'timestamp'
p7
aF6.253526926040649
aatp8
Rp9
.ccollections
OrderedDict
p0
((lp1
(lp2
S'state'
p3
aI0
aa(lp4
S'distance'
p5
aF59.8638391494751
aa(lp6
S'timestamp'
p7
aF6.262383937835693
aatp8
Rp9
.ccollections
OrderedDict
p0
((lp1
(lp2
S'state'
p3
aI0
aa(lp4
S'distance'
p5
aF59.8638391494751
aa(lp6
S'timestamp'
p7
aF6.26305890083313
aatp8
Rp9
.ccollections
OrderedDict
p0
((lp1
(lp2
S'state'
p3
aI0
aa(lp4
S'distance'
p5
aF59.8638391494751
aa(lp6
S'timestamp'
p7
aF6.2723729610443115
aatp8
Rp9
.ccollections
OrderedDict
p0
((lp1
(lp2
S'state'
p3
aI0
aa(lp4
S'distance'
p5
aF59.8638391494751
aa(lp6
S'timestamp'
p7
aF6.273594856262207
aatp8
Rp9
.ccollections
OrderedDict
p0
((lp1
(lp2
S'state'
p3
aI0
aa(lp4
S'distance'
p5
aF59.8638391494751
aa(lp6
S'timestamp'
p7
aF6.282383918762207
aatp8
Rp9
.ccollections
OrderedDict
p0
((lp1
(lp2
S'state'
p3
aI0
aa(lp4
S'distance'
p5
aF59.8638391494751
aa(lp6
S'timestamp'
p7
aF6.283358812332153
aatp8
Rp9
.ccollections
OrderedDict
p0
((lp1
(lp2
S'state'
p3
aI0
aa(lp4
S'distance'
p5
aF59.8638391494751
aa(lp6
S'timestamp'
p7
aF6.292356014251709
aatp8
Rp9
.ccollections
OrderedDict
p0
((lp1
(lp2
S'state'
p3
aI0
aa(lp4
S'distance'
p5
aF59.8638391494751
aa(lp6
S'timestamp'
p7
aF6.293622970581055
aatp8
Rp9
.ccollections
OrderedDict
p0
((lp1
(lp2
S'state'
p3
aI0
aa(lp4
S'distance'
p5
aF59.8638391494751
aa(lp6
S'timestamp'
p7
aF6.302515029907227
aatp8
Rp9
.ccollections
OrderedDict
p0
((lp1
(lp2
S'state'
p3
aI0
aa(lp4
S'distance'
p5
aF59.8638391494751
aa(lp6
S'timestamp'
p7
aF6.303015947341919
aatp8
Rp9
.ccollections
OrderedDict
p0
((lp1
(lp2
S'state'
p3
aI0
aa(lp4
S'distance'
p5
aF59.8638391494751
aa(lp6
S'timestamp'
p7
aF6.312516927719116
aatp8
Rp9
.ccollections
OrderedDict
p0
((lp1
(lp2
S'state'
p3
aI0
aa(lp4
S'distance'
p5
aF59.8638391494751
aa(lp6
S'timestamp'
p7
aF6.312964916229248
aatp8
Rp9
.ccollections
OrderedDict
p0
((lp1
(lp2
S'state'
p3
aI0
aa(lp4
S'distance'
p5
aF59.8638391494751
aa(lp6
S'timestamp'
p7
aF6.322587966918945
aatp8
Rp9
.ccollections
OrderedDict
p0
((lp1
(lp2
S'state'
p3
aI0
aa(lp4
S'distance'
p5
aF59.8638391494751
aa(lp6
S'timestamp'
p7
aF6.323614835739136
aatp8
Rp9
.ccollections
OrderedDict
p0
((lp1
(lp2
S'state'
p3
aI0
aa(lp4
S'distance'
p5
aF59.8638391494751
aa(lp6
S'timestamp'
p7
aF6.33231782913208
aatp8
Rp9
.ccollections
OrderedDict
p0
((lp1
(lp2
S'state'
p3
aI0
aa(lp4
S'distance'
p5
aF59.8638391494751
aa(lp6
S'timestamp'
p7
aF6.333463907241821
aatp8
Rp9
.ccollections
OrderedDict
p0
((lp1
(lp2
S'state'
p3
aI0
aa(lp4
S'distance'
p5
aF59.8638391494751
aa(lp6
S'timestamp'
p7
aF6.342571020126343
aatp8
Rp9
.ccollections
OrderedDict
p0
((lp1
(lp2
S'state'
p3
aI0
aa(lp4
S'distance'
p5
aF59.8638391494751
aa(lp6
S'timestamp'
p7
aF6.352471828460693
aatp8
Rp9
.ccollections
OrderedDict
p0
((lp1
(lp2
S'state'
p3
aI0
aa(lp4
S'distance'
p5
aF59.8638391494751
aa(lp6
S'timestamp'
p7
aF6.354066848754883
aatp8
Rp9
.ccollections
OrderedDict
p0
((lp1
(lp2
S'state'
p3
aI0
aa(lp4
S'distance'
p5
aF59.8638391494751
aa(lp6
S'timestamp'
p7
aF6.354296922683716
aatp8
Rp9
.ccollections
OrderedDict
p0
((lp1
(lp2
S'state'
p3
aI0
aa(lp4
S'distance'
p5
aF59.8638391494751
aa(lp6
S'timestamp'
p7
aF6.36258602142334
aatp8
Rp9
.ccollections
OrderedDict
p0
((lp1
(lp2
S'state'
p3
aI0
aa(lp4
S'distance'
p5
aF59.8638391494751
aa(lp6
S'timestamp'
p7
aF6.363152980804443
aatp8
Rp9
.ccollections
OrderedDict
p0
((lp1
(lp2
S'state'
p3
aI0
aa(lp4
S'distance'
p5
aF59.8638391494751
aa(lp6
S'timestamp'
p7
aF6.372375965118408
aatp8
Rp9
.ccollections
OrderedDict
p0
((lp1
(lp2
S'state'
p3
aI0
aa(lp4
S'distance'
p5
aF59.8638391494751
aa(lp6
S'timestamp'
p7
aF6.3729939460754395
aatp8
Rp9
.ccollections
OrderedDict
p0
((lp1
(lp2
S'state'
p3
aI0
aa(lp4
S'distance'
p5
aF59.8638391494751
aa(lp6
S'timestamp'
p7
aF6.382513999938965
aatp8
Rp9
.ccollections
OrderedDict
p0
((lp1
(lp2
S'state'
p3
aI0
aa(lp4
S'distance'
p5
aF59.8638391494751
aa(lp6
S'timestamp'
p7
aF6.383620023727417
aatp8
Rp9
.ccollections
OrderedDict
p0
((lp1
(lp2
S'state'
p3
aI0
aa(lp4
S'distance'
p5
aF59.8638391494751
aa(lp6
S'timestamp'
p7
aF6.392369985580444
aatp8
Rp9
.ccollections
OrderedDict
p0
((lp1
(lp2
S'state'
p3
aI0
aa(lp4
S'distance'
p5
aF59.8638391494751
aa(lp6
S'timestamp'
p7
aF6.393247842788696
aatp8
Rp9
.ccollections
OrderedDict
p0
((lp1
(lp2
S'state'
p3
aI0
aa(lp4
S'distance'
p5
aF59.8638391494751
aa(lp6
S'timestamp'
p7
aF6.402305841445923
aatp8
Rp9
.ccollections
OrderedDict
p0
((lp1
(lp2
S'state'
p3
aI0
aa(lp4
S'distance'
p5
aF59.8638391494751
aa(lp6
S'timestamp'
p7
aF6.403761863708496
aatp8
Rp9
.ccollections
OrderedDict
p0
((lp1
(lp2
S'state'
p3
aI0
aa(lp4
S'distance'
p5
aF59.8638391494751
aa(lp6
S'timestamp'
p7
aF6.412247896194458
aatp8
Rp9
.ccollections
OrderedDict
p0
((lp1
(lp2
S'state'
p3
aI0
aa(lp4
S'distance'
p5
aF59.8638391494751
aa(lp6
S'timestamp'
p7
aF6.4133219718933105
aatp8
Rp9
.ccollections
OrderedDict
p0
((lp1
(lp2
S'state'
p3
aI0
aa(lp4
S'distance'
p5
aF59.8638391494751
aa(lp6
S'timestamp'
p7
aF6.4223809242248535
aatp8
Rp9
.ccollections
OrderedDict
p0
((lp1
(lp2
S'state'
p3
aI0
aa(lp4
S'distance'
p5
aF59.8638391494751
aa(lp6
S'timestamp'
p7
aF6.4233558177948
aatp8
Rp9
.ccollections
OrderedDict
p0
((lp1
(lp2
S'state'
p3
aI0
aa(lp4
S'distance'
p5
aF59.8638391494751
aa(lp6
S'timestamp'
p7
aF6.433171987533569
aatp8
Rp9
.ccollections
OrderedDict
p0
((lp1
(lp2
S'state'
p3
aI0
aa(lp4
S'distance'
p5
aF59.8638391494751
aa(lp6
S'timestamp'
p7
aF6.433313846588135
aatp8
Rp9
.ccollections
OrderedDict
p0
((lp1
(lp2
S'state'
p3
aI0
aa(lp4
S'distance'
p5
aF59.8638391494751
aa(lp6
S'timestamp'
p7
aF6.463045835494995
aatp8
Rp9
.ccollections
OrderedDict
p0
((lp1
(lp2
S'state'
p3
aI0
aa(lp4
S'distance'
p5
aF59.8638391494751
aa(lp6
S'timestamp'
p7
aF6.463528871536255
aatp8
Rp9
.ccollections
OrderedDict
p0
((lp1
(lp2
S'state'
p3
aI0
aa(lp4
S'distance'
p5
aF59.8638391494751
aa(lp6
S'timestamp'
p7
aF6.464395046234131
aatp8
Rp9
.ccollections
OrderedDict
p0
((lp1
(lp2
S'state'
p3
aI0
aa(lp4
S'distance'
p5
aF59.8638391494751
aa(lp6
S'timestamp'
p7
aF6.464696884155273
aatp8
Rp9
.ccollections
OrderedDict
p0
((lp1
(lp2
S'state'
p3
aI0
aa(lp4
S'distance'
p5
aF59.8638391494751
aa(lp6
S'timestamp'
p7
aF6.472568988800049
aatp8
Rp9
.ccollections
OrderedDict
p0
((lp1
(lp2
S'state'
p3
aI0
aa(lp4
S'distance'
p5
aF59.8638391494751
aa(lp6
S'timestamp'
p7
aF6.473021984100342
aatp8
Rp9
.ccollections
OrderedDict
p0
((lp1
(lp2
S'state'
p3
aI0
aa(lp4
S'distance'
p5
aF59.8638391494751
aa(lp6
S'timestamp'
p7
aF6.48275089263916
aatp8
Rp9
.ccollections
OrderedDict
p0
((lp1
(lp2
S'state'
p3
aI0
aa(lp4
S'distance'
p5
aF59.8638391494751
aa(lp6
S'timestamp'
p7
aF6.482875823974609
aatp8
Rp9
.ccollections
OrderedDict
p0
((lp1
(lp2
S'state'
p3
aI0
aa(lp4
S'distance'
p5
aF59.8638391494751
aa(lp6
S'timestamp'
p7
aF6.483877897262573
aatp8
Rp9
.ccollections
OrderedDict
p0
((lp1
(lp2
S'state'
p3
aI0
aa(lp4
S'distance'
p5
aF59.8638391494751
aa(lp6
S'timestamp'
p7
aF6.484174013137817
aatp8
Rp9
.ccollections
OrderedDict
p0
((lp1
(lp2
S'state'
p3
aI0
aa(lp4
S'distance'
p5
aF59.8638391494751
aa(lp6
S'timestamp'
p7
aF6.49231481552124
aatp8
Rp9
.ccollections
OrderedDict
p0
((lp1
(lp2
S'state'
p3
aI0
aa(lp4
S'distance'
p5
aF59.8638391494751
aa(lp6
S'timestamp'
p7
aF6.493440866470337
aatp8
Rp9
.ccollections
OrderedDict
p0
((lp1
(lp2
S'state'
p3
aI0
aa(lp4
S'distance'
p5
aF59.8638391494751
aa(lp6
S'timestamp'
p7
aF6.512528896331787
aatp8
Rp9
.ccollections
OrderedDict
p0
((lp1
(lp2
S'state'
p3
aI0
aa(lp4
S'distance'
p5
aF59.8638391494751
aa(lp6
S'timestamp'
p7
aF6.513032913208008
aatp8
Rp9
.ccollections
OrderedDict
p0
((lp1
(lp2
S'state'
p3
aI0
aa(lp4
S'distance'
p5
aF59.8638391494751
aa(lp6
S'timestamp'
p7
aF6.514045000076294
aatp8
Rp9
.ccollections
OrderedDict
p0
((lp1
(lp2
S'state'
p3
aI0
aa(lp4
S'distance'
p5
aF59.8638391494751
aa(lp6
S'timestamp'
p7
aF6.514379024505615
aatp8
Rp9
.ccollections
OrderedDict
p0
((lp1
(lp2
S'state'
p3
aI0
aa(lp4
S'distance'
p5
aF59.8638391494751
aa(lp6
S'timestamp'
p7
aF6.523108959197998
aatp8
Rp9
.ccollections
OrderedDict
p0
((lp1
(lp2
S'state'
p3
aI0
aa(lp4
S'distance'
p5
aF59.8638391494751
aa(lp6
S'timestamp'
p7
aF6.5250279903411865
aatp8
Rp9
.ccollections
OrderedDict
p0
((lp1
(lp2
S'state'
p3
aI0
aa(lp4
S'distance'
p5
aF59.8638391494751
aa(lp6
S'timestamp'
p7
aF6.5323028564453125
aatp8
Rp9
.ccollections
OrderedDict
p0
((lp1
(lp2
S'state'
p3
aI0
aa(lp4
S'distance'
p5
aF59.8638391494751
aa(lp6
S'timestamp'
p7
aF6.533252000808716
aatp8
Rp9
.ccollections
OrderedDict
p0
((lp1
(lp2
S'state'
p3
aI0
aa(lp4
S'distance'
p5
aF59.8638391494751
aa(lp6
S'timestamp'
p7
aF6.542578935623169
aatp8
Rp9
.ccollections
OrderedDict
p0
((lp1
(lp2
S'state'
p3
aI0
aa(lp4
S'distance'
p5
aF59.8638391494751
aa(lp6
S'timestamp'
p7
aF6.543449878692627
aatp8
Rp9
.ccollections
OrderedDict
p0
((lp1
(lp2
S'state'
p3
aI0
aa(lp4
S'distance'
p5
aF59.8638391494751
aa(lp6
S'timestamp'
p7
aF6.552465915679932
aatp8
Rp9
.ccollections
OrderedDict
p0
((lp1
(lp2
S'state'
p3
aI0
aa(lp4
S'distance'
p5
aF59.8638391494751
aa(lp6
S'timestamp'
p7
aF6.5531089305877686
aatp8
Rp9
.ccollections
OrderedDict
p0
((lp1
(lp2
S'state'
p3
aI0
aa(lp4
S'distance'
p5
aF59.8638391494751
aa(lp6
S'timestamp'
p7
aF6.562259912490845
aatp8
Rp9
.ccollections
OrderedDict
p0
((lp1
(lp2
S'state'
p3
aI0
aa(lp4
S'distance'
p5
aF59.8638391494751
aa(lp6
S'timestamp'
p7
aF6.563716888427734
aatp8
Rp9
.ccollections
OrderedDict
p0
((lp1
(lp2
S'state'
p3
aI0
aa(lp4
S'distance'
p5
aF59.8638391494751
aa(lp6
S'timestamp'
p7
aF6.572423934936523
aatp8
Rp9
.ccollections
OrderedDict
p0
((lp1
(lp2
S'state'
p3
aI0
aa(lp4
S'distance'
p5
aF59.8638391494751
aa(lp6
S'timestamp'
p7
aF6.573232889175415
aatp8
Rp9
.ccollections
OrderedDict
p0
((lp1
(lp2
S'state'
p3
aI0
aa(lp4
S'distance'
p5
aF59.8638391494751
aa(lp6
S'timestamp'
p7
aF6.582401990890503
aatp8
Rp9
.ccollections
OrderedDict
p0
((lp1
(lp2
S'state'
p3
aI0
aa(lp4
S'distance'
p5
aF59.8638391494751
aa(lp6
S'timestamp'
p7
aF6.583401918411255
aatp8
Rp9
.ccollections
OrderedDict
p0
((lp1
(lp2
S'state'
p3
aI0
aa(lp4
S'distance'
p5
aF59.8638391494751
aa(lp6
S'timestamp'
p7
aF6.59247899055481
aatp8
Rp9
.ccollections
OrderedDict
p0
((lp1
(lp2
S'state'
p3
aI0
aa(lp4
S'distance'
p5
aF59.8638391494751
aa(lp6
S'timestamp'
p7
aF6.593317985534668
aatp8
Rp9
.ccollections
OrderedDict
p0
((lp1
(lp2
S'state'
p3
aI0
aa(lp4
S'distance'
p5
aF59.8638391494751
aa(lp6
S'timestamp'
p7
aF6.602324962615967
aatp8
Rp9
.ccollections
OrderedDict
p0
((lp1
(lp2
S'state'
p3
aI0
aa(lp4
S'distance'
p5
aF59.8638391494751
aa(lp6
S'timestamp'
p7
aF6.603765964508057
aatp8
Rp9
.ccollections
OrderedDict
p0
((lp1
(lp2
S'state'
p3
aI0
aa(lp4
S'distance'
p5
aF59.8638391494751
aa(lp6
S'timestamp'
p7
aF6.6125328540802
aatp8
Rp9
.ccollections
OrderedDict
p0
((lp1
(lp2
S'state'
p3
aI0
aa(lp4
S'distance'
p5
aF59.8638391494751
aa(lp6
S'timestamp'
p7
aF6.614497900009155
aatp8
Rp9
.ccollections
OrderedDict
p0
((lp1
(lp2
S'state'
p3
aI0
aa(lp4
S'distance'
p5
aF59.8638391494751
aa(lp6
S'timestamp'
p7
aF6.62573504447937
aatp8
Rp9
.ccollections
OrderedDict
p0
((lp1
(lp2
S'state'
p3
aI0
aa(lp4
S'distance'
p5
aF59.8638391494751
aa(lp6
S'timestamp'
p7
aF6.626406908035278
aatp8
Rp9
.ccollections
OrderedDict
p0
((lp1
(lp2
S'state'
p3
aI0
aa(lp4
S'distance'
p5
aF59.8638391494751
aa(lp6
S'timestamp'
p7
aF6.63291597366333
aatp8
Rp9
.ccollections
OrderedDict
p0
((lp1
(lp2
S'state'
p3
aI0
aa(lp4
S'distance'
p5
aF59.8638391494751
aa(lp6
S'timestamp'
p7
aF6.633826017379761
aatp8
Rp9
.ccollections
OrderedDict
p0
((lp1
(lp2
S'state'
p3
aI0
aa(lp4
S'distance'
p5
aF59.8638391494751
aa(lp6
S'timestamp'
p7
aF6.642761945724487
aatp8
Rp9
.ccollections
OrderedDict
p0
((lp1
(lp2
S'state'
p3
aI0
aa(lp4
S'distance'
p5
aF59.8638391494751
aa(lp6
S'timestamp'
p7
aF6.645417928695679
aatp8
Rp9
.ccollections
OrderedDict
p0
((lp1
(lp2
S'state'
p3
aI0
aa(lp4
S'distance'
p5
aF59.8638391494751
aa(lp6
S'timestamp'
p7
aF6.652209997177124
aatp8
Rp9
.ccollections
OrderedDict
p0
((lp1
(lp2
S'state'
p3
aI0
aa(lp4
S'distance'
p5
aF59.8638391494751
aa(lp6
S'timestamp'
p7
aF6.653684854507446
aatp8
Rp9
.ccollections
OrderedDict
p0
((lp1
(lp2
S'state'
p3
aI0
aa(lp4
S'distance'
p5
aF59.8638391494751
aa(lp6
S'timestamp'
p7
aF6.662838935852051
aatp8
Rp9
.ccollections
OrderedDict
p0
((lp1
(lp2
S'state'
p3
aI0
aa(lp4
S'distance'
p5
aF59.8638391494751
aa(lp6
S'timestamp'
p7
aF6.664594888687134
aatp8
Rp9
.ccollections
OrderedDict
p0
((lp1
(lp2
S'state'
p3
aI0
aa(lp4
S'distance'
p5
aF59.8638391494751
aa(lp6
S'timestamp'
p7
aF6.672931909561157
aatp8
Rp9
.ccollections
OrderedDict
p0
((lp1
(lp2
S'state'
p3
aI0
aa(lp4
S'distance'
p5
aF59.8638391494751
aa(lp6
S'timestamp'
p7
aF6.6741180419921875
aatp8
Rp9
.ccollections
OrderedDict
p0
((lp1
(lp2
S'state'
p3
aI0
aa(lp4
S'distance'
p5
aF59.8638391494751
aa(lp6
S'timestamp'
p7
aF6.6931188106536865
aatp8
Rp9
.ccollections
OrderedDict
p0
((lp1
(lp2
S'state'
p3
aI0
aa(lp4
S'distance'
p5
aF59.8638391494751
aa(lp6
S'timestamp'
p7
aF6.69353985786438
aatp8
Rp9
.ccollections
OrderedDict
p0
((lp1
(lp2
S'state'
p3
aI0
aa(lp4
S'distance'
p5
aF59.8638391494751
aa(lp6
S'timestamp'
p7
aF6.696375846862793
aatp8
Rp9
.ccollections
OrderedDict
p0
((lp1
(lp2
S'state'
p3
aI0
aa(lp4
S'distance'
p5
aF59.8638391494751
aa(lp6
S'timestamp'
p7
aF6.706238031387329
aatp8
Rp9
.ccollections
OrderedDict
p0
((lp1
(lp2
S'state'
p3
aI0
aa(lp4
S'distance'
p5
aF59.8638391494751
aa(lp6
S'timestamp'
p7
aF6.707921028137207
aatp8
Rp9
.ccollections
OrderedDict
p0
((lp1
(lp2
S'state'
p3
aI0
aa(lp4
S'distance'
p5
aF59.8638391494751
aa(lp6
S'timestamp'
p7
aF6.708300828933716
aatp8
Rp9
.ccollections
OrderedDict
p0
((lp1
(lp2
S'state'
p3
aI0
aa(lp4
S'distance'
p5
aF59.8638391494751
aa(lp6
S'timestamp'
p7
aF6.7228498458862305
aatp8
Rp9
.ccollections
OrderedDict
p0
((lp1
(lp2
S'state'
p3
aI0
aa(lp4
S'distance'
p5
aF59.8638391494751
aa(lp6
S'timestamp'
p7
aF6.723737001419067
aatp8
Rp9
.ccollections
OrderedDict
p0
((lp1
(lp2
S'state'
p3
aI0
aa(lp4
S'distance'
p5
aF59.8638391494751
aa(lp6
S'timestamp'
p7
aF6.724028825759888
aatp8
Rp9
.ccollections
OrderedDict
p0
((lp1
(lp2
S'state'
p3
aI0
aa(lp4
S'distance'
p5
aF59.8638391494751
aa(lp6
S'timestamp'
p7
aF6.725144863128662
aatp8
Rp9
.ccollections
OrderedDict
p0
((lp1
(lp2
S'state'
p3
aI0
aa(lp4
S'distance'
p5
aF59.8638391494751
aa(lp6
S'timestamp'
p7
aF6.732446908950806
aatp8
Rp9
.ccollections
OrderedDict
p0
((lp1
(lp2
S'state'
p3
aI0
aa(lp4
S'distance'
p5
aF59.8638391494751
aa(lp6
S'timestamp'
p7
aF6.733605861663818
aatp8
Rp9
.ccollections
OrderedDict
p0
((lp1
(lp2
S'state'
p3
aI0
aa(lp4
S'distance'
p5
aF59.8638391494751
aa(lp6
S'timestamp'
p7
aF6.742624998092651
aatp8
Rp9
.ccollections
OrderedDict
p0
((lp1
(lp2
S'state'
p3
aI0
aa(lp4
S'distance'
p5
aF59.8638391494751
aa(lp6
S'timestamp'
p7
aF6.7433998584747314
aatp8
Rp9
.ccollections
OrderedDict
p0
((lp1
(lp2
S'state'
p3
aI0
aa(lp4
S'distance'
p5
aF59.8638391494751
aa(lp6
S'timestamp'
p7
aF6.752686023712158
aatp8
Rp9
.ccollections
OrderedDict
p0
((lp1
(lp2
S'state'
p3
aI0
aa(lp4
S'distance'
p5
aF59.8638391494751
aa(lp6
S'timestamp'
p7
aF6.753257989883423
aatp8
Rp9
.ccollections
OrderedDict
p0
((lp1
(lp2
S'state'
p3
aI0
aa(lp4
S'distance'
p5
aF59.8638391494751
aa(lp6
S'timestamp'
p7
aF6.762689828872681
aatp8
Rp9
.ccollections
OrderedDict
p0
((lp1
(lp2
S'state'
p3
aI0
aa(lp4
S'distance'
p5
aF59.8638391494751
aa(lp6
S'timestamp'
p7
aF6.763065814971924
aatp8
Rp9
.ccollections
OrderedDict
p0
((lp1
(lp2
S'state'
p3
aI0
aa(lp4
S'distance'
p5
aF59.8638391494751
aa(lp6
S'timestamp'
p7
aF6.7726969718933105
aatp8
Rp9
.ccollections
OrderedDict
p0
((lp1
(lp2
S'state'
p3
aI0
aa(lp4
S'distance'
p5
aF59.8638391494751
aa(lp6
S'timestamp'
p7
aF6.773291826248169
aatp8
Rp9
.ccollections
OrderedDict
p0
((lp1
(lp2
S'state'
p3
aI0
aa(lp4
S'distance'
p5
aF59.8638391494751
aa(lp6
S'timestamp'
p7
aF6.782564878463745
aatp8
Rp9
.ccollections
OrderedDict
p0
((lp1
(lp2
S'state'
p3
aI0
aa(lp4
S'distance'
p5
aF59.8638391494751
aa(lp6
S'timestamp'
p7
aF6.783246994018555
aatp8
Rp9
.ccollections
OrderedDict
p0
((lp1
(lp2
S'state'
p3
aI0
aa(lp4
S'distance'
p5
aF59.8638391494751
aa(lp6
S'timestamp'
p7
aF6.792618989944458
aatp8
Rp9
.ccollections
OrderedDict
p0
((lp1
(lp2
S'state'
p3
aI0
aa(lp4
S'distance'
p5
aF59.8638391494751
aa(lp6
S'timestamp'
p7
aF6.79311203956604
aatp8
Rp9
.ccollections
OrderedDict
p0
((lp1
(lp2
S'state'
p3
aI0
aa(lp4
S'distance'
p5
aF59.8638391494751
aa(lp6
S'timestamp'
p7
aF6.802958965301514
aatp8
Rp9
.ccollections
OrderedDict
p0
((lp1
(lp2
S'state'
p3
aI0
aa(lp4
S'distance'
p5
aF59.8638391494751
aa(lp6
S'timestamp'
p7
aF6.803042888641357
aatp8
Rp9
.ccollections
OrderedDict
p0
((lp1
(lp2
S'state'
p3
aI0
aa(lp4
S'distance'
p5
aF59.8638391494751
aa(lp6
S'timestamp'
p7
aF6.8128509521484375
aatp8
Rp9
.ccollections
OrderedDict
p0
((lp1
(lp2
S'state'
p3
aI0
aa(lp4
S'distance'
p5
aF59.8638391494751
aa(lp6
S'timestamp'
p7
aF6.813041925430298
aatp8
Rp9
.ccollections
OrderedDict
p0
((lp1
(lp2
S'state'
p3
aI0
aa(lp4
S'distance'
p5
aF59.8638391494751
aa(lp6
S'timestamp'
p7
aF6.8228678703308105
aatp8
Rp9
.ccollections
OrderedDict
p0
((lp1
(lp2
S'state'
p3
aI0
aa(lp4
S'distance'
p5
aF59.8638391494751
aa(lp6
S'timestamp'
p7
aF6.823134899139404
aatp8
Rp9
.ccollections
OrderedDict
p0
((lp1
(lp2
S'state'
p3
aI0
aa(lp4
S'distance'
p5
aF59.8638391494751
aa(lp6
S'timestamp'
p7
aF6.833425998687744
aatp8
Rp9
.ccollections
OrderedDict
p0
((lp1
(lp2
S'state'
p3
aI0
aa(lp4
S'distance'
p5
aF59.8638391494751
aa(lp6
S'timestamp'
p7
aF6.833730936050415
aatp8
Rp9
.ccollections
OrderedDict
p0
((lp1
(lp2
S'state'
p3
aI0
aa(lp4
S'distance'
p5
aF59.8638391494751
aa(lp6
S'timestamp'
p7
aF6.842537879943848
aatp8
Rp9
.ccollections
OrderedDict
p0
((lp1
(lp2
S'state'
p3
aI0
aa(lp4
S'distance'
p5
aF59.8638391494751
aa(lp6
S'timestamp'
p7
aF6.843070983886719
aatp8
Rp9
.ccollections
OrderedDict
p0
((lp1
(lp2
S'state'
p3
aI0
aa(lp4
S'distance'
p5
aF59.8638391494751
aa(lp6
S'timestamp'
p7
aF6.852617979049683
aatp8
Rp9
.ccollections
OrderedDict
p0
((lp1
(lp2
S'state'
p3
aI0
aa(lp4
S'distance'
p5
aF59.8638391494751
aa(lp6
S'timestamp'
p7
aF6.8531389236450195
aatp8
Rp9
.ccollections
OrderedDict
p0
((lp1
(lp2
S'state'
p3
aI0
aa(lp4
S'distance'
p5
aF59.8638391494751
aa(lp6
S'timestamp'
p7
aF6.86260199546814
aatp8
Rp9
.ccollections
OrderedDict
p0
((lp1
(lp2
S'state'
p3
aI0
aa(lp4
S'distance'
p5
aF59.8638391494751
aa(lp6
S'timestamp'
p7
aF6.872421026229858
aatp8
Rp9
.ccollections
OrderedDict
p0
((lp1
(lp2
S'state'
p3
aI0
aa(lp4
S'distance'
p5
aF59.8638391494751
aa(lp6
S'timestamp'
p7
aF6.87325382232666
aatp8
Rp9
.ccollections
OrderedDict
p0
((lp1
(lp2
S'state'
p3
aI0
aa(lp4
S'distance'
p5
aF59.8638391494751
aa(lp6
S'timestamp'
p7
aF6.873464822769165
aatp8
Rp9
.ccollections
OrderedDict
p0
((lp1
(lp2
S'state'
p3
aI0
aa(lp4
S'distance'
p5
aF59.8638391494751
aa(lp6
S'timestamp'
p7
aF6.883002042770386
aatp8
Rp9
.ccollections
OrderedDict
p0
((lp1
(lp2
S'state'
p3
aI0
aa(lp4
S'distance'
p5
aF59.8638391494751
aa(lp6
S'timestamp'
p7
aF6.883817911148071
aatp8
Rp9
.ccollections
OrderedDict
p0
((lp1
(lp2
S'state'
p3
aI0
aa(lp4
S'distance'
p5
aF59.8638391494751
aa(lp6
S'timestamp'
p7
aF6.892726898193359
aatp8
Rp9
.ccollections
OrderedDict
p0
((lp1
(lp2
S'state'
p3
aI0
aa(lp4
S'distance'
p5
aF59.8638391494751
aa(lp6
S'timestamp'
p7
aF6.893095970153809
aatp8
Rp9
.ccollections
OrderedDict
p0
((lp1
(lp2
S'state'
p3
aI0
aa(lp4
S'distance'
p5
aF59.8638391494751
aa(lp6
S'timestamp'
p7
aF6.902537822723389
aatp8
Rp9
.ccollections
OrderedDict
p0
((lp1
(lp2
S'state'
p3
aI0
aa(lp4
S'distance'
p5
aF59.8638391494751
aa(lp6
S'timestamp'
p7
aF6.903126001358032
aatp8
Rp9
.ccollections
OrderedDict
p0
((lp1
(lp2
S'state'
p3
aI0
aa(lp4
S'distance'
p5
aF59.8638391494751
aa(lp6
S'timestamp'
p7
aF6.912703037261963
aatp8
Rp9
.ccollections
OrderedDict
p0
((lp1
(lp2
S'state'
p3
aI0
aa(lp4
S'distance'
p5
aF59.8638391494751
aa(lp6
S'timestamp'
p7
aF6.913167953491211
aatp8
Rp9
.ccollections
OrderedDict
p0
((lp1
(lp2
S'state'
p3
aI0
aa(lp4
S'distance'
p5
aF59.8638391494751
aa(lp6
S'timestamp'
p7
aF6.932448863983154
aatp8
Rp9
.ccollections
OrderedDict
p0
((lp1
(lp2
S'state'
p3
aI0
aa(lp4
S'distance'
p5
aF59.8638391494751
aa(lp6
S'timestamp'
p7
aF6.933347940444946
aatp8
Rp9
.ccollections
OrderedDict
p0
((lp1
(lp2
S'state'
p3
aI0
aa(lp4
S'distance'
p5
aF59.8638391494751
aa(lp6
S'timestamp'
p7
aF6.935223817825317
aatp8
Rp9
.ccollections
OrderedDict
p0
((lp1
(lp2
S'state'
p3
aI0
aa(lp4
S'distance'
p5
aF59.8638391494751
aa(lp6
S'timestamp'
p7
aF6.935423851013184
aatp8
Rp9
.ccollections
OrderedDict
p0
((lp1
(lp2
S'state'
p3
aI0
aa(lp4
S'distance'
p5
aF59.8638391494751
aa(lp6
S'timestamp'
p7
aF6.942812919616699
aatp8
Rp9
.ccollections
OrderedDict
p0
((lp1
(lp2
S'state'
p3
aI0
aa(lp4
S'distance'
p5
aF59.8638391494751
aa(lp6
S'timestamp'
p7
aF6.9433979988098145
aatp8
Rp9
.ccollections
OrderedDict
p0
((lp1
(lp2
S'state'
p3
aI0
aa(lp4
S'distance'
p5
aF59.8638391494751
aa(lp6
S'timestamp'
p7
aF6.95258092880249
aatp8
Rp9
.ccollections
OrderedDict
p0
((lp1
(lp2
S'state'
p3
aI0
aa(lp4
S'distance'
p5
aF59.8638391494751
aa(lp6
S'timestamp'
p7
aF6.953433990478516
aatp8
Rp9
.ccollections
OrderedDict
p0
((lp1
(lp2
S'state'
p3
aI0
aa(lp4
S'distance'
p5
aF59.8638391494751
aa(lp6
S'timestamp'
p7
aF6.96235203742981
aatp8
Rp9
.ccollections
OrderedDict
p0
((lp1
(lp2
S'state'
p3
aI0
aa(lp4
S'distance'
p5
aF59.8638391494751
aa(lp6
S'timestamp'
p7
aF6.9632298946380615
aatp8
Rp9
.ccollections
OrderedDict
p0
((lp1
(lp2
S'state'
p3
aI0
aa(lp4
S'distance'
p5
aF59.8638391494751
aa(lp6
S'timestamp'
p7
aF6.972818851470947
aatp8
Rp9
.ccollections
OrderedDict
p0
((lp1
(lp2
S'state'
p3
aI0
aa(lp4
S'distance'
p5
aF59.8638391494751
aa(lp6
S'timestamp'
p7
aF6.973894834518433
aatp8
Rp9
.ccollections
OrderedDict
p0
((lp1
(lp2
S'state'
p3
aI0
aa(lp4
S'distance'
p5
aF59.8638391494751
aa(lp6
S'timestamp'
p7
aF6.982633829116821
aatp8
Rp9
.ccollections
OrderedDict
p0
((lp1
(lp2
S'state'
p3
aI0
aa(lp4
S'distance'
p5
aF59.8638391494751
aa(lp6
S'timestamp'
p7
aF6.9833338260650635
aatp8
Rp9
.ccollections
OrderedDict
p0
((lp1
(lp2
S'state'
p3
aI0
aa(lp4
S'distance'
p5
aF59.8638391494751
aa(lp6
S'timestamp'
p7
aF6.992357969284058
aatp8
Rp9
.ccollections
OrderedDict
p0
((lp1
(lp2
S'state'
p3
aI0
aa(lp4
S'distance'
p5
aF59.8638391494751
aa(lp6
S'timestamp'
p7
aF6.993199825286865
aatp8
Rp9
.ccollections
OrderedDict
p0
((lp1
(lp2
S'state'
p3
aI0
aa(lp4
S'distance'
p5
aF59.8638391494751
aa(lp6
S'timestamp'
p7
aF7.002737045288086
aatp8
Rp9
.ccollections
OrderedDict
p0
((lp1
(lp2
S'state'
p3
aI0
aa(lp4
S'distance'
p5
aF59.8638391494751
aa(lp6
S'timestamp'
p7
aF7.003350019454956
aatp8
Rp9
.ccollections
OrderedDict
p0
((lp1
(lp2
S'state'
p3
aI0
aa(lp4
S'distance'
p5
aF59.8638391494751
aa(lp6
S'timestamp'
p7
aF7.012895822525024
aatp8
Rp9
.ccollections
OrderedDict
p0
((lp1
(lp2
S'state'
p3
aI0
aa(lp4
S'distance'
p5
aF59.8638391494751
aa(lp6
S'timestamp'
p7
aF7.013409852981567
aatp8
Rp9
.ccollections
OrderedDict
p0
((lp1
(lp2
S'state'
p3
aI0
aa(lp4
S'distance'
p5
aF59.8638391494751
aa(lp6
S'timestamp'
p7
aF7.022696018218994
aatp8
Rp9
.ccollections
OrderedDict
p0
((lp1
(lp2
S'state'
p3
aI0
aa(lp4
S'distance'
p5
aF59.8638391494751
aa(lp6
S'timestamp'
p7
aF7.023560047149658
aatp8
Rp9
.ccollections
OrderedDict
p0
((lp1
(lp2
S'state'
p3
aI0
aa(lp4
S'distance'
p5
aF59.8638391494751
aa(lp6
S'timestamp'
p7
aF7.032570838928223
aatp8
Rp9
.ccollections
OrderedDict
p0
((lp1
(lp2
S'state'
p3
aI0
aa(lp4
S'distance'
p5
aF59.8638391494751
aa(lp6
S'timestamp'
p7
aF7.033507823944092
aatp8
Rp9
.ccollections
OrderedDict
p0
((lp1
(lp2
S'state'
p3
aI0
aa(lp4
S'distance'
p5
aF59.8638391494751
aa(lp6
S'timestamp'
p7
aF7.042634963989258
aatp8
Rp9
.ccollections
OrderedDict
p0
((lp1
(lp2
S'state'
p3
aI0
aa(lp4
S'distance'
p5
aF59.8638391494751
aa(lp6
S'timestamp'
p7
aF7.043788909912109
aatp8
Rp9
.ccollections
OrderedDict
p0
((lp1
(lp2
S'state'
p3
aI0
aa(lp4
S'distance'
p5
aF59.8638391494751
aa(lp6
S'timestamp'
p7
aF7.0527849197387695
aatp8
Rp9
.ccollections
OrderedDict
p0
((lp1
(lp2
S'state'
p3
aI0
aa(lp4
S'distance'
p5
aF59.8638391494751
aa(lp6
S'timestamp'
p7
aF7.053499937057495
aatp8
Rp9
.ccollections
OrderedDict
p0
((lp1
(lp2
S'state'
p3
aI0
aa(lp4
S'distance'
p5
aF59.8638391494751
aa(lp6
S'timestamp'
p7
aF7.06243896484375
aatp8
Rp9
.ccollections
OrderedDict
p0
((lp1
(lp2
S'state'
p3
aI0
aa(lp4
S'distance'
p5
aF59.8638391494751
aa(lp6
S'timestamp'
p7
aF7.0633769035339355
aatp8
Rp9
.ccollections
OrderedDict
p0
((lp1
(lp2
S'state'
p3
aI0
aa(lp4
S'distance'
p5
aF59.8638391494751
aa(lp6
S'timestamp'
p7
aF7.072612047195435
aatp8
Rp9
.ccollections
OrderedDict
p0
((lp1
(lp2
S'state'
p3
aI0
aa(lp4
S'distance'
p5
aF59.8638391494751
aa(lp6
S'timestamp'
p7
aF7.073331832885742
aatp8
Rp9
.ccollections
OrderedDict
p0
((lp1
(lp2
S'state'
p3
aI0
aa(lp4
S'distance'
p5
aF59.8638391494751
aa(lp6
S'timestamp'
p7
aF7.082732915878296
aatp8
Rp9
.ccollections
OrderedDict
p0
((lp1
(lp2
S'state'
p3
aI0
aa(lp4
S'distance'
p5
aF59.8638391494751
aa(lp6
S'timestamp'
p7
aF7.083499908447266
aatp8
Rp9
.ccollections
OrderedDict
p0
((lp1
(lp2
S'state'
p3
aI0
aa(lp4
S'distance'
p5
aF59.8638391494751
aa(lp6
S'timestamp'
p7
aF7.09274697303772
aatp8
Rp9
.ccollections
OrderedDict
p0
((lp1
(lp2
S'state'
p3
aI0
aa(lp4
S'distance'
p5
aF59.8638391494751
aa(lp6
S'timestamp'
p7
aF7.093411922454834
aatp8
Rp9
.ccollections
OrderedDict
p0
((lp1
(lp2
S'state'
p3
aI0
aa(lp4
S'distance'
p5
aF59.8638391494751
aa(lp6
S'timestamp'
p7
aF7.102747917175293
aatp8
Rp9
.ccollections
OrderedDict
p0
((lp1
(lp2
S'state'
p3
aI0
aa(lp4
S'distance'
p5
aF59.8638391494751
aa(lp6
S'timestamp'
p7
aF7.103518009185791
aatp8
Rp9
.ccollections
OrderedDict
p0
((lp1
(lp2
S'state'
p3
aI0
aa(lp4
S'distance'
p5
aF59.8638391494751
aa(lp6
S'timestamp'
p7
aF7.112666845321655
aatp8
Rp9
.ccollections
OrderedDict
p0
((lp1
(lp2
S'state'
p3
aI0
aa(lp4
S'distance'
p5
aF59.8638391494751
aa(lp6
S'timestamp'
p7
aF7.113526821136475
aatp8
Rp9
.ccollections
OrderedDict
p0
((lp1
(lp2
S'state'
p3
aI0
aa(lp4
S'distance'
p5
aF59.8638391494751
aa(lp6
S'timestamp'
p7
aF7.122521877288818
aatp8
Rp9
.ccollections
OrderedDict
p0
((lp1
(lp2
S'state'
p3
aI0
aa(lp4
S'distance'
p5
aF59.8638391494751
aa(lp6
S'timestamp'
p7
aF7.123503923416138
aatp8
Rp9
.ccollections
OrderedDict
p0
((lp1
(lp2
S'state'
p3
aI0
aa(lp4
S'distance'
p5
aF59.8638391494751
aa(lp6
S'timestamp'
p7
aF7.132699012756348
aatp8
Rp9
.ccollections
OrderedDict
p0
((lp1
(lp2
S'state'
p3
aI0
aa(lp4
S'distance'
p5
aF59.8638391494751
aa(lp6
S'timestamp'
p7
aF7.13336181640625
aatp8
Rp9
.ccollections
OrderedDict
p0
((lp1
(lp2
S'state'
p3
aI0
aa(lp4
S'distance'
p5
aF59.8638391494751
aa(lp6
S'timestamp'
p7
aF7.143908977508545
aatp8
Rp9
.ccollections
OrderedDict
p0
((lp1
(lp2
S'state'
p3
aI0
aa(lp4
S'distance'
p5
aF59.8638391494751
aa(lp6
S'timestamp'
p7
aF7.144126892089844
aatp8
Rp9
.ccollections
OrderedDict
p0
((lp1
(lp2
S'state'
p3
aI0
aa(lp4
S'distance'
p5
aF59.8638391494751
aa(lp6
S'timestamp'
p7
aF7.152572870254517
aatp8
Rp9
.ccollections
OrderedDict
p0
((lp1
(lp2
S'state'
p3
aI0
aa(lp4
S'distance'
p5
aF59.8638391494751
aa(lp6
S'timestamp'
p7
aF7.153582811355591
aatp8
Rp9
.ccollections
OrderedDict
p0
((lp1
(lp2
S'state'
p3
aI0
aa(lp4
S'distance'
p5
aF59.8638391494751
aa(lp6
S'timestamp'
p7
aF7.162484884262085
aatp8
Rp9
.ccollections
OrderedDict
p0
((lp1
(lp2
S'state'
p3
aI0
aa(lp4
S'distance'
p5
aF59.8638391494751
aa(lp6
S'timestamp'
p7
aF7.163359880447388
aatp8
Rp9
.ccollections
OrderedDict
p0
((lp1
(lp2
S'state'
p3
aI0
aa(lp4
S'distance'
p5
aF59.8638391494751
aa(lp6
S'timestamp'
p7
aF7.172655820846558
aatp8
Rp9
.ccollections
OrderedDict
p0
((lp1
(lp2
S'state'
p3
aI0
aa(lp4
S'distance'
p5
aF59.8638391494751
aa(lp6
S'timestamp'
p7
aF7.173511981964111
aatp8
Rp9
.ccollections
OrderedDict
p0
((lp1
(lp2
S'state'
p3
aI0
aa(lp4
S'distance'
p5
aF59.8638391494751
aa(lp6
S'timestamp'
p7
aF7.182667970657349
aatp8
Rp9
.ccollections
OrderedDict
p0
((lp1
(lp2
S'state'
p3
aI0
aa(lp4
S'distance'
p5
aF59.8638391494751
aa(lp6
S'timestamp'
p7
aF7.183375835418701
aatp8
Rp9
.ccollections
OrderedDict
p0
((lp1
(lp2
S'state'
p3
aI0
aa(lp4
S'distance'
p5
aF59.8638391494751
aa(lp6
S'timestamp'
p7
aF7.1937830448150635
aatp8
Rp9
.ccollections
OrderedDict
p0
((lp1
(lp2
S'state'
p3
aI0
aa(lp4
S'distance'
p5
aF59.8638391494751
aa(lp6
S'timestamp'
p7
aF7.193962812423706
aatp8
Rp9
.ccollections
OrderedDict
p0
((lp1
(lp2
S'state'
p3
aI0
aa(lp4
S'distance'
p5
aF59.8638391494751
aa(lp6
S'timestamp'
p7
aF7.202940940856934
aatp8
Rp9
.ccollections
OrderedDict
p0
((lp1
(lp2
S'state'
p3
aI0
aa(lp4
S'distance'
p5
aF59.8638391494751
aa(lp6
S'timestamp'
p7
aF7.2037270069122314
aatp8
Rp9
.ccollections
OrderedDict
p0
((lp1
(lp2
S'state'
p3
aI0
aa(lp4
S'distance'
p5
aF59.8638391494751
aa(lp6
S'timestamp'
p7
aF7.212601900100708
aatp8
Rp9
.ccollections
OrderedDict
p0
((lp1
(lp2
S'state'
p3
aI0
aa(lp4
S'distance'
p5
aF59.8638391494751
aa(lp6
S'timestamp'
p7
aF7.213399887084961
aatp8
Rp9
.ccollections
OrderedDict
p0
((lp1
(lp2
S'state'
p3
aI0
aa(lp4
S'distance'
p5
aF59.8638391494751
aa(lp6
S'timestamp'
p7
aF7.222856044769287
aatp8
Rp9
.ccollections
OrderedDict
p0
((lp1
(lp2
S'state'
p3
aI0
aa(lp4
S'distance'
p5
aF59.8638391494751
aa(lp6
S'timestamp'
p7
aF7.2239990234375
aatp8
Rp9
.ccollections
OrderedDict
p0
((lp1
(lp2
S'state'
p3
aI0
aa(lp4
S'distance'
p5
aF59.8638391494751
aa(lp6
S'timestamp'
p7
aF7.233327865600586
aatp8
Rp9
.ccollections
OrderedDict
p0
((lp1
(lp2
S'state'
p3
aI0
aa(lp4
S'distance'
p5
aF59.8638391494751
aa(lp6
S'timestamp'
p7
aF7.234604835510254
aatp8
Rp9
.ccollections
OrderedDict
p0
((lp1
(lp2
S'state'
p3
aI0
aa(lp4
S'distance'
p5
aF59.8638391494751
aa(lp6
S'timestamp'
p7
aF7.252990007400513
aatp8
Rp9
.ccollections
OrderedDict
p0
((lp1
(lp2
S'state'
p3
aI0
aa(lp4
S'distance'
p5
aF59.8638391494751
aa(lp6
S'timestamp'
p7
aF7.253734827041626
aatp8
Rp9
.ccollections
OrderedDict
p0
((lp1
(lp2
S'state'
p3
aI0
aa(lp4
S'distance'
p5
aF59.8638391494751
aa(lp6
S'timestamp'
p7
aF7.254554986953735
aatp8
Rp9
.ccollections
OrderedDict
p0
((lp1
(lp2
S'state'
p3
aI0
aa(lp4
S'distance'
p5
aF59.8638391494751
aa(lp6
S'timestamp'
p7
aF7.255170822143555
aatp8
Rp9
.ccollections
OrderedDict
p0
((lp1
(lp2
S'state'
p3
aI0
aa(lp4
S'distance'
p5
aF59.8638391494751
aa(lp6
S'timestamp'
p7
aF7.2630298137664795
aatp8
Rp9
.ccollections
OrderedDict
p0
((lp1
(lp2
S'state'
p3
aI0
aa(lp4
S'distance'
p5
aF59.8638391494751
aa(lp6
S'timestamp'
p7
aF7.263598918914795
aatp8
Rp9
.ccollections
OrderedDict
p0
((lp1
(lp2
S'state'
p3
aI0
aa(lp4
S'distance'
p5
aF59.8638391494751
aa(lp6
S'timestamp'
p7
aF7.272961854934692
aatp8
Rp9
.ccollections
OrderedDict
p0
((lp1
(lp2
S'state'
p3
aI0
aa(lp4
S'distance'
p5
aF59.8638391494751
aa(lp6
S'timestamp'
p7
aF7.2734458446502686
aatp8
Rp9
.ccollections
OrderedDict
p0
((lp1
(lp2
S'state'
p3
aI0
aa(lp4
S'distance'
p5
aF59.8638391494751
aa(lp6
S'timestamp'
p7
aF7.282878875732422
aatp8
Rp9
.ccollections
OrderedDict
p0
((lp1
(lp2
S'state'
p3
aI0
aa(lp4
S'distance'
p5
aF59.8638391494751
aa(lp6
S'timestamp'
p7
aF7.283116817474365
aatp8
Rp9
.ccollections
OrderedDict
p0
((lp1
(lp2
S'state'
p3
aI0
aa(lp4
S'distance'
p5
aF59.8638391494751
aa(lp6
S'timestamp'
p7
aF7.2926599979400635
aatp8
Rp9
.ccollections
OrderedDict
p0
((lp1
(lp2
S'state'
p3
aI0
aa(lp4
S'distance'
p5
aF59.8638391494751
aa(lp6
S'timestamp'
p7
aF7.293710947036743
aatp8
Rp9
.ccollections
OrderedDict
p0
((lp1
(lp2
S'state'
p3
aI0
aa(lp4
S'distance'
p5
aF59.8638391494751
aa(lp6
S'timestamp'
p7
aF7.302438974380493
aatp8
Rp9
.ccollections
OrderedDict
p0
((lp1
(lp2
S'state'
p3
aI0
aa(lp4
S'distance'
p5
aF59.8638391494751
aa(lp6
S'timestamp'
p7
aF7.303658962249756
aatp8
Rp9
.ccollections
OrderedDict
p0
((lp1
(lp2
S'state'
p3
aI0
aa(lp4
S'distance'
p5
aF59.8638391494751
aa(lp6
S'timestamp'
p7
aF7.312582969665527
aatp8
Rp9
.ccollections
OrderedDict
p0
((lp1
(lp2
S'state'
p3
aI0
aa(lp4
S'distance'
p5
aF59.8638391494751
aa(lp6
S'timestamp'
p7
aF7.313673973083496
aatp8
Rp9
.ccollections
OrderedDict
p0
((lp1
(lp2
S'state'
p3
aI0
aa(lp4
S'distance'
p5
aF59.8638391494751
aa(lp6
S'timestamp'
p7
aF7.323148012161255
aatp8
Rp9
.ccollections
OrderedDict
p0
((lp1
(lp2
S'state'
p3
aI0
aa(lp4
S'distance'
p5
aF59.8638391494751
aa(lp6
S'timestamp'
p7
aF7.323683023452759
aatp8
Rp9
.ccollections
OrderedDict
p0
((lp1
(lp2
S'state'
p3
aI0
aa(lp4
S'distance'
p5
aF59.8638391494751
aa(lp6
S'timestamp'
p7
aF7.332295894622803
aatp8
Rp9
.ccollections
OrderedDict
p0
((lp1
(lp2
S'state'
p3
aI0
aa(lp4
S'distance'
p5
aF59.8638391494751
aa(lp6
S'timestamp'
p7
aF7.333390951156616
aatp8
Rp9
.ccollections
OrderedDict
p0
((lp1
(lp2
S'state'
p3
aI0
aa(lp4
S'distance'
p5
aF59.8638391494751
aa(lp6
S'timestamp'
p7
aF7.342375040054321
aatp8
Rp9
.ccollections
OrderedDict
p0
((lp1
(lp2
S'state'
p3
aI0
aa(lp4
S'distance'
p5
aF59.8638391494751
aa(lp6
S'timestamp'
p7
aF7.343662977218628
aatp8
Rp9
.ccollections
OrderedDict
p0
((lp1
(lp2
S'state'
p3
aI0
aa(lp4
S'distance'
p5
aF59.8638391494751
aa(lp6
S'timestamp'
p7
aF7.35262393951416
aatp8
Rp9
.ccollections
OrderedDict
p0
((lp1
(lp2
S'state'
p3
aI0
aa(lp4
S'distance'
p5
aF59.8638391494751
aa(lp6
S'timestamp'
p7
aF7.353204011917114
aatp8
Rp9
.ccollections
OrderedDict
p0
((lp1
(lp2
S'state'
p3
aI0
aa(lp4
S'distance'
p5
aF59.8638391494751
aa(lp6
S'timestamp'
p7
aF7.363221883773804
aatp8
Rp9
.ccollections
OrderedDict
p0
((lp1
(lp2
S'state'
p3
aI0
aa(lp4
S'distance'
p5
aF59.8638391494751
aa(lp6
S'timestamp'
p7
aF7.363477945327759
aatp8
Rp9
.ccollections
OrderedDict
p0
((lp1
(lp2
S'state'
p3
aI0
aa(lp4
S'distance'
p5
aF59.8638391494751
aa(lp6
S'timestamp'
p7
aF7.37229585647583
aatp8
Rp9
.ccollections
OrderedDict
p0
((lp1
(lp2
S'state'
p3
aI0
aa(lp4
S'distance'
p5
aF59.8638391494751
aa(lp6
S'timestamp'
p7
aF7.373478889465332
aatp8
Rp9
.ccollections
OrderedDict
p0
((lp1
(lp2
S'state'
p3
aI0
aa(lp4
S'distance'
p5
aF59.8638391494751
aa(lp6
S'timestamp'
p7
aF7.382985830307007
aatp8
Rp9
.ccollections
OrderedDict
p0
((lp1
(lp2
S'state'
p3
aI0
aa(lp4
S'distance'
p5
aF59.8638391494751
aa(lp6
S'timestamp'
p7
aF7.383791923522949
aatp8
Rp9
.ccollections
OrderedDict
p0
((lp1
(lp2
S'state'
p3
aI0
aa(lp4
S'distance'
p5
aF59.8638391494751
aa(lp6
S'timestamp'
p7
aF7.392570972442627
aatp8
Rp9
.ccollections
OrderedDict
p0
((lp1
(lp2
S'state'
p3
aI0
aa(lp4
S'distance'
p5
aF59.8638391494751
aa(lp6
S'timestamp'
p7
aF7.393134832382202
aatp8
Rp9
.ccollections
OrderedDict
p0
((lp1
(lp2
S'state'
p3
aI0
aa(lp4
S'distance'
p5
aF59.8638391494751
aa(lp6
S'timestamp'
p7
aF7.412992000579834
aatp8
Rp9
.ccollections
OrderedDict
p0
((lp1
(lp2
S'state'
p3
aI0
aa(lp4
S'distance'
p5
aF59.8638391494751
aa(lp6
S'timestamp'
p7
aF7.413084030151367
aatp8
Rp9
.ccollections
OrderedDict
p0
((lp1
(lp2
S'state'
p3
aI0
aa(lp4
S'distance'
p5
aF59.8638391494751
aa(lp6
S'timestamp'
p7
aF7.415103912353516
aatp8
Rp9
.ccollections
OrderedDict
p0
((lp1
(lp2
S'state'
p3
aI0
aa(lp4
S'distance'
p5
aF59.8638391494751
aa(lp6
S'timestamp'
p7
aF7.415697813034058
aatp8
Rp9
.ccollections
OrderedDict
p0
((lp1
(lp2
S'state'
p3
aI0
aa(lp4
S'distance'
p5
aF59.8638391494751
aa(lp6
S'timestamp'
p7
aF7.422560930252075
aatp8
Rp9
.ccollections
OrderedDict
p0
((lp1
(lp2
S'state'
p3
aI0
aa(lp4
S'distance'
p5
aF59.8638391494751
aa(lp6
S'timestamp'
p7
aF7.423409938812256
aatp8
Rp9
.ccollections
OrderedDict
p0
((lp1
(lp2
S'state'
p3
aI0
aa(lp4
S'distance'
p5
aF59.8638391494751
aa(lp6
S'timestamp'
p7
aF7.432451963424683
aatp8
Rp9
.ccollections
OrderedDict
p0
((lp1
(lp2
S'state'
p3
aI0
aa(lp4
S'distance'
p5
aF59.8638391494751
aa(lp6
S'timestamp'
p7
aF7.4334328174591064
aatp8
Rp9
.ccollections
OrderedDict
p0
((lp1
(lp2
S'state'
p3
aI0
aa(lp4
S'distance'
p5
aF59.8638391494751
aa(lp6
S'timestamp'
p7
aF7.443521976470947
aatp8
Rp9
.ccollections
OrderedDict
p0
((lp1
(lp2
S'state'
p3
aI0
aa(lp4
S'distance'
p5
aF59.8638391494751
aa(lp6
S'timestamp'
p7
aF7.443682909011841
aatp8
Rp9
.ccollections
OrderedDict
p0
((lp1
(lp2
S'state'
p3
aI0
aa(lp4
S'distance'
p5
aF59.8638391494751
aa(lp6
S'timestamp'
p7
aF7.452563047409058
aatp8
Rp9
.ccollections
OrderedDict
p0
((lp1
(lp2
S'state'
p3
aI0
aa(lp4
S'distance'
p5
aF59.8638391494751
aa(lp6
S'timestamp'
p7
aF7.453425884246826
aatp8
Rp9
.ccollections
OrderedDict
p0
((lp1
(lp2
S'state'
p3
aI0
aa(lp4
S'distance'
p5
aF59.8638391494751
aa(lp6
S'timestamp'
p7
aF7.462548017501831
aatp8
Rp9
.ccollections
OrderedDict
p0
((lp1
(lp2
S'state'
p3
aI0
aa(lp4
S'distance'
p5
aF59.8638391494751
aa(lp6
S'timestamp'
p7
aF7.463476896286011
aatp8
Rp9
.ccollections
OrderedDict
p0
((lp1
(lp2
S'state'
p3
aI0
aa(lp4
S'distance'
p5
aF59.8638391494751
aa(lp6
S'timestamp'
p7
aF7.47263503074646
aatp8
Rp9
.ccollections
OrderedDict
p0
((lp1
(lp2
S'state'
p3
aI0
aa(lp4
S'distance'
p5
aF59.8638391494751
aa(lp6
S'timestamp'
p7
aF7.474570989608765
aatp8
Rp9
.ccollections
OrderedDict
p0
((lp1
(lp2
S'state'
p3
aI0
aa(lp4
S'distance'
p5
aF59.8638391494751
aa(lp6
S'timestamp'
p7
aF7.484294891357422
aatp8
Rp9
.ccollections
OrderedDict
p0
((lp1
(lp2
S'state'
p3
aI0
aa(lp4
S'distance'
p5
aF59.8638391494751
aa(lp6
S'timestamp'
p7
aF7.484560966491699
aatp8
Rp9
.ccollections
OrderedDict
p0
((lp1
(lp2
S'state'
p3
aI0
aa(lp4
S'distance'
p5
aF59.8638391494751
aa(lp6
S'timestamp'
p7
aF7.492384910583496
aatp8
Rp9
.ccollections
OrderedDict
p0
((lp1
(lp2
S'state'
p3
aI0
aa(lp4
S'distance'
p5
aF59.8638391494751
aa(lp6
S'timestamp'
p7
aF7.493355989456177
aatp8
Rp9
.ccollections
OrderedDict
p0
((lp1
(lp2
S'state'
p3
aI0
aa(lp4
S'distance'
p5
aF59.8638391494751
aa(lp6
S'timestamp'
p7
aF7.502327919006348
aatp8
Rp9
.ccollections
OrderedDict
p0
((lp1
(lp2
S'state'
p3
aI0
aa(lp4
S'distance'
p5
aF59.8638391494751
aa(lp6
S'timestamp'
p7
aF7.503176927566528
aatp8
Rp9
.ccollections
OrderedDict
p0
((lp1
(lp2
S'state'
p3
aI0
aa(lp4
S'distance'
p5
aF59.8638391494751
aa(lp6
S'timestamp'
p7
aF7.512398958206177
aatp8
Rp9
.ccollections
OrderedDict
p0
((lp1
(lp2
S'state'
p3
aI0
aa(lp4
S'distance'
p5
aF59.8638391494751
aa(lp6
S'timestamp'
p7
aF7.513402938842773
aatp8
Rp9
.ccollections
OrderedDict
p0
((lp1
(lp2
S'state'
p3
aI0
aa(lp4
S'distance'
p5
aF59.8638391494751
aa(lp6
S'timestamp'
p7
aF7.522549867630005
aatp8
Rp9
.ccollections
OrderedDict
p0
((lp1
(lp2
S'state'
p3
aI0
aa(lp4
S'distance'
p5
aF59.8638391494751
aa(lp6
S'timestamp'
p7
aF7.523723840713501
aatp8
Rp9
.ccollections
OrderedDict
p0
((lp1
(lp2
S'state'
p3
aI0
aa(lp4
S'distance'
p5
aF59.8638391494751
aa(lp6
S'timestamp'
p7
aF7.532403945922852
aatp8
Rp9
.ccollections
OrderedDict
p0
((lp1
(lp2
S'state'
p3
aI0
aa(lp4
S'distance'
p5
aF59.8638391494751
aa(lp6
S'timestamp'
p7
aF7.533284902572632
aatp8
Rp9
.ccollections
OrderedDict
p0
((lp1
(lp2
S'state'
p3
aI0
aa(lp4
S'distance'
p5
aF59.8638391494751
aa(lp6
S'timestamp'
p7
aF7.5424699783325195
aatp8
Rp9
.ccollections
OrderedDict
p0
((lp1
(lp2
S'state'
p3
aI0
aa(lp4
S'distance'
p5
aF59.8638391494751
aa(lp6
S'timestamp'
p7
aF7.543118000030518
aatp8
Rp9
.ccollections
OrderedDict
p0
((lp1
(lp2
S'state'
p3
aI0
aa(lp4
S'distance'
p5
aF59.8638391494751
aa(lp6
S'timestamp'
p7
aF7.552594900131226
aatp8
Rp9
.ccollections
OrderedDict
p0
((lp1
(lp2
S'state'
p3
aI0
aa(lp4
S'distance'
p5
aF59.8638391494751
aa(lp6
S'timestamp'
p7
aF7.553079843521118
aatp8
Rp9
.ccollections
OrderedDict
p0
((lp1
(lp2
S'state'
p3
aI0
aa(lp4
S'distance'
p5
aF59.8638391494751
aa(lp6
S'timestamp'
p7
aF7.562638998031616
aatp8
Rp9
.ccollections
OrderedDict
p0
((lp1
(lp2
S'state'
p3
aI0
aa(lp4
S'distance'
p5
aF59.8638391494751
aa(lp6
S'timestamp'
p7
aF7.564190864562988
aatp8
Rp9
.ccollections
OrderedDict
p0
((lp1
(lp2
S'state'
p3
aI0
aa(lp4
S'distance'
p5
aF59.8638391494751
aa(lp6
S'timestamp'
p7
aF7.573300838470459
aatp8
Rp9
.ccollections
OrderedDict
p0
((lp1
(lp2
S'state'
p3
aI0
aa(lp4
S'distance'
p5
aF59.8638391494751
aa(lp6
S'timestamp'
p7
aF7.573887825012207
aatp8
Rp9
.ccollections
OrderedDict
p0
((lp1
(lp2
S'state'
p3
aI0
aa(lp4
S'distance'
p5
aF59.8638391494751
aa(lp6
S'timestamp'
p7
aF7.582592964172363
aatp8
Rp9
.ccollections
OrderedDict
p0
((lp1
(lp2
S'state'
p3
aI0
aa(lp4
S'distance'
p5
aF59.8638391494751
aa(lp6
S'timestamp'
p7
aF7.583513975143433
aatp8
Rp9
.ccollections
OrderedDict
p0
((lp1
(lp2
S'state'
p3
aI0
aa(lp4
S'distance'
p5
aF59.8638391494751
aa(lp6
S'timestamp'
p7
aF7.592517852783203
aatp8
Rp9
.ccollections
OrderedDict
p0
((lp1
(lp2
S'state'
p3
aI0
aa(lp4
S'distance'
p5
aF59.8638391494751
aa(lp6
S'timestamp'
p7
aF7.593286037445068
aatp8
Rp9
.ccollections
OrderedDict
p0
((lp1
(lp2
S'state'
p3
aI0
aa(lp4
S'distance'
p5
aF59.8638391494751
aa(lp6
S'timestamp'
p7
aF7.602509021759033
aatp8
Rp9
.ccollections
OrderedDict
p0
((lp1
(lp2
S'state'
p3
aI0
aa(lp4
S'distance'
p5
aF59.8638391494751
aa(lp6
S'timestamp'
p7
aF7.603627920150757
aatp8
Rp9
.ccollections
OrderedDict
p0
((lp1
(lp2
S'state'
p3
aI0
aa(lp4
S'distance'
p5
aF59.8638391494751
aa(lp6
S'timestamp'
p7
aF7.612511873245239
aatp8
Rp9
.ccollections
OrderedDict
p0
((lp1
(lp2
S'state'
p3
aI0
aa(lp4
S'distance'
p5
aF59.8638391494751
aa(lp6
S'timestamp'
p7
aF7.613231897354126
aatp8
Rp9
.ccollections
OrderedDict
p0
((lp1
(lp2
S'state'
p3
aI0
aa(lp4
S'distance'
p5
aF59.8638391494751
aa(lp6
S'timestamp'
p7
aF7.622346878051758
aatp8
Rp9
.ccollections
OrderedDict
p0
((lp1
(lp2
S'state'
p3
aI0
aa(lp4
S'distance'
p5
aF59.8638391494751
aa(lp6
S'timestamp'
p7
aF7.623108863830566
aatp8
Rp9
.ccollections
OrderedDict
p0
((lp1
(lp2
S'state'
p3
aI0
aa(lp4
S'distance'
p5
aF59.8638391494751
aa(lp6
S'timestamp'
p7
aF7.632498025894165
aatp8
Rp9
.ccollections
OrderedDict
p0
((lp1
(lp2
S'state'
p3
aI0
aa(lp4
S'distance'
p5
aF59.8638391494751
aa(lp6
S'timestamp'
p7
aF7.63358998298645
aatp8
Rp9
.ccollections
OrderedDict
p0
((lp1
(lp2
S'state'
p3
aI0
aa(lp4
S'distance'
p5
aF59.8638391494751
aa(lp6
S'timestamp'
p7
aF7.643110036849976
aatp8
Rp9
.ccollections
OrderedDict
p0
((lp1
(lp2
S'state'
p3
aI0
aa(lp4
S'distance'
p5
aF59.8638391494751
aa(lp6
S'timestamp'
p7
aF7.6433210372924805
aatp8
Rp9
.ccollections
OrderedDict
p0
((lp1
(lp2
S'state'
p3
aI0
aa(lp4
S'distance'
p5
aF59.8638391494751
aa(lp6
S'timestamp'
p7
aF7.652362823486328
aatp8
Rp9
.ccollections
OrderedDict
p0
((lp1
(lp2
S'state'
p3
aI0
aa(lp4
S'distance'
p5
aF59.8638391494751
aa(lp6
S'timestamp'
p7
aF7.653219938278198
aatp8
Rp9
.ccollections
OrderedDict
p0
((lp1
(lp2
S'state'
p3
aI0
aa(lp4
S'distance'
p5
aF59.8638391494751
aa(lp6
S'timestamp'
p7
aF7.662516832351685
aatp8
Rp9
.ccollections
OrderedDict
p0
((lp1
(lp2
S'state'
p3
aI0
aa(lp4
S'distance'
p5
aF59.8638391494751
aa(lp6
S'timestamp'
p7
aF7.66353702545166
aatp8
Rp9
.ccollections
OrderedDict
p0
((lp1
(lp2
S'state'
p3
aI0
aa(lp4
S'distance'
p5
aF59.8638391494751
aa(lp6
S'timestamp'
p7
aF7.684643030166626
aatp8
Rp9
.ccollections
OrderedDict
p0
((lp1
(lp2
S'state'
p3
aI0
aa(lp4
S'distance'
p5
aF59.8638391494751
aa(lp6
S'timestamp'
p7
aF7.685343027114868
aatp8
Rp9
.ccollections
OrderedDict
p0
((lp1
(lp2
S'state'
p3
aI0
aa(lp4
S'distance'
p5
aF59.8638391494751
aa(lp6
S'timestamp'
p7
aF7.685426950454712
aatp8
Rp9
.ccollections
OrderedDict
p0
((lp1
(lp2
S'state'
p3
aI0
aa(lp4
S'distance'
p5
aF59.8638391494751
aa(lp6
S'timestamp'
p7
aF7.685494899749756
aatp8
Rp9
.ccollections
OrderedDict
p0
((lp1
(lp2
S'state'
p3
aI0
aa(lp4
S'distance'
p5
aF59.8638391494751
aa(lp6
S'timestamp'
p7
aF7.6926329135894775
aatp8
Rp9
.ccollections
OrderedDict
p0
((lp1
(lp2
S'state'
p3
aI0
aa(lp4
S'distance'
p5
aF59.8638391494751
aa(lp6
S'timestamp'
p7
aF7.693594932556152
aatp8
Rp9
.ccollections
OrderedDict
p0
((lp1
(lp2
S'state'
p3
aI0
aa(lp4
S'distance'
p5
aF59.8638391494751
aa(lp6
S'timestamp'
p7
aF7.7023749351501465
aatp8
Rp9
.ccollections
OrderedDict
p0
((lp1
(lp2
S'state'
p3
aI0
aa(lp4
S'distance'
p5
aF59.8638391494751
aa(lp6
S'timestamp'
p7
aF7.703593015670776
aatp8
Rp9
.ccollections
OrderedDict
p0
((lp1
(lp2
S'state'
p3
aI0
aa(lp4
S'distance'
p5
aF59.8638391494751
aa(lp6
S'timestamp'
p7
aF7.712368011474609
aatp8
Rp9
.ccollections
OrderedDict
p0
((lp1
(lp2
S'state'
p3
aI0
aa(lp4
S'distance'
p5
aF59.8638391494751
aa(lp6
S'timestamp'
p7
aF7.713263988494873
aatp8
Rp9
.ccollections
OrderedDict
p0
((lp1
(lp2
S'state'
p3
aI0
aa(lp4
S'distance'
p5
aF59.8638391494751
aa(lp6
S'timestamp'
p7
aF7.72237491607666
aatp8
Rp9
.ccollections
OrderedDict
p0
((lp1
(lp2
S'state'
p3
aI0
aa(lp4
S'distance'
p5
aF59.8638391494751
aa(lp6
S'timestamp'
p7
aF7.722990036010742
aatp8
Rp9
.ccollections
OrderedDict
p0
((lp1
(lp2
S'state'
p3
aI0
aa(lp4
S'distance'
p5
aF59.8638391494751
aa(lp6
S'timestamp'
p7
aF7.732777833938599
aatp8
Rp9
.ccollections
OrderedDict
p0
((lp1
(lp2
S'state'
p3
aI0
aa(lp4
S'distance'
p5
aF59.8638391494751
aa(lp6
S'timestamp'
p7
aF7.733391046524048
aatp8
Rp9
.ccollections
OrderedDict
p0
((lp1
(lp2
S'state'
p3
aI0
aa(lp4
S'distance'
p5
aF59.8638391494751
aa(lp6
S'timestamp'
p7
aF7.742491006851196
aatp8
Rp9
.ccollections
OrderedDict
p0
((lp1
(lp2
S'state'
p3
aI0
aa(lp4
S'distance'
p5
aF59.8638391494751
aa(lp6
S'timestamp'
p7
aF7.743198871612549
aatp8
Rp9
.ccollections
OrderedDict
p0
((lp1
(lp2
S'state'
p3
aI0
aa(lp4
S'distance'
p5
aF59.8638391494751
aa(lp6
S'timestamp'
p7
aF7.752490043640137
aatp8
Rp9
.ccollections
OrderedDict
p0
((lp1
(lp2
S'state'
p3
aI0
aa(lp4
S'distance'
p5
aF59.8638391494751
aa(lp6
S'timestamp'
p7
aF7.7530388832092285
aatp8
Rp9
.ccollections
OrderedDict
p0
((lp1
(lp2
S'state'
p3
aI0
aa(lp4
S'distance'
p5
aF59.8638391494751
aa(lp6
S'timestamp'
p7
aF7.762392997741699
aatp8
Rp9
.ccollections
OrderedDict
p0
((lp1
(lp2
S'state'
p3
aI0
aa(lp4
S'distance'
p5
aF59.8638391494751
aa(lp6
S'timestamp'
p7
aF7.763185977935791
aatp8
Rp9
.ccollections
OrderedDict
p0
((lp1
(lp2
S'state'
p3
aI0
aa(lp4
S'distance'
p5
aF59.8638391494751
aa(lp6
S'timestamp'
p7
aF7.772336959838867
aatp8
Rp9
.ccollections
OrderedDict
p0
((lp1
(lp2
S'state'
p3
aI0
aa(lp4
S'distance'
p5
aF59.8638391494751
aa(lp6
S'timestamp'
p7
aF7.773810863494873
aatp8
Rp9
.ccollections
OrderedDict
p0
((lp1
(lp2
S'state'
p3
aI0
aa(lp4
S'distance'
p5
aF59.8638391494751
aa(lp6
S'timestamp'
p7
aF7.782327890396118
aatp8
Rp9
.ccollections
OrderedDict
p0
((lp1
(lp2
S'state'
p3
aI0
aa(lp4
S'distance'
p5
aF59.8638391494751
aa(lp6
S'timestamp'
p7
aF7.783504962921143
aatp8
Rp9
.ccollections
OrderedDict
p0
((lp1
(lp2
S'state'
p3
aI0
aa(lp4
S'distance'
p5
aF59.8638391494751
aa(lp6
S'timestamp'
p7
aF7.792371034622192
aatp8
Rp9
.ccollections
OrderedDict
p0
((lp1
(lp2
S'state'
p3
aI0
aa(lp4
S'distance'
p5
aF59.8638391494751
aa(lp6
S'timestamp'
p7
aF7.793186902999878
aatp8
Rp9
.ccollections
OrderedDict
p0
((lp1
(lp2
S'state'
p3
aI0
aa(lp4
S'distance'
p5
aF59.8638391494751
aa(lp6
S'timestamp'
p7
aF7.802430868148804
aatp8
Rp9
.ccollections
OrderedDict
p0
((lp1
(lp2
S'state'
p3
aI0
aa(lp4
S'distance'
p5
aF59.8638391494751
aa(lp6
S'timestamp'
p7
aF7.803838014602661
aatp8
Rp9
.ccollections
OrderedDict
p0
((lp1
(lp2
S'state'
p3
aI0
aa(lp4
S'distance'
p5
aF59.8638391494751
aa(lp6
S'timestamp'
p7
aF7.8125388622283936
aatp8
Rp9
.ccollections
OrderedDict
p0
((lp1
(lp2
S'state'
p3
aI0
aa(lp4
S'distance'
p5
aF59.8638391494751
aa(lp6
S'timestamp'
p7
aF7.81306791305542
aatp8
Rp9
.ccollections
OrderedDict
p0
((lp1
(lp2
S'state'
p3
aI0
aa(lp4
S'distance'
p5
aF59.8638391494751
aa(lp6
S'timestamp'
p7
aF7.824591875076294
aatp8
Rp9
.ccollections
OrderedDict
p0
((lp1
(lp2
S'state'
p3
aI0
aa(lp4
S'distance'
p5
aF59.8638391494751
aa(lp6
S'timestamp'
p7
aF7.824904918670654
aatp8
Rp9
.ccollections
OrderedDict
p0
((lp1
(lp2
S'state'
p3
aI0
aa(lp4
S'distance'
p5
aF59.8638391494751
aa(lp6
S'timestamp'
p7
aF7.832342863082886
aatp8
Rp9
.ccollections
OrderedDict
p0
((lp1
(lp2
S'state'
p3
aI0
aa(lp4
S'distance'
p5
aF59.8638391494751
aa(lp6
S'timestamp'
p7
aF7.833204030990601
aatp8
Rp9
.ccollections
OrderedDict
p0
((lp1
(lp2
S'state'
p3
aI0
aa(lp4
S'distance'
p5
aF59.8638391494751
aa(lp6
S'timestamp'
p7
aF7.8423638343811035
aatp8
Rp9
.ccollections
OrderedDict
p0
((lp1
(lp2
S'state'
p3
aI0
aa(lp4
S'distance'
p5
aF59.8638391494751
aa(lp6
S'timestamp'
p7
aF7.843082904815674
aatp8
Rp9
.ccollections
OrderedDict
p0
((lp1
(lp2
S'state'
p3
aI0
aa(lp4
S'distance'
p5
aF59.8638391494751
aa(lp6
S'timestamp'
p7
aF7.8522789478302
aatp8
Rp9
.ccollections
OrderedDict
p0
((lp1
(lp2
S'state'
p3
aI0
aa(lp4
S'distance'
p5
aF59.8638391494751
aa(lp6
S'timestamp'
p7
aF7.853103876113892
aatp8
Rp9
.ccollections
OrderedDict
p0
((lp1
(lp2
S'state'
p3
aI0
aa(lp4
S'distance'
p5
aF59.8638391494751
aa(lp6
S'timestamp'
p7
aF7.862514972686768
aatp8
Rp9
.ccollections
OrderedDict
p0
((lp1
(lp2
S'state'
p3
aI0
aa(lp4
S'distance'
p5
aF59.8638391494751
aa(lp6
S'timestamp'
p7
aF7.86334490776062
aatp8
Rp9
.ccollections
OrderedDict
p0
((lp1
(lp2
S'state'
p3
aI0
aa(lp4
S'distance'
p5
aF59.8638391494751
aa(lp6
S'timestamp'
p7
aF7.872588872909546
aatp8
Rp9
.ccollections
OrderedDict
p0
((lp1
(lp2
S'state'
p3
aI0
aa(lp4
S'distance'
p5
aF59.8638391494751
aa(lp6
S'timestamp'
p7
aF7.873399019241333
aatp8
Rp9
.ccollections
OrderedDict
p0
((lp1
(lp2
S'state'
p3
aI0
aa(lp4
S'distance'
p5
aF59.8638391494751
aa(lp6
S'timestamp'
p7
aF7.88238000869751
aatp8
Rp9
.ccollections
OrderedDict
p0
((lp1
(lp2
S'state'
p3
aI0
aa(lp4
S'distance'
p5
aF59.8638391494751
aa(lp6
S'timestamp'
p7
aF7.882925987243652
aatp8
Rp9
.ccollections
OrderedDict
p0
((lp1
(lp2
S'state'
p3
aI0
aa(lp4
S'distance'
p5
aF59.8638391494751
aa(lp6
S'timestamp'
p7
aF7.893091917037964
aatp8
Rp9
.ccollections
OrderedDict
p0
((lp1
(lp2
S'state'
p3
aI0
aa(lp4
S'distance'
p5
aF59.8638391494751
aa(lp6
S'timestamp'
p7
aF7.893173933029175
aatp8
Rp9
.ccollections
OrderedDict
p0
((lp1
(lp2
S'state'
p3
aI0
aa(lp4
S'distance'
p5
aF59.8638391494751
aa(lp6
S'timestamp'
p7
aF7.902539968490601
aatp8
Rp9
.ccollections
OrderedDict
p0
((lp1
(lp2
S'state'
p3
aI0
aa(lp4
S'distance'
p5
aF59.8638391494751
aa(lp6
S'timestamp'
p7
aF7.903081893920898
aatp8
Rp9
.ccollections
OrderedDict
p0
((lp1
(lp2
S'state'
p3
aI0
aa(lp4
S'distance'
p5
aF59.8638391494751
aa(lp6
S'timestamp'
p7
aF7.912546873092651
aatp8
Rp9
.ccollections
OrderedDict
p0
((lp1
(lp2
S'state'
p3
aI0
aa(lp4
S'distance'
p5
aF59.8638391494751
aa(lp6
S'timestamp'
p7
aF7.913442850112915
aatp8
Rp9
.ccollections
OrderedDict
p0
((lp1
(lp2
S'state'
p3
aI0
aa(lp4
S'distance'
p5
aF59.8638391494751
aa(lp6
S'timestamp'
p7
aF7.92278790473938
aatp8
Rp9
.ccollections
OrderedDict
p0
((lp1
(lp2
S'state'
p3
aI0
aa(lp4
S'distance'
p5
aF59.8638391494751
aa(lp6
S'timestamp'
p7
aF7.923434019088745
aatp8
Rp9
.ccollections
OrderedDict
p0
((lp1
(lp2
S'state'
p3
aI0
aa(lp4
S'distance'
p5
aF59.8638391494751
aa(lp6
S'timestamp'
p7
aF7.932309865951538
aatp8
Rp9
.ccollections
OrderedDict
p0
((lp1
(lp2
S'state'
p3
aI0
aa(lp4
S'distance'
p5
aF59.8638391494751
aa(lp6
S'timestamp'
p7
aF7.933426856994629
aatp8
Rp9
.ccollections
OrderedDict
p0
((lp1
(lp2
S'state'
p3
aI0
aa(lp4
S'distance'
p5
aF59.8638391494751
aa(lp6
S'timestamp'
p7
aF7.9425740242004395
aatp8
Rp9
.ccollections
OrderedDict
p0
((lp1
(lp2
S'state'
p3
aI0
aa(lp4
S'distance'
p5
aF59.8638391494751
aa(lp6
S'timestamp'
p7
aF7.943236827850342
aatp8
Rp9
.ccollections
OrderedDict
p0
((lp1
(lp2
S'state'
p3
aI0
aa(lp4
S'distance'
p5
aF59.8638391494751
aa(lp6
S'timestamp'
p7
aF7.952333927154541
aatp8
Rp9
.ccollections
OrderedDict
p0
((lp1
(lp2
S'state'
p3
aI0
aa(lp4
S'distance'
p5
aF59.8638391494751
aa(lp6
S'timestamp'
p7
aF7.953207969665527
aatp8
Rp9
.ccollections
OrderedDict
p0
((lp1
(lp2
S'state'
p3
aI0
aa(lp4
S'distance'
p5
aF59.8638391494751
aa(lp6
S'timestamp'
p7
aF7.9634339809417725
aatp8
Rp9
.ccollections
OrderedDict
p0
((lp1
(lp2
S'state'
p3
aI0
aa(lp4
S'distance'
p5
aF59.8638391494751
aa(lp6
S'timestamp'
p7
aF7.963637828826904
aatp8
Rp9
.ccollections
OrderedDict
p0
((lp1
(lp2
S'state'
p3
aI0
aa(lp4
S'distance'
p5
aF59.8638391494751
aa(lp6
S'timestamp'
p7
aF7.972304821014404
aatp8
Rp9
.ccollections
OrderedDict
p0
((lp1
(lp2
S'state'
p3
aI0
aa(lp4
S'distance'
p5
aF59.8638391494751
aa(lp6
S'timestamp'
p7
aF7.973572015762329
aatp8
Rp9
.ccollections
OrderedDict
p0
((lp1
(lp2
S'state'
p3
aI0
aa(lp4
S'distance'
p5
aF59.8638391494751
aa(lp6
S'timestamp'
p7
aF7.982317924499512
aatp8
Rp9
.ccollections
OrderedDict
p0
((lp1
(lp2
S'state'
p3
aI0
aa(lp4
S'distance'
p5
aF59.8638391494751
aa(lp6
S'timestamp'
p7
aF7.983587026596069
aatp8
Rp9
.ccollections
OrderedDict
p0
((lp1
(lp2
S'state'
p3
aI0
aa(lp4
S'distance'
p5
aF59.8638391494751
aa(lp6
S'timestamp'
p7
aF7.992319822311401
aatp8
Rp9
.ccollections
OrderedDict
p0
((lp1
(lp2
S'state'
p3
aI0
aa(lp4
S'distance'
p5
aF59.8638391494751
aa(lp6
S'timestamp'
p7
aF7.993149042129517
aatp8
Rp9
.ccollections
OrderedDict
p0
((lp1
(lp2
S'state'
p3
aI0
aa(lp4
S'distance'
p5
aF59.8638391494751
aa(lp6
S'timestamp'
p7
aF8.003082036972046
aatp8
Rp9
.ccollections
OrderedDict
p0
((lp1
(lp2
S'state'
p3
aI0
aa(lp4
S'distance'
p5
aF59.8638391494751
aa(lp6
S'timestamp'
p7
aF8.00448989868164
aatp8
Rp9
.