ccollections
OrderedDict
p0
((lp1
(lp2
S'state'
p3
aI0
aa(lp4
S'distance'
p5
aF385.2626190185547
aa(lp6
S'timestamp'
p7
aF0.005298137664794922
aatp8
Rp9
.ccollections
OrderedDict
p0
((lp1
(lp2
S'state'
p3
aI0
aa(lp4
S'distance'
p5
aF385.2626190185547
aa(lp6
S'timestamp'
p7
aF0.006409168243408203
aatp8
Rp9
.ccollections
OrderedDict
p0
((lp1
(lp2
S'state'
p3
aI0
aa(lp4
S'distance'
p5
aF385.2626190185547
aa(lp6
S'timestamp'
p7
aF0.015556097030639648
aatp8
Rp9
.ccollections
OrderedDict
p0
((lp1
(lp2
S'state'
p3
aI0
aa(lp4
S'distance'
p5
aF385.2626190185547
aa(lp6
S'timestamp'
p7
aF0.015805959701538086
aatp8
Rp9
.ccollections
OrderedDict
p0
((lp1
(lp2
S'state'
p3
aI0
aa(lp4
S'distance'
p5
aF385.2626190185547
aa(lp6
S'timestamp'
p7
aF0.026221036911010742
aatp8
Rp9
.ccollections
OrderedDict
p0
((lp1
(lp2
S'state'
p3
aI0
aa(lp4
S'distance'
p5
aF385.2626190185547
aa(lp6
S'timestamp'
p7
aF0.026568174362182617
aatp8
Rp9
.ccollections
OrderedDict
p0
((lp1
(lp2
S'state'
p3
aI0
aa(lp4
S'distance'
p5
aF385.2626190185547
aa(lp6
S'timestamp'
p7
aF0.03574800491333008
aatp8
Rp9
.ccollections
OrderedDict
p0
((lp1
(lp2
S'state'
p3
aI0
aa(lp4
S'distance'
p5
aF385.2626190185547
aa(lp6
S'timestamp'
p7
aF0.03674507141113281
aatp8
Rp9
.ccollections
OrderedDict
p0
((lp1
(lp2
S'state'
p3
aI0
aa(lp4
S'distance'
p5
aF385.2626190185547
aa(lp6
S'timestamp'
p7
aF0.045411109924316406
aatp8
Rp9
.ccollections
OrderedDict
p0
((lp1
(lp2
S'state'
p3
aI0
aa(lp4
S'distance'
p5
aF385.2626190185547
aa(lp6
S'timestamp'
p7
aF0.04590010643005371
aatp8
Rp9
.ccollections
OrderedDict
p0
((lp1
(lp2
S'state'
p3
aI0
aa(lp4
S'distance'
p5
aF385.2626190185547
aa(lp6
S'timestamp'
p7
aF0.05559706687927246
aatp8
Rp9
.ccollections
OrderedDict
p0
((lp1
(lp2
S'state'
p3
aI0
aa(lp4
S'distance'
p5
aF385.2626190185547
aa(lp6
S'timestamp'
p7
aF0.056002140045166016
aatp8
Rp9
.ccollections
OrderedDict
p0
((lp1
(lp2
S'state'
p3
aI0
aa(lp4
S'distance'
p5
aF385.2626190185547
aa(lp6
S'timestamp'
p7
aF0.06561017036437988
aatp8
Rp9
.ccollections
OrderedDict
p0
((lp1
(lp2
S'state'
p3
aI0
aa(lp4
S'distance'
p5
aF385.2626190185547
aa(lp6
S'timestamp'
p7
aF0.06579995155334473
aatp8
Rp9
.ccollections
OrderedDict
p0
((lp1
(lp2
S'state'
p3
aI0
aa(lp4
S'distance'
p5
aF385.2626190185547
aa(lp6
S'timestamp'
p7
aF0.07567000389099121
aatp8
Rp9
.ccollections
OrderedDict
p0
((lp1
(lp2
S'state'
p3
aI0
aa(lp4
S'distance'
p5
aF385.2626190185547
aa(lp6
S'timestamp'
p7
aF0.07574701309204102
aatp8
Rp9
.ccollections
OrderedDict
p0
((lp1
(lp2
S'state'
p3
aI0
aa(lp4
S'distance'
p5
aF385.2626190185547
aa(lp6
S'timestamp'
p7
aF0.08546113967895508
aatp8
Rp9
.ccollections
OrderedDict
p0
((lp1
(lp2
S'state'
p3
aI0
aa(lp4
S'distance'
p5
aF385.2626190185547
aa(lp6
S'timestamp'
p7
aF0.08578896522521973
aatp8
Rp9
.ccollections
OrderedDict
p0
((lp1
(lp2
S'state'
p3
aI0
aa(lp4
S'distance'
p5
aF385.2626190185547
aa(lp6
S'timestamp'
p7
aF0.09559917449951172
aatp8
Rp9
.ccollections
OrderedDict
p0
((lp1
(lp2
S'state'
p3
aI0
aa(lp4
S'distance'
p5
aF385.2626190185547
aa(lp6
S'timestamp'
p7
aF0.09590506553649902
aatp8
Rp9
.ccollections
OrderedDict
p0
((lp1
(lp2
S'state'
p3
aI0
aa(lp4
S'distance'
p5
aF385.2626190185547
aa(lp6
S'timestamp'
p7
aF0.10548710823059082
aatp8
Rp9
.ccollections
OrderedDict
p0
((lp1
(lp2
S'state'
p3
aI0
aa(lp4
S'distance'
p5
aF385.2626190185547
aa(lp6
S'timestamp'
p7
aF0.10586905479431152
aatp8
Rp9
.ccollections
OrderedDict
p0
((lp1
(lp2
S'state'
p3
aI0
aa(lp4
S'distance'
p5
aF385.2626190185547
aa(lp6
S'timestamp'
p7
aF0.1156010627746582
aatp8
Rp9
.ccollections
OrderedDict
p0
((lp1
(lp2
S'state'
p3
aI0
aa(lp4
S'distance'
p5
aF385.2626190185547
aa(lp6
S'timestamp'
p7
aF0.1222529411315918
aatp8
Rp9
.ccollections
OrderedDict
p0
((lp1
(lp2
S'state'
p3
aI0
aa(lp4
S'distance'
p5
aF385.2626190185547
aa(lp6
S'timestamp'
p7
aF0.12720513343811035
aatp8
Rp9
.ccollections
OrderedDict
p0
((lp1
(lp2
S'state'
p3
aI0
aa(lp4
S'distance'
p5
aF385.2626190185547
aa(lp6
S'timestamp'
p7
aF0.12728500366210938
aatp8
Rp9
.ccollections
OrderedDict
p0
((lp1
(lp2
S'state'
p3
aI0
aa(lp4
S'distance'
p5
aF385.2626190185547
aa(lp6
S'timestamp'
p7
aF0.13571405410766602
aatp8
Rp9
.ccollections
OrderedDict
p0
((lp1
(lp2
S'state'
p3
aI0
aa(lp4
S'distance'
p5
aF385.2626190185547
aa(lp6
S'timestamp'
p7
aF0.13582301139831543
aatp8
Rp9
.ccollections
OrderedDict
p0
((lp1
(lp2
S'state'
p3
aI0
aa(lp4
S'distance'
p5
aF385.2626190185547
aa(lp6
S'timestamp'
p7
aF0.1455380916595459
aatp8
Rp9
.ccollections
OrderedDict
p0
((lp1
(lp2
S'state'
p3
aI0
aa(lp4
S'distance'
p5
aF385.2626190185547
aa(lp6
S'timestamp'
p7
aF0.14619803428649902
aatp8
Rp9
.ccollections
OrderedDict
p0
((lp1
(lp2
S'state'
p3
aI0
aa(lp4
S'distance'
p5
aF385.2626190185547
aa(lp6
S'timestamp'
p7
aF0.15529608726501465
aatp8
Rp9
.ccollections
OrderedDict
p0
((lp1
(lp2
S'state'
p3
aI0
aa(lp4
S'distance'
p5
aF385.2626190185547
aa(lp6
S'timestamp'
p7
aF0.15700697898864746
aatp8
Rp9
.ccollections
OrderedDict
p0
((lp1
(lp2
S'state'
p3
aI0
aa(lp4
S'distance'
p5
aF385.2626190185547
aa(lp6
S'timestamp'
p7
aF0.16587114334106445
aatp8
Rp9
.ccollections
OrderedDict
p0
((lp1
(lp2
S'state'
p3
aI0
aa(lp4
S'distance'
p5
aF385.2626190185547
aa(lp6
S'timestamp'
p7
aF0.1659870147705078
aatp8
Rp9
.ccollections
OrderedDict
p0
((lp1
(lp2
S'state'
p3
aI0
aa(lp4
S'distance'
p5
aF385.2626190185547
aa(lp6
S'timestamp'
p7
aF0.1757490634918213
aatp8
Rp9
.ccollections
OrderedDict
p0
((lp1
(lp2
S'state'
p3
aI0
aa(lp4
S'distance'
p5
aF385.2626190185547
aa(lp6
S'timestamp'
p7
aF0.17582917213439941
aatp8
Rp9
.ccollections
OrderedDict
p0
((lp1
(lp2
S'state'
p3
aI0
aa(lp4
S'distance'
p5
aF385.2626190185547
aa(lp6
S'timestamp'
p7
aF0.18569707870483398
aatp8
Rp9
.ccollections
OrderedDict
p0
((lp1
(lp2
S'state'
p3
aI0
aa(lp4
S'distance'
p5
aF385.2626190185547
aa(lp6
S'timestamp'
p7
aF0.18612313270568848
aatp8
Rp9
.ccollections
OrderedDict
p0
((lp1
(lp2
S'state'
p3
aI0
aa(lp4
S'distance'
p5
aF385.2626190185547
aa(lp6
S'timestamp'
p7
aF0.19577407836914062
aatp8
Rp9
.ccollections
OrderedDict
p0
((lp1
(lp2
S'state'
p3
aI0
aa(lp4
S'distance'
p5
aF385.2626190185547
aa(lp6
S'timestamp'
p7
aF0.19586396217346191
aatp8
Rp9
.ccollections
OrderedDict
p0
((lp1
(lp2
S'state'
p3
aI0
aa(lp4
S'distance'
p5
aF385.2626190185547
aa(lp6
S'timestamp'
p7
aF0.20543313026428223
aatp8
Rp9
.ccollections
OrderedDict
p0
((lp1
(lp2
S'state'
p3
aI0
aa(lp4
S'distance'
p5
aF385.2626190185547
aa(lp6
S'timestamp'
p7
aF0.2061769962310791
aatp8
Rp9
.ccollections
OrderedDict
p0
((lp1
(lp2
S'state'
p3
aI0
aa(lp4
S'distance'
p5
aF385.2626190185547
aa(lp6
S'timestamp'
p7
aF0.21562814712524414
aatp8
Rp9
.ccollections
OrderedDict
p0
((lp1
(lp2
S'state'
p3
aI0
aa(lp4
S'distance'
p5
aF385.2626190185547
aa(lp6
S'timestamp'
p7
aF0.2157759666442871
aatp8
Rp9
.ccollections
OrderedDict
p0
((lp1
(lp2
S'state'
p3
aI0
aa(lp4
S'distance'
p5
aF385.2626190185547
aa(lp6
S'timestamp'
p7
aF0.22573208808898926
aatp8
Rp9
.ccollections
OrderedDict
p0
((lp1
(lp2
S'state'
p3
aI0
aa(lp4
S'distance'
p5
aF385.2626190185547
aa(lp6
S'timestamp'
p7
aF0.22600412368774414
aatp8
Rp9
.ccollections
OrderedDict
p0
((lp1
(lp2
S'state'
p3
aI0
aa(lp4
S'distance'
p5
aF385.2626190185547
aa(lp6
S'timestamp'
p7
aF0.23543596267700195
aatp8
Rp9
.ccollections
OrderedDict
p0
((lp1
(lp2
S'state'
p3
aI0
aa(lp4
S'distance'
p5
aF385.2626190185547
aa(lp6
S'timestamp'
p7
aF0.2361440658569336
aatp8
Rp9
.ccollections
OrderedDict
p0
((lp1
(lp2
S'state'
p3
aI0
aa(lp4
S'distance'
p5
aF385.2626190185547
aa(lp6
S'timestamp'
p7
aF0.24561309814453125
aatp8
Rp9
.ccollections
OrderedDict
p0
((lp1
(lp2
S'state'
p3
aI0
aa(lp4
S'distance'
p5
aF385.2626190185547
aa(lp6
S'timestamp'
p7
aF0.24612712860107422
aatp8
Rp9
.ccollections
OrderedDict
p0
((lp1
(lp2
S'state'
p3
aI0
aa(lp4
S'distance'
p5
aF385.2626190185547
aa(lp6
S'timestamp'
p7
aF0.2556331157684326
aatp8
Rp9
.ccollections
OrderedDict
p0
((lp1
(lp2
S'state'
p3
aI0
aa(lp4
S'distance'
p5
aF385.2626190185547
aa(lp6
S'timestamp'
p7
aF0.2558860778808594
aatp8
Rp9
.ccollections
OrderedDict
p0
((lp1
(lp2
S'state'
p3
aI0
aa(lp4
S'distance'
p5
aF385.2626190185547
aa(lp6
S'timestamp'
p7
aF0.26544904708862305
aatp8
Rp9
.ccollections
OrderedDict
p0
((lp1
(lp2
S'state'
p3
aI0
aa(lp4
S'distance'
p5
aF385.2626190185547
aa(lp6
S'timestamp'
p7
aF0.26621413230895996
aatp8
Rp9
.ccollections
OrderedDict
p0
((lp1
(lp2
S'state'
p3
aI0
aa(lp4
S'distance'
p5
aF385.2626190185547
aa(lp6
S'timestamp'
p7
aF0.2753770351409912
aatp8
Rp9
.ccollections
OrderedDict
p0
((lp1
(lp2
S'state'
p3
aI0
aa(lp4
S'distance'
p5
aF385.2626190185547
aa(lp6
S'timestamp'
p7
aF0.2767660617828369
aatp8
Rp9
.ccollections
OrderedDict
p0
((lp1
(lp2
S'state'
p3
aI0
aa(lp4
S'distance'
p5
aF385.2626190185547
aa(lp6
S'timestamp'
p7
aF0.28569507598876953
aatp8
Rp9
.ccollections
OrderedDict
p0
((lp1
(lp2
S'state'
p3
aI0
aa(lp4
S'distance'
p5
aF385.2626190185547
aa(lp6
S'timestamp'
p7
aF0.2859771251678467
aatp8
Rp9
.ccollections
OrderedDict
p0
((lp1
(lp2
S'state'
p3
aI0
aa(lp4
S'distance'
p5
aF385.2626190185547
aa(lp6
S'timestamp'
p7
aF0.2956671714782715
aatp8
Rp9
.ccollections
OrderedDict
p0
((lp1
(lp2
S'state'
p3
aI0
aa(lp4
S'distance'
p5
aF385.2626190185547
aa(lp6
S'timestamp'
p7
aF0.29580116271972656
aatp8
Rp9
.ccollections
OrderedDict
p0
((lp1
(lp2
S'state'
p3
aI0
aa(lp4
S'distance'
p5
aF385.2626190185547
aa(lp6
S'timestamp'
p7
aF0.3056919574737549
aatp8
Rp9
.ccollections
OrderedDict
p0
((lp1
(lp2
S'state'
p3
aI0
aa(lp4
S'distance'
p5
aF385.2626190185547
aa(lp6
S'timestamp'
p7
aF0.305819034576416
aatp8
Rp9
.ccollections
OrderedDict
p0
((lp1
(lp2
S'state'
p3
aI0
aa(lp4
S'distance'
p5
aF385.2626190185547
aa(lp6
S'timestamp'
p7
aF0.3157839775085449
aatp8
Rp9
.ccollections
OrderedDict
p0
((lp1
(lp2
S'state'
p3
aI0
aa(lp4
S'distance'
p5
aF385.2626190185547
aa(lp6
S'timestamp'
p7
aF0.3159480094909668
aatp8
Rp9
.ccollections
OrderedDict
p0
((lp1
(lp2
S'state'
p3
aI0
aa(lp4
S'distance'
p5
aF385.2626190185547
aa(lp6
S'timestamp'
p7
aF0.32552194595336914
aatp8
Rp9
.ccollections
OrderedDict
p0
((lp1
(lp2
S'state'
p3
aI0
aa(lp4
S'distance'
p5
aF385.2626190185547
aa(lp6
S'timestamp'
p7
aF0.3260810375213623
aatp8
Rp9
.ccollections
OrderedDict
p0
((lp1
(lp2
S'state'
p3
aI0
aa(lp4
S'distance'
p5
aF385.2626190185547
aa(lp6
S'timestamp'
p7
aF0.33548498153686523
aatp8
Rp9
.ccollections
OrderedDict
p0
((lp1
(lp2
S'state'
p3
aI0
aa(lp4
S'distance'
p5
aF385.2626190185547
aa(lp6
S'timestamp'
p7
aF0.3455851078033447
aatp8
Rp9
.ccollections
OrderedDict
p0
((lp1
(lp2
S'state'
p3
aI0
aa(lp4
S'distance'
p5
aF385.2626190185547
aa(lp6
S'timestamp'
p7
aF0.3557720184326172
aatp8
Rp9
.ccollections
OrderedDict
p0
((lp1
(lp2
S'state'
p3
aI0
aa(lp4
S'distance'
p5
aF385.2626190185547
aa(lp6
S'timestamp'
p7
aF0.35585498809814453
aatp8
Rp9
.ccollections
OrderedDict
p0
((lp1
(lp2
S'state'
p3
aI0
aa(lp4
S'distance'
p5
aF385.2626190185547
aa(lp6
S'timestamp'
p7
aF0.3584110736846924
aatp8
Rp9
.ccollections
OrderedDict
p0
((lp1
(lp2
S'state'
p3
aI0
aa(lp4
S'distance'
p5
aF385.2626190185547
aa(lp6
S'timestamp'
p7
aF0.3587040901184082
aatp8
Rp9
.ccollections
OrderedDict
p0
((lp1
(lp2
S'state'
p3
aI0
aa(lp4
S'distance'
p5
aF385.2626190185547
aa(lp6
S'timestamp'
p7
aF0.36556506156921387
aatp8
Rp9
.ccollections
OrderedDict
p0
((lp1
(lp2
S'state'
p3
aI0
aa(lp4
S'distance'
p5
aF385.2626190185547
aa(lp6
S'timestamp'
p7
aF0.3661830425262451
aatp8
Rp9
.ccollections
OrderedDict
p0
((lp1
(lp2
S'state'
p3
aI0
aa(lp4
S'distance'
p5
aF385.2626190185547
aa(lp6
S'timestamp'
p7
aF0.3756899833679199
aatp8
Rp9
.ccollections
OrderedDict
p0
((lp1
(lp2
S'state'
p3
aI0
aa(lp4
S'distance'
p5
aF385.2626190185547
aa(lp6
S'timestamp'
p7
aF0.3762209415435791
aatp8
Rp9
.ccollections
OrderedDict
p0
((lp1
(lp2
S'state'
p3
aI0
aa(lp4
S'distance'
p5
aF385.2626190185547
aa(lp6
S'timestamp'
p7
aF0.38594603538513184
aatp8
Rp9
.ccollections
OrderedDict
p0
((lp1
(lp2
S'state'
p3
aI0
aa(lp4
S'distance'
p5
aF385.2626190185547
aa(lp6
S'timestamp'
p7
aF0.38603901863098145
aatp8
Rp9
.ccollections
OrderedDict
p0
((lp1
(lp2
S'state'
p3
aI0
aa(lp4
S'distance'
p5
aF385.2626190185547
aa(lp6
S'timestamp'
p7
aF0.3956921100616455
aatp8
Rp9
.ccollections
OrderedDict
p0
((lp1
(lp2
S'state'
p3
aI0
aa(lp4
S'distance'
p5
aF385.2626190185547
aa(lp6
S'timestamp'
p7
aF0.39604902267456055
aatp8
Rp9
.ccollections
OrderedDict
p0
((lp1
(lp2
S'state'
p3
aI0
aa(lp4
S'distance'
p5
aF385.2626190185547
aa(lp6
S'timestamp'
p7
aF0.4056520462036133
aatp8
Rp9
.ccollections
OrderedDict
p0
((lp1
(lp2
S'state'
p3
aI0
aa(lp4
S'distance'
p5
aF385.2626190185547
aa(lp6
S'timestamp'
p7
aF0.40621113777160645
aatp8
Rp9
.ccollections
OrderedDict
p0
((lp1
(lp2
S'state'
p3
aI0
aa(lp4
S'distance'
p5
aF385.2626190185547
aa(lp6
S'timestamp'
p7
aF0.41577601432800293
aatp8
Rp9
.ccollections
OrderedDict
p0
((lp1
(lp2
S'state'
p3
aI0
aa(lp4
S'distance'
p5
aF385.2626190185547
aa(lp6
S'timestamp'
p7
aF0.4164741039276123
aatp8
Rp9
.ccollections
OrderedDict
p0
((lp1
(lp2
S'state'
p3
aI0
aa(lp4
S'distance'
p5
aF385.2626190185547
aa(lp6
S'timestamp'
p7
aF0.4256889820098877
aatp8
Rp9
.ccollections
OrderedDict
p0
((lp1
(lp2
S'state'
p3
aI0
aa(lp4
S'distance'
p5
aF385.2626190185547
aa(lp6
S'timestamp'
p7
aF0.4261291027069092
aatp8
Rp9
.ccollections
OrderedDict
p0
((lp1
(lp2
S'state'
p3
aI0
aa(lp4
S'distance'
p5
aF385.2626190185547
aa(lp6
S'timestamp'
p7
aF0.435884952545166
aatp8
Rp9
.ccollections
OrderedDict
p0
((lp1
(lp2
S'state'
p3
aI0
aa(lp4
S'distance'
p5
aF385.2626190185547
aa(lp6
S'timestamp'
p7
aF0.436007022857666
aatp8
Rp9
.ccollections
OrderedDict
p0
((lp1
(lp2
S'state'
p3
aI0
aa(lp4
S'distance'
p5
aF385.2626190185547
aa(lp6
S'timestamp'
p7
aF0.4457869529724121
aatp8
Rp9
.ccollections
OrderedDict
p0
((lp1
(lp2
S'state'
p3
aI0
aa(lp4
S'distance'
p5
aF385.2626190185547
aa(lp6
S'timestamp'
p7
aF0.44600796699523926
aatp8
Rp9
.ccollections
OrderedDict
p0
((lp1
(lp2
S'state'
p3
aI0
aa(lp4
S'distance'
p5
aF385.2626190185547
aa(lp6
S'timestamp'
p7
aF0.45566701889038086
aatp8
Rp9
.ccollections
OrderedDict
p0
((lp1
(lp2
S'state'
p3
aI0
aa(lp4
S'distance'
p5
aF385.2626190185547
aa(lp6
S'timestamp'
p7
aF0.4561281204223633
aatp8
Rp9
.ccollections
OrderedDict
p0
((lp1
(lp2
S'state'
p3
aI0
aa(lp4
S'distance'
p5
aF385.2626190185547
aa(lp6
S'timestamp'
p7
aF0.46565914154052734
aatp8
Rp9
.ccollections
OrderedDict
p0
((lp1
(lp2
S'state'
p3
aI0
aa(lp4
S'distance'
p5
aF385.2626190185547
aa(lp6
S'timestamp'
p7
aF0.466001033782959
aatp8
Rp9
.ccollections
OrderedDict
p0
((lp1
(lp2
S'state'
p3
aI0
aa(lp4
S'distance'
p5
aF385.2626190185547
aa(lp6
S'timestamp'
p7
aF0.47570204734802246
aatp8
Rp9
.ccollections
OrderedDict
p0
((lp1
(lp2
S'state'
p3
aI0
aa(lp4
S'distance'
p5
aF385.2626190185547
aa(lp6
S'timestamp'
p7
aF0.47608399391174316
aatp8
Rp9
.ccollections
OrderedDict
p0
((lp1
(lp2
S'state'
p3
aI0
aa(lp4
S'distance'
p5
aF385.2626190185547
aa(lp6
S'timestamp'
p7
aF0.4855470657348633
aatp8
Rp9
.ccollections
OrderedDict
p0
((lp1
(lp2
S'state'
p3
aI0
aa(lp4
S'distance'
p5
aF385.2626190185547
aa(lp6
S'timestamp'
p7
aF0.4862639904022217
aatp8
Rp9
.ccollections
OrderedDict
p0
((lp1
(lp2
S'state'
p3
aI0
aa(lp4
S'distance'
p5
aF385.2626190185547
aa(lp6
S'timestamp'
p7
aF0.4956400394439697
aatp8
Rp9
.ccollections
OrderedDict
p0
((lp1
(lp2
S'state'
p3
aI0
aa(lp4
S'distance'
p5
aF385.2626190185547
aa(lp6
S'timestamp'
p7
aF0.4961111545562744
aatp8
Rp9
.ccollections
OrderedDict
p0
((lp1
(lp2
S'state'
p3
aI0
aa(lp4
S'distance'
p5
aF385.2626190185547
aa(lp6
S'timestamp'
p7
aF0.5056421756744385
aatp8
Rp9
.ccollections
OrderedDict
p0
((lp1
(lp2
S'state'
p3
aI0
aa(lp4
S'distance'
p5
aF385.2626190185547
aa(lp6
S'timestamp'
p7
aF0.5061941146850586
aatp8
Rp9
.ccollections
OrderedDict
p0
((lp1
(lp2
S'state'
p3
aI0
aa(lp4
S'distance'
p5
aF385.2626190185547
aa(lp6
S'timestamp'
p7
aF0.5158910751342773
aatp8
Rp9
.ccollections
OrderedDict
p0
((lp1
(lp2
S'state'
p3
aI0
aa(lp4
S'distance'
p5
aF385.2626190185547
aa(lp6
S'timestamp'
p7
aF0.5162720680236816
aatp8
Rp9
.ccollections
OrderedDict
p0
((lp1
(lp2
S'state'
p3
aI0
aa(lp4
S'distance'
p5
aF385.2626190185547
aa(lp6
S'timestamp'
p7
aF0.5257840156555176
aatp8
Rp9
.ccollections
OrderedDict
p0
((lp1
(lp2
S'state'
p3
aI0
aa(lp4
S'distance'
p5
aF385.2626190185547
aa(lp6
S'timestamp'
p7
aF0.5260360240936279
aatp8
Rp9
.ccollections
OrderedDict
p0
((lp1
(lp2
S'state'
p3
aI0
aa(lp4
S'distance'
p5
aF385.2626190185547
aa(lp6
S'timestamp'
p7
aF0.535546064376831
aatp8
Rp9
.ccollections
OrderedDict
p0
((lp1
(lp2
S'state'
p3
aI0
aa(lp4
S'distance'
p5
aF385.2626190185547
aa(lp6
S'timestamp'
p7
aF0.5360209941864014
aatp8
Rp9
.ccollections
OrderedDict
p0
((lp1
(lp2
S'state'
p3
aI0
aa(lp4
S'distance'
p5
aF385.2626190185547
aa(lp6
S'timestamp'
p7
aF0.5455820560455322
aatp8
Rp9
.ccollections
OrderedDict
p0
((lp1
(lp2
S'state'
p3
aI0
aa(lp4
S'distance'
p5
aF385.2626190185547
aa(lp6
S'timestamp'
p7
aF0.5460200309753418
aatp8
Rp9
.ccollections
OrderedDict
p0
((lp1
(lp2
S'state'
p3
aI0
aa(lp4
S'distance'
p5
aF385.2626190185547
aa(lp6
S'timestamp'
p7
aF0.5558481216430664
aatp8
Rp9
.ccollections
OrderedDict
p0
((lp1
(lp2
S'state'
p3
aI0
aa(lp4
S'distance'
p5
aF385.2626190185547
aa(lp6
S'timestamp'
p7
aF0.5560619831085205
aatp8
Rp9
.ccollections
OrderedDict
p0
((lp1
(lp2
S'state'
p3
aI0
aa(lp4
S'distance'
p5
aF385.2626190185547
aa(lp6
S'timestamp'
p7
aF0.5656981468200684
aatp8
Rp9
.ccollections
OrderedDict
p0
((lp1
(lp2
S'state'
p3
aI0
aa(lp4
S'distance'
p5
aF385.2626190185547
aa(lp6
S'timestamp'
p7
aF0.5661540031433105
aatp8
Rp9
.ccollections
OrderedDict
p0
((lp1
(lp2
S'state'
p3
aI0
aa(lp4
S'distance'
p5
aF385.2626190185547
aa(lp6
S'timestamp'
p7
aF0.5758719444274902
aatp8
Rp9
.ccollections
OrderedDict
p0
((lp1
(lp2
S'state'
p3
aI0
aa(lp4
S'distance'
p5
aF385.2626190185547
aa(lp6
S'timestamp'
p7
aF0.5760040283203125
aatp8
Rp9
.ccollections
OrderedDict
p0
((lp1
(lp2
S'state'
p3
aI0
aa(lp4
S'distance'
p5
aF385.2626190185547
aa(lp6
S'timestamp'
p7
aF0.5857009887695312
aatp8
Rp9
.ccollections
OrderedDict
p0
((lp1
(lp2
S'state'
p3
aI0
aa(lp4
S'distance'
p5
aF385.2626190185547
aa(lp6
S'timestamp'
p7
aF0.5861611366271973
aatp8
Rp9
.ccollections
OrderedDict
p0
((lp1
(lp2
S'state'
p3
aI0
aa(lp4
S'distance'
p5
aF385.2626190185547
aa(lp6
S'timestamp'
p7
aF0.5955991744995117
aatp8
Rp9
.ccollections
OrderedDict
p0
((lp1
(lp2
S'state'
p3
aI0
aa(lp4
S'distance'
p5
aF385.2626190185547
aa(lp6
S'timestamp'
p7
aF0.5960819721221924
aatp8
Rp9
.ccollections
OrderedDict
p0
((lp1
(lp2
S'state'
p3
aI0
aa(lp4
S'distance'
p5
aF385.2626190185547
aa(lp6
S'timestamp'
p7
aF0.6059360504150391
aatp8
Rp9
.ccollections
OrderedDict
p0
((lp1
(lp2
S'state'
p3
aI0
aa(lp4
S'distance'
p5
aF385.2626190185547
aa(lp6
S'timestamp'
p7
aF0.6070950031280518
aatp8
Rp9
.ccollections
OrderedDict
p0
((lp1
(lp2
S'state'
p3
aI0
aa(lp4
S'distance'
p5
aF385.2626190185547
aa(lp6
S'timestamp'
p7
aF0.6155900955200195
aatp8
Rp9
.ccollections
OrderedDict
p0
((lp1
(lp2
S'state'
p3
aI0
aa(lp4
S'distance'
p5
aF385.2626190185547
aa(lp6
S'timestamp'
p7
aF0.6159820556640625
aatp8
Rp9
.ccollections
OrderedDict
p0
((lp1
(lp2
S'state'
p3
aI0
aa(lp4
S'distance'
p5
aF385.2626190185547
aa(lp6
S'timestamp'
p7
aF0.626021146774292
aatp8
Rp9
.ccollections
OrderedDict
p0
((lp1
(lp2
S'state'
p3
aI0
aa(lp4
S'distance'
p5
aF385.2626190185547
aa(lp6
S'timestamp'
p7
aF0.6261661052703857
aatp8
Rp9
.ccollections
OrderedDict
p0
((lp1
(lp2
S'state'
p3
aI0
aa(lp4
S'distance'
p5
aF385.2626190185547
aa(lp6
S'timestamp'
p7
aF0.6358621120452881
aatp8
Rp9
.ccollections
OrderedDict
p0
((lp1
(lp2
S'state'
p3
aI0
aa(lp4
S'distance'
p5
aF385.2626190185547
aa(lp6
S'timestamp'
p7
aF0.6360440254211426
aatp8
Rp9
.ccollections
OrderedDict
p0
((lp1
(lp2
S'state'
p3
aI0
aa(lp4
S'distance'
p5
aF385.2626190185547
aa(lp6
S'timestamp'
p7
aF0.6456460952758789
aatp8
Rp9
.ccollections
OrderedDict
p0
((lp1
(lp2
S'state'
p3
aI0
aa(lp4
S'distance'
p5
aF385.2626190185547
aa(lp6
S'timestamp'
p7
aF0.6461961269378662
aatp8
Rp9
.ccollections
OrderedDict
p0
((lp1
(lp2
S'state'
p3
aI0
aa(lp4
S'distance'
p5
aF385.2626190185547
aa(lp6
S'timestamp'
p7
aF0.6658420562744141
aatp8
Rp9
.ccollections
OrderedDict
p0
((lp1
(lp2
S'state'
p3
aI0
aa(lp4
S'distance'
p5
aF385.2626190185547
aa(lp6
S'timestamp'
p7
aF0.6659359931945801
aatp8
Rp9
.ccollections
OrderedDict
p0
((lp1
(lp2
S'state'
p3
aI0
aa(lp4
S'distance'
p5
aF385.2626190185547
aa(lp6
S'timestamp'
p7
aF0.6671149730682373
aatp8
Rp9
.ccollections
OrderedDict
p0
((lp1
(lp2
S'state'
p3
aI0
aa(lp4
S'distance'
p5
aF385.2626190185547
aa(lp6
S'timestamp'
p7
aF0.6683220863342285
aatp8
Rp9
.ccollections
OrderedDict
p0
((lp1
(lp2
S'state'
p3
aI0
aa(lp4
S'distance'
p5
aF385.2626190185547
aa(lp6
S'timestamp'
p7
aF0.6758179664611816
aatp8
Rp9
.ccollections
OrderedDict
p0
((lp1
(lp2
S'state'
p3
aI0
aa(lp4
S'distance'
p5
aF385.2626190185547
aa(lp6
S'timestamp'
p7
aF0.6762161254882812
aatp8
Rp9
.ccollections
OrderedDict
p0
((lp1
(lp2
S'state'
p3
aI0
aa(lp4
S'distance'
p5
aF385.2626190185547
aa(lp6
S'timestamp'
p7
aF0.6856851577758789
aatp8
Rp9
.ccollections
OrderedDict
p0
((lp1
(lp2
S'state'
p3
aI0
aa(lp4
S'distance'
p5
aF385.2626190185547
aa(lp6
S'timestamp'
p7
aF0.6861531734466553
aatp8
Rp9
.ccollections
OrderedDict
p0
((lp1
(lp2
S'state'
p3
aI0
aa(lp4
S'distance'
p5
aF385.2626190185547
aa(lp6
S'timestamp'
p7
aF0.6960070133209229
aatp8
Rp9
.ccollections
OrderedDict
p0
((lp1
(lp2
S'state'
p3
aI0
aa(lp4
S'distance'
p5
aF385.2626190185547
aa(lp6
S'timestamp'
p7
aF0.6960980892181396
aatp8
Rp9
.ccollections
OrderedDict
p0
((lp1
(lp2
S'state'
p3
aI0
aa(lp4
S'distance'
p5
aF385.2626190185547
aa(lp6
S'timestamp'
p7
aF0.7057981491088867
aatp8
Rp9
.ccollections
OrderedDict
p0
((lp1
(lp2
S'state'
p3
aI0
aa(lp4
S'distance'
p5
aF385.2626190185547
aa(lp6
S'timestamp'
p7
aF0.7156269550323486
aatp8
Rp9
.ccollections
OrderedDict
p0
((lp1
(lp2
S'state'
p3
aI0
aa(lp4
S'distance'
p5
aF385.2626190185547
aa(lp6
S'timestamp'
p7
aF0.7257101535797119
aatp8
Rp9
.ccollections
OrderedDict
p0
((lp1
(lp2
S'state'
p3
aI0
aa(lp4
S'distance'
p5
aF385.2626190185547
aa(lp6
S'timestamp'
p7
aF0.7259831428527832
aatp8
Rp9
.ccollections
OrderedDict
p0
((lp1
(lp2
S'state'
p3
aI0
aa(lp4
S'distance'
p5
aF385.2626190185547
aa(lp6
S'timestamp'
p7
aF0.7272140979766846
aatp8
Rp9
.ccollections
OrderedDict
p0
((lp1
(lp2
S'state'
p3
aI0
aa(lp4
S'distance'
p5
aF385.2626190185547
aa(lp6
S'timestamp'
p7
aF0.7273440361022949
aatp8
Rp9
.ccollections
OrderedDict
p0
((lp1
(lp2
S'state'
p3
aI0
aa(lp4
S'distance'
p5
aF385.2626190185547
aa(lp6
S'timestamp'
p7
aF0.7356550693511963
aatp8
Rp9
.ccollections
OrderedDict
p0
((lp1
(lp2
S'state'
p3
aI0
aa(lp4
S'distance'
p5
aF385.2626190185547
aa(lp6
S'timestamp'
p7
aF0.7361211776733398
aatp8
Rp9
.ccollections
OrderedDict
p0
((lp1
(lp2
S'state'
p3
aI0
aa(lp4
S'distance'
p5
aF385.2626190185547
aa(lp6
S'timestamp'
p7
aF0.7457201480865479
aatp8
Rp9
.ccollections
OrderedDict
p0
((lp1
(lp2
S'state'
p3
aI0
aa(lp4
S'distance'
p5
aF385.2626190185547
aa(lp6
S'timestamp'
p7
aF0.7462129592895508
aatp8
Rp9
.ccollections
OrderedDict
p0
((lp1
(lp2
S'state'
p3
aI0
aa(lp4
S'distance'
p5
aF385.2626190185547
aa(lp6
S'timestamp'
p7
aF0.7556381225585938
aatp8
Rp9
.ccollections
OrderedDict
p0
((lp1
(lp2
S'state'
p3
aI0
aa(lp4
S'distance'
p5
aF385.2626190185547
aa(lp6
S'timestamp'
p7
aF0.7561140060424805
aatp8
Rp9
.ccollections
OrderedDict
p0
((lp1
(lp2
S'state'
p3
aI0
aa(lp4
S'distance'
p5
aF385.2626190185547
aa(lp6
S'timestamp'
p7
aF0.7657320499420166
aatp8
Rp9
.ccollections
OrderedDict
p0
((lp1
(lp2
S'state'
p3
aI0
aa(lp4
S'distance'
p5
aF385.2626190185547
aa(lp6
S'timestamp'
p7
aF0.7662150859832764
aatp8
Rp9
.ccollections
OrderedDict
p0
((lp1
(lp2
S'state'
p3
aI0
aa(lp4
S'distance'
p5
aF385.2626190185547
aa(lp6
S'timestamp'
p7
aF0.7758920192718506
aatp8
Rp9
.ccollections
OrderedDict
p0
((lp1
(lp2
S'state'
p3
aI0
aa(lp4
S'distance'
p5
aF385.2626190185547
aa(lp6
S'timestamp'
p7
aF0.7761731147766113
aatp8
Rp9
.ccollections
OrderedDict
p0
((lp1
(lp2
S'state'
p3
aI0
aa(lp4
S'distance'
p5
aF385.2626190185547
aa(lp6
S'timestamp'
p7
aF0.7857420444488525
aatp8
Rp9
.ccollections
OrderedDict
p0
((lp1
(lp2
S'state'
p3
aI0
aa(lp4
S'distance'
p5
aF385.2626190185547
aa(lp6
S'timestamp'
p7
aF0.7860770225524902
aatp8
Rp9
.ccollections
OrderedDict
p0
((lp1
(lp2
S'state'
p3
aI0
aa(lp4
S'distance'
p5
aF385.2626190185547
aa(lp6
S'timestamp'
p7
aF0.7958879470825195
aatp8
Rp9
.ccollections
OrderedDict
p0
((lp1
(lp2
S'state'
p3
aI0
aa(lp4
S'distance'
p5
aF385.2626190185547
aa(lp6
S'timestamp'
p7
aF0.7960879802703857
aatp8
Rp9
.ccollections
OrderedDict
p0
((lp1
(lp2
S'state'
p3
aI0
aa(lp4
S'distance'
p5
aF385.2626190185547
aa(lp6
S'timestamp'
p7
aF0.8158619403839111
aatp8
Rp9
.ccollections
OrderedDict
p0
((lp1
(lp2
S'state'
p3
aI0
aa(lp4
S'distance'
p5
aF385.2626190185547
aa(lp6
S'timestamp'
p7
aF0.815946102142334
aatp8
Rp9
.ccollections
OrderedDict
p0
((lp1
(lp2
S'state'
p3
aI0
aa(lp4
S'distance'
p5
aF385.2626190185547
aa(lp6
S'timestamp'
p7
aF0.8170690536499023
aatp8
Rp9
.ccollections
OrderedDict
p0
((lp1
(lp2
S'state'
p3
aI0
aa(lp4
S'distance'
p5
aF385.2626190185547
aa(lp6
S'timestamp'
p7
aF0.8179011344909668
aatp8
Rp9
.ccollections
OrderedDict
p0
((lp1
(lp2
S'state'
p3
aI0
aa(lp4
S'distance'
p5
aF385.2626190185547
aa(lp6
S'timestamp'
p7
aF0.8259000778198242
aatp8
Rp9
.ccollections
OrderedDict
p0
((lp1
(lp2
S'state'
p3
aI0
aa(lp4
S'distance'
p5
aF385.2626190185547
aa(lp6
S'timestamp'
p7
aF0.8260641098022461
aatp8
Rp9
.ccollections
OrderedDict
p0
((lp1
(lp2
S'state'
p3
aI0
aa(lp4
S'distance'
p5
aF385.2626190185547
aa(lp6
S'timestamp'
p7
aF0.8358731269836426
aatp8
Rp9
.ccollections
OrderedDict
p0
((lp1
(lp2
S'state'
p3
aI0
aa(lp4
S'distance'
p5
aF385.2626190185547
aa(lp6
S'timestamp'
p7
aF0.8362751007080078
aatp8
Rp9
.ccollections
OrderedDict
p0
((lp1
(lp2
S'state'
p3
aI0
aa(lp4
S'distance'
p5
aF385.2626190185547
aa(lp6
S'timestamp'
p7
aF0.8457720279693604
aatp8
Rp9
.ccollections
OrderedDict
p0
((lp1
(lp2
S'state'
p3
aI0
aa(lp4
S'distance'
p5
aF385.2626190185547
aa(lp6
S'timestamp'
p7
aF0.8462519645690918
aatp8
Rp9
.ccollections
OrderedDict
p0
((lp1
(lp2
S'state'
p3
aI0
aa(lp4
S'distance'
p5
aF385.2626190185547
aa(lp6
S'timestamp'
p7
aF0.855877161026001
aatp8
Rp9
.ccollections
OrderedDict
p0
((lp1
(lp2
S'state'
p3
aI0
aa(lp4
S'distance'
p5
aF385.2626190185547
aa(lp6
S'timestamp'
p7
aF0.8561091423034668
aatp8
Rp9
.ccollections
OrderedDict
p0
((lp1
(lp2
S'state'
p3
aI0
aa(lp4
S'distance'
p5
aF385.2626190185547
aa(lp6
S'timestamp'
p7
aF0.8658490180969238
aatp8
Rp9
.ccollections
OrderedDict
p0
((lp1
(lp2
S'state'
p3
aI0
aa(lp4
S'distance'
p5
aF385.2626190185547
aa(lp6
S'timestamp'
p7
aF0.8660831451416016
aatp8
Rp9
.ccollections
OrderedDict
p0
((lp1
(lp2
S'state'
p3
aI0
aa(lp4
S'distance'
p5
aF385.2626190185547
aa(lp6
S'timestamp'
p7
aF0.8757450580596924
aatp8
Rp9
.ccollections
OrderedDict
p0
((lp1
(lp2
S'state'
p3
aI0
aa(lp4
S'distance'
p5
aF385.2626190185547
aa(lp6
S'timestamp'
p7
aF0.8761470317840576
aatp8
Rp9
.ccollections
OrderedDict
p0
((lp1
(lp2
S'state'
p3
aI0
aa(lp4
S'distance'
p5
aF385.2626190185547
aa(lp6
S'timestamp'
p7
aF0.8857359886169434
aatp8
Rp9
.ccollections
OrderedDict
p0
((lp1
(lp2
S'state'
p3
aI0
aa(lp4
S'distance'
p5
aF385.2626190185547
aa(lp6
S'timestamp'
p7
aF0.8862559795379639
aatp8
Rp9
.ccollections
OrderedDict
p0
((lp1
(lp2
S'state'
p3
aI0
aa(lp4
S'distance'
p5
aF385.2626190185547
aa(lp6
S'timestamp'
p7
aF0.8957681655883789
aatp8
Rp9
.ccollections
OrderedDict
p0
((lp1
(lp2
S'state'
p3
aI0
aa(lp4
S'distance'
p5
aF385.2626190185547
aa(lp6
S'timestamp'
p7
aF0.8962810039520264
aatp8
Rp9
.ccollections
OrderedDict
p0
((lp1
(lp2
S'state'
p3
aI0
aa(lp4
S'distance'
p5
aF385.2626190185547
aa(lp6
S'timestamp'
p7
aF0.9057159423828125
aatp8
Rp9
.ccollections
OrderedDict
p0
((lp1
(lp2
S'state'
p3
aI0
aa(lp4
S'distance'
p5
aF385.2626190185547
aa(lp6
S'timestamp'
p7
aF0.9064080715179443
aatp8
Rp9
.ccollections
OrderedDict
p0
((lp1
(lp2
S'state'
p3
aI0
aa(lp4
S'distance'
p5
aF385.2626190185547
aa(lp6
S'timestamp'
p7
aF0.915956974029541
aatp8
Rp9
.ccollections
OrderedDict
p0
((lp1
(lp2
S'state'
p3
aI0
aa(lp4
S'distance'
p5
aF385.2626190185547
aa(lp6
S'timestamp'
p7
aF0.9161450862884521
aatp8
Rp9
.ccollections
OrderedDict
p0
((lp1
(lp2
S'state'
p3
aI0
aa(lp4
S'distance'
p5
aF385.2626190185547
aa(lp6
S'timestamp'
p7
aF0.9256651401519775
aatp8
Rp9
.ccollections
OrderedDict
p0
((lp1
(lp2
S'state'
p3
aI0
aa(lp4
S'distance'
p5
aF385.2626190185547
aa(lp6
S'timestamp'
p7
aF0.9263720512390137
aatp8
Rp9
.ccollections
OrderedDict
p0
((lp1
(lp2
S'state'
p3
aI0
aa(lp4
S'distance'
p5
aF385.2626190185547
aa(lp6
S'timestamp'
p7
aF0.9356851577758789
aatp8
Rp9
.ccollections
OrderedDict
p0
((lp1
(lp2
S'state'
p3
aI0
aa(lp4
S'distance'
p5
aF385.2626190185547
aa(lp6
S'timestamp'
p7
aF0.9363429546356201
aatp8
Rp9
.ccollections
OrderedDict
p0
((lp1
(lp2
S'state'
p3
aI0
aa(lp4
S'distance'
p5
aF385.2626190185547
aa(lp6
S'timestamp'
p7
aF0.9457850456237793
aatp8
Rp9
.ccollections
OrderedDict
p0
((lp1
(lp2
S'state'
p3
aI0
aa(lp4
S'distance'
p5
aF385.2626190185547
aa(lp6
S'timestamp'
p7
aF0.9472551345825195
aatp8
Rp9
.ccollections
OrderedDict
p0
((lp1
(lp2
S'state'
p3
aI0
aa(lp4
S'distance'
p5
aF385.2626190185547
aa(lp6
S'timestamp'
p7
aF0.9556870460510254
aatp8
Rp9
.ccollections
OrderedDict
p0
((lp1
(lp2
S'state'
p3
aI0
aa(lp4
S'distance'
p5
aF385.2626190185547
aa(lp6
S'timestamp'
p7
aF0.9562840461730957
aatp8
Rp9
.ccollections
OrderedDict
p0
((lp1
(lp2
S'state'
p3
aI0
aa(lp4
S'distance'
p5
aF385.2626190185547
aa(lp6
S'timestamp'
p7
aF0.9656820297241211
aatp8
Rp9
.ccollections
OrderedDict
p0
((lp1
(lp2
S'state'
p3
aI0
aa(lp4
S'distance'
p5
aF385.2626190185547
aa(lp6
S'timestamp'
p7
aF0.9661140441894531
aatp8
Rp9
.ccollections
OrderedDict
p0
((lp1
(lp2
S'state'
p3
aI0
aa(lp4
S'distance'
p5
aF385.2626190185547
aa(lp6
S'timestamp'
p7
aF0.9757511615753174
aatp8
Rp9
.ccollections
OrderedDict
p0
((lp1
(lp2
S'state'
p3
aI0
aa(lp4
S'distance'
p5
aF385.2626190185547
aa(lp6
S'timestamp'
p7
aF0.9761221408843994
aatp8
Rp9
.ccollections
OrderedDict
p0
((lp1
(lp2
S'state'
p3
aI0
aa(lp4
S'distance'
p5
aF385.2626190185547
aa(lp6
S'timestamp'
p7
aF0.9859271049499512
aatp8
Rp9
.ccollections
OrderedDict
p0
((lp1
(lp2
S'state'
p3
aI0
aa(lp4
S'distance'
p5
aF385.2626190185547
aa(lp6
S'timestamp'
p7
aF0.9860639572143555
aatp8
Rp9
.ccollections
OrderedDict
p0
((lp1
(lp2
S'state'
p3
aI0
aa(lp4
S'distance'
p5
aF385.2626190185547
aa(lp6
S'timestamp'
p7
aF0.995819091796875
aatp8
Rp9
.ccollections
OrderedDict
p0
((lp1
(lp2
S'state'
p3
aI0
aa(lp4
S'distance'
p5
aF385.2626190185547
aa(lp6
S'timestamp'
p7
aF0.9961719512939453
aatp8
Rp9
.ccollections
OrderedDict
p0
((lp1
(lp2
S'state'
p3
aI0
aa(lp4
S'distance'
p5
aF385.2626190185547
aa(lp6
S'timestamp'
p7
aF1.005681037902832
aatp8
Rp9
.ccollections
OrderedDict
p0
((lp1
(lp2
S'state'
p3
aI0
aa(lp4
S'distance'
p5
aF385.2626190185547
aa(lp6
S'timestamp'
p7
aF1.0063540935516357
aatp8
Rp9
.ccollections
OrderedDict
p0
((lp1
(lp2
S'state'
p3
aI0
aa(lp4
S'distance'
p5
aF385.2626190185547
aa(lp6
S'timestamp'
p7
aF1.0156450271606445
aatp8
Rp9
.ccollections
OrderedDict
p0
((lp1
(lp2
S'state'
p3
aI0
aa(lp4
S'distance'
p5
aF385.2626190185547
aa(lp6
S'timestamp'
p7
aF1.0164251327514648
aatp8
Rp9
.ccollections
OrderedDict
p0
((lp1
(lp2
S'state'
p3
aI0
aa(lp4
S'distance'
p5
aF385.2626190185547
aa(lp6
S'timestamp'
p7
aF1.025771141052246
aatp8
Rp9
.ccollections
OrderedDict
p0
((lp1
(lp2
S'state'
p3
aI0
aa(lp4
S'distance'
p5
aF385.2626190185547
aa(lp6
S'timestamp'
p7
aF1.0263710021972656
aatp8
Rp9
.ccollections
OrderedDict
p0
((lp1
(lp2
S'state'
p3
aI0
aa(lp4
S'distance'
p5
aF385.2626190185547
aa(lp6
S'timestamp'
p7
aF1.035830020904541
aatp8
Rp9
.ccollections
OrderedDict
p0
((lp1
(lp2
S'state'
p3
aI0
aa(lp4
S'distance'
p5
aF385.2626190185547
aa(lp6
S'timestamp'
p7
aF1.0362470149993896
aatp8
Rp9
.ccollections
OrderedDict
p0
((lp1
(lp2
S'state'
p3
aI0
aa(lp4
S'distance'
p5
aF385.2626190185547
aa(lp6
S'timestamp'
p7
aF1.0457110404968262
aatp8
Rp9
.ccollections
OrderedDict
p0
((lp1
(lp2
S'state'
p3
aI0
aa(lp4
S'distance'
p5
aF385.2626190185547
aa(lp6
S'timestamp'
p7
aF1.0461621284484863
aatp8
Rp9
.ccollections
OrderedDict
p0
((lp1
(lp2
S'state'
p3
aI0
aa(lp4
S'distance'
p5
aF385.2626190185547
aa(lp6
S'timestamp'
p7
aF1.0557031631469727
aatp8
Rp9
.ccollections
OrderedDict
p0
((lp1
(lp2
S'state'
p3
aI0
aa(lp4
S'distance'
p5
aF385.2626190185547
aa(lp6
S'timestamp'
p7
aF1.056339979171753
aatp8
Rp9
.ccollections
OrderedDict
p0
((lp1
(lp2
S'state'
p3
aI0
aa(lp4
S'distance'
p5
aF385.2626190185547
aa(lp6
S'timestamp'
p7
aF1.065782070159912
aatp8
Rp9
.ccollections
OrderedDict
p0
((lp1
(lp2
S'state'
p3
aI0
aa(lp4
S'distance'
p5
aF385.2626190185547
aa(lp6
S'timestamp'
p7
aF1.0662720203399658
aatp8
Rp9
.ccollections
OrderedDict
p0
((lp1
(lp2
S'state'
p3
aI0
aa(lp4
S'distance'
p5
aF385.2626190185547
aa(lp6
S'timestamp'
p7
aF1.0757319927215576
aatp8
Rp9
.ccollections
OrderedDict
p0
((lp1
(lp2
S'state'
p3
aI0
aa(lp4
S'distance'
p5
aF385.2626190185547
aa(lp6
S'timestamp'
p7
aF1.085787057876587
aatp8
Rp9
.ccollections
OrderedDict
p0
((lp1
(lp2
S'state'
p3
aI0
aa(lp4
S'distance'
p5
aF385.2626190185547
aa(lp6
S'timestamp'
p7
aF1.0958759784698486
aatp8
Rp9
.ccollections
OrderedDict
p0
((lp1
(lp2
S'state'
p3
aI0
aa(lp4
S'distance'
p5
aF385.2626190185547
aa(lp6
S'timestamp'
p7
aF1.105842113494873
aatp8
Rp9
.ccollections
OrderedDict
p0
((lp1
(lp2
S'state'
p3
aI0
aa(lp4
S'distance'
p5
aF385.2626190185547
aa(lp6
S'timestamp'
p7
aF1.1059761047363281
aatp8
Rp9
.ccollections
OrderedDict
p0
((lp1
(lp2
S'state'
p3
aI0
aa(lp4
S'distance'
p5
aF385.2626190185547
aa(lp6
S'timestamp'
p7
aF1.1071531772613525
aatp8
Rp9
.ccollections
OrderedDict
p0
((lp1
(lp2
S'state'
p3
aI0
aa(lp4
S'distance'
p5
aF385.2626190185547
aa(lp6
S'timestamp'
p7
aF1.108025074005127
aatp8
Rp9
.ccollections
OrderedDict
p0
((lp1
(lp2
S'state'
p3
aI0
aa(lp4
S'distance'
p5
aF385.2626190185547
aa(lp6
S'timestamp'
p7
aF1.1158239841461182
aatp8
Rp9
.ccollections
OrderedDict
p0
((lp1
(lp2
S'state'
p3
aI0
aa(lp4
S'distance'
p5
aF385.2626190185547
aa(lp6
S'timestamp'
p7
aF1.1159889698028564
aatp8
Rp9
.ccollections
OrderedDict
p0
((lp1
(lp2
S'state'
p3
aI0
aa(lp4
S'distance'
p5
aF385.2626190185547
aa(lp6
S'timestamp'
p7
aF1.1176950931549072
aatp8
Rp9
.ccollections
OrderedDict
p0
((lp1
(lp2
S'state'
p3
aI0
aa(lp4
S'distance'
p5
aF385.2626190185547
aa(lp6
S'timestamp'
p7
aF1.1258060932159424
aatp8
Rp9
.ccollections
OrderedDict
p0
((lp1
(lp2
S'state'
p3
aI0
aa(lp4
S'distance'
p5
aF385.2626190185547
aa(lp6
S'timestamp'
p7
aF1.1261510848999023
aatp8
Rp9
.ccollections
OrderedDict
p0
((lp1
(lp2
S'state'
p3
aI0
aa(lp4
S'distance'
p5
aF385.2626190185547
aa(lp6
S'timestamp'
p7
aF1.1357951164245605
aatp8
Rp9
.ccollections
OrderedDict
p0
((lp1
(lp2
S'state'
p3
aI0
aa(lp4
S'distance'
p5
aF385.2626190185547
aa(lp6
S'timestamp'
p7
aF1.1361360549926758
aatp8
Rp9
.ccollections
OrderedDict
p0
((lp1
(lp2
S'state'
p3
aI0
aa(lp4
S'distance'
p5
aF385.2626190185547
aa(lp6
S'timestamp'
p7
aF1.145794153213501
aatp8
Rp9
.ccollections
OrderedDict
p0
((lp1
(lp2
S'state'
p3
aI0
aa(lp4
S'distance'
p5
aF385.2626190185547
aa(lp6
S'timestamp'
p7
aF1.1463000774383545
aatp8
Rp9
.ccollections
OrderedDict
p0
((lp1
(lp2
S'state'
p3
aI0
aa(lp4
S'distance'
p5
aF385.2626190185547
aa(lp6
S'timestamp'
p7
aF1.1556930541992188
aatp8
Rp9
.ccollections
OrderedDict
p0
((lp1
(lp2
S'state'
p3
aI0
aa(lp4
S'distance'
p5
aF385.2626190185547
aa(lp6
S'timestamp'
p7
aF1.156275987625122
aatp8
Rp9
.ccollections
OrderedDict
p0
((lp1
(lp2
S'state'
p3
aI0
aa(lp4
S'distance'
p5
aF385.2626190185547
aa(lp6
S'timestamp'
p7
aF1.1657791137695312
aatp8
Rp9
.ccollections
OrderedDict
p0
((lp1
(lp2
S'state'
p3
aI0
aa(lp4
S'distance'
p5
aF385.2626190185547
aa(lp6
S'timestamp'
p7
aF1.1663269996643066
aatp8
Rp9
.ccollections
OrderedDict
p0
((lp1
(lp2
S'state'
p3
aI0
aa(lp4
S'distance'
p5
aF385.2626190185547
aa(lp6
S'timestamp'
p7
aF1.1758620738983154
aatp8
Rp9
.ccollections
OrderedDict
p0
((lp1
(lp2
S'state'
p3
aI0
aa(lp4
S'distance'
p5
aF385.2626190185547
aa(lp6
S'timestamp'
p7
aF1.1762840747833252
aatp8
Rp9
.ccollections
OrderedDict
p0
((lp1
(lp2
S'state'
p3
aI0
aa(lp4
S'distance'
p5
aF385.2626190185547
aa(lp6
S'timestamp'
p7
aF1.1858971118927002
aatp8
Rp9
.ccollections
OrderedDict
p0
((lp1
(lp2
S'state'
p3
aI0
aa(lp4
S'distance'
p5
aF385.2626190185547
aa(lp6
S'timestamp'
p7
aF1.1862730979919434
aatp8
Rp9
.ccollections
OrderedDict
p0
((lp1
(lp2
S'state'
p3
aI0
aa(lp4
S'distance'
p5
aF385.2626190185547
aa(lp6
S'timestamp'
p7
aF1.195829153060913
aatp8
Rp9
.ccollections
OrderedDict
p0
((lp1
(lp2
S'state'
p3
aI0
aa(lp4
S'distance'
p5
aF385.2626190185547
aa(lp6
S'timestamp'
p7
aF1.1965351104736328
aatp8
Rp9
.ccollections
OrderedDict
p0
((lp1
(lp2
S'state'
p3
aI0
aa(lp4
S'distance'
p5
aF385.2626190185547
aa(lp6
S'timestamp'
p7
aF1.2061340808868408
aatp8
Rp9
.ccollections
OrderedDict
p0
((lp1
(lp2
S'state'
p3
aI0
aa(lp4
S'distance'
p5
aF385.2626190185547
aa(lp6
S'timestamp'
p7
aF1.2067930698394775
aatp8
Rp9
.ccollections
OrderedDict
p0
((lp1
(lp2
S'state'
p3
aI0
aa(lp4
S'distance'
p5
aF385.2626190185547
aa(lp6
S'timestamp'
p7
aF1.2158219814300537
aatp8
Rp9
.ccollections
OrderedDict
p0
((lp1
(lp2
S'state'
p3
aI0
aa(lp4
S'distance'
p5
aF385.2626190185547
aa(lp6
S'timestamp'
p7
aF1.216339111328125
aatp8
Rp9
.ccollections
OrderedDict
p0
((lp1
(lp2
S'state'
p3
aI0
aa(lp4
S'distance'
p5
aF385.2626190185547
aa(lp6
S'timestamp'
p7
aF1.2258191108703613
aatp8
Rp9
.ccollections
OrderedDict
p0
((lp1
(lp2
S'state'
p3
aI0
aa(lp4
S'distance'
p5
aF385.2626190185547
aa(lp6
S'timestamp'
p7
aF1.226318120956421
aatp8
Rp9
.ccollections
OrderedDict
p0
((lp1
(lp2
S'state'
p3
aI0
aa(lp4
S'distance'
p5
aF385.2626190185547
aa(lp6
S'timestamp'
p7
aF1.2358300685882568
aatp8
Rp9
.ccollections
OrderedDict
p0
((lp1
(lp2
S'state'
p3
aI0
aa(lp4
S'distance'
p5
aF385.2626190185547
aa(lp6
S'timestamp'
p7
aF1.236659049987793
aatp8
Rp9
.ccollections
OrderedDict
p0
((lp1
(lp2
S'state'
p3
aI0
aa(lp4
S'distance'
p5
aF385.2626190185547
aa(lp6
S'timestamp'
p7
aF1.245859146118164
aatp8
Rp9
.ccollections
OrderedDict
p0
((lp1
(lp2
S'state'
p3
aI0
aa(lp4
S'distance'
p5
aF385.2626190185547
aa(lp6
S'timestamp'
p7
aF1.2461681365966797
aatp8
Rp9
.ccollections
OrderedDict
p0
((lp1
(lp2
S'state'
p3
aI400
aa(lp4
S'distance'
p5
aF385.2626190185547
aa(lp6
S'timestamp'
p7
aF1.2558491230010986
aatp8
Rp9
.ccollections
OrderedDict
p0
((lp1
(lp2
S'state'
p3
aI400
aa(lp4
S'distance'
p5
aF385.2626190185547
aa(lp6
S'timestamp'
p7
aF1.2562110424041748
aatp8
Rp9
.ccollections
OrderedDict
p0
((lp1
(lp2
S'state'
p3
aI400
aa(lp4
S'distance'
p5
aF385.2626190185547
aa(lp6
S'timestamp'
p7
aF1.2657990455627441
aatp8
Rp9
.ccollections
OrderedDict
p0
((lp1
(lp2
S'state'
p3
aI400
aa(lp4
S'distance'
p5
aF385.2626190185547
aa(lp6
S'timestamp'
p7
aF1.2663249969482422
aatp8
Rp9
.ccollections
OrderedDict
p0
((lp1
(lp2
S'state'
p3
aI400
aa(lp4
S'distance'
p5
aF385.2626190185547
aa(lp6
S'timestamp'
p7
aF1.2758209705352783
aatp8
Rp9
.ccollections
OrderedDict
p0
((lp1
(lp2
S'state'
p3
aI400
aa(lp4
S'distance'
p5
aF385.2626190185547
aa(lp6
S'timestamp'
p7
aF1.2766790390014648
aatp8
Rp9
.ccollections
OrderedDict
p0
((lp1
(lp2
S'state'
p3
aI400
aa(lp4
S'distance'
p5
aF385.2626190185547
aa(lp6
S'timestamp'
p7
aF1.2858030796051025
aatp8
Rp9
.ccollections
OrderedDict
p0
((lp1
(lp2
S'state'
p3
aI400
aa(lp4
S'distance'
p5
aF385.2626190185547
aa(lp6
S'timestamp'
p7
aF1.2896411418914795
aatp8
Rp9
.ccollections
OrderedDict
p0
((lp1
(lp2
S'state'
p3
aI400
aa(lp4
S'distance'
p5
aF385.2626190185547
aa(lp6
S'timestamp'
p7
aF1.2958900928497314
aatp8
Rp9
.ccollections
OrderedDict
p0
((lp1
(lp2
S'state'
p3
aI400
aa(lp4
S'distance'
p5
aF385.2626190185547
aa(lp6
S'timestamp'
p7
aF1.2965691089630127
aatp8
Rp9
.ccollections
OrderedDict
p0
((lp1
(lp2
S'state'
p3
aI400
aa(lp4
S'distance'
p5
aF385.2626190185547
aa(lp6
S'timestamp'
p7
aF1.306359052658081
aatp8
Rp9
.ccollections
OrderedDict
p0
((lp1
(lp2
S'state'
p3
aI400
aa(lp4
S'distance'
p5
aF385.2626190185547
aa(lp6
S'timestamp'
p7
aF1.3065781593322754
aatp8
Rp9
.ccollections
OrderedDict
p0
((lp1
(lp2
S'state'
p3
aI400
aa(lp4
S'distance'
p5
aF385.2626190185547
aa(lp6
S'timestamp'
p7
aF1.325761079788208
aatp8
Rp9
.ccollections
OrderedDict
p0
((lp1
(lp2
S'state'
p3
aI400
aa(lp4
S'distance'
p5
aF385.2626190185547
aa(lp6
S'timestamp'
p7
aF1.3262500762939453
aatp8
Rp9
.ccollections
OrderedDict
p0
((lp1
(lp2
S'state'
p3
aI400
aa(lp4
S'distance'
p5
aF385.2626190185547
aa(lp6
S'timestamp'
p7
aF1.3270211219787598
aatp8
Rp9
.ccollections
OrderedDict
p0
((lp1
(lp2
S'state'
p3
aI400
aa(lp4
S'distance'
p5
aF385.2626190185547
aa(lp6
S'timestamp'
p7
aF1.3282670974731445
aatp8
Rp9
.ccollections
OrderedDict
p0
((lp1
(lp2
S'state'
p3
aI400
aa(lp4
S'distance'
p5
aF385.2626190185547
aa(lp6
S'timestamp'
p7
aF1.3358540534973145
aatp8
Rp9
.ccollections
OrderedDict
p0
((lp1
(lp2
S'state'
p3
aI400
aa(lp4
S'distance'
p5
aF385.2626190185547
aa(lp6
S'timestamp'
p7
aF1.3364391326904297
aatp8
Rp9
.ccollections
OrderedDict
p0
((lp1
(lp2
S'state'
p3
aI400
aa(lp4
S'distance'
p5
aF385.2626190185547
aa(lp6
S'timestamp'
p7
aF1.3458900451660156
aatp8
Rp9
.ccollections
OrderedDict
p0
((lp1
(lp2
S'state'
p3
aI400
aa(lp4
S'distance'
p5
aF385.2626190185547
aa(lp6
S'timestamp'
p7
aF1.3463521003723145
aatp8
Rp9
.ccollections
OrderedDict
p0
((lp1
(lp2
S'state'
p3
aI400
aa(lp4
S'distance'
p5
aF385.2626190185547
aa(lp6
S'timestamp'
p7
aF1.3558990955352783
aatp8
Rp9
.ccollections
OrderedDict
p0
((lp1
(lp2
S'state'
p3
aI400
aa(lp4
S'distance'
p5
aF385.2626190185547
aa(lp6
S'timestamp'
p7
aF1.3564040660858154
aatp8
Rp9
.ccollections
OrderedDict
p0
((lp1
(lp2
S'state'
p3
aI400
aa(lp4
S'distance'
p5
aF385.2626190185547
aa(lp6
S'timestamp'
p7
aF1.365705966949463
aatp8
Rp9
.ccollections
OrderedDict
p0
((lp1
(lp2
S'state'
p3
aI400
aa(lp4
S'distance'
p5
aF385.2626190185547
aa(lp6
S'timestamp'
p7
aF1.3662350177764893
aatp8
Rp9
.ccollections
OrderedDict
p0
((lp1
(lp2
S'state'
p3
aI400
aa(lp4
S'distance'
p5
aF385.2626190185547
aa(lp6
S'timestamp'
p7
aF1.3757100105285645
aatp8
Rp9
.ccollections
OrderedDict
p0
((lp1
(lp2
S'state'
p3
aI400
aa(lp4
S'distance'
p5
aF385.2626190185547
aa(lp6
S'timestamp'
p7
aF1.3762791156768799
aatp8
Rp9
.ccollections
OrderedDict
p0
((lp1
(lp2
S'state'
p3
aI400
aa(lp4
S'distance'
p5
aF385.2626190185547
aa(lp6
S'timestamp'
p7
aF1.3859989643096924
aatp8
Rp9
.ccollections
OrderedDict
p0
((lp1
(lp2
S'state'
p3
aI400
aa(lp4
S'distance'
p5
aF385.2626190185547
aa(lp6
S'timestamp'
p7
aF1.386263132095337
aatp8
Rp9
.ccollections
OrderedDict
p0
((lp1
(lp2
S'state'
p3
aI400
aa(lp4
S'distance'
p5
aF385.2626190185547
aa(lp6
S'timestamp'
p7
aF1.396028995513916
aatp8
Rp9
.ccollections
OrderedDict
p0
((lp1
(lp2
S'state'
p3
aI400
aa(lp4
S'distance'
p5
aF385.2626190185547
aa(lp6
S'timestamp'
p7
aF1.3963100910186768
aatp8
Rp9
.ccollections
OrderedDict
p0
((lp1
(lp2
S'state'
p3
aI400
aa(lp4
S'distance'
p5
aF385.2626190185547
aa(lp6
S'timestamp'
p7
aF1.4058899879455566
aatp8
Rp9
.ccollections
OrderedDict
p0
((lp1
(lp2
S'state'
p3
aI400
aa(lp4
S'distance'
p5
aF385.2626190185547
aa(lp6
S'timestamp'
p7
aF1.4063479900360107
aatp8
Rp9
.ccollections
OrderedDict
p0
((lp1
(lp2
S'state'
p3
aI400
aa(lp4
S'distance'
p5
aF385.2626190185547
aa(lp6
S'timestamp'
p7
aF1.415930986404419
aatp8
Rp9
.ccollections
OrderedDict
p0
((lp1
(lp2
S'state'
p3
aI400
aa(lp4
S'distance'
p5
aF385.2626190185547
aa(lp6
S'timestamp'
p7
aF1.4162521362304688
aatp8
Rp9
.ccollections
OrderedDict
p0
((lp1
(lp2
S'state'
p3
aI400
aa(lp4
S'distance'
p5
aF385.2626190185547
aa(lp6
S'timestamp'
p7
aF1.4258830547332764
aatp8
Rp9
.ccollections
OrderedDict
p0
((lp1
(lp2
S'state'
p3
aI400
aa(lp4
S'distance'
p5
aF385.2626190185547
aa(lp6
S'timestamp'
p7
aF1.4262440204620361
aatp8
Rp9
.ccollections
OrderedDict
p0
((lp1
(lp2
S'state'
p3
aI400
aa(lp4
S'distance'
p5
aF385.2626190185547
aa(lp6
S'timestamp'
p7
aF1.4356420040130615
aatp8
Rp9
.ccollections
OrderedDict
p0
((lp1
(lp2
S'state'
p3
aI400
aa(lp4
S'distance'
p5
aF385.2626190185547
aa(lp6
S'timestamp'
p7
aF1.4364471435546875
aatp8
Rp9
.ccollections
OrderedDict
p0
((lp1
(lp2
S'state'
p3
aI400
aa(lp4
S'distance'
p5
aF385.2626190185547
aa(lp6
S'timestamp'
p7
aF1.4458630084991455
aatp8
Rp9
.ccollections
OrderedDict
p0
((lp1
(lp2
S'state'
p3
aI400
aa(lp4
S'distance'
p5
aF385.2626190185547
aa(lp6
S'timestamp'
p7
aF1.4561669826507568
aatp8
Rp9
.ccollections
OrderedDict
p0
((lp1
(lp2
S'state'
p3
aI400
aa(lp4
S'distance'
p5
aF385.2626190185547
aa(lp6
S'timestamp'
p7
aF1.456524133682251
aatp8
Rp9
.ccollections
OrderedDict
p0
((lp1
(lp2
S'state'
p3
aI400
aa(lp4
S'distance'
p5
aF385.2626190185547
aa(lp6
S'timestamp'
p7
aF1.4573681354522705
aatp8
Rp9
.ccollections
OrderedDict
p0
((lp1
(lp2
S'state'
p3
aI400
aa(lp4
S'distance'
p5
aF385.2626190185547
aa(lp6
S'timestamp'
p7
aF1.4660069942474365
aatp8
Rp9
.ccollections
OrderedDict
p0
((lp1
(lp2
S'state'
p3
aI400
aa(lp4
S'distance'
p5
aF385.2626190185547
aa(lp6
S'timestamp'
p7
aF1.466252088546753
aatp8
Rp9
.ccollections
OrderedDict
p0
((lp1
(lp2
S'state'
p3
aI400
aa(lp4
S'distance'
p5
aF385.2626190185547
aa(lp6
S'timestamp'
p7
aF1.4758009910583496
aatp8
Rp9
.ccollections
OrderedDict
p0
((lp1
(lp2
S'state'
p3
aI400
aa(lp4
S'distance'
p5
aF385.2626190185547
aa(lp6
S'timestamp'
p7
aF1.476417064666748
aatp8
Rp9
.ccollections
OrderedDict
p0
((lp1
(lp2
S'state'
p3
aI400
aa(lp4
S'distance'
p5
aF385.2626190185547
aa(lp6
S'timestamp'
p7
aF1.4858710765838623
aatp8
Rp9
.ccollections
OrderedDict
p0
((lp1
(lp2
S'state'
p3
aI400
aa(lp4
S'distance'
p5
aF385.2626190185547
aa(lp6
S'timestamp'
p7
aF1.4863910675048828
aatp8
Rp9
.ccollections
OrderedDict
p0
((lp1
(lp2
S'state'
p3
aI400
aa(lp4
S'distance'
p5
aF385.2626190185547
aa(lp6
S'timestamp'
p7
aF1.495980978012085
aatp8
Rp9
.ccollections
OrderedDict
p0
((lp1
(lp2
S'state'
p3
aI400
aa(lp4
S'distance'
p5
aF385.2626190185547
aa(lp6
S'timestamp'
p7
aF1.4979500770568848
aatp8
Rp9
.ccollections
OrderedDict
p0
((lp1
(lp2
S'state'
p3
aI400
aa(lp4
S'distance'
p5
aF385.2626190185547
aa(lp6
S'timestamp'
p7
aF1.5061399936676025
aatp8
Rp9
.ccollections
OrderedDict
p0
((lp1
(lp2
S'state'
p3
aI400
aa(lp4
S'distance'
p5
aF385.2626190185547
aa(lp6
S'timestamp'
p7
aF1.5062241554260254
aatp8
Rp9
.ccollections
OrderedDict
p0
((lp1
(lp2
S'state'
p3
aI400
aa(lp4
S'distance'
p5
aF385.2626190185547
aa(lp6
S'timestamp'
p7
aF1.5162429809570312
aatp8
Rp9
.ccollections
OrderedDict
p0
((lp1
(lp2
S'state'
p3
aI400
aa(lp4
S'distance'
p5
aF385.2626190185547
aa(lp6
S'timestamp'
p7
aF1.5163750648498535
aatp8
Rp9
.ccollections
OrderedDict
p0
((lp1
(lp2
S'state'
p3
aI400
aa(lp4
S'distance'
p5
aF385.2626190185547
aa(lp6
S'timestamp'
p7
aF1.5259079933166504
aatp8
Rp9
.ccollections
OrderedDict
p0
((lp1
(lp2
S'state'
p3
aI400
aa(lp4
S'distance'
p5
aF385.2626190185547
aa(lp6
S'timestamp'
p7
aF1.526388168334961
aatp8
Rp9
.ccollections
OrderedDict
p0
((lp1
(lp2
S'state'
p3
aI400
aa(lp4
S'distance'
p5
aF385.2626190185547
aa(lp6
S'timestamp'
p7
aF1.535905122756958
aatp8
Rp9
.ccollections
OrderedDict
p0
((lp1
(lp2
S'state'
p3
aI400
aa(lp4
S'distance'
p5
aF385.2626190185547
aa(lp6
S'timestamp'
p7
aF1.5363211631774902
aatp8
Rp9
.ccollections
OrderedDict
p0
((lp1
(lp2
S'state'
p3
aI400
aa(lp4
S'distance'
p5
aF385.2626190185547
aa(lp6
S'timestamp'
p7
aF1.545943021774292
aatp8
Rp9
.ccollections
OrderedDict
p0
((lp1
(lp2
S'state'
p3
aI400
aa(lp4
S'distance'
p5
aF385.2626190185547
aa(lp6
S'timestamp'
p7
aF1.546355962753296
aatp8
Rp9
.ccollections
OrderedDict
p0
((lp1
(lp2
S'state'
p3
aI400
aa(lp4
S'distance'
p5
aF385.2626190185547
aa(lp6
S'timestamp'
p7
aF1.555953025817871
aatp8
Rp9
.ccollections
OrderedDict
p0
((lp1
(lp2
S'state'
p3
aI400
aa(lp4
S'distance'
p5
aF385.2626190185547
aa(lp6
S'timestamp'
p7
aF1.5563321113586426
aatp8
Rp9
.ccollections
OrderedDict
p0
((lp1
(lp2
S'state'
p3
aI400
aa(lp4
S'distance'
p5
aF385.2626190185547
aa(lp6
S'timestamp'
p7
aF1.5663061141967773
aatp8
Rp9
.ccollections
OrderedDict
p0
((lp1
(lp2
S'state'
p3
aI400
aa(lp4
S'distance'
p5
aF385.2626190185547
aa(lp6
S'timestamp'
p7
aF1.566612958908081
aatp8
Rp9
.ccollections
OrderedDict
p0
((lp1
(lp2
S'state'
p3
aI400
aa(lp4
S'distance'
p5
aF385.2626190185547
aa(lp6
S'timestamp'
p7
aF1.586225986480713
aatp8
Rp9
.ccollections
OrderedDict
p0
((lp1
(lp2
S'state'
p3
aI400
aa(lp4
S'distance'
p5
aF385.2626190185547
aa(lp6
S'timestamp'
p7
aF1.5874481201171875
aatp8
Rp9
.ccollections
OrderedDict
p0
((lp1
(lp2
S'state'
p3
aI400
aa(lp4
S'distance'
p5
aF385.2626190185547
aa(lp6
S'timestamp'
p7
aF1.5885851383209229
aatp8
Rp9
.ccollections
OrderedDict
p0
((lp1
(lp2
S'state'
p3
aI400
aa(lp4
S'distance'
p5
aF385.2626190185547
aa(lp6
S'timestamp'
p7
aF1.58925199508667
aatp8
Rp9
.ccollections
OrderedDict
p0
((lp1
(lp2
S'state'
p3
aI400
aa(lp4
S'distance'
p5
aF385.2626190185547
aa(lp6
S'timestamp'
p7
aF1.596034049987793
aatp8
Rp9
.ccollections
OrderedDict
p0
((lp1
(lp2
S'state'
p3
aI400
aa(lp4
S'distance'
p5
aF385.2626190185547
aa(lp6
S'timestamp'
p7
aF1.5963051319122314
aatp8
Rp9
.ccollections
OrderedDict
p0
((lp1
(lp2
S'state'
p3
aI400
aa(lp4
S'distance'
p5
aF385.2626190185547
aa(lp6
S'timestamp'
p7
aF1.6057920455932617
aatp8
Rp9
.ccollections
OrderedDict
p0
((lp1
(lp2
S'state'
p3
aI400
aa(lp4
S'distance'
p5
aF385.2626190185547
aa(lp6
S'timestamp'
p7
aF1.6063151359558105
aatp8
Rp9
.ccollections
OrderedDict
p0
((lp1
(lp2
S'state'
p3
aI400
aa(lp4
S'distance'
p5
aF385.2626190185547
aa(lp6
S'timestamp'
p7
aF1.6161010265350342
aatp8
Rp9
.ccollections
OrderedDict
p0
((lp1
(lp2
S'state'
p3
aI400
aa(lp4
S'distance'
p5
aF385.2626190185547
aa(lp6
S'timestamp'
p7
aF1.6162660121917725
aatp8
Rp9
.ccollections
OrderedDict
p0
((lp1
(lp2
S'state'
p3
aI400
aa(lp4
S'distance'
p5
aF385.2626190185547
aa(lp6
S'timestamp'
p7
aF1.6259441375732422
aatp8
Rp9
.ccollections
OrderedDict
p0
((lp1
(lp2
S'state'
p3
aI400
aa(lp4
S'distance'
p5
aF385.2626190185547
aa(lp6
S'timestamp'
p7
aF1.6264729499816895
aatp8
Rp9
.ccollections
OrderedDict
p0
((lp1
(lp2
S'state'
p3
aI400
aa(lp4
S'distance'
p5
aF385.2626190185547
aa(lp6
S'timestamp'
p7
aF1.6357700824737549
aatp8
Rp9
.ccollections
OrderedDict
p0
((lp1
(lp2
S'state'
p3
aI400
aa(lp4
S'distance'
p5
aF385.2626190185547
aa(lp6
S'timestamp'
p7
aF1.6362979412078857
aatp8
Rp9
.ccollections
OrderedDict
p0
((lp1
(lp2
S'state'
p3
aI400
aa(lp4
S'distance'
p5
aF385.2626190185547
aa(lp6
S'timestamp'
p7
aF1.6559851169586182
aatp8
Rp9
.ccollections
OrderedDict
p0
((lp1
(lp2
S'state'
p3
aI400
aa(lp4
S'distance'
p5
aF385.2626190185547
aa(lp6
S'timestamp'
p7
aF1.6563899517059326
aatp8
Rp9
.ccollections
OrderedDict
p0
((lp1
(lp2
S'state'
p3
aI400
aa(lp4
S'distance'
p5
aF385.2626190185547
aa(lp6
S'timestamp'
p7
aF1.6575541496276855
aatp8
Rp9
.ccollections
OrderedDict
p0
((lp1
(lp2
S'state'
p3
aI400
aa(lp4
S'distance'
p5
aF385.2626190185547
aa(lp6
S'timestamp'
p7
aF1.6589159965515137
aatp8
Rp9
.ccollections
OrderedDict
p0
((lp1
(lp2
S'state'
p3
aI400
aa(lp4
S'distance'
p5
aF385.2626190185547
aa(lp6
S'timestamp'
p7
aF1.6659109592437744
aatp8
Rp9
.ccollections
OrderedDict
p0
((lp1
(lp2
S'state'
p3
aI400
aa(lp4
S'distance'
p5
aF385.2626190185547
aa(lp6
S'timestamp'
p7
aF1.6663141250610352
aatp8
Rp9
.ccollections
OrderedDict
p0
((lp1
(lp2
S'state'
p3
aI0
aa(lp4
S'distance'
p5
aF385.2626190185547
aa(lp6
S'timestamp'
p7
aF1.6760201454162598
aatp8
Rp9
.ccollections
OrderedDict
p0
((lp1
(lp2
S'state'
p3
aI0
aa(lp4
S'distance'
p5
aF277.59112548828125
aa(lp6
S'timestamp'
p7
aF2.2877769470214844
aatp8
Rp9
.ccollections
OrderedDict
p0
((lp1
(lp2
S'state'
p3
aI0
aa(lp4
S'distance'
p5
aF277.59112548828125
aa(lp6
S'timestamp'
p7
aF2.288114070892334
aatp8
Rp9
.ccollections
OrderedDict
p0
((lp1
(lp2
S'state'
p3
aI0
aa(lp4
S'distance'
p5
aF277.59112548828125
aa(lp6
S'timestamp'
p7
aF2.2959420680999756
aatp8
Rp9
.ccollections
OrderedDict
p0
((lp1
(lp2
S'state'
p3
aI0
aa(lp4
S'distance'
p5
aF277.59112548828125
aa(lp6
S'timestamp'
p7
aF2.296761989593506
aatp8
Rp9
.ccollections
OrderedDict
p0
((lp1
(lp2
S'state'
p3
aI0
aa(lp4
S'distance'
p5
aF277.59112548828125
aa(lp6
S'timestamp'
p7
aF2.3060719966888428
aatp8
Rp9
.ccollections
OrderedDict
p0
((lp1
(lp2
S'state'
p3
aI0
aa(lp4
S'distance'
p5
aF277.59112548828125
aa(lp6
S'timestamp'
p7
aF2.306839942932129
aatp8
Rp9
.ccollections
OrderedDict
p0
((lp1
(lp2
S'state'
p3
aI0
aa(lp4
S'distance'
p5
aF277.59112548828125
aa(lp6
S'timestamp'
p7
aF2.3161511421203613
aatp8
Rp9
.ccollections
OrderedDict
p0
((lp1
(lp2
S'state'
p3
aI0
aa(lp4
S'distance'
p5
aF277.59112548828125
aa(lp6
S'timestamp'
p7
aF2.316586971282959
aatp8
Rp9
.ccollections
OrderedDict
p0
((lp1
(lp2
S'state'
p3
aI0
aa(lp4
S'distance'
p5
aF277.59112548828125
aa(lp6
S'timestamp'
p7
aF2.3362581729888916
aatp8
Rp9
.ccollections
OrderedDict
p0
((lp1
(lp2
S'state'
p3
aI0
aa(lp4
S'distance'
p5
aF277.59112548828125
aa(lp6
S'timestamp'
p7
aF2.3363749980926514
aatp8
Rp9
.ccollections
OrderedDict
p0
((lp1
(lp2
S'state'
p3
aI0
aa(lp4
S'distance'
p5
aF277.59112548828125
aa(lp6
S'timestamp'
p7
aF2.3379580974578857
aatp8
Rp9
.ccollections
OrderedDict
p0
((lp1
(lp2
S'state'
p3
aI0
aa(lp4
S'distance'
p5
aF277.59112548828125
aa(lp6
S'timestamp'
p7
aF2.338253974914551
aatp8
Rp9
.ccollections
OrderedDict
p0
((lp1
(lp2
S'state'
p3
aI0
aa(lp4
S'distance'
p5
aF277.59112548828125
aa(lp6
S'timestamp'
p7
aF2.3462131023406982
aatp8
Rp9
.ccollections
OrderedDict
p0
((lp1
(lp2
S'state'
p3
aI400
aa(lp4
S'distance'
p5
aF277.59112548828125
aa(lp6
S'timestamp'
p7
aF2.3465640544891357
aatp8
Rp9
.ccollections
OrderedDict
p0
((lp1
(lp2
S'state'
p3
aI400
aa(lp4
S'distance'
p5
aF277.59112548828125
aa(lp6
S'timestamp'
p7
aF2.3562779426574707
aatp8
Rp9
.ccollections
OrderedDict
p0
((lp1
(lp2
S'state'
p3
aI400
aa(lp4
S'distance'
p5
aF277.59112548828125
aa(lp6
S'timestamp'
p7
aF2.3564059734344482
aatp8
Rp9
.ccollections
OrderedDict
p0
((lp1
(lp2
S'state'
p3
aI400
aa(lp4
S'distance'
p5
aF277.59112548828125
aa(lp6
S'timestamp'
p7
aF2.3670051097869873
aatp8
Rp9
.ccollections
OrderedDict
p0
((lp1
(lp2
S'state'
p3
aI400
aa(lp4
S'distance'
p5
aF277.59112548828125
aa(lp6
S'timestamp'
p7
aF2.3673219680786133
aatp8
Rp9
.ccollections
OrderedDict
p0
((lp1
(lp2
S'state'
p3
aI400
aa(lp4
S'distance'
p5
aF277.59112548828125
aa(lp6
S'timestamp'
p7
aF2.3862531185150146
aatp8
Rp9
.ccollections
OrderedDict
p0
((lp1
(lp2
S'state'
p3
aI400
aa(lp4
S'distance'
p5
aF277.59112548828125
aa(lp6
S'timestamp'
p7
aF2.3866071701049805
aatp8
Rp9
.ccollections
OrderedDict
p0
((lp1
(lp2
S'state'
p3
aI400
aa(lp4
S'distance'
p5
aF277.59112548828125
aa(lp6
S'timestamp'
p7
aF2.3963890075683594
aatp8
Rp9
.ccollections
OrderedDict
p0
((lp1
(lp2
S'state'
p3
aI400
aa(lp4
S'distance'
p5
aF277.59112548828125
aa(lp6
S'timestamp'
p7
aF2.3972179889678955
aatp8
Rp9
.ccollections
OrderedDict
p0
((lp1
(lp2
S'state'
p3
aI400
aa(lp4
S'distance'
p5
aF277.59112548828125
aa(lp6
S'timestamp'
p7
aF2.398745059967041
aatp8
Rp9
.ccollections
OrderedDict
p0
((lp1
(lp2
S'state'
p3
aI400
aa(lp4
S'distance'
p5
aF277.59112548828125
aa(lp6
S'timestamp'
p7
aF2.400279998779297
aatp8
Rp9
.ccollections
OrderedDict
p0
((lp1
(lp2
S'state'
p3
aI400
aa(lp4
S'distance'
p5
aF277.59112548828125
aa(lp6
S'timestamp'
p7
aF2.4062750339508057
aatp8
Rp9
.ccollections
OrderedDict
p0
((lp1
(lp2
S'state'
p3
aI400
aa(lp4
S'distance'
p5
aF277.59112548828125
aa(lp6
S'timestamp'
p7
aF2.4066271781921387
aatp8
Rp9
.ccollections
OrderedDict
p0
((lp1
(lp2
S'state'
p3
aI400
aa(lp4
S'distance'
p5
aF277.59112548828125
aa(lp6
S'timestamp'
p7
aF2.4164440631866455
aatp8
Rp9
.ccollections
OrderedDict
p0
((lp1
(lp2
S'state'
p3
aI400
aa(lp4
S'distance'
p5
aF277.59112548828125
aa(lp6
S'timestamp'
p7
aF2.4166200160980225
aatp8
Rp9
.ccollections
OrderedDict
p0
((lp1
(lp2
S'state'
p3
aI400
aa(lp4
S'distance'
p5
aF277.59112548828125
aa(lp6
S'timestamp'
p7
aF2.4264490604400635
aatp8
Rp9
.ccollections
OrderedDict
p0
((lp1
(lp2
S'state'
p3
aI400
aa(lp4
S'distance'
p5
aF277.59112548828125
aa(lp6
S'timestamp'
p7
aF2.4267001152038574
aatp8
Rp9
.ccollections
OrderedDict
p0
((lp1
(lp2
S'state'
p3
aI400
aa(lp4
S'distance'
p5
aF277.59112548828125
aa(lp6
S'timestamp'
p7
aF2.4359610080718994
aatp8
Rp9
.ccollections
OrderedDict
p0
((lp1
(lp2
S'state'
p3
aI400
aa(lp4
S'distance'
p5
aF277.59112548828125
aa(lp6
S'timestamp'
p7
aF2.436445951461792
aatp8
Rp9
.ccollections
OrderedDict
p0
((lp1
(lp2
S'state'
p3
aI400
aa(lp4
S'distance'
p5
aF277.59112548828125
aa(lp6
S'timestamp'
p7
aF2.446135997772217
aatp8
Rp9
.ccollections
OrderedDict
p0
((lp1
(lp2
S'state'
p3
aI400
aa(lp4
S'distance'
p5
aF277.59112548828125
aa(lp6
S'timestamp'
p7
aF2.446606159210205
aatp8
Rp9
.ccollections
OrderedDict
p0
((lp1
(lp2
S'state'
p3
aI400
aa(lp4
S'distance'
p5
aF277.59112548828125
aa(lp6
S'timestamp'
p7
aF2.4561140537261963
aatp8
Rp9
.ccollections
OrderedDict
p0
((lp1
(lp2
S'state'
p3
aI400
aa(lp4
S'distance'
p5
aF277.59112548828125
aa(lp6
S'timestamp'
p7
aF2.4566211700439453
aatp8
Rp9
.ccollections
OrderedDict
p0
((lp1
(lp2
S'state'
p3
aI400
aa(lp4
S'distance'
p5
aF277.59112548828125
aa(lp6
S'timestamp'
p7
aF2.468471050262451
aatp8
Rp9
.ccollections
OrderedDict
p0
((lp1
(lp2
S'state'
p3
aI400
aa(lp4
S'distance'
p5
aF277.59112548828125
aa(lp6
S'timestamp'
p7
aF2.4686150550842285
aatp8
Rp9
.ccollections
OrderedDict
p0
((lp1
(lp2
S'state'
p3
aI400
aa(lp4
S'distance'
p5
aF277.59112548828125
aa(lp6
S'timestamp'
p7
aF2.47632098197937
aatp8
Rp9
.ccollections
OrderedDict
p0
((lp1
(lp2
S'state'
p3
aI400
aa(lp4
S'distance'
p5
aF277.59112548828125
aa(lp6
S'timestamp'
p7
aF2.4764561653137207
aatp8
Rp9
.ccollections
OrderedDict
p0
((lp1
(lp2
S'state'
p3
aI400
aa(lp4
S'distance'
p5
aF277.59112548828125
aa(lp6
S'timestamp'
p7
aF2.485975980758667
aatp8
Rp9
.ccollections
OrderedDict
p0
((lp1
(lp2
S'state'
p3
aI400
aa(lp4
S'distance'
p5
aF277.59112548828125
aa(lp6
S'timestamp'
p7
aF2.4866230487823486
aatp8
Rp9
.ccollections
OrderedDict
p0
((lp1
(lp2
S'state'
p3
aI400
aa(lp4
S'distance'
p5
aF277.59112548828125
aa(lp6
S'timestamp'
p7
aF2.496122121810913
aatp8
Rp9
.ccollections
OrderedDict
p0
((lp1
(lp2
S'state'
p3
aI400
aa(lp4
S'distance'
p5
aF277.59112548828125
aa(lp6
S'timestamp'
p7
aF2.4966371059417725
aatp8
Rp9
.ccollections
OrderedDict
p0
((lp1
(lp2
S'state'
p3
aI400
aa(lp4
S'distance'
p5
aF277.59112548828125
aa(lp6
S'timestamp'
p7
aF2.5062241554260254
aatp8
Rp9
.ccollections
OrderedDict
p0
((lp1
(lp2
S'state'
p3
aI400
aa(lp4
S'distance'
p5
aF277.59112548828125
aa(lp6
S'timestamp'
p7
aF2.5065150260925293
aatp8
Rp9
.ccollections
OrderedDict
p0
((lp1
(lp2
S'state'
p3
aI400
aa(lp4
S'distance'
p5
aF277.59112548828125
aa(lp6
S'timestamp'
p7
aF2.5162971019744873
aatp8
Rp9
.ccollections
OrderedDict
p0
((lp1
(lp2
S'state'
p3
aI400
aa(lp4
S'distance'
p5
aF277.59112548828125
aa(lp6
S'timestamp'
p7
aF2.5164411067962646
aatp8
Rp9
.ccollections
OrderedDict
p0
((lp1
(lp2
S'state'
p3
aI400
aa(lp4
S'distance'
p5
aF277.59112548828125
aa(lp6
S'timestamp'
p7
aF2.5260050296783447
aatp8
Rp9
.ccollections
OrderedDict
p0
((lp1
(lp2
S'state'
p3
aI400
aa(lp4
S'distance'
p5
aF277.59112548828125
aa(lp6
S'timestamp'
p7
aF2.526604175567627
aatp8
Rp9
.ccollections
OrderedDict
p0
((lp1
(lp2
S'state'
p3
aI400
aa(lp4
S'distance'
p5
aF277.59112548828125
aa(lp6
S'timestamp'
p7
aF2.536144971847534
aatp8
Rp9
.ccollections
OrderedDict
p0
((lp1
(lp2
S'state'
p3
aI400
aa(lp4
S'distance'
p5
aF277.59112548828125
aa(lp6
S'timestamp'
p7
aF2.5366690158843994
aatp8
Rp9
.ccollections
OrderedDict
p0
((lp1
(lp2
S'state'
p3
aI400
aa(lp4
S'distance'
p5
aF277.59112548828125
aa(lp6
S'timestamp'
p7
aF2.5461411476135254
aatp8
Rp9
.ccollections
OrderedDict
p0
((lp1
(lp2
S'state'
p3
aI400
aa(lp4
S'distance'
p5
aF277.59112548828125
aa(lp6
S'timestamp'
p7
aF2.546635150909424
aatp8
Rp9
.ccollections
OrderedDict
p0
((lp1
(lp2
S'state'
p3
aI400
aa(lp4
S'distance'
p5
aF277.59112548828125
aa(lp6
S'timestamp'
p7
aF2.556079149246216
aatp8
Rp9
.ccollections
OrderedDict
p0
((lp1
(lp2
S'state'
p3
aI400
aa(lp4
S'distance'
p5
aF277.59112548828125
aa(lp6
S'timestamp'
p7
aF2.5760631561279297
aatp8
Rp9
.ccollections
OrderedDict
p0
((lp1
(lp2
S'state'
p3
aI400
aa(lp4
S'distance'
p5
aF277.59112548828125
aa(lp6
S'timestamp'
p7
aF2.586332082748413
aatp8
Rp9
.ccollections
OrderedDict
p0
((lp1
(lp2
S'state'
p3
aI400
aa(lp4
S'distance'
p5
aF277.59112548828125
aa(lp6
S'timestamp'
p7
aF2.586411952972412
aatp8
Rp9
.ccollections
OrderedDict
p0
((lp1
(lp2
S'state'
p3
aI400
aa(lp4
S'distance'
p5
aF277.59112548828125
aa(lp6
S'timestamp'
p7
aF2.587536096572876
aatp8
Rp9
.ccollections
OrderedDict
p0
((lp1
(lp2
S'state'
p3
aI400
aa(lp4
S'distance'
p5
aF277.59112548828125
aa(lp6
S'timestamp'
p7
aF2.5877530574798584
aatp8
Rp9
.ccollections
OrderedDict
p0
((lp1
(lp2
S'state'
p3
aI400
aa(lp4
S'distance'
p5
aF277.59112548828125
aa(lp6
S'timestamp'
p7
aF2.5960710048675537
aatp8
Rp9
.ccollections
OrderedDict
p0
((lp1
(lp2
S'state'
p3
aI400
aa(lp4
S'distance'
p5
aF277.59112548828125
aa(lp6
S'timestamp'
p7
aF2.5965919494628906
aatp8
Rp9
.ccollections
OrderedDict
p0
((lp1
(lp2
S'state'
p3
aI400
aa(lp4
S'distance'
p5
aF277.59112548828125
aa(lp6
S'timestamp'
p7
aF2.5972371101379395
aatp8
Rp9
.ccollections
OrderedDict
p0
((lp1
(lp2
S'state'
p3
aI400
aa(lp4
S'distance'
p5
aF277.59112548828125
aa(lp6
S'timestamp'
p7
aF2.5983030796051025
aatp8
Rp9
.ccollections
OrderedDict
p0
((lp1
(lp2
S'state'
p3
aI400
aa(lp4
S'distance'
p5
aF277.59112548828125
aa(lp6
S'timestamp'
p7
aF2.6061911582946777
aatp8
Rp9
.ccollections
OrderedDict
p0
((lp1
(lp2
S'state'
p3
aI400
aa(lp4
S'distance'
p5
aF277.59112548828125
aa(lp6
S'timestamp'
p7
aF2.606642007827759
aatp8
Rp9
.ccollections
OrderedDict
p0
((lp1
(lp2
S'state'
p3
aI400
aa(lp4
S'distance'
p5
aF277.59112548828125
aa(lp6
S'timestamp'
p7
aF2.6161351203918457
aatp8
Rp9
.ccollections
OrderedDict
p0
((lp1
(lp2
S'state'
p3
aI400
aa(lp4
S'distance'
p5
aF277.59112548828125
aa(lp6
S'timestamp'
p7
aF2.6167781352996826
aatp8
Rp9
.ccollections
OrderedDict
p0
((lp1
(lp2
S'state'
p3
aI400
aa(lp4
S'distance'
p5
aF277.59112548828125
aa(lp6
S'timestamp'
p7
aF2.62609601020813
aatp8
Rp9
.ccollections
OrderedDict
p0
((lp1
(lp2
S'state'
p3
aI400
aa(lp4
S'distance'
p5
aF277.59112548828125
aa(lp6
S'timestamp'
p7
aF2.6267340183258057
aatp8
Rp9
.ccollections
OrderedDict
p0
((lp1
(lp2
S'state'
p3
aI400
aa(lp4
S'distance'
p5
aF277.59112548828125
aa(lp6
S'timestamp'
p7
aF2.636439085006714
aatp8
Rp9
.ccollections
OrderedDict
p0
((lp1
(lp2
S'state'
p3
aI400
aa(lp4
S'distance'
p5
aF277.59112548828125
aa(lp6
S'timestamp'
p7
aF2.6365511417388916
aatp8
Rp9
.ccollections
OrderedDict
p0
((lp1
(lp2
S'state'
p3
aI400
aa(lp4
S'distance'
p5
aF277.59112548828125
aa(lp6
S'timestamp'
p7
aF2.646346092224121
aatp8
Rp9
.ccollections
OrderedDict
p0
((lp1
(lp2
S'state'
p3
aI400
aa(lp4
S'distance'
p5
aF277.59112548828125
aa(lp6
S'timestamp'
p7
aF2.646480083465576
aatp8
Rp9
.ccollections
OrderedDict
p0
((lp1
(lp2
S'state'
p3
aI400
aa(lp4
S'distance'
p5
aF277.59112548828125
aa(lp6
S'timestamp'
p7
aF2.6562869548797607
aatp8
Rp9
.ccollections
OrderedDict
p0
((lp1
(lp2
S'state'
p3
aI400
aa(lp4
S'distance'
p5
aF277.59112548828125
aa(lp6
S'timestamp'
p7
aF2.656553030014038
aatp8
Rp9
.ccollections
OrderedDict
p0
((lp1
(lp2
S'state'
p3
aI400
aa(lp4
S'distance'
p5
aF277.59112548828125
aa(lp6
S'timestamp'
p7
aF2.6663150787353516
aatp8
Rp9
.ccollections
OrderedDict
p0
((lp1
(lp2
S'state'
p3
aI400
aa(lp4
S'distance'
p5
aF277.59112548828125
aa(lp6
S'timestamp'
p7
aF2.6665501594543457
aatp8
Rp9
.ccollections
OrderedDict
p0
((lp1
(lp2
S'state'
p3
aI400
aa(lp4
S'distance'
p5
aF277.59112548828125
aa(lp6
S'timestamp'
p7
aF2.6763370037078857
aatp8
Rp9
.ccollections
OrderedDict
p0
((lp1
(lp2
S'state'
p3
aI400
aa(lp4
S'distance'
p5
aF277.59112548828125
aa(lp6
S'timestamp'
p7
aF2.676483154296875
aatp8
Rp9
.ccollections
OrderedDict
p0
((lp1
(lp2
S'state'
p3
aI400
aa(lp4
S'distance'
p5
aF277.59112548828125
aa(lp6
S'timestamp'
p7
aF2.6860220432281494
aatp8
Rp9
.ccollections
OrderedDict
p0
((lp1
(lp2
S'state'
p3
aI400
aa(lp4
S'distance'
p5
aF277.59112548828125
aa(lp6
S'timestamp'
p7
aF2.686582088470459
aatp8
Rp9
.ccollections
OrderedDict
p0
((lp1
(lp2
S'state'
p3
aI400
aa(lp4
S'distance'
p5
aF277.59112548828125
aa(lp6
S'timestamp'
p7
aF2.6961710453033447
aatp8
Rp9
.ccollections
OrderedDict
p0
((lp1
(lp2
S'state'
p3
aI400
aa(lp4
S'distance'
p5
aF277.59112548828125
aa(lp6
S'timestamp'
p7
aF2.696658134460449
aatp8
Rp9
.ccollections
OrderedDict
p0
((lp1
(lp2
S'state'
p3
aI400
aa(lp4
S'distance'
p5
aF277.59112548828125
aa(lp6
S'timestamp'
p7
aF2.7062160968780518
aatp8
Rp9
.ccollections
OrderedDict
p0
((lp1
(lp2
S'state'
p3
aI400
aa(lp4
S'distance'
p5
aF277.59112548828125
aa(lp6
S'timestamp'
p7
aF2.7066760063171387
aatp8
Rp9
.ccollections
OrderedDict
p0
((lp1
(lp2
S'state'
p3
aI400
aa(lp4
S'distance'
p5
aF277.59112548828125
aa(lp6
S'timestamp'
p7
aF2.716273069381714
aatp8
Rp9
.ccollections
OrderedDict
p0
((lp1
(lp2
S'state'
p3
aI400
aa(lp4
S'distance'
p5
aF277.59112548828125
aa(lp6
S'timestamp'
p7
aF2.716555118560791
aatp8
Rp9
.ccollections
OrderedDict
p0
((lp1
(lp2
S'state'
p3
aI400
aa(lp4
S'distance'
p5
aF277.59112548828125
aa(lp6
S'timestamp'
p7
aF2.726367950439453
aatp8
Rp9
.ccollections
OrderedDict
p0
((lp1
(lp2
S'state'
p3
aI400
aa(lp4
S'distance'
p5
aF277.59112548828125
aa(lp6
S'timestamp'
p7
aF2.726513147354126
aatp8
Rp9
.ccollections
OrderedDict
p0
((lp1
(lp2
S'state'
p3
aI400
aa(lp4
S'distance'
p5
aF277.59112548828125
aa(lp6
S'timestamp'
p7
aF2.736057996749878
aatp8
Rp9
.ccollections
OrderedDict
p0
((lp1
(lp2
S'state'
p3
aI400
aa(lp4
S'distance'
p5
aF277.59112548828125
aa(lp6
S'timestamp'
p7
aF2.736633062362671
aatp8
Rp9
.ccollections
OrderedDict
p0
((lp1
(lp2
S'state'
p3
aI400
aa(lp4
S'distance'
p5
aF277.59112548828125
aa(lp6
S'timestamp'
p7
aF2.7462949752807617
aatp8
Rp9
.ccollections
OrderedDict
p0
((lp1
(lp2
S'state'
p3
aI400
aa(lp4
S'distance'
p5
aF277.59112548828125
aa(lp6
S'timestamp'
p7
aF2.756225109100342
aatp8
Rp9
.ccollections
OrderedDict
p0
((lp1
(lp2
S'state'
p3
aI400
aa(lp4
S'distance'
p5
aF277.59112548828125
aa(lp6
S'timestamp'
p7
aF2.7563910484313965
aatp8
Rp9
.ccollections
OrderedDict
p0
((lp1
(lp2
S'state'
p3
aI400
aa(lp4
S'distance'
p5
aF277.59112548828125
aa(lp6
S'timestamp'
p7
aF2.7572531700134277
aatp8
Rp9
.ccollections
OrderedDict
p0
((lp1
(lp2
S'state'
p3
aI400
aa(lp4
S'distance'
p5
aF277.59112548828125
aa(lp6
S'timestamp'
p7
aF2.766232967376709
aatp8
Rp9
.ccollections
OrderedDict
p0
((lp1
(lp2
S'state'
p3
aI400
aa(lp4
S'distance'
p5
aF277.59112548828125
aa(lp6
S'timestamp'
p7
aF2.7667441368103027
aatp8
Rp9
.ccollections
OrderedDict
p0
((lp1
(lp2
S'state'
p3
aI400
aa(lp4
S'distance'
p5
aF277.59112548828125
aa(lp6
S'timestamp'
p7
aF2.776242971420288
aatp8
Rp9
.ccollections
OrderedDict
p0
((lp1
(lp2
S'state'
p3
aI400
aa(lp4
S'distance'
p5
aF277.59112548828125
aa(lp6
S'timestamp'
p7
aF2.7765769958496094
aatp8
Rp9
.ccollections
OrderedDict
p0
((lp1
(lp2
S'state'
p3
aI400
aa(lp4
S'distance'
p5
aF277.59112548828125
aa(lp6
S'timestamp'
p7
aF2.786367177963257
aatp8
Rp9
.ccollections
OrderedDict
p0
((lp1
(lp2
S'state'
p3
aI400
aa(lp4
S'distance'
p5
aF277.59112548828125
aa(lp6
S'timestamp'
p7
aF2.7865140438079834
aatp8
Rp9
.ccollections
OrderedDict
p0
((lp1
(lp2
S'state'
p3
aI400
aa(lp4
S'distance'
p5
aF277.59112548828125
aa(lp6
S'timestamp'
p7
aF2.7964019775390625
aatp8
Rp9
.ccollections
OrderedDict
p0
((lp1
(lp2
S'state'
p3
aI0
aa(lp4
S'distance'
p5
aF277.59112548828125
aa(lp6
S'timestamp'
p7
aF2.7966580390930176
aatp8
Rp9
.ccollections
OrderedDict
p0
((lp1
(lp2
S'state'
p3
aI0
aa(lp4
S'distance'
p5
aF160.69424438476562
aa(lp6
S'timestamp'
p7
aF3.358473062515259
aatp8
Rp9
.ccollections
OrderedDict
p0
((lp1
(lp2
S'state'
p3
aI0
aa(lp4
S'distance'
p5
aF160.69424438476562
aa(lp6
S'timestamp'
p7
aF3.3590259552001953
aatp8
Rp9
.ccollections
OrderedDict
p0
((lp1
(lp2
S'state'
p3
aI0
aa(lp4
S'distance'
p5
aF160.69424438476562
aa(lp6
S'timestamp'
p7
aF3.366377115249634
aatp8
Rp9
.ccollections
OrderedDict
p0
((lp1
(lp2
S'state'
p3
aI0
aa(lp4
S'distance'
p5
aF160.69424438476562
aa(lp6
S'timestamp'
p7
aF3.36673903465271
aatp8
Rp9
.ccollections
OrderedDict
p0
((lp1
(lp2
S'state'
p3
aI0
aa(lp4
S'distance'
p5
aF160.69424438476562
aa(lp6
S'timestamp'
p7
aF3.376347064971924
aatp8
Rp9
.ccollections
OrderedDict
p0
((lp1
(lp2
S'state'
p3
aI0
aa(lp4
S'distance'
p5
aF160.69424438476562
aa(lp6
S'timestamp'
p7
aF3.3768529891967773
aatp8
Rp9
.ccollections
OrderedDict
p0
((lp1
(lp2
S'state'
p3
aI0
aa(lp4
S'distance'
p5
aF160.69424438476562
aa(lp6
S'timestamp'
p7
aF3.386618137359619
aatp8
Rp9
.ccollections
OrderedDict
p0
((lp1
(lp2
S'state'
p3
aI0
aa(lp4
S'distance'
p5
aF160.69424438476562
aa(lp6
S'timestamp'
p7
aF3.3870010375976562
aatp8
Rp9
.ccollections
OrderedDict
p0
((lp1
(lp2
S'state'
p3
aI0
aa(lp4
S'distance'
p5
aF160.69424438476562
aa(lp6
S'timestamp'
p7
aF3.3967721462249756
aatp8
Rp9
.ccollections
OrderedDict
p0
((lp1
(lp2
S'state'
p3
aI0
aa(lp4
S'distance'
p5
aF160.69424438476562
aa(lp6
S'timestamp'
p7
aF3.396960973739624
aatp8
Rp9
.ccollections
OrderedDict
p0
((lp1
(lp2
S'state'
p3
aI0
aa(lp4
S'distance'
p5
aF160.69424438476562
aa(lp6
S'timestamp'
p7
aF3.40651798248291
aatp8
Rp9
.ccollections
OrderedDict
p0
((lp1
(lp2
S'state'
p3
aI0
aa(lp4
S'distance'
p5
aF160.69424438476562
aa(lp6
S'timestamp'
p7
aF3.4067280292510986
aatp8
Rp9
.ccollections
OrderedDict
p0
((lp1
(lp2
S'state'
p3
aI0
aa(lp4
S'distance'
p5
aF160.69424438476562
aa(lp6
S'timestamp'
p7
aF3.41625714302063
aatp8
Rp9
.ccollections
OrderedDict
p0
((lp1
(lp2
S'state'
p3
aI0
aa(lp4
S'distance'
p5
aF160.69424438476562
aa(lp6
S'timestamp'
p7
aF3.418131113052368
aatp8
Rp9
.ccollections
OrderedDict
p0
((lp1
(lp2
S'state'
p3
aI0
aa(lp4
S'distance'
p5
aF160.69424438476562
aa(lp6
S'timestamp'
p7
aF3.4264609813690186
aatp8
Rp9
.ccollections
OrderedDict
p0
((lp1
(lp2
S'state'
p3
aI0
aa(lp4
S'distance'
p5
aF160.69424438476562
aa(lp6
S'timestamp'
p7
aF3.426975965499878
aatp8
Rp9
.ccollections
OrderedDict
p0
((lp1
(lp2
S'state'
p3
aI0
aa(lp4
S'distance'
p5
aF160.69424438476562
aa(lp6
S'timestamp'
p7
aF3.436367988586426
aatp8
Rp9
.ccollections
OrderedDict
p0
((lp1
(lp2
S'state'
p3
aI0
aa(lp4
S'distance'
p5
aF160.69424438476562
aa(lp6
S'timestamp'
p7
aF3.4369659423828125
aatp8
Rp9
.ccollections
OrderedDict
p0
((lp1
(lp2
S'state'
p3
aI0
aa(lp4
S'distance'
p5
aF160.69424438476562
aa(lp6
S'timestamp'
p7
aF3.446524143218994
aatp8
Rp9
.ccollections
OrderedDict
p0
((lp1
(lp2
S'state'
p3
aI0
aa(lp4
S'distance'
p5
aF160.69424438476562
aa(lp6
S'timestamp'
p7
aF3.446855068206787
aatp8
Rp9
.ccollections
OrderedDict
p0
((lp1
(lp2
S'state'
p3
aI0
aa(lp4
S'distance'
p5
aF160.69424438476562
aa(lp6
S'timestamp'
p7
aF3.456524133682251
aatp8
Rp9
.ccollections
OrderedDict
p0
((lp1
(lp2
S'state'
p3
aI400
aa(lp4
S'distance'
p5
aF160.69424438476562
aa(lp6
S'timestamp'
p7
aF3.456712007522583
aatp8
Rp9
.ccollections
OrderedDict
p0
((lp1
(lp2
S'state'
p3
aI400
aa(lp4
S'distance'
p5
aF160.69424438476562
aa(lp6
S'timestamp'
p7
aF3.4667470455169678
aatp8
Rp9
.ccollections
OrderedDict
p0
((lp1
(lp2
S'state'
p3
aI400
aa(lp4
S'distance'
p5
aF160.69424438476562
aa(lp6
S'timestamp'
p7
aF3.4678850173950195
aatp8
Rp9
.ccollections
OrderedDict
p0
((lp1
(lp2
S'state'
p3
aI400
aa(lp4
S'distance'
p5
aF160.69424438476562
aa(lp6
S'timestamp'
p7
aF3.4766900539398193
aatp8
Rp9
.ccollections
OrderedDict
p0
((lp1
(lp2
S'state'
p3
aI400
aa(lp4
S'distance'
p5
aF160.69424438476562
aa(lp6
S'timestamp'
p7
aF3.4767680168151855
aatp8
Rp9
.ccollections
OrderedDict
p0
((lp1
(lp2
S'state'
p3
aI400
aa(lp4
S'distance'
p5
aF160.69424438476562
aa(lp6
S'timestamp'
p7
aF3.4865331649780273
aatp8
Rp9
.ccollections
OrderedDict
p0
((lp1
(lp2
S'state'
p3
aI400
aa(lp4
S'distance'
p5
aF160.69424438476562
aa(lp6
S'timestamp'
p7
aF3.4870660305023193
aatp8
Rp9
.ccollections
OrderedDict
p0
((lp1
(lp2
S'state'
p3
aI400
aa(lp4
S'distance'
p5
aF160.69424438476562
aa(lp6
S'timestamp'
p7
aF3.4964210987091064
aatp8
Rp9
.ccollections
OrderedDict
p0
((lp1
(lp2
S'state'
p3
aI400
aa(lp4
S'distance'
p5
aF160.69424438476562
aa(lp6
S'timestamp'
p7
aF3.4990200996398926
aatp8
Rp9
.ccollections
OrderedDict
p0
((lp1
(lp2
S'state'
p3
aI400
aa(lp4
S'distance'
p5
aF160.69424438476562
aa(lp6
S'timestamp'
p7
aF3.506279945373535
aatp8
Rp9
.ccollections
OrderedDict
p0
((lp1
(lp2
S'state'
p3
aI400
aa(lp4
S'distance'
p5
aF160.69424438476562
aa(lp6
S'timestamp'
p7
aF3.5069470405578613
aatp8
Rp9
.ccollections
OrderedDict
p0
((lp1
(lp2
S'state'
p3
aI400
aa(lp4
S'distance'
p5
aF160.69424438476562
aa(lp6
S'timestamp'
p7
aF3.5164880752563477
aatp8
Rp9
.ccollections
OrderedDict
p0
((lp1
(lp2
S'state'
p3
aI400
aa(lp4
S'distance'
p5
aF160.69424438476562
aa(lp6
S'timestamp'
p7
aF3.517001152038574
aatp8
Rp9
.ccollections
OrderedDict
p0
((lp1
(lp2
S'state'
p3
aI400
aa(lp4
S'distance'
p5
aF160.69424438476562
aa(lp6
S'timestamp'
p7
aF3.52659010887146
aatp8
Rp9
.ccollections
OrderedDict
p0
((lp1
(lp2
S'state'
p3
aI400
aa(lp4
S'distance'
p5
aF160.69424438476562
aa(lp6
S'timestamp'
p7
aF3.5269980430603027
aatp8
Rp9
.ccollections
OrderedDict
p0
((lp1
(lp2
S'state'
p3
aI400
aa(lp4
S'distance'
p5
aF160.69424438476562
aa(lp6
S'timestamp'
p7
aF3.5363690853118896
aatp8
Rp9
.ccollections
OrderedDict
p0
((lp1
(lp2
S'state'
p3
aI400
aa(lp4
S'distance'
p5
aF160.69424438476562
aa(lp6
S'timestamp'
p7
aF3.5368521213531494
aatp8
Rp9
.ccollections
OrderedDict
p0
((lp1
(lp2
S'state'
p3
aI400
aa(lp4
S'distance'
p5
aF160.69424438476562
aa(lp6
S'timestamp'
p7
aF3.546657085418701
aatp8
Rp9
.ccollections
OrderedDict
p0
((lp1
(lp2
S'state'
p3
aI400
aa(lp4
S'distance'
p5
aF160.69424438476562
aa(lp6
S'timestamp'
p7
aF3.546779155731201
aatp8
Rp9
.ccollections
OrderedDict
p0
((lp1
(lp2
S'state'
p3
aI400
aa(lp4
S'distance'
p5
aF160.69424438476562
aa(lp6
S'timestamp'
p7
aF3.566396951675415
aatp8
Rp9
.ccollections
OrderedDict
p0
((lp1
(lp2
S'state'
p3
aI400
aa(lp4
S'distance'
p5
aF160.69424438476562
aa(lp6
S'timestamp'
p7
aF3.566857099533081
aatp8
Rp9
.ccollections
OrderedDict
p0
((lp1
(lp2
S'state'
p3
aI400
aa(lp4
S'distance'
p5
aF160.69424438476562
aa(lp6
S'timestamp'
p7
aF3.5676331520080566
aatp8
Rp9
.ccollections
OrderedDict
p0
((lp1
(lp2
S'state'
p3
aI400
aa(lp4
S'distance'
p5
aF160.69424438476562
aa(lp6
S'timestamp'
p7
aF3.567746162414551
aatp8
Rp9
.ccollections
OrderedDict
p0
((lp1
(lp2
S'state'
p3
aI400
aa(lp4
S'distance'
p5
aF160.69424438476562
aa(lp6
S'timestamp'
p7
aF3.5769259929656982
aatp8
Rp9
.ccollections
OrderedDict
p0
((lp1
(lp2
S'state'
p3
aI400
aa(lp4
S'distance'
p5
aF160.69424438476562
aa(lp6
S'timestamp'
p7
aF3.577247142791748
aatp8
Rp9
.ccollections
OrderedDict
p0
((lp1
(lp2
S'state'
p3
aI400
aa(lp4
S'distance'
p5
aF160.69424438476562
aa(lp6
S'timestamp'
p7
aF3.596806049346924
aatp8
Rp9
.ccollections
OrderedDict
p0
((lp1
(lp2
S'state'
p3
aI400
aa(lp4
S'distance'
p5
aF160.69424438476562
aa(lp6
S'timestamp'
p7
aF3.5976150035858154
aatp8
Rp9
.ccollections
OrderedDict
p0
((lp1
(lp2
S'state'
p3
aI400
aa(lp4
S'distance'
p5
aF160.69424438476562
aa(lp6
S'timestamp'
p7
aF3.5990540981292725
aatp8
Rp9
.ccollections
OrderedDict
p0
((lp1
(lp2
S'state'
p3
aI400
aa(lp4
S'distance'
p5
aF160.69424438476562
aa(lp6
S'timestamp'
p7
aF3.6007590293884277
aatp8
Rp9
.ccollections
OrderedDict
p0
((lp1
(lp2
S'state'
p3
aI400
aa(lp4
S'distance'
p5
aF160.69424438476562
aa(lp6
S'timestamp'
p7
aF3.606748104095459
aatp8
Rp9
.ccollections
OrderedDict
p0
((lp1
(lp2
S'state'
p3
aI400
aa(lp4
S'distance'
p5
aF160.69424438476562
aa(lp6
S'timestamp'
p7
aF3.616523027420044
aatp8
Rp9
.ccollections
OrderedDict
p0
((lp1
(lp2
S'state'
p3
aI400
aa(lp4
S'distance'
p5
aF160.69424438476562
aa(lp6
S'timestamp'
p7
aF3.626732110977173
aatp8
Rp9
.ccollections
OrderedDict
p0
((lp1
(lp2
S'state'
p3
aI400
aa(lp4
S'distance'
p5
aF160.69424438476562
aa(lp6
S'timestamp'
p7
aF3.6277899742126465
aatp8
Rp9
.ccollections
OrderedDict
p0
((lp1
(lp2
S'state'
p3
aI400
aa(lp4
S'distance'
p5
aF160.69424438476562
aa(lp6
S'timestamp'
p7
aF3.629024028778076
aatp8
Rp9
.ccollections
OrderedDict
p0
((lp1
(lp2
S'state'
p3
aI400
aa(lp4
S'distance'
p5
aF160.69424438476562
aa(lp6
S'timestamp'
p7
aF3.629775047302246
aatp8
Rp9
.ccollections
OrderedDict
p0
((lp1
(lp2
S'state'
p3
aI400
aa(lp4
S'distance'
p5
aF160.69424438476562
aa(lp6
S'timestamp'
p7
aF3.6365931034088135
aatp8
Rp9
.ccollections
OrderedDict
p0
((lp1
(lp2
S'state'
p3
aI400
aa(lp4
S'distance'
p5
aF160.69424438476562
aa(lp6
S'timestamp'
p7
aF3.63681697845459
aatp8
Rp9
.ccollections
OrderedDict
p0
((lp1
(lp2
S'state'
p3
aI400
aa(lp4
S'distance'
p5
aF160.69424438476562
aa(lp6
S'timestamp'
p7
aF3.646358013153076
aatp8
Rp9
.ccollections
OrderedDict
p0
((lp1
(lp2
S'state'
p3
aI400
aa(lp4
S'distance'
p5
aF160.69424438476562
aa(lp6
S'timestamp'
p7
aF3.6469571590423584
aatp8
Rp9
.ccollections
OrderedDict
p0
((lp1
(lp2
S'state'
p3
aI400
aa(lp4
S'distance'
p5
aF160.69424438476562
aa(lp6
S'timestamp'
p7
aF3.656337022781372
aatp8
Rp9
.ccollections
OrderedDict
p0
((lp1
(lp2
S'state'
p3
aI400
aa(lp4
S'distance'
p5
aF160.69424438476562
aa(lp6
S'timestamp'
p7
aF3.6574981212615967
aatp8
Rp9
.ccollections
OrderedDict
p0
((lp1
(lp2
S'state'
p3
aI400
aa(lp4
S'distance'
p5
aF160.69424438476562
aa(lp6
S'timestamp'
p7
aF3.6663739681243896
aatp8
Rp9
.ccollections
OrderedDict
p0
((lp1
(lp2
S'state'
p3
aI400
aa(lp4
S'distance'
p5
aF160.69424438476562
aa(lp6
S'timestamp'
p7
aF3.6766459941864014
aatp8
Rp9
.ccollections
OrderedDict
p0
((lp1
(lp2
S'state'
p3
aI400
aa(lp4
S'distance'
p5
aF160.69424438476562
aa(lp6
S'timestamp'
p7
aF3.6767361164093018
aatp8
Rp9
.ccollections
OrderedDict
p0
((lp1
(lp2
S'state'
p3
aI400
aa(lp4
S'distance'
p5
aF160.69424438476562
aa(lp6
S'timestamp'
p7
aF3.677896022796631
aatp8
Rp9
.ccollections
OrderedDict
p0
((lp1
(lp2
S'state'
p3
aI400
aa(lp4
S'distance'
p5
aF160.69424438476562
aa(lp6
S'timestamp'
p7
aF3.686432123184204
aatp8
Rp9
.ccollections
OrderedDict
p0
((lp1
(lp2
S'state'
p3
aI400
aa(lp4
S'distance'
p5
aF160.69424438476562
aa(lp6
S'timestamp'
p7
aF3.687167167663574
aatp8
Rp9
.ccollections
OrderedDict
p0
((lp1
(lp2
S'state'
p3
aI400
aa(lp4
S'distance'
p5
aF160.69424438476562
aa(lp6
S'timestamp'
p7
aF3.6964690685272217
aatp8
Rp9
.ccollections
OrderedDict
p0
((lp1
(lp2
S'state'
p3
aI400
aa(lp4
S'distance'
p5
aF160.69424438476562
aa(lp6
S'timestamp'
p7
aF3.697165012359619
aatp8
Rp9
.ccollections
OrderedDict
p0
((lp1
(lp2
S'state'
p3
aI400
aa(lp4
S'distance'
p5
aF160.69424438476562
aa(lp6
S'timestamp'
p7
aF3.716787099838257
aatp8
Rp9
.ccollections
OrderedDict
p0
((lp1
(lp2
S'state'
p3
aI400
aa(lp4
S'distance'
p5
aF160.69424438476562
aa(lp6
S'timestamp'
p7
aF3.717717170715332
aatp8
Rp9
.ccollections
OrderedDict
p0
((lp1
(lp2
S'state'
p3
aI400
aa(lp4
S'distance'
p5
aF160.69424438476562
aa(lp6
S'timestamp'
p7
aF3.719072103500366
aatp8
Rp9
.ccollections
OrderedDict
p0
((lp1
(lp2
S'state'
p3
aI400
aa(lp4
S'distance'
p5
aF160.69424438476562
aa(lp6
S'timestamp'
p7
aF3.7199809551239014
aatp8
Rp9
.ccollections
OrderedDict
p0
((lp1
(lp2
S'state'
p3
aI400
aa(lp4
S'distance'
p5
aF160.69424438476562
aa(lp6
S'timestamp'
p7
aF3.7264130115509033
aatp8
Rp9
.ccollections
OrderedDict
p0
((lp1
(lp2
S'state'
p3
aI400
aa(lp4
S'distance'
p5
aF160.69424438476562
aa(lp6
S'timestamp'
p7
aF3.7269201278686523
aatp8
Rp9
.ccollections
OrderedDict
p0
((lp1
(lp2
S'state'
p3
aI400
aa(lp4
S'distance'
p5
aF160.69424438476562
aa(lp6
S'timestamp'
p7
aF3.736639976501465
aatp8
Rp9
.ccollections
OrderedDict
p0
((lp1
(lp2
S'state'
p3
aI400
aa(lp4
S'distance'
p5
aF160.69424438476562
aa(lp6
S'timestamp'
p7
aF3.7370400428771973
aatp8
Rp9
.ccollections
OrderedDict
p0
((lp1
(lp2
S'state'
p3
aI400
aa(lp4
S'distance'
p5
aF160.69424438476562
aa(lp6
S'timestamp'
p7
aF3.7464640140533447
aatp8
Rp9
.ccollections
OrderedDict
p0
((lp1
(lp2
S'state'
p3
aI400
aa(lp4
S'distance'
p5
aF160.69424438476562
aa(lp6
S'timestamp'
p7
aF3.746934175491333
aatp8
Rp9
.ccollections
OrderedDict
p0
((lp1
(lp2
S'state'
p3
aI400
aa(lp4
S'distance'
p5
aF160.69424438476562
aa(lp6
S'timestamp'
p7
aF3.756412982940674
aatp8
Rp9
.ccollections
OrderedDict
p0
((lp1
(lp2
S'state'
p3
aI400
aa(lp4
S'distance'
p5
aF160.69424438476562
aa(lp6
S'timestamp'
p7
aF3.7570040225982666
aatp8
Rp9
.ccollections
OrderedDict
p0
((lp1
(lp2
S'state'
p3
aI400
aa(lp4
S'distance'
p5
aF160.69424438476562
aa(lp6
S'timestamp'
p7
aF3.766464948654175
aatp8
Rp9
.ccollections
OrderedDict
p0
((lp1
(lp2
S'state'
p3
aI400
aa(lp4
S'distance'
p5
aF160.69424438476562
aa(lp6
S'timestamp'
p7
aF3.7669260501861572
aatp8
Rp9
.ccollections
OrderedDict
p0
((lp1
(lp2
S'state'
p3
aI400
aa(lp4
S'distance'
p5
aF160.69424438476562
aa(lp6
S'timestamp'
p7
aF3.7764101028442383
aatp8
Rp9
.ccollections
OrderedDict
p0
((lp1
(lp2
S'state'
p3
aI400
aa(lp4
S'distance'
p5
aF160.69424438476562
aa(lp6
S'timestamp'
p7
aF3.777362108230591
aatp8
Rp9
.ccollections
OrderedDict
p0
((lp1
(lp2
S'state'
p3
aI400
aa(lp4
S'distance'
p5
aF160.69424438476562
aa(lp6
S'timestamp'
p7
aF3.7868499755859375
aatp8
Rp9
.ccollections
OrderedDict
p0
((lp1
(lp2
S'state'
p3
aI400
aa(lp4
S'distance'
p5
aF160.69424438476562
aa(lp6
S'timestamp'
p7
aF3.786924123764038
aatp8
Rp9
.ccollections
OrderedDict
p0
((lp1
(lp2
S'state'
p3
aI400
aa(lp4
S'distance'
p5
aF160.69424438476562
aa(lp6
S'timestamp'
p7
aF3.796597957611084
aatp8
Rp9
.ccollections
OrderedDict
p0
((lp1
(lp2
S'state'
p3
aI400
aa(lp4
S'distance'
p5
aF160.69424438476562
aa(lp6
S'timestamp'
p7
aF3.7968859672546387
aatp8
Rp9
.ccollections
OrderedDict
p0
((lp1
(lp2
S'state'
p3
aI400
aa(lp4
S'distance'
p5
aF160.69424438476562
aa(lp6
S'timestamp'
p7
aF3.8064990043640137
aatp8
Rp9
.ccollections
OrderedDict
p0
((lp1
(lp2
S'state'
p3
aI400
aa(lp4
S'distance'
p5
aF160.69424438476562
aa(lp6
S'timestamp'
p7
aF3.8070521354675293
aatp8
Rp9
.ccollections
OrderedDict
p0
((lp1
(lp2
S'state'
p3
aI400
aa(lp4
S'distance'
p5
aF160.69424438476562
aa(lp6
S'timestamp'
p7
aF3.8164031505584717
aatp8
Rp9
.ccollections
OrderedDict
p0
((lp1
(lp2
S'state'
p3
aI400
aa(lp4
S'distance'
p5
aF160.69424438476562
aa(lp6
S'timestamp'
p7
aF3.8173251152038574
aatp8
Rp9
.ccollections
OrderedDict
p0
((lp1
(lp2
S'state'
p3
aI400
aa(lp4
S'distance'
p5
aF160.69424438476562
aa(lp6
S'timestamp'
p7
aF3.8265581130981445
aatp8
Rp9
.ccollections
OrderedDict
p0
((lp1
(lp2
S'state'
p3
aI400
aa(lp4
S'distance'
p5
aF160.69424438476562
aa(lp6
S'timestamp'
p7
aF3.8269450664520264
aatp8
Rp9
.ccollections
OrderedDict
p0
((lp1
(lp2
S'state'
p3
aI400
aa(lp4
S'distance'
p5
aF160.69424438476562
aa(lp6
S'timestamp'
p7
aF3.836637020111084
aatp8
Rp9
.ccollections
OrderedDict
p0
((lp1
(lp2
S'state'
p3
aI400
aa(lp4
S'distance'
p5
aF160.69424438476562
aa(lp6
S'timestamp'
p7
aF3.8368539810180664
aatp8
Rp9
.ccollections
OrderedDict
p0
((lp1
(lp2
S'state'
p3
aI400
aa(lp4
S'distance'
p5
aF160.69424438476562
aa(lp6
S'timestamp'
p7
aF3.8463480472564697
aatp8
Rp9
.ccollections
OrderedDict
p0
((lp1
(lp2
S'state'
p3
aI400
aa(lp4
S'distance'
p5
aF160.69424438476562
aa(lp6
S'timestamp'
p7
aF3.8471601009368896
aatp8
Rp9
.ccollections
OrderedDict
p0
((lp1
(lp2
S'state'
p3
aI400
aa(lp4
S'distance'
p5
aF160.69424438476562
aa(lp6
S'timestamp'
p7
aF3.8565549850463867
aatp8
Rp9
.ccollections
OrderedDict
p0
((lp1
(lp2
S'state'
p3
aI400
aa(lp4
S'distance'
p5
aF160.69424438476562
aa(lp6
S'timestamp'
p7
aF3.8573739528656006
aatp8
Rp9
.ccollections
OrderedDict
p0
((lp1
(lp2
S'state'
p3
aI400
aa(lp4
S'distance'
p5
aF160.69424438476562
aa(lp6
S'timestamp'
p7
aF3.866563081741333
aatp8
Rp9
.ccollections
OrderedDict
p0
((lp1
(lp2
S'state'
p3
aI400
aa(lp4
S'distance'
p5
aF160.69424438476562
aa(lp6
S'timestamp'
p7
aF3.8669509887695312
aatp8
Rp9
.ccollections
OrderedDict
p0
((lp1
(lp2
S'state'
p3
aI400
aa(lp4
S'distance'
p5
aF160.69424438476562
aa(lp6
S'timestamp'
p7
aF3.8764231204986572
aatp8
Rp9
.ccollections
OrderedDict
p0
((lp1
(lp2
S'state'
p3
aI400
aa(lp4
S'distance'
p5
aF160.69424438476562
aa(lp6
S'timestamp'
p7
aF3.8770201206207275
aatp8
Rp9
.ccollections
OrderedDict
p0
((lp1
(lp2
S'state'
p3
aI400
aa(lp4
S'distance'
p5
aF160.69424438476562
aa(lp6
S'timestamp'
p7
aF3.8863611221313477
aatp8
Rp9
.ccollections
OrderedDict
p0
((lp1
(lp2
S'state'
p3
aI400
aa(lp4
S'distance'
p5
aF160.69424438476562
aa(lp6
S'timestamp'
p7
aF3.887223958969116
aatp8
Rp9
.ccollections
OrderedDict
p0
((lp1
(lp2
S'state'
p3
aI400
aa(lp4
S'distance'
p5
aF160.69424438476562
aa(lp6
S'timestamp'
p7
aF3.8964390754699707
aatp8
Rp9
.ccollections
OrderedDict
p0
((lp1
(lp2
S'state'
p3
aI400
aa(lp4
S'distance'
p5
aF160.69424438476562
aa(lp6
S'timestamp'
p7
aF3.897042989730835
aatp8
Rp9
.ccollections
OrderedDict
p0
((lp1
(lp2
S'state'
p3
aI400
aa(lp4
S'distance'
p5
aF160.69424438476562
aa(lp6
S'timestamp'
p7
aF3.9065911769866943
aatp8
Rp9
.ccollections
OrderedDict
p0
((lp1
(lp2
S'state'
p3
aI400
aa(lp4
S'distance'
p5
aF160.69424438476562
aa(lp6
S'timestamp'
p7
aF3.907060146331787
aatp8
Rp9
.ccollections
OrderedDict
p0
((lp1
(lp2
S'state'
p3
aI400
aa(lp4
S'distance'
p5
aF160.69424438476562
aa(lp6
S'timestamp'
p7
aF3.9164340496063232
aatp8
Rp9
.ccollections
OrderedDict
p0
((lp1
(lp2
S'state'
p3
aI400
aa(lp4
S'distance'
p5
aF160.69424438476562
aa(lp6
S'timestamp'
p7
aF3.9171390533447266
aatp8
Rp9
.ccollections
OrderedDict
p0
((lp1
(lp2
S'state'
p3
aI400
aa(lp4
S'distance'
p5
aF160.69424438476562
aa(lp6
S'timestamp'
p7
aF3.926506996154785
aatp8
Rp9
.ccollections
OrderedDict
p0
((lp1
(lp2
S'state'
p3
aI0
aa(lp4
S'distance'
p5
aF160.69424438476562
aa(lp6
S'timestamp'
p7
aF3.9270710945129395
aatp8
Rp9
.ccollections
OrderedDict
p0
((lp1
(lp2
S'state'
p3
aI0
aa(lp4
S'distance'
p5
aF42.92116451263428
aa(lp6
S'timestamp'
p7
aF4.487926006317139
aatp8
Rp9
.ccollections
OrderedDict
p0
((lp1
(lp2
S'state'
p3
aI0
aa(lp4
S'distance'
p5
aF42.92116451263428
aa(lp6
S'timestamp'
p7
aF4.491778135299683
aatp8
Rp9
.ccollections
OrderedDict
p0
((lp1
(lp2
S'state'
p3
aI0
aa(lp4
S'distance'
p5
aF42.92116451263428
aa(lp6
S'timestamp'
p7
aF4.496564149856567
aatp8
Rp9
.ccollections
OrderedDict
p0
((lp1
(lp2
S'state'
p3
aI0
aa(lp4
S'distance'
p5
aF42.92116451263428
aa(lp6
S'timestamp'
p7
aF4.497034072875977
aatp8
Rp9
.ccollections
OrderedDict
p0
((lp1
(lp2
S'state'
p3
aI0
aa(lp4
S'distance'
p5
aF42.92116451263428
aa(lp6
S'timestamp'
p7
aF4.506639003753662
aatp8
Rp9
.ccollections
OrderedDict
p0
((lp1
(lp2
S'state'
p3
aI0
aa(lp4
S'distance'
p5
aF42.92116451263428
aa(lp6
S'timestamp'
p7
aF4.507246971130371
aatp8
Rp9
.ccollections
OrderedDict
p0
((lp1
(lp2
S'state'
p3
aI0
aa(lp4
S'distance'
p5
aF42.92116451263428
aa(lp6
S'timestamp'
p7
aF4.516860008239746
aatp8
Rp9
.ccollections
OrderedDict
p0
((lp1
(lp2
S'state'
p3
aI0
aa(lp4
S'distance'
p5
aF42.92116451263428
aa(lp6
S'timestamp'
p7
aF4.517009973526001
aatp8
Rp9
.ccollections
OrderedDict
p0
((lp1
(lp2
S'state'
p3
aI0
aa(lp4
S'distance'
p5
aF42.92116451263428
aa(lp6
S'timestamp'
p7
aF4.526628017425537
aatp8
Rp9
.ccollections
OrderedDict
p0
((lp1
(lp2
S'state'
p3
aI0
aa(lp4
S'distance'
p5
aF42.92116451263428
aa(lp6
S'timestamp'
p7
aF4.5271220207214355
aatp8
Rp9
.ccollections
OrderedDict
p0
((lp1
(lp2
S'state'
p3
aI0
aa(lp4
S'distance'
p5
aF42.92116451263428
aa(lp6
S'timestamp'
p7
aF4.536731004714966
aatp8
Rp9
.ccollections
OrderedDict
p0
((lp1
(lp2
S'state'
p3
aI0
aa(lp4
S'distance'
p5
aF42.92116451263428
aa(lp6
S'timestamp'
p7
aF4.537213087081909
aatp8
Rp9
.ccollections
OrderedDict
p0
((lp1
(lp2
S'state'
p3
aI0
aa(lp4
S'distance'
p5
aF42.92116451263428
aa(lp6
S'timestamp'
p7
aF4.546749114990234
aatp8
Rp9
.ccollections
OrderedDict
p0
((lp1
(lp2
S'state'
p3
aI0
aa(lp4
S'distance'
p5
aF42.92116451263428
aa(lp6
S'timestamp'
p7
aF4.547271966934204
aatp8
Rp9
.ccollections
OrderedDict
p0
((lp1
(lp2
S'state'
p3
aI0
aa(lp4
S'distance'
p5
aF42.92116451263428
aa(lp6
S'timestamp'
p7
aF4.556947946548462
aatp8
Rp9
.ccollections
OrderedDict
p0
((lp1
(lp2
S'state'
p3
aI0
aa(lp4
S'distance'
p5
aF42.92116451263428
aa(lp6
S'timestamp'
p7
aF4.557086944580078
aatp8
Rp9
.ccollections
OrderedDict
p0
((lp1
(lp2
S'state'
p3
aI0
aa(lp4
S'distance'
p5
aF42.92116451263428
aa(lp6
S'timestamp'
p7
aF4.566770076751709
aatp8
Rp9
.ccollections
OrderedDict
p0
((lp1
(lp2
S'state'
p3
aI0
aa(lp4
S'distance'
p5
aF42.92116451263428
aa(lp6
S'timestamp'
p7
aF4.567198038101196
aatp8
Rp9
.ccollections
OrderedDict
p0
((lp1
(lp2
S'state'
p3
aI0
aa(lp4
S'distance'
p5
aF42.92116451263428
aa(lp6
S'timestamp'
p7
aF4.5766520500183105
aatp8
Rp9
.ccollections
OrderedDict
p0
((lp1
(lp2
S'state'
p3
aI0
aa(lp4
S'distance'
p5
aF42.92116451263428
aa(lp6
S'timestamp'
p7
aF4.577160120010376
aatp8
Rp9
.ccollections
OrderedDict
p0
((lp1
(lp2
S'state'
p3
aI0
aa(lp4
S'distance'
p5
aF42.92116451263428
aa(lp6
S'timestamp'
p7
aF4.586648941040039
aatp8
Rp9
.ccollections
OrderedDict
p0
((lp1
(lp2
S'state'
p3
aI0
aa(lp4
S'distance'
p5
aF42.92116451263428
aa(lp6
S'timestamp'
p7
aF4.587167024612427
aatp8
Rp9
.ccollections
OrderedDict
p0
((lp1
(lp2
S'state'
p3
aI0
aa(lp4
S'distance'
p5
aF42.92116451263428
aa(lp6
S'timestamp'
p7
aF4.596724033355713
aatp8
Rp9
.ccollections
OrderedDict
p0
((lp1
(lp2
S'state'
p3
aI0
aa(lp4
S'distance'
p5
aF42.92116451263428
aa(lp6
S'timestamp'
p7
aF4.597162961959839
aatp8
Rp9
.ccollections
OrderedDict
p0
((lp1
(lp2
S'state'
p3
aI0
aa(lp4
S'distance'
p5
aF42.92116451263428
aa(lp6
S'timestamp'
p7
aF4.6066529750823975
aatp8
Rp9
.ccollections
OrderedDict
p0
((lp1
(lp2
S'state'
p3
aI0
aa(lp4
S'distance'
p5
aF42.92116451263428
aa(lp6
S'timestamp'
p7
aF4.6072211265563965
aatp8
Rp9
.ccollections
OrderedDict
p0
((lp1
(lp2
S'state'
p3
aI0
aa(lp4
S'distance'
p5
aF42.92116451263428
aa(lp6
S'timestamp'
p7
aF4.616748094558716
aatp8
Rp9
.ccollections
OrderedDict
p0
((lp1
(lp2
S'state'
p3
aI0
aa(lp4
S'distance'
p5
aF42.92116451263428
aa(lp6
S'timestamp'
p7
aF4.617254018783569
aatp8
Rp9
.ccollections
OrderedDict
p0
((lp1
(lp2
S'state'
p3
aI0
aa(lp4
S'distance'
p5
aF42.92116451263428
aa(lp6
S'timestamp'
p7
aF4.6267781257629395
aatp8
Rp9
.ccollections
OrderedDict
p0
((lp1
(lp2
S'state'
p3
aI0
aa(lp4
S'distance'
p5
aF42.92116451263428
aa(lp6
S'timestamp'
p7
aF4.6272711753845215
aatp8
Rp9
.ccollections
OrderedDict
p0
((lp1
(lp2
S'state'
p3
aI0
aa(lp4
S'distance'
p5
aF42.92116451263428
aa(lp6
S'timestamp'
p7
aF4.6366331577301025
aatp8
Rp9
.ccollections
OrderedDict
p0
((lp1
(lp2
S'state'
p3
aI0
aa(lp4
S'distance'
p5
aF42.92116451263428
aa(lp6
S'timestamp'
p7
aF4.637125015258789
aatp8
Rp9
.ccollections
OrderedDict
p0
((lp1
(lp2
S'state'
p3
aI0
aa(lp4
S'distance'
p5
aF42.92116451263428
aa(lp6
S'timestamp'
p7
aF4.646795034408569
aatp8
Rp9
.ccollections
OrderedDict
p0
((lp1
(lp2
S'state'
p3
aI0
aa(lp4
S'distance'
p5
aF42.92116451263428
aa(lp6
S'timestamp'
p7
aF4.647181987762451
aatp8
Rp9
.ccollections
OrderedDict
p0
((lp1
(lp2
S'state'
p3
aI0
aa(lp4
S'distance'
p5
aF42.92116451263428
aa(lp6
S'timestamp'
p7
aF4.656749963760376
aatp8
Rp9
.ccollections
OrderedDict
p0
((lp1
(lp2
S'state'
p3
aI0
aa(lp4
S'distance'
p5
aF42.92116451263428
aa(lp6
S'timestamp'
p7
aF4.6572511196136475
aatp8
Rp9
.ccollections
OrderedDict
p0
((lp1
(lp2
S'state'
p3
aI0
aa(lp4
S'distance'
p5
aF42.92116451263428
aa(lp6
S'timestamp'
p7
aF4.6667890548706055
aatp8
Rp9
.ccollections
OrderedDict
p0
((lp1
(lp2
S'state'
p3
aI0
aa(lp4
S'distance'
p5
aF42.92116451263428
aa(lp6
S'timestamp'
p7
aF4.66718602180481
aatp8
Rp9
.ccollections
OrderedDict
p0
((lp1
(lp2
S'state'
p3
aI0
aa(lp4
S'distance'
p5
aF42.92116451263428
aa(lp6
S'timestamp'
p7
aF4.676990032196045
aatp8
Rp9
.ccollections
OrderedDict
p0
((lp1
(lp2
S'state'
p3
aI0
aa(lp4
S'distance'
p5
aF42.92116451263428
aa(lp6
S'timestamp'
p7
aF4.6772620677948
aatp8
Rp9
.ccollections
OrderedDict
p0
((lp1
(lp2
S'state'
p3
aI0
aa(lp4
S'distance'
p5
aF42.92116451263428
aa(lp6
S'timestamp'
p7
aF4.686799049377441
aatp8
Rp9
.ccollections
OrderedDict
p0
((lp1
(lp2
S'state'
p3
aI0
aa(lp4
S'distance'
p5
aF42.92116451263428
aa(lp6
S'timestamp'
p7
aF4.687191009521484
aatp8
Rp9
.ccollections
OrderedDict
p0
((lp1
(lp2
S'state'
p3
aI0
aa(lp4
S'distance'
p5
aF42.92116451263428
aa(lp6
S'timestamp'
p7
aF4.6966681480407715
aatp8
Rp9
.ccollections
OrderedDict
p0
((lp1
(lp2
S'state'
p3
aI0
aa(lp4
S'distance'
p5
aF42.92116451263428
aa(lp6
S'timestamp'
p7
aF4.697285175323486
aatp8
Rp9
.ccollections
OrderedDict
p0
((lp1
(lp2
S'state'
p3
aI0
aa(lp4
S'distance'
p5
aF42.92116451263428
aa(lp6
S'timestamp'
p7
aF4.706882953643799
aatp8
Rp9
.ccollections
OrderedDict
p0
((lp1
(lp2
S'state'
p3
aI0
aa(lp4
S'distance'
p5
aF42.92116451263428
aa(lp6
S'timestamp'
p7
aF4.707195997238159
aatp8
Rp9
.ccollections
OrderedDict
p0
((lp1
(lp2
S'state'
p3
aI0
aa(lp4
S'distance'
p5
aF42.92116451263428
aa(lp6
S'timestamp'
p7
aF4.716987133026123
aatp8
Rp9
.ccollections
OrderedDict
p0
((lp1
(lp2
S'state'
p3
aI0
aa(lp4
S'distance'
p5
aF42.92116451263428
aa(lp6
S'timestamp'
p7
aF4.717123031616211
aatp8
Rp9
.ccollections
OrderedDict
p0
((lp1
(lp2
S'state'
p3
aI0
aa(lp4
S'distance'
p5
aF42.92116451263428
aa(lp6
S'timestamp'
p7
aF4.726673126220703
aatp8
Rp9
.ccollections
OrderedDict
p0
((lp1
(lp2
S'state'
p3
aI0
aa(lp4
S'distance'
p5
aF42.92116451263428
aa(lp6
S'timestamp'
p7
aF4.727182149887085
aatp8
Rp9
.ccollections
OrderedDict
p0
((lp1
(lp2
S'state'
p3
aI0
aa(lp4
S'distance'
p5
aF42.92116451263428
aa(lp6
S'timestamp'
p7
aF4.736937046051025
aatp8
Rp9
.ccollections
OrderedDict
p0
((lp1
(lp2
S'state'
p3
aI0
aa(lp4
S'distance'
p5
aF42.92116451263428
aa(lp6
S'timestamp'
p7
aF4.737066030502319
aatp8
Rp9
.ccollections
OrderedDict
p0
((lp1
(lp2
S'state'
p3
aI0
aa(lp4
S'distance'
p5
aF42.92116451263428
aa(lp6
S'timestamp'
p7
aF4.747236013412476
aatp8
Rp9
.ccollections
OrderedDict
p0
((lp1
(lp2
S'state'
p3
aI0
aa(lp4
S'distance'
p5
aF42.92116451263428
aa(lp6
S'timestamp'
p7
aF4.747467994689941
aatp8
Rp9
.ccollections
OrderedDict
p0
((lp1
(lp2
S'state'
p3
aI0
aa(lp4
S'distance'
p5
aF42.92116451263428
aa(lp6
S'timestamp'
p7
aF4.7568199634552
aatp8
Rp9
.ccollections
OrderedDict
p0
((lp1
(lp2
S'state'
p3
aI0
aa(lp4
S'distance'
p5
aF42.92116451263428
aa(lp6
S'timestamp'
p7
aF4.757213115692139
aatp8
Rp9
.ccollections
OrderedDict
p0
((lp1
(lp2
S'state'
p3
aI0
aa(lp4
S'distance'
p5
aF42.92116451263428
aa(lp6
S'timestamp'
p7
aF4.766991138458252
aatp8
Rp9
.ccollections
OrderedDict
p0
((lp1
(lp2
S'state'
p3
aI0
aa(lp4
S'distance'
p5
aF42.92116451263428
aa(lp6
S'timestamp'
p7
aF4.767115116119385
aatp8
Rp9
.ccollections
OrderedDict
p0
((lp1
(lp2
S'state'
p3
aI0
aa(lp4
S'distance'
p5
aF42.92116451263428
aa(lp6
S'timestamp'
p7
aF4.776954174041748
aatp8
Rp9
.ccollections
OrderedDict
p0
((lp1
(lp2
S'state'
p3
aI0
aa(lp4
S'distance'
p5
aF42.92116451263428
aa(lp6
S'timestamp'
p7
aF4.777091026306152
aatp8
Rp9
.ccollections
OrderedDict
p0
((lp1
(lp2
S'state'
p3
aI0
aa(lp4
S'distance'
p5
aF42.92116451263428
aa(lp6
S'timestamp'
p7
aF4.786926031112671
aatp8
Rp9
.ccollections
OrderedDict
p0
((lp1
(lp2
S'state'
p3
aI0
aa(lp4
S'distance'
p5
aF42.92116451263428
aa(lp6
S'timestamp'
p7
aF4.787100076675415
aatp8
Rp9
.ccollections
OrderedDict
p0
((lp1
(lp2
S'state'
p3
aI0
aa(lp4
S'distance'
p5
aF42.92116451263428
aa(lp6
S'timestamp'
p7
aF4.797018051147461
aatp8
Rp9
.ccollections
OrderedDict
p0
((lp1
(lp2
S'state'
p3
aI0
aa(lp4
S'distance'
p5
aF42.92116451263428
aa(lp6
S'timestamp'
p7
aF4.797136068344116
aatp8
Rp9
.ccollections
OrderedDict
p0
((lp1
(lp2
S'state'
p3
aI0
aa(lp4
S'distance'
p5
aF42.92116451263428
aa(lp6
S'timestamp'
p7
aF4.806826114654541
aatp8
Rp9
.ccollections
OrderedDict
p0
((lp1
(lp2
S'state'
p3
aI0
aa(lp4
S'distance'
p5
aF42.92116451263428
aa(lp6
S'timestamp'
p7
aF4.807168960571289
aatp8
Rp9
.ccollections
OrderedDict
p0
((lp1
(lp2
S'state'
p3
aI0
aa(lp4
S'distance'
p5
aF42.92116451263428
aa(lp6
S'timestamp'
p7
aF4.817456007003784
aatp8
Rp9
.ccollections
OrderedDict
p0
((lp1
(lp2
S'state'
p3
aI0
aa(lp4
S'distance'
p5
aF42.92116451263428
aa(lp6
S'timestamp'
p7
aF4.818268060684204
aatp8
Rp9
.ccollections
OrderedDict
p0
((lp1
(lp2
S'state'
p3
aI0
aa(lp4
S'distance'
p5
aF42.92116451263428
aa(lp6
S'timestamp'
p7
aF4.8267271518707275
aatp8
Rp9
.ccollections
OrderedDict
p0
((lp1
(lp2
S'state'
p3
aI0
aa(lp4
S'distance'
p5
aF42.92116451263428
aa(lp6
S'timestamp'
p7
aF4.827322006225586
aatp8
Rp9
.ccollections
OrderedDict
p0
((lp1
(lp2
S'state'
p3
aI0
aa(lp4
S'distance'
p5
aF42.92116451263428
aa(lp6
S'timestamp'
p7
aF4.836831092834473
aatp8
Rp9
.ccollections
OrderedDict
p0
((lp1
(lp2
S'state'
p3
aI0
aa(lp4
S'distance'
p5
aF42.92116451263428
aa(lp6
S'timestamp'
p7
aF4.837221145629883
aatp8
Rp9
.ccollections
OrderedDict
p0
((lp1
(lp2
S'state'
p3
aI0
aa(lp4
S'distance'
p5
aF42.92116451263428
aa(lp6
S'timestamp'
p7
aF4.846821069717407
aatp8
Rp9
.ccollections
OrderedDict
p0
((lp1
(lp2
S'state'
p3
aI0
aa(lp4
S'distance'
p5
aF42.92116451263428
aa(lp6
S'timestamp'
p7
aF4.847303152084351
aatp8
Rp9
.ccollections
OrderedDict
p0
((lp1
(lp2
S'state'
p3
aI0
aa(lp4
S'distance'
p5
aF42.92116451263428
aa(lp6
S'timestamp'
p7
aF4.856940984725952
aatp8
Rp9
.ccollections
OrderedDict
p0
((lp1
(lp2
S'state'
p3
aI0
aa(lp4
S'distance'
p5
aF42.92116451263428
aa(lp6
S'timestamp'
p7
aF4.857237100601196
aatp8
Rp9
.ccollections
OrderedDict
p0
((lp1
(lp2
S'state'
p3
aI0
aa(lp4
S'distance'
p5
aF42.92116451263428
aa(lp6
S'timestamp'
p7
aF4.866883039474487
aatp8
Rp9
.ccollections
OrderedDict
p0
((lp1
(lp2
S'state'
p3
aI0
aa(lp4
S'distance'
p5
aF42.92116451263428
aa(lp6
S'timestamp'
p7
aF4.867300033569336
aatp8
Rp9
.ccollections
OrderedDict
p0
((lp1
(lp2
S'state'
p3
aI0
aa(lp4
S'distance'
p5
aF42.92116451263428
aa(lp6
S'timestamp'
p7
aF4.876974105834961
aatp8
Rp9
.ccollections
OrderedDict
p0
((lp1
(lp2
S'state'
p3
aI0
aa(lp4
S'distance'
p5
aF42.92116451263428
aa(lp6
S'timestamp'
p7
aF4.877104997634888
aatp8
Rp9
.ccollections
OrderedDict
p0
((lp1
(lp2
S'state'
p3
aI0
aa(lp4
S'distance'
p5
aF42.92116451263428
aa(lp6
S'timestamp'
p7
aF4.886826992034912
aatp8
Rp9
.ccollections
OrderedDict
p0
((lp1
(lp2
S'state'
p3
aI0
aa(lp4
S'distance'
p5
aF42.92116451263428
aa(lp6
S'timestamp'
p7
aF4.887367010116577
aatp8
Rp9
.ccollections
OrderedDict
p0
((lp1
(lp2
S'state'
p3
aI0
aa(lp4
S'distance'
p5
aF42.92116451263428
aa(lp6
S'timestamp'
p7
aF4.896790981292725
aatp8
Rp9
.ccollections
OrderedDict
p0
((lp1
(lp2
S'state'
p3
aI0
aa(lp4
S'distance'
p5
aF42.92116451263428
aa(lp6
S'timestamp'
p7
aF4.897166967391968
aatp8
Rp9
.ccollections
OrderedDict
p0
((lp1
(lp2
S'state'
p3
aI0
aa(lp4
S'distance'
p5
aF42.92116451263428
aa(lp6
S'timestamp'
p7
aF4.906979084014893
aatp8
Rp9
.ccollections
OrderedDict
p0
((lp1
(lp2
S'state'
p3
aI0
aa(lp4
S'distance'
p5
aF42.92116451263428
aa(lp6
S'timestamp'
p7
aF4.907118082046509
aatp8
Rp9
.ccollections
OrderedDict
p0
((lp1
(lp2
S'state'
p3
aI0
aa(lp4
S'distance'
p5
aF42.92116451263428
aa(lp6
S'timestamp'
p7
aF4.916995048522949
aatp8
Rp9
.ccollections
OrderedDict
p0
((lp1
(lp2
S'state'
p3
aI0
aa(lp4
S'distance'
p5
aF42.92116451263428
aa(lp6
S'timestamp'
p7
aF4.917142152786255
aatp8
Rp9
.ccollections
OrderedDict
p0
((lp1
(lp2
S'state'
p3
aI0
aa(lp4
S'distance'
p5
aF42.92116451263428
aa(lp6
S'timestamp'
p7
aF4.926753044128418
aatp8
Rp9
.ccollections
OrderedDict
p0
((lp1
(lp2
S'state'
p3
aI0
aa(lp4
S'distance'
p5
aF42.92116451263428
aa(lp6
S'timestamp'
p7
aF4.927114963531494
aatp8
Rp9
.ccollections
OrderedDict
p0
((lp1
(lp2
S'state'
p3
aI0
aa(lp4
S'distance'
p5
aF42.92116451263428
aa(lp6
S'timestamp'
p7
aF4.93678617477417
aatp8
Rp9
.ccollections
OrderedDict
p0
((lp1
(lp2
S'state'
p3
aI0
aa(lp4
S'distance'
p5
aF42.92116451263428
aa(lp6
S'timestamp'
p7
aF4.937484979629517
aatp8
Rp9
.ccollections
OrderedDict
p0
((lp1
(lp2
S'state'
p3
aI0
aa(lp4
S'distance'
p5
aF42.92116451263428
aa(lp6
S'timestamp'
p7
aF4.946820974349976
aatp8
Rp9
.ccollections
OrderedDict
p0
((lp1
(lp2
S'state'
p3
aI0
aa(lp4
S'distance'
p5
aF42.92116451263428
aa(lp6
S'timestamp'
p7
aF4.947335958480835
aatp8
Rp9
.ccollections
OrderedDict
p0
((lp1
(lp2
S'state'
p3
aI0
aa(lp4
S'distance'
p5
aF42.92116451263428
aa(lp6
S'timestamp'
p7
aF4.956779956817627
aatp8
Rp9
.ccollections
OrderedDict
p0
((lp1
(lp2
S'state'
p3
aI0
aa(lp4
S'distance'
p5
aF42.92116451263428
aa(lp6
S'timestamp'
p7
aF4.959331035614014
aatp8
Rp9
.ccollections
OrderedDict
p0
((lp1
(lp2
S'state'
p3
aI0
aa(lp4
S'distance'
p5
aF42.92116451263428
aa(lp6
S'timestamp'
p7
aF4.966977119445801
aatp8
Rp9
.ccollections
OrderedDict
p0
((lp1
(lp2
S'state'
p3
aI0
aa(lp4
S'distance'
p5
aF42.92116451263428
aa(lp6
S'timestamp'
p7
aF4.967182159423828
aatp8
Rp9
.ccollections
OrderedDict
p0
((lp1
(lp2
S'state'
p3
aI0
aa(lp4
S'distance'
p5
aF42.92116451263428
aa(lp6
S'timestamp'
p7
aF4.976663112640381
aatp8
Rp9
.ccollections
OrderedDict
p0
((lp1
(lp2
S'state'
p3
aI0
aa(lp4
S'distance'
p5
aF42.92116451263428
aa(lp6
S'timestamp'
p7
aF4.977338075637817
aatp8
Rp9
.ccollections
OrderedDict
p0
((lp1
(lp2
S'state'
p3
aI0
aa(lp4
S'distance'
p5
aF42.92116451263428
aa(lp6
S'timestamp'
p7
aF4.986971139907837
aatp8
Rp9
.ccollections
OrderedDict
p0
((lp1
(lp2
S'state'
p3
aI0
aa(lp4
S'distance'
p5
aF42.92116451263428
aa(lp6
S'timestamp'
p7
aF4.987143039703369
aatp8
Rp9
.ccollections
OrderedDict
p0
((lp1
(lp2
S'state'
p3
aI0
aa(lp4
S'distance'
p5
aF42.92116451263428
aa(lp6
S'timestamp'
p7
aF4.996855020523071
aatp8
Rp9
.ccollections
OrderedDict
p0
((lp1
(lp2
S'state'
p3
aI0
aa(lp4
S'distance'
p5
aF42.92116451263428
aa(lp6
S'timestamp'
p7
aF4.997372150421143
aatp8
Rp9
.ccollections
OrderedDict
p0
((lp1
(lp2
S'state'
p3
aI0
aa(lp4
S'distance'
p5
aF42.92116451263428
aa(lp6
S'timestamp'
p7
aF5.006991147994995
aatp8
Rp9
.ccollections
OrderedDict
p0
((lp1
(lp2
S'state'
p3
aI0
aa(lp4
S'distance'
p5
aF42.92116451263428
aa(lp6
S'timestamp'
p7
aF5.007274150848389
aatp8
Rp9
.ccollections
OrderedDict
p0
((lp1
(lp2
S'state'
p3
aI0
aa(lp4
S'distance'
p5
aF42.92116451263428
aa(lp6
S'timestamp'
p7
aF5.016540050506592
aatp8
Rp9
.ccollections
OrderedDict
p0
((lp1
(lp2
S'state'
p3
aI0
aa(lp4
S'distance'
p5
aF42.92116451263428
aa(lp6
S'timestamp'
p7
aF5.017292022705078
aatp8
Rp9
.ccollections
OrderedDict
p0
((lp1
(lp2
S'state'
p3
aI0
aa(lp4
S'distance'
p5
aF42.92116451263428
aa(lp6
S'timestamp'
p7
aF5.02699613571167
aatp8
Rp9
.ccollections
OrderedDict
p0
((lp1
(lp2
S'state'
p3
aI0
aa(lp4
S'distance'
p5
aF42.92116451263428
aa(lp6
S'timestamp'
p7
aF5.027146100997925
aatp8
Rp9
.ccollections
OrderedDict
p0
((lp1
(lp2
S'state'
p3
aI0
aa(lp4
S'distance'
p5
aF42.92116451263428
aa(lp6
S'timestamp'
p7
aF5.0366880893707275
aatp8
Rp9
.ccollections
OrderedDict
p0
((lp1
(lp2
S'state'
p3
aI0
aa(lp4
S'distance'
p5
aF42.92116451263428
aa(lp6
S'timestamp'
p7
aF5.037315130233765
aatp8
Rp9
.ccollections
OrderedDict
p0
((lp1
(lp2
S'state'
p3
aI0
aa(lp4
S'distance'
p5
aF42.92116451263428
aa(lp6
S'timestamp'
p7
aF5.046854019165039
aatp8
Rp9
.ccollections
OrderedDict
p0
((lp1
(lp2
S'state'
p3
aI0
aa(lp4
S'distance'
p5
aF42.92116451263428
aa(lp6
S'timestamp'
p7
aF5.04760217666626
aatp8
Rp9
.ccollections
OrderedDict
p0
((lp1
(lp2
S'state'
p3
aI0
aa(lp4
S'distance'
p5
aF42.92116451263428
aa(lp6
S'timestamp'
p7
aF5.056856155395508
aatp8
Rp9
.ccollections
OrderedDict
p0
((lp1
(lp2
S'state'
p3
aI0
aa(lp4
S'distance'
p5
aF42.92116451263428
aa(lp6
S'timestamp'
p7
aF5.057477951049805
aatp8
Rp9
.ccollections
OrderedDict
p0
((lp1
(lp2
S'state'
p3
aI0
aa(lp4
S'distance'
p5
aF42.92116451263428
aa(lp6
S'timestamp'
p7
aF5.067078113555908
aatp8
Rp9
.ccollections
OrderedDict
p0
((lp1
(lp2
S'state'
p3
aI0
aa(lp4
S'distance'
p5
aF42.92116451263428
aa(lp6
S'timestamp'
p7
aF5.067211151123047
aatp8
Rp9
.ccollections
OrderedDict
p0
((lp1
(lp2
S'state'
p3
aI0
aa(lp4
S'distance'
p5
aF42.92116451263428
aa(lp6
S'timestamp'
p7
aF5.076967000961304
aatp8
Rp9
.ccollections
OrderedDict
p0
((lp1
(lp2
S'state'
p3
aI0
aa(lp4
S'distance'
p5
aF42.92116451263428
aa(lp6
S'timestamp'
p7
aF5.077284097671509
aatp8
Rp9
.ccollections
OrderedDict
p0
((lp1
(lp2
S'state'
p3
aI0
aa(lp4
S'distance'
p5
aF42.92116451263428
aa(lp6
S'timestamp'
p7
aF5.086980104446411
aatp8
Rp9
.ccollections
OrderedDict
p0
((lp1
(lp2
S'state'
p3
aI0
aa(lp4
S'distance'
p5
aF42.92116451263428
aa(lp6
S'timestamp'
p7
aF5.087237119674683
aatp8
Rp9
.ccollections
OrderedDict
p0
((lp1
(lp2
S'state'
p3
aI0
aa(lp4
S'distance'
p5
aF42.92116451263428
aa(lp6
S'timestamp'
p7
aF5.0968849658966064
aatp8
Rp9
.ccollections
OrderedDict
p0
((lp1
(lp2
S'state'
p3
aI0
aa(lp4
S'distance'
p5
aF42.92116451263428
aa(lp6
S'timestamp'
p7
aF5.09728217124939
aatp8
Rp9
.ccollections
OrderedDict
p0
((lp1
(lp2
S'state'
p3
aI0
aa(lp4
S'distance'
p5
aF42.92116451263428
aa(lp6
S'timestamp'
p7
aF5.106887102127075
aatp8
Rp9
.ccollections
OrderedDict
p0
((lp1
(lp2
S'state'
p3
aI0
aa(lp4
S'distance'
p5
aF42.92116451263428
aa(lp6
S'timestamp'
p7
aF5.107295036315918
aatp8
Rp9
.ccollections
OrderedDict
p0
((lp1
(lp2
S'state'
p3
aI0
aa(lp4
S'distance'
p5
aF42.92116451263428
aa(lp6
S'timestamp'
p7
aF5.116870164871216
aatp8
Rp9
.ccollections
OrderedDict
p0
((lp1
(lp2
S'state'
p3
aI0
aa(lp4
S'distance'
p5
aF42.92116451263428
aa(lp6
S'timestamp'
p7
aF5.117238998413086
aatp8
Rp9
.ccollections
OrderedDict
p0
((lp1
(lp2
S'state'
p3
aI0
aa(lp4
S'distance'
p5
aF42.92116451263428
aa(lp6
S'timestamp'
p7
aF5.1269690990448
aatp8
Rp9
.ccollections
OrderedDict
p0
((lp1
(lp2
S'state'
p3
aI0
aa(lp4
S'distance'
p5
aF42.92116451263428
aa(lp6
S'timestamp'
p7
aF5.1272900104522705
aatp8
Rp9
.ccollections
OrderedDict
p0
((lp1
(lp2
S'state'
p3
aI0
aa(lp4
S'distance'
p5
aF42.92116451263428
aa(lp6
S'timestamp'
p7
aF5.137148141860962
aatp8
Rp9
.ccollections
OrderedDict
p0
((lp1
(lp2
S'state'
p3
aI0
aa(lp4
S'distance'
p5
aF42.92116451263428
aa(lp6
S'timestamp'
p7
aF5.1373419761657715
aatp8
Rp9
.ccollections
OrderedDict
p0
((lp1
(lp2
S'state'
p3
aI0
aa(lp4
S'distance'
p5
aF42.92116451263428
aa(lp6
S'timestamp'
p7
aF5.147464036941528
aatp8
Rp9
.ccollections
OrderedDict
p0
((lp1
(lp2
S'state'
p3
aI0
aa(lp4
S'distance'
p5
aF42.92116451263428
aa(lp6
S'timestamp'
p7
aF5.147891044616699
aatp8
Rp9
.ccollections
OrderedDict
p0
((lp1
(lp2
S'state'
p3
aI0
aa(lp4
S'distance'
p5
aF42.92116451263428
aa(lp6
S'timestamp'
p7
aF5.157031059265137
aatp8
Rp9
.ccollections
OrderedDict
p0
((lp1
(lp2
S'state'
p3
aI0
aa(lp4
S'distance'
p5
aF42.92116451263428
aa(lp6
S'timestamp'
p7
aF5.157310962677002
aatp8
Rp9
.ccollections
OrderedDict
p0
((lp1
(lp2
S'state'
p3
aI0
aa(lp4
S'distance'
p5
aF42.92116451263428
aa(lp6
S'timestamp'
p7
aF5.1668219566345215
aatp8
Rp9
.ccollections
OrderedDict
p0
((lp1
(lp2
S'state'
p3
aI0
aa(lp4
S'distance'
p5
aF42.92116451263428
aa(lp6
S'timestamp'
p7
aF5.167623043060303
aatp8
Rp9
.ccollections
OrderedDict
p0
((lp1
(lp2
S'state'
p3
aI0
aa(lp4
S'distance'
p5
aF42.92116451263428
aa(lp6
S'timestamp'
p7
aF5.176934003829956
aatp8
Rp9
.ccollections
OrderedDict
p0
((lp1
(lp2
S'state'
p3
aI0
aa(lp4
S'distance'
p5
aF42.92116451263428
aa(lp6
S'timestamp'
p7
aF5.177330017089844
aatp8
Rp9
.ccollections
OrderedDict
p0
((lp1
(lp2
S'state'
p3
aI0
aa(lp4
S'distance'
p5
aF42.92116451263428
aa(lp6
S'timestamp'
p7
aF5.186897039413452
aatp8
Rp9
.ccollections
OrderedDict
p0
((lp1
(lp2
S'state'
p3
aI0
aa(lp4
S'distance'
p5
aF42.92116451263428
aa(lp6
S'timestamp'
p7
aF5.187364101409912
aatp8
Rp9
.ccollections
OrderedDict
p0
((lp1
(lp2
S'state'
p3
aI0
aa(lp4
S'distance'
p5
aF42.92116451263428
aa(lp6
S'timestamp'
p7
aF5.197045087814331
aatp8
Rp9
.ccollections
OrderedDict
p0
((lp1
(lp2
S'state'
p3
aI0
aa(lp4
S'distance'
p5
aF42.92116451263428
aa(lp6
S'timestamp'
p7
aF5.197219133377075
aatp8
Rp9
.ccollections
OrderedDict
p0
((lp1
(lp2
S'state'
p3
aI0
aa(lp4
S'distance'
p5
aF42.92116451263428
aa(lp6
S'timestamp'
p7
aF5.20684814453125
aatp8
Rp9
.ccollections
OrderedDict
p0
((lp1
(lp2
S'state'
p3
aI0
aa(lp4
S'distance'
p5
aF42.92116451263428
aa(lp6
S'timestamp'
p7
aF5.207610130310059
aatp8
Rp9
.ccollections
OrderedDict
p0
((lp1
(lp2
S'state'
p3
aI0
aa(lp4
S'distance'
p5
aF42.92116451263428
aa(lp6
S'timestamp'
p7
aF5.216773986816406
aatp8
Rp9
.ccollections
OrderedDict
p0
((lp1
(lp2
S'state'
p3
aI0
aa(lp4
S'distance'
p5
aF42.92116451263428
aa(lp6
S'timestamp'
p7
aF5.217363119125366
aatp8
Rp9
.ccollections
OrderedDict
p0
((lp1
(lp2
S'state'
p3
aI0
aa(lp4
S'distance'
p5
aF42.92116451263428
aa(lp6
S'timestamp'
p7
aF5.22686505317688
aatp8
Rp9
.ccollections
OrderedDict
p0
((lp1
(lp2
S'state'
p3
aI0
aa(lp4
S'distance'
p5
aF42.92116451263428
aa(lp6
S'timestamp'
p7
aF5.227403163909912
aatp8
Rp9
.ccollections
OrderedDict
p0
((lp1
(lp2
S'state'
p3
aI0
aa(lp4
S'distance'
p5
aF42.92116451263428
aa(lp6
S'timestamp'
p7
aF5.236972093582153
aatp8
Rp9
.ccollections
OrderedDict
p0
((lp1
(lp2
S'state'
p3
aI0
aa(lp4
S'distance'
p5
aF42.92116451263428
aa(lp6
S'timestamp'
p7
aF5.237420082092285
aatp8
Rp9
.ccollections
OrderedDict
p0
((lp1
(lp2
S'state'
p3
aI0
aa(lp4
S'distance'
p5
aF42.92116451263428
aa(lp6
S'timestamp'
p7
aF5.247091054916382
aatp8
Rp9
.ccollections
OrderedDict
p0
((lp1
(lp2
S'state'
p3
aI0
aa(lp4
S'distance'
p5
aF42.92116451263428
aa(lp6
S'timestamp'
p7
aF5.247908115386963
aatp8
Rp9
.ccollections
OrderedDict
p0
((lp1
(lp2
S'state'
p3
aI0
aa(lp4
S'distance'
p5
aF42.92116451263428
aa(lp6
S'timestamp'
p7
aF5.256747007369995
aatp8
Rp9
.ccollections
OrderedDict
p0
((lp1
(lp2
S'state'
p3
aI0
aa(lp4
S'distance'
p5
aF42.92116451263428
aa(lp6
S'timestamp'
p7
aF5.2596001625061035
aatp8
Rp9
.ccollections
OrderedDict
p0
((lp1
(lp2
S'state'
p3
aI0
aa(lp4
S'distance'
p5
aF42.92116451263428
aa(lp6
S'timestamp'
p7
aF5.266930103302002
aatp8
Rp9
.ccollections
OrderedDict
p0
((lp1
(lp2
S'state'
p3
aI0
aa(lp4
S'distance'
p5
aF42.92116451263428
aa(lp6
S'timestamp'
p7
aF5.267539024353027
aatp8
Rp9
.ccollections
OrderedDict
p0
((lp1
(lp2
S'state'
p3
aI0
aa(lp4
S'distance'
p5
aF42.92116451263428
aa(lp6
S'timestamp'
p7
aF5.277115106582642
aatp8
Rp9
.ccollections
OrderedDict
p0
((lp1
(lp2
S'state'
p3
aI0
aa(lp4
S'distance'
p5
aF42.92116451263428
aa(lp6
S'timestamp'
p7
aF5.277240037918091
aatp8
Rp9
.ccollections
OrderedDict
p0
((lp1
(lp2
S'state'
p3
aI0
aa(lp4
S'distance'
p5
aF42.92116451263428
aa(lp6
S'timestamp'
p7
aF5.286874055862427
aatp8
Rp9
.ccollections
OrderedDict
p0
((lp1
(lp2
S'state'
p3
aI0
aa(lp4
S'distance'
p5
aF42.92116451263428
aa(lp6
S'timestamp'
p7
aF5.2872490882873535
aatp8
Rp9
.ccollections
OrderedDict
p0
((lp1
(lp2
S'state'
p3
aI0
aa(lp4
S'distance'
p5
aF42.92116451263428
aa(lp6
S'timestamp'
p7
aF5.297106027603149
aatp8
Rp9
.ccollections
OrderedDict
p0
((lp1
(lp2
S'state'
p3
aI0
aa(lp4
S'distance'
p5
aF42.92116451263428
aa(lp6
S'timestamp'
p7
aF5.297237157821655
aatp8
Rp9
.ccollections
OrderedDict
p0
((lp1
(lp2
S'state'
p3
aI0
aa(lp4
S'distance'
p5
aF42.92116451263428
aa(lp6
S'timestamp'
p7
aF5.307026147842407
aatp8
Rp9
.ccollections
OrderedDict
p0
((lp1
(lp2
S'state'
p3
aI0
aa(lp4
S'distance'
p5
aF42.92116451263428
aa(lp6
S'timestamp'
p7
aF5.307291030883789
aatp8
Rp9
.ccollections
OrderedDict
p0
((lp1
(lp2
S'state'
p3
aI0
aa(lp4
S'distance'
p5
aF42.92116451263428
aa(lp6
S'timestamp'
p7
aF5.3170201778411865
aatp8
Rp9
.ccollections
OrderedDict
p0
((lp1
(lp2
S'state'
p3
aI0
aa(lp4
S'distance'
p5
aF42.92116451263428
aa(lp6
S'timestamp'
p7
aF5.317273139953613
aatp8
Rp9
.ccollections
OrderedDict
p0
((lp1
(lp2
S'state'
p3
aI0
aa(lp4
S'distance'
p5
aF42.92116451263428
aa(lp6
S'timestamp'
p7
aF5.326992034912109
aatp8
Rp9
.ccollections
OrderedDict
p0
((lp1
(lp2
S'state'
p3
aI0
aa(lp4
S'distance'
p5
aF42.92116451263428
aa(lp6
S'timestamp'
p7
aF5.327456951141357
aatp8
Rp9
.ccollections
OrderedDict
p0
((lp1
(lp2
S'state'
p3
aI0
aa(lp4
S'distance'
p5
aF42.92116451263428
aa(lp6
S'timestamp'
p7
aF5.336913108825684
aatp8
Rp9
.ccollections
OrderedDict
p0
((lp1
(lp2
S'state'
p3
aI0
aa(lp4
S'distance'
p5
aF42.92116451263428
aa(lp6
S'timestamp'
p7
aF5.3372650146484375
aatp8
Rp9
.ccollections
OrderedDict
p0
((lp1
(lp2
S'state'
p3
aI0
aa(lp4
S'distance'
p5
aF42.92116451263428
aa(lp6
S'timestamp'
p7
aF5.347064018249512
aatp8
Rp9
.ccollections
OrderedDict
p0
((lp1
(lp2
S'state'
p3
aI0
aa(lp4
S'distance'
p5
aF42.92116451263428
aa(lp6
S'timestamp'
p7
aF5.347275018692017
aatp8
Rp9
.ccollections
OrderedDict
p0
((lp1
(lp2
S'state'
p3
aI0
aa(lp4
S'distance'
p5
aF42.92116451263428
aa(lp6
S'timestamp'
p7
aF5.357095956802368
aatp8
Rp9
.ccollections
OrderedDict
p0
((lp1
(lp2
S'state'
p3
aI0
aa(lp4
S'distance'
p5
aF42.92116451263428
aa(lp6
S'timestamp'
p7
aF5.357223033905029
aatp8
Rp9
.ccollections
OrderedDict
p0
((lp1
(lp2
S'state'
p3
aI0
aa(lp4
S'distance'
p5
aF42.92116451263428
aa(lp6
S'timestamp'
p7
aF5.367062091827393
aatp8
Rp9
.ccollections
OrderedDict
p0
((lp1
(lp2
S'state'
p3
aI0
aa(lp4
S'distance'
p5
aF42.92116451263428
aa(lp6
S'timestamp'
p7
aF5.3672521114349365
aatp8
Rp9
.ccollections
OrderedDict
p0
((lp1
(lp2
S'state'
p3
aI0
aa(lp4
S'distance'
p5
aF42.92116451263428
aa(lp6
S'timestamp'
p7
aF5.377057075500488
aatp8
Rp9
.ccollections
OrderedDict
p0
((lp1
(lp2
S'state'
p3
aI0
aa(lp4
S'distance'
p5
aF42.92116451263428
aa(lp6
S'timestamp'
p7
aF5.377283096313477
aatp8
Rp9
.ccollections
OrderedDict
p0
((lp1
(lp2
S'state'
p3
aI0
aa(lp4
S'distance'
p5
aF42.92116451263428
aa(lp6
S'timestamp'
p7
aF5.387105941772461
aatp8
Rp9
.ccollections
OrderedDict
p0
((lp1
(lp2
S'state'
p3
aI0
aa(lp4
S'distance'
p5
aF42.92116451263428
aa(lp6
S'timestamp'
p7
aF5.387232065200806
aatp8
Rp9
.ccollections
OrderedDict
p0
((lp1
(lp2
S'state'
p3
aI0
aa(lp4
S'distance'
p5
aF42.92116451263428
aa(lp6
S'timestamp'
p7
aF5.39710807800293
aatp8
Rp9
.ccollections
OrderedDict
p0
((lp1
(lp2
S'state'
p3
aI0
aa(lp4
S'distance'
p5
aF42.92116451263428
aa(lp6
S'timestamp'
p7
aF5.397245168685913
aatp8
Rp9
.ccollections
OrderedDict
p0
((lp1
(lp2
S'state'
p3
aI0
aa(lp4
S'distance'
p5
aF42.92116451263428
aa(lp6
S'timestamp'
p7
aF5.407058954238892
aatp8
Rp9
.ccollections
OrderedDict
p0
((lp1
(lp2
S'state'
p3
aI0
aa(lp4
S'distance'
p5
aF42.92116451263428
aa(lp6
S'timestamp'
p7
aF5.407273054122925
aatp8
Rp9
.ccollections
OrderedDict
p0
((lp1
(lp2
S'state'
p3
aI0
aa(lp4
S'distance'
p5
aF42.92116451263428
aa(lp6
S'timestamp'
p7
aF5.418677091598511
aatp8
Rp9
.ccollections
OrderedDict
p0
((lp1
(lp2
S'state'
p3
aI0
aa(lp4
S'distance'
p5
aF42.92116451263428
aa(lp6
S'timestamp'
p7
aF5.419914960861206
aatp8
Rp9
.ccollections
OrderedDict
p0
((lp1
(lp2
S'state'
p3
aI0
aa(lp4
S'distance'
p5
aF42.92116451263428
aa(lp6
S'timestamp'
p7
aF5.427066087722778
aatp8
Rp9
.ccollections
OrderedDict
p0
((lp1
(lp2
S'state'
p3
aI0
aa(lp4
S'distance'
p5
aF42.92116451263428
aa(lp6
S'timestamp'
p7
aF5.427199125289917
aatp8
Rp9
.ccollections
OrderedDict
p0
((lp1
(lp2
S'state'
p3
aI0
aa(lp4
S'distance'
p5
aF42.92116451263428
aa(lp6
S'timestamp'
p7
aF5.437237024307251
aatp8
Rp9
.ccollections
OrderedDict
p0
((lp1
(lp2
S'state'
p3
aI0
aa(lp4
S'distance'
p5
aF42.92116451263428
aa(lp6
S'timestamp'
p7
aF5.437395095825195
aatp8
Rp9
.ccollections
OrderedDict
p0
((lp1
(lp2
S'state'
p3
aI0
aa(lp4
S'distance'
p5
aF42.92116451263428
aa(lp6
S'timestamp'
p7
aF5.447082042694092
aatp8
Rp9
.ccollections
OrderedDict
p0
((lp1
(lp2
S'state'
p3
aI0
aa(lp4
S'distance'
p5
aF42.92116451263428
aa(lp6
S'timestamp'
p7
aF5.447277069091797
aatp8
Rp9
.ccollections
OrderedDict
p0
((lp1
(lp2
S'state'
p3
aI0
aa(lp4
S'distance'
p5
aF42.92116451263428
aa(lp6
S'timestamp'
p7
aF5.457045078277588
aatp8
Rp9
.ccollections
OrderedDict
p0
((lp1
(lp2
S'state'
p3
aI0
aa(lp4
S'distance'
p5
aF42.92116451263428
aa(lp6
S'timestamp'
p7
aF5.457308053970337
aatp8
Rp9
.ccollections
OrderedDict
p0
((lp1
(lp2
S'state'
p3
aI0
aa(lp4
S'distance'
p5
aF42.92116451263428
aa(lp6
S'timestamp'
p7
aF5.466926097869873
aatp8
Rp9
.ccollections
OrderedDict
p0
((lp1
(lp2
S'state'
p3
aI0
aa(lp4
S'distance'
p5
aF42.92116451263428
aa(lp6
S'timestamp'
p7
aF5.477067947387695
aatp8
Rp9
.ccollections
OrderedDict
p0
((lp1
(lp2
S'state'
p3
aI0
aa(lp4
S'distance'
p5
aF42.92116451263428
aa(lp6
S'timestamp'
p7
aF5.477189064025879
aatp8
Rp9
.ccollections
OrderedDict
p0
((lp1
(lp2
S'state'
p3
aI0
aa(lp4
S'distance'
p5
aF42.92116451263428
aa(lp6
S'timestamp'
p7
aF5.47807502746582
aatp8
Rp9
.ccollections
OrderedDict
p0
((lp1
(lp2
S'state'
p3
aI0
aa(lp4
S'distance'
p5
aF42.92116451263428
aa(lp6
S'timestamp'
p7
aF5.48670506477356
aatp8
Rp9
.ccollections
OrderedDict
p0
((lp1
(lp2
S'state'
p3
aI0
aa(lp4
S'distance'
p5
aF42.92116451263428
aa(lp6
S'timestamp'
p7
aF5.487504005432129
aatp8
Rp9
.ccollections
OrderedDict
p0
((lp1
(lp2
S'state'
p3
aI0
aa(lp4
S'distance'
p5
aF42.92116451263428
aa(lp6
S'timestamp'
p7
aF5.497023105621338
aatp8
Rp9
.ccollections
OrderedDict
p0
((lp1
(lp2
S'state'
p3
aI0
aa(lp4
S'distance'
p5
aF42.92116451263428
aa(lp6
S'timestamp'
p7
aF5.497671127319336
aatp8
Rp9
.ccollections
OrderedDict
p0
((lp1
(lp2
S'state'
p3
aI0
aa(lp4
S'distance'
p5
aF42.92116451263428
aa(lp6
S'timestamp'
p7
aF5.507342100143433
aatp8
Rp9
.ccollections
OrderedDict
p0
((lp1
(lp2
S'state'
p3
aI0
aa(lp4
S'distance'
p5
aF42.92116451263428
aa(lp6
S'timestamp'
p7
aF5.507488965988159
aatp8
Rp9
.ccollections
OrderedDict
p0
((lp1
(lp2
S'state'
p3
aI0
aa(lp4
S'distance'
p5
aF42.92116451263428
aa(lp6
S'timestamp'
p7
aF5.517141103744507
aatp8
Rp9
.ccollections
OrderedDict
p0
((lp1
(lp2
S'state'
p3
aI0
aa(lp4
S'distance'
p5
aF42.92116451263428
aa(lp6
S'timestamp'
p7
aF5.517258167266846
aatp8
Rp9
.ccollections
OrderedDict
p0
((lp1
(lp2
S'state'
p3
aI0
aa(lp4
S'distance'
p5
aF42.92116451263428
aa(lp6
S'timestamp'
p7
aF5.527083158493042
aatp8
Rp9
.ccollections
OrderedDict
p0
((lp1
(lp2
S'state'
p3
aI0
aa(lp4
S'distance'
p5
aF42.92116451263428
aa(lp6
S'timestamp'
p7
aF5.527302980422974
aatp8
Rp9
.ccollections
OrderedDict
p0
((lp1
(lp2
S'state'
p3
aI0
aa(lp4
S'distance'
p5
aF42.92116451263428
aa(lp6
S'timestamp'
p7
aF5.5369861125946045
aatp8
Rp9
.ccollections
OrderedDict
p0
((lp1
(lp2
S'state'
p3
aI0
aa(lp4
S'distance'
p5
aF42.92116451263428
aa(lp6
S'timestamp'
p7
aF5.5373899936676025
aatp8
Rp9
.ccollections
OrderedDict
p0
((lp1
(lp2
S'state'
p3
aI0
aa(lp4
S'distance'
p5
aF42.92116451263428
aa(lp6
S'timestamp'
p7
aF5.546929121017456
aatp8
Rp9
.ccollections
OrderedDict
p0
((lp1
(lp2
S'state'
p3
aI0
aa(lp4
S'distance'
p5
aF42.92116451263428
aa(lp6
S'timestamp'
p7
aF5.547353982925415
aatp8
Rp9
.ccollections
OrderedDict
p0
((lp1
(lp2
S'state'
p3
aI0
aa(lp4
S'distance'
p5
aF42.92116451263428
aa(lp6
S'timestamp'
p7
aF5.557276010513306
aatp8
Rp9
.ccollections
OrderedDict
p0
((lp1
(lp2
S'state'
p3
aI0
aa(lp4
S'distance'
p5
aF42.92116451263428
aa(lp6
S'timestamp'
p7
aF5.557492971420288
aatp8
Rp9
.ccollections
OrderedDict
p0
((lp1
(lp2
S'state'
p3
aI0
aa(lp4
S'distance'
p5
aF42.92116451263428
aa(lp6
S'timestamp'
p7
aF5.567090034484863
aatp8
Rp9
.ccollections
OrderedDict
p0
((lp1
(lp2
S'state'
p3
aI0
aa(lp4
S'distance'
p5
aF42.92116451263428
aa(lp6
S'timestamp'
p7
aF5.567255020141602
aatp8
Rp9
.ccollections
OrderedDict
p0
((lp1
(lp2
S'state'
p3
aI0
aa(lp4
S'distance'
p5
aF42.92116451263428
aa(lp6
S'timestamp'
p7
aF5.577155113220215
aatp8
Rp9
.ccollections
OrderedDict
p0
((lp1
(lp2
S'state'
p3
aI0
aa(lp4
S'distance'
p5
aF42.92116451263428
aa(lp6
S'timestamp'
p7
aF5.577285051345825
aatp8
Rp9
.ccollections
OrderedDict
p0
((lp1
(lp2
S'state'
p3
aI0
aa(lp4
S'distance'
p5
aF42.92116451263428
aa(lp6
S'timestamp'
p7
aF5.587041139602661
aatp8
Rp9
.ccollections
OrderedDict
p0
((lp1
(lp2
S'state'
p3
aI0
aa(lp4
S'distance'
p5
aF42.92116451263428
aa(lp6
S'timestamp'
p7
aF5.587471008300781
aatp8
Rp9
.ccollections
OrderedDict
p0
((lp1
(lp2
S'state'
p3
aI0
aa(lp4
S'distance'
p5
aF42.92116451263428
aa(lp6
S'timestamp'
p7
aF5.597164154052734
aatp8
Rp9
.ccollections
OrderedDict
p0
((lp1
(lp2
S'state'
p3
aI0
aa(lp4
S'distance'
p5
aF42.92116451263428
aa(lp6
S'timestamp'
p7
aF5.597290992736816
aatp8
Rp9
.ccollections
OrderedDict
p0
((lp1
(lp2
S'state'
p3
aI0
aa(lp4
S'distance'
p5
aF42.92116451263428
aa(lp6
S'timestamp'
p7
aF5.606997966766357
aatp8
Rp9
.ccollections
OrderedDict
p0
((lp1
(lp2
S'state'
p3
aI0
aa(lp4
S'distance'
p5
aF42.92116451263428
aa(lp6
S'timestamp'
p7
aF5.60733699798584
aatp8
Rp9
.ccollections
OrderedDict
p0
((lp1
(lp2
S'state'
p3
aI0
aa(lp4
S'distance'
p5
aF42.92116451263428
aa(lp6
S'timestamp'
p7
aF5.617154121398926
aatp8
Rp9
.ccollections
OrderedDict
p0
((lp1
(lp2
S'state'
p3
aI0
aa(lp4
S'distance'
p5
aF42.92116451263428
aa(lp6
S'timestamp'
p7
aF5.617305040359497
aatp8
Rp9
.ccollections
OrderedDict
p0
((lp1
(lp2
S'state'
p3
aI0
aa(lp4
S'distance'
p5
aF42.92116451263428
aa(lp6
S'timestamp'
p7
aF5.627092123031616
aatp8
Rp9
.ccollections
OrderedDict
p0
((lp1
(lp2
S'state'
p3
aI0
aa(lp4
S'distance'
p5
aF42.92116451263428
aa(lp6
S'timestamp'
p7
aF5.6273579597473145
aatp8
Rp9
.ccollections
OrderedDict
p0
((lp1
(lp2
S'state'
p3
aI0
aa(lp4
S'distance'
p5
aF42.92116451263428
aa(lp6
S'timestamp'
p7
aF5.637310028076172
aatp8
Rp9
.ccollections
OrderedDict
p0
((lp1
(lp2
S'state'
p3
aI0
aa(lp4
S'distance'
p5
aF42.92116451263428
aa(lp6
S'timestamp'
p7
aF5.637789964675903
aatp8
Rp9
.ccollections
OrderedDict
p0
((lp1
(lp2
S'state'
p3
aI0
aa(lp4
S'distance'
p5
aF42.92116451263428
aa(lp6
S'timestamp'
p7
aF5.6471099853515625
aatp8
Rp9
.ccollections
OrderedDict
p0
((lp1
(lp2
S'state'
p3
aI0
aa(lp4
S'distance'
p5
aF42.92116451263428
aa(lp6
S'timestamp'
p7
aF5.64732813835144
aatp8
Rp9
.ccollections
OrderedDict
p0
((lp1
(lp2
S'state'
p3
aI0
aa(lp4
S'distance'
p5
aF42.92116451263428
aa(lp6
S'timestamp'
p7
aF5.656964063644409
aatp8
Rp9
.ccollections
OrderedDict
p0
((lp1
(lp2
S'state'
p3
aI0
aa(lp4
S'distance'
p5
aF42.92116451263428
aa(lp6
S'timestamp'
p7
aF5.657500982284546
aatp8
Rp9
.ccollections
OrderedDict
p0
((lp1
(lp2
S'state'
p3
aI0
aa(lp4
S'distance'
p5
aF42.92116451263428
aa(lp6
S'timestamp'
p7
aF5.6672279834747314
aatp8
Rp9
.ccollections
OrderedDict
p0
((lp1
(lp2
S'state'
p3
aI0
aa(lp4
S'distance'
p5
aF42.92116451263428
aa(lp6
S'timestamp'
p7
aF5.667372941970825
aatp8
Rp9
.ccollections
OrderedDict
p0
((lp1
(lp2
S'state'
p3
aI0
aa(lp4
S'distance'
p5
aF42.92116451263428
aa(lp6
S'timestamp'
p7
aF5.677112102508545
aatp8
Rp9
.ccollections
OrderedDict
p0
((lp1
(lp2
S'state'
p3
aI0
aa(lp4
S'distance'
p5
aF42.92116451263428
aa(lp6
S'timestamp'
p7
aF5.677536964416504
aatp8
Rp9
.ccollections
OrderedDict
p0
((lp1
(lp2
S'state'
p3
aI0
aa(lp4
S'distance'
p5
aF42.92116451263428
aa(lp6
S'timestamp'
p7
aF5.687129974365234
aatp8
Rp9
.ccollections
OrderedDict
p0
((lp1
(lp2
S'state'
p3
aI0
aa(lp4
S'distance'
p5
aF42.92116451263428
aa(lp6
S'timestamp'
p7
aF5.6873180866241455
aatp8
Rp9
.ccollections
OrderedDict
p0
((lp1
(lp2
S'state'
p3
aI0
aa(lp4
S'distance'
p5
aF42.92116451263428
aa(lp6
S'timestamp'
p7
aF5.697113990783691
aatp8
Rp9
.ccollections
OrderedDict
p0
((lp1
(lp2
S'state'
p3
aI0
aa(lp4
S'distance'
p5
aF42.92116451263428
aa(lp6
S'timestamp'
p7
aF5.697710990905762
aatp8
Rp9
.ccollections
OrderedDict
p0
((lp1
(lp2
S'state'
p3
aI0
aa(lp4
S'distance'
p5
aF42.92116451263428
aa(lp6
S'timestamp'
p7
aF5.7071449756622314
aatp8
Rp9
.ccollections
OrderedDict
p0
((lp1
(lp2
S'state'
p3
aI0
aa(lp4
S'distance'
p5
aF42.92116451263428
aa(lp6
S'timestamp'
p7
aF5.707314968109131
aatp8
Rp9
.ccollections
OrderedDict
p0
((lp1
(lp2
S'state'
p3
aI0
aa(lp4
S'distance'
p5
aF42.92116451263428
aa(lp6
S'timestamp'
p7
aF5.717132091522217
aatp8
Rp9
.ccollections
OrderedDict
p0
((lp1
(lp2
S'state'
p3
aI0
aa(lp4
S'distance'
p5
aF42.92116451263428
aa(lp6
S'timestamp'
p7
aF5.71734094619751
aatp8
Rp9
.ccollections
OrderedDict
p0
((lp1
(lp2
S'state'
p3
aI0
aa(lp4
S'distance'
p5
aF42.92116451263428
aa(lp6
S'timestamp'
p7
aF5.727030992507935
aatp8
Rp9
.ccollections
OrderedDict
p0
((lp1
(lp2
S'state'
p3
aI0
aa(lp4
S'distance'
p5
aF42.92116451263428
aa(lp6
S'timestamp'
p7
aF5.727421998977661
aatp8
Rp9
.ccollections
OrderedDict
p0
((lp1
(lp2
S'state'
p3
aI0
aa(lp4
S'distance'
p5
aF42.92116451263428
aa(lp6
S'timestamp'
p7
aF5.7371721267700195
aatp8
Rp9
.ccollections
OrderedDict
p0
((lp1
(lp2
S'state'
p3
aI0
aa(lp4
S'distance'
p5
aF42.92116451263428
aa(lp6
S'timestamp'
p7
aF5.737421989440918
aatp8
Rp9
.ccollections
OrderedDict
p0
((lp1
(lp2
S'state'
p3
aI0
aa(lp4
S'distance'
p5
aF42.92116451263428
aa(lp6
S'timestamp'
p7
aF5.747209072113037
aatp8
Rp9
.ccollections
OrderedDict
p0
((lp1
(lp2
S'state'
p3
aI0
aa(lp4
S'distance'
p5
aF42.92116451263428
aa(lp6
S'timestamp'
p7
aF5.747342109680176
aatp8
Rp9
.ccollections
OrderedDict
p0
((lp1
(lp2
S'state'
p3
aI0
aa(lp4
S'distance'
p5
aF42.92116451263428
aa(lp6
S'timestamp'
p7
aF5.75705099105835
aatp8
Rp9
.ccollections
OrderedDict
p0
((lp1
(lp2
S'state'
p3
aI0
aa(lp4
S'distance'
p5
aF42.92116451263428
aa(lp6
S'timestamp'
p7
aF5.757503986358643
aatp8
Rp9
.ccollections
OrderedDict
p0
((lp1
(lp2
S'state'
p3
aI0
aa(lp4
S'distance'
p5
aF42.92116451263428
aa(lp6
S'timestamp'
p7
aF5.767127990722656
aatp8
Rp9
.ccollections
OrderedDict
p0
((lp1
(lp2
S'state'
p3
aI0
aa(lp4
S'distance'
p5
aF42.92116451263428
aa(lp6
S'timestamp'
p7
aF5.767388105392456
aatp8
Rp9
.ccollections
OrderedDict
p0
((lp1
(lp2
S'state'
p3
aI0
aa(lp4
S'distance'
p5
aF42.92116451263428
aa(lp6
S'timestamp'
p7
aF5.787178039550781
aatp8
Rp9
.ccollections
OrderedDict
p0
((lp1
(lp2
S'state'
p3
aI0
aa(lp4
S'distance'
p5
aF42.92116451263428
aa(lp6
S'timestamp'
p7
aF5.788083076477051
aatp8
Rp9
.ccollections
OrderedDict
p0
((lp1
(lp2
S'state'
p3
aI0
aa(lp4
S'distance'
p5
aF42.92116451263428
aa(lp6
S'timestamp'
p7
aF5.789725065231323
aatp8
Rp9
.ccollections
OrderedDict
p0
((lp1
(lp2
S'state'
p3
aI0
aa(lp4
S'distance'
p5
aF42.92116451263428
aa(lp6
S'timestamp'
p7
aF5.790847063064575
aatp8
Rp9
.ccollections
OrderedDict
p0
((lp1
(lp2
S'state'
p3
aI0
aa(lp4
S'distance'
p5
aF42.92116451263428
aa(lp6
S'timestamp'
p7
aF5.797178030014038
aatp8
Rp9
.ccollections
OrderedDict
p0
((lp1
(lp2
S'state'
p3
aI0
aa(lp4
S'distance'
p5
aF42.92116451263428
aa(lp6
S'timestamp'
p7
aF5.797306060791016
aatp8
Rp9
.ccollections
OrderedDict
p0
((lp1
(lp2
S'state'
p3
aI0
aa(lp4
S'distance'
p5
aF42.92116451263428
aa(lp6
S'timestamp'
p7
aF5.807054042816162
aatp8
Rp9
.ccollections
OrderedDict
p0
((lp1
(lp2
S'state'
p3
aI0
aa(lp4
S'distance'
p5
aF42.92116451263428
aa(lp6
S'timestamp'
p7
aF5.807446002960205
aatp8
Rp9
.ccollections
OrderedDict
p0
((lp1
(lp2
S'state'
p3
aI0
aa(lp4
S'distance'
p5
aF42.92116451263428
aa(lp6
S'timestamp'
p7
aF5.817166090011597
aatp8
Rp9
.ccollections
OrderedDict
p0
((lp1
(lp2
S'state'
p3
aI0
aa(lp4
S'distance'
p5
aF42.92116451263428
aa(lp6
S'timestamp'
p7
aF5.817363023757935
aatp8
Rp9
.ccollections
OrderedDict
p0
((lp1
(lp2
S'state'
p3
aI0
aa(lp4
S'distance'
p5
aF42.92116451263428
aa(lp6
S'timestamp'
p7
aF5.827043056488037
aatp8
Rp9
.ccollections
OrderedDict
p0
((lp1
(lp2
S'state'
p3
aI0
aa(lp4
S'distance'
p5
aF42.92116451263428
aa(lp6
S'timestamp'
p7
aF5.827497959136963
aatp8
Rp9
.ccollections
OrderedDict
p0
((lp1
(lp2
S'state'
p3
aI0
aa(lp4
S'distance'
p5
aF42.92116451263428
aa(lp6
S'timestamp'
p7
aF5.8371710777282715
aatp8
Rp9
.ccollections
OrderedDict
p0
((lp1
(lp2
S'state'
p3
aI0
aa(lp4
S'distance'
p5
aF42.92116451263428
aa(lp6
S'timestamp'
p7
aF5.8374481201171875
aatp8
Rp9
.ccollections
OrderedDict
p0
((lp1
(lp2
S'state'
p3
aI0
aa(lp4
S'distance'
p5
aF42.92116451263428
aa(lp6
S'timestamp'
p7
aF5.84714412689209
aatp8
Rp9
.ccollections
OrderedDict
p0
((lp1
(lp2
S'state'
p3
aI0
aa(lp4
S'distance'
p5
aF42.92116451263428
aa(lp6
S'timestamp'
p7
aF5.847377061843872
aatp8
Rp9
.ccollections
OrderedDict
p0
((lp1
(lp2
S'state'
p3
aI0
aa(lp4
S'distance'
p5
aF42.92116451263428
aa(lp6
S'timestamp'
p7
aF5.857218027114868
aatp8
Rp9
.ccollections
OrderedDict
p0
((lp1
(lp2
S'state'
p3
aI0
aa(lp4
S'distance'
p5
aF42.92116451263428
aa(lp6
S'timestamp'
p7
aF5.857341051101685
aatp8
Rp9
.ccollections
OrderedDict
p0
((lp1
(lp2
S'state'
p3
aI0
aa(lp4
S'distance'
p5
aF42.92116451263428
aa(lp6
S'timestamp'
p7
aF5.867061138153076
aatp8
Rp9
.ccollections
OrderedDict
p0
((lp1
(lp2
S'state'
p3
aI0
aa(lp4
S'distance'
p5
aF42.92116451263428
aa(lp6
S'timestamp'
p7
aF5.867486953735352
aatp8
Rp9
.ccollections
OrderedDict
p0
((lp1
(lp2
S'state'
p3
aI0
aa(lp4
S'distance'
p5
aF42.92116451263428
aa(lp6
S'timestamp'
p7
aF5.877172946929932
aatp8
Rp9
.ccollections
OrderedDict
p0
((lp1
(lp2
S'state'
p3
aI0
aa(lp4
S'distance'
p5
aF42.92116451263428
aa(lp6
S'timestamp'
p7
aF5.877402067184448
aatp8
Rp9
.ccollections
OrderedDict
p0
((lp1
(lp2
S'state'
p3
aI0
aa(lp4
S'distance'
p5
aF42.92116451263428
aa(lp6
S'timestamp'
p7
aF5.887338161468506
aatp8
Rp9
.ccollections
OrderedDict
p0
((lp1
(lp2
S'state'
p3
aI0
aa(lp4
S'distance'
p5
aF42.92116451263428
aa(lp6
S'timestamp'
p7
aF5.887499094009399
aatp8
Rp9
.ccollections
OrderedDict
p0
((lp1
(lp2
S'state'
p3
aI0
aa(lp4
S'distance'
p5
aF42.92116451263428
aa(lp6
S'timestamp'
p7
aF5.897150039672852
aatp8
Rp9
.ccollections
OrderedDict
p0
((lp1
(lp2
S'state'
p3
aI0
aa(lp4
S'distance'
p5
aF42.92116451263428
aa(lp6
S'timestamp'
p7
aF5.897464036941528
aatp8
Rp9
.ccollections
OrderedDict
p0
((lp1
(lp2
S'state'
p3
aI0
aa(lp4
S'distance'
p5
aF42.92116451263428
aa(lp6
S'timestamp'
p7
aF5.907166957855225
aatp8
Rp9
.ccollections
OrderedDict
p0
((lp1
(lp2
S'state'
p3
aI0
aa(lp4
S'distance'
p5
aF42.92116451263428
aa(lp6
S'timestamp'
p7
aF5.907402992248535
aatp8
Rp9
.ccollections
OrderedDict
p0
((lp1
(lp2
S'state'
p3
aI0
aa(lp4
S'distance'
p5
aF42.92116451263428
aa(lp6
S'timestamp'
p7
aF5.917201042175293
aatp8
Rp9
.ccollections
OrderedDict
p0
((lp1
(lp2
S'state'
p3
aI0
aa(lp4
S'distance'
p5
aF42.92116451263428
aa(lp6
S'timestamp'
p7
aF5.917334079742432
aatp8
Rp9
.ccollections
OrderedDict
p0
((lp1
(lp2
S'state'
p3
aI0
aa(lp4
S'distance'
p5
aF42.92116451263428
aa(lp6
S'timestamp'
p7
aF5.927209138870239
aatp8
Rp9
.ccollections
OrderedDict
p0
((lp1
(lp2
S'state'
p3
aI0
aa(lp4
S'distance'
p5
aF42.92116451263428
aa(lp6
S'timestamp'
p7
aF5.927356958389282
aatp8
Rp9
.ccollections
OrderedDict
p0
((lp1
(lp2
S'state'
p3
aI0
aa(lp4
S'distance'
p5
aF42.92116451263428
aa(lp6
S'timestamp'
p7
aF5.937296152114868
aatp8
Rp9
.ccollections
OrderedDict
p0
((lp1
(lp2
S'state'
p3
aI0
aa(lp4
S'distance'
p5
aF42.92116451263428
aa(lp6
S'timestamp'
p7
aF5.937467098236084
aatp8
Rp9
.ccollections
OrderedDict
p0
((lp1
(lp2
S'state'
p3
aI0
aa(lp4
S'distance'
p5
aF42.92116451263428
aa(lp6
S'timestamp'
p7
aF5.947077989578247
aatp8
Rp9
.ccollections
OrderedDict
p0
((lp1
(lp2
S'state'
p3
aI0
aa(lp4
S'distance'
p5
aF42.92116451263428
aa(lp6
S'timestamp'
p7
aF5.947468042373657
aatp8
Rp9
.ccollections
OrderedDict
p0
((lp1
(lp2
S'state'
p3
aI0
aa(lp4
S'distance'
p5
aF42.92116451263428
aa(lp6
S'timestamp'
p7
aF5.957236051559448
aatp8
Rp9
.ccollections
OrderedDict
p0
((lp1
(lp2
S'state'
p3
aI0
aa(lp4
S'distance'
p5
aF42.92116451263428
aa(lp6
S'timestamp'
p7
aF5.95738410949707
aatp8
Rp9
.ccollections
OrderedDict
p0
((lp1
(lp2
S'state'
p3
aI0
aa(lp4
S'distance'
p5
aF42.92116451263428
aa(lp6
S'timestamp'
p7
aF5.96723198890686
aatp8
Rp9
.ccollections
OrderedDict
p0
((lp1
(lp2
S'state'
p3
aI0
aa(lp4
S'distance'
p5
aF42.92116451263428
aa(lp6
S'timestamp'
p7
aF5.9673590660095215
aatp8
Rp9
.ccollections
OrderedDict
p0
((lp1
(lp2
S'state'
p3
aI0
aa(lp4
S'distance'
p5
aF42.92116451263428
aa(lp6
S'timestamp'
p7
aF5.977524042129517
aatp8
Rp9
.ccollections
OrderedDict
p0
((lp1
(lp2
S'state'
p3
aI0
aa(lp4
S'distance'
p5
aF42.92116451263428
aa(lp6
S'timestamp'
p7
aF5.978332042694092
aatp8
Rp9
.ccollections
OrderedDict
p0
((lp1
(lp2
S'state'
p3
aI0
aa(lp4
S'distance'
p5
aF42.92116451263428
aa(lp6
S'timestamp'
p7
aF5.98703408241272
aatp8
Rp9
.ccollections
OrderedDict
p0
((lp1
(lp2
S'state'
p3
aI0
aa(lp4
S'distance'
p5
aF42.92116451263428
aa(lp6
S'timestamp'
p7
aF5.987874984741211
aatp8
Rp9
.ccollections
OrderedDict
p0
((lp1
(lp2
S'state'
p3
aI0
aa(lp4
S'distance'
p5
aF42.92116451263428
aa(lp6
S'timestamp'
p7
aF5.997189044952393
aatp8
Rp9
.ccollections
OrderedDict
p0
((lp1
(lp2
S'state'
p3
aI0
aa(lp4
S'distance'
p5
aF42.92116451263428
aa(lp6
S'timestamp'
p7
aF5.9975080490112305
aatp8
Rp9
.ccollections
OrderedDict
p0
((lp1
(lp2
S'state'
p3
aI0
aa(lp4
S'distance'
p5
aF42.92116451263428
aa(lp6
S'timestamp'
p7
aF6.0069310665130615
aatp8
Rp9
.ccollections
OrderedDict
p0
((lp1
(lp2
S'state'
p3
aI0
aa(lp4
S'distance'
p5
aF42.92116451263428
aa(lp6
S'timestamp'
p7
aF6.007765054702759
aatp8
Rp9
.ccollections
OrderedDict
p0
((lp1
(lp2
S'state'
p3
aI0
aa(lp4
S'distance'
p5
aF42.92116451263428
aa(lp6
S'timestamp'
p7
aF6.018049955368042
aatp8
Rp9
.ccollections
OrderedDict
p0
((lp1
(lp2
S'state'
p3
aI0
aa(lp4
S'distance'
p5
aF42.92116451263428
aa(lp6
S'timestamp'
p7
aF6.0184571743011475
aatp8
Rp9
.ccollections
OrderedDict
p0
((lp1
(lp2
S'state'
p3
aI0
aa(lp4
S'distance'
p5
aF42.92116451263428
aa(lp6
S'timestamp'
p7
aF6.027327060699463
aatp8
Rp9
.ccollections
OrderedDict
p0
((lp1
(lp2
S'state'
p3
aI0
aa(lp4
S'distance'
p5
aF42.92116451263428
aa(lp6
S'timestamp'
p7
aF6.027480125427246
aatp8
Rp9
.ccollections
OrderedDict
p0
((lp1
(lp2
S'state'
p3
aI0
aa(lp4
S'distance'
p5
aF42.92116451263428
aa(lp6
S'timestamp'
p7
aF6.037225961685181
aatp8
Rp9
.ccollections
OrderedDict
p0
((lp1
(lp2
S'state'
p3
aI0
aa(lp4
S'distance'
p5
aF42.92116451263428
aa(lp6
S'timestamp'
p7
aF6.037379026412964
aatp8
Rp9
.ccollections
OrderedDict
p0
((lp1
(lp2
S'state'
p3
aI0
aa(lp4
S'distance'
p5
aF42.92116451263428
aa(lp6
S'timestamp'
p7
aF6.047206163406372
aatp8
Rp9
.ccollections
OrderedDict
p0
((lp1
(lp2
S'state'
p3
aI0
aa(lp4
S'distance'
p5
aF42.92116451263428
aa(lp6
S'timestamp'
p7
aF6.047400951385498
aatp8
Rp9
.ccollections
OrderedDict
p0
((lp1
(lp2
S'state'
p3
aI0
aa(lp4
S'distance'
p5
aF42.92116451263428
aa(lp6
S'timestamp'
p7
aF6.0571839809417725
aatp8
Rp9
.ccollections
OrderedDict
p0
((lp1
(lp2
S'state'
p3
aI0
aa(lp4
S'distance'
p5
aF42.92116451263428
aa(lp6
S'timestamp'
p7
aF6.0575480461120605
aatp8
Rp9
.ccollections
OrderedDict
p0
((lp1
(lp2
S'state'
p3
aI0
aa(lp4
S'distance'
p5
aF42.92116451263428
aa(lp6
S'timestamp'
p7
aF6.067721128463745
aatp8
Rp9
.ccollections
OrderedDict
p0
((lp1
(lp2
S'state'
p3
aI0
aa(lp4
S'distance'
p5
aF42.92116451263428
aa(lp6
S'timestamp'
p7
aF6.068288087844849
aatp8
Rp9
.ccollections
OrderedDict
p0
((lp1
(lp2
S'state'
p3
aI0
aa(lp4
S'distance'
p5
aF42.92116451263428
aa(lp6
S'timestamp'
p7
aF6.0771119594573975
aatp8
Rp9
.ccollections
OrderedDict
p0
((lp1
(lp2
S'state'
p3
aI0
aa(lp4
S'distance'
p5
aF42.92116451263428
aa(lp6
S'timestamp'
p7
aF6.077440977096558
aatp8
Rp9
.ccollections
OrderedDict
p0
((lp1
(lp2
S'state'
p3
aI0
aa(lp4
S'distance'
p5
aF42.92116451263428
aa(lp6
S'timestamp'
p7
aF6.097161054611206
aatp8
Rp9
.ccollections
OrderedDict
p0
((lp1
(lp2
S'state'
p3
aI0
aa(lp4
S'distance'
p5
aF42.92116451263428
aa(lp6
S'timestamp'
p7
aF6.097524166107178
aatp8
Rp9
.ccollections
OrderedDict
p0
((lp1
(lp2
S'state'
p3
aI0
aa(lp4
S'distance'
p5
aF42.92116451263428
aa(lp6
S'timestamp'
p7
aF6.099095106124878
aatp8
Rp9
.ccollections
OrderedDict
p0
((lp1
(lp2
S'state'
p3
aI0
aa(lp4
S'distance'
p5
aF42.92116451263428
aa(lp6
S'timestamp'
p7
aF6.1001200675964355
aatp8
Rp9
.ccollections
OrderedDict
p0
((lp1
(lp2
S'state'
p3
aI0
aa(lp4
S'distance'
p5
aF42.92116451263428
aa(lp6
S'timestamp'
p7
aF6.107223033905029
aatp8
Rp9
.ccollections
OrderedDict
p0
((lp1
(lp2
S'state'
p3
aI0
aa(lp4
S'distance'
p5
aF42.92116451263428
aa(lp6
S'timestamp'
p7
aF6.10738205909729
aatp8
Rp9
.ccollections
OrderedDict
p0
((lp1
(lp2
S'state'
p3
aI0
aa(lp4
S'distance'
p5
aF42.92116451263428
aa(lp6
S'timestamp'
p7
aF6.1172590255737305
aatp8
Rp9
.ccollections
OrderedDict
p0
((lp1
(lp2
S'state'
p3
aI0
aa(lp4
S'distance'
p5
aF42.92116451263428
aa(lp6
S'timestamp'
p7
aF6.11740517616272
aatp8
Rp9
.ccollections
OrderedDict
p0
((lp1
(lp2
S'state'
p3
aI0
aa(lp4
S'distance'
p5
aF42.92116451263428
aa(lp6
S'timestamp'
p7
aF6.127186059951782
aatp8
Rp9
.ccollections
OrderedDict
p0
((lp1
(lp2
S'state'
p3
aI0
aa(lp4
S'distance'
p5
aF42.92116451263428
aa(lp6
S'timestamp'
p7
aF6.1274919509887695
aatp8
Rp9
.ccollections
OrderedDict
p0
((lp1
(lp2
S'state'
p3
aI0
aa(lp4
S'distance'
p5
aF42.92116451263428
aa(lp6
S'timestamp'
p7
aF6.137221097946167
aatp8
Rp9
.ccollections
OrderedDict
p0
((lp1
(lp2
S'state'
p3
aI0
aa(lp4
S'distance'
p5
aF42.92116451263428
aa(lp6
S'timestamp'
p7
aF6.137348175048828
aatp8
Rp9
.ccollections
OrderedDict
p0
((lp1
(lp2
S'state'
p3
aI0
aa(lp4
S'distance'
p5
aF42.92116451263428
aa(lp6
S'timestamp'
p7
aF6.147241115570068
aatp8
Rp9
.ccollections
OrderedDict
p0
((lp1
(lp2
S'state'
p3
aI0
aa(lp4
S'distance'
p5
aF42.92116451263428
aa(lp6
S'timestamp'
p7
aF6.147454023361206
aatp8
Rp9
.ccollections
OrderedDict
p0
((lp1
(lp2
S'state'
p3
aI0
aa(lp4
S'distance'
p5
aF42.92116451263428
aa(lp6
S'timestamp'
p7
aF6.157232999801636
aatp8
Rp9
.ccollections
OrderedDict
p0
((lp1
(lp2
S'state'
p3
aI0
aa(lp4
S'distance'
p5
aF42.92116451263428
aa(lp6
S'timestamp'
p7
aF6.1574060916900635
aatp8
Rp9
.ccollections
OrderedDict
p0
((lp1
(lp2
S'state'
p3
aI0
aa(lp4
S'distance'
p5
aF42.92116451263428
aa(lp6
S'timestamp'
p7
aF6.167209148406982
aatp8
Rp9
.ccollections
OrderedDict
p0
((lp1
(lp2
S'state'
p3
aI0
aa(lp4
S'distance'
p5
aF42.92116451263428
aa(lp6
S'timestamp'
p7
aF6.167348146438599
aatp8
Rp9
.ccollections
OrderedDict
p0
((lp1
(lp2
S'state'
p3
aI0
aa(lp4
S'distance'
p5
aF42.92116451263428
aa(lp6
S'timestamp'
p7
aF6.177281141281128
aatp8
Rp9
.ccollections
OrderedDict
p0
((lp1
(lp2
S'state'
p3
aI0
aa(lp4
S'distance'
p5
aF42.92116451263428
aa(lp6
S'timestamp'
p7
aF6.177420139312744
aatp8
Rp9
.ccollections
OrderedDict
p0
((lp1
(lp2
S'state'
p3
aI0
aa(lp4
S'distance'
p5
aF42.92116451263428
aa(lp6
S'timestamp'
p7
aF6.187128067016602
aatp8
Rp9
.ccollections
OrderedDict
p0
((lp1
(lp2
S'state'
p3
aI0
aa(lp4
S'distance'
p5
aF42.92116451263428
aa(lp6
S'timestamp'
p7
aF6.187455177307129
aatp8
Rp9
.ccollections
OrderedDict
p0
((lp1
(lp2
S'state'
p3
aI0
aa(lp4
S'distance'
p5
aF42.92116451263428
aa(lp6
S'timestamp'
p7
aF6.197252035140991
aatp8
Rp9
.ccollections
OrderedDict
p0
((lp1
(lp2
S'state'
p3
aI0
aa(lp4
S'distance'
p5
aF42.92116451263428
aa(lp6
S'timestamp'
p7
aF6.197432994842529
aatp8
Rp9
.ccollections
OrderedDict
p0
((lp1
(lp2
S'state'
p3
aI0
aa(lp4
S'distance'
p5
aF42.92116451263428
aa(lp6
S'timestamp'
p7
aF6.207054138183594
aatp8
Rp9
.ccollections
OrderedDict
p0
((lp1
(lp2
S'state'
p3
aI0
aa(lp4
S'distance'
p5
aF42.92116451263428
aa(lp6
S'timestamp'
p7
aF6.207769155502319
aatp8
Rp9
.ccollections
OrderedDict
p0
((lp1
(lp2
S'state'
p3
aI0
aa(lp4
S'distance'
p5
aF42.92116451263428
aa(lp6
S'timestamp'
p7
aF6.217095136642456
aatp8
Rp9
.ccollections
OrderedDict
p0
((lp1
(lp2
S'state'
p3
aI0
aa(lp4
S'distance'
p5
aF42.92116451263428
aa(lp6
S'timestamp'
p7
aF6.217682123184204
aatp8
Rp9
.ccollections
OrderedDict
p0
((lp1
(lp2
S'state'
p3
aI0
aa(lp4
S'distance'
p5
aF42.92116451263428
aa(lp6
S'timestamp'
p7
aF6.227298974990845
aatp8
Rp9
.ccollections
OrderedDict
p0
((lp1
(lp2
S'state'
p3
aI0
aa(lp4
S'distance'
p5
aF42.92116451263428
aa(lp6
S'timestamp'
p7
aF6.2274329662323
aatp8
Rp9
.ccollections
OrderedDict
p0
((lp1
(lp2
S'state'
p3
aI0
aa(lp4
S'distance'
p5
aF42.92116451263428
aa(lp6
S'timestamp'
p7
aF6.237174034118652
aatp8
Rp9
.ccollections
OrderedDict
p0
((lp1
(lp2
S'state'
p3
aI0
aa(lp4
S'distance'
p5
aF42.92116451263428
aa(lp6
S'timestamp'
p7
aF6.237473011016846
aatp8
Rp9
.ccollections
OrderedDict
p0
((lp1
(lp2
S'state'
p3
aI0
aa(lp4
S'distance'
p5
aF42.92116451263428
aa(lp6
S'timestamp'
p7
aF6.247228145599365
aatp8
Rp9
.ccollections
OrderedDict
p0
((lp1
(lp2
S'state'
p3
aI0
aa(lp4
S'distance'
p5
aF42.92116451263428
aa(lp6
S'timestamp'
p7
aF6.247499942779541
aatp8
Rp9
.ccollections
OrderedDict
p0
((lp1
(lp2
S'state'
p3
aI0
aa(lp4
S'distance'
p5
aF42.92116451263428
aa(lp6
S'timestamp'
p7
aF6.257219076156616
aatp8
Rp9
.ccollections
OrderedDict
p0
((lp1
(lp2
S'state'
p3
aI0
aa(lp4
S'distance'
p5
aF42.92116451263428
aa(lp6
S'timestamp'
p7
aF6.257467031478882
aatp8
Rp9
.ccollections
OrderedDict
p0
((lp1
(lp2
S'state'
p3
aI0
aa(lp4
S'distance'
p5
aF42.92116451263428
aa(lp6
S'timestamp'
p7
aF6.267228126525879
aatp8
Rp9
.ccollections
OrderedDict
p0
((lp1
(lp2
S'state'
p3
aI0
aa(lp4
S'distance'
p5
aF42.92116451263428
aa(lp6
S'timestamp'
p7
aF6.267714977264404
aatp8
Rp9
.ccollections
OrderedDict
p0
((lp1
(lp2
S'state'
p3
aI0
aa(lp4
S'distance'
p5
aF42.92116451263428
aa(lp6
S'timestamp'
p7
aF6.2772300243377686
aatp8
Rp9
.ccollections
OrderedDict
p0
((lp1
(lp2
S'state'
p3
aI0
aa(lp4
S'distance'
p5
aF42.92116451263428
aa(lp6
S'timestamp'
p7
aF6.277554988861084
aatp8
Rp9
.ccollections
OrderedDict
p0
((lp1
(lp2
S'state'
p3
aI0
aa(lp4
S'distance'
p5
aF42.92116451263428
aa(lp6
S'timestamp'
p7
aF6.287282943725586
aatp8
Rp9
.ccollections
OrderedDict
p0
((lp1
(lp2
S'state'
p3
aI0
aa(lp4
S'distance'
p5
aF42.92116451263428
aa(lp6
S'timestamp'
p7
aF6.287446022033691
aatp8
Rp9
.ccollections
OrderedDict
p0
((lp1
(lp2
S'state'
p3
aI0
aa(lp4
S'distance'
p5
aF42.92116451263428
aa(lp6
S'timestamp'
p7
aF6.297114133834839
aatp8
Rp9
.ccollections
OrderedDict
p0
((lp1
(lp2
S'state'
p3
aI0
aa(lp4
S'distance'
p5
aF42.92116451263428
aa(lp6
S'timestamp'
p7
aF6.297753095626831
aatp8
Rp9
.ccollections
OrderedDict
p0
((lp1
(lp2
S'state'
p3
aI0
aa(lp4
S'distance'
p5
aF42.92116451263428
aa(lp6
S'timestamp'
p7
aF6.307290077209473
aatp8
Rp9
.ccollections
OrderedDict
p0
((lp1
(lp2
S'state'
p3
aI0
aa(lp4
S'distance'
p5
aF42.92116451263428
aa(lp6
S'timestamp'
p7
aF6.30743408203125
aatp8
Rp9
.ccollections
OrderedDict
p0
((lp1
(lp2
S'state'
p3
aI0
aa(lp4
S'distance'
p5
aF42.92116451263428
aa(lp6
S'timestamp'
p7
aF6.317276954650879
aatp8
Rp9
.ccollections
OrderedDict
p0
((lp1
(lp2
S'state'
p3
aI0
aa(lp4
S'distance'
p5
aF42.92116451263428
aa(lp6
S'timestamp'
p7
aF6.317484140396118
aatp8
Rp9
.ccollections
OrderedDict
p0
((lp1
(lp2
S'state'
p3
aI0
aa(lp4
S'distance'
p5
aF42.92116451263428
aa(lp6
S'timestamp'
p7
aF6.327327013015747
aatp8
Rp9
.ccollections
OrderedDict
p0
((lp1
(lp2
S'state'
p3
aI0
aa(lp4
S'distance'
p5
aF42.92116451263428
aa(lp6
S'timestamp'
p7
aF6.32745099067688
aatp8
Rp9
.ccollections
OrderedDict
p0
((lp1
(lp2
S'state'
p3
aI0
aa(lp4
S'distance'
p5
aF42.92116451263428
aa(lp6
S'timestamp'
p7
aF6.337098121643066
aatp8
Rp9
.ccollections
OrderedDict
p0
((lp1
(lp2
S'state'
p3
aI0
aa(lp4
S'distance'
p5
aF42.92116451263428
aa(lp6
S'timestamp'
p7
aF6.337646007537842
aatp8
Rp9
.ccollections
OrderedDict
p0
((lp1
(lp2
S'state'
p3
aI0
aa(lp4
S'distance'
p5
aF42.92116451263428
aa(lp6
S'timestamp'
p7
aF6.34699010848999
aatp8
Rp9
.ccollections
OrderedDict
p0
((lp1
(lp2
S'state'
p3
aI0
aa(lp4
S'distance'
p5
aF42.92116451263428
aa(lp6
S'timestamp'
p7
aF6.347506999969482
aatp8
Rp9
.ccollections
OrderedDict
p0
((lp1
(lp2
S'state'
p3
aI0
aa(lp4
S'distance'
p5
aF42.92116451263428
aa(lp6
S'timestamp'
p7
aF6.3571250438690186
aatp8
Rp9
.ccollections
OrderedDict
p0
((lp1
(lp2
S'state'
p3
aI0
aa(lp4
S'distance'
p5
aF42.92116451263428
aa(lp6
S'timestamp'
p7
aF6.357638120651245
aatp8
Rp9
.ccollections
OrderedDict
p0
((lp1
(lp2
S'state'
p3
aI0
aa(lp4
S'distance'
p5
aF42.92116451263428
aa(lp6
S'timestamp'
p7
aF6.367275953292847
aatp8
Rp9
.ccollections
OrderedDict
p0
((lp1
(lp2
S'state'
p3
aI0
aa(lp4
S'distance'
p5
aF42.92116451263428
aa(lp6
S'timestamp'
p7
aF6.36740517616272
aatp8
Rp9
.ccollections
OrderedDict
p0
((lp1
(lp2
S'state'
p3
aI0
aa(lp4
S'distance'
p5
aF42.92116451263428
aa(lp6
S'timestamp'
p7
aF6.377305030822754
aatp8
Rp9
.ccollections
OrderedDict
p0
((lp1
(lp2
S'state'
p3
aI0
aa(lp4
S'distance'
p5
aF42.92116451263428
aa(lp6
S'timestamp'
p7
aF6.377454996109009
aatp8
Rp9
.ccollections
OrderedDict
p0
((lp1
(lp2
S'state'
p3
aI0
aa(lp4
S'distance'
p5
aF42.92116451263428
aa(lp6
S'timestamp'
p7
aF6.387424945831299
aatp8
Rp9
.ccollections
OrderedDict
p0
((lp1
(lp2
S'state'
p3
aI0
aa(lp4
S'distance'
p5
aF42.92116451263428
aa(lp6
S'timestamp'
p7
aF6.387556076049805
aatp8
Rp9
.ccollections
OrderedDict
p0
((lp1
(lp2
S'state'
p3
aI0
aa(lp4
S'distance'
p5
aF42.92116451263428
aa(lp6
S'timestamp'
p7
aF6.397391080856323
aatp8
Rp9
.ccollections
OrderedDict
p0
((lp1
(lp2
S'state'
p3
aI0
aa(lp4
S'distance'
p5
aF42.92116451263428
aa(lp6
S'timestamp'
p7
aF6.399111032485962
aatp8
Rp9
.ccollections
OrderedDict
p0
((lp1
(lp2
S'state'
p3
aI0
aa(lp4
S'distance'
p5
aF42.92116451263428
aa(lp6
S'timestamp'
p7
aF6.407253980636597
aatp8
Rp9
.ccollections
OrderedDict
p0
((lp1
(lp2
S'state'
p3
aI0
aa(lp4
S'distance'
p5
aF42.92116451263428
aa(lp6
S'timestamp'
p7
aF6.407533168792725
aatp8
Rp9
.ccollections
OrderedDict
p0
((lp1
(lp2
S'state'
p3
aI0
aa(lp4
S'distance'
p5
aF42.92116451263428
aa(lp6
S'timestamp'
p7
aF6.417104959487915
aatp8
Rp9
.ccollections
OrderedDict
p0
((lp1
(lp2
S'state'
p3
aI0
aa(lp4
S'distance'
p5
aF42.92116451263428
aa(lp6
S'timestamp'
p7
aF6.417513132095337
aatp8
Rp9
.ccollections
OrderedDict
p0
((lp1
(lp2
S'state'
p3
aI0
aa(lp4
S'distance'
p5
aF42.92116451263428
aa(lp6
S'timestamp'
p7
aF6.427175998687744
aatp8
Rp9
.ccollections
OrderedDict
p0
((lp1
(lp2
S'state'
p3
aI0
aa(lp4
S'distance'
p5
aF42.92116451263428
aa(lp6
S'timestamp'
p7
aF6.427525043487549
aatp8
Rp9
.ccollections
OrderedDict
p0
((lp1
(lp2
S'state'
p3
aI0
aa(lp4
S'distance'
p5
aF42.92116451263428
aa(lp6
S'timestamp'
p7
aF6.4372031688690186
aatp8
Rp9
.ccollections
OrderedDict
p0
((lp1
(lp2
S'state'
p3
aI0
aa(lp4
S'distance'
p5
aF42.92116451263428
aa(lp6
S'timestamp'
p7
aF6.438400030136108
aatp8
Rp9
.ccollections
OrderedDict
p0
((lp1
(lp2
S'state'
p3
aI0
aa(lp4
S'distance'
p5
aF42.92116451263428
aa(lp6
S'timestamp'
p7
aF6.4473841190338135
aatp8
Rp9
.ccollections
OrderedDict
p0
((lp1
(lp2
S'state'
p3
aI0
aa(lp4
S'distance'
p5
aF42.92116451263428
aa(lp6
S'timestamp'
p7
aF6.44757604598999
aatp8
Rp9
.ccollections
OrderedDict
p0
((lp1
(lp2
S'state'
p3
aI0
aa(lp4
S'distance'
p5
aF42.92116451263428
aa(lp6
S'timestamp'
p7
aF6.457172155380249
aatp8
Rp9
.ccollections
OrderedDict
p0
((lp1
(lp2
S'state'
p3
aI0
aa(lp4
S'distance'
p5
aF42.92116451263428
aa(lp6
S'timestamp'
p7
aF6.457641124725342
aatp8
Rp9
.ccollections
OrderedDict
p0
((lp1
(lp2
S'state'
p3
aI0
aa(lp4
S'distance'
p5
aF42.92116451263428
aa(lp6
S'timestamp'
p7
aF6.467342138290405
aatp8
Rp9
.ccollections
OrderedDict
p0
((lp1
(lp2
S'state'
p3
aI0
aa(lp4
S'distance'
p5
aF42.92116451263428
aa(lp6
S'timestamp'
p7
aF6.467487096786499
aatp8
Rp9
.ccollections
OrderedDict
p0
((lp1
(lp2
S'state'
p3
aI0
aa(lp4
S'distance'
p5
aF42.92116451263428
aa(lp6
S'timestamp'
p7
aF6.477328062057495
aatp8
Rp9
.ccollections
OrderedDict
p0
((lp1
(lp2
S'state'
p3
aI0
aa(lp4
S'distance'
p5
aF42.92116451263428
aa(lp6
S'timestamp'
p7
aF6.4775230884552
aatp8
Rp9
.ccollections
OrderedDict
p0
((lp1
(lp2
S'state'
p3
aI0
aa(lp4
S'distance'
p5
aF42.92116451263428
aa(lp6
S'timestamp'
p7
aF6.487126111984253
aatp8
Rp9
.ccollections
OrderedDict
p0
((lp1
(lp2
S'state'
p3
aI0
aa(lp4
S'distance'
p5
aF42.92116451263428
aa(lp6
S'timestamp'
p7
aF6.487507104873657
aatp8
Rp9
.ccollections
OrderedDict
p0
((lp1
(lp2
S'state'
p3
aI0
aa(lp4
S'distance'
p5
aF42.92116451263428
aa(lp6
S'timestamp'
p7
aF6.497338056564331
aatp8
Rp9
.ccollections
OrderedDict
p0
((lp1
(lp2
S'state'
p3
aI0
aa(lp4
S'distance'
p5
aF42.92116451263428
aa(lp6
S'timestamp'
p7
aF6.497478008270264
aatp8
Rp9
.ccollections
OrderedDict
p0
((lp1
(lp2
S'state'
p3
aI0
aa(lp4
S'distance'
p5
aF42.92116451263428
aa(lp6
S'timestamp'
p7
aF6.507297992706299
aatp8
Rp9
.ccollections
OrderedDict
p0
((lp1
(lp2
S'state'
p3
aI0
aa(lp4
S'distance'
p5
aF42.92116451263428
aa(lp6
S'timestamp'
p7
aF6.507471084594727
aatp8
Rp9
.ccollections
OrderedDict
p0
((lp1
(lp2
S'state'
p3
aI0
aa(lp4
S'distance'
p5
aF42.92116451263428
aa(lp6
S'timestamp'
p7
aF6.517048120498657
aatp8
Rp9
.ccollections
OrderedDict
p0
((lp1
(lp2
S'state'
p3
aI0
aa(lp4
S'distance'
p5
aF42.92116451263428
aa(lp6
S'timestamp'
p7
aF6.517704963684082
aatp8
Rp9
.ccollections
OrderedDict
p0
((lp1
(lp2
S'state'
p3
aI0
aa(lp4
S'distance'
p5
aF42.92116451263428
aa(lp6
S'timestamp'
p7
aF6.527362108230591
aatp8
Rp9
.ccollections
OrderedDict
p0
((lp1
(lp2
S'state'
p3
aI0
aa(lp4
S'distance'
p5
aF42.92116451263428
aa(lp6
S'timestamp'
p7
aF6.527496099472046
aatp8
Rp9
.ccollections
OrderedDict
p0
((lp1
(lp2
S'state'
p3
aI0
aa(lp4
S'distance'
p5
aF42.92116451263428
aa(lp6
S'timestamp'
p7
aF6.537183046340942
aatp8
Rp9
.ccollections
OrderedDict
p0
((lp1
(lp2
S'state'
p3
aI0
aa(lp4
S'distance'
p5
aF42.92116451263428
aa(lp6
S'timestamp'
p7
aF6.53778600692749
aatp8
Rp9
.ccollections
OrderedDict
p0
((lp1
(lp2
S'state'
p3
aI0
aa(lp4
S'distance'
p5
aF42.92116451263428
aa(lp6
S'timestamp'
p7
aF6.547384023666382
aatp8
Rp9
.ccollections
OrderedDict
p0
((lp1
(lp2
S'state'
p3
aI0
aa(lp4
S'distance'
p5
aF42.92116451263428
aa(lp6
S'timestamp'
p7
aF6.547511100769043
aatp8
Rp9
.ccollections
OrderedDict
p0
((lp1
(lp2
S'state'
p3
aI0
aa(lp4
S'distance'
p5
aF42.92116451263428
aa(lp6
S'timestamp'
p7
aF6.5571980476379395
aatp8
Rp9
.ccollections
OrderedDict
p0
((lp1
(lp2
S'state'
p3
aI0
aa(lp4
S'distance'
p5
aF42.92116451263428
aa(lp6
S'timestamp'
p7
aF6.5576159954071045
aatp8
Rp9
.ccollections
OrderedDict
p0
((lp1
(lp2
S'state'
p3
aI0
aa(lp4
S'distance'
p5
aF42.92116451263428
aa(lp6
S'timestamp'
p7
aF6.567419052124023
aatp8
Rp9
.ccollections
OrderedDict
p0
((lp1
(lp2
S'state'
p3
aI0
aa(lp4
S'distance'
p5
aF42.92116451263428
aa(lp6
S'timestamp'
p7
aF6.567739963531494
aatp8
Rp9
.ccollections
OrderedDict
p0
((lp1
(lp2
S'state'
p3
aI0
aa(lp4
S'distance'
p5
aF42.92116451263428
aa(lp6
S'timestamp'
p7
aF6.57979416847229
aatp8
Rp9
.ccollections
OrderedDict
p0
((lp1
(lp2
S'state'
p3
aI0
aa(lp4
S'distance'
p5
aF42.92116451263428
aa(lp6
S'timestamp'
p7
aF6.580281019210815
aatp8
Rp9
.ccollections
OrderedDict
p0
((lp1
(lp2
S'state'
p3
aI0
aa(lp4
S'distance'
p5
aF42.92116451263428
aa(lp6
S'timestamp'
p7
aF6.587440013885498
aatp8
Rp9
.ccollections
OrderedDict
p0
((lp1
(lp2
S'state'
p3
aI0
aa(lp4
S'distance'
p5
aF42.92116451263428
aa(lp6
S'timestamp'
p7
aF6.587526082992554
aatp8
Rp9
.ccollections
OrderedDict
p0
((lp1
(lp2
S'state'
p3
aI0
aa(lp4
S'distance'
p5
aF42.92116451263428
aa(lp6
S'timestamp'
p7
aF6.597318172454834
aatp8
Rp9
.ccollections
OrderedDict
p0
((lp1
(lp2
S'state'
p3
aI0
aa(lp4
S'distance'
p5
aF42.92116451263428
aa(lp6
S'timestamp'
p7
aF6.597690105438232
aatp8
Rp9
.ccollections
OrderedDict
p0
((lp1
(lp2
S'state'
p3
aI0
aa(lp4
S'distance'
p5
aF42.92116451263428
aa(lp6
S'timestamp'
p7
aF6.606901168823242
aatp8
Rp9
.ccollections
OrderedDict
p0
((lp1
(lp2
S'state'
p3
aI0
aa(lp4
S'distance'
p5
aF42.92116451263428
aa(lp6
S'timestamp'
p7
aF6.607819080352783
aatp8
Rp9
.ccollections
OrderedDict
p0
((lp1
(lp2
S'state'
p3
aI0
aa(lp4
S'distance'
p5
aF42.92116451263428
aa(lp6
S'timestamp'
p7
aF6.617524147033691
aatp8
Rp9
.ccollections
OrderedDict
p0
((lp1
(lp2
S'state'
p3
aI0
aa(lp4
S'distance'
p5
aF42.92116451263428
aa(lp6
S'timestamp'
p7
aF6.617967128753662
aatp8
Rp9
.ccollections
OrderedDict
p0
((lp1
(lp2
S'state'
p3
aI0
aa(lp4
S'distance'
p5
aF42.92116451263428
aa(lp6
S'timestamp'
p7
aF6.627324104309082
aatp8
Rp9
.ccollections
OrderedDict
p0
((lp1
(lp2
S'state'
p3
aI0
aa(lp4
S'distance'
p5
aF42.92116451263428
aa(lp6
S'timestamp'
p7
aF6.627568960189819
aatp8
Rp9
.ccollections
OrderedDict
p0
((lp1
(lp2
S'state'
p3
aI0
aa(lp4
S'distance'
p5
aF42.92116451263428
aa(lp6
S'timestamp'
p7
aF6.637392044067383
aatp8
Rp9
.ccollections
OrderedDict
p0
((lp1
(lp2
S'state'
p3
aI0
aa(lp4
S'distance'
p5
aF42.92116451263428
aa(lp6
S'timestamp'
p7
aF6.637537956237793
aatp8
Rp9
.ccollections
OrderedDict
p0
((lp1
(lp2
S'state'
p3
aI0
aa(lp4
S'distance'
p5
aF42.92116451263428
aa(lp6
S'timestamp'
p7
aF6.647497177124023
aatp8
Rp9
.ccollections
OrderedDict
p0
((lp1
(lp2
S'state'
p3
aI0
aa(lp4
S'distance'
p5
aF42.92116451263428
aa(lp6
S'timestamp'
p7
aF6.647643089294434
aatp8
Rp9
.ccollections
OrderedDict
p0
((lp1
(lp2
S'state'
p3
aI0
aa(lp4
S'distance'
p5
aF42.92116451263428
aa(lp6
S'timestamp'
p7
aF6.657235145568848
aatp8
Rp9
.ccollections
OrderedDict
p0
((lp1
(lp2
S'state'
p3
aI0
aa(lp4
S'distance'
p5
aF42.92116451263428
aa(lp6
S'timestamp'
p7
aF6.6575751304626465
aatp8
Rp9
.ccollections
OrderedDict
p0
((lp1
(lp2
S'state'
p3
aI0
aa(lp4
S'distance'
p5
aF42.92116451263428
aa(lp6
S'timestamp'
p7
aF6.667230129241943
aatp8
Rp9
.ccollections
OrderedDict
p0
((lp1
(lp2
S'state'
p3
aI0
aa(lp4
S'distance'
p5
aF42.92116451263428
aa(lp6
S'timestamp'
p7
aF6.667634963989258
aatp8
Rp9
.ccollections
OrderedDict
p0
((lp1
(lp2
S'state'
p3
aI0
aa(lp4
S'distance'
p5
aF42.92116451263428
aa(lp6
S'timestamp'
p7
aF6.677232027053833
aatp8
Rp9
.ccollections
OrderedDict
p0
((lp1
(lp2
S'state'
p3
aI0
aa(lp4
S'distance'
p5
aF42.92116451263428
aa(lp6
S'timestamp'
p7
aF6.677644968032837
aatp8
Rp9
.ccollections
OrderedDict
p0
((lp1
(lp2
S'state'
p3
aI0
aa(lp4
S'distance'
p5
aF42.92116451263428
aa(lp6
S'timestamp'
p7
aF6.687507152557373
aatp8
Rp9
.ccollections
OrderedDict
p0
((lp1
(lp2
S'state'
p3
aI0
aa(lp4
S'distance'
p5
aF42.92116451263428
aa(lp6
S'timestamp'
p7
aF6.687589168548584
aatp8
Rp9
.ccollections
OrderedDict
p0
((lp1
(lp2
S'state'
p3
aI0
aa(lp4
S'distance'
p5
aF42.92116451263428
aa(lp6
S'timestamp'
p7
aF6.707447052001953
aatp8
Rp9
.ccollections
OrderedDict
p0
((lp1
(lp2
S'state'
p3
aI0
aa(lp4
S'distance'
p5
aF42.92116451263428
aa(lp6
S'timestamp'
p7
aF6.707530975341797
aatp8
Rp9
.ccollections
OrderedDict
p0
((lp1
(lp2
S'state'
p3
aI0
aa(lp4
S'distance'
p5
aF42.92116451263428
aa(lp6
S'timestamp'
p7
aF6.709176063537598
aatp8
Rp9
.ccollections
OrderedDict
p0
((lp1
(lp2
S'state'
p3
aI0
aa(lp4
S'distance'
p5
aF42.92116451263428
aa(lp6
S'timestamp'
p7
aF6.709954023361206
aatp8
Rp9
.ccollections
OrderedDict
p0
((lp1
(lp2
S'state'
p3
aI0
aa(lp4
S'distance'
p5
aF42.92116451263428
aa(lp6
S'timestamp'
p7
aF6.71717095375061
aatp8
Rp9
.ccollections
OrderedDict
p0
((lp1
(lp2
S'state'
p3
aI0
aa(lp4
S'distance'
p5
aF42.92116451263428
aa(lp6
S'timestamp'
p7
aF6.717816114425659
aatp8
Rp9
.ccollections
OrderedDict
p0
((lp1
(lp2
S'state'
p3
aI0
aa(lp4
S'distance'
p5
aF42.92116451263428
aa(lp6
S'timestamp'
p7
aF6.727169036865234
aatp8
Rp9
.ccollections
OrderedDict
p0
((lp1
(lp2
S'state'
p3
aI0
aa(lp4
S'distance'
p5
aF42.92116451263428
aa(lp6
S'timestamp'
p7
aF6.727833986282349
aatp8
Rp9
.ccollections
OrderedDict
p0
((lp1
(lp2
S'state'
p3
aI0
aa(lp4
S'distance'
p5
aF42.92116451263428
aa(lp6
S'timestamp'
p7
aF6.737290143966675
aatp8
Rp9
.ccollections
OrderedDict
p0
((lp1
(lp2
S'state'
p3
aI0
aa(lp4
S'distance'
p5
aF42.92116451263428
aa(lp6
S'timestamp'
p7
aF6.737586975097656
aatp8
Rp9
.ccollections
OrderedDict
p0
((lp1
(lp2
S'state'
p3
aI0
aa(lp4
S'distance'
p5
aF42.92116451263428
aa(lp6
S'timestamp'
p7
aF6.7473180294036865
aatp8
Rp9
.ccollections
OrderedDict
p0
((lp1
(lp2
S'state'
p3
aI0
aa(lp4
S'distance'
p5
aF42.92116451263428
aa(lp6
S'timestamp'
p7
aF6.747598171234131
aatp8
Rp9
.ccollections
OrderedDict
p0
((lp1
(lp2
S'state'
p3
aI0
aa(lp4
S'distance'
p5
aF42.92116451263428
aa(lp6
S'timestamp'
p7
aF6.757354021072388
aatp8
Rp9
.ccollections
OrderedDict
p0
((lp1
(lp2
S'state'
p3
aI0
aa(lp4
S'distance'
p5
aF42.92116451263428
aa(lp6
S'timestamp'
p7
aF6.757941961288452
aatp8
Rp9
.ccollections
OrderedDict
p0
((lp1
(lp2
S'state'
p3
aI0
aa(lp4
S'distance'
p5
aF42.92116451263428
aa(lp6
S'timestamp'
p7
aF6.767406940460205
aatp8
Rp9
.ccollections
OrderedDict
p0
((lp1
(lp2
S'state'
p3
aI0
aa(lp4
S'distance'
p5
aF42.92116451263428
aa(lp6
S'timestamp'
p7
aF6.767552137374878
aatp8
Rp9
.ccollections
OrderedDict
p0
((lp1
(lp2
S'state'
p3
aI0
aa(lp4
S'distance'
p5
aF42.92116451263428
aa(lp6
S'timestamp'
p7
aF6.777490139007568
aatp8
Rp9
.ccollections
OrderedDict
p0
((lp1
(lp2
S'state'
p3
aI0
aa(lp4
S'distance'
p5
aF42.92116451263428
aa(lp6
S'timestamp'
p7
aF6.77783203125
aatp8
Rp9
.ccollections
OrderedDict
p0
((lp1
(lp2
S'state'
p3
aI0
aa(lp4
S'distance'
p5
aF42.92116451263428
aa(lp6
S'timestamp'
p7
aF6.7871949672698975
aatp8
Rp9
.ccollections
OrderedDict
p0
((lp1
(lp2
S'state'
p3
aI0
aa(lp4
S'distance'
p5
aF42.92116451263428
aa(lp6
S'timestamp'
p7
aF6.787636995315552
aatp8
Rp9
.ccollections
OrderedDict
p0
((lp1
(lp2
S'state'
p3
aI0
aa(lp4
S'distance'
p5
aF42.92116451263428
aa(lp6
S'timestamp'
p7
aF6.797520160675049
aatp8
Rp9
.ccollections
OrderedDict
p0
((lp1
(lp2
S'state'
p3
aI0
aa(lp4
S'distance'
p5
aF42.92116451263428
aa(lp6
S'timestamp'
p7
aF6.79776406288147
aatp8
Rp9
.ccollections
OrderedDict
p0
((lp1
(lp2
S'state'
p3
aI0
aa(lp4
S'distance'
p5
aF42.92116451263428
aa(lp6
S'timestamp'
p7
aF6.8074631690979
aatp8
Rp9
.ccollections
OrderedDict
p0
((lp1
(lp2
S'state'
p3
aI0
aa(lp4
S'distance'
p5
aF42.92116451263428
aa(lp6
S'timestamp'
p7
aF6.807774066925049
aatp8
Rp9
.ccollections
OrderedDict
p0
((lp1
(lp2
S'state'
p3
aI0
aa(lp4
S'distance'
p5
aF42.92116451263428
aa(lp6
S'timestamp'
p7
aF6.817371129989624
aatp8
Rp9
.ccollections
OrderedDict
p0
((lp1
(lp2
S'state'
p3
aI0
aa(lp4
S'distance'
p5
aF42.92116451263428
aa(lp6
S'timestamp'
p7
aF6.817543983459473
aatp8
Rp9
.ccollections
OrderedDict
p0
((lp1
(lp2
S'state'
p3
aI0
aa(lp4
S'distance'
p5
aF42.92116451263428
aa(lp6
S'timestamp'
p7
aF6.827514171600342
aatp8
Rp9
.ccollections
OrderedDict
p0
((lp1
(lp2
S'state'
p3
aI0
aa(lp4
S'distance'
p5
aF42.92116451263428
aa(lp6
S'timestamp'
p7
aF6.8276941776275635
aatp8
Rp9
.ccollections
OrderedDict
p0
((lp1
(lp2
S'state'
p3
aI0
aa(lp4
S'distance'
p5
aF42.92116451263428
aa(lp6
S'timestamp'
p7
aF6.837296009063721
aatp8
Rp9
.ccollections
OrderedDict
p0
((lp1
(lp2
S'state'
p3
aI0
aa(lp4
S'distance'
p5
aF42.92116451263428
aa(lp6
S'timestamp'
p7
aF6.837780952453613
aatp8
Rp9
.ccollections
OrderedDict
p0
((lp1
(lp2
S'state'
p3
aI0
aa(lp4
S'distance'
p5
aF42.92116451263428
aa(lp6
S'timestamp'
p7
aF6.847625017166138
aatp8
Rp9
.ccollections
OrderedDict
p0
((lp1
(lp2
S'state'
p3
aI0
aa(lp4
S'distance'
p5
aF42.92116451263428
aa(lp6
S'timestamp'
p7
aF6.8485541343688965
aatp8
Rp9
.ccollections
OrderedDict
p0
((lp1
(lp2
S'state'
p3
aI0
aa(lp4
S'distance'
p5
aF42.92116451263428
aa(lp6
S'timestamp'
p7
aF6.857356071472168
aatp8
Rp9
.ccollections
OrderedDict
p0
((lp1
(lp2
S'state'
p3
aI0
aa(lp4
S'distance'
p5
aF42.92116451263428
aa(lp6
S'timestamp'
p7
aF6.857572078704834
aatp8
Rp9
.ccollections
OrderedDict
p0
((lp1
(lp2
S'state'
p3
aI0
aa(lp4
S'distance'
p5
aF42.92116451263428
aa(lp6
S'timestamp'
p7
aF6.8673460483551025
aatp8
Rp9
.ccollections
OrderedDict
p0
((lp1
(lp2
S'state'
p3
aI0
aa(lp4
S'distance'
p5
aF42.92116451263428
aa(lp6
S'timestamp'
p7
aF6.867894172668457
aatp8
Rp9
.ccollections
OrderedDict
p0
((lp1
(lp2
S'state'
p3
aI0
aa(lp4
S'distance'
p5
aF42.92116451263428
aa(lp6
S'timestamp'
p7
aF6.877390146255493
aatp8
Rp9
.ccollections
OrderedDict
p0
((lp1
(lp2
S'state'
p3
aI0
aa(lp4
S'distance'
p5
aF42.92116451263428
aa(lp6
S'timestamp'
p7
aF6.877673149108887
aatp8
Rp9
.ccollections
OrderedDict
p0
((lp1
(lp2
S'state'
p3
aI0
aa(lp4
S'distance'
p5
aF42.92116451263428
aa(lp6
S'timestamp'
p7
aF6.8881330490112305
aatp8
Rp9
.ccollections
OrderedDict
p0
((lp1
(lp2
S'state'
p3
aI0
aa(lp4
S'distance'
p5
aF42.92116451263428
aa(lp6
S'timestamp'
p7
aF6.888642072677612
aatp8
Rp9
.ccollections
OrderedDict
p0
((lp1
(lp2
S'state'
p3
aI0
aa(lp4
S'distance'
p5
aF42.92116451263428
aa(lp6
S'timestamp'
p7
aF6.897304058074951
aatp8
Rp9
.ccollections
OrderedDict
p0
((lp1
(lp2
S'state'
p3
aI0
aa(lp4
S'distance'
p5
aF42.92116451263428
aa(lp6
S'timestamp'
p7
aF6.898144006729126
aatp8
Rp9
.ccollections
OrderedDict
p0
((lp1
(lp2
S'state'
p3
aI0
aa(lp4
S'distance'
p5
aF42.92116451263428
aa(lp6
S'timestamp'
p7
aF6.907164096832275
aatp8
Rp9
.ccollections
OrderedDict
p0
((lp1
(lp2
S'state'
p3
aI0
aa(lp4
S'distance'
p5
aF42.92116451263428
aa(lp6
S'timestamp'
p7
aF6.908105134963989
aatp8
Rp9
.ccollections
OrderedDict
p0
((lp1
(lp2
S'state'
p3
aI0
aa(lp4
S'distance'
p5
aF42.92116451263428
aa(lp6
S'timestamp'
p7
aF6.917459011077881
aatp8
Rp9
.ccollections
OrderedDict
p0
((lp1
(lp2
S'state'
p3
aI0
aa(lp4
S'distance'
p5
aF42.92116451263428
aa(lp6
S'timestamp'
p7
aF6.917907953262329
aatp8
Rp9
.ccollections
OrderedDict
p0
((lp1
(lp2
S'state'
p3
aI0
aa(lp4
S'distance'
p5
aF42.92116451263428
aa(lp6
S'timestamp'
p7
aF6.927229166030884
aatp8
Rp9
.ccollections
OrderedDict
p0
((lp1
(lp2
S'state'
p3
aI0
aa(lp4
S'distance'
p5
aF42.92116451263428
aa(lp6
S'timestamp'
p7
aF6.927786111831665
aatp8
Rp9
.ccollections
OrderedDict
p0
((lp1
(lp2
S'state'
p3
aI0
aa(lp4
S'distance'
p5
aF42.92116451263428
aa(lp6
S'timestamp'
p7
aF6.937353134155273
aatp8
Rp9
.ccollections
OrderedDict
p0
((lp1
(lp2
S'state'
p3
aI0
aa(lp4
S'distance'
p5
aF42.92116451263428
aa(lp6
S'timestamp'
p7
aF6.937965154647827
aatp8
Rp9
.ccollections
OrderedDict
p0
((lp1
(lp2
S'state'
p3
aI0
aa(lp4
S'distance'
p5
aF42.92116451263428
aa(lp6
S'timestamp'
p7
aF6.947206020355225
aatp8
Rp9
.ccollections
OrderedDict
p0
((lp1
(lp2
S'state'
p3
aI0
aa(lp4
S'distance'
p5
aF42.92116451263428
aa(lp6
S'timestamp'
p7
aF6.947782039642334
aatp8
Rp9
.ccollections
OrderedDict
p0
((lp1
(lp2
S'state'
p3
aI0
aa(lp4
S'distance'
p5
aF42.92116451263428
aa(lp6
S'timestamp'
p7
aF6.957245111465454
aatp8
Rp9
.ccollections
OrderedDict
p0
((lp1
(lp2
S'state'
p3
aI0
aa(lp4
S'distance'
p5
aF42.92116451263428
aa(lp6
S'timestamp'
p7
aF6.957906007766724
aatp8
Rp9
.ccollections
OrderedDict
p0
((lp1
(lp2
S'state'
p3
aI0
aa(lp4
S'distance'
p5
aF42.92116451263428
aa(lp6
S'timestamp'
p7
aF6.9675281047821045
aatp8
Rp9
.ccollections
OrderedDict
p0
((lp1
(lp2
S'state'
p3
aI0
aa(lp4
S'distance'
p5
aF42.92116451263428
aa(lp6
S'timestamp'
p7
aF6.967854022979736
aatp8
Rp9
.ccollections
OrderedDict
p0
((lp1
(lp2
S'state'
p3
aI0
aa(lp4
S'distance'
p5
aF42.92116451263428
aa(lp6
S'timestamp'
p7
aF6.977678060531616
aatp8
Rp9
.ccollections
OrderedDict
p0
((lp1
(lp2
S'state'
p3
aI0
aa(lp4
S'distance'
p5
aF42.92116451263428
aa(lp6
S'timestamp'
p7
aF6.97848916053772
aatp8
Rp9
.ccollections
OrderedDict
p0
((lp1
(lp2
S'state'
p3
aI0
aa(lp4
S'distance'
p5
aF42.92116451263428
aa(lp6
S'timestamp'
p7
aF6.987401962280273
aatp8
Rp9
.ccollections
OrderedDict
p0
((lp1
(lp2
S'state'
p3
aI0
aa(lp4
S'distance'
p5
aF42.92116451263428
aa(lp6
S'timestamp'
p7
aF6.98786997795105
aatp8
Rp9
.ccollections
OrderedDict
p0
((lp1
(lp2
S'state'
p3
aI0
aa(lp4
S'distance'
p5
aF42.92116451263428
aa(lp6
S'timestamp'
p7
aF6.997354984283447
aatp8
Rp9
.ccollections
OrderedDict
p0
((lp1
(lp2
S'state'
p3
aI0
aa(lp4
S'distance'
p5
aF42.92116451263428
aa(lp6
S'timestamp'
p7
aF6.99791407585144
aatp8
Rp9
.ccollections
OrderedDict
p0
((lp1
(lp2
S'state'
p3
aI0
aa(lp4
S'distance'
p5
aF42.92116451263428
aa(lp6
S'timestamp'
p7
aF7.007286071777344
aatp8
Rp9
.ccollections
OrderedDict
p0
((lp1
(lp2
S'state'
p3
aI0
aa(lp4
S'distance'
p5
aF42.92116451263428
aa(lp6
S'timestamp'
p7
aF7.007732152938843
aatp8
Rp9
.ccollections
OrderedDict
p0
((lp1
(lp2
S'state'
p3
aI0
aa(lp4
S'distance'
p5
aF42.92116451263428
aa(lp6
S'timestamp'
p7
aF7.01711106300354
aatp8
Rp9
.ccollections
OrderedDict
p0
((lp1
(lp2
S'state'
p3
aI0
aa(lp4
S'distance'
p5
aF42.92116451263428
aa(lp6
S'timestamp'
p7
aF7.018002986907959
aatp8
Rp9
.ccollections
OrderedDict
p0
((lp1
(lp2
S'state'
p3
aI0
aa(lp4
S'distance'
p5
aF42.92116451263428
aa(lp6
S'timestamp'
p7
aF7.02764105796814
aatp8
Rp9
.ccollections
OrderedDict
p0
((lp1
(lp2
S'state'
p3
aI0
aa(lp4
S'distance'
p5
aF42.92116451263428
aa(lp6
S'timestamp'
p7
aF7.027855157852173
aatp8
Rp9
.ccollections
OrderedDict
p0
((lp1
(lp2
S'state'
p3
aI0
aa(lp4
S'distance'
p5
aF42.92116451263428
aa(lp6
S'timestamp'
p7
aF7.037544012069702
aatp8
Rp9
.ccollections
OrderedDict
p0
((lp1
(lp2
S'state'
p3
aI0
aa(lp4
S'distance'
p5
aF42.92116451263428
aa(lp6
S'timestamp'
p7
aF7.03811502456665
aatp8
Rp9
.ccollections
OrderedDict
p0
((lp1
(lp2
S'state'
p3
aI0
aa(lp4
S'distance'
p5
aF42.92116451263428
aa(lp6
S'timestamp'
p7
aF7.047352075576782
aatp8
Rp9
.ccollections
OrderedDict
p0
((lp1
(lp2
S'state'
p3
aI0
aa(lp4
S'distance'
p5
aF42.92116451263428
aa(lp6
S'timestamp'
p7
aF7.0478270053863525
aatp8
Rp9
.ccollections
OrderedDict
p0
((lp1
(lp2
S'state'
p3
aI0
aa(lp4
S'distance'
p5
aF42.92116451263428
aa(lp6
S'timestamp'
p7
aF7.057255029678345
aatp8
Rp9
.ccollections
OrderedDict
p0
((lp1
(lp2
S'state'
p3
aI0
aa(lp4
S'distance'
p5
aF42.92116451263428
aa(lp6
S'timestamp'
p7
aF7.057916164398193
aatp8
Rp9
.ccollections
OrderedDict
p0
((lp1
(lp2
S'state'
p3
aI0
aa(lp4
S'distance'
p5
aF42.92116451263428
aa(lp6
S'timestamp'
p7
aF7.067525148391724
aatp8
Rp9
.ccollections
OrderedDict
p0
((lp1
(lp2
S'state'
p3
aI0
aa(lp4
S'distance'
p5
aF42.92116451263428
aa(lp6
S'timestamp'
p7
aF7.067852020263672
aatp8
Rp9
.ccollections
OrderedDict
p0
((lp1
(lp2
S'state'
p3
aI0
aa(lp4
S'distance'
p5
aF42.92116451263428
aa(lp6
S'timestamp'
p7
aF7.077291011810303
aatp8
Rp9
.ccollections
OrderedDict
p0
((lp1
(lp2
S'state'
p3
aI0
aa(lp4
S'distance'
p5
aF42.92116451263428
aa(lp6
S'timestamp'
p7
aF7.077761173248291
aatp8
Rp9
.ccollections
OrderedDict
p0
((lp1
(lp2
S'state'
p3
aI0
aa(lp4
S'distance'
p5
aF42.92116451263428
aa(lp6
S'timestamp'
p7
aF7.0874810218811035
aatp8
Rp9
.ccollections
OrderedDict
p0
((lp1
(lp2
S'state'
p3
aI0
aa(lp4
S'distance'
p5
aF42.92116451263428
aa(lp6
S'timestamp'
p7
aF7.087931156158447
aatp8
Rp9
.ccollections
OrderedDict
p0
((lp1
(lp2
S'state'
p3
aI0
aa(lp4
S'distance'
p5
aF42.92116451263428
aa(lp6
S'timestamp'
p7
aF7.097347974777222
aatp8
Rp9
.ccollections
OrderedDict
p0
((lp1
(lp2
S'state'
p3
aI0
aa(lp4
S'distance'
p5
aF42.92116451263428
aa(lp6
S'timestamp'
p7
aF7.097942113876343
aatp8
Rp9
.ccollections
OrderedDict
p0
((lp1
(lp2
S'state'
p3
aI0
aa(lp4
S'distance'
p5
aF42.92116451263428
aa(lp6
S'timestamp'
p7
aF7.107403039932251
aatp8
Rp9
.ccollections
OrderedDict
p0
((lp1
(lp2
S'state'
p3
aI0
aa(lp4
S'distance'
p5
aF42.92116451263428
aa(lp6
S'timestamp'
p7
aF7.108004093170166
aatp8
Rp9
.ccollections
OrderedDict
p0
((lp1
(lp2
S'state'
p3
aI0
aa(lp4
S'distance'
p5
aF42.92116451263428
aa(lp6
S'timestamp'
p7
aF7.117573022842407
aatp8
Rp9
.ccollections
OrderedDict
p0
((lp1
(lp2
S'state'
p3
aI0
aa(lp4
S'distance'
p5
aF42.92116451263428
aa(lp6
S'timestamp'
p7
aF7.1178271770477295
aatp8
Rp9
.ccollections
OrderedDict
p0
((lp1
(lp2
S'state'
p3
aI0
aa(lp4
S'distance'
p5
aF42.92116451263428
aa(lp6
S'timestamp'
p7
aF7.127609968185425
aatp8
Rp9
.ccollections
OrderedDict
p0
((lp1
(lp2
S'state'
p3
aI0
aa(lp4
S'distance'
p5
aF42.92116451263428
aa(lp6
S'timestamp'
p7
aF7.127796173095703
aatp8
Rp9
.ccollections
OrderedDict
p0
((lp1
(lp2
S'state'
p3
aI0
aa(lp4
S'distance'
p5
aF42.92116451263428
aa(lp6
S'timestamp'
p7
aF7.137182950973511
aatp8
Rp9
.ccollections
OrderedDict
p0
((lp1
(lp2
S'state'
p3
aI0
aa(lp4
S'distance'
p5
aF42.92116451263428
aa(lp6
S'timestamp'
p7
aF7.137905120849609
aatp8
Rp9
.ccollections
OrderedDict
p0
((lp1
(lp2
S'state'
p3
aI0
aa(lp4
S'distance'
p5
aF42.92116451263428
aa(lp6
S'timestamp'
p7
aF7.147515058517456
aatp8
Rp9
.ccollections
OrderedDict
p0
((lp1
(lp2
S'state'
p3
aI0
aa(lp4
S'distance'
p5
aF42.92116451263428
aa(lp6
S'timestamp'
p7
aF7.148065090179443
aatp8
Rp9
.ccollections
OrderedDict
p0
((lp1
(lp2
S'state'
p3
aI0
aa(lp4
S'distance'
p5
aF42.92116451263428
aa(lp6
S'timestamp'
p7
aF7.157612085342407
aatp8
Rp9
.ccollections
OrderedDict
p0
((lp1
(lp2
S'state'
p3
aI0
aa(lp4
S'distance'
p5
aF42.92116451263428
aa(lp6
S'timestamp'
p7
aF7.157861948013306
aatp8
Rp9
.ccollections
OrderedDict
p0
((lp1
(lp2
S'state'
p3
aI0
aa(lp4
S'distance'
p5
aF42.92116451263428
aa(lp6
S'timestamp'
p7
aF7.167622089385986
aatp8
Rp9
.ccollections
OrderedDict
p0
((lp1
(lp2
S'state'
p3
aI0
aa(lp4
S'distance'
p5
aF42.92116451263428
aa(lp6
S'timestamp'
p7
aF7.167819976806641
aatp8
Rp9
.ccollections
OrderedDict
p0
((lp1
(lp2
S'state'
p3
aI0
aa(lp4
S'distance'
p5
aF42.92116451263428
aa(lp6
S'timestamp'
p7
aF7.17733097076416
aatp8
Rp9
.ccollections
OrderedDict
p0
((lp1
(lp2
S'state'
p3
aI0
aa(lp4
S'distance'
p5
aF42.92116451263428
aa(lp6
S'timestamp'
p7
aF7.178037166595459
aatp8
Rp9
.ccollections
OrderedDict
p0
((lp1
(lp2
S'state'
p3
aI0
aa(lp4
S'distance'
p5
aF42.92116451263428
aa(lp6
S'timestamp'
p7
aF7.1876349449157715
aatp8
Rp9
.ccollections
OrderedDict
p0
((lp1
(lp2
S'state'
p3
aI0
aa(lp4
S'distance'
p5
aF42.92116451263428
aa(lp6
S'timestamp'
p7
aF7.187915086746216
aatp8
Rp9
.ccollections
OrderedDict
p0
((lp1
(lp2
S'state'
p3
aI0
aa(lp4
S'distance'
p5
aF42.92116451263428
aa(lp6
S'timestamp'
p7
aF7.197554111480713
aatp8
Rp9
.ccollections
OrderedDict
p0
((lp1
(lp2
S'state'
p3
aI0
aa(lp4
S'distance'
p5
aF42.92116451263428
aa(lp6
S'timestamp'
p7
aF7.19831109046936
aatp8
Rp9
.ccollections
OrderedDict
p0
((lp1
(lp2
S'state'
p3
aI0
aa(lp4
S'distance'
p5
aF42.92116451263428
aa(lp6
S'timestamp'
p7
aF7.207517147064209
aatp8
Rp9
.ccollections
OrderedDict
p0
((lp1
(lp2
S'state'
p3
aI0
aa(lp4
S'distance'
p5
aF42.92116451263428
aa(lp6
S'timestamp'
p7
aF7.207844018936157
aatp8
Rp9
.ccollections
OrderedDict
p0
((lp1
(lp2
S'state'
p3
aI0
aa(lp4
S'distance'
p5
aF42.92116451263428
aa(lp6
S'timestamp'
p7
aF7.217939138412476
aatp8
Rp9
.ccollections
OrderedDict
p0
((lp1
(lp2
S'state'
p3
aI0
aa(lp4
S'distance'
p5
aF42.92116451263428
aa(lp6
S'timestamp'
p7
aF7.21819806098938
aatp8
Rp9
.ccollections
OrderedDict
p0
((lp1
(lp2
S'state'
p3
aI0
aa(lp4
S'distance'
p5
aF42.92116451263428
aa(lp6
S'timestamp'
p7
aF7.237429141998291
aatp8
Rp9
.ccollections
OrderedDict
p0
((lp1
(lp2
S'state'
p3
aI0
aa(lp4
S'distance'
p5
aF42.92116451263428
aa(lp6
S'timestamp'
p7
aF7.2381751537323
aatp8
Rp9
.ccollections
OrderedDict
p0
((lp1
(lp2
S'state'
p3
aI0
aa(lp4
S'distance'
p5
aF42.92116451263428
aa(lp6
S'timestamp'
p7
aF7.2391180992126465
aatp8
Rp9
.ccollections
OrderedDict
p0
((lp1
(lp2
S'state'
p3
aI0
aa(lp4
S'distance'
p5
aF42.92116451263428
aa(lp6
S'timestamp'
p7
aF7.239197015762329
aatp8
Rp9
.ccollections
OrderedDict
p0
((lp1
(lp2
S'state'
p3
aI0
aa(lp4
S'distance'
p5
aF42.92116451263428
aa(lp6
S'timestamp'
p7
aF7.247429132461548
aatp8
Rp9
.ccollections
OrderedDict
p0
((lp1
(lp2
S'state'
p3
aI0
aa(lp4
S'distance'
p5
aF42.92116451263428
aa(lp6
S'timestamp'
p7
aF7.247818946838379
aatp8
Rp9
.ccollections
OrderedDict
p0
((lp1
(lp2
S'state'
p3
aI0
aa(lp4
S'distance'
p5
aF42.92116451263428
aa(lp6
S'timestamp'
p7
aF7.257419109344482
aatp8
Rp9
.ccollections
OrderedDict
p0
((lp1
(lp2
S'state'
p3
aI0
aa(lp4
S'distance'
p5
aF42.92116451263428
aa(lp6
S'timestamp'
p7
aF7.258104085922241
aatp8
Rp9
.ccollections
OrderedDict
p0
((lp1
(lp2
S'state'
p3
aI0
aa(lp4
S'distance'
p5
aF42.92116451263428
aa(lp6
S'timestamp'
p7
aF7.267416000366211
aatp8
Rp9
.ccollections
OrderedDict
p0
((lp1
(lp2
S'state'
p3
aI0
aa(lp4
S'distance'
p5
aF42.92116451263428
aa(lp6
S'timestamp'
p7
aF7.267936944961548
aatp8
Rp9
.ccollections
OrderedDict
p0
((lp1
(lp2
S'state'
p3
aI0
aa(lp4
S'distance'
p5
aF42.92116451263428
aa(lp6
S'timestamp'
p7
aF7.27792501449585
aatp8
Rp9
.ccollections
OrderedDict
p0
((lp1
(lp2
S'state'
p3
aI0
aa(lp4
S'distance'
p5
aF42.92116451263428
aa(lp6
S'timestamp'
p7
aF7.278179168701172
aatp8
Rp9
.ccollections
OrderedDict
p0
((lp1
(lp2
S'state'
p3
aI0
aa(lp4
S'distance'
p5
aF42.92116451263428
aa(lp6
S'timestamp'
p7
aF7.287621021270752
aatp8
Rp9
.ccollections
OrderedDict
p0
((lp1
(lp2
S'state'
p3
aI0
aa(lp4
S'distance'
p5
aF42.92116451263428
aa(lp6
S'timestamp'
p7
aF7.28778600692749
aatp8
Rp9
.ccollections
OrderedDict
p0
((lp1
(lp2
S'state'
p3
aI0
aa(lp4
S'distance'
p5
aF42.92116451263428
aa(lp6
S'timestamp'
p7
aF7.297651052474976
aatp8
Rp9
.ccollections
OrderedDict
p0
((lp1
(lp2
S'state'
p3
aI0
aa(lp4
S'distance'
p5
aF42.92116451263428
aa(lp6
S'timestamp'
p7
aF7.297791004180908
aatp8
Rp9
.ccollections
OrderedDict
p0
((lp1
(lp2
S'state'
p3
aI0
aa(lp4
S'distance'
p5
aF42.92116451263428
aa(lp6
S'timestamp'
p7
aF7.3074791431427
aatp8
Rp9
.ccollections
OrderedDict
p0
((lp1
(lp2
S'state'
p3
aI0
aa(lp4
S'distance'
p5
aF42.92116451263428
aa(lp6
S'timestamp'
p7
aF7.30799412727356
aatp8
Rp9
.ccollections
OrderedDict
p0
((lp1
(lp2
S'state'
p3
aI0
aa(lp4
S'distance'
p5
aF42.92116451263428
aa(lp6
S'timestamp'
p7
aF7.317368984222412
aatp8
Rp9
.ccollections
OrderedDict
p0
((lp1
(lp2
S'state'
p3
aI0
aa(lp4
S'distance'
p5
aF42.92116451263428
aa(lp6
S'timestamp'
p7
aF7.317947149276733
aatp8
Rp9
.ccollections
OrderedDict
p0
((lp1
(lp2
S'state'
p3
aI0
aa(lp4
S'distance'
p5
aF42.92116451263428
aa(lp6
S'timestamp'
p7
aF7.327649116516113
aatp8
Rp9
.ccollections
OrderedDict
p0
((lp1
(lp2
S'state'
p3
aI0
aa(lp4
S'distance'
p5
aF42.92116451263428
aa(lp6
S'timestamp'
p7
aF7.328088045120239
aatp8
Rp9
.ccollections
OrderedDict
p0
((lp1
(lp2
S'state'
p3
aI0
aa(lp4
S'distance'
p5
aF42.92116451263428
aa(lp6
S'timestamp'
p7
aF7.3376710414886475
aatp8
Rp9
.ccollections
OrderedDict
p0
((lp1
(lp2
S'state'
p3
aI0
aa(lp4
S'distance'
p5
aF42.92116451263428
aa(lp6
S'timestamp'
p7
aF7.3378071784973145
aatp8
Rp9
.ccollections
OrderedDict
p0
((lp1
(lp2
S'state'
p3
aI0
aa(lp4
S'distance'
p5
aF42.92116451263428
aa(lp6
S'timestamp'
p7
aF7.347635984420776
aatp8
Rp9
.ccollections
OrderedDict
p0
((lp1
(lp2
S'state'
p3
aI0
aa(lp4
S'distance'
p5
aF42.92116451263428
aa(lp6
S'timestamp'
p7
aF7.347908973693848
aatp8
Rp9
.ccollections
OrderedDict
p0
((lp1
(lp2
S'state'
p3
aI0
aa(lp4
S'distance'
p5
aF42.92116451263428
aa(lp6
S'timestamp'
p7
aF7.357501029968262
aatp8
Rp9
.ccollections
OrderedDict
p0
((lp1
(lp2
S'state'
p3
aI0
aa(lp4
S'distance'
p5
aF42.92116451263428
aa(lp6
S'timestamp'
p7
aF7.357898950576782
aatp8
Rp9
.ccollections
OrderedDict
p0
((lp1
(lp2
S'state'
p3
aI0
aa(lp4
S'distance'
p5
aF42.92116451263428
aa(lp6
S'timestamp'
p7
aF7.367462158203125
aatp8
Rp9
.ccollections
OrderedDict
p0
((lp1
(lp2
S'state'
p3
aI0
aa(lp4
S'distance'
p5
aF42.92116451263428
aa(lp6
S'timestamp'
p7
aF7.36784815788269
aatp8
Rp9
.ccollections
OrderedDict
p0
((lp1
(lp2
S'state'
p3
aI0
aa(lp4
S'distance'
p5
aF42.92116451263428
aa(lp6
S'timestamp'
p7
aF7.377367973327637
aatp8
Rp9
.ccollections
OrderedDict
p0
((lp1
(lp2
S'state'
p3
aI0
aa(lp4
S'distance'
p5
aF42.92116451263428
aa(lp6
S'timestamp'
p7
aF7.37821102142334
aatp8
Rp9
.ccollections
OrderedDict
p0
((lp1
(lp2
S'state'
p3
aI0
aa(lp4
S'distance'
p5
aF42.92116451263428
aa(lp6
S'timestamp'
p7
aF7.38762903213501
aatp8
Rp9
.ccollections
OrderedDict
p0
((lp1
(lp2
S'state'
p3
aI0
aa(lp4
S'distance'
p5
aF42.92116451263428
aa(lp6
S'timestamp'
p7
aF7.387763977050781
aatp8
Rp9
.ccollections
OrderedDict
p0
((lp1
(lp2
S'state'
p3
aI0
aa(lp4
S'distance'
p5
aF42.92116451263428
aa(lp6
S'timestamp'
p7
aF7.397616147994995
aatp8
Rp9
.ccollections
OrderedDict
p0
((lp1
(lp2
S'state'
p3
aI0
aa(lp4
S'distance'
p5
aF42.92116451263428
aa(lp6
S'timestamp'
p7
aF7.397757053375244
aatp8
Rp9
.ccollections
OrderedDict
p0
((lp1
(lp2
S'state'
p3
aI0
aa(lp4
S'distance'
p5
aF42.92116451263428
aa(lp6
S'timestamp'
p7
aF7.407714128494263
aatp8
Rp9
.ccollections
OrderedDict
p0
((lp1
(lp2
S'state'
p3
aI0
aa(lp4
S'distance'
p5
aF42.92116451263428
aa(lp6
S'timestamp'
p7
aF7.407907962799072
aatp8
Rp9
.ccollections
OrderedDict
p0
((lp1
(lp2
S'state'
p3
aI0
aa(lp4
S'distance'
p5
aF42.92116451263428
aa(lp6
S'timestamp'
p7
aF7.417631149291992
aatp8
Rp9
.ccollections
OrderedDict
p0
((lp1
(lp2
S'state'
p3
aI0
aa(lp4
S'distance'
p5
aF42.92116451263428
aa(lp6
S'timestamp'
p7
aF7.417780160903931
aatp8
Rp9
.ccollections
OrderedDict
p0
((lp1
(lp2
S'state'
p3
aI0
aa(lp4
S'distance'
p5
aF42.92116451263428
aa(lp6
S'timestamp'
p7
aF7.427335977554321
aatp8
Rp9
.ccollections
OrderedDict
p0
((lp1
(lp2
S'state'
p3
aI0
aa(lp4
S'distance'
p5
aF42.92116451263428
aa(lp6
S'timestamp'
p7
aF7.42798113822937
aatp8
Rp9
.ccollections
OrderedDict
p0
((lp1
(lp2
S'state'
p3
aI0
aa(lp4
S'distance'
p5
aF42.92116451263428
aa(lp6
S'timestamp'
p7
aF7.43754506111145
aatp8
Rp9
.ccollections
OrderedDict
p0
((lp1
(lp2
S'state'
p3
aI0
aa(lp4
S'distance'
p5
aF42.92116451263428
aa(lp6
S'timestamp'
p7
aF7.438161134719849
aatp8
Rp9
.ccollections
OrderedDict
p0
((lp1
(lp2
S'state'
p3
aI0
aa(lp4
S'distance'
p5
aF42.92116451263428
aa(lp6
S'timestamp'
p7
aF7.447623014450073
aatp8
Rp9
.ccollections
OrderedDict
p0
((lp1
(lp2
S'state'
p3
aI0
aa(lp4
S'distance'
p5
aF42.92116451263428
aa(lp6
S'timestamp'
p7
aF7.447930097579956
aatp8
Rp9
.ccollections
OrderedDict
p0
((lp1
(lp2
S'state'
p3
aI0
aa(lp4
S'distance'
p5
aF42.92116451263428
aa(lp6
S'timestamp'
p7
aF7.457330942153931
aatp8
Rp9
.ccollections
OrderedDict
p0
((lp1
(lp2
S'state'
p3
aI0
aa(lp4
S'distance'
p5
aF42.92116451263428
aa(lp6
S'timestamp'
p7
aF7.457980155944824
aatp8
Rp9
.ccollections
OrderedDict
p0
((lp1
(lp2
S'state'
p3
aI0
aa(lp4
S'distance'
p5
aF42.92116451263428
aa(lp6
S'timestamp'
p7
aF7.467483043670654
aatp8
Rp9
.ccollections
OrderedDict
p0
((lp1
(lp2
S'state'
p3
aI0
aa(lp4
S'distance'
p5
aF42.92116451263428
aa(lp6
S'timestamp'
p7
aF7.467839956283569
aatp8
Rp9
.ccollections
OrderedDict
p0
((lp1
(lp2
S'state'
p3
aI0
aa(lp4
S'distance'
p5
aF42.92116451263428
aa(lp6
S'timestamp'
p7
aF7.477516174316406
aatp8
Rp9
.ccollections
OrderedDict
p0
((lp1
(lp2
S'state'
p3
aI0
aa(lp4
S'distance'
p5
aF42.92116451263428
aa(lp6
S'timestamp'
p7
aF7.478002071380615
aatp8
Rp9
.ccollections
OrderedDict
p0
((lp1
(lp2
S'state'
p3
aI0
aa(lp4
S'distance'
p5
aF42.92116451263428
aa(lp6
S'timestamp'
p7
aF7.487475156784058
aatp8
Rp9
.ccollections
OrderedDict
p0
((lp1
(lp2
S'state'
p3
aI0
aa(lp4
S'distance'
p5
aF42.92116451263428
aa(lp6
S'timestamp'
p7
aF7.488002061843872
aatp8
Rp9
.ccollections
OrderedDict
p0
((lp1
(lp2
S'state'
p3
aI0
aa(lp4
S'distance'
p5
aF42.92116451263428
aa(lp6
S'timestamp'
p7
aF7.4975199699401855
aatp8
Rp9
.ccollections
OrderedDict
p0
((lp1
(lp2
S'state'
p3
aI0
aa(lp4
S'distance'
p5
aF42.92116451263428
aa(lp6
S'timestamp'
p7
aF7.497997999191284
aatp8
Rp9
.ccollections
OrderedDict
p0
((lp1
(lp2
S'state'
p3
aI0
aa(lp4
S'distance'
p5
aF42.92116451263428
aa(lp6
S'timestamp'
p7
aF7.507678985595703
aatp8
Rp9
.ccollections
OrderedDict
p0
((lp1
(lp2
S'state'
p3
aI0
aa(lp4
S'distance'
p5
aF42.92116451263428
aa(lp6
S'timestamp'
p7
aF7.507807016372681
aatp8
Rp9
.ccollections
OrderedDict
p0
((lp1
(lp2
S'state'
p3
aI0
aa(lp4
S'distance'
p5
aF42.92116451263428
aa(lp6
S'timestamp'
p7
aF7.517544984817505
aatp8
Rp9
.ccollections
OrderedDict
p0
((lp1
(lp2
S'state'
p3
aI0
aa(lp4
S'distance'
p5
aF42.92116451263428
aa(lp6
S'timestamp'
p7
aF7.517982006072998
aatp8
Rp9
.ccollections
OrderedDict
p0
((lp1
(lp2
S'state'
p3
aI0
aa(lp4
S'distance'
p5
aF42.92116451263428
aa(lp6
S'timestamp'
p7
aF7.527734041213989
aatp8
Rp9
.ccollections
OrderedDict
p0
((lp1
(lp2
S'state'
p3
aI0
aa(lp4
S'distance'
p5
aF42.92116451263428
aa(lp6
S'timestamp'
p7
aF7.527857065200806
aatp8
Rp9
.ccollections
OrderedDict
p0
((lp1
(lp2
S'state'
p3
aI0
aa(lp4
S'distance'
p5
aF42.92116451263428
aa(lp6
S'timestamp'
p7
aF7.5377020835876465
aatp8
Rp9
.ccollections
OrderedDict
p0
((lp1
(lp2
S'state'
p3
aI0
aa(lp4
S'distance'
p5
aF42.92116451263428
aa(lp6
S'timestamp'
p7
aF7.537827014923096
aatp8
Rp9
.ccollections
OrderedDict
p0
((lp1
(lp2
S'state'
p3
aI0
aa(lp4
S'distance'
p5
aF42.92116451263428
aa(lp6
S'timestamp'
p7
aF7.547662973403931
aatp8
Rp9
.ccollections
OrderedDict
p0
((lp1
(lp2
S'state'
p3
aI0
aa(lp4
S'distance'
p5
aF42.92116451263428
aa(lp6
S'timestamp'
p7
aF7.547945022583008
aatp8
Rp9
.ccollections
OrderedDict
p0
((lp1
(lp2
S'state'
p3
aI0
aa(lp4
S'distance'
p5
aF42.92116451263428
aa(lp6
S'timestamp'
p7
aF7.557585000991821
aatp8
Rp9
.ccollections
OrderedDict
p0
((lp1
(lp2
S'state'
p3
aI0
aa(lp4
S'distance'
p5
aF42.92116451263428
aa(lp6
S'timestamp'
p7
aF7.55791711807251
aatp8
Rp9
.ccollections
OrderedDict
p0
((lp1
(lp2
S'state'
p3
aI0
aa(lp4
S'distance'
p5
aF42.92116451263428
aa(lp6
S'timestamp'
p7
aF7.567464113235474
aatp8
Rp9
.ccollections
OrderedDict
p0
((lp1
(lp2
S'state'
p3
aI0
aa(lp4
S'distance'
p5
aF42.92116451263428
aa(lp6
S'timestamp'
p7
aF7.568045139312744
aatp8
Rp9
.ccollections
OrderedDict
p0
((lp1
(lp2
S'state'
p3
aI0
aa(lp4
S'distance'
p5
aF42.92116451263428
aa(lp6
S'timestamp'
p7
aF7.577617168426514
aatp8
Rp9
.ccollections
OrderedDict
p0
((lp1
(lp2
S'state'
p3
aI0
aa(lp4
S'distance'
p5
aF42.92116451263428
aa(lp6
S'timestamp'
p7
aF7.577944040298462
aatp8
Rp9
.ccollections
OrderedDict
p0
((lp1
(lp2
S'state'
p3
aI0
aa(lp4
S'distance'
p5
aF42.92116451263428
aa(lp6
S'timestamp'
p7
aF7.587404012680054
aatp8
Rp9
.ccollections
OrderedDict
p0
((lp1
(lp2
S'state'
p3
aI0
aa(lp4
S'distance'
p5
aF42.92116451263428
aa(lp6
S'timestamp'
p7
aF7.587888956069946
aatp8
Rp9
.ccollections
OrderedDict
p0
((lp1
(lp2
S'state'
p3
aI0
aa(lp4
S'distance'
p5
aF42.92116451263428
aa(lp6
S'timestamp'
p7
aF7.5975401401519775
aatp8
Rp9
.ccollections
OrderedDict
p0
((lp1
(lp2
S'state'
p3
aI0
aa(lp4
S'distance'
p5
aF42.92116451263428
aa(lp6
S'timestamp'
p7
aF7.597880125045776
aatp8
Rp9
.ccollections
OrderedDict
p0
((lp1
(lp2
S'state'
p3
aI0
aa(lp4
S'distance'
p5
aF42.92116451263428
aa(lp6
S'timestamp'
p7
aF7.607638120651245
aatp8
Rp9
.ccollections
OrderedDict
p0
((lp1
(lp2
S'state'
p3
aI0
aa(lp4
S'distance'
p5
aF42.92116451263428
aa(lp6
S'timestamp'
p7
aF7.607943058013916
aatp8
Rp9
.ccollections
OrderedDict
p0
((lp1
(lp2
S'state'
p3
aI0
aa(lp4
S'distance'
p5
aF42.92116451263428
aa(lp6
S'timestamp'
p7
aF7.617683172225952
aatp8
Rp9
.ccollections
OrderedDict
p0
((lp1
(lp2
S'state'
p3
aI0
aa(lp4
S'distance'
p5
aF42.92116451263428
aa(lp6
S'timestamp'
p7
aF7.617823123931885
aatp8
Rp9
.ccollections
OrderedDict
p0
((lp1
(lp2
S'state'
p3
aI0
aa(lp4
S'distance'
p5
aF42.92116451263428
aa(lp6
S'timestamp'
p7
aF7.62762713432312
aatp8
Rp9
.ccollections
OrderedDict
p0
((lp1
(lp2
S'state'
p3
aI0
aa(lp4
S'distance'
p5
aF42.92116451263428
aa(lp6
S'timestamp'
p7
aF7.628025054931641
aatp8
Rp9
.ccollections
OrderedDict
p0
((lp1
(lp2
S'state'
p3
aI0
aa(lp4
S'distance'
p5
aF42.92116451263428
aa(lp6
S'timestamp'
p7
aF7.637554168701172
aatp8
Rp9
.ccollections
OrderedDict
p0
((lp1
(lp2
S'state'
p3
aI0
aa(lp4
S'distance'
p5
aF42.92116451263428
aa(lp6
S'timestamp'
p7
aF7.638012170791626
aatp8
Rp9
.ccollections
OrderedDict
p0
((lp1
(lp2
S'state'
p3
aI0
aa(lp4
S'distance'
p5
aF42.92116451263428
aa(lp6
S'timestamp'
p7
aF7.647567987442017
aatp8
Rp9
.ccollections
OrderedDict
p0
((lp1
(lp2
S'state'
p3
aI0
aa(lp4
S'distance'
p5
aF42.92116451263428
aa(lp6
S'timestamp'
p7
aF7.648087978363037
aatp8
Rp9
.ccollections
OrderedDict
p0
((lp1
(lp2
S'state'
p3
aI0
aa(lp4
S'distance'
p5
aF42.92116451263428
aa(lp6
S'timestamp'
p7
aF7.657382011413574
aatp8
Rp9
.ccollections
OrderedDict
p0
((lp1
(lp2
S'state'
p3
aI0
aa(lp4
S'distance'
p5
aF42.92116451263428
aa(lp6
S'timestamp'
p7
aF7.6580140590667725
aatp8
Rp9
.ccollections
OrderedDict
p0
((lp1
(lp2
S'state'
p3
aI0
aa(lp4
S'distance'
p5
aF42.92116451263428
aa(lp6
S'timestamp'
p7
aF7.667441129684448
aatp8
Rp9
.ccollections
OrderedDict
p0
((lp1
(lp2
S'state'
p3
aI0
aa(lp4
S'distance'
p5
aF42.92116451263428
aa(lp6
S'timestamp'
p7
aF7.668013095855713
aatp8
Rp9
.ccollections
OrderedDict
p0
((lp1
(lp2
S'state'
p3
aI0
aa(lp4
S'distance'
p5
aF42.92116451263428
aa(lp6
S'timestamp'
p7
aF7.677571058273315
aatp8
Rp9
.ccollections
OrderedDict
p0
((lp1
(lp2
S'state'
p3
aI0
aa(lp4
S'distance'
p5
aF42.92116451263428
aa(lp6
S'timestamp'
p7
aF7.677963018417358
aatp8
Rp9
.ccollections
OrderedDict
p0
((lp1
(lp2
S'state'
p3
aI0
aa(lp4
S'distance'
p5
aF42.92116451263428
aa(lp6
S'timestamp'
p7
aF7.697797060012817
aatp8
Rp9
.ccollections
OrderedDict
p0
((lp1
(lp2
S'state'
p3
aI0
aa(lp4
S'distance'
p5
aF42.92116451263428
aa(lp6
S'timestamp'
p7
aF7.69864296913147
aatp8
Rp9
.ccollections
OrderedDict
p0
((lp1
(lp2
S'state'
p3
aI0
aa(lp4
S'distance'
p5
aF42.92116451263428
aa(lp6
S'timestamp'
p7
aF7.700824975967407
aatp8
Rp9
.ccollections
OrderedDict
p0
((lp1
(lp2
S'state'
p3
aI0
aa(lp4
S'distance'
p5
aF42.92116451263428
aa(lp6
S'timestamp'
p7
aF7.7014219760894775
aatp8
Rp9
.ccollections
OrderedDict
p0
((lp1
(lp2
S'state'
p3
aI0
aa(lp4
S'distance'
p5
aF42.92116451263428
aa(lp6
S'timestamp'
p7
aF7.708225965499878
aatp8
Rp9
.ccollections
OrderedDict
p0
((lp1
(lp2
S'state'
p3
aI0
aa(lp4
S'distance'
p5
aF42.92116451263428
aa(lp6
S'timestamp'
p7
aF7.708554983139038
aatp8
Rp9
.ccollections
OrderedDict
p0
((lp1
(lp2
S'state'
p3
aI0
aa(lp4
S'distance'
p5
aF42.92116451263428
aa(lp6
S'timestamp'
p7
aF7.717411041259766
aatp8
Rp9
.ccollections
OrderedDict
p0
((lp1
(lp2
S'state'
p3
aI0
aa(lp4
S'distance'
p5
aF42.92116451263428
aa(lp6
S'timestamp'
p7
aF7.71799898147583
aatp8
Rp9
.ccollections
OrderedDict
p0
((lp1
(lp2
S'state'
p3
aI0
aa(lp4
S'distance'
p5
aF42.92116451263428
aa(lp6
S'timestamp'
p7
aF7.727569103240967
aatp8
Rp9
.ccollections
OrderedDict
p0
((lp1
(lp2
S'state'
p3
aI0
aa(lp4
S'distance'
p5
aF42.92116451263428
aa(lp6
S'timestamp'
p7
aF7.728135108947754
aatp8
Rp9
.ccollections
OrderedDict
p0
((lp1
(lp2
S'state'
p3
aI0
aa(lp4
S'distance'
p5
aF42.92116451263428
aa(lp6
S'timestamp'
p7
aF7.737549066543579
aatp8
Rp9
.ccollections
OrderedDict
p0
((lp1
(lp2
S'state'
p3
aI0
aa(lp4
S'distance'
p5
aF42.92116451263428
aa(lp6
S'timestamp'
p7
aF7.738048076629639
aatp8
Rp9
.ccollections
OrderedDict
p0
((lp1
(lp2
S'state'
p3
aI0
aa(lp4
S'distance'
p5
aF42.92116451263428
aa(lp6
S'timestamp'
p7
aF7.747588157653809
aatp8
Rp9
.ccollections
OrderedDict
p0
((lp1
(lp2
S'state'
p3
aI0
aa(lp4
S'distance'
p5
aF42.92116451263428
aa(lp6
S'timestamp'
p7
aF7.747920036315918
aatp8
Rp9
.ccollections
OrderedDict
p0
((lp1
(lp2
S'state'
p3
aI0
aa(lp4
S'distance'
p5
aF42.92116451263428
aa(lp6
S'timestamp'
p7
aF7.757663011550903
aatp8
Rp9
.ccollections
OrderedDict
p0
((lp1
(lp2
S'state'
p3
aI0
aa(lp4
S'distance'
p5
aF42.92116451263428
aa(lp6
S'timestamp'
p7
aF7.757984161376953
aatp8
Rp9
.ccollections
OrderedDict
p0
((lp1
(lp2
S'state'
p3
aI0
aa(lp4
S'distance'
p5
aF42.92116451263428
aa(lp6
S'timestamp'
p7
aF7.7674500942230225
aatp8
Rp9
.ccollections
OrderedDict
p0
((lp1
(lp2
S'state'
p3
aI0
aa(lp4
S'distance'
p5
aF42.92116451263428
aa(lp6
S'timestamp'
p7
aF7.767956018447876
aatp8
Rp9
.ccollections
OrderedDict
p0
((lp1
(lp2
S'state'
p3
aI0
aa(lp4
S'distance'
p5
aF42.92116451263428
aa(lp6
S'timestamp'
p7
aF7.777421951293945
aatp8
Rp9
.ccollections
OrderedDict
p0
((lp1
(lp2
S'state'
p3
aI0
aa(lp4
S'distance'
p5
aF42.92116451263428
aa(lp6
S'timestamp'
p7
aF7.7779700756073
aatp8
Rp9
.ccollections
OrderedDict
p0
((lp1
(lp2
S'state'
p3
aI0
aa(lp4
S'distance'
p5
aF42.92116451263428
aa(lp6
S'timestamp'
p7
aF7.787635087966919
aatp8
Rp9
.ccollections
OrderedDict
p0
((lp1
(lp2
S'state'
p3
aI0
aa(lp4
S'distance'
p5
aF42.92116451263428
aa(lp6
S'timestamp'
p7
aF7.788671016693115
aatp8
Rp9
.ccollections
OrderedDict
p0
((lp1
(lp2
S'state'
p3
aI0
aa(lp4
S'distance'
p5
aF42.92116451263428
aa(lp6
S'timestamp'
p7
aF7.797600030899048
aatp8
Rp9
.ccollections
OrderedDict
p0
((lp1
(lp2
S'state'
p3
aI0
aa(lp4
S'distance'
p5
aF42.92116451263428
aa(lp6
S'timestamp'
p7
aF7.797919988632202
aatp8
Rp9
.ccollections
OrderedDict
p0
((lp1
(lp2
S'state'
p3
aI0
aa(lp4
S'distance'
p5
aF42.92116451263428
aa(lp6
S'timestamp'
p7
aF7.807665109634399
aatp8
Rp9
.ccollections
OrderedDict
p0
((lp1
(lp2
S'state'
p3
aI0
aa(lp4
S'distance'
p5
aF42.92116451263428
aa(lp6
S'timestamp'
p7
aF7.8081440925598145
aatp8
Rp9
.ccollections
OrderedDict
p0
((lp1
(lp2
S'state'
p3
aI0
aa(lp4
S'distance'
p5
aF42.92116451263428
aa(lp6
S'timestamp'
p7
aF7.81840705871582
aatp8
Rp9
.ccollections
OrderedDict
p0
((lp1
(lp2
S'state'
p3
aI0
aa(lp4
S'distance'
p5
aF42.92116451263428
aa(lp6
S'timestamp'
p7
aF7.819199085235596
aatp8
Rp9
.ccollections
OrderedDict
p0
((lp1
(lp2
S'state'
p3
aI0
aa(lp4
S'distance'
p5
aF42.92116451263428
aa(lp6
S'timestamp'
p7
aF7.827917098999023
aatp8
Rp9
.ccollections
OrderedDict
p0
((lp1
(lp2
S'state'
p3
aI0
aa(lp4
S'distance'
p5
aF42.92116451263428
aa(lp6
S'timestamp'
p7
aF7.828068017959595
aatp8
Rp9
.ccollections
OrderedDict
p0
((lp1
(lp2
S'state'
p3
aI0
aa(lp4
S'distance'
p5
aF42.92116451263428
aa(lp6
S'timestamp'
p7
aF7.837475061416626
aatp8
Rp9
.ccollections
OrderedDict
p0
((lp1
(lp2
S'state'
p3
aI0
aa(lp4
S'distance'
p5
aF42.92116451263428
aa(lp6
S'timestamp'
p7
aF7.8379199504852295
aatp8
Rp9
.ccollections
OrderedDict
p0
((lp1
(lp2
S'state'
p3
aI0
aa(lp4
S'distance'
p5
aF42.92116451263428
aa(lp6
S'timestamp'
p7
aF7.847581148147583
aatp8
Rp9
.ccollections
OrderedDict
p0
((lp1
(lp2
S'state'
p3
aI0
aa(lp4
S'distance'
p5
aF42.92116451263428
aa(lp6
S'timestamp'
p7
aF7.848016023635864
aatp8
Rp9
.ccollections
OrderedDict
p0
((lp1
(lp2
S'state'
p3
aI0
aa(lp4
S'distance'
p5
aF42.92116451263428
aa(lp6
S'timestamp'
p7
aF7.857469081878662
aatp8
Rp9
.ccollections
OrderedDict
p0
((lp1
(lp2
S'state'
p3
aI0
aa(lp4
S'distance'
p5
aF42.92116451263428
aa(lp6
S'timestamp'
p7
aF7.8580780029296875
aatp8
Rp9
.ccollections
OrderedDict
p0
((lp1
(lp2
S'state'
p3
aI0
aa(lp4
S'distance'
p5
aF42.92116451263428
aa(lp6
S'timestamp'
p7
aF7.867432117462158
aatp8
Rp9
.ccollections
OrderedDict
p0
((lp1
(lp2
S'state'
p3
aI0
aa(lp4
S'distance'
p5
aF42.92116451263428
aa(lp6
S'timestamp'
p7
aF7.877861976623535
aatp8
Rp9
.ccollections
OrderedDict
p0
((lp1
(lp2
S'state'
p3
aI0
aa(lp4
S'distance'
p5
aF42.92116451263428
aa(lp6
S'timestamp'
p7
aF7.8786749839782715
aatp8
Rp9
.ccollections
OrderedDict
p0
((lp1
(lp2
S'state'
p3
aI0
aa(lp4
S'distance'
p5
aF42.92116451263428
aa(lp6
S'timestamp'
p7
aF7.880069971084595
aatp8
Rp9
.ccollections
OrderedDict
p0
((lp1
(lp2
S'state'
p3
aI0
aa(lp4
S'distance'
p5
aF42.92116451263428
aa(lp6
S'timestamp'
p7
aF7.887705087661743
aatp8
Rp9
.ccollections
OrderedDict
p0
((lp1
(lp2
S'state'
p3
aI0
aa(lp4
S'distance'
p5
aF42.92116451263428
aa(lp6
S'timestamp'
p7
aF7.8880650997161865
aatp8
Rp9
.ccollections
OrderedDict
p0
((lp1
(lp2
S'state'
p3
aI0
aa(lp4
S'distance'
p5
aF42.92116451263428
aa(lp6
S'timestamp'
p7
aF7.897592067718506
aatp8
Rp9
.ccollections
OrderedDict
p0
((lp1
(lp2
S'state'
p3
aI0
aa(lp4
S'distance'
p5
aF42.92116451263428
aa(lp6
S'timestamp'
p7
aF7.898035049438477
aatp8
Rp9
.ccollections
OrderedDict
p0
((lp1
(lp2
S'state'
p3
aI0
aa(lp4
S'distance'
p5
aF42.92116451263428
aa(lp6
S'timestamp'
p7
aF7.907624959945679
aatp8
Rp9
.ccollections
OrderedDict
p0
((lp1
(lp2
S'state'
p3
aI0
aa(lp4
S'distance'
p5
aF42.92116451263428
aa(lp6
S'timestamp'
p7
aF7.908076047897339
aatp8
Rp9
.ccollections
OrderedDict
p0
((lp1
(lp2
S'state'
p3
aI0
aa(lp4
S'distance'
p5
aF42.92116451263428
aa(lp6
S'timestamp'
p7
aF7.917678117752075
aatp8
Rp9
.ccollections
OrderedDict
p0
((lp1
(lp2
S'state'
p3
aI0
aa(lp4
S'distance'
p5
aF42.92116451263428
aa(lp6
S'timestamp'
p7
aF7.917968988418579
aatp8
Rp9
.ccollections
OrderedDict
p0
((lp1
(lp2
S'state'
p3
aI0
aa(lp4
S'distance'
p5
aF42.92116451263428
aa(lp6
S'timestamp'
p7
aF7.9277801513671875
aatp8
Rp9
.ccollections
OrderedDict
p0
((lp1
(lp2
S'state'
p3
aI0
aa(lp4
S'distance'
p5
aF42.92116451263428
aa(lp6
S'timestamp'
p7
aF7.9279680252075195
aatp8
Rp9
.ccollections
OrderedDict
p0
((lp1
(lp2
S'state'
p3
aI0
aa(lp4
S'distance'
p5
aF42.92116451263428
aa(lp6
S'timestamp'
p7
aF7.937539100646973
aatp8
Rp9
.ccollections
OrderedDict
p0
((lp1
(lp2
S'state'
p3
aI0
aa(lp4
S'distance'
p5
aF42.92116451263428
aa(lp6
S'timestamp'
p7
aF7.938064098358154
aatp8
Rp9
.ccollections
OrderedDict
p0
((lp1
(lp2
S'state'
p3
aI0
aa(lp4
S'distance'
p5
aF42.92116451263428
aa(lp6
S'timestamp'
p7
aF7.947734117507935
aatp8
Rp9
.ccollections
OrderedDict
p0
((lp1
(lp2
S'state'
p3
aI0
aa(lp4
S'distance'
p5
aF42.92116451263428
aa(lp6
S'timestamp'
p7
aF7.948025941848755
aatp8
Rp9
.ccollections
OrderedDict
p0
((lp1
(lp2
S'state'
p3
aI0
aa(lp4
S'distance'
p5
aF42.92116451263428
aa(lp6
S'timestamp'
p7
aF7.957674026489258
aatp8
Rp9
.ccollections
OrderedDict
p0
((lp1
(lp2
S'state'
p3
aI0
aa(lp4
S'distance'
p5
aF42.92116451263428
aa(lp6
S'timestamp'
p7
aF7.958048105239868
aatp8
Rp9
.ccollections
OrderedDict
p0
((lp1
(lp2
S'state'
p3
aI0
aa(lp4
S'distance'
p5
aF42.92116451263428
aa(lp6
S'timestamp'
p7
aF7.96757698059082
aatp8
Rp9
.ccollections
OrderedDict
p0
((lp1
(lp2
S'state'
p3
aI0
aa(lp4
S'distance'
p5
aF42.92116451263428
aa(lp6
S'timestamp'
p7
aF7.9679789543151855
aatp8
Rp9
.ccollections
OrderedDict
p0
((lp1
(lp2
S'state'
p3
aI0
aa(lp4
S'distance'
p5
aF42.92116451263428
aa(lp6
S'timestamp'
p7
aF7.977781057357788
aatp8
Rp9
.ccollections
OrderedDict
p0
((lp1
(lp2
S'state'
p3
aI0
aa(lp4
S'distance'
p5
aF42.92116451263428
aa(lp6
S'timestamp'
p7
aF7.977924108505249
aatp8
Rp9
.ccollections
OrderedDict
p0
((lp1
(lp2
S'state'
p3
aI0
aa(lp4
S'distance'
p5
aF42.92116451263428
aa(lp6
S'timestamp'
p7
aF7.987718105316162
aatp8
Rp9
.ccollections
OrderedDict
p0
((lp1
(lp2
S'state'
p3
aI0
aa(lp4
S'distance'
p5
aF42.92116451263428
aa(lp6
S'timestamp'
p7
aF7.9880430698394775
aatp8
Rp9
.ccollections
OrderedDict
p0
((lp1
(lp2
S'state'
p3
aI0
aa(lp4
S'distance'
p5
aF42.92116451263428
aa(lp6
S'timestamp'
p7
aF7.997642993927002
aatp8
Rp9
.ccollections
OrderedDict
p0
((lp1
(lp2
S'state'
p3
aI0
aa(lp4
S'distance'
p5
aF42.92116451263428
aa(lp6
S'timestamp'
p7
aF7.998034954071045
aatp8
Rp9
.ccollections
OrderedDict
p0
((lp1
(lp2
S'state'
p3
aI0
aa(lp4
S'distance'
p5
aF42.92116451263428
aa(lp6
S'timestamp'
p7
aF8.007763147354126
aatp8
Rp9
.ccollections
OrderedDict
p0
((lp1
(lp2
S'state'
p3
aI0
aa(lp4
S'distance'
p5
aF42.92116451263428
aa(lp6
S'timestamp'
p7
aF8.007991075515747
aatp8
Rp9
.