ccollections
OrderedDict
p0
((lp1
(lp2
S'timestamp'
p3
aF0.007462024688720703
aa(lp4
S'distance'
p5
aF387.94178009033203
aa(lp6
S'state'
p7
aI0
aatp8
Rp9
.ccollections
OrderedDict
p0
((lp1
(lp2
S'timestamp'
p3
aF0.008102178573608398
aa(lp4
S'distance'
p5
aF387.94178009033203
aa(lp6
S'state'
p7
aI0
aatp8
Rp9
.ccollections
OrderedDict
p0
((lp1
(lp2
S'timestamp'
p3
aF0.018461227416992188
aa(lp4
S'distance'
p5
aF387.94178009033203
aa(lp6
S'state'
p7
aI0
aatp8
Rp9
.ccollections
OrderedDict
p0
((lp1
(lp2
S'timestamp'
p3
aF0.019002199172973633
aa(lp4
S'distance'
p5
aF387.94178009033203
aa(lp6
S'state'
p7
aI0
aatp8
Rp9
.ccollections
OrderedDict
p0
((lp1
(lp2
S'timestamp'
p3
aF0.027628183364868164
aa(lp4
S'distance'
p5
aF387.94178009033203
aa(lp6
S'state'
p7
aI0
aatp8
Rp9
.ccollections
OrderedDict
p0
((lp1
(lp2
S'timestamp'
p3
aF0.028315067291259766
aa(lp4
S'distance'
p5
aF387.94178009033203
aa(lp6
S'state'
p7
aI0
aatp8
Rp9
.ccollections
OrderedDict
p0
((lp1
(lp2
S'timestamp'
p3
aF0.03728222846984863
aa(lp4
S'distance'
p5
aF387.94178009033203
aa(lp6
S'state'
p7
aI0
aatp8
Rp9
.ccollections
OrderedDict
p0
((lp1
(lp2
S'timestamp'
p3
aF0.037980079650878906
aa(lp4
S'distance'
p5
aF387.94178009033203
aa(lp6
S'state'
p7
aI0
aatp8
Rp9
.ccollections
OrderedDict
p0
((lp1
(lp2
S'timestamp'
p3
aF0.04756522178649902
aa(lp4
S'distance'
p5
aF387.94178009033203
aa(lp6
S'state'
p7
aI0
aatp8
Rp9
.ccollections
OrderedDict
p0
((lp1
(lp2
S'timestamp'
p3
aF0.04793810844421387
aa(lp4
S'distance'
p5
aF387.94178009033203
aa(lp6
S'state'
p7
aI0
aatp8
Rp9
.ccollections
OrderedDict
p0
((lp1
(lp2
S'timestamp'
p3
aF0.05747723579406738
aa(lp4
S'distance'
p5
aF387.94178009033203
aa(lp6
S'state'
p7
aI0
aatp8
Rp9
.ccollections
OrderedDict
p0
((lp1
(lp2
S'timestamp'
p3
aF0.05811905860900879
aa(lp4
S'distance'
p5
aF387.94178009033203
aa(lp6
S'state'
p7
aI0
aatp8
Rp9
.ccollections
OrderedDict
p0
((lp1
(lp2
S'timestamp'
p3
aF0.06724214553833008
aa(lp4
S'distance'
p5
aF387.94178009033203
aa(lp6
S'state'
p7
aI0
aatp8
Rp9
.ccollections
OrderedDict
p0
((lp1
(lp2
S'timestamp'
p3
aF0.06810212135314941
aa(lp4
S'distance'
p5
aF387.94178009033203
aa(lp6
S'state'
p7
aI0
aatp8
Rp9
.ccollections
OrderedDict
p0
((lp1
(lp2
S'timestamp'
p3
aF0.07752203941345215
aa(lp4
S'distance'
p5
aF387.94178009033203
aa(lp6
S'state'
p7
aI0
aatp8
Rp9
.ccollections
OrderedDict
p0
((lp1
(lp2
S'timestamp'
p3
aF0.07787013053894043
aa(lp4
S'distance'
p5
aF387.94178009033203
aa(lp6
S'state'
p7
aI0
aatp8
Rp9
.ccollections
OrderedDict
p0
((lp1
(lp2
S'timestamp'
p3
aF0.0874321460723877
aa(lp4
S'distance'
p5
aF387.94178009033203
aa(lp6
S'state'
p7
aI0
aatp8
Rp9
.ccollections
OrderedDict
p0
((lp1
(lp2
S'timestamp'
p3
aF0.08800506591796875
aa(lp4
S'distance'
p5
aF387.94178009033203
aa(lp6
S'state'
p7
aI0
aatp8
Rp9
.ccollections
OrderedDict
p0
((lp1
(lp2
S'timestamp'
p3
aF0.0975031852722168
aa(lp4
S'distance'
p5
aF387.94178009033203
aa(lp6
S'state'
p7
aI0
aatp8
Rp9
.ccollections
OrderedDict
p0
((lp1
(lp2
S'timestamp'
p3
aF0.09804010391235352
aa(lp4
S'distance'
p5
aF387.94178009033203
aa(lp6
S'state'
p7
aI0
aatp8
Rp9
.ccollections
OrderedDict
p0
((lp1
(lp2
S'timestamp'
p3
aF0.10720705986022949
aa(lp4
S'distance'
p5
aF387.94178009033203
aa(lp6
S'state'
p7
aI0
aatp8
Rp9
.ccollections
OrderedDict
p0
((lp1
(lp2
S'timestamp'
p3
aF0.1080470085144043
aa(lp4
S'distance'
p5
aF387.94178009033203
aa(lp6
S'state'
p7
aI0
aatp8
Rp9
.ccollections
OrderedDict
p0
((lp1
(lp2
S'timestamp'
p3
aF0.12780523300170898
aa(lp4
S'distance'
p5
aF387.94178009033203
aa(lp6
S'state'
p7
aI0
aatp8
Rp9
.ccollections
OrderedDict
p0
((lp1
(lp2
S'timestamp'
p3
aF0.1285991668701172
aa(lp4
S'distance'
p5
aF387.94178009033203
aa(lp6
S'state'
p7
aI0
aatp8
Rp9
.ccollections
OrderedDict
p0
((lp1
(lp2
S'timestamp'
p3
aF0.1318821907043457
aa(lp4
S'distance'
p5
aF387.94178009033203
aa(lp6
S'state'
p7
aI0
aatp8
Rp9
.ccollections
OrderedDict
p0
((lp1
(lp2
S'timestamp'
p3
aF0.13196420669555664
aa(lp4
S'distance'
p5
aF387.94178009033203
aa(lp6
S'state'
p7
aI0
aatp8
Rp9
.ccollections
OrderedDict
p0
((lp1
(lp2
S'timestamp'
p3
aF0.1373121738433838
aa(lp4
S'distance'
p5
aF387.94178009033203
aa(lp6
S'state'
p7
aI0
aatp8
Rp9
.ccollections
OrderedDict
p0
((lp1
(lp2
S'timestamp'
p3
aF0.13790106773376465
aa(lp4
S'distance'
p5
aF387.94178009033203
aa(lp6
S'state'
p7
aI0
aatp8
Rp9
.ccollections
OrderedDict
p0
((lp1
(lp2
S'timestamp'
p3
aF0.14722108840942383
aa(lp4
S'distance'
p5
aF387.94178009033203
aa(lp6
S'state'
p7
aI0
aatp8
Rp9
.ccollections
OrderedDict
p0
((lp1
(lp2
S'timestamp'
p3
aF0.14792108535766602
aa(lp4
S'distance'
p5
aF387.94178009033203
aa(lp6
S'state'
p7
aI0
aatp8
Rp9
.ccollections
OrderedDict
p0
((lp1
(lp2
S'timestamp'
p3
aF0.15776419639587402
aa(lp4
S'distance'
p5
aF387.94178009033203
aa(lp6
S'state'
p7
aI0
aatp8
Rp9
.ccollections
OrderedDict
p0
((lp1
(lp2
S'timestamp'
p3
aF0.15818214416503906
aa(lp4
S'distance'
p5
aF387.94178009033203
aa(lp6
S'state'
p7
aI0
aatp8
Rp9
.ccollections
OrderedDict
p0
((lp1
(lp2
S'timestamp'
p3
aF0.16741609573364258
aa(lp4
S'distance'
p5
aF387.94178009033203
aa(lp6
S'state'
p7
aI0
aatp8
Rp9
.ccollections
OrderedDict
p0
((lp1
(lp2
S'timestamp'
p3
aF0.16794705390930176
aa(lp4
S'distance'
p5
aF387.94178009033203
aa(lp6
S'state'
p7
aI0
aatp8
Rp9
.ccollections
OrderedDict
p0
((lp1
(lp2
S'timestamp'
p3
aF0.17726802825927734
aa(lp4
S'distance'
p5
aF387.94178009033203
aa(lp6
S'state'
p7
aI0
aatp8
Rp9
.ccollections
OrderedDict
p0
((lp1
(lp2
S'timestamp'
p3
aF0.17788410186767578
aa(lp4
S'distance'
p5
aF387.94178009033203
aa(lp6
S'state'
p7
aI0
aatp8
Rp9
.ccollections
OrderedDict
p0
((lp1
(lp2
S'timestamp'
p3
aF0.18741917610168457
aa(lp4
S'distance'
p5
aF387.94178009033203
aa(lp6
S'state'
p7
aI0
aatp8
Rp9
.ccollections
OrderedDict
p0
((lp1
(lp2
S'timestamp'
p3
aF0.1879260540008545
aa(lp4
S'distance'
p5
aF387.94178009033203
aa(lp6
S'state'
p7
aI0
aatp8
Rp9
.ccollections
OrderedDict
p0
((lp1
(lp2
S'timestamp'
p3
aF0.1974952220916748
aa(lp4
S'distance'
p5
aF387.94178009033203
aa(lp6
S'state'
p7
aI0
aatp8
Rp9
.ccollections
OrderedDict
p0
((lp1
(lp2
S'timestamp'
p3
aF0.19765114784240723
aa(lp4
S'distance'
p5
aF387.94178009033203
aa(lp6
S'state'
p7
aI0
aatp8
Rp9
.ccollections
OrderedDict
p0
((lp1
(lp2
S'timestamp'
p3
aF0.2073981761932373
aa(lp4
S'distance'
p5
aF387.94178009033203
aa(lp6
S'state'
p7
aI0
aatp8
Rp9
.ccollections
OrderedDict
p0
((lp1
(lp2
S'timestamp'
p3
aF0.20783519744873047
aa(lp4
S'distance'
p5
aF387.94178009033203
aa(lp6
S'state'
p7
aI0
aatp8
Rp9
.ccollections
OrderedDict
p0
((lp1
(lp2
S'timestamp'
p3
aF0.21759819984436035
aa(lp4
S'distance'
p5
aF387.94178009033203
aa(lp6
S'state'
p7
aI0
aatp8
Rp9
.ccollections
OrderedDict
p0
((lp1
(lp2
S'timestamp'
p3
aF0.21767401695251465
aa(lp4
S'distance'
p5
aF387.94178009033203
aa(lp6
S'state'
p7
aI0
aatp8
Rp9
.ccollections
OrderedDict
p0
((lp1
(lp2
S'timestamp'
p3
aF0.22779107093811035
aa(lp4
S'distance'
p5
aF387.94178009033203
aa(lp6
S'state'
p7
aI0
aatp8
Rp9
.ccollections
OrderedDict
p0
((lp1
(lp2
S'timestamp'
p3
aF0.2278740406036377
aa(lp4
S'distance'
p5
aF387.94178009033203
aa(lp6
S'state'
p7
aI0
aatp8
Rp9
.ccollections
OrderedDict
p0
((lp1
(lp2
S'timestamp'
p3
aF0.2374281883239746
aa(lp4
S'distance'
p5
aF387.94178009033203
aa(lp6
S'state'
p7
aI0
aatp8
Rp9
.ccollections
OrderedDict
p0
((lp1
(lp2
S'timestamp'
p3
aF0.23766422271728516
aa(lp4
S'distance'
p5
aF387.94178009033203
aa(lp6
S'state'
p7
aI0
aatp8
Rp9
.ccollections
OrderedDict
p0
((lp1
(lp2
S'timestamp'
p3
aF0.24734807014465332
aa(lp4
S'distance'
p5
aF387.94178009033203
aa(lp6
S'state'
p7
aI0
aatp8
Rp9
.ccollections
OrderedDict
p0
((lp1
(lp2
S'timestamp'
p3
aF0.24768805503845215
aa(lp4
S'distance'
p5
aF387.94178009033203
aa(lp6
S'state'
p7
aI0
aatp8
Rp9
.ccollections
OrderedDict
p0
((lp1
(lp2
S'timestamp'
p3
aF0.25728702545166016
aa(lp4
S'distance'
p5
aF387.94178009033203
aa(lp6
S'state'
p7
aI0
aatp8
Rp9
.ccollections
OrderedDict
p0
((lp1
(lp2
S'timestamp'
p3
aF0.2576010227203369
aa(lp4
S'distance'
p5
aF387.94178009033203
aa(lp6
S'state'
p7
aI0
aatp8
Rp9
.ccollections
OrderedDict
p0
((lp1
(lp2
S'timestamp'
p3
aF0.2674570083618164
aa(lp4
S'distance'
p5
aF387.94178009033203
aa(lp6
S'state'
p7
aI0
aatp8
Rp9
.ccollections
OrderedDict
p0
((lp1
(lp2
S'timestamp'
p3
aF0.26760315895080566
aa(lp4
S'distance'
p5
aF387.94178009033203
aa(lp6
S'state'
p7
aI0
aatp8
Rp9
.ccollections
OrderedDict
p0
((lp1
(lp2
S'timestamp'
p3
aF0.27727508544921875
aa(lp4
S'distance'
p5
aF387.94178009033203
aa(lp6
S'state'
p7
aI0
aatp8
Rp9
.ccollections
OrderedDict
p0
((lp1
(lp2
S'timestamp'
p3
aF0.277576208114624
aa(lp4
S'distance'
p5
aF387.94178009033203
aa(lp6
S'state'
p7
aI0
aatp8
Rp9
.ccollections
OrderedDict
p0
((lp1
(lp2
S'timestamp'
p3
aF0.28762102127075195
aa(lp4
S'distance'
p5
aF387.94178009033203
aa(lp6
S'state'
p7
aI0
aatp8
Rp9
.ccollections
OrderedDict
p0
((lp1
(lp2
S'timestamp'
p3
aF0.28769707679748535
aa(lp4
S'distance'
p5
aF387.94178009033203
aa(lp6
S'state'
p7
aI0
aatp8
Rp9
.ccollections
OrderedDict
p0
((lp1
(lp2
S'timestamp'
p3
aF0.29741621017456055
aa(lp4
S'distance'
p5
aF387.94178009033203
aa(lp6
S'state'
p7
aI0
aatp8
Rp9
.ccollections
OrderedDict
p0
((lp1
(lp2
S'timestamp'
p3
aF0.2975451946258545
aa(lp4
S'distance'
p5
aF387.94178009033203
aa(lp6
S'state'
p7
aI0
aatp8
Rp9
.ccollections
OrderedDict
p0
((lp1
(lp2
S'timestamp'
p3
aF0.307373046875
aa(lp4
S'distance'
p5
aF387.94178009033203
aa(lp6
S'state'
p7
aI0
aatp8
Rp9
.ccollections
OrderedDict
p0
((lp1
(lp2
S'timestamp'
p3
aF0.3076000213623047
aa(lp4
S'distance'
p5
aF387.94178009033203
aa(lp6
S'state'
p7
aI0
aatp8
Rp9
.ccollections
OrderedDict
p0
((lp1
(lp2
S'timestamp'
p3
aF0.3171861171722412
aa(lp4
S'distance'
p5
aF387.94178009033203
aa(lp6
S'state'
p7
aI0
aatp8
Rp9
.ccollections
OrderedDict
p0
((lp1
(lp2
S'timestamp'
p3
aF0.31750917434692383
aa(lp4
S'distance'
p5
aF387.94178009033203
aa(lp6
S'state'
p7
aI0
aatp8
Rp9
.ccollections
OrderedDict
p0
((lp1
(lp2
S'timestamp'
p3
aF0.33719420433044434
aa(lp4
S'distance'
p5
aF387.94178009033203
aa(lp6
S'state'
p7
aI0
aatp8
Rp9
.ccollections
OrderedDict
p0
((lp1
(lp2
S'timestamp'
p3
aF0.33751511573791504
aa(lp4
S'distance'
p5
aF387.94178009033203
aa(lp6
S'state'
p7
aI0
aatp8
Rp9
.ccollections
OrderedDict
p0
((lp1
(lp2
S'timestamp'
p3
aF0.33896923065185547
aa(lp4
S'distance'
p5
aF387.94178009033203
aa(lp6
S'state'
p7
aI0
aatp8
Rp9
.ccollections
OrderedDict
p0
((lp1
(lp2
S'timestamp'
p3
aF0.34012317657470703
aa(lp4
S'distance'
p5
aF387.94178009033203
aa(lp6
S'state'
p7
aI0
aatp8
Rp9
.ccollections
OrderedDict
p0
((lp1
(lp2
S'timestamp'
p3
aF0.34744715690612793
aa(lp4
S'distance'
p5
aF387.94178009033203
aa(lp6
S'state'
p7
aI0
aatp8
Rp9
.ccollections
OrderedDict
p0
((lp1
(lp2
S'timestamp'
p3
aF0.3475620746612549
aa(lp4
S'distance'
p5
aF387.94178009033203
aa(lp6
S'state'
p7
aI0
aatp8
Rp9
.ccollections
OrderedDict
p0
((lp1
(lp2
S'timestamp'
p3
aF0.3571791648864746
aa(lp4
S'distance'
p5
aF387.94178009033203
aa(lp6
S'state'
p7
aI0
aatp8
Rp9
.ccollections
OrderedDict
p0
((lp1
(lp2
S'timestamp'
p3
aF0.35758113861083984
aa(lp4
S'distance'
p5
aF387.94178009033203
aa(lp6
S'state'
p7
aI0
aatp8
Rp9
.ccollections
OrderedDict
p0
((lp1
(lp2
S'timestamp'
p3
aF0.36748218536376953
aa(lp4
S'distance'
p5
aF387.94178009033203
aa(lp6
S'state'
p7
aI0
aatp8
Rp9
.ccollections
OrderedDict
p0
((lp1
(lp2
S'timestamp'
p3
aF0.3683621883392334
aa(lp4
S'distance'
p5
aF387.94178009033203
aa(lp6
S'state'
p7
aI0
aatp8
Rp9
.ccollections
OrderedDict
p0
((lp1
(lp2
S'timestamp'
p3
aF0.3771800994873047
aa(lp4
S'distance'
p5
aF387.94178009033203
aa(lp6
S'state'
p7
aI0
aatp8
Rp9
.ccollections
OrderedDict
p0
((lp1
(lp2
S'timestamp'
p3
aF0.3775010108947754
aa(lp4
S'distance'
p5
aF387.94178009033203
aa(lp6
S'state'
p7
aI0
aatp8
Rp9
.ccollections
OrderedDict
p0
((lp1
(lp2
S'timestamp'
p3
aF0.38723206520080566
aa(lp4
S'distance'
p5
aF387.94178009033203
aa(lp6
S'state'
p7
aI0
aatp8
Rp9
.ccollections
OrderedDict
p0
((lp1
(lp2
S'timestamp'
p3
aF0.387423038482666
aa(lp4
S'distance'
p5
aF387.94178009033203
aa(lp6
S'state'
p7
aI0
aatp8
Rp9
.ccollections
OrderedDict
p0
((lp1
(lp2
S'timestamp'
p3
aF0.39862513542175293
aa(lp4
S'distance'
p5
aF387.94178009033203
aa(lp6
S'state'
p7
aI0
aatp8
Rp9
.ccollections
OrderedDict
p0
((lp1
(lp2
S'timestamp'
p3
aF0.40006422996520996
aa(lp4
S'distance'
p5
aF387.94178009033203
aa(lp6
S'state'
p7
aI0
aatp8
Rp9
.ccollections
OrderedDict
p0
((lp1
(lp2
S'timestamp'
p3
aF0.40713000297546387
aa(lp4
S'distance'
p5
aF387.94178009033203
aa(lp6
S'state'
p7
aI0
aatp8
Rp9
.ccollections
OrderedDict
p0
((lp1
(lp2
S'timestamp'
p3
aF0.4075131416320801
aa(lp4
S'distance'
p5
aF387.94178009033203
aa(lp6
S'state'
p7
aI0
aatp8
Rp9
.ccollections
OrderedDict
p0
((lp1
(lp2
S'timestamp'
p3
aF0.41725707054138184
aa(lp4
S'distance'
p5
aF387.94178009033203
aa(lp6
S'state'
p7
aI0
aatp8
Rp9
.ccollections
OrderedDict
p0
((lp1
(lp2
S'timestamp'
p3
aF0.41738414764404297
aa(lp4
S'distance'
p5
aF387.94178009033203
aa(lp6
S'state'
p7
aI0
aatp8
Rp9
.ccollections
OrderedDict
p0
((lp1
(lp2
S'timestamp'
p3
aF0.4275641441345215
aa(lp4
S'distance'
p5
aF387.94178009033203
aa(lp6
S'state'
p7
aI0
aatp8
Rp9
.ccollections
OrderedDict
p0
((lp1
(lp2
S'timestamp'
p3
aF0.42780303955078125
aa(lp4
S'distance'
p5
aF387.94178009033203
aa(lp6
S'state'
p7
aI0
aatp8
Rp9
.ccollections
OrderedDict
p0
((lp1
(lp2
S'timestamp'
p3
aF0.4372591972351074
aa(lp4
S'distance'
p5
aF387.94178009033203
aa(lp6
S'state'
p7
aI0
aatp8
Rp9
.ccollections
OrderedDict
p0
((lp1
(lp2
S'timestamp'
p3
aF0.43738508224487305
aa(lp4
S'distance'
p5
aF387.94178009033203
aa(lp6
S'state'
p7
aI0
aatp8
Rp9
.ccollections
OrderedDict
p0
((lp1
(lp2
S'timestamp'
p3
aF0.44724321365356445
aa(lp4
S'distance'
p5
aF387.94178009033203
aa(lp6
S'state'
p7
aI0
aatp8
Rp9
.ccollections
OrderedDict
p0
((lp1
(lp2
S'timestamp'
p3
aF0.447376012802124
aa(lp4
S'distance'
p5
aF387.94178009033203
aa(lp6
S'state'
p7
aI0
aatp8
Rp9
.ccollections
OrderedDict
p0
((lp1
(lp2
S'timestamp'
p3
aF0.4573080539703369
aa(lp4
S'distance'
p5
aF387.94178009033203
aa(lp6
S'state'
p7
aI0
aatp8
Rp9
.ccollections
OrderedDict
p0
((lp1
(lp2
S'timestamp'
p3
aF0.45739316940307617
aa(lp4
S'distance'
p5
aF387.94178009033203
aa(lp6
S'state'
p7
aI0
aatp8
Rp9
.ccollections
OrderedDict
p0
((lp1
(lp2
S'timestamp'
p3
aF0.467041015625
aa(lp4
S'distance'
p5
aF387.94178009033203
aa(lp6
S'state'
p7
aI0
aatp8
Rp9
.ccollections
OrderedDict
p0
((lp1
(lp2
S'timestamp'
p3
aF0.4675130844116211
aa(lp4
S'distance'
p5
aF387.94178009033203
aa(lp6
S'state'
p7
aI0
aatp8
Rp9
.ccollections
OrderedDict
p0
((lp1
(lp2
S'timestamp'
p3
aF0.47698211669921875
aa(lp4
S'distance'
p5
aF387.94178009033203
aa(lp6
S'state'
p7
aI0
aatp8
Rp9
.ccollections
OrderedDict
p0
((lp1
(lp2
S'timestamp'
p3
aF0.47734904289245605
aa(lp4
S'distance'
p5
aF387.94178009033203
aa(lp6
S'state'
p7
aI0
aatp8
Rp9
.ccollections
OrderedDict
p0
((lp1
(lp2
S'timestamp'
p3
aF0.48702502250671387
aa(lp4
S'distance'
p5
aF387.94178009033203
aa(lp6
S'state'
p7
aI0
aatp8
Rp9
.ccollections
OrderedDict
p0
((lp1
(lp2
S'timestamp'
p3
aF0.4874451160430908
aa(lp4
S'distance'
p5
aF387.94178009033203
aa(lp6
S'state'
p7
aI0
aatp8
Rp9
.ccollections
OrderedDict
p0
((lp1
(lp2
S'timestamp'
p3
aF0.49696922302246094
aa(lp4
S'distance'
p5
aF387.94178009033203
aa(lp6
S'state'
p7
aI0
aatp8
Rp9
.ccollections
OrderedDict
p0
((lp1
(lp2
S'timestamp'
p3
aF0.4974660873413086
aa(lp4
S'distance'
p5
aF387.94178009033203
aa(lp6
S'state'
p7
aI0
aatp8
Rp9
.ccollections
OrderedDict
p0
((lp1
(lp2
S'timestamp'
p3
aF0.5067410469055176
aa(lp4
S'distance'
p5
aF387.94178009033203
aa(lp6
S'state'
p7
aI0
aatp8
Rp9
.ccollections
OrderedDict
p0
((lp1
(lp2
S'timestamp'
p3
aF0.5074541568756104
aa(lp4
S'distance'
p5
aF387.94178009033203
aa(lp6
S'state'
p7
aI0
aatp8
Rp9
.ccollections
OrderedDict
p0
((lp1
(lp2
S'timestamp'
p3
aF0.5169332027435303
aa(lp4
S'distance'
p5
aF387.94178009033203
aa(lp6
S'state'
p7
aI0
aatp8
Rp9
.ccollections
OrderedDict
p0
((lp1
(lp2
S'timestamp'
p3
aF0.5173912048339844
aa(lp4
S'distance'
p5
aF387.94178009033203
aa(lp6
S'state'
p7
aI0
aatp8
Rp9
.ccollections
OrderedDict
p0
((lp1
(lp2
S'timestamp'
p3
aF0.5267882347106934
aa(lp4
S'distance'
p5
aF387.94178009033203
aa(lp6
S'state'
p7
aI0
aatp8
Rp9
.ccollections
OrderedDict
p0
((lp1
(lp2
S'timestamp'
p3
aF0.5273220539093018
aa(lp4
S'distance'
p5
aF387.94178009033203
aa(lp6
S'state'
p7
aI0
aatp8
Rp9
.ccollections
OrderedDict
p0
((lp1
(lp2
S'timestamp'
p3
aF0.5369281768798828
aa(lp4
S'distance'
p5
aF387.94178009033203
aa(lp6
S'state'
p7
aI0
aatp8
Rp9
.ccollections
OrderedDict
p0
((lp1
(lp2
S'timestamp'
p3
aF0.5373921394348145
aa(lp4
S'distance'
p5
aF387.94178009033203
aa(lp6
S'state'
p7
aI0
aatp8
Rp9
.ccollections
OrderedDict
p0
((lp1
(lp2
S'timestamp'
p3
aF0.5474610328674316
aa(lp4
S'distance'
p5
aF387.94178009033203
aa(lp6
S'state'
p7
aI0
aatp8
Rp9
.ccollections
OrderedDict
p0
((lp1
(lp2
S'timestamp'
p3
aF0.547997236251831
aa(lp4
S'distance'
p5
aF387.94178009033203
aa(lp6
S'state'
p7
aI0
aatp8
Rp9
.ccollections
OrderedDict
p0
((lp1
(lp2
S'timestamp'
p3
aF0.5568430423736572
aa(lp4
S'distance'
p5
aF387.94178009033203
aa(lp6
S'state'
p7
aI0
aatp8
Rp9
.ccollections
OrderedDict
p0
((lp1
(lp2
S'timestamp'
p3
aF0.5573351383209229
aa(lp4
S'distance'
p5
aF387.94178009033203
aa(lp6
S'state'
p7
aI0
aatp8
Rp9
.ccollections
OrderedDict
p0
((lp1
(lp2
S'timestamp'
p3
aF0.5668191909790039
aa(lp4
S'distance'
p5
aF387.94178009033203
aa(lp6
S'state'
p7
aI0
aatp8
Rp9
.ccollections
OrderedDict
p0
((lp1
(lp2
S'timestamp'
p3
aF0.5673022270202637
aa(lp4
S'distance'
p5
aF387.94178009033203
aa(lp6
S'state'
p7
aI0
aatp8
Rp9
.ccollections
OrderedDict
p0
((lp1
(lp2
S'timestamp'
p3
aF0.5769340991973877
aa(lp4
S'distance'
p5
aF387.94178009033203
aa(lp6
S'state'
p7
aI0
aatp8
Rp9
.ccollections
OrderedDict
p0
((lp1
(lp2
S'timestamp'
p3
aF0.5772700309753418
aa(lp4
S'distance'
p5
aF387.94178009033203
aa(lp6
S'state'
p7
aI0
aatp8
Rp9
.ccollections
OrderedDict
p0
((lp1
(lp2
S'timestamp'
p3
aF0.5867362022399902
aa(lp4
S'distance'
p5
aF387.94178009033203
aa(lp6
S'state'
p7
aI0
aatp8
Rp9
.ccollections
OrderedDict
p0
((lp1
(lp2
S'timestamp'
p3
aF0.5871481895446777
aa(lp4
S'distance'
p5
aF387.94178009033203
aa(lp6
S'state'
p7
aI0
aatp8
Rp9
.ccollections
OrderedDict
p0
((lp1
(lp2
S'timestamp'
p3
aF0.5969932079315186
aa(lp4
S'distance'
p5
aF387.94178009033203
aa(lp6
S'state'
p7
aI0
aatp8
Rp9
.ccollections
OrderedDict
p0
((lp1
(lp2
S'timestamp'
p3
aF0.5972230434417725
aa(lp4
S'distance'
p5
aF387.94178009033203
aa(lp6
S'state'
p7
aI0
aatp8
Rp9
.ccollections
OrderedDict
p0
((lp1
(lp2
S'timestamp'
p3
aF0.6079840660095215
aa(lp4
S'distance'
p5
aF387.94178009033203
aa(lp6
S'state'
p7
aI0
aatp8
Rp9
.ccollections
OrderedDict
p0
((lp1
(lp2
S'timestamp'
p3
aF0.6084761619567871
aa(lp4
S'distance'
p5
aF387.94178009033203
aa(lp6
S'state'
p7
aI0
aatp8
Rp9
.ccollections
OrderedDict
p0
((lp1
(lp2
S'timestamp'
p3
aF0.6168310642242432
aa(lp4
S'distance'
p5
aF387.94178009033203
aa(lp6
S'state'
p7
aI0
aatp8
Rp9
.ccollections
OrderedDict
p0
((lp1
(lp2
S'timestamp'
p3
aF0.6171331405639648
aa(lp4
S'distance'
p5
aF387.94178009033203
aa(lp6
S'state'
p7
aI0
aatp8
Rp9
.ccollections
OrderedDict
p0
((lp1
(lp2
S'timestamp'
p3
aF0.6271190643310547
aa(lp4
S'distance'
p5
aF387.94178009033203
aa(lp6
S'state'
p7
aI0
aatp8
Rp9
.ccollections
OrderedDict
p0
((lp1
(lp2
S'timestamp'
p3
aF0.6272950172424316
aa(lp4
S'distance'
p5
aF387.94178009033203
aa(lp6
S'state'
p7
aI0
aatp8
Rp9
.ccollections
OrderedDict
p0
((lp1
(lp2
S'timestamp'
p3
aF0.6368272304534912
aa(lp4
S'distance'
p5
aF387.94178009033203
aa(lp6
S'state'
p7
aI0
aatp8
Rp9
.ccollections
OrderedDict
p0
((lp1
(lp2
S'timestamp'
p3
aF0.6371462345123291
aa(lp4
S'distance'
p5
aF387.94178009033203
aa(lp6
S'state'
p7
aI0
aatp8
Rp9
.ccollections
OrderedDict
p0
((lp1
(lp2
S'timestamp'
p3
aF0.646801233291626
aa(lp4
S'distance'
p5
aF387.94178009033203
aa(lp6
S'state'
p7
aI0
aatp8
Rp9
.ccollections
OrderedDict
p0
((lp1
(lp2
S'timestamp'
p3
aF0.6471872329711914
aa(lp4
S'distance'
p5
aF387.94178009033203
aa(lp6
S'state'
p7
aI0
aatp8
Rp9
.ccollections
OrderedDict
p0
((lp1
(lp2
S'timestamp'
p3
aF0.6567821502685547
aa(lp4
S'distance'
p5
aF387.94178009033203
aa(lp6
S'state'
p7
aI0
aatp8
Rp9
.ccollections
OrderedDict
p0
((lp1
(lp2
S'timestamp'
p3
aF0.6570842266082764
aa(lp4
S'distance'
p5
aF387.94178009033203
aa(lp6
S'state'
p7
aI0
aatp8
Rp9
.ccollections
OrderedDict
p0
((lp1
(lp2
S'timestamp'
p3
aF0.6667771339416504
aa(lp4
S'distance'
p5
aF387.94178009033203
aa(lp6
S'state'
p7
aI0
aatp8
Rp9
.ccollections
OrderedDict
p0
((lp1
(lp2
S'timestamp'
p3
aF0.667161226272583
aa(lp4
S'distance'
p5
aF387.94178009033203
aa(lp6
S'state'
p7
aI0
aatp8
Rp9
.ccollections
OrderedDict
p0
((lp1
(lp2
S'timestamp'
p3
aF0.6770291328430176
aa(lp4
S'distance'
p5
aF387.94178009033203
aa(lp6
S'state'
p7
aI0
aatp8
Rp9
.ccollections
OrderedDict
p0
((lp1
(lp2
S'timestamp'
p3
aF0.6771461963653564
aa(lp4
S'distance'
p5
aF387.94178009033203
aa(lp6
S'state'
p7
aI0
aatp8
Rp9
.ccollections
OrderedDict
p0
((lp1
(lp2
S'timestamp'
p3
aF0.6868340969085693
aa(lp4
S'distance'
p5
aF387.94178009033203
aa(lp6
S'state'
p7
aI0
aatp8
Rp9
.ccollections
OrderedDict
p0
((lp1
(lp2
S'timestamp'
p3
aF0.6870801448822021
aa(lp4
S'distance'
p5
aF387.94178009033203
aa(lp6
S'state'
p7
aI0
aatp8
Rp9
.ccollections
OrderedDict
p0
((lp1
(lp2
S'timestamp'
p3
aF0.6982150077819824
aa(lp4
S'distance'
p5
aF387.94178009033203
aa(lp6
S'state'
p7
aI0
aatp8
Rp9
.ccollections
OrderedDict
p0
((lp1
(lp2
S'timestamp'
p3
aF0.6997060775756836
aa(lp4
S'distance'
p5
aF387.94178009033203
aa(lp6
S'state'
p7
aI0
aatp8
Rp9
.ccollections
OrderedDict
p0
((lp1
(lp2
S'timestamp'
p3
aF0.7069380283355713
aa(lp4
S'distance'
p5
aF387.94178009033203
aa(lp6
S'state'
p7
aI0
aatp8
Rp9
.ccollections
OrderedDict
p0
((lp1
(lp2
S'timestamp'
p3
aF0.7070221900939941
aa(lp4
S'distance'
p5
aF387.94178009033203
aa(lp6
S'state'
p7
aI0
aatp8
Rp9
.ccollections
OrderedDict
p0
((lp1
(lp2
S'timestamp'
p3
aF0.7181410789489746
aa(lp4
S'distance'
p5
aF387.94178009033203
aa(lp6
S'state'
p7
aI0
aatp8
Rp9
.ccollections
OrderedDict
p0
((lp1
(lp2
S'timestamp'
p3
aF0.7193281650543213
aa(lp4
S'distance'
p5
aF387.94178009033203
aa(lp6
S'state'
p7
aI0
aatp8
Rp9
.ccollections
OrderedDict
p0
((lp1
(lp2
S'timestamp'
p3
aF0.7269370555877686
aa(lp4
S'distance'
p5
aF387.94178009033203
aa(lp6
S'state'
p7
aI0
aatp8
Rp9
.ccollections
OrderedDict
p0
((lp1
(lp2
S'timestamp'
p3
aF0.7279491424560547
aa(lp4
S'distance'
p5
aF387.94178009033203
aa(lp6
S'state'
p7
aI0
aatp8
Rp9
.ccollections
OrderedDict
p0
((lp1
(lp2
S'timestamp'
p3
aF0.7364590167999268
aa(lp4
S'distance'
p5
aF387.94178009033203
aa(lp6
S'state'
p7
aI0
aatp8
Rp9
.ccollections
OrderedDict
p0
((lp1
(lp2
S'timestamp'
p3
aF0.7381432056427002
aa(lp4
S'distance'
p5
aF387.94178009033203
aa(lp6
S'state'
p7
aI0
aatp8
Rp9
.ccollections
OrderedDict
p0
((lp1
(lp2
S'timestamp'
p3
aF0.7464601993560791
aa(lp4
S'distance'
p5
aF387.94178009033203
aa(lp6
S'state'
p7
aI0
aatp8
Rp9
.ccollections
OrderedDict
p0
((lp1
(lp2
S'timestamp'
p3
aF0.7469291687011719
aa(lp4
S'distance'
p5
aF387.94178009033203
aa(lp6
S'state'
p7
aI0
aatp8
Rp9
.ccollections
OrderedDict
p0
((lp1
(lp2
S'timestamp'
p3
aF0.7566640377044678
aa(lp4
S'distance'
p5
aF387.94178009033203
aa(lp6
S'state'
p7
aI0
aatp8
Rp9
.ccollections
OrderedDict
p0
((lp1
(lp2
S'timestamp'
p3
aF0.7569570541381836
aa(lp4
S'distance'
p5
aF387.94178009033203
aa(lp6
S'state'
p7
aI0
aatp8
Rp9
.ccollections
OrderedDict
p0
((lp1
(lp2
S'timestamp'
p3
aF0.7667372226715088
aa(lp4
S'distance'
p5
aF387.94178009033203
aa(lp6
S'state'
p7
aI0
aatp8
Rp9
.ccollections
OrderedDict
p0
((lp1
(lp2
S'timestamp'
p3
aF0.7669851779937744
aa(lp4
S'distance'
p5
aF387.94178009033203
aa(lp6
S'state'
p7
aI0
aatp8
Rp9
.ccollections
OrderedDict
p0
((lp1
(lp2
S'timestamp'
p3
aF0.7767231464385986
aa(lp4
S'distance'
p5
aF387.94178009033203
aa(lp6
S'state'
p7
aI0
aatp8
Rp9
.ccollections
OrderedDict
p0
((lp1
(lp2
S'timestamp'
p3
aF0.7769660949707031
aa(lp4
S'distance'
p5
aF387.94178009033203
aa(lp6
S'state'
p7
aI0
aatp8
Rp9
.ccollections
OrderedDict
p0
((lp1
(lp2
S'timestamp'
p3
aF0.7868120670318604
aa(lp4
S'distance'
p5
aF387.94178009033203
aa(lp6
S'state'
p7
aI0
aatp8
Rp9
.ccollections
OrderedDict
p0
((lp1
(lp2
S'timestamp'
p3
aF0.7869012355804443
aa(lp4
S'distance'
p5
aF387.94178009033203
aa(lp6
S'state'
p7
aI0
aatp8
Rp9
.ccollections
OrderedDict
p0
((lp1
(lp2
S'timestamp'
p3
aF0.7980952262878418
aa(lp4
S'distance'
p5
aF387.94178009033203
aa(lp6
S'state'
p7
aI0
aatp8
Rp9
.ccollections
OrderedDict
p0
((lp1
(lp2
S'timestamp'
p3
aF0.8005170822143555
aa(lp4
S'distance'
p5
aF387.94178009033203
aa(lp6
S'state'
p7
aI0
aatp8
Rp9
.ccollections
OrderedDict
p0
((lp1
(lp2
S'timestamp'
p3
aF0.8064191341400146
aa(lp4
S'distance'
p5
aF387.94178009033203
aa(lp6
S'state'
p7
aI0
aatp8
Rp9
.ccollections
OrderedDict
p0
((lp1
(lp2
S'timestamp'
p3
aF0.8068721294403076
aa(lp4
S'distance'
p5
aF387.94178009033203
aa(lp6
S'state'
p7
aI0
aatp8
Rp9
.ccollections
OrderedDict
p0
((lp1
(lp2
S'timestamp'
p3
aF0.8166022300720215
aa(lp4
S'distance'
p5
aF387.94178009033203
aa(lp6
S'state'
p7
aI0
aatp8
Rp9
.ccollections
OrderedDict
p0
((lp1
(lp2
S'timestamp'
p3
aF0.8169162273406982
aa(lp4
S'distance'
p5
aF387.94178009033203
aa(lp6
S'state'
p7
aI0
aatp8
Rp9
.ccollections
OrderedDict
p0
((lp1
(lp2
S'timestamp'
p3
aF0.8266620635986328
aa(lp4
S'distance'
p5
aF387.94178009033203
aa(lp6
S'state'
p7
aI0
aatp8
Rp9
.ccollections
OrderedDict
p0
((lp1
(lp2
S'timestamp'
p3
aF0.8268921375274658
aa(lp4
S'distance'
p5
aF387.94178009033203
aa(lp6
S'state'
p7
aI0
aatp8
Rp9
.ccollections
OrderedDict
p0
((lp1
(lp2
S'timestamp'
p3
aF0.8367431163787842
aa(lp4
S'distance'
p5
aF387.94178009033203
aa(lp6
S'state'
p7
aI0
aatp8
Rp9
.ccollections
OrderedDict
p0
((lp1
(lp2
S'timestamp'
p3
aF0.8368680477142334
aa(lp4
S'distance'
p5
aF387.94178009033203
aa(lp6
S'state'
p7
aI0
aatp8
Rp9
.ccollections
OrderedDict
p0
((lp1
(lp2
S'timestamp'
p3
aF0.846778154373169
aa(lp4
S'distance'
p5
aF387.94178009033203
aa(lp6
S'state'
p7
aI0
aatp8
Rp9
.ccollections
OrderedDict
p0
((lp1
(lp2
S'timestamp'
p3
aF0.8468611240386963
aa(lp4
S'distance'
p5
aF387.94178009033203
aa(lp6
S'state'
p7
aI0
aatp8
Rp9
.ccollections
OrderedDict
p0
((lp1
(lp2
S'timestamp'
p3
aF0.8565280437469482
aa(lp4
S'distance'
p5
aF387.94178009033203
aa(lp6
S'state'
p7
aI0
aatp8
Rp9
.ccollections
OrderedDict
p0
((lp1
(lp2
S'timestamp'
p3
aF0.8569161891937256
aa(lp4
S'distance'
p5
aF387.94178009033203
aa(lp6
S'state'
p7
aI0
aatp8
Rp9
.ccollections
OrderedDict
p0
((lp1
(lp2
S'timestamp'
p3
aF0.8665192127227783
aa(lp4
S'distance'
p5
aF387.94178009033203
aa(lp6
S'state'
p7
aI0
aatp8
Rp9
.ccollections
OrderedDict
p0
((lp1
(lp2
S'timestamp'
p3
aF0.866908073425293
aa(lp4
S'distance'
p5
aF387.94178009033203
aa(lp6
S'state'
p7
aI0
aatp8
Rp9
.ccollections
OrderedDict
p0
((lp1
(lp2
S'timestamp'
p3
aF0.8762412071228027
aa(lp4
S'distance'
p5
aF387.94178009033203
aa(lp6
S'state'
p7
aI0
aatp8
Rp9
.ccollections
OrderedDict
p0
((lp1
(lp2
S'timestamp'
p3
aF0.8770220279693604
aa(lp4
S'distance'
p5
aF387.94178009033203
aa(lp6
S'state'
p7
aI0
aatp8
Rp9
.ccollections
OrderedDict
p0
((lp1
(lp2
S'timestamp'
p3
aF0.8864560127258301
aa(lp4
S'distance'
p5
aF387.94178009033203
aa(lp6
S'state'
p7
aI0
aatp8
Rp9
.ccollections
OrderedDict
p0
((lp1
(lp2
S'timestamp'
p3
aF0.8869760036468506
aa(lp4
S'distance'
p5
aF387.94178009033203
aa(lp6
S'state'
p7
aI0
aatp8
Rp9
.ccollections
OrderedDict
p0
((lp1
(lp2
S'timestamp'
p3
aF0.8964450359344482
aa(lp4
S'distance'
p5
aF387.94178009033203
aa(lp6
S'state'
p7
aI0
aatp8
Rp9
.ccollections
OrderedDict
p0
((lp1
(lp2
S'timestamp'
p3
aF0.8968930244445801
aa(lp4
S'distance'
p5
aF387.94178009033203
aa(lp6
S'state'
p7
aI0
aatp8
Rp9
.ccollections
OrderedDict
p0
((lp1
(lp2
S'timestamp'
p3
aF0.9063701629638672
aa(lp4
S'distance'
p5
aF387.94178009033203
aa(lp6
S'state'
p7
aI0
aatp8
Rp9
.ccollections
OrderedDict
p0
((lp1
(lp2
S'timestamp'
p3
aF0.9068741798400879
aa(lp4
S'distance'
p5
aF387.94178009033203
aa(lp6
S'state'
p7
aI0
aatp8
Rp9
.ccollections
OrderedDict
p0
((lp1
(lp2
S'timestamp'
p3
aF0.9163022041320801
aa(lp4
S'distance'
p5
aF387.94178009033203
aa(lp6
S'state'
p7
aI0
aatp8
Rp9
.ccollections
OrderedDict
p0
((lp1
(lp2
S'timestamp'
p3
aF0.9168190956115723
aa(lp4
S'distance'
p5
aF387.94178009033203
aa(lp6
S'state'
p7
aI0
aatp8
Rp9
.ccollections
OrderedDict
p0
((lp1
(lp2
S'timestamp'
p3
aF0.9262111186981201
aa(lp4
S'distance'
p5
aF387.94178009033203
aa(lp6
S'state'
p7
aI0
aatp8
Rp9
.ccollections
OrderedDict
p0
((lp1
(lp2
S'timestamp'
p3
aF0.9268941879272461
aa(lp4
S'distance'
p5
aF387.94178009033203
aa(lp6
S'state'
p7
aI0
aatp8
Rp9
.ccollections
OrderedDict
p0
((lp1
(lp2
S'timestamp'
p3
aF0.9363770484924316
aa(lp4
S'distance'
p5
aF387.94178009033203
aa(lp6
S'state'
p7
aI0
aatp8
Rp9
.ccollections
OrderedDict
p0
((lp1
(lp2
S'timestamp'
p3
aF0.9368460178375244
aa(lp4
S'distance'
p5
aF387.94178009033203
aa(lp6
S'state'
p7
aI0
aatp8
Rp9
.ccollections
OrderedDict
p0
((lp1
(lp2
S'timestamp'
p3
aF0.9463992118835449
aa(lp4
S'distance'
p5
aF387.94178009033203
aa(lp6
S'state'
p7
aI0
aatp8
Rp9
.ccollections
OrderedDict
p0
((lp1
(lp2
S'timestamp'
p3
aF0.9468560218811035
aa(lp4
S'distance'
p5
aF387.94178009033203
aa(lp6
S'state'
p7
aI0
aatp8
Rp9
.ccollections
OrderedDict
p0
((lp1
(lp2
S'timestamp'
p3
aF0.9560651779174805
aa(lp4
S'distance'
p5
aF387.94178009033203
aa(lp6
S'state'
p7
aI0
aatp8
Rp9
.ccollections
OrderedDict
p0
((lp1
(lp2
S'timestamp'
p3
aF0.9569401741027832
aa(lp4
S'distance'
p5
aF387.94178009033203
aa(lp6
S'state'
p7
aI0
aatp8
Rp9
.ccollections
OrderedDict
p0
((lp1
(lp2
S'timestamp'
p3
aF0.9663891792297363
aa(lp4
S'distance'
p5
aF387.94178009033203
aa(lp6
S'state'
p7
aI0
aatp8
Rp9
.ccollections
OrderedDict
p0
((lp1
(lp2
S'timestamp'
p3
aF0.9668011665344238
aa(lp4
S'distance'
p5
aF387.94178009033203
aa(lp6
S'state'
p7
aI0
aatp8
Rp9
.ccollections
OrderedDict
p0
((lp1
(lp2
S'timestamp'
p3
aF0.9763181209564209
aa(lp4
S'distance'
p5
aF387.94178009033203
aa(lp6
S'state'
p7
aI0
aatp8
Rp9
.ccollections
OrderedDict
p0
((lp1
(lp2
S'timestamp'
p3
aF0.9767470359802246
aa(lp4
S'distance'
p5
aF387.94178009033203
aa(lp6
S'state'
p7
aI0
aatp8
Rp9
.ccollections
OrderedDict
p0
((lp1
(lp2
S'timestamp'
p3
aF0.9863481521606445
aa(lp4
S'distance'
p5
aF387.94178009033203
aa(lp6
S'state'
p7
aI0
aatp8
Rp9
.ccollections
OrderedDict
p0
((lp1
(lp2
S'timestamp'
p3
aF0.9867780208587646
aa(lp4
S'distance'
p5
aF387.94178009033203
aa(lp6
S'state'
p7
aI0
aatp8
Rp9
.ccollections
OrderedDict
p0
((lp1
(lp2
S'timestamp'
p3
aF0.996143102645874
aa(lp4
S'distance'
p5
aF387.94178009033203
aa(lp6
S'state'
p7
aI0
aatp8
Rp9
.ccollections
OrderedDict
p0
((lp1
(lp2
S'timestamp'
p3
aF0.9966270923614502
aa(lp4
S'distance'
p5
aF387.94178009033203
aa(lp6
S'state'
p7
aI0
aatp8
Rp9
.ccollections
OrderedDict
p0
((lp1
(lp2
S'timestamp'
p3
aF1.0063741207122803
aa(lp4
S'distance'
p5
aF387.94178009033203
aa(lp6
S'state'
p7
aI0
aatp8
Rp9
.ccollections
OrderedDict
p0
((lp1
(lp2
S'timestamp'
p3
aF1.0067720413208008
aa(lp4
S'distance'
p5
aF387.94178009033203
aa(lp6
S'state'
p7
aI0
aatp8
Rp9
.ccollections
OrderedDict
p0
((lp1
(lp2
S'timestamp'
p3
aF1.0161590576171875
aa(lp4
S'distance'
p5
aF387.94178009033203
aa(lp6
S'state'
p7
aI0
aatp8
Rp9
.ccollections
OrderedDict
p0
((lp1
(lp2
S'timestamp'
p3
aF1.0166640281677246
aa(lp4
S'distance'
p5
aF387.94178009033203
aa(lp6
S'state'
p7
aI0
aatp8
Rp9
.ccollections
OrderedDict
p0
((lp1
(lp2
S'timestamp'
p3
aF1.0262181758880615
aa(lp4
S'distance'
p5
aF387.94178009033203
aa(lp6
S'state'
p7
aI0
aatp8
Rp9
.ccollections
OrderedDict
p0
((lp1
(lp2
S'timestamp'
p3
aF1.0267441272735596
aa(lp4
S'distance'
p5
aF387.94178009033203
aa(lp6
S'state'
p7
aI0
aatp8
Rp9
.ccollections
OrderedDict
p0
((lp1
(lp2
S'timestamp'
p3
aF1.0362682342529297
aa(lp4
S'distance'
p5
aF387.94178009033203
aa(lp6
S'state'
p7
aI0
aatp8
Rp9
.ccollections
OrderedDict
p0
((lp1
(lp2
S'timestamp'
p3
aF1.0367841720581055
aa(lp4
S'distance'
p5
aF387.94178009033203
aa(lp6
S'state'
p7
aI0
aatp8
Rp9
.ccollections
OrderedDict
p0
((lp1
(lp2
S'timestamp'
p3
aF1.0462641716003418
aa(lp4
S'distance'
p5
aF387.94178009033203
aa(lp6
S'state'
p7
aI0
aatp8
Rp9
.ccollections
OrderedDict
p0
((lp1
(lp2
S'timestamp'
p3
aF1.0467040538787842
aa(lp4
S'distance'
p5
aF387.94178009033203
aa(lp6
S'state'
p7
aI0
aatp8
Rp9
.ccollections
OrderedDict
p0
((lp1
(lp2
S'timestamp'
p3
aF1.056251049041748
aa(lp4
S'distance'
p5
aF387.94178009033203
aa(lp6
S'state'
p7
aI0
aatp8
Rp9
.ccollections
OrderedDict
p0
((lp1
(lp2
S'timestamp'
p3
aF1.0568020343780518
aa(lp4
S'distance'
p5
aF387.94178009033203
aa(lp6
S'state'
p7
aI0
aatp8
Rp9
.ccollections
OrderedDict
p0
((lp1
(lp2
S'timestamp'
p3
aF1.0669870376586914
aa(lp4
S'distance'
p5
aF387.94178009033203
aa(lp6
S'state'
p7
aI0
aatp8
Rp9
.ccollections
OrderedDict
p0
((lp1
(lp2
S'timestamp'
p3
aF1.067967176437378
aa(lp4
S'distance'
p5
aF387.94178009033203
aa(lp6
S'state'
p7
aI0
aatp8
Rp9
.ccollections
OrderedDict
p0
((lp1
(lp2
S'timestamp'
p3
aF1.0762112140655518
aa(lp4
S'distance'
p5
aF387.94178009033203
aa(lp6
S'state'
p7
aI0
aatp8
Rp9
.ccollections
OrderedDict
p0
((lp1
(lp2
S'timestamp'
p3
aF1.0766611099243164
aa(lp4
S'distance'
p5
aF387.94178009033203
aa(lp6
S'state'
p7
aI0
aatp8
Rp9
.ccollections
OrderedDict
p0
((lp1
(lp2
S'timestamp'
p3
aF1.086247205734253
aa(lp4
S'distance'
p5
aF387.94178009033203
aa(lp6
S'state'
p7
aI0
aatp8
Rp9
.ccollections
OrderedDict
p0
((lp1
(lp2
S'timestamp'
p3
aF1.0866742134094238
aa(lp4
S'distance'
p5
aF387.94178009033203
aa(lp6
S'state'
p7
aI0
aatp8
Rp9
.ccollections
OrderedDict
p0
((lp1
(lp2
S'timestamp'
p3
aF1.096067190170288
aa(lp4
S'distance'
p5
aF387.94178009033203
aa(lp6
S'state'
p7
aI0
aatp8
Rp9
.ccollections
OrderedDict
p0
((lp1
(lp2
S'timestamp'
p3
aF1.0966570377349854
aa(lp4
S'distance'
p5
aF387.94178009033203
aa(lp6
S'state'
p7
aI0
aatp8
Rp9
.ccollections
OrderedDict
p0
((lp1
(lp2
S'timestamp'
p3
aF1.1078670024871826
aa(lp4
S'distance'
p5
aF387.94178009033203
aa(lp6
S'state'
p7
aI0
aatp8
Rp9
.ccollections
OrderedDict
p0
((lp1
(lp2
S'timestamp'
p3
aF1.1093180179595947
aa(lp4
S'distance'
p5
aF387.94178009033203
aa(lp6
S'state'
p7
aI0
aatp8
Rp9
.ccollections
OrderedDict
p0
((lp1
(lp2
S'timestamp'
p3
aF1.1161491870880127
aa(lp4
S'distance'
p5
aF387.94178009033203
aa(lp6
S'state'
p7
aI0
aatp8
Rp9
.ccollections
OrderedDict
p0
((lp1
(lp2
S'timestamp'
p3
aF1.116469144821167
aa(lp4
S'distance'
p5
aF387.94178009033203
aa(lp6
S'state'
p7
aI0
aatp8
Rp9
.ccollections
OrderedDict
p0
((lp1
(lp2
S'timestamp'
p3
aF1.1276252269744873
aa(lp4
S'distance'
p5
aF387.94178009033203
aa(lp6
S'state'
p7
aI0
aatp8
Rp9
.ccollections
OrderedDict
p0
((lp1
(lp2
S'timestamp'
p3
aF1.128697156906128
aa(lp4
S'distance'
p5
aF387.94178009033203
aa(lp6
S'state'
p7
aI0
aatp8
Rp9
.ccollections
OrderedDict
p0
((lp1
(lp2
S'timestamp'
p3
aF1.1361911296844482
aa(lp4
S'distance'
p5
aF387.94178009033203
aa(lp6
S'state'
p7
aI0
aatp8
Rp9
.ccollections
OrderedDict
p0
((lp1
(lp2
S'timestamp'
p3
aF1.1365211009979248
aa(lp4
S'distance'
p5
aF387.94178009033203
aa(lp6
S'state'
p7
aI0
aatp8
Rp9
.ccollections
OrderedDict
p0
((lp1
(lp2
S'timestamp'
p3
aF1.1462180614471436
aa(lp4
S'distance'
p5
aF387.94178009033203
aa(lp6
S'state'
p7
aI0
aatp8
Rp9
.ccollections
OrderedDict
p0
((lp1
(lp2
S'timestamp'
p3
aF1.1465020179748535
aa(lp4
S'distance'
p5
aF387.94178009033203
aa(lp6
S'state'
p7
aI0
aatp8
Rp9
.ccollections
OrderedDict
p0
((lp1
(lp2
S'timestamp'
p3
aF1.1567630767822266
aa(lp4
S'distance'
p5
aF387.94178009033203
aa(lp6
S'state'
p7
aI0
aatp8
Rp9
.ccollections
OrderedDict
p0
((lp1
(lp2
S'timestamp'
p3
aF1.1575801372528076
aa(lp4
S'distance'
p5
aF387.94178009033203
aa(lp6
S'state'
p7
aI0
aatp8
Rp9
.ccollections
OrderedDict
p0
((lp1
(lp2
S'timestamp'
p3
aF1.1662871837615967
aa(lp4
S'distance'
p5
aF387.94178009033203
aa(lp6
S'state'
p7
aI0
aatp8
Rp9
.ccollections
OrderedDict
p0
((lp1
(lp2
S'timestamp'
p3
aF1.1664140224456787
aa(lp4
S'distance'
p5
aF387.94178009033203
aa(lp6
S'state'
p7
aI0
aatp8
Rp9
.ccollections
OrderedDict
p0
((lp1
(lp2
S'timestamp'
p3
aF1.1762681007385254
aa(lp4
S'distance'
p5
aF387.94178009033203
aa(lp6
S'state'
p7
aI0
aatp8
Rp9
.ccollections
OrderedDict
p0
((lp1
(lp2
S'timestamp'
p3
aF1.1763951778411865
aa(lp4
S'distance'
p5
aF387.94178009033203
aa(lp6
S'state'
p7
aI0
aatp8
Rp9
.ccollections
OrderedDict
p0
((lp1
(lp2
S'timestamp'
p3
aF1.1958870887756348
aa(lp4
S'distance'
p5
aF387.94178009033203
aa(lp6
S'state'
p7
aI0
aatp8
Rp9
.ccollections
OrderedDict
p0
((lp1
(lp2
S'timestamp'
p3
aF1.1977341175079346
aa(lp4
S'distance'
p5
aF387.94178009033203
aa(lp6
S'state'
p7
aI0
aatp8
Rp9
.ccollections
OrderedDict
p0
((lp1
(lp2
S'timestamp'
p3
aF1.2000811100006104
aa(lp4
S'distance'
p5
aF387.94178009033203
aa(lp6
S'state'
p7
aI0
aatp8
Rp9
.ccollections
OrderedDict
p0
((lp1
(lp2
S'timestamp'
p3
aF1.2001612186431885
aa(lp4
S'distance'
p5
aF387.94178009033203
aa(lp6
S'state'
p7
aI0
aatp8
Rp9
.ccollections
OrderedDict
p0
((lp1
(lp2
S'timestamp'
p3
aF1.2062931060791016
aa(lp4
S'distance'
p5
aF387.94178009033203
aa(lp6
S'state'
p7
aI0
aatp8
Rp9
.ccollections
OrderedDict
p0
((lp1
(lp2
S'timestamp'
p3
aF1.2070050239562988
aa(lp4
S'distance'
p5
aF387.94178009033203
aa(lp6
S'state'
p7
aI0
aatp8
Rp9
.ccollections
OrderedDict
p0
((lp1
(lp2
S'timestamp'
p3
aF1.2161710262298584
aa(lp4
S'distance'
p5
aF387.94178009033203
aa(lp6
S'state'
p7
aI0
aatp8
Rp9
.ccollections
OrderedDict
p0
((lp1
(lp2
S'timestamp'
p3
aF1.2163081169128418
aa(lp4
S'distance'
p5
aF387.94178009033203
aa(lp6
S'state'
p7
aI0
aatp8
Rp9
.ccollections
OrderedDict
p0
((lp1
(lp2
S'timestamp'
p3
aF1.226006031036377
aa(lp4
S'distance'
p5
aF387.94178009033203
aa(lp6
S'state'
p7
aI0
aatp8
Rp9
.ccollections
OrderedDict
p0
((lp1
(lp2
S'timestamp'
p3
aF1.2263970375061035
aa(lp4
S'distance'
p5
aF387.94178009033203
aa(lp6
S'state'
p7
aI0
aatp8
Rp9
.ccollections
OrderedDict
p0
((lp1
(lp2
S'timestamp'
p3
aF1.2357101440429688
aa(lp4
S'distance'
p5
aF387.94178009033203
aa(lp6
S'state'
p7
aI0
aatp8
Rp9
.ccollections
OrderedDict
p0
((lp1
(lp2
S'timestamp'
p3
aF1.2364342212677002
aa(lp4
S'distance'
p5
aF387.94178009033203
aa(lp6
S'state'
p7
aI0
aatp8
Rp9
.ccollections
OrderedDict
p0
((lp1
(lp2
S'timestamp'
p3
aF1.2460250854492188
aa(lp4
S'distance'
p5
aF387.94178009033203
aa(lp6
S'state'
p7
aI0
aatp8
Rp9
.ccollections
OrderedDict
p0
((lp1
(lp2
S'timestamp'
p3
aF1.2465500831604004
aa(lp4
S'distance'
p5
aF387.94178009033203
aa(lp6
S'state'
p7
aI0
aatp8
Rp9
.ccollections
OrderedDict
p0
((lp1
(lp2
S'timestamp'
p3
aF1.2559242248535156
aa(lp4
S'distance'
p5
aF387.94178009033203
aa(lp6
S'state'
p7
aI0
aatp8
Rp9
.ccollections
OrderedDict
p0
((lp1
(lp2
S'timestamp'
p3
aF1.2564311027526855
aa(lp4
S'distance'
p5
aF387.94178009033203
aa(lp6
S'state'
p7
aI0
aatp8
Rp9
.ccollections
OrderedDict
p0
((lp1
(lp2
S'timestamp'
p3
aF1.2659401893615723
aa(lp4
S'distance'
p5
aF387.94178009033203
aa(lp6
S'state'
p7
aI0
aatp8
Rp9
.ccollections
OrderedDict
p0
((lp1
(lp2
S'timestamp'
p3
aF1.2664051055908203
aa(lp4
S'distance'
p5
aF387.94178009033203
aa(lp6
S'state'
p7
aI400
aatp8
Rp9
.ccollections
OrderedDict
p0
((lp1
(lp2
S'timestamp'
p3
aF1.276008129119873
aa(lp4
S'distance'
p5
aF387.94178009033203
aa(lp6
S'state'
p7
aI400
aatp8
Rp9
.ccollections
OrderedDict
p0
((lp1
(lp2
S'timestamp'
p3
aF1.2763550281524658
aa(lp4
S'distance'
p5
aF387.94178009033203
aa(lp6
S'state'
p7
aI400
aatp8
Rp9
.ccollections
OrderedDict
p0
((lp1
(lp2
S'timestamp'
p3
aF1.3364570140838623
aa(lp4
S'distance'
p5
aF387.94178009033203
aa(lp6
S'state'
p7
aI400
aatp8
Rp9
.ccollections
OrderedDict
p0
((lp1
(lp2
S'timestamp'
p3
aF1.337644100189209
aa(lp4
S'distance'
p5
aF387.94178009033203
aa(lp6
S'state'
p7
aI400
aatp8
Rp9
.ccollections
OrderedDict
p0
((lp1
(lp2
S'timestamp'
p3
aF1.3441781997680664
aa(lp4
S'distance'
p5
aF387.94178009033203
aa(lp6
S'state'
p7
aI400
aatp8
Rp9
.ccollections
OrderedDict
p0
((lp1
(lp2
S'timestamp'
p3
aF1.3444812297821045
aa(lp4
S'distance'
p5
aF387.94178009033203
aa(lp6
S'state'
p7
aI400
aatp8
Rp9
.ccollections
OrderedDict
p0
((lp1
(lp2
S'timestamp'
p3
aF1.34688401222229
aa(lp4
S'distance'
p5
aF387.94178009033203
aa(lp6
S'state'
p7
aI400
aatp8
Rp9
.ccollections
OrderedDict
p0
((lp1
(lp2
S'timestamp'
p3
aF1.3473820686340332
aa(lp4
S'distance'
p5
aF387.94178009033203
aa(lp6
S'state'
p7
aI400
aatp8
Rp9
.ccollections
OrderedDict
p0
((lp1
(lp2
S'timestamp'
p3
aF1.3491361141204834
aa(lp4
S'distance'
p5
aF387.94178009033203
aa(lp6
S'state'
p7
aI400
aatp8
Rp9
.ccollections
OrderedDict
p0
((lp1
(lp2
S'timestamp'
p3
aF1.3493292331695557
aa(lp4
S'distance'
p5
aF387.94178009033203
aa(lp6
S'state'
p7
aI400
aatp8
Rp9
.ccollections
OrderedDict
p0
((lp1
(lp2
S'timestamp'
p3
aF1.3498430252075195
aa(lp4
S'distance'
p5
aF387.94178009033203
aa(lp6
S'state'
p7
aI400
aatp8
Rp9
.ccollections
OrderedDict
p0
((lp1
(lp2
S'timestamp'
p3
aF1.3504650592803955
aa(lp4
S'distance'
p5
aF387.94178009033203
aa(lp6
S'state'
p7
aI400
aatp8
Rp9
.ccollections
OrderedDict
p0
((lp1
(lp2
S'timestamp'
p3
aF1.350689172744751
aa(lp4
S'distance'
p5
aF387.94178009033203
aa(lp6
S'state'
p7
aI400
aatp8
Rp9
.ccollections
OrderedDict
p0
((lp1
(lp2
S'timestamp'
p3
aF1.3511102199554443
aa(lp4
S'distance'
p5
aF387.94178009033203
aa(lp6
S'state'
p7
aI400
aatp8
Rp9
.ccollections
OrderedDict
p0
((lp1
(lp2
S'timestamp'
p3
aF1.351816177368164
aa(lp4
S'distance'
p5
aF387.94178009033203
aa(lp6
S'state'
p7
aI400
aatp8
Rp9
.ccollections
OrderedDict
p0
((lp1
(lp2
S'timestamp'
p3
aF1.3519840240478516
aa(lp4
S'distance'
p5
aF387.94178009033203
aa(lp6
S'state'
p7
aI400
aatp8
Rp9
.ccollections
OrderedDict
p0
((lp1
(lp2
S'timestamp'
p3
aF1.3563220500946045
aa(lp4
S'distance'
p5
aF387.94178009033203
aa(lp6
S'state'
p7
aI400
aatp8
Rp9
.ccollections
OrderedDict
p0
((lp1
(lp2
S'timestamp'
p3
aF1.3572521209716797
aa(lp4
S'distance'
p5
aF387.94178009033203
aa(lp6
S'state'
p7
aI400
aatp8
Rp9
.ccollections
OrderedDict
p0
((lp1
(lp2
S'timestamp'
p3
aF1.3677430152893066
aa(lp4
S'distance'
p5
aF387.94178009033203
aa(lp6
S'state'
p7
aI400
aatp8
Rp9
.ccollections
OrderedDict
p0
((lp1
(lp2
S'timestamp'
p3
aF1.3700251579284668
aa(lp4
S'distance'
p5
aF387.94178009033203
aa(lp6
S'state'
p7
aI400
aatp8
Rp9
.ccollections
OrderedDict
p0
((lp1
(lp2
S'timestamp'
p3
aF1.3760151863098145
aa(lp4
S'distance'
p5
aF387.94178009033203
aa(lp6
S'state'
p7
aI400
aatp8
Rp9
.ccollections
OrderedDict
p0
((lp1
(lp2
S'timestamp'
p3
aF1.3761842250823975
aa(lp4
S'distance'
p5
aF387.94178009033203
aa(lp6
S'state'
p7
aI400
aatp8
Rp9
.ccollections
OrderedDict
p0
((lp1
(lp2
S'timestamp'
p3
aF1.385669231414795
aa(lp4
S'distance'
p5
aF387.94178009033203
aa(lp6
S'state'
p7
aI400
aatp8
Rp9
.ccollections
OrderedDict
p0
((lp1
(lp2
S'timestamp'
p3
aF1.3862791061401367
aa(lp4
S'distance'
p5
aF387.94178009033203
aa(lp6
S'state'
p7
aI400
aatp8
Rp9
.ccollections
OrderedDict
p0
((lp1
(lp2
S'timestamp'
p3
aF1.3958070278167725
aa(lp4
S'distance'
p5
aF387.94178009033203
aa(lp6
S'state'
p7
aI400
aatp8
Rp9
.ccollections
OrderedDict
p0
((lp1
(lp2
S'timestamp'
p3
aF1.3962621688842773
aa(lp4
S'distance'
p5
aF387.94178009033203
aa(lp6
S'state'
p7
aI400
aatp8
Rp9
.ccollections
OrderedDict
p0
((lp1
(lp2
S'timestamp'
p3
aF1.406114101409912
aa(lp4
S'distance'
p5
aF387.94178009033203
aa(lp6
S'state'
p7
aI400
aatp8
Rp9
.ccollections
OrderedDict
p0
((lp1
(lp2
S'timestamp'
p3
aF1.4064061641693115
aa(lp4
S'distance'
p5
aF387.94178009033203
aa(lp6
S'state'
p7
aI400
aatp8
Rp9
.ccollections
OrderedDict
p0
((lp1
(lp2
S'timestamp'
p3
aF1.415743112564087
aa(lp4
S'distance'
p5
aF387.94178009033203
aa(lp6
S'state'
p7
aI400
aatp8
Rp9
.ccollections
OrderedDict
p0
((lp1
(lp2
S'timestamp'
p3
aF1.4258642196655273
aa(lp4
S'distance'
p5
aF387.94178009033203
aa(lp6
S'state'
p7
aI400
aatp8
Rp9
.ccollections
OrderedDict
p0
((lp1
(lp2
S'timestamp'
p3
aF1.425976037979126
aa(lp4
S'distance'
p5
aF387.94178009033203
aa(lp6
S'state'
p7
aI400
aatp8
Rp9
.ccollections
OrderedDict
p0
((lp1
(lp2
S'timestamp'
p3
aF1.4266860485076904
aa(lp4
S'distance'
p5
aF387.94178009033203
aa(lp6
S'state'
p7
aI400
aatp8
Rp9
.ccollections
OrderedDict
p0
((lp1
(lp2
S'timestamp'
p3
aF1.4373750686645508
aa(lp4
S'distance'
p5
aF387.94178009033203
aa(lp6
S'state'
p7
aI400
aatp8
Rp9
.ccollections
OrderedDict
p0
((lp1
(lp2
S'timestamp'
p3
aF1.4387750625610352
aa(lp4
S'distance'
p5
aF387.94178009033203
aa(lp6
S'state'
p7
aI400
aatp8
Rp9
.ccollections
OrderedDict
p0
((lp1
(lp2
S'timestamp'
p3
aF1.4459991455078125
aa(lp4
S'distance'
p5
aF387.94178009033203
aa(lp6
S'state'
p7
aI400
aatp8
Rp9
.ccollections
OrderedDict
p0
((lp1
(lp2
S'timestamp'
p3
aF1.4461002349853516
aa(lp4
S'distance'
p5
aF387.94178009033203
aa(lp6
S'state'
p7
aI400
aatp8
Rp9
.ccollections
OrderedDict
p0
((lp1
(lp2
S'timestamp'
p3
aF1.4572770595550537
aa(lp4
S'distance'
p5
aF387.94178009033203
aa(lp6
S'state'
p7
aI400
aatp8
Rp9
.ccollections
OrderedDict
p0
((lp1
(lp2
S'timestamp'
p3
aF1.457982063293457
aa(lp4
S'distance'
p5
aF387.94178009033203
aa(lp6
S'state'
p7
aI400
aatp8
Rp9
.ccollections
OrderedDict
p0
((lp1
(lp2
S'timestamp'
p3
aF1.465914011001587
aa(lp4
S'distance'
p5
aF387.94178009033203
aa(lp6
S'state'
p7
aI400
aatp8
Rp9
.ccollections
OrderedDict
p0
((lp1
(lp2
S'timestamp'
p3
aF1.4660491943359375
aa(lp4
S'distance'
p5
aF387.94178009033203
aa(lp6
S'state'
p7
aI400
aatp8
Rp9
.ccollections
OrderedDict
p0
((lp1
(lp2
S'timestamp'
p3
aF1.4772121906280518
aa(lp4
S'distance'
p5
aF387.94178009033203
aa(lp6
S'state'
p7
aI400
aatp8
Rp9
.ccollections
OrderedDict
p0
((lp1
(lp2
S'timestamp'
p3
aF1.4789350032806396
aa(lp4
S'distance'
p5
aF387.94178009033203
aa(lp6
S'state'
p7
aI400
aatp8
Rp9
.ccollections
OrderedDict
p0
((lp1
(lp2
S'timestamp'
p3
aF1.4855890274047852
aa(lp4
S'distance'
p5
aF387.94178009033203
aa(lp6
S'state'
p7
aI400
aatp8
Rp9
.ccollections
OrderedDict
p0
((lp1
(lp2
S'timestamp'
p3
aF1.4859910011291504
aa(lp4
S'distance'
p5
aF387.94178009033203
aa(lp6
S'state'
p7
aI400
aatp8
Rp9
.ccollections
OrderedDict
p0
((lp1
(lp2
S'timestamp'
p3
aF1.495927095413208
aa(lp4
S'distance'
p5
aF387.94178009033203
aa(lp6
S'state'
p7
aI400
aatp8
Rp9
.ccollections
OrderedDict
p0
((lp1
(lp2
S'timestamp'
p3
aF1.49601411819458
aa(lp4
S'distance'
p5
aF387.94178009033203
aa(lp6
S'state'
p7
aI400
aatp8
Rp9
.ccollections
OrderedDict
p0
((lp1
(lp2
S'timestamp'
p3
aF1.5058932304382324
aa(lp4
S'distance'
p5
aF387.94178009033203
aa(lp6
S'state'
p7
aI400
aatp8
Rp9
.ccollections
OrderedDict
p0
((lp1
(lp2
S'timestamp'
p3
aF1.506026029586792
aa(lp4
S'distance'
p5
aF387.94178009033203
aa(lp6
S'state'
p7
aI400
aatp8
Rp9
.ccollections
OrderedDict
p0
((lp1
(lp2
S'timestamp'
p3
aF1.5158350467681885
aa(lp4
S'distance'
p5
aF387.94178009033203
aa(lp6
S'state'
p7
aI400
aatp8
Rp9
.ccollections
OrderedDict
p0
((lp1
(lp2
S'timestamp'
p3
aF1.515970230102539
aa(lp4
S'distance'
p5
aF387.94178009033203
aa(lp6
S'state'
p7
aI400
aatp8
Rp9
.ccollections
OrderedDict
p0
((lp1
(lp2
S'timestamp'
p3
aF1.5259442329406738
aa(lp4
S'distance'
p5
aF387.94178009033203
aa(lp6
S'state'
p7
aI400
aatp8
Rp9
.ccollections
OrderedDict
p0
((lp1
(lp2
S'timestamp'
p3
aF1.5261211395263672
aa(lp4
S'distance'
p5
aF387.94178009033203
aa(lp6
S'state'
p7
aI400
aatp8
Rp9
.ccollections
OrderedDict
p0
((lp1
(lp2
S'timestamp'
p3
aF1.536363124847412
aa(lp4
S'distance'
p5
aF387.94178009033203
aa(lp6
S'state'
p7
aI400
aatp8
Rp9
.ccollections
OrderedDict
p0
((lp1
(lp2
S'timestamp'
p3
aF1.5364370346069336
aa(lp4
S'distance'
p5
aF387.94178009033203
aa(lp6
S'state'
p7
aI400
aatp8
Rp9
.ccollections
OrderedDict
p0
((lp1
(lp2
S'timestamp'
p3
aF1.5455470085144043
aa(lp4
S'distance'
p5
aF387.94178009033203
aa(lp6
S'state'
p7
aI400
aatp8
Rp9
.ccollections
OrderedDict
p0
((lp1
(lp2
S'timestamp'
p3
aF1.546051025390625
aa(lp4
S'distance'
p5
aF387.94178009033203
aa(lp6
S'state'
p7
aI400
aatp8
Rp9
.ccollections
OrderedDict
p0
((lp1
(lp2
S'timestamp'
p3
aF1.56532621383667
aa(lp4
S'distance'
p5
aF387.94178009033203
aa(lp6
S'state'
p7
aI400
aatp8
Rp9
.ccollections
OrderedDict
p0
((lp1
(lp2
S'timestamp'
p3
aF1.5659291744232178
aa(lp4
S'distance'
p5
aF387.94178009033203
aa(lp6
S'state'
p7
aI400
aatp8
Rp9
.ccollections
OrderedDict
p0
((lp1
(lp2
S'timestamp'
p3
aF1.566399097442627
aa(lp4
S'distance'
p5
aF387.94178009033203
aa(lp6
S'state'
p7
aI400
aatp8
Rp9
.ccollections
OrderedDict
p0
((lp1
(lp2
S'timestamp'
p3
aF1.5669410228729248
aa(lp4
S'distance'
p5
aF387.94178009033203
aa(lp6
S'state'
p7
aI400
aatp8
Rp9
.ccollections
OrderedDict
p0
((lp1
(lp2
S'timestamp'
p3
aF1.5755741596221924
aa(lp4
S'distance'
p5
aF387.94178009033203
aa(lp6
S'state'
p7
aI400
aatp8
Rp9
.ccollections
OrderedDict
p0
((lp1
(lp2
S'timestamp'
p3
aF1.5760362148284912
aa(lp4
S'distance'
p5
aF387.94178009033203
aa(lp6
S'state'
p7
aI400
aatp8
Rp9
.ccollections
OrderedDict
p0
((lp1
(lp2
S'timestamp'
p3
aF1.5855422019958496
aa(lp4
S'distance'
p5
aF387.94178009033203
aa(lp6
S'state'
p7
aI400
aatp8
Rp9
.ccollections
OrderedDict
p0
((lp1
(lp2
S'timestamp'
p3
aF1.5860471725463867
aa(lp4
S'distance'
p5
aF387.94178009033203
aa(lp6
S'state'
p7
aI400
aatp8
Rp9
.ccollections
OrderedDict
p0
((lp1
(lp2
S'timestamp'
p3
aF1.5955841541290283
aa(lp4
S'distance'
p5
aF387.94178009033203
aa(lp6
S'state'
p7
aI400
aatp8
Rp9
.ccollections
OrderedDict
p0
((lp1
(lp2
S'timestamp'
p3
aF1.5960800647735596
aa(lp4
S'distance'
p5
aF387.94178009033203
aa(lp6
S'state'
p7
aI400
aatp8
Rp9
.ccollections
OrderedDict
p0
((lp1
(lp2
S'timestamp'
p3
aF1.6055121421813965
aa(lp4
S'distance'
p5
aF387.94178009033203
aa(lp6
S'state'
p7
aI400
aatp8
Rp9
.ccollections
OrderedDict
p0
((lp1
(lp2
S'timestamp'
p3
aF1.6059842109680176
aa(lp4
S'distance'
p5
aF387.94178009033203
aa(lp6
S'state'
p7
aI400
aatp8
Rp9
.ccollections
OrderedDict
p0
((lp1
(lp2
S'timestamp'
p3
aF1.6155140399932861
aa(lp4
S'distance'
p5
aF387.94178009033203
aa(lp6
S'state'
p7
aI400
aatp8
Rp9
.ccollections
OrderedDict
p0
((lp1
(lp2
S'timestamp'
p3
aF1.6159420013427734
aa(lp4
S'distance'
p5
aF387.94178009033203
aa(lp6
S'state'
p7
aI400
aatp8
Rp9
.ccollections
OrderedDict
p0
((lp1
(lp2
S'timestamp'
p3
aF1.626265048980713
aa(lp4
S'distance'
p5
aF387.94178009033203
aa(lp6
S'state'
p7
aI400
aatp8
Rp9
.ccollections
OrderedDict
p0
((lp1
(lp2
S'timestamp'
p3
aF1.6263821125030518
aa(lp4
S'distance'
p5
aF387.94178009033203
aa(lp6
S'state'
p7
aI400
aatp8
Rp9
.ccollections
OrderedDict
p0
((lp1
(lp2
S'timestamp'
p3
aF1.6353740692138672
aa(lp4
S'distance'
p5
aF387.94178009033203
aa(lp6
S'state'
p7
aI400
aatp8
Rp9
.ccollections
OrderedDict
p0
((lp1
(lp2
S'timestamp'
p3
aF1.6359350681304932
aa(lp4
S'distance'
p5
aF387.94178009033203
aa(lp6
S'state'
p7
aI400
aatp8
Rp9
.ccollections
OrderedDict
p0
((lp1
(lp2
S'timestamp'
p3
aF1.6454992294311523
aa(lp4
S'distance'
p5
aF387.94178009033203
aa(lp6
S'state'
p7
aI400
aatp8
Rp9
.ccollections
OrderedDict
p0
((lp1
(lp2
S'timestamp'
p3
aF1.6459221839904785
aa(lp4
S'distance'
p5
aF387.94178009033203
aa(lp6
S'state'
p7
aI400
aatp8
Rp9
.ccollections
OrderedDict
p0
((lp1
(lp2
S'timestamp'
p3
aF1.6564481258392334
aa(lp4
S'distance'
p5
aF387.94178009033203
aa(lp6
S'state'
p7
aI400
aatp8
Rp9
.ccollections
OrderedDict
p0
((lp1
(lp2
S'timestamp'
p3
aF1.6573281288146973
aa(lp4
S'distance'
p5
aF387.94178009033203
aa(lp6
S'state'
p7
aI400
aatp8
Rp9
.ccollections
OrderedDict
p0
((lp1
(lp2
S'timestamp'
p3
aF1.666079044342041
aa(lp4
S'distance'
p5
aF387.94178009033203
aa(lp6
S'state'
p7
aI400
aatp8
Rp9
.ccollections
OrderedDict
p0
((lp1
(lp2
S'timestamp'
p3
aF1.6677241325378418
aa(lp4
S'distance'
p5
aF387.94178009033203
aa(lp6
S'state'
p7
aI400
aatp8
Rp9
.ccollections
OrderedDict
p0
((lp1
(lp2
S'timestamp'
p3
aF1.6754422187805176
aa(lp4
S'distance'
p5
aF387.94178009033203
aa(lp6
S'state'
p7
aI400
aatp8
Rp9
.ccollections
OrderedDict
p0
((lp1
(lp2
S'timestamp'
p3
aF1.6759490966796875
aa(lp4
S'distance'
p5
aF387.94178009033203
aa(lp6
S'state'
p7
aI400
aatp8
Rp9
.ccollections
OrderedDict
p0
((lp1
(lp2
S'timestamp'
p3
aF1.6851460933685303
aa(lp4
S'distance'
p5
aF387.94178009033203
aa(lp6
S'state'
p7
aI400
aatp8
Rp9
.ccollections
OrderedDict
p0
((lp1
(lp2
S'timestamp'
p3
aF1.6859540939331055
aa(lp4
S'distance'
p5
aF387.94178009033203
aa(lp6
S'state'
p7
aI400
aatp8
Rp9
.ccollections
OrderedDict
p0
((lp1
(lp2
S'timestamp'
p3
aF1.6954171657562256
aa(lp4
S'distance'
p5
aF387.94178009033203
aa(lp6
S'state'
p7
aI400
aatp8
Rp9
.ccollections
OrderedDict
p0
((lp1
(lp2
S'timestamp'
p3
aF1.695829153060913
aa(lp4
S'distance'
p5
aF387.94178009033203
aa(lp6
S'state'
p7
aI400
aatp8
Rp9
.ccollections
OrderedDict
p0
((lp1
(lp2
S'timestamp'
p3
aF1.7054030895233154
aa(lp4
S'distance'
p5
aF387.94178009033203
aa(lp6
S'state'
p7
aI400
aatp8
Rp9
.ccollections
OrderedDict
p0
((lp1
(lp2
S'timestamp'
p3
aF1.7059171199798584
aa(lp4
S'distance'
p5
aF387.94178009033203
aa(lp6
S'state'
p7
aI400
aatp8
Rp9
.ccollections
OrderedDict
p0
((lp1
(lp2
S'timestamp'
p3
aF1.7158942222595215
aa(lp4
S'distance'
p5
aF387.94178009033203
aa(lp6
S'state'
p7
aI0
aatp8
Rp9
.ccollections
OrderedDict
p0
((lp1
(lp2
S'timestamp'
p3
aF2.2751832008361816
aa(lp4
S'distance'
p5
aF274.3
aa(lp6
S'state'
p7
aI0
aatp8
Rp9
.ccollections
OrderedDict
p0
((lp1
(lp2
S'timestamp'
p3
aF2.2847042083740234
aa(lp4
S'distance'
p5
aF274.3
aa(lp6
S'state'
p7
aI0
aatp8
Rp9
.ccollections
OrderedDict
p0
((lp1
(lp2
S'timestamp'
p3
aF2.285234212875366
aa(lp4
S'distance'
p5
aF274.3
aa(lp6
S'state'
p7
aI0
aatp8
Rp9
.ccollections
OrderedDict
p0
((lp1
(lp2
S'timestamp'
p3
aF2.2947330474853516
aa(lp4
S'distance'
p5
aF274.3
aa(lp6
S'state'
p7
aI0
aatp8
Rp9
.ccollections
OrderedDict
p0
((lp1
(lp2
S'timestamp'
p3
aF2.2953031063079834
aa(lp4
S'distance'
p5
aF274.3
aa(lp6
S'state'
p7
aI0
aatp8
Rp9
.ccollections
OrderedDict
p0
((lp1
(lp2
S'timestamp'
p3
aF2.3047361373901367
aa(lp4
S'distance'
p5
aF274.3
aa(lp6
S'state'
p7
aI0
aatp8
Rp9
.ccollections
OrderedDict
p0
((lp1
(lp2
S'timestamp'
p3
aF2.305194139480591
aa(lp4
S'distance'
p5
aF274.3
aa(lp6
S'state'
p7
aI0
aatp8
Rp9
.ccollections
OrderedDict
p0
((lp1
(lp2
S'timestamp'
p3
aF2.3154990673065186
aa(lp4
S'distance'
p5
aF274.3
aa(lp6
S'state'
p7
aI0
aatp8
Rp9
.ccollections
OrderedDict
p0
((lp1
(lp2
S'timestamp'
p3
aF2.316364049911499
aa(lp4
S'distance'
p5
aF274.3
aa(lp6
S'state'
p7
aI0
aatp8
Rp9
.ccollections
OrderedDict
p0
((lp1
(lp2
S'timestamp'
p3
aF2.3246891498565674
aa(lp4
S'distance'
p5
aF274.3
aa(lp6
S'state'
p7
aI0
aatp8
Rp9
.ccollections
OrderedDict
p0
((lp1
(lp2
S'timestamp'
p3
aF2.3251681327819824
aa(lp4
S'distance'
p5
aF274.3
aa(lp6
S'state'
p7
aI0
aatp8
Rp9
.ccollections
OrderedDict
p0
((lp1
(lp2
S'timestamp'
p3
aF2.3346011638641357
aa(lp4
S'distance'
p5
aF274.3
aa(lp6
S'state'
p7
aI0
aatp8
Rp9
.ccollections
OrderedDict
p0
((lp1
(lp2
S'timestamp'
p3
aF2.335214138031006
aa(lp4
S'distance'
p5
aF274.3
aa(lp6
S'state'
p7
aI0
aatp8
Rp9
.ccollections
OrderedDict
p0
((lp1
(lp2
S'timestamp'
p3
aF2.3445911407470703
aa(lp4
S'distance'
p5
aF274.3
aa(lp6
S'state'
p7
aI0
aatp8
Rp9
.ccollections
OrderedDict
p0
((lp1
(lp2
S'timestamp'
p3
aF2.34521222114563
aa(lp4
S'distance'
p5
aF274.3
aa(lp6
S'state'
p7
aI0
aatp8
Rp9
.ccollections
OrderedDict
p0
((lp1
(lp2
S'timestamp'
p3
aF2.3546431064605713
aa(lp4
S'distance'
p5
aF274.3
aa(lp6
S'state'
p7
aI0
aatp8
Rp9
.ccollections
OrderedDict
p0
((lp1
(lp2
S'timestamp'
p3
aF2.3551201820373535
aa(lp4
S'distance'
p5
aF274.3
aa(lp6
S'state'
p7
aI0
aatp8
Rp9
.ccollections
OrderedDict
p0
((lp1
(lp2
S'timestamp'
p3
aF2.364514112472534
aa(lp4
S'distance'
p5
aF274.3
aa(lp6
S'state'
p7
aI0
aatp8
Rp9
.ccollections
OrderedDict
p0
((lp1
(lp2
S'timestamp'
p3
aF2.3650941848754883
aa(lp4
S'distance'
p5
aF274.3
aa(lp6
S'state'
p7
aI0
aatp8
Rp9
.ccollections
OrderedDict
p0
((lp1
(lp2
S'timestamp'
p3
aF2.3747191429138184
aa(lp4
S'distance'
p5
aF274.3
aa(lp6
S'state'
p7
aI400
aatp8
Rp9
.ccollections
OrderedDict
p0
((lp1
(lp2
S'timestamp'
p3
aF2.375155210494995
aa(lp4
S'distance'
p5
aF274.3
aa(lp6
S'state'
p7
aI400
aatp8
Rp9
.ccollections
OrderedDict
p0
((lp1
(lp2
S'timestamp'
p3
aF2.3846380710601807
aa(lp4
S'distance'
p5
aF274.3
aa(lp6
S'state'
p7
aI400
aatp8
Rp9
.ccollections
OrderedDict
p0
((lp1
(lp2
S'timestamp'
p3
aF2.385127067565918
aa(lp4
S'distance'
p5
aF274.3
aa(lp6
S'state'
p7
aI400
aatp8
Rp9
.ccollections
OrderedDict
p0
((lp1
(lp2
S'timestamp'
p3
aF2.3946352005004883
aa(lp4
S'distance'
p5
aF274.3
aa(lp6
S'state'
p7
aI400
aatp8
Rp9
.ccollections
OrderedDict
p0
((lp1
(lp2
S'timestamp'
p3
aF2.394965171813965
aa(lp4
S'distance'
p5
aF274.3
aa(lp6
S'state'
p7
aI400
aatp8
Rp9
.ccollections
OrderedDict
p0
((lp1
(lp2
S'timestamp'
p3
aF2.4047930240631104
aa(lp4
S'distance'
p5
aF274.3
aa(lp6
S'state'
p7
aI400
aatp8
Rp9
.ccollections
OrderedDict
p0
((lp1
(lp2
S'timestamp'
p3
aF2.40562105178833
aa(lp4
S'distance'
p5
aF274.3
aa(lp6
S'state'
p7
aI400
aatp8
Rp9
.ccollections
OrderedDict
p0
((lp1
(lp2
S'timestamp'
p3
aF2.414844036102295
aa(lp4
S'distance'
p5
aF274.3
aa(lp6
S'state'
p7
aI400
aatp8
Rp9
.ccollections
OrderedDict
p0
((lp1
(lp2
S'timestamp'
p3
aF2.415027141571045
aa(lp4
S'distance'
p5
aF274.3
aa(lp6
S'state'
p7
aI400
aatp8
Rp9
.ccollections
OrderedDict
p0
((lp1
(lp2
S'timestamp'
p3
aF2.4245522022247314
aa(lp4
S'distance'
p5
aF274.3
aa(lp6
S'state'
p7
aI400
aatp8
Rp9
.ccollections
OrderedDict
p0
((lp1
(lp2
S'timestamp'
p3
aF2.4248762130737305
aa(lp4
S'distance'
p5
aF274.3
aa(lp6
S'state'
p7
aI400
aatp8
Rp9
.ccollections
OrderedDict
p0
((lp1
(lp2
S'timestamp'
p3
aF2.4363951683044434
aa(lp4
S'distance'
p5
aF274.3
aa(lp6
S'state'
p7
aI400
aatp8
Rp9
.ccollections
OrderedDict
p0
((lp1
(lp2
S'timestamp'
p3
aF2.438507080078125
aa(lp4
S'distance'
p5
aF274.3
aa(lp6
S'state'
p7
aI400
aatp8
Rp9
.ccollections
OrderedDict
p0
((lp1
(lp2
S'timestamp'
p3
aF2.4452340602874756
aa(lp4
S'distance'
p5
aF274.3
aa(lp6
S'state'
p7
aI400
aatp8
Rp9
.ccollections
OrderedDict
p0
((lp1
(lp2
S'timestamp'
p3
aF2.445319175720215
aa(lp4
S'distance'
p5
aF274.3
aa(lp6
S'state'
p7
aI400
aatp8
Rp9
.ccollections
OrderedDict
p0
((lp1
(lp2
S'timestamp'
p3
aF2.454512119293213
aa(lp4
S'distance'
p5
aF274.3
aa(lp6
S'state'
p7
aI400
aatp8
Rp9
.ccollections
OrderedDict
p0
((lp1
(lp2
S'timestamp'
p3
aF2.4549691677093506
aa(lp4
S'distance'
p5
aF274.3
aa(lp6
S'state'
p7
aI400
aatp8
Rp9
.ccollections
OrderedDict
p0
((lp1
(lp2
S'timestamp'
p3
aF2.464529037475586
aa(lp4
S'distance'
p5
aF274.3
aa(lp6
S'state'
p7
aI400
aatp8
Rp9
.ccollections
OrderedDict
p0
((lp1
(lp2
S'timestamp'
p3
aF2.464898109436035
aa(lp4
S'distance'
p5
aF274.3
aa(lp6
S'state'
p7
aI400
aatp8
Rp9
.ccollections
OrderedDict
p0
((lp1
(lp2
S'timestamp'
p3
aF2.47464919090271
aa(lp4
S'distance'
p5
aF274.3
aa(lp6
S'state'
p7
aI400
aatp8
Rp9
.ccollections
OrderedDict
p0
((lp1
(lp2
S'timestamp'
p3
aF2.4750730991363525
aa(lp4
S'distance'
p5
aF274.3
aa(lp6
S'state'
p7
aI400
aatp8
Rp9
.ccollections
OrderedDict
p0
((lp1
(lp2
S'timestamp'
p3
aF2.4845190048217773
aa(lp4
S'distance'
p5
aF274.3
aa(lp6
S'state'
p7
aI400
aatp8
Rp9
.ccollections
OrderedDict
p0
((lp1
(lp2
S'timestamp'
p3
aF2.4849631786346436
aa(lp4
S'distance'
p5
aF274.3
aa(lp6
S'state'
p7
aI400
aatp8
Rp9
.ccollections
OrderedDict
p0
((lp1
(lp2
S'timestamp'
p3
aF2.494502067565918
aa(lp4
S'distance'
p5
aF274.3
aa(lp6
S'state'
p7
aI400
aatp8
Rp9
.ccollections
OrderedDict
p0
((lp1
(lp2
S'timestamp'
p3
aF2.494955062866211
aa(lp4
S'distance'
p5
aF274.3
aa(lp6
S'state'
p7
aI400
aatp8
Rp9
.ccollections
OrderedDict
p0
((lp1
(lp2
S'timestamp'
p3
aF2.504617214202881
aa(lp4
S'distance'
p5
aF274.3
aa(lp6
S'state'
p7
aI400
aatp8
Rp9
.ccollections
OrderedDict
p0
((lp1
(lp2
S'timestamp'
p3
aF2.5050570964813232
aa(lp4
S'distance'
p5
aF274.3
aa(lp6
S'state'
p7
aI400
aatp8
Rp9
.ccollections
OrderedDict
p0
((lp1
(lp2
S'timestamp'
p3
aF2.5143542289733887
aa(lp4
S'distance'
p5
aF274.3
aa(lp6
S'state'
p7
aI400
aatp8
Rp9
.ccollections
OrderedDict
p0
((lp1
(lp2
S'timestamp'
p3
aF2.5149810314178467
aa(lp4
S'distance'
p5
aF274.3
aa(lp6
S'state'
p7
aI400
aatp8
Rp9
.ccollections
OrderedDict
p0
((lp1
(lp2
S'timestamp'
p3
aF2.524426221847534
aa(lp4
S'distance'
p5
aF274.3
aa(lp6
S'state'
p7
aI400
aatp8
Rp9
.ccollections
OrderedDict
p0
((lp1
(lp2
S'timestamp'
p3
aF2.5249881744384766
aa(lp4
S'distance'
p5
aF274.3
aa(lp6
S'state'
p7
aI400
aatp8
Rp9
.ccollections
OrderedDict
p0
((lp1
(lp2
S'timestamp'
p3
aF2.5343780517578125
aa(lp4
S'distance'
p5
aF274.3
aa(lp6
S'state'
p7
aI400
aatp8
Rp9
.ccollections
OrderedDict
p0
((lp1
(lp2
S'timestamp'
p3
aF2.534921169281006
aa(lp4
S'distance'
p5
aF274.3
aa(lp6
S'state'
p7
aI400
aatp8
Rp9
.ccollections
OrderedDict
p0
((lp1
(lp2
S'timestamp'
p3
aF2.5442490577697754
aa(lp4
S'distance'
p5
aF274.3
aa(lp6
S'state'
p7
aI400
aatp8
Rp9
.ccollections
OrderedDict
p0
((lp1
(lp2
S'timestamp'
p3
aF2.5449600219726562
aa(lp4
S'distance'
p5
aF274.3
aa(lp6
S'state'
p7
aI400
aatp8
Rp9
.ccollections
OrderedDict
p0
((lp1
(lp2
S'timestamp'
p3
aF2.5544331073760986
aa(lp4
S'distance'
p5
aF274.3
aa(lp6
S'state'
p7
aI400
aatp8
Rp9
.ccollections
OrderedDict
p0
((lp1
(lp2
S'timestamp'
p3
aF2.554899215698242
aa(lp4
S'distance'
p5
aF274.3
aa(lp6
S'state'
p7
aI400
aatp8
Rp9
.ccollections
OrderedDict
p0
((lp1
(lp2
S'timestamp'
p3
aF2.564425230026245
aa(lp4
S'distance'
p5
aF274.3
aa(lp6
S'state'
p7
aI400
aatp8
Rp9
.ccollections
OrderedDict
p0
((lp1
(lp2
S'timestamp'
p3
aF2.5648481845855713
aa(lp4
S'distance'
p5
aF274.3
aa(lp6
S'state'
p7
aI400
aatp8
Rp9
.ccollections
OrderedDict
p0
((lp1
(lp2
S'timestamp'
p3
aF2.574414014816284
aa(lp4
S'distance'
p5
aF274.3
aa(lp6
S'state'
p7
aI400
aatp8
Rp9
.ccollections
OrderedDict
p0
((lp1
(lp2
S'timestamp'
p3
aF2.5748281478881836
aa(lp4
S'distance'
p5
aF274.3
aa(lp6
S'state'
p7
aI400
aatp8
Rp9
.ccollections
OrderedDict
p0
((lp1
(lp2
S'timestamp'
p3
aF2.584351062774658
aa(lp4
S'distance'
p5
aF274.3
aa(lp6
S'state'
p7
aI400
aatp8
Rp9
.ccollections
OrderedDict
p0
((lp1
(lp2
S'timestamp'
p3
aF2.5848660469055176
aa(lp4
S'distance'
p5
aF274.3
aa(lp6
S'state'
p7
aI400
aatp8
Rp9
.ccollections
OrderedDict
p0
((lp1
(lp2
S'timestamp'
p3
aF2.5944411754608154
aa(lp4
S'distance'
p5
aF274.3
aa(lp6
S'state'
p7
aI400
aatp8
Rp9
.ccollections
OrderedDict
p0
((lp1
(lp2
S'timestamp'
p3
aF2.594748020172119
aa(lp4
S'distance'
p5
aF274.3
aa(lp6
S'state'
p7
aI400
aatp8
Rp9
.ccollections
OrderedDict
p0
((lp1
(lp2
S'timestamp'
p3
aF2.6042160987854004
aa(lp4
S'distance'
p5
aF274.3
aa(lp6
S'state'
p7
aI400
aatp8
Rp9
.ccollections
OrderedDict
p0
((lp1
(lp2
S'timestamp'
p3
aF2.6050291061401367
aa(lp4
S'distance'
p5
aF274.3
aa(lp6
S'state'
p7
aI400
aatp8
Rp9
.ccollections
OrderedDict
p0
((lp1
(lp2
S'timestamp'
p3
aF2.6144142150878906
aa(lp4
S'distance'
p5
aF274.3
aa(lp6
S'state'
p7
aI400
aatp8
Rp9
.ccollections
OrderedDict
p0
((lp1
(lp2
S'timestamp'
p3
aF2.6147470474243164
aa(lp4
S'distance'
p5
aF274.3
aa(lp6
S'state'
p7
aI400
aatp8
Rp9
.ccollections
OrderedDict
p0
((lp1
(lp2
S'timestamp'
p3
aF2.6243460178375244
aa(lp4
S'distance'
p5
aF274.3
aa(lp6
S'state'
p7
aI400
aatp8
Rp9
.ccollections
OrderedDict
p0
((lp1
(lp2
S'timestamp'
p3
aF2.624803066253662
aa(lp4
S'distance'
p5
aF274.3
aa(lp6
S'state'
p7
aI400
aatp8
Rp9
.ccollections
OrderedDict
p0
((lp1
(lp2
S'timestamp'
p3
aF2.6343801021575928
aa(lp4
S'distance'
p5
aF274.3
aa(lp6
S'state'
p7
aI400
aatp8
Rp9
.ccollections
OrderedDict
p0
((lp1
(lp2
S'timestamp'
p3
aF2.6348211765289307
aa(lp4
S'distance'
p5
aF274.3
aa(lp6
S'state'
p7
aI400
aatp8
Rp9
.ccollections
OrderedDict
p0
((lp1
(lp2
S'timestamp'
p3
aF2.644146203994751
aa(lp4
S'distance'
p5
aF274.3
aa(lp6
S'state'
p7
aI400
aatp8
Rp9
.ccollections
OrderedDict
p0
((lp1
(lp2
S'timestamp'
p3
aF2.6448330879211426
aa(lp4
S'distance'
p5
aF274.3
aa(lp6
S'state'
p7
aI400
aatp8
Rp9
.ccollections
OrderedDict
p0
((lp1
(lp2
S'timestamp'
p3
aF2.654304027557373
aa(lp4
S'distance'
p5
aF274.3
aa(lp6
S'state'
p7
aI400
aatp8
Rp9
.ccollections
OrderedDict
p0
((lp1
(lp2
S'timestamp'
p3
aF2.654832124710083
aa(lp4
S'distance'
p5
aF274.3
aa(lp6
S'state'
p7
aI400
aatp8
Rp9
.ccollections
OrderedDict
p0
((lp1
(lp2
S'timestamp'
p3
aF2.664309024810791
aa(lp4
S'distance'
p5
aF274.3
aa(lp6
S'state'
p7
aI400
aatp8
Rp9
.ccollections
OrderedDict
p0
((lp1
(lp2
S'timestamp'
p3
aF2.664764165878296
aa(lp4
S'distance'
p5
aF274.3
aa(lp6
S'state'
p7
aI400
aatp8
Rp9
.ccollections
OrderedDict
p0
((lp1
(lp2
S'timestamp'
p3
aF2.6743180751800537
aa(lp4
S'distance'
p5
aF274.3
aa(lp6
S'state'
p7
aI400
aatp8
Rp9
.ccollections
OrderedDict
p0
((lp1
(lp2
S'timestamp'
p3
aF2.6748502254486084
aa(lp4
S'distance'
p5
aF274.3
aa(lp6
S'state'
p7
aI400
aatp8
Rp9
.ccollections
OrderedDict
p0
((lp1
(lp2
S'timestamp'
p3
aF2.6846210956573486
aa(lp4
S'distance'
p5
aF274.3
aa(lp6
S'state'
p7
aI400
aatp8
Rp9
.ccollections
OrderedDict
p0
((lp1
(lp2
S'timestamp'
p3
aF2.6851470470428467
aa(lp4
S'distance'
p5
aF274.3
aa(lp6
S'state'
p7
aI400
aatp8
Rp9
.ccollections
OrderedDict
p0
((lp1
(lp2
S'timestamp'
p3
aF2.6942741870880127
aa(lp4
S'distance'
p5
aF274.3
aa(lp6
S'state'
p7
aI400
aatp8
Rp9
.ccollections
OrderedDict
p0
((lp1
(lp2
S'timestamp'
p3
aF2.6947410106658936
aa(lp4
S'distance'
p5
aF274.3
aa(lp6
S'state'
p7
aI400
aatp8
Rp9
.ccollections
OrderedDict
p0
((lp1
(lp2
S'timestamp'
p3
aF2.704376220703125
aa(lp4
S'distance'
p5
aF274.3
aa(lp6
S'state'
p7
aI400
aatp8
Rp9
.ccollections
OrderedDict
p0
((lp1
(lp2
S'timestamp'
p3
aF2.7045462131500244
aa(lp4
S'distance'
p5
aF274.3
aa(lp6
S'state'
p7
aI400
aatp8
Rp9
.ccollections
OrderedDict
p0
((lp1
(lp2
S'timestamp'
p3
aF2.7158641815185547
aa(lp4
S'distance'
p5
aF274.3
aa(lp6
S'state'
p7
aI400
aatp8
Rp9
.ccollections
OrderedDict
p0
((lp1
(lp2
S'timestamp'
p3
aF2.717555046081543
aa(lp4
S'distance'
p5
aF274.3
aa(lp6
S'state'
p7
aI400
aatp8
Rp9
.ccollections
OrderedDict
p0
((lp1
(lp2
S'timestamp'
p3
aF2.7243762016296387
aa(lp4
S'distance'
p5
aF274.3
aa(lp6
S'state'
p7
aI400
aatp8
Rp9
.ccollections
OrderedDict
p0
((lp1
(lp2
S'timestamp'
p3
aF2.7246181964874268
aa(lp4
S'distance'
p5
aF274.3
aa(lp6
S'state'
p7
aI400
aatp8
Rp9
.ccollections
OrderedDict
p0
((lp1
(lp2
S'timestamp'
p3
aF2.733978033065796
aa(lp4
S'distance'
p5
aF274.3
aa(lp6
S'state'
p7
aI400
aatp8
Rp9
.ccollections
OrderedDict
p0
((lp1
(lp2
S'timestamp'
p3
aF2.7349061965942383
aa(lp4
S'distance'
p5
aF274.3
aa(lp6
S'state'
p7
aI400
aatp8
Rp9
.ccollections
OrderedDict
p0
((lp1
(lp2
S'timestamp'
p3
aF2.744225025177002
aa(lp4
S'distance'
p5
aF274.3
aa(lp6
S'state'
p7
aI400
aatp8
Rp9
.ccollections
OrderedDict
p0
((lp1
(lp2
S'timestamp'
p3
aF2.744749069213867
aa(lp4
S'distance'
p5
aF274.3
aa(lp6
S'state'
p7
aI400
aatp8
Rp9
.ccollections
OrderedDict
p0
((lp1
(lp2
S'timestamp'
p3
aF2.754225015640259
aa(lp4
S'distance'
p5
aF274.3
aa(lp6
S'state'
p7
aI400
aatp8
Rp9
.ccollections
OrderedDict
p0
((lp1
(lp2
S'timestamp'
p3
aF2.7547061443328857
aa(lp4
S'distance'
p5
aF274.3
aa(lp6
S'state'
p7
aI400
aatp8
Rp9
.ccollections
OrderedDict
p0
((lp1
(lp2
S'timestamp'
p3
aF2.7641642093658447
aa(lp4
S'distance'
p5
aF274.3
aa(lp6
S'state'
p7
aI400
aatp8
Rp9
.ccollections
OrderedDict
p0
((lp1
(lp2
S'timestamp'
p3
aF2.7646231651306152
aa(lp4
S'distance'
p5
aF274.3
aa(lp6
S'state'
p7
aI400
aatp8
Rp9
.ccollections
OrderedDict
p0
((lp1
(lp2
S'timestamp'
p3
aF2.7742512226104736
aa(lp4
S'distance'
p5
aF274.3
aa(lp6
S'state'
p7
aI400
aatp8
Rp9
.ccollections
OrderedDict
p0
((lp1
(lp2
S'timestamp'
p3
aF2.7747862339019775
aa(lp4
S'distance'
p5
aF274.3
aa(lp6
S'state'
p7
aI400
aatp8
Rp9
.ccollections
OrderedDict
p0
((lp1
(lp2
S'timestamp'
p3
aF2.784119129180908
aa(lp4
S'distance'
p5
aF274.3
aa(lp6
S'state'
p7
aI400
aatp8
Rp9
.ccollections
OrderedDict
p0
((lp1
(lp2
S'timestamp'
p3
aF2.7847490310668945
aa(lp4
S'distance'
p5
aF274.3
aa(lp6
S'state'
p7
aI400
aatp8
Rp9
.ccollections
OrderedDict
p0
((lp1
(lp2
S'timestamp'
p3
aF2.794337034225464
aa(lp4
S'distance'
p5
aF274.3
aa(lp6
S'state'
p7
aI400
aatp8
Rp9
.ccollections
OrderedDict
p0
((lp1
(lp2
S'timestamp'
p3
aF2.7945141792297363
aa(lp4
S'distance'
p5
aF274.3
aa(lp6
S'state'
p7
aI400
aatp8
Rp9
.ccollections
OrderedDict
p0
((lp1
(lp2
S'timestamp'
p3
aF2.8040831089019775
aa(lp4
S'distance'
p5
aF274.3
aa(lp6
S'state'
p7
aI400
aatp8
Rp9
.ccollections
OrderedDict
p0
((lp1
(lp2
S'timestamp'
p3
aF2.804612159729004
aa(lp4
S'distance'
p5
aF274.3
aa(lp6
S'state'
p7
aI400
aatp8
Rp9
.ccollections
OrderedDict
p0
((lp1
(lp2
S'timestamp'
p3
aF2.8141121864318848
aa(lp4
S'distance'
p5
aF274.3
aa(lp6
S'state'
p7
aI400
aatp8
Rp9
.ccollections
OrderedDict
p0
((lp1
(lp2
S'timestamp'
p3
aF2.8146491050720215
aa(lp4
S'distance'
p5
aF274.3
aa(lp6
S'state'
p7
aI400
aatp8
Rp9
.ccollections
OrderedDict
p0
((lp1
(lp2
S'timestamp'
p3
aF2.8240931034088135
aa(lp4
S'distance'
p5
aF274.3
aa(lp6
S'state'
p7
aI400
aatp8
Rp9
.ccollections
OrderedDict
p0
((lp1
(lp2
S'timestamp'
p3
aF2.824583053588867
aa(lp4
S'distance'
p5
aF274.3
aa(lp6
S'state'
p7
aI400
aatp8
Rp9
.ccollections
OrderedDict
p0
((lp1
(lp2
S'timestamp'
p3
aF2.8341190814971924
aa(lp4
S'distance'
p5
aF274.3
aa(lp6
S'state'
p7
aI0
aatp8
Rp9
.ccollections
OrderedDict
p0
((lp1
(lp2
S'timestamp'
p3
aF3.395832061767578
aa(lp4
S'distance'
p5
aF153.2
aa(lp6
S'state'
p7
aI0
aatp8
Rp9
.ccollections
OrderedDict
p0
((lp1
(lp2
S'timestamp'
p3
aF3.4036130905151367
aa(lp4
S'distance'
p5
aF153.2
aa(lp6
S'state'
p7
aI0
aatp8
Rp9
.ccollections
OrderedDict
p0
((lp1
(lp2
S'timestamp'
p3
aF3.404320001602173
aa(lp4
S'distance'
p5
aF153.2
aa(lp6
S'state'
p7
aI0
aatp8
Rp9
.ccollections
OrderedDict
p0
((lp1
(lp2
S'timestamp'
p3
aF3.4136111736297607
aa(lp4
S'distance'
p5
aF153.2
aa(lp6
S'state'
p7
aI0
aatp8
Rp9
.ccollections
OrderedDict
p0
((lp1
(lp2
S'timestamp'
p3
aF3.414123058319092
aa(lp4
S'distance'
p5
aF153.2
aa(lp6
S'state'
p7
aI0
aatp8
Rp9
.ccollections
OrderedDict
p0
((lp1
(lp2
S'timestamp'
p3
aF3.4237241744995117
aa(lp4
S'distance'
p5
aF153.2
aa(lp6
S'state'
p7
aI0
aatp8
Rp9
.ccollections
OrderedDict
p0
((lp1
(lp2
S'timestamp'
p3
aF3.4243111610412598
aa(lp4
S'distance'
p5
aF153.2
aa(lp6
S'state'
p7
aI0
aatp8
Rp9
.ccollections
OrderedDict
p0
((lp1
(lp2
S'timestamp'
p3
aF3.4335570335388184
aa(lp4
S'distance'
p5
aF153.2
aa(lp6
S'state'
p7
aI0
aatp8
Rp9
.ccollections
OrderedDict
p0
((lp1
(lp2
S'timestamp'
p3
aF3.434019088745117
aa(lp4
S'distance'
p5
aF153.2
aa(lp6
S'state'
p7
aI0
aatp8
Rp9
.ccollections
OrderedDict
p0
((lp1
(lp2
S'timestamp'
p3
aF3.443603038787842
aa(lp4
S'distance'
p5
aF153.2
aa(lp6
S'state'
p7
aI0
aatp8
Rp9
.ccollections
OrderedDict
p0
((lp1
(lp2
S'timestamp'
p3
aF3.4440340995788574
aa(lp4
S'distance'
p5
aF153.2
aa(lp6
S'state'
p7
aI0
aatp8
Rp9
.ccollections
OrderedDict
p0
((lp1
(lp2
S'timestamp'
p3
aF3.453571081161499
aa(lp4
S'distance'
p5
aF153.2
aa(lp6
S'state'
p7
aI0
aatp8
Rp9
.ccollections
OrderedDict
p0
((lp1
(lp2
S'timestamp'
p3
aF3.4541091918945312
aa(lp4
S'distance'
p5
aF153.2
aa(lp6
S'state'
p7
aI0
aatp8
Rp9
.ccollections
OrderedDict
p0
((lp1
(lp2
S'timestamp'
p3
aF3.4633841514587402
aa(lp4
S'distance'
p5
aF153.2
aa(lp6
S'state'
p7
aI0
aatp8
Rp9
.ccollections
OrderedDict
p0
((lp1
(lp2
S'timestamp'
p3
aF3.4642341136932373
aa(lp4
S'distance'
p5
aF153.2
aa(lp6
S'state'
p7
aI0
aatp8
Rp9
.ccollections
OrderedDict
p0
((lp1
(lp2
S'timestamp'
p3
aF3.4735281467437744
aa(lp4
S'distance'
p5
aF153.2
aa(lp6
S'state'
p7
aI0
aatp8
Rp9
.ccollections
OrderedDict
p0
((lp1
(lp2
S'timestamp'
p3
aF3.4740381240844727
aa(lp4
S'distance'
p5
aF153.2
aa(lp6
S'state'
p7
aI0
aatp8
Rp9
.ccollections
OrderedDict
p0
((lp1
(lp2
S'timestamp'
p3
aF3.4833831787109375
aa(lp4
S'distance'
p5
aF153.2
aa(lp6
S'state'
p7
aI0
aatp8
Rp9
.ccollections
OrderedDict
p0
((lp1
(lp2
S'timestamp'
p3
aF3.4839000701904297
aa(lp4
S'distance'
p5
aF153.2
aa(lp6
S'state'
p7
aI0
aatp8
Rp9
.ccollections
OrderedDict
p0
((lp1
(lp2
S'timestamp'
p3
aF3.49369215965271
aa(lp4
S'distance'
p5
aF153.2
aa(lp6
S'state'
p7
aI0
aatp8
Rp9
.ccollections
OrderedDict
p0
((lp1
(lp2
S'timestamp'
p3
aF3.4939091205596924
aa(lp4
S'distance'
p5
aF153.2
aa(lp6
S'state'
p7
aI0
aatp8
Rp9
.ccollections
OrderedDict
p0
((lp1
(lp2
S'timestamp'
p3
aF3.503430128097534
aa(lp4
S'distance'
p5
aF153.2
aa(lp6
S'state'
p7
aI0
aatp8
Rp9
.ccollections
OrderedDict
p0
((lp1
(lp2
S'timestamp'
p3
aF3.5040841102600098
aa(lp4
S'distance'
p5
aF153.2
aa(lp6
S'state'
p7
aI400
aatp8
Rp9
.ccollections
OrderedDict
p0
((lp1
(lp2
S'timestamp'
p3
aF3.513446092605591
aa(lp4
S'distance'
p5
aF153.2
aa(lp6
S'state'
p7
aI400
aatp8
Rp9
.ccollections
OrderedDict
p0
((lp1
(lp2
S'timestamp'
p3
aF3.5139591693878174
aa(lp4
S'distance'
p5
aF153.2
aa(lp6
S'state'
p7
aI400
aatp8
Rp9
.ccollections
OrderedDict
p0
((lp1
(lp2
S'timestamp'
p3
aF3.523466110229492
aa(lp4
S'distance'
p5
aF153.2
aa(lp6
S'state'
p7
aI400
aatp8
Rp9
.ccollections
OrderedDict
p0
((lp1
(lp2
S'timestamp'
p3
aF3.524062156677246
aa(lp4
S'distance'
p5
aF153.2
aa(lp6
S'state'
p7
aI400
aatp8
Rp9
.ccollections
OrderedDict
p0
((lp1
(lp2
S'timestamp'
p3
aF3.53540301322937
aa(lp4
S'distance'
p5
aF153.2
aa(lp6
S'state'
p7
aI400
aatp8
Rp9
.ccollections
OrderedDict
p0
((lp1
(lp2
S'timestamp'
p3
aF3.5376322269439697
aa(lp4
S'distance'
p5
aF153.2
aa(lp6
S'state'
p7
aI400
aatp8
Rp9
.ccollections
OrderedDict
p0
((lp1
(lp2
S'timestamp'
p3
aF3.5444741249084473
aa(lp4
S'distance'
p5
aF153.2
aa(lp6
S'state'
p7
aI400
aatp8
Rp9
.ccollections
OrderedDict
p0
((lp1
(lp2
S'timestamp'
p3
aF3.54603910446167
aa(lp4
S'distance'
p5
aF153.2
aa(lp6
S'state'
p7
aI400
aatp8
Rp9
.ccollections
OrderedDict
p0
((lp1
(lp2
S'timestamp'
p3
aF3.553821086883545
aa(lp4
S'distance'
p5
aF153.2
aa(lp6
S'state'
p7
aI400
aatp8
Rp9
.ccollections
OrderedDict
p0
((lp1
(lp2
S'timestamp'
p3
aF3.554518222808838
aa(lp4
S'distance'
p5
aF153.2
aa(lp6
S'state'
p7
aI400
aatp8
Rp9
.ccollections
OrderedDict
p0
((lp1
(lp2
S'timestamp'
p3
aF3.5633771419525146
aa(lp4
S'distance'
p5
aF153.2
aa(lp6
S'state'
p7
aI400
aatp8
Rp9
.ccollections
OrderedDict
p0
((lp1
(lp2
S'timestamp'
p3
aF3.5638391971588135
aa(lp4
S'distance'
p5
aF153.2
aa(lp6
S'state'
p7
aI400
aatp8
Rp9
.ccollections
OrderedDict
p0
((lp1
(lp2
S'timestamp'
p3
aF3.573418140411377
aa(lp4
S'distance'
p5
aF153.2
aa(lp6
S'state'
p7
aI400
aatp8
Rp9
.ccollections
OrderedDict
p0
((lp1
(lp2
S'timestamp'
p3
aF3.573869228363037
aa(lp4
S'distance'
p5
aF153.2
aa(lp6
S'state'
p7
aI400
aatp8
Rp9
.ccollections
OrderedDict
p0
((lp1
(lp2
S'timestamp'
p3
aF3.5832700729370117
aa(lp4
S'distance'
p5
aF153.2
aa(lp6
S'state'
p7
aI400
aatp8
Rp9
.ccollections
OrderedDict
p0
((lp1
(lp2
S'timestamp'
p3
aF3.5839531421661377
aa(lp4
S'distance'
p5
aF153.2
aa(lp6
S'state'
p7
aI400
aatp8
Rp9
.ccollections
OrderedDict
p0
((lp1
(lp2
S'timestamp'
p3
aF3.593548059463501
aa(lp4
S'distance'
p5
aF153.2
aa(lp6
S'state'
p7
aI400
aatp8
Rp9
.ccollections
OrderedDict
p0
((lp1
(lp2
S'timestamp'
p3
aF3.5937180519104004
aa(lp4
S'distance'
p5
aF153.2
aa(lp6
S'state'
p7
aI400
aatp8
Rp9
.ccollections
OrderedDict
p0
((lp1
(lp2
S'timestamp'
p3
aF3.603445053100586
aa(lp4
S'distance'
p5
aF153.2
aa(lp6
S'state'
p7
aI400
aatp8
Rp9
.ccollections
OrderedDict
p0
((lp1
(lp2
S'timestamp'
p3
aF3.603839159011841
aa(lp4
S'distance'
p5
aF153.2
aa(lp6
S'state'
p7
aI400
aatp8
Rp9
.ccollections
OrderedDict
p0
((lp1
(lp2
S'timestamp'
p3
aF3.614204168319702
aa(lp4
S'distance'
p5
aF153.2
aa(lp6
S'state'
p7
aI400
aatp8
Rp9
.ccollections
OrderedDict
p0
((lp1
(lp2
S'timestamp'
p3
aF3.614821195602417
aa(lp4
S'distance'
p5
aF153.2
aa(lp6
S'state'
p7
aI400
aatp8
Rp9
.ccollections
OrderedDict
p0
((lp1
(lp2
S'timestamp'
p3
aF3.623706102371216
aa(lp4
S'distance'
p5
aF153.2
aa(lp6
S'state'
p7
aI400
aatp8
Rp9
.ccollections
OrderedDict
p0
((lp1
(lp2
S'timestamp'
p3
aF3.62380313873291
aa(lp4
S'distance'
p5
aF153.2
aa(lp6
S'state'
p7
aI400
aatp8
Rp9
.ccollections
OrderedDict
p0
((lp1
(lp2
S'timestamp'
p3
aF3.633404016494751
aa(lp4
S'distance'
p5
aF153.2
aa(lp6
S'state'
p7
aI400
aatp8
Rp9
.ccollections
OrderedDict
p0
((lp1
(lp2
S'timestamp'
p3
aF3.634146213531494
aa(lp4
S'distance'
p5
aF153.2
aa(lp6
S'state'
p7
aI400
aatp8
Rp9
.ccollections
OrderedDict
p0
((lp1
(lp2
S'timestamp'
p3
aF3.643515110015869
aa(lp4
S'distance'
p5
aF153.2
aa(lp6
S'state'
p7
aI400
aatp8
Rp9
.ccollections
OrderedDict
p0
((lp1
(lp2
S'timestamp'
p3
aF3.6437721252441406
aa(lp4
S'distance'
p5
aF153.2
aa(lp6
S'state'
p7
aI400
aatp8
Rp9
.ccollections
OrderedDict
p0
((lp1
(lp2
S'timestamp'
p3
aF3.653388023376465
aa(lp4
S'distance'
p5
aF153.2
aa(lp6
S'state'
p7
aI400
aatp8
Rp9
.ccollections
OrderedDict
p0
((lp1
(lp2
S'timestamp'
p3
aF3.653799057006836
aa(lp4
S'distance'
p5
aF153.2
aa(lp6
S'state'
p7
aI400
aatp8
Rp9
.ccollections
OrderedDict
p0
((lp1
(lp2
S'timestamp'
p3
aF3.6631901264190674
aa(lp4
S'distance'
p5
aF153.2
aa(lp6
S'state'
p7
aI400
aatp8
Rp9
.ccollections
OrderedDict
p0
((lp1
(lp2
S'timestamp'
p3
aF3.663767099380493
aa(lp4
S'distance'
p5
aF153.2
aa(lp6
S'state'
p7
aI400
aatp8
Rp9
.ccollections
OrderedDict
p0
((lp1
(lp2
S'timestamp'
p3
aF3.6731820106506348
aa(lp4
S'distance'
p5
aF153.2
aa(lp6
S'state'
p7
aI400
aatp8
Rp9
.ccollections
OrderedDict
p0
((lp1
(lp2
S'timestamp'
p3
aF3.6740241050720215
aa(lp4
S'distance'
p5
aF153.2
aa(lp6
S'state'
p7
aI400
aatp8
Rp9
.ccollections
OrderedDict
p0
((lp1
(lp2
S'timestamp'
p3
aF3.68398118019104
aa(lp4
S'distance'
p5
aF153.2
aa(lp6
S'state'
p7
aI400
aatp8
Rp9
.ccollections
OrderedDict
p0
((lp1
(lp2
S'timestamp'
p3
aF3.6840620040893555
aa(lp4
S'distance'
p5
aF153.2
aa(lp6
S'state'
p7
aI400
aatp8
Rp9
.ccollections
OrderedDict
p0
((lp1
(lp2
S'timestamp'
p3
aF3.693153142929077
aa(lp4
S'distance'
p5
aF153.2
aa(lp6
S'state'
p7
aI400
aatp8
Rp9
.ccollections
OrderedDict
p0
((lp1
(lp2
S'timestamp'
p3
aF3.6938090324401855
aa(lp4
S'distance'
p5
aF153.2
aa(lp6
S'state'
p7
aI400
aatp8
Rp9
.ccollections
OrderedDict
p0
((lp1
(lp2
S'timestamp'
p3
aF3.7031421661376953
aa(lp4
S'distance'
p5
aF153.2
aa(lp6
S'state'
p7
aI400
aatp8
Rp9
.ccollections
OrderedDict
p0
((lp1
(lp2
S'timestamp'
p3
aF3.70379900932312
aa(lp4
S'distance'
p5
aF153.2
aa(lp6
S'state'
p7
aI400
aatp8
Rp9
.ccollections
OrderedDict
p0
((lp1
(lp2
S'timestamp'
p3
aF3.713170051574707
aa(lp4
S'distance'
p5
aF153.2
aa(lp6
S'state'
p7
aI400
aatp8
Rp9
.ccollections
OrderedDict
p0
((lp1
(lp2
S'timestamp'
p3
aF3.7136871814727783
aa(lp4
S'distance'
p5
aF153.2
aa(lp6
S'state'
p7
aI400
aatp8
Rp9
.ccollections
OrderedDict
p0
((lp1
(lp2
S'timestamp'
p3
aF3.72326922416687
aa(lp4
S'distance'
p5
aF153.2
aa(lp6
S'state'
p7
aI400
aatp8
Rp9
.ccollections
OrderedDict
p0
((lp1
(lp2
S'timestamp'
p3
aF3.723724126815796
aa(lp4
S'distance'
p5
aF153.2
aa(lp6
S'state'
p7
aI400
aatp8
Rp9
.ccollections
OrderedDict
p0
((lp1
(lp2
S'timestamp'
p3
aF3.7332890033721924
aa(lp4
S'distance'
p5
aF153.2
aa(lp6
S'state'
p7
aI400
aatp8
Rp9
.ccollections
OrderedDict
p0
((lp1
(lp2
S'timestamp'
p3
aF3.7338130474090576
aa(lp4
S'distance'
p5
aF153.2
aa(lp6
S'state'
p7
aI400
aatp8
Rp9
.ccollections
OrderedDict
p0
((lp1
(lp2
S'timestamp'
p3
aF3.743230104446411
aa(lp4
S'distance'
p5
aF153.2
aa(lp6
S'state'
p7
aI400
aatp8
Rp9
.ccollections
OrderedDict
p0
((lp1
(lp2
S'timestamp'
p3
aF3.743687152862549
aa(lp4
S'distance'
p5
aF153.2
aa(lp6
S'state'
p7
aI400
aatp8
Rp9
.ccollections
OrderedDict
p0
((lp1
(lp2
S'timestamp'
p3
aF3.7533910274505615
aa(lp4
S'distance'
p5
aF153.2
aa(lp6
S'state'
p7
aI400
aatp8
Rp9
.ccollections
OrderedDict
p0
((lp1
(lp2
S'timestamp'
p3
aF3.7536380290985107
aa(lp4
S'distance'
p5
aF153.2
aa(lp6
S'state'
p7
aI400
aatp8
Rp9
.ccollections
OrderedDict
p0
((lp1
(lp2
S'timestamp'
p3
aF3.763519048690796
aa(lp4
S'distance'
p5
aF153.2
aa(lp6
S'state'
p7
aI400
aatp8
Rp9
.ccollections
OrderedDict
p0
((lp1
(lp2
S'timestamp'
p3
aF3.7636120319366455
aa(lp4
S'distance'
p5
aF153.2
aa(lp6
S'state'
p7
aI400
aatp8
Rp9
.ccollections
OrderedDict
p0
((lp1
(lp2
S'timestamp'
p3
aF3.773499011993408
aa(lp4
S'distance'
p5
aF153.2
aa(lp6
S'state'
p7
aI400
aatp8
Rp9
.ccollections
OrderedDict
p0
((lp1
(lp2
S'timestamp'
p3
aF3.773590087890625
aa(lp4
S'distance'
p5
aF153.2
aa(lp6
S'state'
p7
aI400
aatp8
Rp9
.ccollections
OrderedDict
p0
((lp1
(lp2
S'timestamp'
p3
aF3.7833540439605713
aa(lp4
S'distance'
p5
aF153.2
aa(lp6
S'state'
p7
aI400
aatp8
Rp9
.ccollections
OrderedDict
p0
((lp1
(lp2
S'timestamp'
p3
aF3.7835960388183594
aa(lp4
S'distance'
p5
aF153.2
aa(lp6
S'state'
p7
aI400
aatp8
Rp9
.ccollections
OrderedDict
p0
((lp1
(lp2
S'timestamp'
p3
aF3.7947890758514404
aa(lp4
S'distance'
p5
aF153.2
aa(lp6
S'state'
p7
aI400
aatp8
Rp9
.ccollections
OrderedDict
p0
((lp1
(lp2
S'timestamp'
p3
aF3.7968361377716064
aa(lp4
S'distance'
p5
aF153.2
aa(lp6
S'state'
p7
aI400
aatp8
Rp9
.ccollections
OrderedDict
p0
((lp1
(lp2
S'timestamp'
p3
aF3.803511142730713
aa(lp4
S'distance'
p5
aF153.2
aa(lp6
S'state'
p7
aI400
aatp8
Rp9
.ccollections
OrderedDict
p0
((lp1
(lp2
S'timestamp'
p3
aF3.8035972118377686
aa(lp4
S'distance'
p5
aF153.2
aa(lp6
S'state'
p7
aI400
aatp8
Rp9
.ccollections
OrderedDict
p0
((lp1
(lp2
S'timestamp'
p3
aF3.813324213027954
aa(lp4
S'distance'
p5
aF153.2
aa(lp6
S'state'
p7
aI400
aatp8
Rp9
.ccollections
OrderedDict
p0
((lp1
(lp2
S'timestamp'
p3
aF3.8135671615600586
aa(lp4
S'distance'
p5
aF153.2
aa(lp6
S'state'
p7
aI400
aatp8
Rp9
.ccollections
OrderedDict
p0
((lp1
(lp2
S'timestamp'
p3
aF3.8233611583709717
aa(lp4
S'distance'
p5
aF153.2
aa(lp6
S'state'
p7
aI400
aatp8
Rp9
.ccollections
OrderedDict
p0
((lp1
(lp2
S'timestamp'
p3
aF3.8234951496124268
aa(lp4
S'distance'
p5
aF153.2
aa(lp6
S'state'
p7
aI400
aatp8
Rp9
.ccollections
OrderedDict
p0
((lp1
(lp2
S'timestamp'
p3
aF3.8348541259765625
aa(lp4
S'distance'
p5
aF153.2
aa(lp6
S'state'
p7
aI400
aatp8
Rp9
.ccollections
OrderedDict
p0
((lp1
(lp2
S'timestamp'
p3
aF3.8374810218811035
aa(lp4
S'distance'
p5
aF153.2
aa(lp6
S'state'
p7
aI400
aatp8
Rp9
.ccollections
OrderedDict
p0
((lp1
(lp2
S'timestamp'
p3
aF3.843283176422119
aa(lp4
S'distance'
p5
aF153.2
aa(lp6
S'state'
p7
aI400
aatp8
Rp9
.ccollections
OrderedDict
p0
((lp1
(lp2
S'timestamp'
p3
aF3.8437511920928955
aa(lp4
S'distance'
p5
aF153.2
aa(lp6
S'state'
p7
aI400
aatp8
Rp9
.ccollections
OrderedDict
p0
((lp1
(lp2
S'timestamp'
p3
aF3.8532512187957764
aa(lp4
S'distance'
p5
aF153.2
aa(lp6
S'state'
p7
aI400
aatp8
Rp9
.ccollections
OrderedDict
p0
((lp1
(lp2
S'timestamp'
p3
aF3.8537161350250244
aa(lp4
S'distance'
p5
aF153.2
aa(lp6
S'state'
p7
aI400
aatp8
Rp9
.ccollections
OrderedDict
p0
((lp1
(lp2
S'timestamp'
p3
aF3.8631420135498047
aa(lp4
S'distance'
p5
aF153.2
aa(lp6
S'state'
p7
aI400
aatp8
Rp9
.ccollections
OrderedDict
p0
((lp1
(lp2
S'timestamp'
p3
aF3.8636391162872314
aa(lp4
S'distance'
p5
aF153.2
aa(lp6
S'state'
p7
aI400
aatp8
Rp9
.ccollections
OrderedDict
p0
((lp1
(lp2
S'timestamp'
p3
aF3.873115062713623
aa(lp4
S'distance'
p5
aF153.2
aa(lp6
S'state'
p7
aI400
aatp8
Rp9
.ccollections
OrderedDict
p0
((lp1
(lp2
S'timestamp'
p3
aF3.873660087585449
aa(lp4
S'distance'
p5
aF153.2
aa(lp6
S'state'
p7
aI400
aatp8
Rp9
.ccollections
OrderedDict
p0
((lp1
(lp2
S'timestamp'
p3
aF3.8831400871276855
aa(lp4
S'distance'
p5
aF153.2
aa(lp6
S'state'
p7
aI400
aatp8
Rp9
.ccollections
OrderedDict
p0
((lp1
(lp2
S'timestamp'
p3
aF3.883601188659668
aa(lp4
S'distance'
p5
aF153.2
aa(lp6
S'state'
p7
aI400
aatp8
Rp9
.ccollections
OrderedDict
p0
((lp1
(lp2
S'timestamp'
p3
aF3.893132209777832
aa(lp4
S'distance'
p5
aF153.2
aa(lp6
S'state'
p7
aI400
aatp8
Rp9
.ccollections
OrderedDict
p0
((lp1
(lp2
S'timestamp'
p3
aF3.8935790061950684
aa(lp4
S'distance'
p5
aF153.2
aa(lp6
S'state'
p7
aI400
aatp8
Rp9
.ccollections
OrderedDict
p0
((lp1
(lp2
S'timestamp'
p3
aF3.903278112411499
aa(lp4
S'distance'
p5
aF153.2
aa(lp6
S'state'
p7
aI400
aatp8
Rp9
.ccollections
OrderedDict
p0
((lp1
(lp2
S'timestamp'
p3
aF3.9034111499786377
aa(lp4
S'distance'
p5
aF153.2
aa(lp6
S'state'
p7
aI400
aatp8
Rp9
.ccollections
OrderedDict
p0
((lp1
(lp2
S'timestamp'
p3
aF3.9131510257720947
aa(lp4
S'distance'
p5
aF153.2
aa(lp6
S'state'
p7
aI400
aatp8
Rp9
.ccollections
OrderedDict
p0
((lp1
(lp2
S'timestamp'
p3
aF3.913518190383911
aa(lp4
S'distance'
p5
aF153.2
aa(lp6
S'state'
p7
aI400
aatp8
Rp9
.ccollections
OrderedDict
p0
((lp1
(lp2
S'timestamp'
p3
aF3.9230082035064697
aa(lp4
S'distance'
p5
aF153.2
aa(lp6
S'state'
p7
aI400
aatp8
Rp9
.ccollections
OrderedDict
p0
((lp1
(lp2
S'timestamp'
p3
aF3.9234421253204346
aa(lp4
S'distance'
p5
aF153.2
aa(lp6
S'state'
p7
aI400
aatp8
Rp9
.ccollections
OrderedDict
p0
((lp1
(lp2
S'timestamp'
p3
aF3.932943105697632
aa(lp4
S'distance'
p5
aF153.2
aa(lp6
S'state'
p7
aI400
aatp8
Rp9
.ccollections
OrderedDict
p0
((lp1
(lp2
S'timestamp'
p3
aF3.933688163757324
aa(lp4
S'distance'
p5
aF153.2
aa(lp6
S'state'
p7
aI400
aatp8
Rp9
.ccollections
OrderedDict
p0
((lp1
(lp2
S'timestamp'
p3
aF3.942838191986084
aa(lp4
S'distance'
p5
aF153.2
aa(lp6
S'state'
p7
aI400
aatp8
Rp9
.ccollections
OrderedDict
p0
((lp1
(lp2
S'timestamp'
p3
aF3.9435131549835205
aa(lp4
S'distance'
p5
aF153.2
aa(lp6
S'state'
p7
aI400
aatp8
Rp9
.ccollections
OrderedDict
p0
((lp1
(lp2
S'timestamp'
p3
aF3.953078031539917
aa(lp4
S'distance'
p5
aF153.2
aa(lp6
S'state'
p7
aI400
aatp8
Rp9
.ccollections
OrderedDict
p0
((lp1
(lp2
S'timestamp'
p3
aF3.9535000324249268
aa(lp4
S'distance'
p5
aF153.2
aa(lp6
S'state'
p7
aI400
aatp8
Rp9
.ccollections
OrderedDict
p0
((lp1
(lp2
S'timestamp'
p3
aF3.9643361568450928
aa(lp4
S'distance'
p5
aF153.2
aa(lp6
S'state'
p7
aI400
aatp8
Rp9
.ccollections
OrderedDict
p0
((lp1
(lp2
S'timestamp'
p3
aF3.9646592140197754
aa(lp4
S'distance'
p5
aF153.2
aa(lp6
S'state'
p7
aI400
aatp8
Rp9
.ccollections
OrderedDict
p0
((lp1
(lp2
S'timestamp'
p3
aF3.9730072021484375
aa(lp4
S'distance'
p5
aF153.2
aa(lp6
S'state'
p7
aI0
aatp8
Rp9
.ccollections
OrderedDict
p0
((lp1
(lp2
S'timestamp'
p3
aF4.536389112472534
aa(lp4
S'distance'
p5
aF39.905014991760254
aa(lp6
S'state'
p7
aI0
aatp8
Rp9
.ccollections
OrderedDict
p0
((lp1
(lp2
S'timestamp'
p3
aF4.542583227157593
aa(lp4
S'distance'
p5
aF39.905014991760254
aa(lp6
S'state'
p7
aI0
aatp8
Rp9
.ccollections
OrderedDict
p0
((lp1
(lp2
S'timestamp'
p3
aF4.542745113372803
aa(lp4
S'distance'
p5
aF39.905014991760254
aa(lp6
S'state'
p7
aI0
aatp8
Rp9
.ccollections
OrderedDict
p0
((lp1
(lp2
S'timestamp'
p3
aF4.552650213241577
aa(lp4
S'distance'
p5
aF39.905014991760254
aa(lp6
S'state'
p7
aI0
aatp8
Rp9
.ccollections
OrderedDict
p0
((lp1
(lp2
S'timestamp'
p3
aF4.552792072296143
aa(lp4
S'distance'
p5
aF39.905014991760254
aa(lp6
S'state'
p7
aI0
aatp8
Rp9
.ccollections
OrderedDict
p0
((lp1
(lp2
S'timestamp'
p3
aF4.5627241134643555
aa(lp4
S'distance'
p5
aF39.905014991760254
aa(lp6
S'state'
p7
aI0
aatp8
Rp9
.ccollections
OrderedDict
p0
((lp1
(lp2
S'timestamp'
p3
aF4.5627992153167725
aa(lp4
S'distance'
p5
aF39.905014991760254
aa(lp6
S'state'
p7
aI0
aatp8
Rp9
.ccollections
OrderedDict
p0
((lp1
(lp2
S'timestamp'
p3
aF4.572320222854614
aa(lp4
S'distance'
p5
aF39.905014991760254
aa(lp6
S'state'
p7
aI0
aatp8
Rp9
.ccollections
OrderedDict
p0
((lp1
(lp2
S'timestamp'
p3
aF4.572912216186523
aa(lp4
S'distance'
p5
aF39.905014991760254
aa(lp6
S'state'
p7
aI0
aatp8
Rp9
.ccollections
OrderedDict
p0
((lp1
(lp2
S'timestamp'
p3
aF4.582394123077393
aa(lp4
S'distance'
p5
aF39.905014991760254
aa(lp6
S'state'
p7
aI0
aatp8
Rp9
.ccollections
OrderedDict
p0
((lp1
(lp2
S'timestamp'
p3
aF4.582876205444336
aa(lp4
S'distance'
p5
aF39.905014991760254
aa(lp6
S'state'
p7
aI0
aatp8
Rp9
.ccollections
OrderedDict
p0
((lp1
(lp2
S'timestamp'
p3
aF4.592404127120972
aa(lp4
S'distance'
p5
aF39.905014991760254
aa(lp6
S'state'
p7
aI0
aatp8
Rp9
.ccollections
OrderedDict
p0
((lp1
(lp2
S'timestamp'
p3
aF4.592783212661743
aa(lp4
S'distance'
p5
aF39.905014991760254
aa(lp6
S'state'
p7
aI0
aatp8
Rp9
.ccollections
OrderedDict
p0
((lp1
(lp2
S'timestamp'
p3
aF4.6025230884552
aa(lp4
S'distance'
p5
aF39.905014991760254
aa(lp6
S'state'
p7
aI0
aatp8
Rp9
.ccollections
OrderedDict
p0
((lp1
(lp2
S'timestamp'
p3
aF4.6026740074157715
aa(lp4
S'distance'
p5
aF39.905014991760254
aa(lp6
S'state'
p7
aI0
aatp8
Rp9
.ccollections
OrderedDict
p0
((lp1
(lp2
S'timestamp'
p3
aF4.6126320362091064
aa(lp4
S'distance'
p5
aF39.905014991760254
aa(lp6
S'state'
p7
aI0
aatp8
Rp9
.ccollections
OrderedDict
p0
((lp1
(lp2
S'timestamp'
p3
aF4.612706184387207
aa(lp4
S'distance'
p5
aF39.905014991760254
aa(lp6
S'state'
p7
aI0
aatp8
Rp9
.ccollections
OrderedDict
p0
((lp1
(lp2
S'timestamp'
p3
aF4.6222522258758545
aa(lp4
S'distance'
p5
aF39.905014991760254
aa(lp6
S'state'
p7
aI0
aatp8
Rp9
.ccollections
OrderedDict
p0
((lp1
(lp2
S'timestamp'
p3
aF4.622683048248291
aa(lp4
S'distance'
p5
aF39.905014991760254
aa(lp6
S'state'
p7
aI0
aatp8
Rp9
.ccollections
OrderedDict
p0
((lp1
(lp2
S'timestamp'
p3
aF4.632464170455933
aa(lp4
S'distance'
p5
aF39.905014991760254
aa(lp6
S'state'
p7
aI0
aatp8
Rp9
.ccollections
OrderedDict
p0
((lp1
(lp2
S'timestamp'
p3
aF4.632737159729004
aa(lp4
S'distance'
p5
aF39.905014991760254
aa(lp6
S'state'
p7
aI0
aatp8
Rp9
.ccollections
OrderedDict
p0
((lp1
(lp2
S'timestamp'
p3
aF4.642385005950928
aa(lp4
S'distance'
p5
aF39.905014991760254
aa(lp6
S'state'
p7
aI0
aatp8
Rp9
.ccollections
OrderedDict
p0
((lp1
(lp2
S'timestamp'
p3
aF4.642813205718994
aa(lp4
S'distance'
p5
aF39.905014991760254
aa(lp6
S'state'
p7
aI0
aatp8
Rp9
.ccollections
OrderedDict
p0
((lp1
(lp2
S'timestamp'
p3
aF4.652207136154175
aa(lp4
S'distance'
p5
aF39.905014991760254
aa(lp6
S'state'
p7
aI0
aatp8
Rp9
.ccollections
OrderedDict
p0
((lp1
(lp2
S'timestamp'
p3
aF4.652782201766968
aa(lp4
S'distance'
p5
aF39.905014991760254
aa(lp6
S'state'
p7
aI0
aatp8
Rp9
.ccollections
OrderedDict
p0
((lp1
(lp2
S'timestamp'
p3
aF4.662560224533081
aa(lp4
S'distance'
p5
aF39.905014991760254
aa(lp6
S'state'
p7
aI0
aatp8
Rp9
.ccollections
OrderedDict
p0
((lp1
(lp2
S'timestamp'
p3
aF4.662926197052002
aa(lp4
S'distance'
p5
aF39.905014991760254
aa(lp6
S'state'
p7
aI0
aatp8
Rp9
.ccollections
OrderedDict
p0
((lp1
(lp2
S'timestamp'
p3
aF4.6732871532440186
aa(lp4
S'distance'
p5
aF39.905014991760254
aa(lp6
S'state'
p7
aI0
aatp8
Rp9
.ccollections
OrderedDict
p0
((lp1
(lp2
S'timestamp'
p3
aF4.674194097518921
aa(lp4
S'distance'
p5
aF39.905014991760254
aa(lp6
S'state'
p7
aI0
aatp8
Rp9
.ccollections
OrderedDict
p0
((lp1
(lp2
S'timestamp'
p3
aF4.682331085205078
aa(lp4
S'distance'
p5
aF39.905014991760254
aa(lp6
S'state'
p7
aI0
aatp8
Rp9
.ccollections
OrderedDict
p0
((lp1
(lp2
S'timestamp'
p3
aF4.682796001434326
aa(lp4
S'distance'
p5
aF39.905014991760254
aa(lp6
S'state'
p7
aI0
aatp8
Rp9
.ccollections
OrderedDict
p0
((lp1
(lp2
S'timestamp'
p3
aF4.692338228225708
aa(lp4
S'distance'
p5
aF39.905014991760254
aa(lp6
S'state'
p7
aI0
aatp8
Rp9
.ccollections
OrderedDict
p0
((lp1
(lp2
S'timestamp'
p3
aF4.692788124084473
aa(lp4
S'distance'
p5
aF39.905014991760254
aa(lp6
S'state'
p7
aI0
aatp8
Rp9
.ccollections
OrderedDict
p0
((lp1
(lp2
S'timestamp'
p3
aF4.702266216278076
aa(lp4
S'distance'
p5
aF39.905014991760254
aa(lp6
S'state'
p7
aI0
aatp8
Rp9
.ccollections
OrderedDict
p0
((lp1
(lp2
S'timestamp'
p3
aF4.702735185623169
aa(lp4
S'distance'
p5
aF39.905014991760254
aa(lp6
S'state'
p7
aI0
aatp8
Rp9
.ccollections
OrderedDict
p0
((lp1
(lp2
S'timestamp'
p3
aF4.713186025619507
aa(lp4
S'distance'
p5
aF39.905014991760254
aa(lp6
S'state'
p7
aI0
aatp8
Rp9
.ccollections
OrderedDict
p0
((lp1
(lp2
S'timestamp'
p3
aF4.714047193527222
aa(lp4
S'distance'
p5
aF39.905014991760254
aa(lp6
S'state'
p7
aI0
aatp8
Rp9
.ccollections
OrderedDict
p0
((lp1
(lp2
S'timestamp'
p3
aF4.722239017486572
aa(lp4
S'distance'
p5
aF39.905014991760254
aa(lp6
S'state'
p7
aI0
aatp8
Rp9
.ccollections
OrderedDict
p0
((lp1
(lp2
S'timestamp'
p3
aF4.722697019577026
aa(lp4
S'distance'
p5
aF39.905014991760254
aa(lp6
S'state'
p7
aI0
aatp8
Rp9
.ccollections
OrderedDict
p0
((lp1
(lp2
S'timestamp'
p3
aF4.7322962284088135
aa(lp4
S'distance'
p5
aF39.905014991760254
aa(lp6
S'state'
p7
aI0
aatp8
Rp9
.ccollections
OrderedDict
p0
((lp1
(lp2
S'timestamp'
p3
aF4.732655048370361
aa(lp4
S'distance'
p5
aF39.905014991760254
aa(lp6
S'state'
p7
aI0
aatp8
Rp9
.ccollections
OrderedDict
p0
((lp1
(lp2
S'timestamp'
p3
aF4.742308139801025
aa(lp4
S'distance'
p5
aF39.905014991760254
aa(lp6
S'state'
p7
aI0
aatp8
Rp9
.ccollections
OrderedDict
p0
((lp1
(lp2
S'timestamp'
p3
aF4.742730140686035
aa(lp4
S'distance'
p5
aF39.905014991760254
aa(lp6
S'state'
p7
aI0
aatp8
Rp9
.ccollections
OrderedDict
p0
((lp1
(lp2
S'timestamp'
p3
aF4.753247022628784
aa(lp4
S'distance'
p5
aF39.905014991760254
aa(lp6
S'state'
p7
aI0
aatp8
Rp9
.ccollections
OrderedDict
p0
((lp1
(lp2
S'timestamp'
p3
aF4.754117012023926
aa(lp4
S'distance'
p5
aF39.905014991760254
aa(lp6
S'state'
p7
aI0
aatp8
Rp9
.ccollections
OrderedDict
p0
((lp1
(lp2
S'timestamp'
p3
aF4.7619712352752686
aa(lp4
S'distance'
p5
aF39.905014991760254
aa(lp6
S'state'
p7
aI0
aatp8
Rp9
.ccollections
OrderedDict
p0
((lp1
(lp2
S'timestamp'
p3
aF4.762768030166626
aa(lp4
S'distance'
p5
aF39.905014991760254
aa(lp6
S'state'
p7
aI0
aatp8
Rp9
.ccollections
OrderedDict
p0
((lp1
(lp2
S'timestamp'
p3
aF4.772380113601685
aa(lp4
S'distance'
p5
aF39.905014991760254
aa(lp6
S'state'
p7
aI0
aatp8
Rp9
.ccollections
OrderedDict
p0
((lp1
(lp2
S'timestamp'
p3
aF4.772751092910767
aa(lp4
S'distance'
p5
aF39.905014991760254
aa(lp6
S'state'
p7
aI0
aatp8
Rp9
.ccollections
OrderedDict
p0
((lp1
(lp2
S'timestamp'
p3
aF4.7824811935424805
aa(lp4
S'distance'
p5
aF39.905014991760254
aa(lp6
S'state'
p7
aI0
aatp8
Rp9
.ccollections
OrderedDict
p0
((lp1
(lp2
S'timestamp'
p3
aF4.782567024230957
aa(lp4
S'distance'
p5
aF39.905014991760254
aa(lp6
S'state'
p7
aI0
aatp8
Rp9
.ccollections
OrderedDict
p0
((lp1
(lp2
S'timestamp'
p3
aF4.794117212295532
aa(lp4
S'distance'
p5
aF39.905014991760254
aa(lp6
S'state'
p7
aI0
aatp8
Rp9
.ccollections
OrderedDict
p0
((lp1
(lp2
S'timestamp'
p3
aF4.795295000076294
aa(lp4
S'distance'
p5
aF39.905014991760254
aa(lp6
S'state'
p7
aI0
aatp8
Rp9
.ccollections
OrderedDict
p0
((lp1
(lp2
S'timestamp'
p3
aF4.802338123321533
aa(lp4
S'distance'
p5
aF39.905014991760254
aa(lp6
S'state'
p7
aI0
aatp8
Rp9
.ccollections
OrderedDict
p0
((lp1
(lp2
S'timestamp'
p3
aF4.802580118179321
aa(lp4
S'distance'
p5
aF39.905014991760254
aa(lp6
S'state'
p7
aI0
aatp8
Rp9
.ccollections
OrderedDict
p0
((lp1
(lp2
S'timestamp'
p3
aF4.812239170074463
aa(lp4
S'distance'
p5
aF39.905014991760254
aa(lp6
S'state'
p7
aI0
aatp8
Rp9
.ccollections
OrderedDict
p0
((lp1
(lp2
S'timestamp'
p3
aF4.812692165374756
aa(lp4
S'distance'
p5
aF39.905014991760254
aa(lp6
S'state'
p7
aI0
aatp8
Rp9
.ccollections
OrderedDict
p0
((lp1
(lp2
S'timestamp'
p3
aF4.823163032531738
aa(lp4
S'distance'
p5
aF39.905014991760254
aa(lp6
S'state'
p7
aI0
aatp8
Rp9
.ccollections
OrderedDict
p0
((lp1
(lp2
S'timestamp'
p3
aF4.82335901260376
aa(lp4
S'distance'
p5
aF39.905014991760254
aa(lp6
S'state'
p7
aI0
aatp8
Rp9
.ccollections
OrderedDict
p0
((lp1
(lp2
S'timestamp'
p3
aF4.832123041152954
aa(lp4
S'distance'
p5
aF39.905014991760254
aa(lp6
S'state'
p7
aI0
aatp8
Rp9
.ccollections
OrderedDict
p0
((lp1
(lp2
S'timestamp'
p3
aF4.83246922492981
aa(lp4
S'distance'
p5
aF39.905014991760254
aa(lp6
S'state'
p7
aI0
aatp8
Rp9
.ccollections
OrderedDict
p0
((lp1
(lp2
S'timestamp'
p3
aF4.842220067977905
aa(lp4
S'distance'
p5
aF39.905014991760254
aa(lp6
S'state'
p7
aI0
aatp8
Rp9
.ccollections
OrderedDict
p0
((lp1
(lp2
S'timestamp'
p3
aF4.842592000961304
aa(lp4
S'distance'
p5
aF39.905014991760254
aa(lp6
S'state'
p7
aI0
aatp8
Rp9
.ccollections
OrderedDict
p0
((lp1
(lp2
S'timestamp'
p3
aF4.85245418548584
aa(lp4
S'distance'
p5
aF39.905014991760254
aa(lp6
S'state'
p7
aI0
aatp8
Rp9
.ccollections
OrderedDict
p0
((lp1
(lp2
S'timestamp'
p3
aF4.852557182312012
aa(lp4
S'distance'
p5
aF39.905014991760254
aa(lp6
S'state'
p7
aI0
aatp8
Rp9
.ccollections
OrderedDict
p0
((lp1
(lp2
S'timestamp'
p3
aF4.862427234649658
aa(lp4
S'distance'
p5
aF39.905014991760254
aa(lp6
S'state'
p7
aI0
aatp8
Rp9
.ccollections
OrderedDict
p0
((lp1
(lp2
S'timestamp'
p3
aF4.862521171569824
aa(lp4
S'distance'
p5
aF39.905014991760254
aa(lp6
S'state'
p7
aI0
aatp8
Rp9
.ccollections
OrderedDict
p0
((lp1
(lp2
S'timestamp'
p3
aF4.872289180755615
aa(lp4
S'distance'
p5
aF39.905014991760254
aa(lp6
S'state'
p7
aI0
aatp8
Rp9
.ccollections
OrderedDict
p0
((lp1
(lp2
S'timestamp'
p3
aF4.872502088546753
aa(lp4
S'distance'
p5
aF39.905014991760254
aa(lp6
S'state'
p7
aI0
aatp8
Rp9
.ccollections
OrderedDict
p0
((lp1
(lp2
S'timestamp'
p3
aF4.882436037063599
aa(lp4
S'distance'
p5
aF39.905014991760254
aa(lp6
S'state'
p7
aI0
aatp8
Rp9
.ccollections
OrderedDict
p0
((lp1
(lp2
S'timestamp'
p3
aF4.882529020309448
aa(lp4
S'distance'
p5
aF39.905014991760254
aa(lp6
S'state'
p7
aI0
aatp8
Rp9
.ccollections
OrderedDict
p0
((lp1
(lp2
S'timestamp'
p3
aF4.892324209213257
aa(lp4
S'distance'
p5
aF39.905014991760254
aa(lp6
S'state'
p7
aI0
aatp8
Rp9
.ccollections
OrderedDict
p0
((lp1
(lp2
S'timestamp'
p3
aF4.892455101013184
aa(lp4
S'distance'
p5
aF39.905014991760254
aa(lp6
S'state'
p7
aI0
aatp8
Rp9
.ccollections
OrderedDict
p0
((lp1
(lp2
S'timestamp'
p3
aF4.903672218322754
aa(lp4
S'distance'
p5
aF39.905014991760254
aa(lp6
S'state'
p7
aI0
aatp8
Rp9
.ccollections
OrderedDict
p0
((lp1
(lp2
S'timestamp'
p3
aF4.905232191085815
aa(lp4
S'distance'
p5
aF39.905014991760254
aa(lp6
S'state'
p7
aI0
aatp8
Rp9
.ccollections
OrderedDict
p0
((lp1
(lp2
S'timestamp'
p3
aF4.912230014801025
aa(lp4
S'distance'
p5
aF39.905014991760254
aa(lp6
S'state'
p7
aI0
aatp8
Rp9
.ccollections
OrderedDict
p0
((lp1
(lp2
S'timestamp'
p3
aF4.9124391078948975
aa(lp4
S'distance'
p5
aF39.905014991760254
aa(lp6
S'state'
p7
aI0
aatp8
Rp9
.ccollections
OrderedDict
p0
((lp1
(lp2
S'timestamp'
p3
aF4.922133207321167
aa(lp4
S'distance'
p5
aF39.905014991760254
aa(lp6
S'state'
p7
aI0
aatp8
Rp9
.ccollections
OrderedDict
p0
((lp1
(lp2
S'timestamp'
p3
aF4.922468185424805
aa(lp4
S'distance'
p5
aF39.905014991760254
aa(lp6
S'state'
p7
aI0
aatp8
Rp9
.ccollections
OrderedDict
p0
((lp1
(lp2
S'timestamp'
p3
aF4.9321300983428955
aa(lp4
S'distance'
p5
aF39.905014991760254
aa(lp6
S'state'
p7
aI0
aatp8
Rp9
.ccollections
OrderedDict
p0
((lp1
(lp2
S'timestamp'
p3
aF4.9324791431427
aa(lp4
S'distance'
p5
aF39.905014991760254
aa(lp6
S'state'
p7
aI0
aatp8
Rp9
.ccollections
OrderedDict
p0
((lp1
(lp2
S'timestamp'
p3
aF4.941895008087158
aa(lp4
S'distance'
p5
aF39.905014991760254
aa(lp6
S'state'
p7
aI0
aatp8
Rp9
.ccollections
OrderedDict
p0
((lp1
(lp2
S'timestamp'
p3
aF4.942440032958984
aa(lp4
S'distance'
p5
aF39.905014991760254
aa(lp6
S'state'
p7
aI0
aatp8
Rp9
.ccollections
OrderedDict
p0
((lp1
(lp2
S'timestamp'
p3
aF4.952258110046387
aa(lp4
S'distance'
p5
aF39.905014991760254
aa(lp6
S'state'
p7
aI0
aatp8
Rp9
.ccollections
OrderedDict
p0
((lp1
(lp2
S'timestamp'
p3
aF4.952385187149048
aa(lp4
S'distance'
p5
aF39.905014991760254
aa(lp6
S'state'
p7
aI0
aatp8
Rp9
.ccollections
OrderedDict
p0
((lp1
(lp2
S'timestamp'
p3
aF4.962350130081177
aa(lp4
S'distance'
p5
aF39.905014991760254
aa(lp6
S'state'
p7
aI0
aatp8
Rp9
.ccollections
OrderedDict
p0
((lp1
(lp2
S'timestamp'
p3
aF4.962433099746704
aa(lp4
S'distance'
p5
aF39.905014991760254
aa(lp6
S'state'
p7
aI0
aatp8
Rp9
.ccollections
OrderedDict
p0
((lp1
(lp2
S'timestamp'
p3
aF4.982042074203491
aa(lp4
S'distance'
p5
aF39.905014991760254
aa(lp6
S'state'
p7
aI0
aatp8
Rp9
.ccollections
OrderedDict
p0
((lp1
(lp2
S'timestamp'
p3
aF4.982231140136719
aa(lp4
S'distance'
p5
aF39.905014991760254
aa(lp6
S'state'
p7
aI0
aatp8
Rp9
.ccollections
OrderedDict
p0
((lp1
(lp2
S'timestamp'
p3
aF4.982856035232544
aa(lp4
S'distance'
p5
aF39.905014991760254
aa(lp6
S'state'
p7
aI0
aatp8
Rp9
.ccollections
OrderedDict
p0
((lp1
(lp2
S'timestamp'
p3
aF4.983438014984131
aa(lp4
S'distance'
p5
aF39.905014991760254
aa(lp6
S'state'
p7
aI0
aatp8
Rp9
.ccollections
OrderedDict
p0
((lp1
(lp2
S'timestamp'
p3
aF4.992364168167114
aa(lp4
S'distance'
p5
aF39.905014991760254
aa(lp6
S'state'
p7
aI0
aatp8
Rp9
.ccollections
OrderedDict
p0
((lp1
(lp2
S'timestamp'
p3
aF4.992445230484009
aa(lp4
S'distance'
p5
aF39.905014991760254
aa(lp6
S'state'
p7
aI0
aatp8
Rp9
.ccollections
OrderedDict
p0
((lp1
(lp2
S'timestamp'
p3
aF5.00231409072876
aa(lp4
S'distance'
p5
aF39.905014991760254
aa(lp6
S'state'
p7
aI0
aatp8
Rp9
.ccollections
OrderedDict
p0
((lp1
(lp2
S'timestamp'
p3
aF5.002386093139648
aa(lp4
S'distance'
p5
aF39.905014991760254
aa(lp6
S'state'
p7
aI0
aatp8
Rp9
.ccollections
OrderedDict
p0
((lp1
(lp2
S'timestamp'
p3
aF5.011885166168213
aa(lp4
S'distance'
p5
aF39.905014991760254
aa(lp6
S'state'
p7
aI0
aatp8
Rp9
.ccollections
OrderedDict
p0
((lp1
(lp2
S'timestamp'
p3
aF5.012379169464111
aa(lp4
S'distance'
p5
aF39.905014991760254
aa(lp6
S'state'
p7
aI0
aatp8
Rp9
.ccollections
OrderedDict
p0
((lp1
(lp2
S'timestamp'
p3
aF5.022006034851074
aa(lp4
S'distance'
p5
aF39.905014991760254
aa(lp6
S'state'
p7
aI0
aatp8
Rp9
.ccollections
OrderedDict
p0
((lp1
(lp2
S'timestamp'
p3
aF5.022461175918579
aa(lp4
S'distance'
p5
aF39.905014991760254
aa(lp6
S'state'
p7
aI0
aatp8
Rp9
.ccollections
OrderedDict
p0
((lp1
(lp2
S'timestamp'
p3
aF5.031917095184326
aa(lp4
S'distance'
p5
aF39.905014991760254
aa(lp6
S'state'
p7
aI0
aatp8
Rp9
.ccollections
OrderedDict
p0
((lp1
(lp2
S'timestamp'
p3
aF5.03237509727478
aa(lp4
S'distance'
p5
aF39.905014991760254
aa(lp6
S'state'
p7
aI0
aatp8
Rp9
.ccollections
OrderedDict
p0
((lp1
(lp2
S'timestamp'
p3
aF5.0418860912323
aa(lp4
S'distance'
p5
aF39.905014991760254
aa(lp6
S'state'
p7
aI0
aatp8
Rp9
.ccollections
OrderedDict
p0
((lp1
(lp2
S'timestamp'
p3
aF5.042410135269165
aa(lp4
S'distance'
p5
aF39.905014991760254
aa(lp6
S'state'
p7
aI0
aatp8
Rp9
.ccollections
OrderedDict
p0
((lp1
(lp2
S'timestamp'
p3
aF5.051932096481323
aa(lp4
S'distance'
p5
aF39.905014991760254
aa(lp6
S'state'
p7
aI0
aatp8
Rp9
.ccollections
OrderedDict
p0
((lp1
(lp2
S'timestamp'
p3
aF5.052471160888672
aa(lp4
S'distance'
p5
aF39.905014991760254
aa(lp6
S'state'
p7
aI0
aatp8
Rp9
.ccollections
OrderedDict
p0
((lp1
(lp2
S'timestamp'
p3
aF5.061972141265869
aa(lp4
S'distance'
p5
aF39.905014991760254
aa(lp6
S'state'
p7
aI0
aatp8
Rp9
.ccollections
OrderedDict
p0
((lp1
(lp2
S'timestamp'
p3
aF5.062405109405518
aa(lp4
S'distance'
p5
aF39.905014991760254
aa(lp6
S'state'
p7
aI0
aatp8
Rp9
.ccollections
OrderedDict
p0
((lp1
(lp2
S'timestamp'
p3
aF5.071994066238403
aa(lp4
S'distance'
p5
aF39.905014991760254
aa(lp6
S'state'
p7
aI0
aatp8
Rp9
.ccollections
OrderedDict
p0
((lp1
(lp2
S'timestamp'
p3
aF5.072476148605347
aa(lp4
S'distance'
p5
aF39.905014991760254
aa(lp6
S'state'
p7
aI0
aatp8
Rp9
.ccollections
OrderedDict
p0
((lp1
(lp2
S'timestamp'
p3
aF5.081961154937744
aa(lp4
S'distance'
p5
aF39.905014991760254
aa(lp6
S'state'
p7
aI0
aatp8
Rp9
.ccollections
OrderedDict
p0
((lp1
(lp2
S'timestamp'
p3
aF5.08247709274292
aa(lp4
S'distance'
p5
aF39.905014991760254
aa(lp6
S'state'
p7
aI0
aatp8
Rp9
.ccollections
OrderedDict
p0
((lp1
(lp2
S'timestamp'
p3
aF5.091778039932251
aa(lp4
S'distance'
p5
aF39.905014991760254
aa(lp6
S'state'
p7
aI0
aatp8
Rp9
.ccollections
OrderedDict
p0
((lp1
(lp2
S'timestamp'
p3
aF5.092458009719849
aa(lp4
S'distance'
p5
aF39.905014991760254
aa(lp6
S'state'
p7
aI0
aatp8
Rp9
.ccollections
OrderedDict
p0
((lp1
(lp2
S'timestamp'
p3
aF5.101902008056641
aa(lp4
S'distance'
p5
aF39.905014991760254
aa(lp6
S'state'
p7
aI0
aatp8
Rp9
.ccollections
OrderedDict
p0
((lp1
(lp2
S'timestamp'
p3
aF5.102419137954712
aa(lp4
S'distance'
p5
aF39.905014991760254
aa(lp6
S'state'
p7
aI0
aatp8
Rp9
.ccollections
OrderedDict
p0
((lp1
(lp2
S'timestamp'
p3
aF5.111959218978882
aa(lp4
S'distance'
p5
aF39.905014991760254
aa(lp6
S'state'
p7
aI0
aatp8
Rp9
.ccollections
OrderedDict
p0
((lp1
(lp2
S'timestamp'
p3
aF5.112448215484619
aa(lp4
S'distance'
p5
aF39.905014991760254
aa(lp6
S'state'
p7
aI0
aatp8
Rp9
.ccollections
OrderedDict
p0
((lp1
(lp2
S'timestamp'
p3
aF5.121912002563477
aa(lp4
S'distance'
p5
aF39.905014991760254
aa(lp6
S'state'
p7
aI0
aatp8
Rp9
.ccollections
OrderedDict
p0
((lp1
(lp2
S'timestamp'
p3
aF5.122424125671387
aa(lp4
S'distance'
p5
aF39.905014991760254
aa(lp6
S'state'
p7
aI0
aatp8
Rp9
.ccollections
OrderedDict
p0
((lp1
(lp2
S'timestamp'
p3
aF5.133910179138184
aa(lp4
S'distance'
p5
aF39.905014991760254
aa(lp6
S'state'
p7
aI0
aatp8
Rp9
.ccollections
OrderedDict
p0
((lp1
(lp2
S'timestamp'
p3
aF5.134933233261108
aa(lp4
S'distance'
p5
aF39.905014991760254
aa(lp6
S'state'
p7
aI0
aatp8
Rp9
.ccollections
OrderedDict
p0
((lp1
(lp2
S'timestamp'
p3
aF5.141855001449585
aa(lp4
S'distance'
p5
aF39.905014991760254
aa(lp6
S'state'
p7
aI0
aatp8
Rp9
.ccollections
OrderedDict
p0
((lp1
(lp2
S'timestamp'
p3
aF5.142279148101807
aa(lp4
S'distance'
p5
aF39.905014991760254
aa(lp6
S'state'
p7
aI0
aatp8
Rp9
.ccollections
OrderedDict
p0
((lp1
(lp2
S'timestamp'
p3
aF5.1521031856536865
aa(lp4
S'distance'
p5
aF39.905014991760254
aa(lp6
S'state'
p7
aI0
aatp8
Rp9
.ccollections
OrderedDict
p0
((lp1
(lp2
S'timestamp'
p3
aF5.152191162109375
aa(lp4
S'distance'
p5
aF39.905014991760254
aa(lp6
S'state'
p7
aI0
aatp8
Rp9
.ccollections
OrderedDict
p0
((lp1
(lp2
S'timestamp'
p3
aF5.161903142929077
aa(lp4
S'distance'
p5
aF39.905014991760254
aa(lp6
S'state'
p7
aI0
aatp8
Rp9
.ccollections
OrderedDict
p0
((lp1
(lp2
S'timestamp'
p3
aF5.162312030792236
aa(lp4
S'distance'
p5
aF39.905014991760254
aa(lp6
S'state'
p7
aI0
aatp8
Rp9
.ccollections
OrderedDict
p0
((lp1
(lp2
S'timestamp'
p3
aF5.173657178878784
aa(lp4
S'distance'
p5
aF39.905014991760254
aa(lp6
S'state'
p7
aI0
aatp8
Rp9
.ccollections
OrderedDict
p0
((lp1
(lp2
S'timestamp'
p3
aF5.1758811473846436
aa(lp4
S'distance'
p5
aF39.905014991760254
aa(lp6
S'state'
p7
aI0
aatp8
Rp9
.ccollections
OrderedDict
p0
((lp1
(lp2
S'timestamp'
p3
aF5.18189001083374
aa(lp4
S'distance'
p5
aF39.905014991760254
aa(lp6
S'state'
p7
aI0
aatp8
Rp9
.ccollections
OrderedDict
p0
((lp1
(lp2
S'timestamp'
p3
aF5.182308197021484
aa(lp4
S'distance'
p5
aF39.905014991760254
aa(lp6
S'state'
p7
aI400
aatp8
Rp9
.ccollections
OrderedDict
p0
((lp1
(lp2
S'timestamp'
p3
aF5.191975116729736
aa(lp4
S'distance'
p5
aF39.905014991760254
aa(lp6
S'state'
p7
aI400
aatp8
Rp9
.ccollections
OrderedDict
p0
((lp1
(lp2
S'timestamp'
p3
aF5.192531108856201
aa(lp4
S'distance'
p5
aF39.905014991760254
aa(lp6
S'state'
p7
aI400
aatp8
Rp9
.ccollections
OrderedDict
p0
((lp1
(lp2
S'timestamp'
p3
aF5.202250003814697
aa(lp4
S'distance'
p5
aF39.905014991760254
aa(lp6
S'state'
p7
aI400
aatp8
Rp9
.ccollections
OrderedDict
p0
((lp1
(lp2
S'timestamp'
p3
aF5.202345132827759
aa(lp4
S'distance'
p5
aF39.905014991760254
aa(lp6
S'state'
p7
aI400
aatp8
Rp9
.ccollections
OrderedDict
p0
((lp1
(lp2
S'timestamp'
p3
aF5.211807012557983
aa(lp4
S'distance'
p5
aF39.905014991760254
aa(lp6
S'state'
p7
aI400
aatp8
Rp9
.ccollections
OrderedDict
p0
((lp1
(lp2
S'timestamp'
p3
aF5.212601184844971
aa(lp4
S'distance'
p5
aF39.905014991760254
aa(lp6
S'state'
p7
aI400
aatp8
Rp9
.ccollections
OrderedDict
p0
((lp1
(lp2
S'timestamp'
p3
aF5.2223801612854
aa(lp4
S'distance'
p5
aF39.905014991760254
aa(lp6
S'state'
p7
aI400
aatp8
Rp9
.ccollections
OrderedDict
p0
((lp1
(lp2
S'timestamp'
p3
aF5.222499132156372
aa(lp4
S'distance'
p5
aF39.905014991760254
aa(lp6
S'state'
p7
aI400
aatp8
Rp9
.ccollections
OrderedDict
p0
((lp1
(lp2
S'timestamp'
p3
aF5.23220419883728
aa(lp4
S'distance'
p5
aF39.905014991760254
aa(lp6
S'state'
p7
aI400
aatp8
Rp9
.ccollections
OrderedDict
p0
((lp1
(lp2
S'timestamp'
p3
aF5.232280015945435
aa(lp4
S'distance'
p5
aF39.905014991760254
aa(lp6
S'state'
p7
aI400
aatp8
Rp9
.ccollections
OrderedDict
p0
((lp1
(lp2
S'timestamp'
p3
aF5.241823196411133
aa(lp4
S'distance'
p5
aF39.905014991760254
aa(lp6
S'state'
p7
aI400
aatp8
Rp9
.ccollections
OrderedDict
p0
((lp1
(lp2
S'timestamp'
p3
aF5.242246150970459
aa(lp4
S'distance'
p5
aF39.905014991760254
aa(lp6
S'state'
p7
aI400
aatp8
Rp9
.ccollections
OrderedDict
p0
((lp1
(lp2
S'timestamp'
p3
aF5.251820087432861
aa(lp4
S'distance'
p5
aF39.905014991760254
aa(lp6
S'state'
p7
aI400
aatp8
Rp9
.ccollections
OrderedDict
p0
((lp1
(lp2
S'timestamp'
p3
aF5.2522101402282715
aa(lp4
S'distance'
p5
aF39.905014991760254
aa(lp6
S'state'
p7
aI400
aatp8
Rp9
.ccollections
OrderedDict
p0
((lp1
(lp2
S'timestamp'
p3
aF5.261944055557251
aa(lp4
S'distance'
p5
aF39.905014991760254
aa(lp6
S'state'
p7
aI400
aatp8
Rp9
.ccollections
OrderedDict
p0
((lp1
(lp2
S'timestamp'
p3
aF5.26209020614624
aa(lp4
S'distance'
p5
aF39.905014991760254
aa(lp6
S'state'
p7
aI400
aatp8
Rp9
.ccollections
OrderedDict
p0
((lp1
(lp2
S'timestamp'
p3
aF5.273270130157471
aa(lp4
S'distance'
p5
aF39.905014991760254
aa(lp6
S'state'
p7
aI400
aatp8
Rp9
.ccollections
OrderedDict
p0
((lp1
(lp2
S'timestamp'
p3
aF5.27429723739624
aa(lp4
S'distance'
p5
aF39.905014991760254
aa(lp6
S'state'
p7
aI400
aatp8
Rp9
.ccollections
OrderedDict
p0
((lp1
(lp2
S'timestamp'
p3
aF5.281854152679443
aa(lp4
S'distance'
p5
aF39.905014991760254
aa(lp6
S'state'
p7
aI400
aatp8
Rp9
.ccollections
OrderedDict
p0
((lp1
(lp2
S'timestamp'
p3
aF5.2820892333984375
aa(lp4
S'distance'
p5
aF39.905014991760254
aa(lp6
S'state'
p7
aI400
aatp8
Rp9
.ccollections
OrderedDict
p0
((lp1
(lp2
S'timestamp'
p3
aF5.291744232177734
aa(lp4
S'distance'
p5
aF39.905014991760254
aa(lp6
S'state'
p7
aI400
aatp8
Rp9
.ccollections
OrderedDict
p0
((lp1
(lp2
S'timestamp'
p3
aF5.292182207107544
aa(lp4
S'distance'
p5
aF39.905014991760254
aa(lp6
S'state'
p7
aI400
aatp8
Rp9
.ccollections
OrderedDict
p0
((lp1
(lp2
S'timestamp'
p3
aF5.301862001419067
aa(lp4
S'distance'
p5
aF39.905014991760254
aa(lp6
S'state'
p7
aI400
aatp8
Rp9
.ccollections
OrderedDict
p0
((lp1
(lp2
S'timestamp'
p3
aF5.302133083343506
aa(lp4
S'distance'
p5
aF39.905014991760254
aa(lp6
S'state'
p7
aI400
aatp8
Rp9
.ccollections
OrderedDict
p0
((lp1
(lp2
S'timestamp'
p3
aF5.313133001327515
aa(lp4
S'distance'
p5
aF39.905014991760254
aa(lp6
S'state'
p7
aI400
aatp8
Rp9
.ccollections
OrderedDict
p0
((lp1
(lp2
S'timestamp'
p3
aF5.313881158828735
aa(lp4
S'distance'
p5
aF39.905014991760254
aa(lp6
S'state'
p7
aI400
aatp8
Rp9
.ccollections
OrderedDict
p0
((lp1
(lp2
S'timestamp'
p3
aF5.321693181991577
aa(lp4
S'distance'
p5
aF39.905014991760254
aa(lp6
S'state'
p7
aI400
aatp8
Rp9
.ccollections
OrderedDict
p0
((lp1
(lp2
S'timestamp'
p3
aF5.322063207626343
aa(lp4
S'distance'
p5
aF39.905014991760254
aa(lp6
S'state'
p7
aI400
aatp8
Rp9
.ccollections
OrderedDict
p0
((lp1
(lp2
S'timestamp'
p3
aF5.331938028335571
aa(lp4
S'distance'
p5
aF39.905014991760254
aa(lp6
S'state'
p7
aI400
aatp8
Rp9
.ccollections
OrderedDict
p0
((lp1
(lp2
S'timestamp'
p3
aF5.332217216491699
aa(lp4
S'distance'
p5
aF39.905014991760254
aa(lp6
S'state'
p7
aI400
aatp8
Rp9
.ccollections
OrderedDict
p0
((lp1
(lp2
S'timestamp'
p3
aF5.3418800830841064
aa(lp4
S'distance'
p5
aF39.905014991760254
aa(lp6
S'state'
p7
aI400
aatp8
Rp9
.ccollections
OrderedDict
p0
((lp1
(lp2
S'timestamp'
p3
aF5.342237234115601
aa(lp4
S'distance'
p5
aF39.905014991760254
aa(lp6
S'state'
p7
aI400
aatp8
Rp9
.ccollections
OrderedDict
p0
((lp1
(lp2
S'timestamp'
p3
aF5.352556228637695
aa(lp4
S'distance'
p5
aF39.905014991760254
aa(lp6
S'state'
p7
aI400
aatp8
Rp9
.ccollections
OrderedDict
p0
((lp1
(lp2
S'timestamp'
p3
aF5.353240013122559
aa(lp4
S'distance'
p5
aF39.905014991760254
aa(lp6
S'state'
p7
aI400
aatp8
Rp9
.ccollections
OrderedDict
p0
((lp1
(lp2
S'timestamp'
p3
aF5.3614661693573
aa(lp4
S'distance'
p5
aF39.905014991760254
aa(lp6
S'state'
p7
aI400
aatp8
Rp9
.ccollections
OrderedDict
p0
((lp1
(lp2
S'timestamp'
p3
aF5.362263202667236
aa(lp4
S'distance'
p5
aF39.905014991760254
aa(lp6
S'state'
p7
aI400
aatp8
Rp9
.ccollections
OrderedDict
p0
((lp1
(lp2
S'timestamp'
p3
aF5.371551036834717
aa(lp4
S'distance'
p5
aF39.905014991760254
aa(lp6
S'state'
p7
aI400
aatp8
Rp9
.ccollections
OrderedDict
p0
((lp1
(lp2
S'timestamp'
p3
aF5.372071027755737
aa(lp4
S'distance'
p5
aF39.905014991760254
aa(lp6
S'state'
p7
aI400
aatp8
Rp9
.ccollections
OrderedDict
p0
((lp1
(lp2
S'timestamp'
p3
aF5.381686210632324
aa(lp4
S'distance'
p5
aF39.905014991760254
aa(lp6
S'state'
p7
aI400
aatp8
Rp9
.ccollections
OrderedDict
p0
((lp1
(lp2
S'timestamp'
p3
aF5.3821210861206055
aa(lp4
S'distance'
p5
aF39.905014991760254
aa(lp6
S'state'
p7
aI400
aatp8
Rp9
.ccollections
OrderedDict
p0
((lp1
(lp2
S'timestamp'
p3
aF5.39164400100708
aa(lp4
S'distance'
p5
aF39.905014991760254
aa(lp6
S'state'
p7
aI400
aatp8
Rp9
.ccollections
OrderedDict
p0
((lp1
(lp2
S'timestamp'
p3
aF5.392192125320435
aa(lp4
S'distance'
p5
aF39.905014991760254
aa(lp6
S'state'
p7
aI400
aatp8
Rp9
.ccollections
OrderedDict
p0
((lp1
(lp2
S'timestamp'
p3
aF5.401639223098755
aa(lp4
S'distance'
p5
aF39.905014991760254
aa(lp6
S'state'
p7
aI400
aatp8
Rp9
.ccollections
OrderedDict
p0
((lp1
(lp2
S'timestamp'
p3
aF5.402088165283203
aa(lp4
S'distance'
p5
aF39.905014991760254
aa(lp6
S'state'
p7
aI400
aatp8
Rp9
.ccollections
OrderedDict
p0
((lp1
(lp2
S'timestamp'
p3
aF5.4124791622161865
aa(lp4
S'distance'
p5
aF39.905014991760254
aa(lp6
S'state'
p7
aI400
aatp8
Rp9
.ccollections
OrderedDict
p0
((lp1
(lp2
S'timestamp'
p3
aF5.413386106491089
aa(lp4
S'distance'
p5
aF39.905014991760254
aa(lp6
S'state'
p7
aI400
aatp8
Rp9
.ccollections
OrderedDict
p0
((lp1
(lp2
S'timestamp'
p3
aF5.422467231750488
aa(lp4
S'distance'
p5
aF39.905014991760254
aa(lp6
S'state'
p7
aI400
aatp8
Rp9
.ccollections
OrderedDict
p0
((lp1
(lp2
S'timestamp'
p3
aF5.4228222370147705
aa(lp4
S'distance'
p5
aF39.905014991760254
aa(lp6
S'state'
p7
aI400
aatp8
Rp9
.ccollections
OrderedDict
p0
((lp1
(lp2
S'timestamp'
p3
aF5.431816101074219
aa(lp4
S'distance'
p5
aF39.905014991760254
aa(lp6
S'state'
p7
aI400
aatp8
Rp9
.ccollections
OrderedDict
p0
((lp1
(lp2
S'timestamp'
p3
aF5.43194317817688
aa(lp4
S'distance'
p5
aF39.905014991760254
aa(lp6
S'state'
p7
aI400
aatp8
Rp9
.ccollections
OrderedDict
p0
((lp1
(lp2
S'timestamp'
p3
aF5.451777219772339
aa(lp4
S'distance'
p5
aF39.905014991760254
aa(lp6
S'state'
p7
aI400
aatp8
Rp9
.ccollections
OrderedDict
p0
((lp1
(lp2
S'timestamp'
p3
aF5.451857089996338
aa(lp4
S'distance'
p5
aF39.905014991760254
aa(lp6
S'state'
p7
aI400
aatp8
Rp9
.ccollections
OrderedDict
p0
((lp1
(lp2
S'timestamp'
p3
aF5.452946186065674
aa(lp4
S'distance'
p5
aF39.905014991760254
aa(lp6
S'state'
p7
aI400
aatp8
Rp9
.ccollections
OrderedDict
p0
((lp1
(lp2
S'timestamp'
p3
aF5.453838109970093
aa(lp4
S'distance'
p5
aF39.905014991760254
aa(lp6
S'state'
p7
aI400
aatp8
Rp9
.ccollections
OrderedDict
p0
((lp1
(lp2
S'timestamp'
p3
aF5.461719036102295
aa(lp4
S'distance'
p5
aF39.905014991760254
aa(lp6
S'state'
p7
aI400
aatp8
Rp9
.ccollections
OrderedDict
p0
((lp1
(lp2
S'timestamp'
p3
aF5.461846113204956
aa(lp4
S'distance'
p5
aF39.905014991760254
aa(lp6
S'state'
p7
aI400
aatp8
Rp9
.ccollections
OrderedDict
p0
((lp1
(lp2
S'timestamp'
p3
aF5.471862077713013
aa(lp4
S'distance'
p5
aF39.905014991760254
aa(lp6
S'state'
p7
aI400
aatp8
Rp9
.ccollections
OrderedDict
p0
((lp1
(lp2
S'timestamp'
p3
aF5.471942186355591
aa(lp4
S'distance'
p5
aF39.905014991760254
aa(lp6
S'state'
p7
aI400
aatp8
Rp9
.ccollections
OrderedDict
p0
((lp1
(lp2
S'timestamp'
p3
aF5.481943130493164
aa(lp4
S'distance'
p5
aF39.905014991760254
aa(lp6
S'state'
p7
aI400
aatp8
Rp9
.ccollections
OrderedDict
p0
((lp1
(lp2
S'timestamp'
p3
aF5.482777118682861
aa(lp4
S'distance'
p5
aF39.905014991760254
aa(lp6
S'state'
p7
aI400
aatp8
Rp9
.ccollections
OrderedDict
p0
((lp1
(lp2
S'timestamp'
p3
aF5.493161201477051
aa(lp4
S'distance'
p5
aF39.905014991760254
aa(lp6
S'state'
p7
aI400
aatp8
Rp9
.ccollections
OrderedDict
p0
((lp1
(lp2
S'timestamp'
p3
aF5.494594097137451
aa(lp4
S'distance'
p5
aF39.905014991760254
aa(lp6
S'state'
p7
aI400
aatp8
Rp9
.ccollections
OrderedDict
p0
((lp1
(lp2
S'timestamp'
p3
aF5.502338171005249
aa(lp4
S'distance'
p5
aF39.905014991760254
aa(lp6
S'state'
p7
aI400
aatp8
Rp9
.ccollections
OrderedDict
p0
((lp1
(lp2
S'timestamp'
p3
aF5.5029261112213135
aa(lp4
S'distance'
p5
aF39.905014991760254
aa(lp6
S'state'
p7
aI400
aatp8
Rp9
.ccollections
OrderedDict
p0
((lp1
(lp2
S'timestamp'
p3
aF5.51162314414978
aa(lp4
S'distance'
p5
aF39.905014991760254
aa(lp6
S'state'
p7
aI400
aatp8
Rp9
.ccollections
OrderedDict
p0
((lp1
(lp2
S'timestamp'
p3
aF5.511934041976929
aa(lp4
S'distance'
p5
aF39.905014991760254
aa(lp6
S'state'
p7
aI400
aatp8
Rp9
.ccollections
OrderedDict
p0
((lp1
(lp2
S'timestamp'
p3
aF5.521695137023926
aa(lp4
S'distance'
p5
aF39.905014991760254
aa(lp6
S'state'
p7
aI400
aatp8
Rp9
.ccollections
OrderedDict
p0
((lp1
(lp2
S'timestamp'
p3
aF5.5219340324401855
aa(lp4
S'distance'
p5
aF39.905014991760254
aa(lp6
S'state'
p7
aI400
aatp8
Rp9
.ccollections
OrderedDict
p0
((lp1
(lp2
S'timestamp'
p3
aF5.531779050827026
aa(lp4
S'distance'
p5
aF39.905014991760254
aa(lp6
S'state'
p7
aI400
aatp8
Rp9
.ccollections
OrderedDict
p0
((lp1
(lp2
S'timestamp'
p3
aF5.531865119934082
aa(lp4
S'distance'
p5
aF39.905014991760254
aa(lp6
S'state'
p7
aI400
aatp8
Rp9
.ccollections
OrderedDict
p0
((lp1
(lp2
S'timestamp'
p3
aF5.541677236557007
aa(lp4
S'distance'
p5
aF39.905014991760254
aa(lp6
S'state'
p7
aI400
aatp8
Rp9
.ccollections
OrderedDict
p0
((lp1
(lp2
S'timestamp'
p3
aF5.541808128356934
aa(lp4
S'distance'
p5
aF39.905014991760254
aa(lp6
S'state'
p7
aI400
aatp8
Rp9
.ccollections
OrderedDict
p0
((lp1
(lp2
S'timestamp'
p3
aF5.551691055297852
aa(lp4
S'distance'
p5
aF39.905014991760254
aa(lp6
S'state'
p7
aI400
aatp8
Rp9
.ccollections
OrderedDict
p0
((lp1
(lp2
S'timestamp'
p3
aF5.551828145980835
aa(lp4
S'distance'
p5
aF39.905014991760254
aa(lp6
S'state'
p7
aI400
aatp8
Rp9
.ccollections
OrderedDict
p0
((lp1
(lp2
S'timestamp'
p3
aF5.5613391399383545
aa(lp4
S'distance'
p5
aF39.905014991760254
aa(lp6
S'state'
p7
aI400
aatp8
Rp9
.ccollections
OrderedDict
p0
((lp1
(lp2
S'timestamp'
p3
aF5.561876058578491
aa(lp4
S'distance'
p5
aF39.905014991760254
aa(lp6
S'state'
p7
aI400
aatp8
Rp9
.ccollections
OrderedDict
p0
((lp1
(lp2
S'timestamp'
p3
aF5.571696043014526
aa(lp4
S'distance'
p5
aF39.905014991760254
aa(lp6
S'state'
p7
aI400
aatp8
Rp9
.ccollections
OrderedDict
p0
((lp1
(lp2
S'timestamp'
p3
aF5.571811199188232
aa(lp4
S'distance'
p5
aF39.905014991760254
aa(lp6
S'state'
p7
aI400
aatp8
Rp9
.ccollections
OrderedDict
p0
((lp1
(lp2
S'timestamp'
p3
aF5.582008123397827
aa(lp4
S'distance'
p5
aF39.905014991760254
aa(lp6
S'state'
p7
aI400
aatp8
Rp9
.ccollections
OrderedDict
p0
((lp1
(lp2
S'timestamp'
p3
aF5.582115173339844
aa(lp4
S'distance'
p5
aF39.905014991760254
aa(lp6
S'state'
p7
aI400
aatp8
Rp9
.ccollections
OrderedDict
p0
((lp1
(lp2
S'timestamp'
p3
aF5.591767072677612
aa(lp4
S'distance'
p5
aF39.905014991760254
aa(lp6
S'state'
p7
aI400
aatp8
Rp9
.ccollections
OrderedDict
p0
((lp1
(lp2
S'timestamp'
p3
aF5.59184718132019
aa(lp4
S'distance'
p5
aF39.905014991760254
aa(lp6
S'state'
p7
aI400
aatp8
Rp9
.ccollections
OrderedDict
p0
((lp1
(lp2
S'timestamp'
p3
aF5.6030662059783936
aa(lp4
S'distance'
p5
aF39.905014991760254
aa(lp6
S'state'
p7
aI400
aatp8
Rp9
.ccollections
OrderedDict
p0
((lp1
(lp2
S'timestamp'
p3
aF5.6040380001068115
aa(lp4
S'distance'
p5
aF39.905014991760254
aa(lp6
S'state'
p7
aI400
aatp8
Rp9
.ccollections
OrderedDict
p0
((lp1
(lp2
S'timestamp'
p3
aF5.611460208892822
aa(lp4
S'distance'
p5
aF39.905014991760254
aa(lp6
S'state'
p7
aI400
aatp8
Rp9
.ccollections
OrderedDict
p0
((lp1
(lp2
S'timestamp'
p3
aF5.611874103546143
aa(lp4
S'distance'
p5
aF39.905014991760254
aa(lp6
S'state'
p7
aI400
aatp8
Rp9
.ccollections
OrderedDict
p0
((lp1
(lp2
S'timestamp'
p3
aF5.6218180656433105
aa(lp4
S'distance'
p5
aF39.905014991760254
aa(lp6
S'state'
p7
aI400
aatp8
Rp9
.ccollections
OrderedDict
p0
((lp1
(lp2
S'timestamp'
p3
aF5.622606039047241
aa(lp4
S'distance'
p5
aF39.905014991760254
aa(lp6
S'state'
p7
aI400
aatp8
Rp9
.ccollections
OrderedDict
p0
((lp1
(lp2
S'timestamp'
p3
aF5.63160514831543
aa(lp4
S'distance'
p5
aF39.905014991760254
aa(lp6
S'state'
p7
aI400
aatp8
Rp9
.ccollections
OrderedDict
p0
((lp1
(lp2
S'timestamp'
p3
aF5.631746053695679
aa(lp4
S'distance'
p5
aF39.905014991760254
aa(lp6
S'state'
p7
aI400
aatp8
Rp9
.ccollections
OrderedDict
p0
((lp1
(lp2
S'timestamp'
p3
aF5.64127516746521
aa(lp4
S'distance'
p5
aF39.905014991760254
aa(lp6
S'state'
p7
aI400
aatp8
Rp9
.ccollections
OrderedDict
p0
((lp1
(lp2
S'timestamp'
p3
aF5.642142057418823
aa(lp4
S'distance'
p5
aF39.905014991760254
aa(lp6
S'state'
p7
aI400
aatp8
Rp9
.ccollections
OrderedDict
p0
((lp1
(lp2
S'timestamp'
p3
aF5.651611089706421
aa(lp4
S'distance'
p5
aF39.905014991760254
aa(lp6
S'state'
p7
aI400
aatp8
Rp9
.ccollections
OrderedDict
p0
((lp1
(lp2
S'timestamp'
p3
aF5.651983022689819
aa(lp4
S'distance'
p5
aF39.905014991760254
aa(lp6
S'state'
p7
aI400
aatp8
Rp9
.ccollections
OrderedDict
p0
((lp1
(lp2
S'timestamp'
p3
aF5.66142201423645
aa(lp4
S'distance'
p5
aF39.905014991760254
aa(lp6
S'state'
p7
aI400
aatp8
Rp9
.ccollections
OrderedDict
p0
((lp1
(lp2
S'timestamp'
p3
aF5.661862134933472
aa(lp4
S'distance'
p5
aF39.905014991760254
aa(lp6
S'state'
p7
aI400
aatp8
Rp9
.ccollections
OrderedDict
p0
((lp1
(lp2
S'timestamp'
p3
aF5.671507120132446
aa(lp4
S'distance'
p5
aF39.905014991760254
aa(lp6
S'state'
p7
aI400
aatp8
Rp9
.ccollections
OrderedDict
p0
((lp1
(lp2
S'timestamp'
p3
aF5.671833038330078
aa(lp4
S'distance'
p5
aF39.905014991760254
aa(lp6
S'state'
p7
aI400
aatp8
Rp9
.ccollections
OrderedDict
p0
((lp1
(lp2
S'timestamp'
p3
aF5.68133807182312
aa(lp4
S'distance'
p5
aF39.905014991760254
aa(lp6
S'state'
p7
aI400
aatp8
Rp9
.ccollections
OrderedDict
p0
((lp1
(lp2
S'timestamp'
p3
aF5.682507038116455
aa(lp4
S'distance'
p5
aF39.905014991760254
aa(lp6
S'state'
p7
aI400
aatp8
Rp9
.ccollections
OrderedDict
p0
((lp1
(lp2
S'timestamp'
p3
aF5.691617012023926
aa(lp4
S'distance'
p5
aF39.905014991760254
aa(lp6
S'state'
p7
aI400
aatp8
Rp9
.ccollections
OrderedDict
p0
((lp1
(lp2
S'timestamp'
p3
aF5.691711187362671
aa(lp4
S'distance'
p5
aF39.905014991760254
aa(lp6
S'state'
p7
aI400
aatp8
Rp9
.ccollections
OrderedDict
p0
((lp1
(lp2
S'timestamp'
p3
aF5.701614141464233
aa(lp4
S'distance'
p5
aF39.905014991760254
aa(lp6
S'state'
p7
aI400
aatp8
Rp9
.ccollections
OrderedDict
p0
((lp1
(lp2
S'timestamp'
p3
aF5.7017152309417725
aa(lp4
S'distance'
p5
aF39.905014991760254
aa(lp6
S'state'
p7
aI400
aatp8
Rp9
.ccollections
OrderedDict
p0
((lp1
(lp2
S'timestamp'
p3
aF5.711319208145142
aa(lp4
S'distance'
p5
aF39.905014991760254
aa(lp6
S'state'
p7
aI400
aatp8
Rp9
.ccollections
OrderedDict
p0
((lp1
(lp2
S'timestamp'
p3
aF5.711880207061768
aa(lp4
S'distance'
p5
aF39.905014991760254
aa(lp6
S'state'
p7
aI400
aatp8
Rp9
.ccollections
OrderedDict
p0
((lp1
(lp2
S'timestamp'
p3
aF5.72152304649353
aa(lp4
S'distance'
p5
aF39.905014991760254
aa(lp6
S'state'
p7
aI400
aatp8
Rp9
.ccollections
OrderedDict
p0
((lp1
(lp2
S'timestamp'
p3
aF5.721801042556763
aa(lp4
S'distance'
p5
aF39.905014991760254
aa(lp6
S'state'
p7
aI400
aatp8
Rp9
.ccollections
OrderedDict
p0
((lp1
(lp2
S'timestamp'
p3
aF5.7315452098846436
aa(lp4
S'distance'
p5
aF39.905014991760254
aa(lp6
S'state'
p7
aI400
aatp8
Rp9
.ccollections
OrderedDict
p0
((lp1
(lp2
S'timestamp'
p3
aF5.731648206710815
aa(lp4
S'distance'
p5
aF39.905014991760254
aa(lp6
S'state'
p7
aI400
aatp8
Rp9
.ccollections
OrderedDict
p0
((lp1
(lp2
S'timestamp'
p3
aF5.741552114486694
aa(lp4
S'distance'
p5
aF39.905014991760254
aa(lp6
S'state'
p7
aI400
aatp8
Rp9
.ccollections
OrderedDict
p0
((lp1
(lp2
S'timestamp'
p3
aF5.741656064987183
aa(lp4
S'distance'
p5
aF39.905014991760254
aa(lp6
S'state'
p7
aI400
aatp8
Rp9
.ccollections
OrderedDict
p0
((lp1
(lp2
S'timestamp'
p3
aF5.751489162445068
aa(lp4
S'distance'
p5
aF39.905014991760254
aa(lp6
S'state'
p7
aI400
aatp8
Rp9
.ccollections
OrderedDict
p0
((lp1
(lp2
S'timestamp'
p3
aF5.751749038696289
aa(lp4
S'distance'
p5
aF39.905014991760254
aa(lp6
S'state'
p7
aI400
aatp8
Rp9
.ccollections
OrderedDict
p0
((lp1
(lp2
S'timestamp'
p3
aF5.761297225952148
aa(lp4
S'distance'
p5
aF39.905014991760254
aa(lp6
S'state'
p7
aI400
aatp8
Rp9
.ccollections
OrderedDict
p0
((lp1
(lp2
S'timestamp'
p3
aF5.761760234832764
aa(lp4
S'distance'
p5
aF39.905014991760254
aa(lp6
S'state'
p7
aI400
aatp8
Rp9
.ccollections
OrderedDict
p0
((lp1
(lp2
S'timestamp'
p3
aF5.771101236343384
aa(lp4
S'distance'
p5
aF39.905014991760254
aa(lp6
S'state'
p7
aI400
aatp8
Rp9
.ccollections
OrderedDict
p0
((lp1
(lp2
S'timestamp'
p3
aF5.771802186965942
aa(lp4
S'distance'
p5
aF39.905014991760254
aa(lp6
S'state'
p7
aI400
aatp8
Rp9
.ccollections
OrderedDict
p0
((lp1
(lp2
S'timestamp'
p3
aF5.781263113021851
aa(lp4
S'distance'
p5
aF39.905014991760254
aa(lp6
S'state'
p7
aI400
aatp8
Rp9
.ccollections
OrderedDict
p0
((lp1
(lp2
S'timestamp'
p3
aF5.781771183013916
aa(lp4
S'distance'
p5
aF39.905014991760254
aa(lp6
S'state'
p7
aI400
aatp8
Rp9
.ccollections
OrderedDict
p0
((lp1
(lp2
S'timestamp'
p3
aF5.791296005249023
aa(lp4
S'distance'
p5
aF39.905014991760254
aa(lp6
S'state'
p7
aI400
aatp8
Rp9
.ccollections
OrderedDict
p0
((lp1
(lp2
S'timestamp'
p3
aF5.7916131019592285
aa(lp4
S'distance'
p5
aF39.905014991760254
aa(lp6
S'state'
p7
aI400
aatp8
Rp9
.ccollections
OrderedDict
p0
((lp1
(lp2
S'timestamp'
p3
aF5.801508188247681
aa(lp4
S'distance'
p5
aF39.905014991760254
aa(lp6
S'state'
p7
aI400
aatp8
Rp9
.ccollections
OrderedDict
p0
((lp1
(lp2
S'timestamp'
p3
aF5.801855087280273
aa(lp4
S'distance'
p5
aF39.905014991760254
aa(lp6
S'state'
p7
aI400
aatp8
Rp9
.ccollections
OrderedDict
p0
((lp1
(lp2
S'timestamp'
p3
aF5.811115026473999
aa(lp4
S'distance'
p5
aF39.905014991760254
aa(lp6
S'state'
p7
aI400
aatp8
Rp9
.ccollections
OrderedDict
p0
((lp1
(lp2
S'timestamp'
p3
aF5.811711072921753
aa(lp4
S'distance'
p5
aF39.905014991760254
aa(lp6
S'state'
p7
aI400
aatp8
Rp9
.ccollections
OrderedDict
p0
((lp1
(lp2
S'timestamp'
p3
aF5.8216400146484375
aa(lp4
S'distance'
p5
aF39.905014991760254
aa(lp6
S'state'
p7
aI400
aatp8
Rp9
.ccollections
OrderedDict
p0
((lp1
(lp2
S'timestamp'
p3
aF5.822390079498291
aa(lp4
S'distance'
p5
aF39.905014991760254
aa(lp6
S'state'
p7
aI400
aatp8
Rp9
.ccollections
OrderedDict
p0
((lp1
(lp2
S'timestamp'
p3
aF5.831532001495361
aa(lp4
S'distance'
p5
aF39.905014991760254
aa(lp6
S'state'
p7
aI400
aatp8
Rp9
.ccollections
OrderedDict
p0
((lp1
(lp2
S'timestamp'
p3
aF5.831648111343384
aa(lp4
S'distance'
p5
aF39.905014991760254
aa(lp6
S'state'
p7
aI400
aatp8
Rp9
.ccollections
OrderedDict
p0
((lp1
(lp2
S'timestamp'
p3
aF5.841565132141113
aa(lp4
S'distance'
p5
aF39.905014991760254
aa(lp6
S'state'
p7
aI400
aatp8
Rp9
.ccollections
OrderedDict
p0
((lp1
(lp2
S'timestamp'
p3
aF5.8424201011657715
aa(lp4
S'distance'
p5
aF39.905014991760254
aa(lp6
S'state'
p7
aI400
aatp8
Rp9
.ccollections
OrderedDict
p0
((lp1
(lp2
S'timestamp'
p3
aF5.851599216461182
aa(lp4
S'distance'
p5
aF39.905014991760254
aa(lp6
S'state'
p7
aI400
aatp8
Rp9
.ccollections
OrderedDict
p0
((lp1
(lp2
S'timestamp'
p3
aF5.852447032928467
aa(lp4
S'distance'
p5
aF39.905014991760254
aa(lp6
S'state'
p7
aI400
aatp8
Rp9
.ccollections
OrderedDict
p0
((lp1
(lp2
S'timestamp'
p3
aF5.861488103866577
aa(lp4
S'distance'
p5
aF39.905014991760254
aa(lp6
S'state'
p7
aI400
aatp8
Rp9
.ccollections
OrderedDict
p0
((lp1
(lp2
S'timestamp'
p3
aF5.861572027206421
aa(lp4
S'distance'
p5
aF39.905014991760254
aa(lp6
S'state'
p7
aI400
aatp8
Rp9
.ccollections
OrderedDict
p0
((lp1
(lp2
S'timestamp'
p3
aF5.872626066207886
aa(lp4
S'distance'
p5
aF39.905014991760254
aa(lp6
S'state'
p7
aI400
aatp8
Rp9
.ccollections
OrderedDict
p0
((lp1
(lp2
S'timestamp'
p3
aF5.873599052429199
aa(lp4
S'distance'
p5
aF39.905014991760254
aa(lp6
S'state'
p7
aI400
aatp8
Rp9
.ccollections
OrderedDict
p0
((lp1
(lp2
S'timestamp'
p3
aF5.881603002548218
aa(lp4
S'distance'
p5
aF39.905014991760254
aa(lp6
S'state'
p7
aI400
aatp8
Rp9
.ccollections
OrderedDict
p0
((lp1
(lp2
S'timestamp'
p3
aF5.882432222366333
aa(lp4
S'distance'
p5
aF39.905014991760254
aa(lp6
S'state'
p7
aI400
aatp8
Rp9
.ccollections
OrderedDict
p0
((lp1
(lp2
S'timestamp'
p3
aF5.891441106796265
aa(lp4
S'distance'
p5
aF39.905014991760254
aa(lp6
S'state'
p7
aI400
aatp8
Rp9
.ccollections
OrderedDict
p0
((lp1
(lp2
S'timestamp'
p3
aF5.891516208648682
aa(lp4
S'distance'
p5
aF39.905014991760254
aa(lp6
S'state'
p7
aI400
aatp8
Rp9
.ccollections
OrderedDict
p0
((lp1
(lp2
S'timestamp'
p3
aF5.901282072067261
aa(lp4
S'distance'
p5
aF39.905014991760254
aa(lp6
S'state'
p7
aI400
aatp8
Rp9
.ccollections
OrderedDict
p0
((lp1
(lp2
S'timestamp'
p3
aF5.9016430377960205
aa(lp4
S'distance'
p5
aF39.905014991760254
aa(lp6
S'state'
p7
aI400
aatp8
Rp9
.ccollections
OrderedDict
p0
((lp1
(lp2
S'timestamp'
p3
aF5.911313056945801
aa(lp4
S'distance'
p5
aF39.905014991760254
aa(lp6
S'state'
p7
aI400
aatp8
Rp9
.ccollections
OrderedDict
p0
((lp1
(lp2
S'timestamp'
p3
aF5.911572217941284
aa(lp4
S'distance'
p5
aF39.905014991760254
aa(lp6
S'state'
p7
aI400
aatp8
Rp9
.ccollections
OrderedDict
p0
((lp1
(lp2
S'timestamp'
p3
aF5.921576023101807
aa(lp4
S'distance'
p5
aF39.905014991760254
aa(lp6
S'state'
p7
aI400
aatp8
Rp9
.ccollections
OrderedDict
p0
((lp1
(lp2
S'timestamp'
p3
aF5.922396183013916
aa(lp4
S'distance'
p5
aF39.905014991760254
aa(lp6
S'state'
p7
aI400
aatp8
Rp9
.ccollections
OrderedDict
p0
((lp1
(lp2
S'timestamp'
p3
aF5.932810068130493
aa(lp4
S'distance'
p5
aF39.905014991760254
aa(lp6
S'state'
p7
aI400
aatp8
Rp9
.ccollections
OrderedDict
p0
((lp1
(lp2
S'timestamp'
p3
aF5.934526205062866
aa(lp4
S'distance'
p5
aF39.905014991760254
aa(lp6
S'state'
p7
aI400
aatp8
Rp9
.ccollections
OrderedDict
p0
((lp1
(lp2
S'timestamp'
p3
aF5.941391229629517
aa(lp4
S'distance'
p5
aF39.905014991760254
aa(lp6
S'state'
p7
aI400
aatp8
Rp9
.ccollections
OrderedDict
p0
((lp1
(lp2
S'timestamp'
p3
aF5.941495180130005
aa(lp4
S'distance'
p5
aF39.905014991760254
aa(lp6
S'state'
p7
aI400
aatp8
Rp9
.ccollections
OrderedDict
p0
((lp1
(lp2
S'timestamp'
p3
aF5.951313018798828
aa(lp4
S'distance'
p5
aF39.905014991760254
aa(lp6
S'state'
p7
aI400
aatp8
Rp9
.ccollections
OrderedDict
p0
((lp1
(lp2
S'timestamp'
p3
aF5.9515650272369385
aa(lp4
S'distance'
p5
aF39.905014991760254
aa(lp6
S'state'
p7
aI400
aatp8
Rp9
.ccollections
OrderedDict
p0
((lp1
(lp2
S'timestamp'
p3
aF5.961345195770264
aa(lp4
S'distance'
p5
aF39.905014991760254
aa(lp6
S'state'
p7
aI400
aatp8
Rp9
.ccollections
OrderedDict
p0
((lp1
(lp2
S'timestamp'
p3
aF5.96144700050354
aa(lp4
S'distance'
p5
aF39.905014991760254
aa(lp6
S'state'
p7
aI400
aatp8
Rp9
.ccollections
OrderedDict
p0
((lp1
(lp2
S'timestamp'
p3
aF5.971303224563599
aa(lp4
S'distance'
p5
aF39.905014991760254
aa(lp6
S'state'
p7
aI400
aatp8
Rp9
.ccollections
OrderedDict
p0
((lp1
(lp2
S'timestamp'
p3
aF5.971402168273926
aa(lp4
S'distance'
p5
aF39.905014991760254
aa(lp6
S'state'
p7
aI400
aatp8
Rp9
.ccollections
OrderedDict
p0
((lp1
(lp2
S'timestamp'
p3
aF5.981373071670532
aa(lp4
S'distance'
p5
aF39.905014991760254
aa(lp6
S'state'
p7
aI400
aatp8
Rp9
.ccollections
OrderedDict
p0
((lp1
(lp2
S'timestamp'
p3
aF5.981476068496704
aa(lp4
S'distance'
p5
aF39.905014991760254
aa(lp6
S'state'
p7
aI400
aatp8
Rp9
.ccollections
OrderedDict
p0
((lp1
(lp2
S'timestamp'
p3
aF5.9912919998168945
aa(lp4
S'distance'
p5
aF39.905014991760254
aa(lp6
S'state'
p7
aI400
aatp8
Rp9
.ccollections
OrderedDict
p0
((lp1
(lp2
S'timestamp'
p3
aF5.9915971755981445
aa(lp4
S'distance'
p5
aF39.905014991760254
aa(lp6
S'state'
p7
aI400
aatp8
Rp9
.ccollections
OrderedDict
p0
((lp1
(lp2
S'timestamp'
p3
aF6.001253128051758
aa(lp4
S'distance'
p5
aF39.905014991760254
aa(lp6
S'state'
p7
aI400
aatp8
Rp9
.ccollections
OrderedDict
p0
((lp1
(lp2
S'timestamp'
p3
aF6.001528024673462
aa(lp4
S'distance'
p5
aF39.905014991760254
aa(lp6
S'state'
p7
aI400
aatp8
Rp9
.ccollections
OrderedDict
p0
((lp1
(lp2
S'timestamp'
p3
aF6.011257171630859
aa(lp4
S'distance'
p5
aF39.905014991760254
aa(lp6
S'state'
p7
aI400
aatp8
Rp9
.ccollections
OrderedDict
p0
((lp1
(lp2
S'timestamp'
p3
aF6.011526107788086
aa(lp4
S'distance'
p5
aF39.905014991760254
aa(lp6
S'state'
p7
aI400
aatp8
Rp9
.ccollections
OrderedDict
p0
((lp1
(lp2
S'timestamp'
p3
aF6.022055149078369
aa(lp4
S'distance'
p5
aF39.905014991760254
aa(lp6
S'state'
p7
aI400
aatp8
Rp9
.ccollections
OrderedDict
p0
((lp1
(lp2
S'timestamp'
p3
aF6.022425174713135
aa(lp4
S'distance'
p5
aF39.905014991760254
aa(lp6
S'state'
p7
aI400
aatp8
Rp9
.ccollections
OrderedDict
p0
((lp1
(lp2
S'timestamp'
p3
aF6.031222105026245
aa(lp4
S'distance'
p5
aF39.905014991760254
aa(lp6
S'state'
p7
aI400
aatp8
Rp9
.ccollections
OrderedDict
p0
((lp1
(lp2
S'timestamp'
p3
aF6.031442165374756
aa(lp4
S'distance'
p5
aF39.905014991760254
aa(lp6
S'state'
p7
aI400
aatp8
Rp9
.ccollections
OrderedDict
p0
((lp1
(lp2
S'timestamp'
p3
aF6.041474103927612
aa(lp4
S'distance'
p5
aF39.905014991760254
aa(lp6
S'state'
p7
aI400
aatp8
Rp9
.ccollections
OrderedDict
p0
((lp1
(lp2
S'timestamp'
p3
aF6.0423150062561035
aa(lp4
S'distance'
p5
aF39.905014991760254
aa(lp6
S'state'
p7
aI400
aatp8
Rp9
.ccollections
OrderedDict
p0
((lp1
(lp2
S'timestamp'
p3
aF6.051076173782349
aa(lp4
S'distance'
p5
aF39.905014991760254
aa(lp6
S'state'
p7
aI400
aatp8
Rp9
.ccollections
OrderedDict
p0
((lp1
(lp2
S'timestamp'
p3
aF6.052722215652466
aa(lp4
S'distance'
p5
aF39.905014991760254
aa(lp6
S'state'
p7
aI400
aatp8
Rp9
.ccollections
OrderedDict
p0
((lp1
(lp2
S'timestamp'
p3
aF6.0613532066345215
aa(lp4
S'distance'
p5
aF39.905014991760254
aa(lp6
S'state'
p7
aI400
aatp8
Rp9
.ccollections
OrderedDict
p0
((lp1
(lp2
S'timestamp'
p3
aF6.061470031738281
aa(lp4
S'distance'
p5
aF39.905014991760254
aa(lp6
S'state'
p7
aI400
aatp8
Rp9
.ccollections
OrderedDict
p0
((lp1
(lp2
S'timestamp'
p3
aF6.071274042129517
aa(lp4
S'distance'
p5
aF39.905014991760254
aa(lp6
S'state'
p7
aI400
aatp8
Rp9
.ccollections
OrderedDict
p0
((lp1
(lp2
S'timestamp'
p3
aF6.071361064910889
aa(lp4
S'distance'
p5
aF39.905014991760254
aa(lp6
S'state'
p7
aI400
aatp8
Rp9
.ccollections
OrderedDict
p0
((lp1
(lp2
S'timestamp'
p3
aF6.08122706413269
aa(lp4
S'distance'
p5
aF39.905014991760254
aa(lp6
S'state'
p7
aI400
aatp8
Rp9
.ccollections
OrderedDict
p0
((lp1
(lp2
S'timestamp'
p3
aF6.081363201141357
aa(lp4
S'distance'
p5
aF39.905014991760254
aa(lp6
S'state'
p7
aI400
aatp8
Rp9
.ccollections
OrderedDict
p0
((lp1
(lp2
S'timestamp'
p3
aF6.092602014541626
aa(lp4
S'distance'
p5
aF39.905014991760254
aa(lp6
S'state'
p7
aI400
aatp8
Rp9
.ccollections
OrderedDict
p0
((lp1
(lp2
S'timestamp'
p3
aF6.093562126159668
aa(lp4
S'distance'
p5
aF39.905014991760254
aa(lp6
S'state'
p7
aI400
aatp8
Rp9
.ccollections
OrderedDict
p0
((lp1
(lp2
S'timestamp'
p3
aF6.101332187652588
aa(lp4
S'distance'
p5
aF39.905014991760254
aa(lp6
S'state'
p7
aI400
aatp8
Rp9
.ccollections
OrderedDict
p0
((lp1
(lp2
S'timestamp'
p3
aF6.102187156677246
aa(lp4
S'distance'
p5
aF39.905014991760254
aa(lp6
S'state'
p7
aI400
aatp8
Rp9
.ccollections
OrderedDict
p0
((lp1
(lp2
S'timestamp'
p3
aF6.111307144165039
aa(lp4
S'distance'
p5
aF39.905014991760254
aa(lp6
S'state'
p7
aI400
aatp8
Rp9
.ccollections
OrderedDict
p0
((lp1
(lp2
S'timestamp'
p3
aF6.111386060714722
aa(lp4
S'distance'
p5
aF39.905014991760254
aa(lp6
S'state'
p7
aI400
aatp8
Rp9
.ccollections
OrderedDict
p0
((lp1
(lp2
S'timestamp'
p3
aF6.122478008270264
aa(lp4
S'distance'
p5
aF39.905014991760254
aa(lp6
S'state'
p7
aI400
aatp8
Rp9
.ccollections
OrderedDict
p0
((lp1
(lp2
S'timestamp'
p3
aF6.123538017272949
aa(lp4
S'distance'
p5
aF39.905014991760254
aa(lp6
S'state'
p7
aI400
aatp8
Rp9
.ccollections
OrderedDict
p0
((lp1
(lp2
S'timestamp'
p3
aF6.131349086761475
aa(lp4
S'distance'
p5
aF39.905014991760254
aa(lp6
S'state'
p7
aI400
aatp8
Rp9
.ccollections
OrderedDict
p0
((lp1
(lp2
S'timestamp'
p3
aF6.132213115692139
aa(lp4
S'distance'
p5
aF39.905014991760254
aa(lp6
S'state'
p7
aI400
aatp8
Rp9
.ccollections
OrderedDict
p0
((lp1
(lp2
S'timestamp'
p3
aF6.141256093978882
aa(lp4
S'distance'
p5
aF39.905014991760254
aa(lp6
S'state'
p7
aI400
aatp8
Rp9
.ccollections
OrderedDict
p0
((lp1
(lp2
S'timestamp'
p3
aF6.141379117965698
aa(lp4
S'distance'
p5
aF39.905014991760254
aa(lp6
S'state'
p7
aI400
aatp8
Rp9
.ccollections
OrderedDict
p0
((lp1
(lp2
S'timestamp'
p3
aF6.151094198226929
aa(lp4
S'distance'
p5
aF39.905014991760254
aa(lp6
S'state'
p7
aI400
aatp8
Rp9
.ccollections
OrderedDict
p0
((lp1
(lp2
S'timestamp'
p3
aF6.151324033737183
aa(lp4
S'distance'
p5
aF39.905014991760254
aa(lp6
S'state'
p7
aI400
aatp8
Rp9
.ccollections
OrderedDict
p0
((lp1
(lp2
S'timestamp'
p3
aF6.161149024963379
aa(lp4
S'distance'
p5
aF39.905014991760254
aa(lp6
S'state'
p7
aI400
aatp8
Rp9
.ccollections
OrderedDict
p0
((lp1
(lp2
S'timestamp'
p3
aF6.161291122436523
aa(lp4
S'distance'
p5
aF39.905014991760254
aa(lp6
S'state'
p7
aI400
aatp8
Rp9
.ccollections
OrderedDict
p0
((lp1
(lp2
S'timestamp'
p3
aF6.171119213104248
aa(lp4
S'distance'
p5
aF39.905014991760254
aa(lp6
S'state'
p7
aI400
aatp8
Rp9
.ccollections
OrderedDict
p0
((lp1
(lp2
S'timestamp'
p3
aF6.171570062637329
aa(lp4
S'distance'
p5
aF39.905014991760254
aa(lp6
S'state'
p7
aI400
aatp8
Rp9
.ccollections
OrderedDict
p0
((lp1
(lp2
S'timestamp'
p3
aF6.1810431480407715
aa(lp4
S'distance'
p5
aF39.905014991760254
aa(lp6
S'state'
p7
aI400
aatp8
Rp9
.ccollections
OrderedDict
p0
((lp1
(lp2
S'timestamp'
p3
aF6.181450128555298
aa(lp4
S'distance'
p5
aF39.905014991760254
aa(lp6
S'state'
p7
aI400
aatp8
Rp9
.ccollections
OrderedDict
p0
((lp1
(lp2
S'timestamp'
p3
aF6.191021203994751
aa(lp4
S'distance'
p5
aF39.905014991760254
aa(lp6
S'state'
p7
aI400
aatp8
Rp9
.ccollections
OrderedDict
p0
((lp1
(lp2
S'timestamp'
p3
aF6.191441059112549
aa(lp4
S'distance'
p5
aF39.905014991760254
aa(lp6
S'state'
p7
aI400
aatp8
Rp9
.ccollections
OrderedDict
p0
((lp1
(lp2
S'timestamp'
p3
aF6.211120128631592
aa(lp4
S'distance'
p5
aF39.905014991760254
aa(lp6
S'state'
p7
aI400
aatp8
Rp9
.ccollections
OrderedDict
p0
((lp1
(lp2
S'timestamp'
p3
aF6.211522102355957
aa(lp4
S'distance'
p5
aF39.905014991760254
aa(lp6
S'state'
p7
aI400
aatp8
Rp9
.ccollections
OrderedDict
p0
((lp1
(lp2
S'timestamp'
p3
aF6.213093042373657
aa(lp4
S'distance'
p5
aF39.905014991760254
aa(lp6
S'state'
p7
aI400
aatp8
Rp9
.ccollections
OrderedDict
p0
((lp1
(lp2
S'timestamp'
p3
aF6.214290142059326
aa(lp4
S'distance'
p5
aF39.905014991760254
aa(lp6
S'state'
p7
aI400
aatp8
Rp9
.ccollections
OrderedDict
p0
((lp1
(lp2
S'timestamp'
p3
aF6.2211010456085205
aa(lp4
S'distance'
p5
aF39.905014991760254
aa(lp6
S'state'
p7
aI400
aatp8
Rp9
.ccollections
OrderedDict
p0
((lp1
(lp2
S'timestamp'
p3
aF6.221501111984253
aa(lp4
S'distance'
p5
aF39.905014991760254
aa(lp6
S'state'
p7
aI400
aatp8
Rp9
.ccollections
OrderedDict
p0
((lp1
(lp2
S'timestamp'
p3
aF6.230885028839111
aa(lp4
S'distance'
p5
aF39.905014991760254
aa(lp6
S'state'
p7
aI400
aatp8
Rp9
.ccollections
OrderedDict
p0
((lp1
(lp2
S'timestamp'
p3
aF6.231356143951416
aa(lp4
S'distance'
p5
aF39.905014991760254
aa(lp6
S'state'
p7
aI400
aatp8
Rp9
.ccollections
OrderedDict
p0
((lp1
(lp2
S'timestamp'
p3
aF6.241008043289185
aa(lp4
S'distance'
p5
aF39.905014991760254
aa(lp6
S'state'
p7
aI400
aatp8
Rp9
.ccollections
OrderedDict
p0
((lp1
(lp2
S'timestamp'
p3
aF6.24117112159729
aa(lp4
S'distance'
p5
aF39.905014991760254
aa(lp6
S'state'
p7
aI400
aatp8
Rp9
.ccollections
OrderedDict
p0
((lp1
(lp2
S'timestamp'
p3
aF6.251090049743652
aa(lp4
S'distance'
p5
aF39.905014991760254
aa(lp6
S'state'
p7
aI400
aatp8
Rp9
.ccollections
OrderedDict
p0
((lp1
(lp2
S'timestamp'
p3
aF6.251307010650635
aa(lp4
S'distance'
p5
aF39.905014991760254
aa(lp6
S'state'
p7
aI400
aatp8
Rp9
.ccollections
OrderedDict
p0
((lp1
(lp2
S'timestamp'
p3
aF6.260975122451782
aa(lp4
S'distance'
p5
aF39.905014991760254
aa(lp6
S'state'
p7
aI400
aatp8
Rp9
.ccollections
OrderedDict
p0
((lp1
(lp2
S'timestamp'
p3
aF6.2613770961761475
aa(lp4
S'distance'
p5
aF39.905014991760254
aa(lp6
S'state'
p7
aI400
aatp8
Rp9
.ccollections
OrderedDict
p0
((lp1
(lp2
S'timestamp'
p3
aF6.27102518081665
aa(lp4
S'distance'
p5
aF39.905014991760254
aa(lp6
S'state'
p7
aI400
aatp8
Rp9
.ccollections
OrderedDict
p0
((lp1
(lp2
S'timestamp'
p3
aF6.271291017532349
aa(lp4
S'distance'
p5
aF39.905014991760254
aa(lp6
S'state'
p7
aI400
aatp8
Rp9
.ccollections
OrderedDict
p0
((lp1
(lp2
S'timestamp'
p3
aF6.283389091491699
aa(lp4
S'distance'
p5
aF39.905014991760254
aa(lp6
S'state'
p7
aI400
aatp8
Rp9
.ccollections
OrderedDict
p0
((lp1
(lp2
S'timestamp'
p3
aF6.284747123718262
aa(lp4
S'distance'
p5
aF39.905014991760254
aa(lp6
S'state'
p7
aI400
aatp8
Rp9
.ccollections
OrderedDict
p0
((lp1
(lp2
S'timestamp'
p3
aF6.290837049484253
aa(lp4
S'distance'
p5
aF39.905014991760254
aa(lp6
S'state'
p7
aI400
aatp8
Rp9
.ccollections
OrderedDict
p0
((lp1
(lp2
S'timestamp'
p3
aF6.29127311706543
aa(lp4
S'distance'
p5
aF39.905014991760254
aa(lp6
S'state'
p7
aI400
aatp8
Rp9
.ccollections
OrderedDict
p0
((lp1
(lp2
S'timestamp'
p3
aF6.310910224914551
aa(lp4
S'distance'
p5
aF39.905014991760254
aa(lp6
S'state'
p7
aI400
aatp8
Rp9
.ccollections
OrderedDict
p0
((lp1
(lp2
S'timestamp'
p3
aF6.311182022094727
aa(lp4
S'distance'
p5
aF39.905014991760254
aa(lp6
S'state'
p7
aI400
aatp8
Rp9
.ccollections
OrderedDict
p0
((lp1
(lp2
S'timestamp'
p3
aF6.312073230743408
aa(lp4
S'distance'
p5
aF39.905014991760254
aa(lp6
S'state'
p7
aI400
aatp8
Rp9
.ccollections
OrderedDict
p0
((lp1
(lp2
S'timestamp'
p3
aF6.312924146652222
aa(lp4
S'distance'
p5
aF39.905014991760254
aa(lp6
S'state'
p7
aI400
aatp8
Rp9
.ccollections
OrderedDict
p0
((lp1
(lp2
S'timestamp'
p3
aF6.32096004486084
aa(lp4
S'distance'
p5
aF39.905014991760254
aa(lp6
S'state'
p7
aI400
aatp8
Rp9
.ccollections
OrderedDict
p0
((lp1
(lp2
S'timestamp'
p3
aF6.3214030265808105
aa(lp4
S'distance'
p5
aF39.905014991760254
aa(lp6
S'state'
p7
aI400
aatp8
Rp9
.ccollections
OrderedDict
p0
((lp1
(lp2
S'timestamp'
p3
aF6.330984115600586
aa(lp4
S'distance'
p5
aF39.905014991760254
aa(lp6
S'state'
p7
aI400
aatp8
Rp9
.ccollections
OrderedDict
p0
((lp1
(lp2
S'timestamp'
p3
aF6.3312602043151855
aa(lp4
S'distance'
p5
aF39.905014991760254
aa(lp6
S'state'
p7
aI400
aatp8
Rp9
.ccollections
OrderedDict
p0
((lp1
(lp2
S'timestamp'
p3
aF6.340980052947998
aa(lp4
S'distance'
p5
aF39.905014991760254
aa(lp6
S'state'
p7
aI400
aatp8
Rp9
.ccollections
OrderedDict
p0
((lp1
(lp2
S'timestamp'
p3
aF6.341287136077881
aa(lp4
S'distance'
p5
aF39.905014991760254
aa(lp6
S'state'
p7
aI400
aatp8
Rp9
.ccollections
OrderedDict
p0
((lp1
(lp2
S'timestamp'
p3
aF6.350951194763184
aa(lp4
S'distance'
p5
aF39.905014991760254
aa(lp6
S'state'
p7
aI400
aatp8
Rp9
.ccollections
OrderedDict
p0
((lp1
(lp2
S'timestamp'
p3
aF6.351307153701782
aa(lp4
S'distance'
p5
aF39.905014991760254
aa(lp6
S'state'
p7
aI400
aatp8
Rp9
.ccollections
OrderedDict
p0
((lp1
(lp2
S'timestamp'
p3
aF6.361006021499634
aa(lp4
S'distance'
p5
aF39.905014991760254
aa(lp6
S'state'
p7
aI400
aatp8
Rp9
.ccollections
OrderedDict
p0
((lp1
(lp2
S'timestamp'
p3
aF6.361110210418701
aa(lp4
S'distance'
p5
aF39.905014991760254
aa(lp6
S'state'
p7
aI400
aatp8
Rp9
.ccollections
OrderedDict
p0
((lp1
(lp2
S'timestamp'
p3
aF6.370973110198975
aa(lp4
S'distance'
p5
aF39.905014991760254
aa(lp6
S'state'
p7
aI400
aatp8
Rp9
.ccollections
OrderedDict
p0
((lp1
(lp2
S'timestamp'
p3
aF6.371354103088379
aa(lp4
S'distance'
p5
aF39.905014991760254
aa(lp6
S'state'
p7
aI400
aatp8
Rp9
.ccollections
OrderedDict
p0
((lp1
(lp2
S'timestamp'
p3
aF6.381070137023926
aa(lp4
S'distance'
p5
aF39.905014991760254
aa(lp6
S'state'
p7
aI400
aatp8
Rp9
.ccollections
OrderedDict
p0
((lp1
(lp2
S'timestamp'
p3
aF6.381150007247925
aa(lp4
S'distance'
p5
aF39.905014991760254
aa(lp6
S'state'
p7
aI400
aatp8
Rp9
.ccollections
OrderedDict
p0
((lp1
(lp2
S'timestamp'
p3
aF6.390906095504761
aa(lp4
S'distance'
p5
aF39.905014991760254
aa(lp6
S'state'
p7
aI400
aatp8
Rp9
.ccollections
OrderedDict
p0
((lp1
(lp2
S'timestamp'
p3
aF6.391167163848877
aa(lp4
S'distance'
p5
aF39.905014991760254
aa(lp6
S'state'
p7
aI400
aatp8
Rp9
.ccollections
OrderedDict
p0
((lp1
(lp2
S'timestamp'
p3
aF6.400873184204102
aa(lp4
S'distance'
p5
aF39.905014991760254
aa(lp6
S'state'
p7
aI400
aatp8
Rp9
.ccollections
OrderedDict
p0
((lp1
(lp2
S'timestamp'
p3
aF6.401158094406128
aa(lp4
S'distance'
p5
aF39.905014991760254
aa(lp6
S'state'
p7
aI400
aatp8
Rp9
.ccollections
OrderedDict
p0
((lp1
(lp2
S'timestamp'
p3
aF6.410923004150391
aa(lp4
S'distance'
p5
aF39.905014991760254
aa(lp6
S'state'
p7
aI400
aatp8
Rp9
.ccollections
OrderedDict
p0
((lp1
(lp2
S'timestamp'
p3
aF6.411203145980835
aa(lp4
S'distance'
p5
aF39.905014991760254
aa(lp6
S'state'
p7
aI400
aatp8
Rp9
.ccollections
OrderedDict
p0
((lp1
(lp2
S'timestamp'
p3
aF6.4207000732421875
aa(lp4
S'distance'
p5
aF39.905014991760254
aa(lp6
S'state'
p7
aI400
aatp8
Rp9
.ccollections
OrderedDict
p0
((lp1
(lp2
S'timestamp'
p3
aF6.42124605178833
aa(lp4
S'distance'
p5
aF39.905014991760254
aa(lp6
S'state'
p7
aI400
aatp8
Rp9
.ccollections
OrderedDict
p0
((lp1
(lp2
S'timestamp'
p3
aF6.430938005447388
aa(lp4
S'distance'
p5
aF39.905014991760254
aa(lp6
S'state'
p7
aI400
aatp8
Rp9
.ccollections
OrderedDict
p0
((lp1
(lp2
S'timestamp'
p3
aF6.43104100227356
aa(lp4
S'distance'
p5
aF39.905014991760254
aa(lp6
S'state'
p7
aI400
aatp8
Rp9
.ccollections
OrderedDict
p0
((lp1
(lp2
S'timestamp'
p3
aF6.440873146057129
aa(lp4
S'distance'
p5
aF39.905014991760254
aa(lp6
S'state'
p7
aI400
aatp8
Rp9
.ccollections
OrderedDict
p0
((lp1
(lp2
S'timestamp'
p3
aF6.441192150115967
aa(lp4
S'distance'
p5
aF39.905014991760254
aa(lp6
S'state'
p7
aI400
aatp8
Rp9
.ccollections
OrderedDict
p0
((lp1
(lp2
S'timestamp'
p3
aF6.450916051864624
aa(lp4
S'distance'
p5
aF39.905014991760254
aa(lp6
S'state'
p7
aI400
aatp8
Rp9
.ccollections
OrderedDict
p0
((lp1
(lp2
S'timestamp'
p3
aF6.451020002365112
aa(lp4
S'distance'
p5
aF39.905014991760254
aa(lp6
S'state'
p7
aI400
aatp8
Rp9
.ccollections
OrderedDict
p0
((lp1
(lp2
S'timestamp'
p3
aF6.460812091827393
aa(lp4
S'distance'
p5
aF39.905014991760254
aa(lp6
S'state'
p7
aI400
aatp8
Rp9
.ccollections
OrderedDict
p0
((lp1
(lp2
S'timestamp'
p3
aF6.460945129394531
aa(lp4
S'distance'
p5
aF39.905014991760254
aa(lp6
S'state'
p7
aI400
aatp8
Rp9
.ccollections
OrderedDict
p0
((lp1
(lp2
S'timestamp'
p3
aF6.471887111663818
aa(lp4
S'distance'
p5
aF39.905014991760254
aa(lp6
S'state'
p7
aI400
aatp8
Rp9
.ccollections
OrderedDict
p0
((lp1
(lp2
S'timestamp'
p3
aF6.472713232040405
aa(lp4
S'distance'
p5
aF39.905014991760254
aa(lp6
S'state'
p7
aI400
aatp8
Rp9
.ccollections
OrderedDict
p0
((lp1
(lp2
S'timestamp'
p3
aF6.480828046798706
aa(lp4
S'distance'
p5
aF39.905014991760254
aa(lp6
S'state'
p7
aI400
aatp8
Rp9
.ccollections
OrderedDict
p0
((lp1
(lp2
S'timestamp'
p3
aF6.480975151062012
aa(lp4
S'distance'
p5
aF39.905014991760254
aa(lp6
S'state'
p7
aI400
aatp8
Rp9
.ccollections
OrderedDict
p0
((lp1
(lp2
S'timestamp'
p3
aF6.490836143493652
aa(lp4
S'distance'
p5
aF39.905014991760254
aa(lp6
S'state'
p7
aI400
aatp8
Rp9
.ccollections
OrderedDict
p0
((lp1
(lp2
S'timestamp'
p3
aF6.49117112159729
aa(lp4
S'distance'
p5
aF39.905014991760254
aa(lp6
S'state'
p7
aI400
aatp8
Rp9
.ccollections
OrderedDict
p0
((lp1
(lp2
S'timestamp'
p3
aF6.5008580684661865
aa(lp4
S'distance'
p5
aF39.905014991760254
aa(lp6
S'state'
p7
aI400
aatp8
Rp9
.ccollections
OrderedDict
p0
((lp1
(lp2
S'timestamp'
p3
aF6.501261234283447
aa(lp4
S'distance'
p5
aF39.905014991760254
aa(lp6
S'state'
p7
aI400
aatp8
Rp9
.ccollections
OrderedDict
p0
((lp1
(lp2
S'timestamp'
p3
aF6.510753154754639
aa(lp4
S'distance'
p5
aF39.905014991760254
aa(lp6
S'state'
p7
aI400
aatp8
Rp9
.ccollections
OrderedDict
p0
((lp1
(lp2
S'timestamp'
p3
aF6.511195182800293
aa(lp4
S'distance'
p5
aF39.905014991760254
aa(lp6
S'state'
p7
aI400
aatp8
Rp9
.ccollections
OrderedDict
p0
((lp1
(lp2
S'timestamp'
p3
aF6.520578145980835
aa(lp4
S'distance'
p5
aF39.905014991760254
aa(lp6
S'state'
p7
aI400
aatp8
Rp9
.ccollections
OrderedDict
p0
((lp1
(lp2
S'timestamp'
p3
aF6.521085023880005
aa(lp4
S'distance'
p5
aF39.905014991760254
aa(lp6
S'state'
p7
aI400
aatp8
Rp9
.ccollections
OrderedDict
p0
((lp1
(lp2
S'timestamp'
p3
aF6.53080415725708
aa(lp4
S'distance'
p5
aF39.905014991760254
aa(lp6
S'state'
p7
aI400
aatp8
Rp9
.ccollections
OrderedDict
p0
((lp1
(lp2
S'timestamp'
p3
aF6.531078100204468
aa(lp4
S'distance'
p5
aF39.905014991760254
aa(lp6
S'state'
p7
aI400
aatp8
Rp9
.ccollections
OrderedDict
p0
((lp1
(lp2
S'timestamp'
p3
aF6.54085111618042
aa(lp4
S'distance'
p5
aF39.905014991760254
aa(lp6
S'state'
p7
aI400
aatp8
Rp9
.ccollections
OrderedDict
p0
((lp1
(lp2
S'timestamp'
p3
aF6.540926218032837
aa(lp4
S'distance'
p5
aF39.905014991760254
aa(lp6
S'state'
p7
aI400
aatp8
Rp9
.ccollections
OrderedDict
p0
((lp1
(lp2
S'timestamp'
p3
aF6.550889015197754
aa(lp4
S'distance'
p5
aF39.905014991760254
aa(lp6
S'state'
p7
aI400
aatp8
Rp9
.ccollections
OrderedDict
p0
((lp1
(lp2
S'timestamp'
p3
aF6.551026105880737
aa(lp4
S'distance'
p5
aF39.905014991760254
aa(lp6
S'state'
p7
aI400
aatp8
Rp9
.ccollections
OrderedDict
p0
((lp1
(lp2
S'timestamp'
p3
aF6.560694217681885
aa(lp4
S'distance'
p5
aF39.905014991760254
aa(lp6
S'state'
p7
aI400
aatp8
Rp9
.ccollections
OrderedDict
p0
((lp1
(lp2
S'timestamp'
p3
aF6.561383008956909
aa(lp4
S'distance'
p5
aF39.905014991760254
aa(lp6
S'state'
p7
aI400
aatp8
Rp9
.ccollections
OrderedDict
p0
((lp1
(lp2
S'timestamp'
p3
aF6.570703029632568
aa(lp4
S'distance'
p5
aF39.905014991760254
aa(lp6
S'state'
p7
aI400
aatp8
Rp9
.ccollections
OrderedDict
p0
((lp1
(lp2
S'timestamp'
p3
aF6.571047067642212
aa(lp4
S'distance'
p5
aF39.905014991760254
aa(lp6
S'state'
p7
aI400
aatp8
Rp9
.ccollections
OrderedDict
p0
((lp1
(lp2
S'timestamp'
p3
aF6.581317186355591
aa(lp4
S'distance'
p5
aF39.905014991760254
aa(lp6
S'state'
p7
aI400
aatp8
Rp9
.ccollections
OrderedDict
p0
((lp1
(lp2
S'timestamp'
p3
aF6.581738233566284
aa(lp4
S'distance'
p5
aF39.905014991760254
aa(lp6
S'state'
p7
aI400
aatp8
Rp9
.ccollections
OrderedDict
p0
((lp1
(lp2
S'timestamp'
p3
aF6.5908050537109375
aa(lp4
S'distance'
p5
aF39.905014991760254
aa(lp6
S'state'
p7
aI400
aatp8
Rp9
.ccollections
OrderedDict
p0
((lp1
(lp2
S'timestamp'
p3
aF6.59105920791626
aa(lp4
S'distance'
p5
aF39.905014991760254
aa(lp6
S'state'
p7
aI400
aatp8
Rp9
.ccollections
OrderedDict
p0
((lp1
(lp2
S'timestamp'
p3
aF6.600717067718506
aa(lp4
S'distance'
p5
aF39.905014991760254
aa(lp6
S'state'
p7
aI400
aatp8
Rp9
.ccollections
OrderedDict
p0
((lp1
(lp2
S'timestamp'
p3
aF6.601110219955444
aa(lp4
S'distance'
p5
aF39.905014991760254
aa(lp6
S'state'
p7
aI400
aatp8
Rp9
.ccollections
OrderedDict
p0
((lp1
(lp2
S'timestamp'
p3
aF6.6124560832977295
aa(lp4
S'distance'
p5
aF39.905014991760254
aa(lp6
S'state'
p7
aI400
aatp8
Rp9
.ccollections
OrderedDict
p0
((lp1
(lp2
S'timestamp'
p3
aF6.613746166229248
aa(lp4
S'distance'
p5
aF39.905014991760254
aa(lp6
S'state'
p7
aI400
aatp8
Rp9
.ccollections
OrderedDict
p0
((lp1
(lp2
S'timestamp'
p3
aF6.621523141860962
aa(lp4
S'distance'
p5
aF39.905014991760254
aa(lp6
S'state'
p7
aI400
aatp8
Rp9
.ccollections
OrderedDict
p0
((lp1
(lp2
S'timestamp'
p3
aF6.62167501449585
aa(lp4
S'distance'
p5
aF39.905014991760254
aa(lp6
S'state'
p7
aI400
aatp8
Rp9
.ccollections
OrderedDict
p0
((lp1
(lp2
S'timestamp'
p3
aF6.630770206451416
aa(lp4
S'distance'
p5
aF39.905014991760254
aa(lp6
S'state'
p7
aI400
aatp8
Rp9
.ccollections
OrderedDict
p0
((lp1
(lp2
S'timestamp'
p3
aF6.6308770179748535
aa(lp4
S'distance'
p5
aF39.905014991760254
aa(lp6
S'state'
p7
aI400
aatp8
Rp9
.ccollections
OrderedDict
p0
((lp1
(lp2
S'timestamp'
p3
aF6.6405792236328125
aa(lp4
S'distance'
p5
aF39.905014991760254
aa(lp6
S'state'
p7
aI400
aatp8
Rp9
.ccollections
OrderedDict
p0
((lp1
(lp2
S'timestamp'
p3
aF6.640979051589966
aa(lp4
S'distance'
p5
aF39.905014991760254
aa(lp6
S'state'
p7
aI400
aatp8
Rp9
.ccollections
OrderedDict
p0
((lp1
(lp2
S'timestamp'
p3
aF6.650749206542969
aa(lp4
S'distance'
p5
aF39.905014991760254
aa(lp6
S'state'
p7
aI400
aatp8
Rp9
.ccollections
OrderedDict
p0
((lp1
(lp2
S'timestamp'
p3
aF6.65083122253418
aa(lp4
S'distance'
p5
aF39.905014991760254
aa(lp6
S'state'
p7
aI400
aatp8
Rp9
.ccollections
OrderedDict
p0
((lp1
(lp2
S'timestamp'
p3
aF6.6606831550598145
aa(lp4
S'distance'
p5
aF39.905014991760254
aa(lp6
S'state'
p7
aI400
aatp8
Rp9
.ccollections
OrderedDict
p0
((lp1
(lp2
S'timestamp'
p3
aF6.661200046539307
aa(lp4
S'distance'
p5
aF39.905014991760254
aa(lp6
S'state'
p7
aI400
aatp8
Rp9
.ccollections
OrderedDict
p0
((lp1
(lp2
S'timestamp'
p3
aF6.6805031299591064
aa(lp4
S'distance'
p5
aF39.905014991760254
aa(lp6
S'state'
p7
aI400
aatp8
Rp9
.ccollections
OrderedDict
p0
((lp1
(lp2
S'timestamp'
p3
aF6.680776119232178
aa(lp4
S'distance'
p5
aF39.905014991760254
aa(lp6
S'state'
p7
aI400
aatp8
Rp9
.ccollections
OrderedDict
p0
((lp1
(lp2
S'timestamp'
p3
aF6.681800127029419
aa(lp4
S'distance'
p5
aF39.905014991760254
aa(lp6
S'state'
p7
aI400
aatp8
Rp9
.ccollections
OrderedDict
p0
((lp1
(lp2
S'timestamp'
p3
aF6.682783126831055
aa(lp4
S'distance'
p5
aF39.905014991760254
aa(lp6
S'state'
p7
aI400
aatp8
Rp9
.ccollections
OrderedDict
p0
((lp1
(lp2
S'timestamp'
p3
aF6.690562009811401
aa(lp4
S'distance'
p5
aF39.905014991760254
aa(lp6
S'state'
p7
aI400
aatp8
Rp9
.ccollections
OrderedDict
p0
((lp1
(lp2
S'timestamp'
p3
aF6.691051006317139
aa(lp4
S'distance'
p5
aF39.905014991760254
aa(lp6
S'state'
p7
aI400
aatp8
Rp9
.ccollections
OrderedDict
p0
((lp1
(lp2
S'timestamp'
p3
aF6.700533151626587
aa(lp4
S'distance'
p5
aF39.905014991760254
aa(lp6
S'state'
p7
aI400
aatp8
Rp9
.ccollections
OrderedDict
p0
((lp1
(lp2
S'timestamp'
p3
aF6.701115131378174
aa(lp4
S'distance'
p5
aF39.905014991760254
aa(lp6
S'state'
p7
aI400
aatp8
Rp9
.ccollections
OrderedDict
p0
((lp1
(lp2
S'timestamp'
p3
aF6.710594177246094
aa(lp4
S'distance'
p5
aF39.905014991760254
aa(lp6
S'state'
p7
aI400
aatp8
Rp9
.ccollections
OrderedDict
p0
((lp1
(lp2
S'timestamp'
p3
aF6.711024045944214
aa(lp4
S'distance'
p5
aF39.905014991760254
aa(lp6
S'state'
p7
aI400
aatp8
Rp9
.ccollections
OrderedDict
p0
((lp1
(lp2
S'timestamp'
p3
aF6.720545053482056
aa(lp4
S'distance'
p5
aF39.905014991760254
aa(lp6
S'state'
p7
aI400
aatp8
Rp9
.ccollections
OrderedDict
p0
((lp1
(lp2
S'timestamp'
p3
aF6.721101999282837
aa(lp4
S'distance'
p5
aF39.905014991760254
aa(lp6
S'state'
p7
aI400
aatp8
Rp9
.ccollections
OrderedDict
p0
((lp1
(lp2
S'timestamp'
p3
aF6.730586051940918
aa(lp4
S'distance'
p5
aF39.905014991760254
aa(lp6
S'state'
p7
aI400
aatp8
Rp9
.ccollections
OrderedDict
p0
((lp1
(lp2
S'timestamp'
p3
aF6.731030225753784
aa(lp4
S'distance'
p5
aF39.905014991760254
aa(lp6
S'state'
p7
aI400
aatp8
Rp9
.ccollections
OrderedDict
p0
((lp1
(lp2
S'timestamp'
p3
aF6.741411209106445
aa(lp4
S'distance'
p5
aF39.905014991760254
aa(lp6
S'state'
p7
aI400
aatp8
Rp9
.ccollections
OrderedDict
p0
((lp1
(lp2
S'timestamp'
p3
aF6.742316007614136
aa(lp4
S'distance'
p5
aF39.905014991760254
aa(lp6
S'state'
p7
aI400
aatp8
Rp9
.ccollections
OrderedDict
p0
((lp1
(lp2
S'timestamp'
p3
aF6.750598192214966
aa(lp4
S'distance'
p5
aF39.905014991760254
aa(lp6
S'state'
p7
aI400
aatp8
Rp9
.ccollections
OrderedDict
p0
((lp1
(lp2
S'timestamp'
p3
aF6.750851154327393
aa(lp4
S'distance'
p5
aF39.905014991760254
aa(lp6
S'state'
p7
aI400
aatp8
Rp9
.ccollections
OrderedDict
p0
((lp1
(lp2
S'timestamp'
p3
aF6.760511159896851
aa(lp4
S'distance'
p5
aF39.905014991760254
aa(lp6
S'state'
p7
aI400
aatp8
Rp9
.ccollections
OrderedDict
p0
((lp1
(lp2
S'timestamp'
p3
aF6.761014223098755
aa(lp4
S'distance'
p5
aF39.905014991760254
aa(lp6
S'state'
p7
aI400
aatp8
Rp9
.ccollections
OrderedDict
p0
((lp1
(lp2
S'timestamp'
p3
aF6.7705910205841064
aa(lp4
S'distance'
p5
aF39.905014991760254
aa(lp6
S'state'
p7
aI400
aatp8
Rp9
.ccollections
OrderedDict
p0
((lp1
(lp2
S'timestamp'
p3
aF6.770952224731445
aa(lp4
S'distance'
p5
aF39.905014991760254
aa(lp6
S'state'
p7
aI400
aatp8
Rp9
.ccollections
OrderedDict
p0
((lp1
(lp2
S'timestamp'
p3
aF6.780747175216675
aa(lp4
S'distance'
p5
aF39.905014991760254
aa(lp6
S'state'
p7
aI400
aatp8
Rp9
.ccollections
OrderedDict
p0
((lp1
(lp2
S'timestamp'
p3
aF6.780887126922607
aa(lp4
S'distance'
p5
aF39.905014991760254
aa(lp6
S'state'
p7
aI400
aatp8
Rp9
.ccollections
OrderedDict
p0
((lp1
(lp2
S'timestamp'
p3
aF6.791299104690552
aa(lp4
S'distance'
p5
aF39.905014991760254
aa(lp6
S'state'
p7
aI400
aatp8
Rp9
.ccollections
OrderedDict
p0
((lp1
(lp2
S'timestamp'
p3
aF6.791367053985596
aa(lp4
S'distance'
p5
aF39.905014991760254
aa(lp6
S'state'
p7
aI400
aatp8
Rp9
.ccollections
OrderedDict
p0
((lp1
(lp2
S'timestamp'
p3
aF6.800428152084351
aa(lp4
S'distance'
p5
aF39.905014991760254
aa(lp6
S'state'
p7
aI400
aatp8
Rp9
.ccollections
OrderedDict
p0
((lp1
(lp2
S'timestamp'
p3
aF6.800858020782471
aa(lp4
S'distance'
p5
aF39.905014991760254
aa(lp6
S'state'
p7
aI400
aatp8
Rp9
.ccollections
OrderedDict
p0
((lp1
(lp2
S'timestamp'
p3
aF6.81052303314209
aa(lp4
S'distance'
p5
aF39.905014991760254
aa(lp6
S'state'
p7
aI400
aatp8
Rp9
.ccollections
OrderedDict
p0
((lp1
(lp2
S'timestamp'
p3
aF6.8109471797943115
aa(lp4
S'distance'
p5
aF39.905014991760254
aa(lp6
S'state'
p7
aI400
aatp8
Rp9
.ccollections
OrderedDict
p0
((lp1
(lp2
S'timestamp'
p3
aF6.820489168167114
aa(lp4
S'distance'
p5
aF39.905014991760254
aa(lp6
S'state'
p7
aI400
aatp8
Rp9
.ccollections
OrderedDict
p0
((lp1
(lp2
S'timestamp'
p3
aF6.820866107940674
aa(lp4
S'distance'
p5
aF39.905014991760254
aa(lp6
S'state'
p7
aI400
aatp8
Rp9
.ccollections
OrderedDict
p0
((lp1
(lp2
S'timestamp'
p3
aF6.830319166183472
aa(lp4
S'distance'
p5
aF39.905014991760254
aa(lp6
S'state'
p7
aI400
aatp8
Rp9
.ccollections
OrderedDict
p0
((lp1
(lp2
S'timestamp'
p3
aF6.831748008728027
aa(lp4
S'distance'
p5
aF39.905014991760254
aa(lp6
S'state'
p7
aI400
aatp8
Rp9
.ccollections
OrderedDict
p0
((lp1
(lp2
S'timestamp'
p3
aF6.840271234512329
aa(lp4
S'distance'
p5
aF39.905014991760254
aa(lp6
S'state'
p7
aI400
aatp8
Rp9
.ccollections
OrderedDict
p0
((lp1
(lp2
S'timestamp'
p3
aF6.840900182723999
aa(lp4
S'distance'
p5
aF39.905014991760254
aa(lp6
S'state'
p7
aI400
aatp8
Rp9
.ccollections
OrderedDict
p0
((lp1
(lp2
S'timestamp'
p3
aF6.85070013999939
aa(lp4
S'distance'
p5
aF39.905014991760254
aa(lp6
S'state'
p7
aI400
aatp8
Rp9
.ccollections
OrderedDict
p0
((lp1
(lp2
S'timestamp'
p3
aF6.850793123245239
aa(lp4
S'distance'
p5
aF39.905014991760254
aa(lp6
S'state'
p7
aI400
aatp8
Rp9
.ccollections
OrderedDict
p0
((lp1
(lp2
S'timestamp'
p3
aF6.860462188720703
aa(lp4
S'distance'
p5
aF39.905014991760254
aa(lp6
S'state'
p7
aI400
aatp8
Rp9
.ccollections
OrderedDict
p0
((lp1
(lp2
S'timestamp'
p3
aF6.860849142074585
aa(lp4
S'distance'
p5
aF39.905014991760254
aa(lp6
S'state'
p7
aI400
aatp8
Rp9
.ccollections
OrderedDict
p0
((lp1
(lp2
S'timestamp'
p3
aF6.870338201522827
aa(lp4
S'distance'
p5
aF39.905014991760254
aa(lp6
S'state'
p7
aI400
aatp8
Rp9
.ccollections
OrderedDict
p0
((lp1
(lp2
S'timestamp'
p3
aF6.870742082595825
aa(lp4
S'distance'
p5
aF39.905014991760254
aa(lp6
S'state'
p7
aI400
aatp8
Rp9
.ccollections
OrderedDict
p0
((lp1
(lp2
S'timestamp'
p3
aF6.880471229553223
aa(lp4
S'distance'
p5
aF39.905014991760254
aa(lp6
S'state'
p7
aI400
aatp8
Rp9
.ccollections
OrderedDict
p0
((lp1
(lp2
S'timestamp'
p3
aF6.88091516494751
aa(lp4
S'distance'
p5
aF39.905014991760254
aa(lp6
S'state'
p7
aI400
aatp8
Rp9
.ccollections
OrderedDict
p0
((lp1
(lp2
S'timestamp'
p3
aF6.890705108642578
aa(lp4
S'distance'
p5
aF39.905014991760254
aa(lp6
S'state'
p7
aI400
aatp8
Rp9
.ccollections
OrderedDict
p0
((lp1
(lp2
S'timestamp'
p3
aF6.89128303527832
aa(lp4
S'distance'
p5
aF39.905014991760254
aa(lp6
S'state'
p7
aI400
aatp8
Rp9
.ccollections
OrderedDict
p0
((lp1
(lp2
S'timestamp'
p3
aF6.900553226470947
aa(lp4
S'distance'
p5
aF39.905014991760254
aa(lp6
S'state'
p7
aI400
aatp8
Rp9
.ccollections
OrderedDict
p0
((lp1
(lp2
S'timestamp'
p3
aF6.900817155838013
aa(lp4
S'distance'
p5
aF39.905014991760254
aa(lp6
S'state'
p7
aI400
aatp8
Rp9
.ccollections
OrderedDict
p0
((lp1
(lp2
S'timestamp'
p3
aF6.910211086273193
aa(lp4
S'distance'
p5
aF39.905014991760254
aa(lp6
S'state'
p7
aI400
aatp8
Rp9
.ccollections
OrderedDict
p0
((lp1
(lp2
S'timestamp'
p3
aF6.910912036895752
aa(lp4
S'distance'
p5
aF39.905014991760254
aa(lp6
S'state'
p7
aI400
aatp8
Rp9
.ccollections
OrderedDict
p0
((lp1
(lp2
S'timestamp'
p3
aF6.920290231704712
aa(lp4
S'distance'
p5
aF39.905014991760254
aa(lp6
S'state'
p7
aI400
aatp8
Rp9
.ccollections
OrderedDict
p0
((lp1
(lp2
S'timestamp'
p3
aF6.9208080768585205
aa(lp4
S'distance'
p5
aF39.905014991760254
aa(lp6
S'state'
p7
aI400
aatp8
Rp9
.ccollections
OrderedDict
p0
((lp1
(lp2
S'timestamp'
p3
aF6.930420160293579
aa(lp4
S'distance'
p5
aF39.905014991760254
aa(lp6
S'state'
p7
aI400
aatp8
Rp9
.ccollections
OrderedDict
p0
((lp1
(lp2
S'timestamp'
p3
aF6.930958032608032
aa(lp4
S'distance'
p5
aF39.905014991760254
aa(lp6
S'state'
p7
aI400
aatp8
Rp9
.ccollections
OrderedDict
p0
((lp1
(lp2
S'timestamp'
p3
aF6.94028902053833
aa(lp4
S'distance'
p5
aF39.905014991760254
aa(lp6
S'state'
p7
aI400
aatp8
Rp9
.ccollections
OrderedDict
p0
((lp1
(lp2
S'timestamp'
p3
aF6.940842151641846
aa(lp4
S'distance'
p5
aF39.905014991760254
aa(lp6
S'state'
p7
aI400
aatp8
Rp9
.ccollections
OrderedDict
p0
((lp1
(lp2
S'timestamp'
p3
aF6.95038914680481
aa(lp4
S'distance'
p5
aF39.905014991760254
aa(lp6
S'state'
p7
aI400
aatp8
Rp9
.ccollections
OrderedDict
p0
((lp1
(lp2
S'timestamp'
p3
aF6.950887203216553
aa(lp4
S'distance'
p5
aF39.905014991760254
aa(lp6
S'state'
p7
aI400
aatp8
Rp9
.ccollections
OrderedDict
p0
((lp1
(lp2
S'timestamp'
p3
aF6.960259199142456
aa(lp4
S'distance'
p5
aF39.905014991760254
aa(lp6
S'state'
p7
aI400
aatp8
Rp9
.ccollections
OrderedDict
p0
((lp1
(lp2
S'timestamp'
p3
aF6.960779190063477
aa(lp4
S'distance'
p5
aF39.905014991760254
aa(lp6
S'state'
p7
aI400
aatp8
Rp9
.ccollections
OrderedDict
p0
((lp1
(lp2
S'timestamp'
p3
aF6.970349073410034
aa(lp4
S'distance'
p5
aF39.905014991760254
aa(lp6
S'state'
p7
aI400
aatp8
Rp9
.ccollections
OrderedDict
p0
((lp1
(lp2
S'timestamp'
p3
aF6.970859050750732
aa(lp4
S'distance'
p5
aF39.905014991760254
aa(lp6
S'state'
p7
aI400
aatp8
Rp9
.ccollections
OrderedDict
p0
((lp1
(lp2
S'timestamp'
p3
aF6.980493068695068
aa(lp4
S'distance'
p5
aF39.905014991760254
aa(lp6
S'state'
p7
aI400
aatp8
Rp9
.ccollections
OrderedDict
p0
((lp1
(lp2
S'timestamp'
p3
aF6.980905055999756
aa(lp4
S'distance'
p5
aF39.905014991760254
aa(lp6
S'state'
p7
aI400
aatp8
Rp9
.ccollections
OrderedDict
p0
((lp1
(lp2
S'timestamp'
p3
aF6.990863084793091
aa(lp4
S'distance'
p5
aF39.905014991760254
aa(lp6
S'state'
p7
aI400
aatp8
Rp9
.ccollections
OrderedDict
p0
((lp1
(lp2
S'timestamp'
p3
aF6.991372108459473
aa(lp4
S'distance'
p5
aF39.905014991760254
aa(lp6
S'state'
p7
aI400
aatp8
Rp9
.ccollections
OrderedDict
p0
((lp1
(lp2
S'timestamp'
p3
aF7.000672101974487
aa(lp4
S'distance'
p5
aF39.905014991760254
aa(lp6
S'state'
p7
aI400
aatp8
Rp9
.ccollections
OrderedDict
p0
((lp1
(lp2
S'timestamp'
p3
aF7.000746011734009
aa(lp4
S'distance'
p5
aF39.905014991760254
aa(lp6
S'state'
p7
aI400
aatp8
Rp9
.ccollections
OrderedDict
p0
((lp1
(lp2
S'timestamp'
p3
aF7.0108301639556885
aa(lp4
S'distance'
p5
aF39.905014991760254
aa(lp6
S'state'
p7
aI400
aatp8
Rp9
.ccollections
OrderedDict
p0
((lp1
(lp2
S'timestamp'
p3
aF7.010935068130493
aa(lp4
S'distance'
p5
aF39.905014991760254
aa(lp6
S'state'
p7
aI400
aatp8
Rp9
.ccollections
OrderedDict
p0
((lp1
(lp2
S'timestamp'
p3
aF7.02049708366394
aa(lp4
S'distance'
p5
aF39.905014991760254
aa(lp6
S'state'
p7
aI400
aatp8
Rp9
.ccollections
OrderedDict
p0
((lp1
(lp2
S'timestamp'
p3
aF7.020629167556763
aa(lp4
S'distance'
p5
aF39.905014991760254
aa(lp6
S'state'
p7
aI400
aatp8
Rp9
.ccollections
OrderedDict
p0
((lp1
(lp2
S'timestamp'
p3
aF7.030499219894409
aa(lp4
S'distance'
p5
aF39.905014991760254
aa(lp6
S'state'
p7
aI400
aatp8
Rp9
.ccollections
OrderedDict
p0
((lp1
(lp2
S'timestamp'
p3
aF7.030635118484497
aa(lp4
S'distance'
p5
aF39.905014991760254
aa(lp6
S'state'
p7
aI400
aatp8
Rp9
.ccollections
OrderedDict
p0
((lp1
(lp2
S'timestamp'
p3
aF7.04194712638855
aa(lp4
S'distance'
p5
aF39.905014991760254
aa(lp6
S'state'
p7
aI400
aatp8
Rp9
.ccollections
OrderedDict
p0
((lp1
(lp2
S'timestamp'
p3
aF7.042932033538818
aa(lp4
S'distance'
p5
aF39.905014991760254
aa(lp6
S'state'
p7
aI400
aatp8
Rp9
.ccollections
OrderedDict
p0
((lp1
(lp2
S'timestamp'
p3
aF7.050825119018555
aa(lp4
S'distance'
p5
aF39.905014991760254
aa(lp6
S'state'
p7
aI400
aatp8
Rp9
.ccollections
OrderedDict
p0
((lp1
(lp2
S'timestamp'
p3
aF7.050998210906982
aa(lp4
S'distance'
p5
aF39.905014991760254
aa(lp6
S'state'
p7
aI400
aatp8
Rp9
.ccollections
OrderedDict
p0
((lp1
(lp2
S'timestamp'
p3
aF7.061699151992798
aa(lp4
S'distance'
p5
aF39.905014991760254
aa(lp6
S'state'
p7
aI400
aatp8
Rp9
.ccollections
OrderedDict
p0
((lp1
(lp2
S'timestamp'
p3
aF7.06247615814209
aa(lp4
S'distance'
p5
aF39.905014991760254
aa(lp6
S'state'
p7
aI400
aatp8
Rp9
.ccollections
OrderedDict
p0
((lp1
(lp2
S'timestamp'
p3
aF7.07007908821106
aa(lp4
S'distance'
p5
aF39.905014991760254
aa(lp6
S'state'
p7
aI400
aatp8
Rp9
.ccollections
OrderedDict
p0
((lp1
(lp2
S'timestamp'
p3
aF7.070741176605225
aa(lp4
S'distance'
p5
aF39.905014991760254
aa(lp6
S'state'
p7
aI400
aatp8
Rp9
.ccollections
OrderedDict
p0
((lp1
(lp2
S'timestamp'
p3
aF7.080315113067627
aa(lp4
S'distance'
p5
aF39.905014991760254
aa(lp6
S'state'
p7
aI400
aatp8
Rp9
.ccollections
OrderedDict
p0
((lp1
(lp2
S'timestamp'
p3
aF7.0808680057525635
aa(lp4
S'distance'
p5
aF39.905014991760254
aa(lp6
S'state'
p7
aI400
aatp8
Rp9
.ccollections
OrderedDict
p0
((lp1
(lp2
S'timestamp'
p3
aF7.090337038040161
aa(lp4
S'distance'
p5
aF39.905014991760254
aa(lp6
S'state'
p7
aI400
aatp8
Rp9
.ccollections
OrderedDict
p0
((lp1
(lp2
S'timestamp'
p3
aF7.090717077255249
aa(lp4
S'distance'
p5
aF39.905014991760254
aa(lp6
S'state'
p7
aI400
aatp8
Rp9
.ccollections
OrderedDict
p0
((lp1
(lp2
S'timestamp'
p3
aF7.100222110748291
aa(lp4
S'distance'
p5
aF39.905014991760254
aa(lp6
S'state'
p7
aI400
aatp8
Rp9
.ccollections
OrderedDict
p0
((lp1
(lp2
S'timestamp'
p3
aF7.100812196731567
aa(lp4
S'distance'
p5
aF39.905014991760254
aa(lp6
S'state'
p7
aI400
aatp8
Rp9
.ccollections
OrderedDict
p0
((lp1
(lp2
S'timestamp'
p3
aF7.110964059829712
aa(lp4
S'distance'
p5
aF39.905014991760254
aa(lp6
S'state'
p7
aI400
aatp8
Rp9
.ccollections
OrderedDict
p0
((lp1
(lp2
S'timestamp'
p3
aF7.1114091873168945
aa(lp4
S'distance'
p5
aF39.905014991760254
aa(lp6
S'state'
p7
aI400
aatp8
Rp9
.ccollections
OrderedDict
p0
((lp1
(lp2
S'timestamp'
p3
aF7.1199891567230225
aa(lp4
S'distance'
p5
aF39.905014991760254
aa(lp6
S'state'
p7
aI400
aatp8
Rp9
.ccollections
OrderedDict
p0
((lp1
(lp2
S'timestamp'
p3
aF7.120520114898682
aa(lp4
S'distance'
p5
aF39.905014991760254
aa(lp6
S'state'
p7
aI400
aatp8
Rp9
.ccollections
OrderedDict
p0
((lp1
(lp2
S'timestamp'
p3
aF7.130308151245117
aa(lp4
S'distance'
p5
aF39.905014991760254
aa(lp6
S'state'
p7
aI400
aatp8
Rp9
.ccollections
OrderedDict
p0
((lp1
(lp2
S'timestamp'
p3
aF7.130717039108276
aa(lp4
S'distance'
p5
aF39.905014991760254
aa(lp6
S'state'
p7
aI400
aatp8
Rp9
.ccollections
OrderedDict
p0
((lp1
(lp2
S'timestamp'
p3
aF7.140215158462524
aa(lp4
S'distance'
p5
aF39.905014991760254
aa(lp6
S'state'
p7
aI400
aatp8
Rp9
.ccollections
OrderedDict
p0
((lp1
(lp2
S'timestamp'
p3
aF7.1406800746917725
aa(lp4
S'distance'
p5
aF39.905014991760254
aa(lp6
S'state'
p7
aI400
aatp8
Rp9
.ccollections
OrderedDict
p0
((lp1
(lp2
S'timestamp'
p3
aF7.150219202041626
aa(lp4
S'distance'
p5
aF39.905014991760254
aa(lp6
S'state'
p7
aI400
aatp8
Rp9
.ccollections
OrderedDict
p0
((lp1
(lp2
S'timestamp'
p3
aF7.150753021240234
aa(lp4
S'distance'
p5
aF39.905014991760254
aa(lp6
S'state'
p7
aI400
aatp8
Rp9
.ccollections
OrderedDict
p0
((lp1
(lp2
S'timestamp'
p3
aF7.160009145736694
aa(lp4
S'distance'
p5
aF39.905014991760254
aa(lp6
S'state'
p7
aI400
aatp8
Rp9
.ccollections
OrderedDict
p0
((lp1
(lp2
S'timestamp'
p3
aF7.16080904006958
aa(lp4
S'distance'
p5
aF39.905014991760254
aa(lp6
S'state'
p7
aI400
aatp8
Rp9
.ccollections
OrderedDict
p0
((lp1
(lp2
S'timestamp'
p3
aF7.170326232910156
aa(lp4
S'distance'
p5
aF39.905014991760254
aa(lp6
S'state'
p7
aI400
aatp8
Rp9
.ccollections
OrderedDict
p0
((lp1
(lp2
S'timestamp'
p3
aF7.170569181442261
aa(lp4
S'distance'
p5
aF39.905014991760254
aa(lp6
S'state'
p7
aI400
aatp8
Rp9
.ccollections
OrderedDict
p0
((lp1
(lp2
S'timestamp'
p3
aF7.18019700050354
aa(lp4
S'distance'
p5
aF39.905014991760254
aa(lp6
S'state'
p7
aI400
aatp8
Rp9
.ccollections
OrderedDict
p0
((lp1
(lp2
S'timestamp'
p3
aF7.180523157119751
aa(lp4
S'distance'
p5
aF39.905014991760254
aa(lp6
S'state'
p7
aI400
aatp8
Rp9
.ccollections
OrderedDict
p0
((lp1
(lp2
S'timestamp'
p3
aF7.19044303894043
aa(lp4
S'distance'
p5
aF39.905014991760254
aa(lp6
S'state'
p7
aI400
aatp8
Rp9
.ccollections
OrderedDict
p0
((lp1
(lp2
S'timestamp'
p3
aF7.1905272006988525
aa(lp4
S'distance'
p5
aF39.905014991760254
aa(lp6
S'state'
p7
aI400
aatp8
Rp9
.ccollections
OrderedDict
p0
((lp1
(lp2
S'timestamp'
p3
aF7.200040102005005
aa(lp4
S'distance'
p5
aF39.905014991760254
aa(lp6
S'state'
p7
aI400
aatp8
Rp9
.ccollections
OrderedDict
p0
((lp1
(lp2
S'timestamp'
p3
aF7.2005860805511475
aa(lp4
S'distance'
p5
aF39.905014991760254
aa(lp6
S'state'
p7
aI400
aatp8
Rp9
.ccollections
OrderedDict
p0
((lp1
(lp2
S'timestamp'
p3
aF7.210079193115234
aa(lp4
S'distance'
p5
aF39.905014991760254
aa(lp6
S'state'
p7
aI400
aatp8
Rp9
.ccollections
OrderedDict
p0
((lp1
(lp2
S'timestamp'
p3
aF7.210619211196899
aa(lp4
S'distance'
p5
aF39.905014991760254
aa(lp6
S'state'
p7
aI400
aatp8
Rp9
.ccollections
OrderedDict
p0
((lp1
(lp2
S'timestamp'
p3
aF7.230483055114746
aa(lp4
S'distance'
p5
aF39.905014991760254
aa(lp6
S'state'
p7
aI400
aatp8
Rp9
.ccollections
OrderedDict
p0
((lp1
(lp2
S'timestamp'
p3
aF7.230611085891724
aa(lp4
S'distance'
p5
aF39.905014991760254
aa(lp6
S'state'
p7
aI400
aatp8
Rp9
.ccollections
OrderedDict
p0
((lp1
(lp2
S'timestamp'
p3
aF7.230985164642334
aa(lp4
S'distance'
p5
aF39.905014991760254
aa(lp6
S'state'
p7
aI400
aatp8
Rp9
.ccollections
OrderedDict
p0
((lp1
(lp2
S'timestamp'
p3
aF7.231522083282471
aa(lp4
S'distance'
p5
aF39.905014991760254
aa(lp6
S'state'
p7
aI400
aatp8
Rp9
.ccollections
OrderedDict
p0
((lp1
(lp2
S'timestamp'
p3
aF7.240305185317993
aa(lp4
S'distance'
p5
aF39.905014991760254
aa(lp6
S'state'
p7
aI400
aatp8
Rp9
.ccollections
OrderedDict
p0
((lp1
(lp2
S'timestamp'
p3
aF7.240459203720093
aa(lp4
S'distance'
p5
aF39.905014991760254
aa(lp6
S'state'
p7
aI400
aatp8
Rp9
.ccollections
OrderedDict
p0
((lp1
(lp2
S'timestamp'
p3
aF7.250123023986816
aa(lp4
S'distance'
p5
aF39.905014991760254
aa(lp6
S'state'
p7
aI400
aatp8
Rp9
.ccollections
OrderedDict
p0
((lp1
(lp2
S'timestamp'
p3
aF7.250734090805054
aa(lp4
S'distance'
p5
aF39.905014991760254
aa(lp6
S'state'
p7
aI400
aatp8
Rp9
.ccollections
OrderedDict
p0
((lp1
(lp2
S'timestamp'
p3
aF7.259982109069824
aa(lp4
S'distance'
p5
aF39.905014991760254
aa(lp6
S'state'
p7
aI400
aatp8
Rp9
.ccollections
OrderedDict
p0
((lp1
(lp2
S'timestamp'
p3
aF7.2606282234191895
aa(lp4
S'distance'
p5
aF39.905014991760254
aa(lp6
S'state'
p7
aI400
aatp8
Rp9
.ccollections
OrderedDict
p0
((lp1
(lp2
S'timestamp'
p3
aF7.2700440883636475
aa(lp4
S'distance'
p5
aF39.905014991760254
aa(lp6
S'state'
p7
aI400
aatp8
Rp9
.ccollections
OrderedDict
p0
((lp1
(lp2
S'timestamp'
p3
aF7.270860195159912
aa(lp4
S'distance'
p5
aF39.905014991760254
aa(lp6
S'state'
p7
aI400
aatp8
Rp9
.ccollections
OrderedDict
p0
((lp1
(lp2
S'timestamp'
p3
aF7.279860019683838
aa(lp4
S'distance'
p5
aF39.905014991760254
aa(lp6
S'state'
p7
aI400
aatp8
Rp9
.ccollections
OrderedDict
p0
((lp1
(lp2
S'timestamp'
p3
aF7.280576229095459
aa(lp4
S'distance'
p5
aF39.905014991760254
aa(lp6
S'state'
p7
aI400
aatp8
Rp9
.ccollections
OrderedDict
p0
((lp1
(lp2
S'timestamp'
p3
aF7.2900071144104
aa(lp4
S'distance'
p5
aF39.905014991760254
aa(lp6
S'state'
p7
aI400
aatp8
Rp9
.ccollections
OrderedDict
p0
((lp1
(lp2
S'timestamp'
p3
aF7.290869235992432
aa(lp4
S'distance'
p5
aF39.905014991760254
aa(lp6
S'state'
p7
aI400
aatp8
Rp9
.ccollections
OrderedDict
p0
((lp1
(lp2
S'timestamp'
p3
aF7.300087213516235
aa(lp4
S'distance'
p5
aF39.905014991760254
aa(lp6
S'state'
p7
aI400
aatp8
Rp9
.ccollections
OrderedDict
p0
((lp1
(lp2
S'timestamp'
p3
aF7.300595045089722
aa(lp4
S'distance'
p5
aF39.905014991760254
aa(lp6
S'state'
p7
aI400
aatp8
Rp9
.ccollections
OrderedDict
p0
((lp1
(lp2
S'timestamp'
p3
aF7.310086011886597
aa(lp4
S'distance'
p5
aF39.905014991760254
aa(lp6
S'state'
p7
aI400
aatp8
Rp9
.ccollections
OrderedDict
p0
((lp1
(lp2
S'timestamp'
p3
aF7.310631036758423
aa(lp4
S'distance'
p5
aF39.905014991760254
aa(lp6
S'state'
p7
aI400
aatp8
Rp9
.ccollections
OrderedDict
p0
((lp1
(lp2
S'timestamp'
p3
aF7.320069074630737
aa(lp4
S'distance'
p5
aF39.905014991760254
aa(lp6
S'state'
p7
aI400
aatp8
Rp9
.ccollections
OrderedDict
p0
((lp1
(lp2
S'timestamp'
p3
aF7.320562124252319
aa(lp4
S'distance'
p5
aF39.905014991760254
aa(lp6
S'state'
p7
aI400
aatp8
Rp9
.ccollections
OrderedDict
p0
((lp1
(lp2
S'timestamp'
p3
aF7.330205202102661
aa(lp4
S'distance'
p5
aF39.905014991760254
aa(lp6
S'state'
p7
aI400
aatp8
Rp9
.ccollections
OrderedDict
p0
((lp1
(lp2
S'timestamp'
p3
aF7.330563068389893
aa(lp4
S'distance'
p5
aF39.905014991760254
aa(lp6
S'state'
p7
aI400
aatp8
Rp9
.ccollections
OrderedDict
p0
((lp1
(lp2
S'timestamp'
p3
aF7.340033054351807
aa(lp4
S'distance'
p5
aF39.905014991760254
aa(lp6
S'state'
p7
aI400
aatp8
Rp9
.ccollections
OrderedDict
p0
((lp1
(lp2
S'timestamp'
p3
aF7.340527057647705
aa(lp4
S'distance'
p5
aF39.905014991760254
aa(lp6
S'state'
p7
aI400
aatp8
Rp9
.ccollections
OrderedDict
p0
((lp1
(lp2
S'timestamp'
p3
aF7.350642204284668
aa(lp4
S'distance'
p5
aF39.905014991760254
aa(lp6
S'state'
p7
aI400
aatp8
Rp9
.ccollections
OrderedDict
p0
((lp1
(lp2
S'timestamp'
p3
aF7.352037191390991
aa(lp4
S'distance'
p5
aF39.905014991760254
aa(lp6
S'state'
p7
aI400
aatp8
Rp9
.ccollections
OrderedDict
p0
((lp1
(lp2
S'timestamp'
p3
aF7.360018014907837
aa(lp4
S'distance'
p5
aF39.905014991760254
aa(lp6
S'state'
p7
aI400
aatp8
Rp9
.ccollections
OrderedDict
p0
((lp1
(lp2
S'timestamp'
p3
aF7.360428094863892
aa(lp4
S'distance'
p5
aF39.905014991760254
aa(lp6
S'state'
p7
aI400
aatp8
Rp9
.ccollections
OrderedDict
p0
((lp1
(lp2
S'timestamp'
p3
aF7.370037078857422
aa(lp4
S'distance'
p5
aF39.905014991760254
aa(lp6
S'state'
p7
aI400
aatp8
Rp9
.ccollections
OrderedDict
p0
((lp1
(lp2
S'timestamp'
p3
aF7.370490074157715
aa(lp4
S'distance'
p5
aF39.905014991760254
aa(lp6
S'state'
p7
aI400
aatp8
Rp9
.ccollections
OrderedDict
p0
((lp1
(lp2
S'timestamp'
p3
aF7.379970073699951
aa(lp4
S'distance'
p5
aF39.905014991760254
aa(lp6
S'state'
p7
aI400
aatp8
Rp9
.ccollections
OrderedDict
p0
((lp1
(lp2
S'timestamp'
p3
aF7.380453109741211
aa(lp4
S'distance'
p5
aF39.905014991760254
aa(lp6
S'state'
p7
aI400
aatp8
Rp9
.ccollections
OrderedDict
p0
((lp1
(lp2
S'timestamp'
p3
aF7.389998197555542
aa(lp4
S'distance'
p5
aF39.905014991760254
aa(lp6
S'state'
p7
aI400
aatp8
Rp9
.ccollections
OrderedDict
p0
((lp1
(lp2
S'timestamp'
p3
aF7.390458106994629
aa(lp4
S'distance'
p5
aF39.905014991760254
aa(lp6
S'state'
p7
aI400
aatp8
Rp9
.ccollections
OrderedDict
p0
((lp1
(lp2
S'timestamp'
p3
aF7.400773048400879
aa(lp4
S'distance'
p5
aF39.905014991760254
aa(lp6
S'state'
p7
aI400
aatp8
Rp9
.ccollections
OrderedDict
p0
((lp1
(lp2
S'timestamp'
p3
aF7.400925159454346
aa(lp4
S'distance'
p5
aF39.905014991760254
aa(lp6
S'state'
p7
aI400
aatp8
Rp9
.ccollections
OrderedDict
p0
((lp1
(lp2
S'timestamp'
p3
aF7.4098381996154785
aa(lp4
S'distance'
p5
aF39.905014991760254
aa(lp6
S'state'
p7
aI400
aatp8
Rp9
.ccollections
OrderedDict
p0
((lp1
(lp2
S'timestamp'
p3
aF7.410427093505859
aa(lp4
S'distance'
p5
aF39.905014991760254
aa(lp6
S'state'
p7
aI400
aatp8
Rp9
.ccollections
OrderedDict
p0
((lp1
(lp2
S'timestamp'
p3
aF7.419838190078735
aa(lp4
S'distance'
p5
aF39.905014991760254
aa(lp6
S'state'
p7
aI400
aatp8
Rp9
.ccollections
OrderedDict
p0
((lp1
(lp2
S'timestamp'
p3
aF7.4204230308532715
aa(lp4
S'distance'
p5
aF39.905014991760254
aa(lp6
S'state'
p7
aI400
aatp8
Rp9
.ccollections
OrderedDict
p0
((lp1
(lp2
S'timestamp'
p3
aF7.429853200912476
aa(lp4
S'distance'
p5
aF39.905014991760254
aa(lp6
S'state'
p7
aI400
aatp8
Rp9
.ccollections
OrderedDict
p0
((lp1
(lp2
S'timestamp'
p3
aF7.430376052856445
aa(lp4
S'distance'
p5
aF39.905014991760254
aa(lp6
S'state'
p7
aI400
aatp8
Rp9
.ccollections
OrderedDict
p0
((lp1
(lp2
S'timestamp'
p3
aF7.440232038497925
aa(lp4
S'distance'
p5
aF39.905014991760254
aa(lp6
S'state'
p7
aI400
aatp8
Rp9
.ccollections
OrderedDict
p0
((lp1
(lp2
S'timestamp'
p3
aF7.4409520626068115
aa(lp4
S'distance'
p5
aF39.905014991760254
aa(lp6
S'state'
p7
aI400
aatp8
Rp9
.ccollections
OrderedDict
p0
((lp1
(lp2
S'timestamp'
p3
aF7.450008153915405
aa(lp4
S'distance'
p5
aF39.905014991760254
aa(lp6
S'state'
p7
aI400
aatp8
Rp9
.ccollections
OrderedDict
p0
((lp1
(lp2
S'timestamp'
p3
aF7.450398206710815
aa(lp4
S'distance'
p5
aF39.905014991760254
aa(lp6
S'state'
p7
aI400
aatp8
Rp9
.ccollections
OrderedDict
p0
((lp1
(lp2
S'timestamp'
p3
aF7.460094213485718
aa(lp4
S'distance'
p5
aF39.905014991760254
aa(lp6
S'state'
p7
aI400
aatp8
Rp9
.ccollections
OrderedDict
p0
((lp1
(lp2
S'timestamp'
p3
aF7.460363149642944
aa(lp4
S'distance'
p5
aF39.905014991760254
aa(lp6
S'state'
p7
aI400
aatp8
Rp9
.ccollections
OrderedDict
p0
((lp1
(lp2
S'timestamp'
p3
aF7.470141172409058
aa(lp4
S'distance'
p5
aF39.905014991760254
aa(lp6
S'state'
p7
aI400
aatp8
Rp9
.ccollections
OrderedDict
p0
((lp1
(lp2
S'timestamp'
p3
aF7.470319032669067
aa(lp4
S'distance'
p5
aF39.905014991760254
aa(lp6
S'state'
p7
aI400
aatp8
Rp9
.ccollections
OrderedDict
p0
((lp1
(lp2
S'timestamp'
p3
aF7.479974031448364
aa(lp4
S'distance'
p5
aF39.905014991760254
aa(lp6
S'state'
p7
aI400
aatp8
Rp9
.ccollections
OrderedDict
p0
((lp1
(lp2
S'timestamp'
p3
aF7.480379104614258
aa(lp4
S'distance'
p5
aF39.905014991760254
aa(lp6
S'state'
p7
aI400
aatp8
Rp9
.ccollections
OrderedDict
p0
((lp1
(lp2
S'timestamp'
p3
aF7.489999055862427
aa(lp4
S'distance'
p5
aF39.905014991760254
aa(lp6
S'state'
p7
aI400
aatp8
Rp9
.ccollections
OrderedDict
p0
((lp1
(lp2
S'timestamp'
p3
aF7.490281105041504
aa(lp4
S'distance'
p5
aF39.905014991760254
aa(lp6
S'state'
p7
aI400
aatp8
Rp9
.ccollections
OrderedDict
p0
((lp1
(lp2
S'timestamp'
p3
aF7.499844074249268
aa(lp4
S'distance'
p5
aF39.905014991760254
aa(lp6
S'state'
p7
aI400
aatp8
Rp9
.ccollections
OrderedDict
p0
((lp1
(lp2
S'timestamp'
p3
aF7.500269174575806
aa(lp4
S'distance'
p5
aF39.905014991760254
aa(lp6
S'state'
p7
aI400
aatp8
Rp9
.ccollections
OrderedDict
p0
((lp1
(lp2
S'timestamp'
p3
aF7.5101401805877686
aa(lp4
S'distance'
p5
aF39.905014991760254
aa(lp6
S'state'
p7
aI400
aatp8
Rp9
.ccollections
OrderedDict
p0
((lp1
(lp2
S'timestamp'
p3
aF7.510258197784424
aa(lp4
S'distance'
p5
aF39.905014991760254
aa(lp6
S'state'
p7
aI400
aatp8
Rp9
.ccollections
OrderedDict
p0
((lp1
(lp2
S'timestamp'
p3
aF7.519991159439087
aa(lp4
S'distance'
p5
aF39.905014991760254
aa(lp6
S'state'
p7
aI400
aatp8
Rp9
.ccollections
OrderedDict
p0
((lp1
(lp2
S'timestamp'
p3
aF7.520279169082642
aa(lp4
S'distance'
p5
aF39.905014991760254
aa(lp6
S'state'
p7
aI400
aatp8
Rp9
.ccollections
OrderedDict
p0
((lp1
(lp2
S'timestamp'
p3
aF7.531294107437134
aa(lp4
S'distance'
p5
aF39.905014991760254
aa(lp6
S'state'
p7
aI400
aatp8
Rp9
.ccollections
OrderedDict
p0
((lp1
(lp2
S'timestamp'
p3
aF7.532020092010498
aa(lp4
S'distance'
p5
aF39.905014991760254
aa(lp6
S'state'
p7
aI400
aatp8
Rp9
.ccollections
OrderedDict
p0
((lp1
(lp2
S'timestamp'
p3
aF7.539814233779907
aa(lp4
S'distance'
p5
aF39.905014991760254
aa(lp6
S'state'
p7
aI400
aatp8
Rp9
.ccollections
OrderedDict
p0
((lp1
(lp2
S'timestamp'
p3
aF7.54024600982666
aa(lp4
S'distance'
p5
aF39.905014991760254
aa(lp6
S'state'
p7
aI400
aatp8
Rp9
.ccollections
OrderedDict
p0
((lp1
(lp2
S'timestamp'
p3
aF7.54991602897644
aa(lp4
S'distance'
p5
aF39.905014991760254
aa(lp6
S'state'
p7
aI400
aatp8
Rp9
.ccollections
OrderedDict
p0
((lp1
(lp2
S'timestamp'
p3
aF7.550365209579468
aa(lp4
S'distance'
p5
aF39.905014991760254
aa(lp6
S'state'
p7
aI400
aatp8
Rp9
.ccollections
OrderedDict
p0
((lp1
(lp2
S'timestamp'
p3
aF7.560350179672241
aa(lp4
S'distance'
p5
aF39.905014991760254
aa(lp6
S'state'
p7
aI400
aatp8
Rp9
.ccollections
OrderedDict
p0
((lp1
(lp2
S'timestamp'
p3
aF7.560481071472168
aa(lp4
S'distance'
p5
aF39.905014991760254
aa(lp6
S'state'
p7
aI400
aatp8
Rp9
.ccollections
OrderedDict
p0
((lp1
(lp2
S'timestamp'
p3
aF7.569728136062622
aa(lp4
S'distance'
p5
aF39.905014991760254
aa(lp6
S'state'
p7
aI400
aatp8
Rp9
.ccollections
OrderedDict
p0
((lp1
(lp2
S'timestamp'
p3
aF7.570354223251343
aa(lp4
S'distance'
p5
aF39.905014991760254
aa(lp6
S'state'
p7
aI400
aatp8
Rp9
.ccollections
OrderedDict
p0
((lp1
(lp2
S'timestamp'
p3
aF7.580007076263428
aa(lp4
S'distance'
p5
aF39.905014991760254
aa(lp6
S'state'
p7
aI400
aatp8
Rp9
.ccollections
OrderedDict
p0
((lp1
(lp2
S'timestamp'
p3
aF7.580144166946411
aa(lp4
S'distance'
p5
aF39.905014991760254
aa(lp6
S'state'
p7
aI400
aatp8
Rp9
.ccollections
OrderedDict
p0
((lp1
(lp2
S'timestamp'
p3
aF7.5896711349487305
aa(lp4
S'distance'
p5
aF39.905014991760254
aa(lp6
S'state'
p7
aI400
aatp8
Rp9
.ccollections
OrderedDict
p0
((lp1
(lp2
S'timestamp'
p3
aF7.590248107910156
aa(lp4
S'distance'
p5
aF39.905014991760254
aa(lp6
S'state'
p7
aI400
aatp8
Rp9
.ccollections
OrderedDict
p0
((lp1
(lp2
S'timestamp'
p3
aF7.599860191345215
aa(lp4
S'distance'
p5
aF39.905014991760254
aa(lp6
S'state'
p7
aI400
aatp8
Rp9
.ccollections
OrderedDict
p0
((lp1
(lp2
S'timestamp'
p3
aF7.600321054458618
aa(lp4
S'distance'
p5
aF39.905014991760254
aa(lp6
S'state'
p7
aI400
aatp8
Rp9
.ccollections
OrderedDict
p0
((lp1
(lp2
S'timestamp'
p3
aF7.6098010540008545
aa(lp4
S'distance'
p5
aF39.905014991760254
aa(lp6
S'state'
p7
aI400
aatp8
Rp9
.ccollections
OrderedDict
p0
((lp1
(lp2
S'timestamp'
p3
aF7.610197067260742
aa(lp4
S'distance'
p5
aF39.905014991760254
aa(lp6
S'state'
p7
aI400
aatp8
Rp9
.ccollections
OrderedDict
p0
((lp1
(lp2
S'timestamp'
p3
aF7.619874000549316
aa(lp4
S'distance'
p5
aF39.905014991760254
aa(lp6
S'state'
p7
aI400
aatp8
Rp9
.ccollections
OrderedDict
p0
((lp1
(lp2
S'timestamp'
p3
aF7.62021803855896
aa(lp4
S'distance'
p5
aF39.905014991760254
aa(lp6
S'state'
p7
aI400
aatp8
Rp9
.ccollections
OrderedDict
p0
((lp1
(lp2
S'timestamp'
p3
aF7.629659175872803
aa(lp4
S'distance'
p5
aF39.905014991760254
aa(lp6
S'state'
p7
aI400
aatp8
Rp9
.ccollections
OrderedDict
p0
((lp1
(lp2
S'timestamp'
p3
aF7.6399500370025635
aa(lp4
S'distance'
p5
aF39.905014991760254
aa(lp6
S'state'
p7
aI400
aatp8
Rp9
.ccollections
OrderedDict
p0
((lp1
(lp2
S'timestamp'
p3
aF7.640067100524902
aa(lp4
S'distance'
p5
aF39.905014991760254
aa(lp6
S'state'
p7
aI400
aatp8
Rp9
.ccollections
OrderedDict
p0
((lp1
(lp2
S'timestamp'
p3
aF7.640996217727661
aa(lp4
S'distance'
p5
aF39.905014991760254
aa(lp6
S'state'
p7
aI400
aatp8
Rp9
.ccollections
OrderedDict
p0
((lp1
(lp2
S'timestamp'
p3
aF7.649579048156738
aa(lp4
S'distance'
p5
aF39.905014991760254
aa(lp6
S'state'
p7
aI400
aatp8
Rp9
.ccollections
OrderedDict
p0
((lp1
(lp2
S'timestamp'
p3
aF7.6503682136535645
aa(lp4
S'distance'
p5
aF39.905014991760254
aa(lp6
S'state'
p7
aI400
aatp8
Rp9
.ccollections
OrderedDict
p0
((lp1
(lp2
S'timestamp'
p3
aF7.6598060131073
aa(lp4
S'distance'
p5
aF39.905014991760254
aa(lp6
S'state'
p7
aI400
aatp8
Rp9
.ccollections
OrderedDict
p0
((lp1
(lp2
S'timestamp'
p3
aF7.660232067108154
aa(lp4
S'distance'
p5
aF39.905014991760254
aa(lp6
S'state'
p7
aI400
aatp8
Rp9
.ccollections
OrderedDict
p0
((lp1
(lp2
S'timestamp'
p3
aF7.669757127761841
aa(lp4
S'distance'
p5
aF39.905014991760254
aa(lp6
S'state'
p7
aI400
aatp8
Rp9
.ccollections
OrderedDict
p0
((lp1
(lp2
S'timestamp'
p3
aF7.670285224914551
aa(lp4
S'distance'
p5
aF39.905014991760254
aa(lp6
S'state'
p7
aI400
aatp8
Rp9
.ccollections
OrderedDict
p0
((lp1
(lp2
S'timestamp'
p3
aF7.679969072341919
aa(lp4
S'distance'
p5
aF39.905014991760254
aa(lp6
S'state'
p7
aI400
aatp8
Rp9
.ccollections
OrderedDict
p0
((lp1
(lp2
S'timestamp'
p3
aF7.680095195770264
aa(lp4
S'distance'
p5
aF39.905014991760254
aa(lp6
S'state'
p7
aI400
aatp8
Rp9
.ccollections
OrderedDict
p0
((lp1
(lp2
S'timestamp'
p3
aF7.689796209335327
aa(lp4
S'distance'
p5
aF39.905014991760254
aa(lp6
S'state'
p7
aI400
aatp8
Rp9
.ccollections
OrderedDict
p0
((lp1
(lp2
S'timestamp'
p3
aF7.690213203430176
aa(lp4
S'distance'
p5
aF39.905014991760254
aa(lp6
S'state'
p7
aI400
aatp8
Rp9
.ccollections
OrderedDict
p0
((lp1
(lp2
S'timestamp'
p3
aF7.699953079223633
aa(lp4
S'distance'
p5
aF39.905014991760254
aa(lp6
S'state'
p7
aI400
aatp8
Rp9
.ccollections
OrderedDict
p0
((lp1
(lp2
S'timestamp'
p3
aF7.700055122375488
aa(lp4
S'distance'
p5
aF39.905014991760254
aa(lp6
S'state'
p7
aI400
aatp8
Rp9
.ccollections
OrderedDict
p0
((lp1
(lp2
S'timestamp'
p3
aF7.709734201431274
aa(lp4
S'distance'
p5
aF39.905014991760254
aa(lp6
S'state'
p7
aI400
aatp8
Rp9
.ccollections
OrderedDict
p0
((lp1
(lp2
S'timestamp'
p3
aF7.710099220275879
aa(lp4
S'distance'
p5
aF39.905014991760254
aa(lp6
S'state'
p7
aI400
aatp8
Rp9
.ccollections
OrderedDict
p0
((lp1
(lp2
S'timestamp'
p3
aF7.720714092254639
aa(lp4
S'distance'
p5
aF39.905014991760254
aa(lp6
S'state'
p7
aI400
aatp8
Rp9
.ccollections
OrderedDict
p0
((lp1
(lp2
S'timestamp'
p3
aF7.720924139022827
aa(lp4
S'distance'
p5
aF39.905014991760254
aa(lp6
S'state'
p7
aI400
aatp8
Rp9
.ccollections
OrderedDict
p0
((lp1
(lp2
S'timestamp'
p3
aF7.729913234710693
aa(lp4
S'distance'
p5
aF39.905014991760254
aa(lp6
S'state'
p7
aI400
aatp8
Rp9
.ccollections
OrderedDict
p0
((lp1
(lp2
S'timestamp'
p3
aF7.730042219161987
aa(lp4
S'distance'
p5
aF39.905014991760254
aa(lp6
S'state'
p7
aI400
aatp8
Rp9
.ccollections
OrderedDict
p0
((lp1
(lp2
S'timestamp'
p3
aF7.741244077682495
aa(lp4
S'distance'
p5
aF39.905014991760254
aa(lp6
S'state'
p7
aI400
aatp8
Rp9
.ccollections
OrderedDict
p0
((lp1
(lp2
S'timestamp'
p3
aF7.7426910400390625
aa(lp4
S'distance'
p5
aF39.905014991760254
aa(lp6
S'state'
p7
aI400
aatp8
Rp9
.ccollections
OrderedDict
p0
((lp1
(lp2
S'timestamp'
p3
aF7.749714136123657
aa(lp4
S'distance'
p5
aF39.905014991760254
aa(lp6
S'state'
p7
aI400
aatp8
Rp9
.ccollections
OrderedDict
p0
((lp1
(lp2
S'timestamp'
p3
aF7.750063180923462
aa(lp4
S'distance'
p5
aF39.905014991760254
aa(lp6
S'state'
p7
aI400
aatp8
Rp9
.ccollections
OrderedDict
p0
((lp1
(lp2
S'timestamp'
p3
aF7.759929180145264
aa(lp4
S'distance'
p5
aF39.905014991760254
aa(lp6
S'state'
p7
aI400
aatp8
Rp9
.ccollections
OrderedDict
p0
((lp1
(lp2
S'timestamp'
p3
aF7.761176109313965
aa(lp4
S'distance'
p5
aF39.905014991760254
aa(lp6
S'state'
p7
aI400
aatp8
Rp9
.ccollections
OrderedDict
p0
((lp1
(lp2
S'timestamp'
p3
aF7.769883155822754
aa(lp4
S'distance'
p5
aF39.905014991760254
aa(lp6
S'state'
p7
aI400
aatp8
Rp9
.ccollections
OrderedDict
p0
((lp1
(lp2
S'timestamp'
p3
aF7.770013093948364
aa(lp4
S'distance'
p5
aF39.905014991760254
aa(lp6
S'state'
p7
aI400
aatp8
Rp9
.ccollections
OrderedDict
p0
((lp1
(lp2
S'timestamp'
p3
aF7.779821157455444
aa(lp4
S'distance'
p5
aF39.905014991760254
aa(lp6
S'state'
p7
aI400
aatp8
Rp9
.ccollections
OrderedDict
p0
((lp1
(lp2
S'timestamp'
p3
aF7.780063152313232
aa(lp4
S'distance'
p5
aF39.905014991760254
aa(lp6
S'state'
p7
aI400
aatp8
Rp9
.ccollections
OrderedDict
p0
((lp1
(lp2
S'timestamp'
p3
aF7.789624214172363
aa(lp4
S'distance'
p5
aF39.905014991760254
aa(lp6
S'state'
p7
aI400
aatp8
Rp9
.ccollections
OrderedDict
p0
((lp1
(lp2
S'timestamp'
p3
aF7.789968013763428
aa(lp4
S'distance'
p5
aF39.905014991760254
aa(lp6
S'state'
p7
aI400
aatp8
Rp9
.ccollections
OrderedDict
p0
((lp1
(lp2
S'timestamp'
p3
aF7.799875020980835
aa(lp4
S'distance'
p5
aF39.905014991760254
aa(lp6
S'state'
p7
aI400
aatp8
Rp9
.ccollections
OrderedDict
p0
((lp1
(lp2
S'timestamp'
p3
aF7.80000901222229
aa(lp4
S'distance'
p5
aF39.905014991760254
aa(lp6
S'state'
p7
aI400
aatp8
Rp9
.ccollections
OrderedDict
p0
((lp1
(lp2
S'timestamp'
p3
aF7.809699058532715
aa(lp4
S'distance'
p5
aF39.905014991760254
aa(lp6
S'state'
p7
aI400
aatp8
Rp9
.ccollections
OrderedDict
p0
((lp1
(lp2
S'timestamp'
p3
aF7.810092210769653
aa(lp4
S'distance'
p5
aF39.905014991760254
aa(lp6
S'state'
p7
aI400
aatp8
Rp9
.ccollections
OrderedDict
p0
((lp1
(lp2
S'timestamp'
p3
aF7.820073127746582
aa(lp4
S'distance'
p5
aF39.905014991760254
aa(lp6
S'state'
p7
aI400
aatp8
Rp9
.ccollections
OrderedDict
p0
((lp1
(lp2
S'timestamp'
p3
aF7.821759223937988
aa(lp4
S'distance'
p5
aF39.905014991760254
aa(lp6
S'state'
p7
aI400
aatp8
Rp9
.ccollections
OrderedDict
p0
((lp1
(lp2
S'timestamp'
p3
aF7.830923080444336
aa(lp4
S'distance'
p5
aF39.905014991760254
aa(lp6
S'state'
p7
aI400
aatp8
Rp9
.ccollections
OrderedDict
p0
((lp1
(lp2
S'timestamp'
p3
aF7.8310301303863525
aa(lp4
S'distance'
p5
aF39.905014991760254
aa(lp6
S'state'
p7
aI400
aatp8
Rp9
.ccollections
OrderedDict
p0
((lp1
(lp2
S'timestamp'
p3
aF7.839442014694214
aa(lp4
S'distance'
p5
aF39.905014991760254
aa(lp6
S'state'
p7
aI400
aatp8
Rp9
.ccollections
OrderedDict
p0
((lp1
(lp2
S'timestamp'
p3
aF7.8403050899505615
aa(lp4
S'distance'
p5
aF39.905014991760254
aa(lp6
S'state'
p7
aI400
aatp8
Rp9
.ccollections
OrderedDict
p0
((lp1
(lp2
S'timestamp'
p3
aF7.849618196487427
aa(lp4
S'distance'
p5
aF39.905014991760254
aa(lp6
S'state'
p7
aI400
aatp8
Rp9
.ccollections
OrderedDict
p0
((lp1
(lp2
S'timestamp'
p3
aF7.850121021270752
aa(lp4
S'distance'
p5
aF39.905014991760254
aa(lp6
S'state'
p7
aI400
aatp8
Rp9
.ccollections
OrderedDict
p0
((lp1
(lp2
S'timestamp'
p3
aF7.859640121459961
aa(lp4
S'distance'
p5
aF39.905014991760254
aa(lp6
S'state'
p7
aI400
aatp8
Rp9
.ccollections
OrderedDict
p0
((lp1
(lp2
S'timestamp'
p3
aF7.859960079193115
aa(lp4
S'distance'
p5
aF39.905014991760254
aa(lp6
S'state'
p7
aI400
aatp8
Rp9
.ccollections
OrderedDict
p0
((lp1
(lp2
S'timestamp'
p3
aF7.869688034057617
aa(lp4
S'distance'
p5
aF39.905014991760254
aa(lp6
S'state'
p7
aI400
aatp8
Rp9
.ccollections
OrderedDict
p0
((lp1
(lp2
S'timestamp'
p3
aF7.87951922416687
aa(lp4
S'distance'
p5
aF39.905014991760254
aa(lp6
S'state'
p7
aI400
aatp8
Rp9
.ccollections
OrderedDict
p0
((lp1
(lp2
S'timestamp'
p3
aF7.879913091659546
aa(lp4
S'distance'
p5
aF39.905014991760254
aa(lp6
S'state'
p7
aI400
aatp8
Rp9
.ccollections
OrderedDict
p0
((lp1
(lp2
S'timestamp'
p3
aF7.880494117736816
aa(lp4
S'distance'
p5
aF39.905014991760254
aa(lp6
S'state'
p7
aI400
aatp8
Rp9
.ccollections
OrderedDict
p0
((lp1
(lp2
S'timestamp'
p3
aF7.889915227890015
aa(lp4
S'distance'
p5
aF39.905014991760254
aa(lp6
S'state'
p7
aI400
aatp8
Rp9
.ccollections
OrderedDict
p0
((lp1
(lp2
S'timestamp'
p3
aF7.890007019042969
aa(lp4
S'distance'
p5
aF39.905014991760254
aa(lp6
S'state'
p7
aI400
aatp8
Rp9
.ccollections
OrderedDict
p0
((lp1
(lp2
S'timestamp'
p3
aF7.899925231933594
aa(lp4
S'distance'
p5
aF39.905014991760254
aa(lp6
S'state'
p7
aI400
aatp8
Rp9
.ccollections
OrderedDict
p0
((lp1
(lp2
S'timestamp'
p3
aF7.90027117729187
aa(lp4
S'distance'
p5
aF39.905014991760254
aa(lp6
S'state'
p7
aI400
aatp8
Rp9
.ccollections
OrderedDict
p0
((lp1
(lp2
S'timestamp'
p3
aF7.909460067749023
aa(lp4
S'distance'
p5
aF39.905014991760254
aa(lp6
S'state'
p7
aI400
aatp8
Rp9
.ccollections
OrderedDict
p0
((lp1
(lp2
S'timestamp'
p3
aF7.909937143325806
aa(lp4
S'distance'
p5
aF39.905014991760254
aa(lp6
S'state'
p7
aI400
aatp8
Rp9
.ccollections
OrderedDict
p0
((lp1
(lp2
S'timestamp'
p3
aF7.919722080230713
aa(lp4
S'distance'
p5
aF39.905014991760254
aa(lp6
S'state'
p7
aI400
aatp8
Rp9
.ccollections
OrderedDict
p0
((lp1
(lp2
S'timestamp'
p3
aF7.919967174530029
aa(lp4
S'distance'
p5
aF39.905014991760254
aa(lp6
S'state'
p7
aI400
aatp8
Rp9
.ccollections
OrderedDict
p0
((lp1
(lp2
S'timestamp'
p3
aF7.929743051528931
aa(lp4
S'distance'
p5
aF39.905014991760254
aa(lp6
S'state'
p7
aI400
aatp8
Rp9
.ccollections
OrderedDict
p0
((lp1
(lp2
S'timestamp'
p3
aF7.929888010025024
aa(lp4
S'distance'
p5
aF39.905014991760254
aa(lp6
S'state'
p7
aI400
aatp8
Rp9
.ccollections
OrderedDict
p0
((lp1
(lp2
S'timestamp'
p3
aF7.941089153289795
aa(lp4
S'distance'
p5
aF39.905014991760254
aa(lp6
S'state'
p7
aI400
aatp8
Rp9
.ccollections
OrderedDict
p0
((lp1
(lp2
S'timestamp'
p3
aF7.942835092544556
aa(lp4
S'distance'
p5
aF39.905014991760254
aa(lp6
S'state'
p7
aI400
aatp8
Rp9
.ccollections
OrderedDict
p0
((lp1
(lp2
S'timestamp'
p3
aF7.950314044952393
aa(lp4
S'distance'
p5
aF39.905014991760254
aa(lp6
S'state'
p7
aI400
aatp8
Rp9
.ccollections
OrderedDict
p0
((lp1
(lp2
S'timestamp'
p3
aF7.9507811069488525
aa(lp4
S'distance'
p5
aF39.905014991760254
aa(lp6
S'state'
p7
aI400
aatp8
Rp9
.ccollections
OrderedDict
p0
((lp1
(lp2
S'timestamp'
p3
aF7.959926128387451
aa(lp4
S'distance'
p5
aF39.905014991760254
aa(lp6
S'state'
p7
aI400
aatp8
Rp9
.ccollections
OrderedDict
p0
((lp1
(lp2
S'timestamp'
p3
aF7.960020065307617
aa(lp4
S'distance'
p5
aF39.905014991760254
aa(lp6
S'state'
p7
aI400
aatp8
Rp9
.ccollections
OrderedDict
p0
((lp1
(lp2
S'timestamp'
p3
aF7.969842195510864
aa(lp4
S'distance'
p5
aF39.905014991760254
aa(lp6
S'state'
p7
aI400
aatp8
Rp9
.ccollections
OrderedDict
p0
((lp1
(lp2
S'timestamp'
p3
aF7.969949007034302
aa(lp4
S'distance'
p5
aF39.905014991760254
aa(lp6
S'state'
p7
aI400
aatp8
Rp9
.ccollections
OrderedDict
p0
((lp1
(lp2
S'timestamp'
p3
aF7.9796411991119385
aa(lp4
S'distance'
p5
aF39.905014991760254
aa(lp6
S'state'
p7
aI400
aatp8
Rp9
.ccollections
OrderedDict
p0
((lp1
(lp2
S'timestamp'
p3
aF7.979794025421143
aa(lp4
S'distance'
p5
aF39.905014991760254
aa(lp6
S'state'
p7
aI400
aatp8
Rp9
.ccollections
OrderedDict
p0
((lp1
(lp2
S'timestamp'
p3
aF7.989650011062622
aa(lp4
S'distance'
p5
aF39.905014991760254
aa(lp6
S'state'
p7
aI400
aatp8
Rp9
.ccollections
OrderedDict
p0
((lp1
(lp2
S'timestamp'
p3
aF7.989925146102905
aa(lp4
S'distance'
p5
aF39.905014991760254
aa(lp6
S'state'
p7
aI400
aatp8
Rp9
.ccollections
OrderedDict
p0
((lp1
(lp2
S'timestamp'
p3
aF7.999398231506348
aa(lp4
S'distance'
p5
aF39.905014991760254
aa(lp6
S'state'
p7
aI400
aatp8
Rp9
.ccollections
OrderedDict
p0
((lp1
(lp2
S'timestamp'
p3
aF7.9997780323028564
aa(lp4
S'distance'
p5
aF39.905014991760254
aa(lp6
S'state'
p7
aI400
aatp8
Rp9
.