ccollections
OrderedDict
p0
((lp1
(lp2
S'timestamp'
p3
aF0.0018460750579833984
aa(lp4
S'distance'
p5
aF389.4035186767578
aa(lp6
S'state'
p7
aI0
aatp8
Rp9
.ccollections
OrderedDict
p0
((lp1
(lp2
S'timestamp'
p3
aF0.0022101402282714844
aa(lp4
S'distance'
p5
aF389.4035186767578
aa(lp6
S'state'
p7
aI0
aatp8
Rp9
.ccollections
OrderedDict
p0
((lp1
(lp2
S'timestamp'
p3
aF0.011899948120117188
aa(lp4
S'distance'
p5
aF389.4035186767578
aa(lp6
S'state'
p7
aI0
aatp8
Rp9
.ccollections
OrderedDict
p0
((lp1
(lp2
S'timestamp'
p3
aF0.012287139892578125
aa(lp4
S'distance'
p5
aF389.4035186767578
aa(lp6
S'state'
p7
aI0
aatp8
Rp9
.ccollections
OrderedDict
p0
((lp1
(lp2
S'timestamp'
p3
aF0.02200913429260254
aa(lp4
S'distance'
p5
aF389.4035186767578
aa(lp6
S'state'
p7
aI0
aatp8
Rp9
.ccollections
OrderedDict
p0
((lp1
(lp2
S'timestamp'
p3
aF0.022825002670288086
aa(lp4
S'distance'
p5
aF389.4035186767578
aa(lp6
S'state'
p7
aI0
aatp8
Rp9
.ccollections
OrderedDict
p0
((lp1
(lp2
S'timestamp'
p3
aF0.03172707557678223
aa(lp4
S'distance'
p5
aF389.4035186767578
aa(lp6
S'state'
p7
aI0
aatp8
Rp9
.ccollections
OrderedDict
p0
((lp1
(lp2
S'timestamp'
p3
aF0.03235197067260742
aa(lp4
S'distance'
p5
aF389.4035186767578
aa(lp6
S'state'
p7
aI0
aatp8
Rp9
.ccollections
OrderedDict
p0
((lp1
(lp2
S'timestamp'
p3
aF0.04226994514465332
aa(lp4
S'distance'
p5
aF389.4035186767578
aa(lp6
S'state'
p7
aI0
aatp8
Rp9
.ccollections
OrderedDict
p0
((lp1
(lp2
S'timestamp'
p3
aF0.042365074157714844
aa(lp4
S'distance'
p5
aF389.4035186767578
aa(lp6
S'state'
p7
aI0
aatp8
Rp9
.ccollections
OrderedDict
p0
((lp1
(lp2
S'timestamp'
p3
aF0.05201005935668945
aa(lp4
S'distance'
p5
aF389.4035186767578
aa(lp6
S'state'
p7
aI0
aatp8
Rp9
.ccollections
OrderedDict
p0
((lp1
(lp2
S'timestamp'
p3
aF0.052330970764160156
aa(lp4
S'distance'
p5
aF389.4035186767578
aa(lp6
S'state'
p7
aI0
aatp8
Rp9
.ccollections
OrderedDict
p0
((lp1
(lp2
S'timestamp'
p3
aF0.06169700622558594
aa(lp4
S'distance'
p5
aF389.4035186767578
aa(lp6
S'state'
p7
aI0
aatp8
Rp9
.ccollections
OrderedDict
p0
((lp1
(lp2
S'timestamp'
p3
aF0.06247591972351074
aa(lp4
S'distance'
p5
aF389.4035186767578
aa(lp6
S'state'
p7
aI0
aatp8
Rp9
.ccollections
OrderedDict
p0
((lp1
(lp2
S'timestamp'
p3
aF0.07210898399353027
aa(lp4
S'distance'
p5
aF389.4035186767578
aa(lp6
S'state'
p7
aI0
aatp8
Rp9
.ccollections
OrderedDict
p0
((lp1
(lp2
S'timestamp'
p3
aF0.07219791412353516
aa(lp4
S'distance'
p5
aF389.4035186767578
aa(lp6
S'state'
p7
aI0
aatp8
Rp9
.ccollections
OrderedDict
p0
((lp1
(lp2
S'timestamp'
p3
aF0.08213996887207031
aa(lp4
S'distance'
p5
aF389.4035186767578
aa(lp6
S'state'
p7
aI0
aatp8
Rp9
.ccollections
OrderedDict
p0
((lp1
(lp2
S'timestamp'
p3
aF0.08223199844360352
aa(lp4
S'distance'
p5
aF389.4035186767578
aa(lp6
S'state'
p7
aI0
aatp8
Rp9
.ccollections
OrderedDict
p0
((lp1
(lp2
S'timestamp'
p3
aF0.09192299842834473
aa(lp4
S'distance'
p5
aF389.4035186767578
aa(lp6
S'state'
p7
aI0
aatp8
Rp9
.ccollections
OrderedDict
p0
((lp1
(lp2
S'timestamp'
p3
aF0.09229397773742676
aa(lp4
S'distance'
p5
aF389.4035186767578
aa(lp6
S'state'
p7
aI0
aatp8
Rp9
.ccollections
OrderedDict
p0
((lp1
(lp2
S'timestamp'
p3
aF0.10171699523925781
aa(lp4
S'distance'
p5
aF389.4035186767578
aa(lp6
S'state'
p7
aI0
aatp8
Rp9
.ccollections
OrderedDict
p0
((lp1
(lp2
S'timestamp'
p3
aF0.1024160385131836
aa(lp4
S'distance'
p5
aF389.4035186767578
aa(lp6
S'state'
p7
aI0
aatp8
Rp9
.ccollections
OrderedDict
p0
((lp1
(lp2
S'timestamp'
p3
aF0.11744403839111328
aa(lp4
S'distance'
p5
aF389.4035186767578
aa(lp6
S'state'
p7
aI0
aatp8
Rp9
.ccollections
OrderedDict
p0
((lp1
(lp2
S'timestamp'
p3
aF0.1176600456237793
aa(lp4
S'distance'
p5
aF389.4035186767578
aa(lp6
S'state'
p7
aI0
aatp8
Rp9
.ccollections
OrderedDict
p0
((lp1
(lp2
S'timestamp'
p3
aF0.1217811107635498
aa(lp4
S'distance'
p5
aF389.4035186767578
aa(lp6
S'state'
p7
aI0
aatp8
Rp9
.ccollections
OrderedDict
p0
((lp1
(lp2
S'timestamp'
p3
aF0.12241005897521973
aa(lp4
S'distance'
p5
aF389.4035186767578
aa(lp6
S'state'
p7
aI0
aatp8
Rp9
.ccollections
OrderedDict
p0
((lp1
(lp2
S'timestamp'
p3
aF0.13211297988891602
aa(lp4
S'distance'
p5
aF389.4035186767578
aa(lp6
S'state'
p7
aI0
aatp8
Rp9
.ccollections
OrderedDict
p0
((lp1
(lp2
S'timestamp'
p3
aF0.13227605819702148
aa(lp4
S'distance'
p5
aF389.4035186767578
aa(lp6
S'state'
p7
aI0
aatp8
Rp9
.ccollections
OrderedDict
p0
((lp1
(lp2
S'timestamp'
p3
aF0.14201712608337402
aa(lp4
S'distance'
p5
aF389.4035186767578
aa(lp6
S'state'
p7
aI0
aatp8
Rp9
.ccollections
OrderedDict
p0
((lp1
(lp2
S'timestamp'
p3
aF0.14239192008972168
aa(lp4
S'distance'
p5
aF389.4035186767578
aa(lp6
S'state'
p7
aI0
aatp8
Rp9
.ccollections
OrderedDict
p0
((lp1
(lp2
S'timestamp'
p3
aF0.1517789363861084
aa(lp4
S'distance'
p5
aF389.4035186767578
aa(lp6
S'state'
p7
aI0
aatp8
Rp9
.ccollections
OrderedDict
p0
((lp1
(lp2
S'timestamp'
p3
aF0.15247106552124023
aa(lp4
S'distance'
p5
aF389.4035186767578
aa(lp6
S'state'
p7
aI0
aatp8
Rp9
.ccollections
OrderedDict
p0
((lp1
(lp2
S'timestamp'
p3
aF0.16196513175964355
aa(lp4
S'distance'
p5
aF389.4035186767578
aa(lp6
S'state'
p7
aI0
aatp8
Rp9
.ccollections
OrderedDict
p0
((lp1
(lp2
S'timestamp'
p3
aF0.1622791290283203
aa(lp4
S'distance'
p5
aF389.4035186767578
aa(lp6
S'state'
p7
aI0
aatp8
Rp9
.ccollections
OrderedDict
p0
((lp1
(lp2
S'timestamp'
p3
aF0.1720421314239502
aa(lp4
S'distance'
p5
aF389.4035186767578
aa(lp6
S'state'
p7
aI0
aatp8
Rp9
.ccollections
OrderedDict
p0
((lp1
(lp2
S'timestamp'
p3
aF0.17233705520629883
aa(lp4
S'distance'
p5
aF389.4035186767578
aa(lp6
S'state'
p7
aI0
aatp8
Rp9
.ccollections
OrderedDict
p0
((lp1
(lp2
S'timestamp'
p3
aF0.18202900886535645
aa(lp4
S'distance'
p5
aF389.4035186767578
aa(lp6
S'state'
p7
aI0
aatp8
Rp9
.ccollections
OrderedDict
p0
((lp1
(lp2
S'timestamp'
p3
aF0.18242597579956055
aa(lp4
S'distance'
p5
aF389.4035186767578
aa(lp6
S'state'
p7
aI0
aatp8
Rp9
.ccollections
OrderedDict
p0
((lp1
(lp2
S'timestamp'
p3
aF0.1920030117034912
aa(lp4
S'distance'
p5
aF389.4035186767578
aa(lp6
S'state'
p7
aI0
aatp8
Rp9
.ccollections
OrderedDict
p0
((lp1
(lp2
S'timestamp'
p3
aF0.19243502616882324
aa(lp4
S'distance'
p5
aF389.4035186767578
aa(lp6
S'state'
p7
aI0
aatp8
Rp9
.ccollections
OrderedDict
p0
((lp1
(lp2
S'timestamp'
p3
aF0.2020249366760254
aa(lp4
S'distance'
p5
aF389.4035186767578
aa(lp6
S'state'
p7
aI0
aatp8
Rp9
.ccollections
OrderedDict
p0
((lp1
(lp2
S'timestamp'
p3
aF0.20233702659606934
aa(lp4
S'distance'
p5
aF389.4035186767578
aa(lp6
S'state'
p7
aI0
aatp8
Rp9
.ccollections
OrderedDict
p0
((lp1
(lp2
S'timestamp'
p3
aF0.21208810806274414
aa(lp4
S'distance'
p5
aF389.4035186767578
aa(lp6
S'state'
p7
aI0
aatp8
Rp9
.ccollections
OrderedDict
p0
((lp1
(lp2
S'timestamp'
p3
aF0.2124159336090088
aa(lp4
S'distance'
p5
aF389.4035186767578
aa(lp6
S'state'
p7
aI0
aatp8
Rp9
.ccollections
OrderedDict
p0
((lp1
(lp2
S'timestamp'
p3
aF0.22221899032592773
aa(lp4
S'distance'
p5
aF389.4035186767578
aa(lp6
S'state'
p7
aI0
aatp8
Rp9
.ccollections
OrderedDict
p0
((lp1
(lp2
S'timestamp'
p3
aF0.22234892845153809
aa(lp4
S'distance'
p5
aF389.4035186767578
aa(lp6
S'state'
p7
aI0
aatp8
Rp9
.ccollections
OrderedDict
p0
((lp1
(lp2
S'timestamp'
p3
aF0.23193597793579102
aa(lp4
S'distance'
p5
aF389.4035186767578
aa(lp6
S'state'
p7
aI0
aatp8
Rp9
.ccollections
OrderedDict
p0
((lp1
(lp2
S'timestamp'
p3
aF0.23234200477600098
aa(lp4
S'distance'
p5
aF389.4035186767578
aa(lp6
S'state'
p7
aI0
aatp8
Rp9
.ccollections
OrderedDict
p0
((lp1
(lp2
S'timestamp'
p3
aF0.24226999282836914
aa(lp4
S'distance'
p5
aF389.4035186767578
aa(lp6
S'state'
p7
aI0
aatp8
Rp9
.ccollections
OrderedDict
p0
((lp1
(lp2
S'timestamp'
p3
aF0.2424030303955078
aa(lp4
S'distance'
p5
aF389.4035186767578
aa(lp6
S'state'
p7
aI0
aatp8
Rp9
.ccollections
OrderedDict
p0
((lp1
(lp2
S'timestamp'
p3
aF0.2521240711212158
aa(lp4
S'distance'
p5
aF389.4035186767578
aa(lp6
S'state'
p7
aI0
aatp8
Rp9
.ccollections
OrderedDict
p0
((lp1
(lp2
S'timestamp'
p3
aF0.2525041103363037
aa(lp4
S'distance'
p5
aF389.4035186767578
aa(lp6
S'state'
p7
aI0
aatp8
Rp9
.ccollections
OrderedDict
p0
((lp1
(lp2
S'timestamp'
p3
aF0.2620689868927002
aa(lp4
S'distance'
p5
aF389.4035186767578
aa(lp6
S'state'
p7
aI0
aatp8
Rp9
.ccollections
OrderedDict
p0
((lp1
(lp2
S'timestamp'
p3
aF0.26243114471435547
aa(lp4
S'distance'
p5
aF389.4035186767578
aa(lp6
S'state'
p7
aI0
aatp8
Rp9
.ccollections
OrderedDict
p0
((lp1
(lp2
S'timestamp'
p3
aF0.2721269130706787
aa(lp4
S'distance'
p5
aF389.4035186767578
aa(lp6
S'state'
p7
aI0
aatp8
Rp9
.ccollections
OrderedDict
p0
((lp1
(lp2
S'timestamp'
p3
aF0.27251291275024414
aa(lp4
S'distance'
p5
aF389.4035186767578
aa(lp6
S'state'
p7
aI0
aatp8
Rp9
.ccollections
OrderedDict
p0
((lp1
(lp2
S'timestamp'
p3
aF0.2821469306945801
aa(lp4
S'distance'
p5
aF389.4035186767578
aa(lp6
S'state'
p7
aI0
aatp8
Rp9
.ccollections
OrderedDict
p0
((lp1
(lp2
S'timestamp'
p3
aF0.2824890613555908
aa(lp4
S'distance'
p5
aF389.4035186767578
aa(lp6
S'state'
p7
aI0
aatp8
Rp9
.ccollections
OrderedDict
p0
((lp1
(lp2
S'timestamp'
p3
aF0.29225802421569824
aa(lp4
S'distance'
p5
aF389.4035186767578
aa(lp6
S'state'
p7
aI0
aatp8
Rp9
.ccollections
OrderedDict
p0
((lp1
(lp2
S'timestamp'
p3
aF0.29254913330078125
aa(lp4
S'distance'
p5
aF389.4035186767578
aa(lp6
S'state'
p7
aI0
aatp8
Rp9
.ccollections
OrderedDict
p0
((lp1
(lp2
S'timestamp'
p3
aF0.30215001106262207
aa(lp4
S'distance'
p5
aF389.4035186767578
aa(lp6
S'state'
p7
aI0
aatp8
Rp9
.ccollections
OrderedDict
p0
((lp1
(lp2
S'timestamp'
p3
aF0.30245208740234375
aa(lp4
S'distance'
p5
aF389.4035186767578
aa(lp6
S'state'
p7
aI0
aatp8
Rp9
.ccollections
OrderedDict
p0
((lp1
(lp2
S'timestamp'
p3
aF0.31229209899902344
aa(lp4
S'distance'
p5
aF389.4035186767578
aa(lp6
S'state'
p7
aI0
aatp8
Rp9
.ccollections
OrderedDict
p0
((lp1
(lp2
S'timestamp'
p3
aF0.3124349117279053
aa(lp4
S'distance'
p5
aF389.4035186767578
aa(lp6
S'state'
p7
aI0
aatp8
Rp9
.ccollections
OrderedDict
p0
((lp1
(lp2
S'timestamp'
p3
aF0.3224620819091797
aa(lp4
S'distance'
p5
aF389.4035186767578
aa(lp6
S'state'
p7
aI0
aatp8
Rp9
.ccollections
OrderedDict
p0
((lp1
(lp2
S'timestamp'
p3
aF0.3226630687713623
aa(lp4
S'distance'
p5
aF389.4035186767578
aa(lp6
S'state'
p7
aI0
aatp8
Rp9
.ccollections
OrderedDict
p0
((lp1
(lp2
S'timestamp'
p3
aF0.3321700096130371
aa(lp4
S'distance'
p5
aF389.4035186767578
aa(lp6
S'state'
p7
aI0
aatp8
Rp9
.ccollections
OrderedDict
p0
((lp1
(lp2
S'timestamp'
p3
aF0.33258795738220215
aa(lp4
S'distance'
p5
aF389.4035186767578
aa(lp6
S'state'
p7
aI0
aatp8
Rp9
.ccollections
OrderedDict
p0
((lp1
(lp2
S'timestamp'
p3
aF0.3422060012817383
aa(lp4
S'distance'
p5
aF389.4035186767578
aa(lp6
S'state'
p7
aI0
aatp8
Rp9
.ccollections
OrderedDict
p0
((lp1
(lp2
S'timestamp'
p3
aF0.34253811836242676
aa(lp4
S'distance'
p5
aF389.4035186767578
aa(lp6
S'state'
p7
aI0
aatp8
Rp9
.ccollections
OrderedDict
p0
((lp1
(lp2
S'timestamp'
p3
aF0.35221004486083984
aa(lp4
S'distance'
p5
aF389.4035186767578
aa(lp6
S'state'
p7
aI0
aatp8
Rp9
.ccollections
OrderedDict
p0
((lp1
(lp2
S'timestamp'
p3
aF0.3525581359863281
aa(lp4
S'distance'
p5
aF389.4035186767578
aa(lp6
S'state'
p7
aI0
aatp8
Rp9
.ccollections
OrderedDict
p0
((lp1
(lp2
S'timestamp'
p3
aF0.3623840808868408
aa(lp4
S'distance'
p5
aF389.4035186767578
aa(lp6
S'state'
p7
aI0
aatp8
Rp9
.ccollections
OrderedDict
p0
((lp1
(lp2
S'timestamp'
p3
aF0.3626549243927002
aa(lp4
S'distance'
p5
aF389.4035186767578
aa(lp6
S'state'
p7
aI0
aatp8
Rp9
.ccollections
OrderedDict
p0
((lp1
(lp2
S'timestamp'
p3
aF0.3722219467163086
aa(lp4
S'distance'
p5
aF389.4035186767578
aa(lp6
S'state'
p7
aI0
aatp8
Rp9
.ccollections
OrderedDict
p0
((lp1
(lp2
S'timestamp'
p3
aF0.37253808975219727
aa(lp4
S'distance'
p5
aF389.4035186767578
aa(lp6
S'state'
p7
aI0
aatp8
Rp9
.ccollections
OrderedDict
p0
((lp1
(lp2
S'timestamp'
p3
aF0.381990909576416
aa(lp4
S'distance'
p5
aF389.4035186767578
aa(lp6
S'state'
p7
aI0
aatp8
Rp9
.ccollections
OrderedDict
p0
((lp1
(lp2
S'timestamp'
p3
aF0.38272690773010254
aa(lp4
S'distance'
p5
aF389.4035186767578
aa(lp6
S'state'
p7
aI0
aatp8
Rp9
.ccollections
OrderedDict
p0
((lp1
(lp2
S'timestamp'
p3
aF0.39217400550842285
aa(lp4
S'distance'
p5
aF389.4035186767578
aa(lp6
S'state'
p7
aI0
aatp8
Rp9
.ccollections
OrderedDict
p0
((lp1
(lp2
S'timestamp'
p3
aF0.3926830291748047
aa(lp4
S'distance'
p5
aF389.4035186767578
aa(lp6
S'state'
p7
aI0
aatp8
Rp9
.ccollections
OrderedDict
p0
((lp1
(lp2
S'timestamp'
p3
aF0.4019351005554199
aa(lp4
S'distance'
p5
aF389.4035186767578
aa(lp6
S'state'
p7
aI0
aatp8
Rp9
.ccollections
OrderedDict
p0
((lp1
(lp2
S'timestamp'
p3
aF0.40323305130004883
aa(lp4
S'distance'
p5
aF389.4035186767578
aa(lp6
S'state'
p7
aI0
aatp8
Rp9
.ccollections
OrderedDict
p0
((lp1
(lp2
S'timestamp'
p3
aF0.4123499393463135
aa(lp4
S'distance'
p5
aF389.4035186767578
aa(lp6
S'state'
p7
aI0
aatp8
Rp9
.ccollections
OrderedDict
p0
((lp1
(lp2
S'timestamp'
p3
aF0.4125049114227295
aa(lp4
S'distance'
p5
aF389.4035186767578
aa(lp6
S'state'
p7
aI0
aatp8
Rp9
.ccollections
OrderedDict
p0
((lp1
(lp2
S'timestamp'
p3
aF0.4222221374511719
aa(lp4
S'distance'
p5
aF389.4035186767578
aa(lp6
S'state'
p7
aI0
aatp8
Rp9
.ccollections
OrderedDict
p0
((lp1
(lp2
S'timestamp'
p3
aF0.4227111339569092
aa(lp4
S'distance'
p5
aF389.4035186767578
aa(lp6
S'state'
p7
aI0
aatp8
Rp9
.ccollections
OrderedDict
p0
((lp1
(lp2
S'timestamp'
p3
aF0.43247199058532715
aa(lp4
S'distance'
p5
aF389.4035186767578
aa(lp6
S'state'
p7
aI0
aatp8
Rp9
.ccollections
OrderedDict
p0
((lp1
(lp2
S'timestamp'
p3
aF0.4325590133666992
aa(lp4
S'distance'
p5
aF389.4035186767578
aa(lp6
S'state'
p7
aI0
aatp8
Rp9
.ccollections
OrderedDict
p0
((lp1
(lp2
S'timestamp'
p3
aF0.4422740936279297
aa(lp4
S'distance'
p5
aF389.4035186767578
aa(lp6
S'state'
p7
aI0
aatp8
Rp9
.ccollections
OrderedDict
p0
((lp1
(lp2
S'timestamp'
p3
aF0.4426720142364502
aa(lp4
S'distance'
p5
aF389.4035186767578
aa(lp6
S'state'
p7
aI0
aatp8
Rp9
.ccollections
OrderedDict
p0
((lp1
(lp2
S'timestamp'
p3
aF0.45228004455566406
aa(lp4
S'distance'
p5
aF389.4035186767578
aa(lp6
S'state'
p7
aI0
aatp8
Rp9
.ccollections
OrderedDict
p0
((lp1
(lp2
S'timestamp'
p3
aF0.45268893241882324
aa(lp4
S'distance'
p5
aF389.4035186767578
aa(lp6
S'state'
p7
aI0
aatp8
Rp9
.ccollections
OrderedDict
p0
((lp1
(lp2
S'timestamp'
p3
aF0.4624660015106201
aa(lp4
S'distance'
p5
aF389.4035186767578
aa(lp6
S'state'
p7
aI0
aatp8
Rp9
.ccollections
OrderedDict
p0
((lp1
(lp2
S'timestamp'
p3
aF0.4625999927520752
aa(lp4
S'distance'
p5
aF389.4035186767578
aa(lp6
S'state'
p7
aI0
aatp8
Rp9
.ccollections
OrderedDict
p0
((lp1
(lp2
S'timestamp'
p3
aF0.47230100631713867
aa(lp4
S'distance'
p5
aF389.4035186767578
aa(lp6
S'state'
p7
aI0
aatp8
Rp9
.ccollections
OrderedDict
p0
((lp1
(lp2
S'timestamp'
p3
aF0.4727001190185547
aa(lp4
S'distance'
p5
aF389.4035186767578
aa(lp6
S'state'
p7
aI0
aatp8
Rp9
.ccollections
OrderedDict
p0
((lp1
(lp2
S'timestamp'
p3
aF0.4822869300842285
aa(lp4
S'distance'
p5
aF389.4035186767578
aa(lp6
S'state'
p7
aI0
aatp8
Rp9
.ccollections
OrderedDict
p0
((lp1
(lp2
S'timestamp'
p3
aF0.48264408111572266
aa(lp4
S'distance'
p5
aF389.4035186767578
aa(lp6
S'state'
p7
aI0
aatp8
Rp9
.ccollections
OrderedDict
p0
((lp1
(lp2
S'timestamp'
p3
aF0.49239492416381836
aa(lp4
S'distance'
p5
aF389.4035186767578
aa(lp6
S'state'
p7
aI0
aatp8
Rp9
.ccollections
OrderedDict
p0
((lp1
(lp2
S'timestamp'
p3
aF0.4926919937133789
aa(lp4
S'distance'
p5
aF389.4035186767578
aa(lp6
S'state'
p7
aI0
aatp8
Rp9
.ccollections
OrderedDict
p0
((lp1
(lp2
S'timestamp'
p3
aF0.5024700164794922
aa(lp4
S'distance'
p5
aF389.4035186767578
aa(lp6
S'state'
p7
aI0
aatp8
Rp9
.ccollections
OrderedDict
p0
((lp1
(lp2
S'timestamp'
p3
aF0.5026459693908691
aa(lp4
S'distance'
p5
aF389.4035186767578
aa(lp6
S'state'
p7
aI0
aatp8
Rp9
.ccollections
OrderedDict
p0
((lp1
(lp2
S'timestamp'
p3
aF0.5122890472412109
aa(lp4
S'distance'
p5
aF389.4035186767578
aa(lp6
S'state'
p7
aI0
aatp8
Rp9
.ccollections
OrderedDict
p0
((lp1
(lp2
S'timestamp'
p3
aF0.51267409324646
aa(lp4
S'distance'
p5
aF389.4035186767578
aa(lp6
S'state'
p7
aI0
aatp8
Rp9
.ccollections
OrderedDict
p0
((lp1
(lp2
S'timestamp'
p3
aF0.5221951007843018
aa(lp4
S'distance'
p5
aF389.4035186767578
aa(lp6
S'state'
p7
aI0
aatp8
Rp9
.ccollections
OrderedDict
p0
((lp1
(lp2
S'timestamp'
p3
aF0.5227439403533936
aa(lp4
S'distance'
p5
aF389.4035186767578
aa(lp6
S'state'
p7
aI0
aatp8
Rp9
.ccollections
OrderedDict
p0
((lp1
(lp2
S'timestamp'
p3
aF0.5324609279632568
aa(lp4
S'distance'
p5
aF389.4035186767578
aa(lp6
S'state'
p7
aI0
aatp8
Rp9
.ccollections
OrderedDict
p0
((lp1
(lp2
S'timestamp'
p3
aF0.532724142074585
aa(lp4
S'distance'
p5
aF389.4035186767578
aa(lp6
S'state'
p7
aI0
aatp8
Rp9
.ccollections
OrderedDict
p0
((lp1
(lp2
S'timestamp'
p3
aF0.5422990322113037
aa(lp4
S'distance'
p5
aF389.4035186767578
aa(lp6
S'state'
p7
aI0
aatp8
Rp9
.ccollections
OrderedDict
p0
((lp1
(lp2
S'timestamp'
p3
aF0.5426750183105469
aa(lp4
S'distance'
p5
aF389.4035186767578
aa(lp6
S'state'
p7
aI0
aatp8
Rp9
.ccollections
OrderedDict
p0
((lp1
(lp2
S'timestamp'
p3
aF0.5525319576263428
aa(lp4
S'distance'
p5
aF389.4035186767578
aa(lp6
S'state'
p7
aI0
aatp8
Rp9
.ccollections
OrderedDict
p0
((lp1
(lp2
S'timestamp'
p3
aF0.5526659488677979
aa(lp4
S'distance'
p5
aF389.4035186767578
aa(lp6
S'state'
p7
aI0
aatp8
Rp9
.ccollections
OrderedDict
p0
((lp1
(lp2
S'timestamp'
p3
aF0.5625259876251221
aa(lp4
S'distance'
p5
aF389.4035186767578
aa(lp6
S'state'
p7
aI0
aatp8
Rp9
.ccollections
OrderedDict
p0
((lp1
(lp2
S'timestamp'
p3
aF0.5626571178436279
aa(lp4
S'distance'
p5
aF389.4035186767578
aa(lp6
S'state'
p7
aI0
aatp8
Rp9
.ccollections
OrderedDict
p0
((lp1
(lp2
S'timestamp'
p3
aF0.5724050998687744
aa(lp4
S'distance'
p5
aF389.4035186767578
aa(lp6
S'state'
p7
aI0
aatp8
Rp9
.ccollections
OrderedDict
p0
((lp1
(lp2
S'timestamp'
p3
aF0.5729219913482666
aa(lp4
S'distance'
p5
aF389.4035186767578
aa(lp6
S'state'
p7
aI0
aatp8
Rp9
.ccollections
OrderedDict
p0
((lp1
(lp2
S'timestamp'
p3
aF0.582219123840332
aa(lp4
S'distance'
p5
aF389.4035186767578
aa(lp6
S'state'
p7
aI0
aatp8
Rp9
.ccollections
OrderedDict
p0
((lp1
(lp2
S'timestamp'
p3
aF0.5829341411590576
aa(lp4
S'distance'
p5
aF389.4035186767578
aa(lp6
S'state'
p7
aI0
aatp8
Rp9
.ccollections
OrderedDict
p0
((lp1
(lp2
S'timestamp'
p3
aF0.5922319889068604
aa(lp4
S'distance'
p5
aF389.4035186767578
aa(lp6
S'state'
p7
aI0
aatp8
Rp9
.ccollections
OrderedDict
p0
((lp1
(lp2
S'timestamp'
p3
aF0.592919111251831
aa(lp4
S'distance'
p5
aF389.4035186767578
aa(lp6
S'state'
p7
aI0
aatp8
Rp9
.ccollections
OrderedDict
p0
((lp1
(lp2
S'timestamp'
p3
aF0.6023421287536621
aa(lp4
S'distance'
p5
aF389.4035186767578
aa(lp6
S'state'
p7
aI0
aatp8
Rp9
.ccollections
OrderedDict
p0
((lp1
(lp2
S'timestamp'
p3
aF0.6027679443359375
aa(lp4
S'distance'
p5
aF389.4035186767578
aa(lp6
S'state'
p7
aI0
aatp8
Rp9
.ccollections
OrderedDict
p0
((lp1
(lp2
S'timestamp'
p3
aF0.6126129627227783
aa(lp4
S'distance'
p5
aF389.4035186767578
aa(lp6
S'state'
p7
aI0
aatp8
Rp9
.ccollections
OrderedDict
p0
((lp1
(lp2
S'timestamp'
p3
aF0.612800121307373
aa(lp4
S'distance'
p5
aF389.4035186767578
aa(lp6
S'state'
p7
aI0
aatp8
Rp9
.ccollections
OrderedDict
p0
((lp1
(lp2
S'timestamp'
p3
aF0.6226699352264404
aa(lp4
S'distance'
p5
aF389.4035186767578
aa(lp6
S'state'
p7
aI0
aatp8
Rp9
.ccollections
OrderedDict
p0
((lp1
(lp2
S'timestamp'
p3
aF0.6227869987487793
aa(lp4
S'distance'
p5
aF389.4035186767578
aa(lp6
S'state'
p7
aI0
aatp8
Rp9
.ccollections
OrderedDict
p0
((lp1
(lp2
S'timestamp'
p3
aF0.632457971572876
aa(lp4
S'distance'
p5
aF389.4035186767578
aa(lp6
S'state'
p7
aI0
aatp8
Rp9
.ccollections
OrderedDict
p0
((lp1
(lp2
S'timestamp'
p3
aF0.6327929496765137
aa(lp4
S'distance'
p5
aF389.4035186767578
aa(lp6
S'state'
p7
aI0
aatp8
Rp9
.ccollections
OrderedDict
p0
((lp1
(lp2
S'timestamp'
p3
aF0.642470121383667
aa(lp4
S'distance'
p5
aF389.4035186767578
aa(lp6
S'state'
p7
aI0
aatp8
Rp9
.ccollections
OrderedDict
p0
((lp1
(lp2
S'timestamp'
p3
aF0.642859935760498
aa(lp4
S'distance'
p5
aF389.4035186767578
aa(lp6
S'state'
p7
aI0
aatp8
Rp9
.ccollections
OrderedDict
p0
((lp1
(lp2
S'timestamp'
p3
aF0.6524901390075684
aa(lp4
S'distance'
p5
aF389.4035186767578
aa(lp6
S'state'
p7
aI0
aatp8
Rp9
.ccollections
OrderedDict
p0
((lp1
(lp2
S'timestamp'
p3
aF0.6528100967407227
aa(lp4
S'distance'
p5
aF389.4035186767578
aa(lp6
S'state'
p7
aI0
aatp8
Rp9
.ccollections
OrderedDict
p0
((lp1
(lp2
S'timestamp'
p3
aF0.6626629829406738
aa(lp4
S'distance'
p5
aF389.4035186767578
aa(lp6
S'state'
p7
aI0
aatp8
Rp9
.ccollections
OrderedDict
p0
((lp1
(lp2
S'timestamp'
p3
aF0.6627490520477295
aa(lp4
S'distance'
p5
aF389.4035186767578
aa(lp6
S'state'
p7
aI0
aatp8
Rp9
.ccollections
OrderedDict
p0
((lp1
(lp2
S'timestamp'
p3
aF0.6725080013275146
aa(lp4
S'distance'
p5
aF389.4035186767578
aa(lp6
S'state'
p7
aI0
aatp8
Rp9
.ccollections
OrderedDict
p0
((lp1
(lp2
S'timestamp'
p3
aF0.6728401184082031
aa(lp4
S'distance'
p5
aF389.4035186767578
aa(lp6
S'state'
p7
aI0
aatp8
Rp9
.ccollections
OrderedDict
p0
((lp1
(lp2
S'timestamp'
p3
aF0.6826720237731934
aa(lp4
S'distance'
p5
aF389.4035186767578
aa(lp6
S'state'
p7
aI0
aatp8
Rp9
.ccollections
OrderedDict
p0
((lp1
(lp2
S'timestamp'
p3
aF0.682805061340332
aa(lp4
S'distance'
p5
aF389.4035186767578
aa(lp6
S'state'
p7
aI0
aatp8
Rp9
.ccollections
OrderedDict
p0
((lp1
(lp2
S'timestamp'
p3
aF0.692500114440918
aa(lp4
S'distance'
p5
aF389.4035186767578
aa(lp6
S'state'
p7
aI0
aatp8
Rp9
.ccollections
OrderedDict
p0
((lp1
(lp2
S'timestamp'
p3
aF0.6929130554199219
aa(lp4
S'distance'
p5
aF389.4035186767578
aa(lp6
S'state'
p7
aI0
aatp8
Rp9
.ccollections
OrderedDict
p0
((lp1
(lp2
S'timestamp'
p3
aF0.7026610374450684
aa(lp4
S'distance'
p5
aF389.4035186767578
aa(lp6
S'state'
p7
aI0
aatp8
Rp9
.ccollections
OrderedDict
p0
((lp1
(lp2
S'timestamp'
p3
aF0.702855110168457
aa(lp4
S'distance'
p5
aF389.4035186767578
aa(lp6
S'state'
p7
aI0
aatp8
Rp9
.ccollections
OrderedDict
p0
((lp1
(lp2
S'timestamp'
p3
aF0.7123899459838867
aa(lp4
S'distance'
p5
aF389.4035186767578
aa(lp6
S'state'
p7
aI0
aatp8
Rp9
.ccollections
OrderedDict
p0
((lp1
(lp2
S'timestamp'
p3
aF0.7128820419311523
aa(lp4
S'distance'
p5
aF389.4035186767578
aa(lp6
S'state'
p7
aI0
aatp8
Rp9
.ccollections
OrderedDict
p0
((lp1
(lp2
S'timestamp'
p3
aF0.7227380275726318
aa(lp4
S'distance'
p5
aF389.4035186767578
aa(lp6
S'state'
p7
aI0
aatp8
Rp9
.ccollections
OrderedDict
p0
((lp1
(lp2
S'timestamp'
p3
aF0.7228209972381592
aa(lp4
S'distance'
p5
aF389.4035186767578
aa(lp6
S'state'
p7
aI0
aatp8
Rp9
.ccollections
OrderedDict
p0
((lp1
(lp2
S'timestamp'
p3
aF0.7325301170349121
aa(lp4
S'distance'
p5
aF389.4035186767578
aa(lp6
S'state'
p7
aI0
aatp8
Rp9
.ccollections
OrderedDict
p0
((lp1
(lp2
S'timestamp'
p3
aF0.7329690456390381
aa(lp4
S'distance'
p5
aF389.4035186767578
aa(lp6
S'state'
p7
aI0
aatp8
Rp9
.ccollections
OrderedDict
p0
((lp1
(lp2
S'timestamp'
p3
aF0.7423801422119141
aa(lp4
S'distance'
p5
aF389.4035186767578
aa(lp6
S'state'
p7
aI0
aatp8
Rp9
.ccollections
OrderedDict
p0
((lp1
(lp2
S'timestamp'
p3
aF0.7430450916290283
aa(lp4
S'distance'
p5
aF389.4035186767578
aa(lp6
S'state'
p7
aI0
aatp8
Rp9
.ccollections
OrderedDict
p0
((lp1
(lp2
S'timestamp'
p3
aF0.7524750232696533
aa(lp4
S'distance'
p5
aF389.4035186767578
aa(lp6
S'state'
p7
aI0
aatp8
Rp9
.ccollections
OrderedDict
p0
((lp1
(lp2
S'timestamp'
p3
aF0.7532639503479004
aa(lp4
S'distance'
p5
aF389.4035186767578
aa(lp6
S'state'
p7
aI0
aatp8
Rp9
.ccollections
OrderedDict
p0
((lp1
(lp2
S'timestamp'
p3
aF0.7624540328979492
aa(lp4
S'distance'
p5
aF389.4035186767578
aa(lp6
S'state'
p7
aI0
aatp8
Rp9
.ccollections
OrderedDict
p0
((lp1
(lp2
S'timestamp'
p3
aF0.7630710601806641
aa(lp4
S'distance'
p5
aF389.4035186767578
aa(lp6
S'state'
p7
aI0
aatp8
Rp9
.ccollections
OrderedDict
p0
((lp1
(lp2
S'timestamp'
p3
aF0.7724349498748779
aa(lp4
S'distance'
p5
aF389.4035186767578
aa(lp6
S'state'
p7
aI0
aatp8
Rp9
.ccollections
OrderedDict
p0
((lp1
(lp2
S'timestamp'
p3
aF0.7732069492340088
aa(lp4
S'distance'
p5
aF389.4035186767578
aa(lp6
S'state'
p7
aI0
aatp8
Rp9
.ccollections
OrderedDict
p0
((lp1
(lp2
S'timestamp'
p3
aF0.7822809219360352
aa(lp4
S'distance'
p5
aF389.4035186767578
aa(lp6
S'state'
p7
aI0
aatp8
Rp9
.ccollections
OrderedDict
p0
((lp1
(lp2
S'timestamp'
p3
aF0.7830030918121338
aa(lp4
S'distance'
p5
aF389.4035186767578
aa(lp6
S'state'
p7
aI0
aatp8
Rp9
.ccollections
OrderedDict
p0
((lp1
(lp2
S'timestamp'
p3
aF0.7925491333007812
aa(lp4
S'distance'
p5
aF389.4035186767578
aa(lp6
S'state'
p7
aI0
aatp8
Rp9
.ccollections
OrderedDict
p0
((lp1
(lp2
S'timestamp'
p3
aF0.7930879592895508
aa(lp4
S'distance'
p5
aF389.4035186767578
aa(lp6
S'state'
p7
aI0
aatp8
Rp9
.ccollections
OrderedDict
p0
((lp1
(lp2
S'timestamp'
p3
aF0.8027400970458984
aa(lp4
S'distance'
p5
aF389.4035186767578
aa(lp6
S'state'
p7
aI0
aatp8
Rp9
.ccollections
OrderedDict
p0
((lp1
(lp2
S'timestamp'
p3
aF0.8029179573059082
aa(lp4
S'distance'
p5
aF389.4035186767578
aa(lp6
S'state'
p7
aI0
aatp8
Rp9
.ccollections
OrderedDict
p0
((lp1
(lp2
S'timestamp'
p3
aF0.8127450942993164
aa(lp4
S'distance'
p5
aF389.4035186767578
aa(lp6
S'state'
p7
aI0
aatp8
Rp9
.ccollections
OrderedDict
p0
((lp1
(lp2
S'timestamp'
p3
aF0.8129620552062988
aa(lp4
S'distance'
p5
aF389.4035186767578
aa(lp6
S'state'
p7
aI0
aatp8
Rp9
.ccollections
OrderedDict
p0
((lp1
(lp2
S'timestamp'
p3
aF0.8231470584869385
aa(lp4
S'distance'
p5
aF389.4035186767578
aa(lp6
S'state'
p7
aI0
aatp8
Rp9
.ccollections
OrderedDict
p0
((lp1
(lp2
S'timestamp'
p3
aF0.8232219219207764
aa(lp4
S'distance'
p5
aF389.4035186767578
aa(lp6
S'state'
p7
aI0
aatp8
Rp9
.ccollections
OrderedDict
p0
((lp1
(lp2
S'timestamp'
p3
aF0.8326399326324463
aa(lp4
S'distance'
p5
aF389.4035186767578
aa(lp6
S'state'
p7
aI0
aatp8
Rp9
.ccollections
OrderedDict
p0
((lp1
(lp2
S'timestamp'
p3
aF0.8330349922180176
aa(lp4
S'distance'
p5
aF389.4035186767578
aa(lp6
S'state'
p7
aI0
aatp8
Rp9
.ccollections
OrderedDict
p0
((lp1
(lp2
S'timestamp'
p3
aF0.8427610397338867
aa(lp4
S'distance'
p5
aF389.4035186767578
aa(lp6
S'state'
p7
aI0
aatp8
Rp9
.ccollections
OrderedDict
p0
((lp1
(lp2
S'timestamp'
p3
aF0.8431720733642578
aa(lp4
S'distance'
p5
aF389.4035186767578
aa(lp6
S'state'
p7
aI0
aatp8
Rp9
.ccollections
OrderedDict
p0
((lp1
(lp2
S'timestamp'
p3
aF0.8526511192321777
aa(lp4
S'distance'
p5
aF389.4035186767578
aa(lp6
S'state'
p7
aI0
aatp8
Rp9
.ccollections
OrderedDict
p0
((lp1
(lp2
S'timestamp'
p3
aF0.853050947189331
aa(lp4
S'distance'
p5
aF389.4035186767578
aa(lp6
S'state'
p7
aI0
aatp8
Rp9
.ccollections
OrderedDict
p0
((lp1
(lp2
S'timestamp'
p3
aF0.8629670143127441
aa(lp4
S'distance'
p5
aF389.4035186767578
aa(lp6
S'state'
p7
aI0
aatp8
Rp9
.ccollections
OrderedDict
p0
((lp1
(lp2
S'timestamp'
p3
aF0.8630740642547607
aa(lp4
S'distance'
p5
aF389.4035186767578
aa(lp6
S'state'
p7
aI0
aatp8
Rp9
.ccollections
OrderedDict
p0
((lp1
(lp2
S'timestamp'
p3
aF0.8726921081542969
aa(lp4
S'distance'
p5
aF389.4035186767578
aa(lp6
S'state'
p7
aI0
aatp8
Rp9
.ccollections
OrderedDict
p0
((lp1
(lp2
S'timestamp'
p3
aF0.8730490207672119
aa(lp4
S'distance'
p5
aF389.4035186767578
aa(lp6
S'state'
p7
aI0
aatp8
Rp9
.ccollections
OrderedDict
p0
((lp1
(lp2
S'timestamp'
p3
aF0.8828301429748535
aa(lp4
S'distance'
p5
aF389.4035186767578
aa(lp6
S'state'
p7
aI0
aatp8
Rp9
.ccollections
OrderedDict
p0
((lp1
(lp2
S'timestamp'
p3
aF0.8830680847167969
aa(lp4
S'distance'
p5
aF389.4035186767578
aa(lp6
S'state'
p7
aI0
aatp8
Rp9
.ccollections
OrderedDict
p0
((lp1
(lp2
S'timestamp'
p3
aF0.893125057220459
aa(lp4
S'distance'
p5
aF389.4035186767578
aa(lp6
S'state'
p7
aI0
aatp8
Rp9
.ccollections
OrderedDict
p0
((lp1
(lp2
S'timestamp'
p3
aF0.8939039707183838
aa(lp4
S'distance'
p5
aF389.4035186767578
aa(lp6
S'state'
p7
aI0
aatp8
Rp9
.ccollections
OrderedDict
p0
((lp1
(lp2
S'timestamp'
p3
aF0.9029691219329834
aa(lp4
S'distance'
p5
aF389.4035186767578
aa(lp6
S'state'
p7
aI0
aatp8
Rp9
.ccollections
OrderedDict
p0
((lp1
(lp2
S'timestamp'
p3
aF0.9030530452728271
aa(lp4
S'distance'
p5
aF389.4035186767578
aa(lp6
S'state'
p7
aI0
aatp8
Rp9
.ccollections
OrderedDict
p0
((lp1
(lp2
S'timestamp'
p3
aF0.91292405128479
aa(lp4
S'distance'
p5
aF389.4035186767578
aa(lp6
S'state'
p7
aI0
aatp8
Rp9
.ccollections
OrderedDict
p0
((lp1
(lp2
S'timestamp'
p3
aF0.9131929874420166
aa(lp4
S'distance'
p5
aF389.4035186767578
aa(lp6
S'state'
p7
aI0
aatp8
Rp9
.ccollections
OrderedDict
p0
((lp1
(lp2
S'timestamp'
p3
aF0.9228529930114746
aa(lp4
S'distance'
p5
aF389.4035186767578
aa(lp6
S'state'
p7
aI0
aatp8
Rp9
.ccollections
OrderedDict
p0
((lp1
(lp2
S'timestamp'
p3
aF0.9230201244354248
aa(lp4
S'distance'
p5
aF389.4035186767578
aa(lp6
S'state'
p7
aI0
aatp8
Rp9
.ccollections
OrderedDict
p0
((lp1
(lp2
S'timestamp'
p3
aF0.9328811168670654
aa(lp4
S'distance'
p5
aF389.4035186767578
aa(lp6
S'state'
p7
aI0
aatp8
Rp9
.ccollections
OrderedDict
p0
((lp1
(lp2
S'timestamp'
p3
aF0.933013916015625
aa(lp4
S'distance'
p5
aF389.4035186767578
aa(lp6
S'state'
p7
aI0
aatp8
Rp9
.ccollections
OrderedDict
p0
((lp1
(lp2
S'timestamp'
p3
aF0.9428410530090332
aa(lp4
S'distance'
p5
aF389.4035186767578
aa(lp6
S'state'
p7
aI0
aatp8
Rp9
.ccollections
OrderedDict
p0
((lp1
(lp2
S'timestamp'
p3
aF0.9431860446929932
aa(lp4
S'distance'
p5
aF389.4035186767578
aa(lp6
S'state'
p7
aI0
aatp8
Rp9
.ccollections
OrderedDict
p0
((lp1
(lp2
S'timestamp'
p3
aF0.9527299404144287
aa(lp4
S'distance'
p5
aF389.4035186767578
aa(lp6
S'state'
p7
aI0
aatp8
Rp9
.ccollections
OrderedDict
p0
((lp1
(lp2
S'timestamp'
p3
aF0.9531419277191162
aa(lp4
S'distance'
p5
aF389.4035186767578
aa(lp6
S'state'
p7
aI0
aatp8
Rp9
.ccollections
OrderedDict
p0
((lp1
(lp2
S'timestamp'
p3
aF0.9630250930786133
aa(lp4
S'distance'
p5
aF389.4035186767578
aa(lp6
S'state'
p7
aI0
aatp8
Rp9
.ccollections
OrderedDict
p0
((lp1
(lp2
S'timestamp'
p3
aF0.9631030559539795
aa(lp4
S'distance'
p5
aF389.4035186767578
aa(lp6
S'state'
p7
aI0
aatp8
Rp9
.ccollections
OrderedDict
p0
((lp1
(lp2
S'timestamp'
p3
aF0.9827671051025391
aa(lp4
S'distance'
p5
aF389.4035186767578
aa(lp6
S'state'
p7
aI0
aatp8
Rp9
.ccollections
OrderedDict
p0
((lp1
(lp2
S'timestamp'
p3
aF0.98307204246521
aa(lp4
S'distance'
p5
aF389.4035186767578
aa(lp6
S'state'
p7
aI0
aatp8
Rp9
.ccollections
OrderedDict
p0
((lp1
(lp2
S'timestamp'
p3
aF0.9843029975891113
aa(lp4
S'distance'
p5
aF389.4035186767578
aa(lp6
S'state'
p7
aI0
aatp8
Rp9
.ccollections
OrderedDict
p0
((lp1
(lp2
S'timestamp'
p3
aF0.9852900505065918
aa(lp4
S'distance'
p5
aF389.4035186767578
aa(lp6
S'state'
p7
aI0
aatp8
Rp9
.ccollections
OrderedDict
p0
((lp1
(lp2
S'timestamp'
p3
aF0.9927070140838623
aa(lp4
S'distance'
p5
aF389.4035186767578
aa(lp6
S'state'
p7
aI0
aatp8
Rp9
.ccollections
OrderedDict
p0
((lp1
(lp2
S'timestamp'
p3
aF0.9930300712585449
aa(lp4
S'distance'
p5
aF389.4035186767578
aa(lp6
S'state'
p7
aI0
aatp8
Rp9
.ccollections
OrderedDict
p0
((lp1
(lp2
S'timestamp'
p3
aF1.0032000541687012
aa(lp4
S'distance'
p5
aF389.4035186767578
aa(lp6
S'state'
p7
aI0
aatp8
Rp9
.ccollections
OrderedDict
p0
((lp1
(lp2
S'timestamp'
p3
aF1.003282070159912
aa(lp4
S'distance'
p5
aF389.4035186767578
aa(lp6
S'state'
p7
aI0
aatp8
Rp9
.ccollections
OrderedDict
p0
((lp1
(lp2
S'timestamp'
p3
aF1.0129649639129639
aa(lp4
S'distance'
p5
aF389.4035186767578
aa(lp6
S'state'
p7
aI0
aatp8
Rp9
.ccollections
OrderedDict
p0
((lp1
(lp2
S'timestamp'
p3
aF1.0130939483642578
aa(lp4
S'distance'
p5
aF389.4035186767578
aa(lp6
S'state'
p7
aI0
aatp8
Rp9
.ccollections
OrderedDict
p0
((lp1
(lp2
S'timestamp'
p3
aF1.0228450298309326
aa(lp4
S'distance'
p5
aF389.4035186767578
aa(lp6
S'state'
p7
aI0
aatp8
Rp9
.ccollections
OrderedDict
p0
((lp1
(lp2
S'timestamp'
p3
aF1.0233070850372314
aa(lp4
S'distance'
p5
aF389.4035186767578
aa(lp6
S'state'
p7
aI0
aatp8
Rp9
.ccollections
OrderedDict
p0
((lp1
(lp2
S'timestamp'
p3
aF1.0429580211639404
aa(lp4
S'distance'
p5
aF389.4035186767578
aa(lp6
S'state'
p7
aI0
aatp8
Rp9
.ccollections
OrderedDict
p0
((lp1
(lp2
S'timestamp'
p3
aF1.0430939197540283
aa(lp4
S'distance'
p5
aF389.4035186767578
aa(lp6
S'state'
p7
aI0
aatp8
Rp9
.ccollections
OrderedDict
p0
((lp1
(lp2
S'timestamp'
p3
aF1.0442569255828857
aa(lp4
S'distance'
p5
aF389.4035186767578
aa(lp6
S'state'
p7
aI0
aatp8
Rp9
.ccollections
OrderedDict
p0
((lp1
(lp2
S'timestamp'
p3
aF1.0450899600982666
aa(lp4
S'distance'
p5
aF389.4035186767578
aa(lp6
S'state'
p7
aI0
aatp8
Rp9
.ccollections
OrderedDict
p0
((lp1
(lp2
S'timestamp'
p3
aF1.0529069900512695
aa(lp4
S'distance'
p5
aF389.4035186767578
aa(lp6
S'state'
p7
aI0
aatp8
Rp9
.ccollections
OrderedDict
p0
((lp1
(lp2
S'timestamp'
p3
aF1.0533559322357178
aa(lp4
S'distance'
p5
aF389.4035186767578
aa(lp6
S'state'
p7
aI0
aatp8
Rp9
.ccollections
OrderedDict
p0
((lp1
(lp2
S'timestamp'
p3
aF1.0630829334259033
aa(lp4
S'distance'
p5
aF389.4035186767578
aa(lp6
S'state'
p7
aI0
aatp8
Rp9
.ccollections
OrderedDict
p0
((lp1
(lp2
S'timestamp'
p3
aF1.0632109642028809
aa(lp4
S'distance'
p5
aF389.4035186767578
aa(lp6
S'state'
p7
aI0
aatp8
Rp9
.ccollections
OrderedDict
p0
((lp1
(lp2
S'timestamp'
p3
aF1.0729601383209229
aa(lp4
S'distance'
p5
aF389.4035186767578
aa(lp6
S'state'
p7
aI0
aatp8
Rp9
.ccollections
OrderedDict
p0
((lp1
(lp2
S'timestamp'
p3
aF1.0737481117248535
aa(lp4
S'distance'
p5
aF389.4035186767578
aa(lp6
S'state'
p7
aI0
aatp8
Rp9
.ccollections
OrderedDict
p0
((lp1
(lp2
S'timestamp'
p3
aF1.0829191207885742
aa(lp4
S'distance'
p5
aF389.4035186767578
aa(lp6
S'state'
p7
aI0
aatp8
Rp9
.ccollections
OrderedDict
p0
((lp1
(lp2
S'timestamp'
p3
aF1.0834760665893555
aa(lp4
S'distance'
p5
aF389.4035186767578
aa(lp6
S'state'
p7
aI0
aatp8
Rp9
.ccollections
OrderedDict
p0
((lp1
(lp2
S'timestamp'
p3
aF1.0928370952606201
aa(lp4
S'distance'
p5
aF389.4035186767578
aa(lp6
S'state'
p7
aI0
aatp8
Rp9
.ccollections
OrderedDict
p0
((lp1
(lp2
S'timestamp'
p3
aF1.0933821201324463
aa(lp4
S'distance'
p5
aF389.4035186767578
aa(lp6
S'state'
p7
aI0
aatp8
Rp9
.ccollections
OrderedDict
p0
((lp1
(lp2
S'timestamp'
p3
aF1.1027820110321045
aa(lp4
S'distance'
p5
aF389.4035186767578
aa(lp6
S'state'
p7
aI0
aatp8
Rp9
.ccollections
OrderedDict
p0
((lp1
(lp2
S'timestamp'
p3
aF1.1035170555114746
aa(lp4
S'distance'
p5
aF389.4035186767578
aa(lp6
S'state'
p7
aI0
aatp8
Rp9
.ccollections
OrderedDict
p0
((lp1
(lp2
S'timestamp'
p3
aF1.1132800579071045
aa(lp4
S'distance'
p5
aF389.4035186767578
aa(lp6
S'state'
p7
aI0
aatp8
Rp9
.ccollections
OrderedDict
p0
((lp1
(lp2
S'timestamp'
p3
aF1.113361120223999
aa(lp4
S'distance'
p5
aF389.4035186767578
aa(lp6
S'state'
p7
aI0
aatp8
Rp9
.ccollections
OrderedDict
p0
((lp1
(lp2
S'timestamp'
p3
aF1.12322998046875
aa(lp4
S'distance'
p5
aF389.4035186767578
aa(lp6
S'state'
p7
aI0
aatp8
Rp9
.ccollections
OrderedDict
p0
((lp1
(lp2
S'timestamp'
p3
aF1.1233060359954834
aa(lp4
S'distance'
p5
aF389.4035186767578
aa(lp6
S'state'
p7
aI0
aatp8
Rp9
.ccollections
OrderedDict
p0
((lp1
(lp2
S'timestamp'
p3
aF1.133357048034668
aa(lp4
S'distance'
p5
aF389.4035186767578
aa(lp6
S'state'
p7
aI0
aatp8
Rp9
.ccollections
OrderedDict
p0
((lp1
(lp2
S'timestamp'
p3
aF1.1341581344604492
aa(lp4
S'distance'
p5
aF389.4035186767578
aa(lp6
S'state'
p7
aI0
aatp8
Rp9
.ccollections
OrderedDict
p0
((lp1
(lp2
S'timestamp'
p3
aF1.1432371139526367
aa(lp4
S'distance'
p5
aF389.4035186767578
aa(lp6
S'state'
p7
aI0
aatp8
Rp9
.ccollections
OrderedDict
p0
((lp1
(lp2
S'timestamp'
p3
aF1.1433219909667969
aa(lp4
S'distance'
p5
aF389.4035186767578
aa(lp6
S'state'
p7
aI0
aatp8
Rp9
.ccollections
OrderedDict
p0
((lp1
(lp2
S'timestamp'
p3
aF1.153141975402832
aa(lp4
S'distance'
p5
aF389.4035186767578
aa(lp6
S'state'
p7
aI0
aatp8
Rp9
.ccollections
OrderedDict
p0
((lp1
(lp2
S'timestamp'
p3
aF1.153311014175415
aa(lp4
S'distance'
p5
aF389.4035186767578
aa(lp6
S'state'
p7
aI0
aatp8
Rp9
.ccollections
OrderedDict
p0
((lp1
(lp2
S'timestamp'
p3
aF1.1633009910583496
aa(lp4
S'distance'
p5
aF389.4035186767578
aa(lp6
S'state'
p7
aI0
aatp8
Rp9
.ccollections
OrderedDict
p0
((lp1
(lp2
S'timestamp'
p3
aF1.163473129272461
aa(lp4
S'distance'
p5
aF389.4035186767578
aa(lp6
S'state'
p7
aI0
aatp8
Rp9
.ccollections
OrderedDict
p0
((lp1
(lp2
S'timestamp'
p3
aF1.1733150482177734
aa(lp4
S'distance'
p5
aF389.4035186767578
aa(lp6
S'state'
p7
aI0
aatp8
Rp9
.ccollections
OrderedDict
p0
((lp1
(lp2
S'timestamp'
p3
aF1.1733880043029785
aa(lp4
S'distance'
p5
aF389.4035186767578
aa(lp6
S'state'
p7
aI0
aatp8
Rp9
.ccollections
OrderedDict
p0
((lp1
(lp2
S'timestamp'
p3
aF1.19321608543396
aa(lp4
S'distance'
p5
aF389.4035186767578
aa(lp6
S'state'
p7
aI0
aatp8
Rp9
.ccollections
OrderedDict
p0
((lp1
(lp2
S'timestamp'
p3
aF1.1933720111846924
aa(lp4
S'distance'
p5
aF389.4035186767578
aa(lp6
S'state'
p7
aI0
aatp8
Rp9
.ccollections
OrderedDict
p0
((lp1
(lp2
S'timestamp'
p3
aF1.1942760944366455
aa(lp4
S'distance'
p5
aF389.4035186767578
aa(lp6
S'state'
p7
aI0
aatp8
Rp9
.ccollections
OrderedDict
p0
((lp1
(lp2
S'timestamp'
p3
aF1.1952650547027588
aa(lp4
S'distance'
p5
aF389.4035186767578
aa(lp6
S'state'
p7
aI0
aatp8
Rp9
.ccollections
OrderedDict
p0
((lp1
(lp2
S'timestamp'
p3
aF1.2032999992370605
aa(lp4
S'distance'
p5
aF389.4035186767578
aa(lp6
S'state'
p7
aI0
aatp8
Rp9
.ccollections
OrderedDict
p0
((lp1
(lp2
S'timestamp'
p3
aF1.2038030624389648
aa(lp4
S'distance'
p5
aF389.4035186767578
aa(lp6
S'state'
p7
aI0
aatp8
Rp9
.ccollections
OrderedDict
p0
((lp1
(lp2
S'timestamp'
p3
aF1.2232980728149414
aa(lp4
S'distance'
p5
aF389.4035186767578
aa(lp6
S'state'
p7
aI0
aatp8
Rp9
.ccollections
OrderedDict
p0
((lp1
(lp2
S'timestamp'
p3
aF1.2235031127929688
aa(lp4
S'distance'
p5
aF389.4035186767578
aa(lp6
S'state'
p7
aI0
aatp8
Rp9
.ccollections
OrderedDict
p0
((lp1
(lp2
S'timestamp'
p3
aF1.2241809368133545
aa(lp4
S'distance'
p5
aF389.4035186767578
aa(lp6
S'state'
p7
aI0
aatp8
Rp9
.ccollections
OrderedDict
p0
((lp1
(lp2
S'timestamp'
p3
aF1.2242560386657715
aa(lp4
S'distance'
p5
aF389.4035186767578
aa(lp6
S'state'
p7
aI0
aatp8
Rp9
.ccollections
OrderedDict
p0
((lp1
(lp2
S'timestamp'
p3
aF1.2331020832061768
aa(lp4
S'distance'
p5
aF389.4035186767578
aa(lp6
S'state'
p7
aI0
aatp8
Rp9
.ccollections
OrderedDict
p0
((lp1
(lp2
S'timestamp'
p3
aF1.2336130142211914
aa(lp4
S'distance'
p5
aF389.4035186767578
aa(lp6
S'state'
p7
aI400
aatp8
Rp9
.ccollections
OrderedDict
p0
((lp1
(lp2
S'timestamp'
p3
aF1.2431540489196777
aa(lp4
S'distance'
p5
aF389.4035186767578
aa(lp6
S'state'
p7
aI400
aatp8
Rp9
.ccollections
OrderedDict
p0
((lp1
(lp2
S'timestamp'
p3
aF1.2435100078582764
aa(lp4
S'distance'
p5
aF389.4035186767578
aa(lp6
S'state'
p7
aI400
aatp8
Rp9
.ccollections
OrderedDict
p0
((lp1
(lp2
S'timestamp'
p3
aF1.2533690929412842
aa(lp4
S'distance'
p5
aF389.4035186767578
aa(lp6
S'state'
p7
aI400
aatp8
Rp9
.ccollections
OrderedDict
p0
((lp1
(lp2
S'timestamp'
p3
aF1.2534699440002441
aa(lp4
S'distance'
p5
aF389.4035186767578
aa(lp6
S'state'
p7
aI400
aatp8
Rp9
.ccollections
OrderedDict
p0
((lp1
(lp2
S'timestamp'
p3
aF1.2709510326385498
aa(lp4
S'distance'
p5
aF389.4035186767578
aa(lp6
S'state'
p7
aI400
aatp8
Rp9
.ccollections
OrderedDict
p0
((lp1
(lp2
S'timestamp'
p3
aF1.2711410522460938
aa(lp4
S'distance'
p5
aF389.4035186767578
aa(lp6
S'state'
p7
aI400
aatp8
Rp9
.ccollections
OrderedDict
p0
((lp1
(lp2
S'timestamp'
p3
aF1.2833049297332764
aa(lp4
S'distance'
p5
aF389.4035186767578
aa(lp6
S'state'
p7
aI400
aatp8
Rp9
.ccollections
OrderedDict
p0
((lp1
(lp2
S'timestamp'
p3
aF1.2833809852600098
aa(lp4
S'distance'
p5
aF389.4035186767578
aa(lp6
S'state'
p7
aI400
aatp8
Rp9
.ccollections
OrderedDict
p0
((lp1
(lp2
S'timestamp'
p3
aF1.2846190929412842
aa(lp4
S'distance'
p5
aF389.4035186767578
aa(lp6
S'state'
p7
aI400
aatp8
Rp9
.ccollections
OrderedDict
p0
((lp1
(lp2
S'timestamp'
p3
aF1.2854759693145752
aa(lp4
S'distance'
p5
aF389.4035186767578
aa(lp6
S'state'
p7
aI400
aatp8
Rp9
.ccollections
OrderedDict
p0
((lp1
(lp2
S'timestamp'
p3
aF1.2931289672851562
aa(lp4
S'distance'
p5
aF389.4035186767578
aa(lp6
S'state'
p7
aI400
aatp8
Rp9
.ccollections
OrderedDict
p0
((lp1
(lp2
S'timestamp'
p3
aF1.2935309410095215
aa(lp4
S'distance'
p5
aF389.4035186767578
aa(lp6
S'state'
p7
aI400
aatp8
Rp9
.ccollections
OrderedDict
p0
((lp1
(lp2
S'timestamp'
p3
aF1.3031179904937744
aa(lp4
S'distance'
p5
aF389.4035186767578
aa(lp6
S'state'
p7
aI400
aatp8
Rp9
.ccollections
OrderedDict
p0
((lp1
(lp2
S'timestamp'
p3
aF1.3035080432891846
aa(lp4
S'distance'
p5
aF389.4035186767578
aa(lp6
S'state'
p7
aI400
aatp8
Rp9
.ccollections
OrderedDict
p0
((lp1
(lp2
S'timestamp'
p3
aF1.312993049621582
aa(lp4
S'distance'
p5
aF389.4035186767578
aa(lp6
S'state'
p7
aI400
aatp8
Rp9
.ccollections
OrderedDict
p0
((lp1
(lp2
S'timestamp'
p3
aF1.3138561248779297
aa(lp4
S'distance'
p5
aF389.4035186767578
aa(lp6
S'state'
p7
aI400
aatp8
Rp9
.ccollections
OrderedDict
p0
((lp1
(lp2
S'timestamp'
p3
aF1.3231611251831055
aa(lp4
S'distance'
p5
aF389.4035186767578
aa(lp6
S'state'
p7
aI400
aatp8
Rp9
.ccollections
OrderedDict
p0
((lp1
(lp2
S'timestamp'
p3
aF1.323801040649414
aa(lp4
S'distance'
p5
aF389.4035186767578
aa(lp6
S'state'
p7
aI400
aatp8
Rp9
.ccollections
OrderedDict
p0
((lp1
(lp2
S'timestamp'
p3
aF1.3329100608825684
aa(lp4
S'distance'
p5
aF389.4035186767578
aa(lp6
S'state'
p7
aI400
aatp8
Rp9
.ccollections
OrderedDict
p0
((lp1
(lp2
S'timestamp'
p3
aF1.3335750102996826
aa(lp4
S'distance'
p5
aF389.4035186767578
aa(lp6
S'state'
p7
aI400
aatp8
Rp9
.ccollections
OrderedDict
p0
((lp1
(lp2
S'timestamp'
p3
aF1.3431570529937744
aa(lp4
S'distance'
p5
aF389.4035186767578
aa(lp6
S'state'
p7
aI400
aatp8
Rp9
.ccollections
OrderedDict
p0
((lp1
(lp2
S'timestamp'
p3
aF1.3435759544372559
aa(lp4
S'distance'
p5
aF389.4035186767578
aa(lp6
S'state'
p7
aI400
aatp8
Rp9
.ccollections
OrderedDict
p0
((lp1
(lp2
S'timestamp'
p3
aF1.3531639575958252
aa(lp4
S'distance'
p5
aF389.4035186767578
aa(lp6
S'state'
p7
aI400
aatp8
Rp9
.ccollections
OrderedDict
p0
((lp1
(lp2
S'timestamp'
p3
aF1.3536510467529297
aa(lp4
S'distance'
p5
aF389.4035186767578
aa(lp6
S'state'
p7
aI400
aatp8
Rp9
.ccollections
OrderedDict
p0
((lp1
(lp2
S'timestamp'
p3
aF1.3632259368896484
aa(lp4
S'distance'
p5
aF389.4035186767578
aa(lp6
S'state'
p7
aI400
aatp8
Rp9
.ccollections
OrderedDict
p0
((lp1
(lp2
S'timestamp'
p3
aF1.3636200428009033
aa(lp4
S'distance'
p5
aF389.4035186767578
aa(lp6
S'state'
p7
aI400
aatp8
Rp9
.ccollections
OrderedDict
p0
((lp1
(lp2
S'timestamp'
p3
aF1.3732719421386719
aa(lp4
S'distance'
p5
aF389.4035186767578
aa(lp6
S'state'
p7
aI400
aatp8
Rp9
.ccollections
OrderedDict
p0
((lp1
(lp2
S'timestamp'
p3
aF1.3738510608673096
aa(lp4
S'distance'
p5
aF389.4035186767578
aa(lp6
S'state'
p7
aI400
aatp8
Rp9
.ccollections
OrderedDict
p0
((lp1
(lp2
S'timestamp'
p3
aF1.3830740451812744
aa(lp4
S'distance'
p5
aF389.4035186767578
aa(lp6
S'state'
p7
aI400
aatp8
Rp9
.ccollections
OrderedDict
p0
((lp1
(lp2
S'timestamp'
p3
aF1.3836419582366943
aa(lp4
S'distance'
p5
aF389.4035186767578
aa(lp6
S'state'
p7
aI400
aatp8
Rp9
.ccollections
OrderedDict
p0
((lp1
(lp2
S'timestamp'
p3
aF1.3930549621582031
aa(lp4
S'distance'
p5
aF389.4035186767578
aa(lp6
S'state'
p7
aI400
aatp8
Rp9
.ccollections
OrderedDict
p0
((lp1
(lp2
S'timestamp'
p3
aF1.393657922744751
aa(lp4
S'distance'
p5
aF389.4035186767578
aa(lp6
S'state'
p7
aI400
aatp8
Rp9
.ccollections
OrderedDict
p0
((lp1
(lp2
S'timestamp'
p3
aF1.4031500816345215
aa(lp4
S'distance'
p5
aF389.4035186767578
aa(lp6
S'state'
p7
aI400
aatp8
Rp9
.ccollections
OrderedDict
p0
((lp1
(lp2
S'timestamp'
p3
aF1.4036741256713867
aa(lp4
S'distance'
p5
aF389.4035186767578
aa(lp6
S'state'
p7
aI400
aatp8
Rp9
.ccollections
OrderedDict
p0
((lp1
(lp2
S'timestamp'
p3
aF1.413074016571045
aa(lp4
S'distance'
p5
aF389.4035186767578
aa(lp6
S'state'
p7
aI400
aatp8
Rp9
.ccollections
OrderedDict
p0
((lp1
(lp2
S'timestamp'
p3
aF1.4137070178985596
aa(lp4
S'distance'
p5
aF389.4035186767578
aa(lp6
S'state'
p7
aI400
aatp8
Rp9
.ccollections
OrderedDict
p0
((lp1
(lp2
S'timestamp'
p3
aF1.4231219291687012
aa(lp4
S'distance'
p5
aF389.4035186767578
aa(lp6
S'state'
p7
aI400
aatp8
Rp9
.ccollections
OrderedDict
p0
((lp1
(lp2
S'timestamp'
p3
aF1.4236500263214111
aa(lp4
S'distance'
p5
aF389.4035186767578
aa(lp6
S'state'
p7
aI400
aatp8
Rp9
.ccollections
OrderedDict
p0
((lp1
(lp2
S'timestamp'
p3
aF1.4332540035247803
aa(lp4
S'distance'
p5
aF389.4035186767578
aa(lp6
S'state'
p7
aI400
aatp8
Rp9
.ccollections
OrderedDict
p0
((lp1
(lp2
S'timestamp'
p3
aF1.4336130619049072
aa(lp4
S'distance'
p5
aF389.4035186767578
aa(lp6
S'state'
p7
aI400
aatp8
Rp9
.ccollections
OrderedDict
p0
((lp1
(lp2
S'timestamp'
p3
aF1.4431250095367432
aa(lp4
S'distance'
p5
aF389.4035186767578
aa(lp6
S'state'
p7
aI400
aatp8
Rp9
.ccollections
OrderedDict
p0
((lp1
(lp2
S'timestamp'
p3
aF1.4437329769134521
aa(lp4
S'distance'
p5
aF389.4035186767578
aa(lp6
S'state'
p7
aI400
aatp8
Rp9
.ccollections
OrderedDict
p0
((lp1
(lp2
S'timestamp'
p3
aF1.4534039497375488
aa(lp4
S'distance'
p5
aF389.4035186767578
aa(lp6
S'state'
p7
aI400
aatp8
Rp9
.ccollections
OrderedDict
p0
((lp1
(lp2
S'timestamp'
p3
aF1.453629970550537
aa(lp4
S'distance'
p5
aF389.4035186767578
aa(lp6
S'state'
p7
aI400
aatp8
Rp9
.ccollections
OrderedDict
p0
((lp1
(lp2
S'timestamp'
p3
aF1.4635341167449951
aa(lp4
S'distance'
p5
aF389.4035186767578
aa(lp6
S'state'
p7
aI400
aatp8
Rp9
.ccollections
OrderedDict
p0
((lp1
(lp2
S'timestamp'
p3
aF1.4643490314483643
aa(lp4
S'distance'
p5
aF389.4035186767578
aa(lp6
S'state'
p7
aI400
aatp8
Rp9
.ccollections
OrderedDict
p0
((lp1
(lp2
S'timestamp'
p3
aF1.473341941833496
aa(lp4
S'distance'
p5
aF389.4035186767578
aa(lp6
S'state'
p7
aI400
aatp8
Rp9
.ccollections
OrderedDict
p0
((lp1
(lp2
S'timestamp'
p3
aF1.4736769199371338
aa(lp4
S'distance'
p5
aF389.4035186767578
aa(lp6
S'state'
p7
aI400
aatp8
Rp9
.ccollections
OrderedDict
p0
((lp1
(lp2
S'timestamp'
p3
aF1.4833269119262695
aa(lp4
S'distance'
p5
aF389.4035186767578
aa(lp6
S'state'
p7
aI400
aatp8
Rp9
.ccollections
OrderedDict
p0
((lp1
(lp2
S'timestamp'
p3
aF1.483652114868164
aa(lp4
S'distance'
p5
aF389.4035186767578
aa(lp6
S'state'
p7
aI400
aatp8
Rp9
.ccollections
OrderedDict
p0
((lp1
(lp2
S'timestamp'
p3
aF1.493312120437622
aa(lp4
S'distance'
p5
aF389.4035186767578
aa(lp6
S'state'
p7
aI400
aatp8
Rp9
.ccollections
OrderedDict
p0
((lp1
(lp2
S'timestamp'
p3
aF1.4936270713806152
aa(lp4
S'distance'
p5
aF389.4035186767578
aa(lp6
S'state'
p7
aI400
aatp8
Rp9
.ccollections
OrderedDict
p0
((lp1
(lp2
S'timestamp'
p3
aF1.5034661293029785
aa(lp4
S'distance'
p5
aF389.4035186767578
aa(lp6
S'state'
p7
aI400
aatp8
Rp9
.ccollections
OrderedDict
p0
((lp1
(lp2
S'timestamp'
p3
aF1.503633975982666
aa(lp4
S'distance'
p5
aF389.4035186767578
aa(lp6
S'state'
p7
aI400
aatp8
Rp9
.ccollections
OrderedDict
p0
((lp1
(lp2
S'timestamp'
p3
aF1.513559103012085
aa(lp4
S'distance'
p5
aF389.4035186767578
aa(lp6
S'state'
p7
aI400
aatp8
Rp9
.ccollections
OrderedDict
p0
((lp1
(lp2
S'timestamp'
p3
aF1.5137920379638672
aa(lp4
S'distance'
p5
aF389.4035186767578
aa(lp6
S'state'
p7
aI400
aatp8
Rp9
.ccollections
OrderedDict
p0
((lp1
(lp2
S'timestamp'
p3
aF1.5233590602874756
aa(lp4
S'distance'
p5
aF389.4035186767578
aa(lp6
S'state'
p7
aI400
aatp8
Rp9
.ccollections
OrderedDict
p0
((lp1
(lp2
S'timestamp'
p3
aF1.5237810611724854
aa(lp4
S'distance'
p5
aF389.4035186767578
aa(lp6
S'state'
p7
aI400
aatp8
Rp9
.ccollections
OrderedDict
p0
((lp1
(lp2
S'timestamp'
p3
aF1.5331799983978271
aa(lp4
S'distance'
p5
aF389.4035186767578
aa(lp6
S'state'
p7
aI400
aatp8
Rp9
.ccollections
OrderedDict
p0
((lp1
(lp2
S'timestamp'
p3
aF1.533708095550537
aa(lp4
S'distance'
p5
aF389.4035186767578
aa(lp6
S'state'
p7
aI400
aatp8
Rp9
.ccollections
OrderedDict
p0
((lp1
(lp2
S'timestamp'
p3
aF1.5432929992675781
aa(lp4
S'distance'
p5
aF389.4035186767578
aa(lp6
S'state'
p7
aI400
aatp8
Rp9
.ccollections
OrderedDict
p0
((lp1
(lp2
S'timestamp'
p3
aF1.5437359809875488
aa(lp4
S'distance'
p5
aF389.4035186767578
aa(lp6
S'state'
p7
aI400
aatp8
Rp9
.ccollections
OrderedDict
p0
((lp1
(lp2
S'timestamp'
p3
aF1.553511142730713
aa(lp4
S'distance'
p5
aF389.4035186767578
aa(lp6
S'state'
p7
aI400
aatp8
Rp9
.ccollections
OrderedDict
p0
((lp1
(lp2
S'timestamp'
p3
aF1.5536599159240723
aa(lp4
S'distance'
p5
aF389.4035186767578
aa(lp6
S'state'
p7
aI400
aatp8
Rp9
.ccollections
OrderedDict
p0
((lp1
(lp2
S'timestamp'
p3
aF1.5636069774627686
aa(lp4
S'distance'
p5
aF389.4035186767578
aa(lp6
S'state'
p7
aI400
aatp8
Rp9
.ccollections
OrderedDict
p0
((lp1
(lp2
S'timestamp'
p3
aF1.5637190341949463
aa(lp4
S'distance'
p5
aF389.4035186767578
aa(lp6
S'state'
p7
aI400
aatp8
Rp9
.ccollections
OrderedDict
p0
((lp1
(lp2
S'timestamp'
p3
aF1.573801040649414
aa(lp4
S'distance'
p5
aF389.4035186767578
aa(lp6
S'state'
p7
aI400
aatp8
Rp9
.ccollections
OrderedDict
p0
((lp1
(lp2
S'timestamp'
p3
aF1.5739259719848633
aa(lp4
S'distance'
p5
aF389.4035186767578
aa(lp6
S'state'
p7
aI400
aatp8
Rp9
.ccollections
OrderedDict
p0
((lp1
(lp2
S'timestamp'
p3
aF1.5834081172943115
aa(lp4
S'distance'
p5
aF389.4035186767578
aa(lp6
S'state'
p7
aI400
aatp8
Rp9
.ccollections
OrderedDict
p0
((lp1
(lp2
S'timestamp'
p3
aF1.5838379859924316
aa(lp4
S'distance'
p5
aF389.4035186767578
aa(lp6
S'state'
p7
aI400
aatp8
Rp9
.ccollections
OrderedDict
p0
((lp1
(lp2
S'timestamp'
p3
aF1.5935580730438232
aa(lp4
S'distance'
p5
aF389.4035186767578
aa(lp6
S'state'
p7
aI400
aatp8
Rp9
.ccollections
OrderedDict
p0
((lp1
(lp2
S'timestamp'
p3
aF1.5936939716339111
aa(lp4
S'distance'
p5
aF389.4035186767578
aa(lp6
S'state'
p7
aI400
aatp8
Rp9
.ccollections
OrderedDict
p0
((lp1
(lp2
S'timestamp'
p3
aF1.6035289764404297
aa(lp4
S'distance'
p5
aF389.4035186767578
aa(lp6
S'state'
p7
aI400
aatp8
Rp9
.ccollections
OrderedDict
p0
((lp1
(lp2
S'timestamp'
p3
aF1.6038050651550293
aa(lp4
S'distance'
p5
aF389.4035186767578
aa(lp6
S'state'
p7
aI400
aatp8
Rp9
.ccollections
OrderedDict
p0
((lp1
(lp2
S'timestamp'
p3
aF1.613420009613037
aa(lp4
S'distance'
p5
aF389.4035186767578
aa(lp6
S'state'
p7
aI400
aatp8
Rp9
.ccollections
OrderedDict
p0
((lp1
(lp2
S'timestamp'
p3
aF1.6137700080871582
aa(lp4
S'distance'
p5
aF389.4035186767578
aa(lp6
S'state'
p7
aI400
aatp8
Rp9
.ccollections
OrderedDict
p0
((lp1
(lp2
S'timestamp'
p3
aF1.6232550144195557
aa(lp4
S'distance'
p5
aF389.4035186767578
aa(lp6
S'state'
p7
aI400
aatp8
Rp9
.ccollections
OrderedDict
p0
((lp1
(lp2
S'timestamp'
p3
aF1.6239690780639648
aa(lp4
S'distance'
p5
aF389.4035186767578
aa(lp6
S'state'
p7
aI400
aatp8
Rp9
.ccollections
OrderedDict
p0
((lp1
(lp2
S'timestamp'
p3
aF1.6332919597625732
aa(lp4
S'distance'
p5
aF389.4035186767578
aa(lp6
S'state'
p7
aI400
aatp8
Rp9
.ccollections
OrderedDict
p0
((lp1
(lp2
S'timestamp'
p3
aF1.633868932723999
aa(lp4
S'distance'
p5
aF389.4035186767578
aa(lp6
S'state'
p7
aI400
aatp8
Rp9
.ccollections
OrderedDict
p0
((lp1
(lp2
S'timestamp'
p3
aF1.6434240341186523
aa(lp4
S'distance'
p5
aF389.4035186767578
aa(lp6
S'state'
p7
aI400
aatp8
Rp9
.ccollections
OrderedDict
p0
((lp1
(lp2
S'timestamp'
p3
aF1.6438779830932617
aa(lp4
S'distance'
p5
aF389.4035186767578
aa(lp6
S'state'
p7
aI400
aatp8
Rp9
.ccollections
OrderedDict
p0
((lp1
(lp2
S'timestamp'
p3
aF1.6533689498901367
aa(lp4
S'distance'
p5
aF389.4035186767578
aa(lp6
S'state'
p7
aI400
aatp8
Rp9
.ccollections
OrderedDict
p0
((lp1
(lp2
S'timestamp'
p3
aF1.6634159088134766
aa(lp4
S'distance'
p5
aF389.4035186767578
aa(lp6
S'state'
p7
aI400
aatp8
Rp9
.ccollections
OrderedDict
p0
((lp1
(lp2
S'timestamp'
p3
aF1.6637530326843262
aa(lp4
S'distance'
p5
aF389.4035186767578
aa(lp6
S'state'
p7
aI400
aatp8
Rp9
.ccollections
OrderedDict
p0
((lp1
(lp2
S'timestamp'
p3
aF1.6643941402435303
aa(lp4
S'distance'
p5
aF389.4035186767578
aa(lp6
S'state'
p7
aI400
aatp8
Rp9
.ccollections
OrderedDict
p0
((lp1
(lp2
S'timestamp'
p3
aF1.6734390258789062
aa(lp4
S'distance'
p5
aF389.4035186767578
aa(lp6
S'state'
p7
aI400
aatp8
Rp9
.ccollections
OrderedDict
p0
((lp1
(lp2
S'timestamp'
p3
aF1.6739370822906494
aa(lp4
S'distance'
p5
aF389.4035186767578
aa(lp6
S'state'
p7
aI400
aatp8
Rp9
.ccollections
OrderedDict
p0
((lp1
(lp2
S'timestamp'
p3
aF1.6835479736328125
aa(lp4
S'distance'
p5
aF389.4035186767578
aa(lp6
S'state'
p7
aI0
aatp8
Rp9
.ccollections
OrderedDict
p0
((lp1
(lp2
S'timestamp'
p3
aF2.2439799308776855
aa(lp4
S'distance'
p5
aF268.3
aa(lp6
S'state'
p7
aI0
aatp8
Rp9
.ccollections
OrderedDict
p0
((lp1
(lp2
S'timestamp'
p3
aF2.2531790733337402
aa(lp4
S'distance'
p5
aF268.3
aa(lp6
S'state'
p7
aI0
aatp8
Rp9
.ccollections
OrderedDict
p0
((lp1
(lp2
S'timestamp'
p3
aF2.253736972808838
aa(lp4
S'distance'
p5
aF268.3
aa(lp6
S'state'
p7
aI0
aatp8
Rp9
.ccollections
OrderedDict
p0
((lp1
(lp2
S'timestamp'
p3
aF2.2633681297302246
aa(lp4
S'distance'
p5
aF268.3
aa(lp6
S'state'
p7
aI0
aatp8
Rp9
.ccollections
OrderedDict
p0
((lp1
(lp2
S'timestamp'
p3
aF2.263641119003296
aa(lp4
S'distance'
p5
aF268.3
aa(lp6
S'state'
p7
aI0
aatp8
Rp9
.ccollections
OrderedDict
p0
((lp1
(lp2
S'timestamp'
p3
aF2.273252010345459
aa(lp4
S'distance'
p5
aF268.3
aa(lp6
S'state'
p7
aI0
aatp8
Rp9
.ccollections
OrderedDict
p0
((lp1
(lp2
S'timestamp'
p3
aF2.2736449241638184
aa(lp4
S'distance'
p5
aF268.3
aa(lp6
S'state'
p7
aI0
aatp8
Rp9
.ccollections
OrderedDict
p0
((lp1
(lp2
S'timestamp'
p3
aF2.2832391262054443
aa(lp4
S'distance'
p5
aF268.3
aa(lp6
S'state'
p7
aI0
aatp8
Rp9
.ccollections
OrderedDict
p0
((lp1
(lp2
S'timestamp'
p3
aF2.2835330963134766
aa(lp4
S'distance'
p5
aF268.3
aa(lp6
S'state'
p7
aI0
aatp8
Rp9
.ccollections
OrderedDict
p0
((lp1
(lp2
S'timestamp'
p3
aF2.293363094329834
aa(lp4
S'distance'
p5
aF268.3
aa(lp6
S'state'
p7
aI0
aatp8
Rp9
.ccollections
OrderedDict
p0
((lp1
(lp2
S'timestamp'
p3
aF2.293501138687134
aa(lp4
S'distance'
p5
aF268.3
aa(lp6
S'state'
p7
aI0
aatp8
Rp9
.ccollections
OrderedDict
p0
((lp1
(lp2
S'timestamp'
p3
aF2.303412914276123
aa(lp4
S'distance'
p5
aF268.3
aa(lp6
S'state'
p7
aI0
aatp8
Rp9
.ccollections
OrderedDict
p0
((lp1
(lp2
S'timestamp'
p3
aF2.303494930267334
aa(lp4
S'distance'
p5
aF268.3
aa(lp6
S'state'
p7
aI0
aatp8
Rp9
.ccollections
OrderedDict
p0
((lp1
(lp2
S'timestamp'
p3
aF2.3130040168762207
aa(lp4
S'distance'
p5
aF268.3
aa(lp6
S'state'
p7
aI0
aatp8
Rp9
.ccollections
OrderedDict
p0
((lp1
(lp2
S'timestamp'
p3
aF2.3135299682617188
aa(lp4
S'distance'
p5
aF268.3
aa(lp6
S'state'
p7
aI0
aatp8
Rp9
.ccollections
OrderedDict
p0
((lp1
(lp2
S'timestamp'
p3
aF2.32304310798645
aa(lp4
S'distance'
p5
aF268.3
aa(lp6
S'state'
p7
aI0
aatp8
Rp9
.ccollections
OrderedDict
p0
((lp1
(lp2
S'timestamp'
p3
aF2.323837995529175
aa(lp4
S'distance'
p5
aF268.3
aa(lp6
S'state'
p7
aI0
aatp8
Rp9
.ccollections
OrderedDict
p0
((lp1
(lp2
S'timestamp'
p3
aF2.3332409858703613
aa(lp4
S'distance'
p5
aF268.3
aa(lp6
S'state'
p7
aI400
aatp8
Rp9
.ccollections
OrderedDict
p0
((lp1
(lp2
S'timestamp'
p3
aF2.3336191177368164
aa(lp4
S'distance'
p5
aF268.3
aa(lp6
S'state'
p7
aI400
aatp8
Rp9
.ccollections
OrderedDict
p0
((lp1
(lp2
S'timestamp'
p3
aF2.343101978302002
aa(lp4
S'distance'
p5
aF268.3
aa(lp6
S'state'
p7
aI400
aatp8
Rp9
.ccollections
OrderedDict
p0
((lp1
(lp2
S'timestamp'
p3
aF2.343593120574951
aa(lp4
S'distance'
p5
aF268.3
aa(lp6
S'state'
p7
aI400
aatp8
Rp9
.ccollections
OrderedDict
p0
((lp1
(lp2
S'timestamp'
p3
aF2.3532841205596924
aa(lp4
S'distance'
p5
aF268.3
aa(lp6
S'state'
p7
aI400
aatp8
Rp9
.ccollections
OrderedDict
p0
((lp1
(lp2
S'timestamp'
p3
aF2.3534231185913086
aa(lp4
S'distance'
p5
aF268.3
aa(lp6
S'state'
p7
aI400
aatp8
Rp9
.ccollections
OrderedDict
p0
((lp1
(lp2
S'timestamp'
p3
aF2.366262912750244
aa(lp4
S'distance'
p5
aF268.3
aa(lp6
S'state'
p7
aI400
aatp8
Rp9
.ccollections
OrderedDict
p0
((lp1
(lp2
S'timestamp'
p3
aF2.368818998336792
aa(lp4
S'distance'
p5
aF268.3
aa(lp6
S'state'
p7
aI400
aatp8
Rp9
.ccollections
OrderedDict
p0
((lp1
(lp2
S'timestamp'
p3
aF2.373767137527466
aa(lp4
S'distance'
p5
aF268.3
aa(lp6
S'state'
p7
aI400
aatp8
Rp9
.ccollections
OrderedDict
p0
((lp1
(lp2
S'timestamp'
p3
aF2.374656915664673
aa(lp4
S'distance'
p5
aF268.3
aa(lp6
S'state'
p7
aI400
aatp8
Rp9
.ccollections
OrderedDict
p0
((lp1
(lp2
S'timestamp'
p3
aF2.383070945739746
aa(lp4
S'distance'
p5
aF268.3
aa(lp6
S'state'
p7
aI400
aatp8
Rp9
.ccollections
OrderedDict
p0
((lp1
(lp2
S'timestamp'
p3
aF2.393204927444458
aa(lp4
S'distance'
p5
aF268.3
aa(lp6
S'state'
p7
aI400
aatp8
Rp9
.ccollections
OrderedDict
p0
((lp1
(lp2
S'timestamp'
p3
aF2.3932859897613525
aa(lp4
S'distance'
p5
aF268.3
aa(lp6
S'state'
p7
aI400
aatp8
Rp9
.ccollections
OrderedDict
p0
((lp1
(lp2
S'timestamp'
p3
aF2.3943660259246826
aa(lp4
S'distance'
p5
aF268.3
aa(lp6
S'state'
p7
aI400
aatp8
Rp9
.ccollections
OrderedDict
p0
((lp1
(lp2
S'timestamp'
p3
aF2.4032070636749268
aa(lp4
S'distance'
p5
aF268.3
aa(lp6
S'state'
p7
aI400
aatp8
Rp9
.ccollections
OrderedDict
p0
((lp1
(lp2
S'timestamp'
p3
aF2.4033451080322266
aa(lp4
S'distance'
p5
aF268.3
aa(lp6
S'state'
p7
aI400
aatp8
Rp9
.ccollections
OrderedDict
p0
((lp1
(lp2
S'timestamp'
p3
aF2.4231090545654297
aa(lp4
S'distance'
p5
aF268.3
aa(lp6
S'state'
p7
aI400
aatp8
Rp9
.ccollections
OrderedDict
p0
((lp1
(lp2
S'timestamp'
p3
aF2.423190116882324
aa(lp4
S'distance'
p5
aF268.3
aa(lp6
S'state'
p7
aI400
aatp8
Rp9
.ccollections
OrderedDict
p0
((lp1
(lp2
S'timestamp'
p3
aF2.4237890243530273
aa(lp4
S'distance'
p5
aF268.3
aa(lp6
S'state'
p7
aI400
aatp8
Rp9
.ccollections
OrderedDict
p0
((lp1
(lp2
S'timestamp'
p3
aF2.4243509769439697
aa(lp4
S'distance'
p5
aF268.3
aa(lp6
S'state'
p7
aI400
aatp8
Rp9
.ccollections
OrderedDict
p0
((lp1
(lp2
S'timestamp'
p3
aF2.433100938796997
aa(lp4
S'distance'
p5
aF268.3
aa(lp6
S'state'
p7
aI400
aatp8
Rp9
.ccollections
OrderedDict
p0
((lp1
(lp2
S'timestamp'
p3
aF2.4332621097564697
aa(lp4
S'distance'
p5
aF268.3
aa(lp6
S'state'
p7
aI400
aatp8
Rp9
.ccollections
OrderedDict
p0
((lp1
(lp2
S'timestamp'
p3
aF2.453016996383667
aa(lp4
S'distance'
p5
aF268.3
aa(lp6
S'state'
p7
aI400
aatp8
Rp9
.ccollections
OrderedDict
p0
((lp1
(lp2
S'timestamp'
p3
aF2.453104019165039
aa(lp4
S'distance'
p5
aF268.3
aa(lp6
S'state'
p7
aI400
aatp8
Rp9
.ccollections
OrderedDict
p0
((lp1
(lp2
S'timestamp'
p3
aF2.45450496673584
aa(lp4
S'distance'
p5
aF268.3
aa(lp6
S'state'
p7
aI400
aatp8
Rp9
.ccollections
OrderedDict
p0
((lp1
(lp2
S'timestamp'
p3
aF2.4554190635681152
aa(lp4
S'distance'
p5
aF268.3
aa(lp6
S'state'
p7
aI400
aatp8
Rp9
.ccollections
OrderedDict
p0
((lp1
(lp2
S'timestamp'
p3
aF2.464200019836426
aa(lp4
S'distance'
p5
aF268.3
aa(lp6
S'state'
p7
aI400
aatp8
Rp9
.ccollections
OrderedDict
p0
((lp1
(lp2
S'timestamp'
p3
aF2.464285135269165
aa(lp4
S'distance'
p5
aF268.3
aa(lp6
S'state'
p7
aI400
aatp8
Rp9
.ccollections
OrderedDict
p0
((lp1
(lp2
S'timestamp'
p3
aF2.4730889797210693
aa(lp4
S'distance'
p5
aF268.3
aa(lp6
S'state'
p7
aI400
aatp8
Rp9
.ccollections
OrderedDict
p0
((lp1
(lp2
S'timestamp'
p3
aF2.4732210636138916
aa(lp4
S'distance'
p5
aF268.3
aa(lp6
S'state'
p7
aI400
aatp8
Rp9
.ccollections
OrderedDict
p0
((lp1
(lp2
S'timestamp'
p3
aF2.483088970184326
aa(lp4
S'distance'
p5
aF268.3
aa(lp6
S'state'
p7
aI400
aatp8
Rp9
.ccollections
OrderedDict
p0
((lp1
(lp2
S'timestamp'
p3
aF2.483220100402832
aa(lp4
S'distance'
p5
aF268.3
aa(lp6
S'state'
p7
aI400
aatp8
Rp9
.ccollections
OrderedDict
p0
((lp1
(lp2
S'timestamp'
p3
aF2.4930970668792725
aa(lp4
S'distance'
p5
aF268.3
aa(lp6
S'state'
p7
aI400
aatp8
Rp9
.ccollections
OrderedDict
p0
((lp1
(lp2
S'timestamp'
p3
aF2.4934229850769043
aa(lp4
S'distance'
p5
aF268.3
aa(lp6
S'state'
p7
aI400
aatp8
Rp9
.ccollections
OrderedDict
p0
((lp1
(lp2
S'timestamp'
p3
aF2.5028159618377686
aa(lp4
S'distance'
p5
aF268.3
aa(lp6
S'state'
p7
aI400
aatp8
Rp9
.ccollections
OrderedDict
p0
((lp1
(lp2
S'timestamp'
p3
aF2.5031681060791016
aa(lp4
S'distance'
p5
aF268.3
aa(lp6
S'state'
p7
aI400
aatp8
Rp9
.ccollections
OrderedDict
p0
((lp1
(lp2
S'timestamp'
p3
aF2.5129051208496094
aa(lp4
S'distance'
p5
aF268.3
aa(lp6
S'state'
p7
aI400
aatp8
Rp9
.ccollections
OrderedDict
p0
((lp1
(lp2
S'timestamp'
p3
aF2.513193130493164
aa(lp4
S'distance'
p5
aF268.3
aa(lp6
S'state'
p7
aI400
aatp8
Rp9
.ccollections
OrderedDict
p0
((lp1
(lp2
S'timestamp'
p3
aF2.5230789184570312
aa(lp4
S'distance'
p5
aF268.3
aa(lp6
S'state'
p7
aI400
aatp8
Rp9
.ccollections
OrderedDict
p0
((lp1
(lp2
S'timestamp'
p3
aF2.523164987564087
aa(lp4
S'distance'
p5
aF268.3
aa(lp6
S'state'
p7
aI400
aatp8
Rp9
.ccollections
OrderedDict
p0
((lp1
(lp2
S'timestamp'
p3
aF2.5330119132995605
aa(lp4
S'distance'
p5
aF268.3
aa(lp6
S'state'
p7
aI400
aatp8
Rp9
.ccollections
OrderedDict
p0
((lp1
(lp2
S'timestamp'
p3
aF2.5331480503082275
aa(lp4
S'distance'
p5
aF268.3
aa(lp6
S'state'
p7
aI400
aatp8
Rp9
.ccollections
OrderedDict
p0
((lp1
(lp2
S'timestamp'
p3
aF2.5427260398864746
aa(lp4
S'distance'
p5
aF268.3
aa(lp6
S'state'
p7
aI400
aatp8
Rp9
.ccollections
OrderedDict
p0
((lp1
(lp2
S'timestamp'
p3
aF2.5433521270751953
aa(lp4
S'distance'
p5
aF268.3
aa(lp6
S'state'
p7
aI400
aatp8
Rp9
.ccollections
OrderedDict
p0
((lp1
(lp2
S'timestamp'
p3
aF2.5527501106262207
aa(lp4
S'distance'
p5
aF268.3
aa(lp6
S'state'
p7
aI400
aatp8
Rp9
.ccollections
OrderedDict
p0
((lp1
(lp2
S'timestamp'
p3
aF2.5533220767974854
aa(lp4
S'distance'
p5
aF268.3
aa(lp6
S'state'
p7
aI400
aatp8
Rp9
.ccollections
OrderedDict
p0
((lp1
(lp2
S'timestamp'
p3
aF2.5627009868621826
aa(lp4
S'distance'
p5
aF268.3
aa(lp6
S'state'
p7
aI400
aatp8
Rp9
.ccollections
OrderedDict
p0
((lp1
(lp2
S'timestamp'
p3
aF2.563138961791992
aa(lp4
S'distance'
p5
aF268.3
aa(lp6
S'state'
p7
aI400
aatp8
Rp9
.ccollections
OrderedDict
p0
((lp1
(lp2
S'timestamp'
p3
aF2.5730321407318115
aa(lp4
S'distance'
p5
aF268.3
aa(lp6
S'state'
p7
aI400
aatp8
Rp9
.ccollections
OrderedDict
p0
((lp1
(lp2
S'timestamp'
p3
aF2.5732669830322266
aa(lp4
S'distance'
p5
aF268.3
aa(lp6
S'state'
p7
aI400
aatp8
Rp9
.ccollections
OrderedDict
p0
((lp1
(lp2
S'timestamp'
p3
aF2.5830390453338623
aa(lp4
S'distance'
p5
aF268.3
aa(lp6
S'state'
p7
aI400
aatp8
Rp9
.ccollections
OrderedDict
p0
((lp1
(lp2
S'timestamp'
p3
aF2.5832741260528564
aa(lp4
S'distance'
p5
aF268.3
aa(lp6
S'state'
p7
aI400
aatp8
Rp9
.ccollections
OrderedDict
p0
((lp1
(lp2
S'timestamp'
p3
aF2.5927350521087646
aa(lp4
S'distance'
p5
aF268.3
aa(lp6
S'state'
p7
aI400
aatp8
Rp9
.ccollections
OrderedDict
p0
((lp1
(lp2
S'timestamp'
p3
aF2.59318208694458
aa(lp4
S'distance'
p5
aF268.3
aa(lp6
S'state'
p7
aI400
aatp8
Rp9
.ccollections
OrderedDict
p0
((lp1
(lp2
S'timestamp'
p3
aF2.6027231216430664
aa(lp4
S'distance'
p5
aF268.3
aa(lp6
S'state'
p7
aI400
aatp8
Rp9
.ccollections
OrderedDict
p0
((lp1
(lp2
S'timestamp'
p3
aF2.603177070617676
aa(lp4
S'distance'
p5
aF268.3
aa(lp6
S'state'
p7
aI400
aatp8
Rp9
.ccollections
OrderedDict
p0
((lp1
(lp2
S'timestamp'
p3
aF2.6125059127807617
aa(lp4
S'distance'
p5
aF268.3
aa(lp6
S'state'
p7
aI400
aatp8
Rp9
.ccollections
OrderedDict
p0
((lp1
(lp2
S'timestamp'
p3
aF2.613266944885254
aa(lp4
S'distance'
p5
aF268.3
aa(lp6
S'state'
p7
aI400
aatp8
Rp9
.ccollections
OrderedDict
p0
((lp1
(lp2
S'timestamp'
p3
aF2.6226210594177246
aa(lp4
S'distance'
p5
aF268.3
aa(lp6
S'state'
p7
aI400
aatp8
Rp9
.ccollections
OrderedDict
p0
((lp1
(lp2
S'timestamp'
p3
aF2.623213052749634
aa(lp4
S'distance'
p5
aF268.3
aa(lp6
S'state'
p7
aI400
aatp8
Rp9
.ccollections
OrderedDict
p0
((lp1
(lp2
S'timestamp'
p3
aF2.6326839923858643
aa(lp4
S'distance'
p5
aF268.3
aa(lp6
S'state'
p7
aI400
aatp8
Rp9
.ccollections
OrderedDict
p0
((lp1
(lp2
S'timestamp'
p3
aF2.633125066757202
aa(lp4
S'distance'
p5
aF268.3
aa(lp6
S'state'
p7
aI400
aatp8
Rp9
.ccollections
OrderedDict
p0
((lp1
(lp2
S'timestamp'
p3
aF2.6426610946655273
aa(lp4
S'distance'
p5
aF268.3
aa(lp6
S'state'
p7
aI400
aatp8
Rp9
.ccollections
OrderedDict
p0
((lp1
(lp2
S'timestamp'
p3
aF2.6431140899658203
aa(lp4
S'distance'
p5
aF268.3
aa(lp6
S'state'
p7
aI400
aatp8
Rp9
.ccollections
OrderedDict
p0
((lp1
(lp2
S'timestamp'
p3
aF2.6527011394500732
aa(lp4
S'distance'
p5
aF268.3
aa(lp6
S'state'
p7
aI400
aatp8
Rp9
.ccollections
OrderedDict
p0
((lp1
(lp2
S'timestamp'
p3
aF2.6530230045318604
aa(lp4
S'distance'
p5
aF268.3
aa(lp6
S'state'
p7
aI400
aatp8
Rp9
.ccollections
OrderedDict
p0
((lp1
(lp2
S'timestamp'
p3
aF2.662450075149536
aa(lp4
S'distance'
p5
aF268.3
aa(lp6
S'state'
p7
aI400
aatp8
Rp9
.ccollections
OrderedDict
p0
((lp1
(lp2
S'timestamp'
p3
aF2.6630170345306396
aa(lp4
S'distance'
p5
aF268.3
aa(lp6
S'state'
p7
aI400
aatp8
Rp9
.ccollections
OrderedDict
p0
((lp1
(lp2
S'timestamp'
p3
aF2.6727609634399414
aa(lp4
S'distance'
p5
aF268.3
aa(lp6
S'state'
p7
aI400
aatp8
Rp9
.ccollections
OrderedDict
p0
((lp1
(lp2
S'timestamp'
p3
aF2.6730010509490967
aa(lp4
S'distance'
p5
aF268.3
aa(lp6
S'state'
p7
aI400
aatp8
Rp9
.ccollections
OrderedDict
p0
((lp1
(lp2
S'timestamp'
p3
aF2.682771921157837
aa(lp4
S'distance'
p5
aF268.3
aa(lp6
S'state'
p7
aI400
aatp8
Rp9
.ccollections
OrderedDict
p0
((lp1
(lp2
S'timestamp'
p3
aF2.6829090118408203
aa(lp4
S'distance'
p5
aF268.3
aa(lp6
S'state'
p7
aI400
aatp8
Rp9
.ccollections
OrderedDict
p0
((lp1
(lp2
S'timestamp'
p3
aF2.6927690505981445
aa(lp4
S'distance'
p5
aF268.3
aa(lp6
S'state'
p7
aI400
aatp8
Rp9
.ccollections
OrderedDict
p0
((lp1
(lp2
S'timestamp'
p3
aF2.692902088165283
aa(lp4
S'distance'
p5
aF268.3
aa(lp6
S'state'
p7
aI400
aatp8
Rp9
.ccollections
OrderedDict
p0
((lp1
(lp2
S'timestamp'
p3
aF2.702565908432007
aa(lp4
S'distance'
p5
aF268.3
aa(lp6
S'state'
p7
aI400
aatp8
Rp9
.ccollections
OrderedDict
p0
((lp1
(lp2
S'timestamp'
p3
aF2.7029459476470947
aa(lp4
S'distance'
p5
aF268.3
aa(lp6
S'state'
p7
aI400
aatp8
Rp9
.ccollections
OrderedDict
p0
((lp1
(lp2
S'timestamp'
p3
aF2.7125160694122314
aa(lp4
S'distance'
p5
aF268.3
aa(lp6
S'state'
p7
aI400
aatp8
Rp9
.ccollections
OrderedDict
p0
((lp1
(lp2
S'timestamp'
p3
aF2.712857961654663
aa(lp4
S'distance'
p5
aF268.3
aa(lp6
S'state'
p7
aI400
aatp8
Rp9
.ccollections
OrderedDict
p0
((lp1
(lp2
S'timestamp'
p3
aF2.722649097442627
aa(lp4
S'distance'
p5
aF268.3
aa(lp6
S'state'
p7
aI400
aatp8
Rp9
.ccollections
OrderedDict
p0
((lp1
(lp2
S'timestamp'
p3
aF2.7228951454162598
aa(lp4
S'distance'
p5
aF268.3
aa(lp6
S'state'
p7
aI400
aatp8
Rp9
.ccollections
OrderedDict
p0
((lp1
(lp2
S'timestamp'
p3
aF2.7322990894317627
aa(lp4
S'distance'
p5
aF268.3
aa(lp6
S'state'
p7
aI400
aatp8
Rp9
.ccollections
OrderedDict
p0
((lp1
(lp2
S'timestamp'
p3
aF2.7330870628356934
aa(lp4
S'distance'
p5
aF268.3
aa(lp6
S'state'
p7
aI400
aatp8
Rp9
.ccollections
OrderedDict
p0
((lp1
(lp2
S'timestamp'
p3
aF2.7423179149627686
aa(lp4
S'distance'
p5
aF268.3
aa(lp6
S'state'
p7
aI400
aatp8
Rp9
.ccollections
OrderedDict
p0
((lp1
(lp2
S'timestamp'
p3
aF2.743009090423584
aa(lp4
S'distance'
p5
aF268.3
aa(lp6
S'state'
p7
aI400
aatp8
Rp9
.ccollections
OrderedDict
p0
((lp1
(lp2
S'timestamp'
p3
aF2.752497911453247
aa(lp4
S'distance'
p5
aF268.3
aa(lp6
S'state'
p7
aI400
aatp8
Rp9
.ccollections
OrderedDict
p0
((lp1
(lp2
S'timestamp'
p3
aF2.7530300617218018
aa(lp4
S'distance'
p5
aF268.3
aa(lp6
S'state'
p7
aI400
aatp8
Rp9
.ccollections
OrderedDict
p0
((lp1
(lp2
S'timestamp'
p3
aF2.7624969482421875
aa(lp4
S'distance'
p5
aF268.3
aa(lp6
S'state'
p7
aI400
aatp8
Rp9
.ccollections
OrderedDict
p0
((lp1
(lp2
S'timestamp'
p3
aF2.7629449367523193
aa(lp4
S'distance'
p5
aF268.3
aa(lp6
S'state'
p7
aI400
aatp8
Rp9
.ccollections
OrderedDict
p0
((lp1
(lp2
S'timestamp'
p3
aF2.772244930267334
aa(lp4
S'distance'
p5
aF268.3
aa(lp6
S'state'
p7
aI400
aatp8
Rp9
.ccollections
OrderedDict
p0
((lp1
(lp2
S'timestamp'
p3
aF2.7728559970855713
aa(lp4
S'distance'
p5
aF268.3
aa(lp6
S'state'
p7
aI400
aatp8
Rp9
.ccollections
OrderedDict
p0
((lp1
(lp2
S'timestamp'
p3
aF2.7823030948638916
aa(lp4
S'distance'
p5
aF268.3
aa(lp6
S'state'
p7
aI400
aatp8
Rp9
.ccollections
OrderedDict
p0
((lp1
(lp2
S'timestamp'
p3
aF2.782891035079956
aa(lp4
S'distance'
p5
aF268.3
aa(lp6
S'state'
p7
aI400
aatp8
Rp9
.ccollections
OrderedDict
p0
((lp1
(lp2
S'timestamp'
p3
aF2.7924559116363525
aa(lp4
S'distance'
p5
aF268.3
aa(lp6
S'state'
p7
aI400
aatp8
Rp9
.ccollections
OrderedDict
p0
((lp1
(lp2
S'timestamp'
p3
aF2.7928740978240967
aa(lp4
S'distance'
p5
aF268.3
aa(lp6
S'state'
p7
aI0
aatp8
Rp9
.ccollections
OrderedDict
p0
((lp1
(lp2
S'timestamp'
p3
aF3.362105131149292
aa(lp4
S'distance'
p5
aF140.4
aa(lp6
S'state'
p7
aI0
aatp8
Rp9
.ccollections
OrderedDict
p0
((lp1
(lp2
S'timestamp'
p3
aF3.3718419075012207
aa(lp4
S'distance'
p5
aF140.4
aa(lp6
S'state'
p7
aI0
aatp8
Rp9
.ccollections
OrderedDict
p0
((lp1
(lp2
S'timestamp'
p3
aF3.372175931930542
aa(lp4
S'distance'
p5
aF140.4
aa(lp6
S'state'
p7
aI0
aatp8
Rp9
.ccollections
OrderedDict
p0
((lp1
(lp2
S'timestamp'
p3
aF3.3815650939941406
aa(lp4
S'distance'
p5
aF140.4
aa(lp6
S'state'
p7
aI0
aatp8
Rp9
.ccollections
OrderedDict
p0
((lp1
(lp2
S'timestamp'
p3
aF3.382707118988037
aa(lp4
S'distance'
p5
aF140.4
aa(lp6
S'state'
p7
aI0
aatp8
Rp9
.ccollections
OrderedDict
p0
((lp1
(lp2
S'timestamp'
p3
aF3.39159893989563
aa(lp4
S'distance'
p5
aF140.4
aa(lp6
S'state'
p7
aI0
aatp8
Rp9
.ccollections
OrderedDict
p0
((lp1
(lp2
S'timestamp'
p3
aF3.392143964767456
aa(lp4
S'distance'
p5
aF140.4
aa(lp6
S'state'
p7
aI0
aatp8
Rp9
.ccollections
OrderedDict
p0
((lp1
(lp2
S'timestamp'
p3
aF3.4017419815063477
aa(lp4
S'distance'
p5
aF140.4
aa(lp6
S'state'
p7
aI0
aatp8
Rp9
.ccollections
OrderedDict
p0
((lp1
(lp2
S'timestamp'
p3
aF3.4020371437072754
aa(lp4
S'distance'
p5
aF140.4
aa(lp6
S'state'
p7
aI0
aatp8
Rp9
.ccollections
OrderedDict
p0
((lp1
(lp2
S'timestamp'
p3
aF3.411936044692993
aa(lp4
S'distance'
p5
aF140.4
aa(lp6
S'state'
p7
aI0
aatp8
Rp9
.ccollections
OrderedDict
p0
((lp1
(lp2
S'timestamp'
p3
aF3.412019968032837
aa(lp4
S'distance'
p5
aF140.4
aa(lp6
S'state'
p7
aI0
aatp8
Rp9
.ccollections
OrderedDict
p0
((lp1
(lp2
S'timestamp'
p3
aF3.422013998031616
aa(lp4
S'distance'
p5
aF140.4
aa(lp6
S'state'
p7
aI0
aatp8
Rp9
.ccollections
OrderedDict
p0
((lp1
(lp2
S'timestamp'
p3
aF3.422801971435547
aa(lp4
S'distance'
p5
aF140.4
aa(lp6
S'state'
p7
aI0
aatp8
Rp9
.ccollections
OrderedDict
p0
((lp1
(lp2
S'timestamp'
p3
aF3.441944122314453
aa(lp4
S'distance'
p5
aF140.4
aa(lp6
S'state'
p7
aI0
aatp8
Rp9
.ccollections
OrderedDict
p0
((lp1
(lp2
S'timestamp'
p3
aF3.442779064178467
aa(lp4
S'distance'
p5
aF140.4
aa(lp6
S'state'
p7
aI0
aatp8
Rp9
.ccollections
OrderedDict
p0
((lp1
(lp2
S'timestamp'
p3
aF3.4449100494384766
aa(lp4
S'distance'
p5
aF140.4
aa(lp6
S'state'
p7
aI0
aatp8
Rp9
.ccollections
OrderedDict
p0
((lp1
(lp2
S'timestamp'
p3
aF3.4455039501190186
aa(lp4
S'distance'
p5
aF140.4
aa(lp6
S'state'
p7
aI0
aatp8
Rp9
.ccollections
OrderedDict
p0
((lp1
(lp2
S'timestamp'
p3
aF3.4517951011657715
aa(lp4
S'distance'
p5
aF140.4
aa(lp6
S'state'
p7
aI0
aatp8
Rp9
.ccollections
OrderedDict
p0
((lp1
(lp2
S'timestamp'
p3
aF3.451878070831299
aa(lp4
S'distance'
p5
aF140.4
aa(lp6
S'state'
p7
aI0
aatp8
Rp9
.ccollections
OrderedDict
p0
((lp1
(lp2
S'timestamp'
p3
aF3.4614031314849854
aa(lp4
S'distance'
p5
aF140.4
aa(lp6
S'state'
p7
aI0
aatp8
Rp9
.ccollections
OrderedDict
p0
((lp1
(lp2
S'timestamp'
p3
aF3.461794137954712
aa(lp4
S'distance'
p5
aF140.4
aa(lp6
S'state'
p7
aI0
aatp8
Rp9
.ccollections
OrderedDict
p0
((lp1
(lp2
S'timestamp'
p3
aF3.4718549251556396
aa(lp4
S'distance'
p5
aF140.4
aa(lp6
S'state'
p7
aI0
aatp8
Rp9
.ccollections
OrderedDict
p0
((lp1
(lp2
S'timestamp'
p3
aF3.472198009490967
aa(lp4
S'distance'
p5
aF140.4
aa(lp6
S'state'
p7
aI0
aatp8
Rp9
.ccollections
OrderedDict
p0
((lp1
(lp2
S'timestamp'
p3
aF3.481450080871582
aa(lp4
S'distance'
p5
aF140.4
aa(lp6
S'state'
p7
aI0
aatp8
Rp9
.ccollections
OrderedDict
p0
((lp1
(lp2
S'timestamp'
p3
aF3.4819719791412354
aa(lp4
S'distance'
p5
aF140.4
aa(lp6
S'state'
p7
aI0
aatp8
Rp9
.ccollections
OrderedDict
p0
((lp1
(lp2
S'timestamp'
p3
aF3.4914391040802
aa(lp4
S'distance'
p5
aF140.4
aa(lp6
S'state'
p7
aI0
aatp8
Rp9
.ccollections
OrderedDict
p0
((lp1
(lp2
S'timestamp'
p3
aF3.491997003555298
aa(lp4
S'distance'
p5
aF140.4
aa(lp6
S'state'
p7
aI0
aatp8
Rp9
.ccollections
OrderedDict
p0
((lp1
(lp2
S'timestamp'
p3
aF3.501544952392578
aa(lp4
S'distance'
p5
aF140.4
aa(lp6
S'state'
p7
aI400
aatp8
Rp9
.ccollections
OrderedDict
p0
((lp1
(lp2
S'timestamp'
p3
aF3.5018880367279053
aa(lp4
S'distance'
p5
aF140.4
aa(lp6
S'state'
p7
aI400
aatp8
Rp9
.ccollections
OrderedDict
p0
((lp1
(lp2
S'timestamp'
p3
aF3.5118980407714844
aa(lp4
S'distance'
p5
aF140.4
aa(lp6
S'state'
p7
aI400
aatp8
Rp9
.ccollections
OrderedDict
p0
((lp1
(lp2
S'timestamp'
p3
aF3.5137429237365723
aa(lp4
S'distance'
p5
aF140.4
aa(lp6
S'state'
p7
aI400
aatp8
Rp9
.ccollections
OrderedDict
p0
((lp1
(lp2
S'timestamp'
p3
aF3.522304058074951
aa(lp4
S'distance'
p5
aF140.4
aa(lp6
S'state'
p7
aI400
aatp8
Rp9
.ccollections
OrderedDict
p0
((lp1
(lp2
S'timestamp'
p3
aF3.5224931240081787
aa(lp4
S'distance'
p5
aF140.4
aa(lp6
S'state'
p7
aI400
aatp8
Rp9
.ccollections
OrderedDict
p0
((lp1
(lp2
S'timestamp'
p3
aF3.5400609970092773
aa(lp4
S'distance'
p5
aF140.4
aa(lp6
S'state'
p7
aI400
aatp8
Rp9
.ccollections
OrderedDict
p0
((lp1
(lp2
S'timestamp'
p3
aF3.5402231216430664
aa(lp4
S'distance'
p5
aF140.4
aa(lp6
S'state'
p7
aI400
aatp8
Rp9
.ccollections
OrderedDict
p0
((lp1
(lp2
S'timestamp'
p3
aF3.541839122772217
aa(lp4
S'distance'
p5
aF140.4
aa(lp6
S'state'
p7
aI400
aatp8
Rp9
.ccollections
OrderedDict
p0
((lp1
(lp2
S'timestamp'
p3
aF3.5421829223632812
aa(lp4
S'distance'
p5
aF140.4
aa(lp6
S'state'
p7
aI400
aatp8
Rp9
.ccollections
OrderedDict
p0
((lp1
(lp2
S'timestamp'
p3
aF3.551569938659668
aa(lp4
S'distance'
p5
aF140.4
aa(lp6
S'state'
p7
aI400
aatp8
Rp9
.ccollections
OrderedDict
p0
((lp1
(lp2
S'timestamp'
p3
aF3.561429023742676
aa(lp4
S'distance'
p5
aF140.4
aa(lp6
S'state'
p7
aI400
aatp8
Rp9
.ccollections
OrderedDict
p0
((lp1
(lp2
S'timestamp'
p3
aF3.5616369247436523
aa(lp4
S'distance'
p5
aF140.4
aa(lp6
S'state'
p7
aI400
aatp8
Rp9
.ccollections
OrderedDict
p0
((lp1
(lp2
S'timestamp'
p3
aF3.5622310638427734
aa(lp4
S'distance'
p5
aF140.4
aa(lp6
S'state'
p7
aI400
aatp8
Rp9
.ccollections
OrderedDict
p0
((lp1
(lp2
S'timestamp'
p3
aF3.571593999862671
aa(lp4
S'distance'
p5
aF140.4
aa(lp6
S'state'
p7
aI400
aatp8
Rp9
.ccollections
OrderedDict
p0
((lp1
(lp2
S'timestamp'
p3
aF3.5723140239715576
aa(lp4
S'distance'
p5
aF140.4
aa(lp6
S'state'
p7
aI400
aatp8
Rp9
.ccollections
OrderedDict
p0
((lp1
(lp2
S'timestamp'
p3
aF3.5813560485839844
aa(lp4
S'distance'
p5
aF140.4
aa(lp6
S'state'
p7
aI400
aatp8
Rp9
.ccollections
OrderedDict
p0
((lp1
(lp2
S'timestamp'
p3
aF3.582047939300537
aa(lp4
S'distance'
p5
aF140.4
aa(lp6
S'state'
p7
aI400
aatp8
Rp9
.ccollections
OrderedDict
p0
((lp1
(lp2
S'timestamp'
p3
aF3.5914039611816406
aa(lp4
S'distance'
p5
aF140.4
aa(lp6
S'state'
p7
aI400
aatp8
Rp9
.ccollections
OrderedDict
p0
((lp1
(lp2
S'timestamp'
p3
aF3.591823101043701
aa(lp4
S'distance'
p5
aF140.4
aa(lp6
S'state'
p7
aI400
aatp8
Rp9
.ccollections
OrderedDict
p0
((lp1
(lp2
S'timestamp'
p3
aF3.6014881134033203
aa(lp4
S'distance'
p5
aF140.4
aa(lp6
S'state'
p7
aI400
aatp8
Rp9
.ccollections
OrderedDict
p0
((lp1
(lp2
S'timestamp'
p3
aF3.6016149520874023
aa(lp4
S'distance'
p5
aF140.4
aa(lp6
S'state'
p7
aI400
aatp8
Rp9
.ccollections
OrderedDict
p0
((lp1
(lp2
S'timestamp'
p3
aF3.6119539737701416
aa(lp4
S'distance'
p5
aF140.4
aa(lp6
S'state'
p7
aI400
aatp8
Rp9
.ccollections
OrderedDict
p0
((lp1
(lp2
S'timestamp'
p3
aF3.6121649742126465
aa(lp4
S'distance'
p5
aF140.4
aa(lp6
S'state'
p7
aI400
aatp8
Rp9
.ccollections
OrderedDict
p0
((lp1
(lp2
S'timestamp'
p3
aF3.621601104736328
aa(lp4
S'distance'
p5
aF140.4
aa(lp6
S'state'
p7
aI400
aatp8
Rp9
.ccollections
OrderedDict
p0
((lp1
(lp2
S'timestamp'
p3
aF3.6216790676116943
aa(lp4
S'distance'
p5
aF140.4
aa(lp6
S'state'
p7
aI400
aatp8
Rp9
.ccollections
OrderedDict
p0
((lp1
(lp2
S'timestamp'
p3
aF3.6317620277404785
aa(lp4
S'distance'
p5
aF140.4
aa(lp6
S'state'
p7
aI400
aatp8
Rp9
.ccollections
OrderedDict
p0
((lp1
(lp2
S'timestamp'
p3
aF3.6318609714508057
aa(lp4
S'distance'
p5
aF140.4
aa(lp6
S'state'
p7
aI400
aatp8
Rp9
.ccollections
OrderedDict
p0
((lp1
(lp2
S'timestamp'
p3
aF3.651224136352539
aa(lp4
S'distance'
p5
aF140.4
aa(lp6
S'state'
p7
aI400
aatp8
Rp9
.ccollections
OrderedDict
p0
((lp1
(lp2
S'timestamp'
p3
aF3.651746988296509
aa(lp4
S'distance'
p5
aF140.4
aa(lp6
S'state'
p7
aI400
aatp8
Rp9
.ccollections
OrderedDict
p0
((lp1
(lp2
S'timestamp'
p3
aF3.651927947998047
aa(lp4
S'distance'
p5
aF140.4
aa(lp6
S'state'
p7
aI400
aatp8
Rp9
.ccollections
OrderedDict
p0
((lp1
(lp2
S'timestamp'
p3
aF3.6529629230499268
aa(lp4
S'distance'
p5
aF140.4
aa(lp6
S'state'
p7
aI400
aatp8
Rp9
.ccollections
OrderedDict
p0
((lp1
(lp2
S'timestamp'
p3
aF3.6611239910125732
aa(lp4
S'distance'
p5
aF140.4
aa(lp6
S'state'
p7
aI400
aatp8
Rp9
.ccollections
OrderedDict
p0
((lp1
(lp2
S'timestamp'
p3
aF3.6617379188537598
aa(lp4
S'distance'
p5
aF140.4
aa(lp6
S'state'
p7
aI400
aatp8
Rp9
.ccollections
OrderedDict
p0
((lp1
(lp2
S'timestamp'
p3
aF3.681648015975952
aa(lp4
S'distance'
p5
aF140.4
aa(lp6
S'state'
p7
aI400
aatp8
Rp9
.ccollections
OrderedDict
p0
((lp1
(lp2
S'timestamp'
p3
aF3.682466983795166
aa(lp4
S'distance'
p5
aF140.4
aa(lp6
S'state'
p7
aI400
aatp8
Rp9
.ccollections
OrderedDict
p0
((lp1
(lp2
S'timestamp'
p3
aF3.6847100257873535
aa(lp4
S'distance'
p5
aF140.4
aa(lp6
S'state'
p7
aI400
aatp8
Rp9
.ccollections
OrderedDict
p0
((lp1
(lp2
S'timestamp'
p3
aF3.684967041015625
aa(lp4
S'distance'
p5
aF140.4
aa(lp6
S'state'
p7
aI400
aatp8
Rp9
.ccollections
OrderedDict
p0
((lp1
(lp2
S'timestamp'
p3
aF3.6914710998535156
aa(lp4
S'distance'
p5
aF140.4
aa(lp6
S'state'
p7
aI400
aatp8
Rp9
.ccollections
OrderedDict
p0
((lp1
(lp2
S'timestamp'
p3
aF3.6915500164031982
aa(lp4
S'distance'
p5
aF140.4
aa(lp6
S'state'
p7
aI400
aatp8
Rp9
.ccollections
OrderedDict
p0
((lp1
(lp2
S'timestamp'
p3
aF3.7014689445495605
aa(lp4
S'distance'
p5
aF140.4
aa(lp6
S'state'
p7
aI400
aatp8
Rp9
.ccollections
OrderedDict
p0
((lp1
(lp2
S'timestamp'
p3
aF3.701545000076294
aa(lp4
S'distance'
p5
aF140.4
aa(lp6
S'state'
p7
aI400
aatp8
Rp9
.ccollections
OrderedDict
p0
((lp1
(lp2
S'timestamp'
p3
aF3.711549997329712
aa(lp4
S'distance'
p5
aF140.4
aa(lp6
S'state'
p7
aI400
aatp8
Rp9
.ccollections
OrderedDict
p0
((lp1
(lp2
S'timestamp'
p3
aF3.7124199867248535
aa(lp4
S'distance'
p5
aF140.4
aa(lp6
S'state'
p7
aI400
aatp8
Rp9
.ccollections
OrderedDict
p0
((lp1
(lp2
S'timestamp'
p3
aF3.721308946609497
aa(lp4
S'distance'
p5
aF140.4
aa(lp6
S'state'
p7
aI400
aatp8
Rp9
.ccollections
OrderedDict
p0
((lp1
(lp2
S'timestamp'
p3
aF3.7214770317077637
aa(lp4
S'distance'
p5
aF140.4
aa(lp6
S'state'
p7
aI400
aatp8
Rp9
.ccollections
OrderedDict
p0
((lp1
(lp2
S'timestamp'
p3
aF3.731323003768921
aa(lp4
S'distance'
p5
aF140.4
aa(lp6
S'state'
p7
aI400
aatp8
Rp9
.ccollections
OrderedDict
p0
((lp1
(lp2
S'timestamp'
p3
aF3.7314510345458984
aa(lp4
S'distance'
p5
aF140.4
aa(lp6
S'state'
p7
aI400
aatp8
Rp9
.ccollections
OrderedDict
p0
((lp1
(lp2
S'timestamp'
p3
aF3.7414400577545166
aa(lp4
S'distance'
p5
aF140.4
aa(lp6
S'state'
p7
aI400
aatp8
Rp9
.ccollections
OrderedDict
p0
((lp1
(lp2
S'timestamp'
p3
aF3.741518974304199
aa(lp4
S'distance'
p5
aF140.4
aa(lp6
S'state'
p7
aI400
aatp8
Rp9
.ccollections
OrderedDict
p0
((lp1
(lp2
S'timestamp'
p3
aF3.751528024673462
aa(lp4
S'distance'
p5
aF140.4
aa(lp6
S'state'
p7
aI400
aatp8
Rp9
.ccollections
OrderedDict
p0
((lp1
(lp2
S'timestamp'
p3
aF3.7532079219818115
aa(lp4
S'distance'
p5
aF140.4
aa(lp6
S'state'
p7
aI400
aatp8
Rp9
.ccollections
OrderedDict
p0
((lp1
(lp2
S'timestamp'
p3
aF3.761296033859253
aa(lp4
S'distance'
p5
aF140.4
aa(lp6
S'state'
p7
aI400
aatp8
Rp9
.ccollections
OrderedDict
p0
((lp1
(lp2
S'timestamp'
p3
aF3.761423110961914
aa(lp4
S'distance'
p5
aF140.4
aa(lp6
S'state'
p7
aI400
aatp8
Rp9
.ccollections
OrderedDict
p0
((lp1
(lp2
S'timestamp'
p3
aF3.7715060710906982
aa(lp4
S'distance'
p5
aF140.4
aa(lp6
S'state'
p7
aI400
aatp8
Rp9
.ccollections
OrderedDict
p0
((lp1
(lp2
S'timestamp'
p3
aF3.772368907928467
aa(lp4
S'distance'
p5
aF140.4
aa(lp6
S'state'
p7
aI400
aatp8
Rp9
.ccollections
OrderedDict
p0
((lp1
(lp2
S'timestamp'
p3
aF3.781212091445923
aa(lp4
S'distance'
p5
aF140.4
aa(lp6
S'state'
p7
aI400
aatp8
Rp9
.ccollections
OrderedDict
p0
((lp1
(lp2
S'timestamp'
p3
aF3.781393051147461
aa(lp4
S'distance'
p5
aF140.4
aa(lp6
S'state'
p7
aI400
aatp8
Rp9
.ccollections
OrderedDict
p0
((lp1
(lp2
S'timestamp'
p3
aF3.791304111480713
aa(lp4
S'distance'
p5
aF140.4
aa(lp6
S'state'
p7
aI400
aatp8
Rp9
.ccollections
OrderedDict
p0
((lp1
(lp2
S'timestamp'
p3
aF3.791391134262085
aa(lp4
S'distance'
p5
aF140.4
aa(lp6
S'state'
p7
aI400
aatp8
Rp9
.ccollections
OrderedDict
p0
((lp1
(lp2
S'timestamp'
p3
aF3.801414966583252
aa(lp4
S'distance'
p5
aF140.4
aa(lp6
S'state'
p7
aI400
aatp8
Rp9
.ccollections
OrderedDict
p0
((lp1
(lp2
S'timestamp'
p3
aF3.802273988723755
aa(lp4
S'distance'
p5
aF140.4
aa(lp6
S'state'
p7
aI400
aatp8
Rp9
.ccollections
OrderedDict
p0
((lp1
(lp2
S'timestamp'
p3
aF3.811448097229004
aa(lp4
S'distance'
p5
aF140.4
aa(lp6
S'state'
p7
aI400
aatp8
Rp9
.ccollections
OrderedDict
p0
((lp1
(lp2
S'timestamp'
p3
aF3.8122761249542236
aa(lp4
S'distance'
p5
aF140.4
aa(lp6
S'state'
p7
aI400
aatp8
Rp9
.ccollections
OrderedDict
p0
((lp1
(lp2
S'timestamp'
p3
aF3.8211629390716553
aa(lp4
S'distance'
p5
aF140.4
aa(lp6
S'state'
p7
aI400
aatp8
Rp9
.ccollections
OrderedDict
p0
((lp1
(lp2
S'timestamp'
p3
aF3.821377992630005
aa(lp4
S'distance'
p5
aF140.4
aa(lp6
S'state'
p7
aI400
aatp8
Rp9
.ccollections
OrderedDict
p0
((lp1
(lp2
S'timestamp'
p3
aF3.8312649726867676
aa(lp4
S'distance'
p5
aF140.4
aa(lp6
S'state'
p7
aI400
aatp8
Rp9
.ccollections
OrderedDict
p0
((lp1
(lp2
S'timestamp'
p3
aF3.8313450813293457
aa(lp4
S'distance'
p5
aF140.4
aa(lp6
S'state'
p7
aI400
aatp8
Rp9
.ccollections
OrderedDict
p0
((lp1
(lp2
S'timestamp'
p3
aF3.8410351276397705
aa(lp4
S'distance'
p5
aF140.4
aa(lp6
S'state'
p7
aI400
aatp8
Rp9
.ccollections
OrderedDict
p0
((lp1
(lp2
S'timestamp'
p3
aF3.8414509296417236
aa(lp4
S'distance'
p5
aF140.4
aa(lp6
S'state'
p7
aI400
aatp8
Rp9
.ccollections
OrderedDict
p0
((lp1
(lp2
S'timestamp'
p3
aF3.8510959148406982
aa(lp4
S'distance'
p5
aF140.4
aa(lp6
S'state'
p7
aI400
aatp8
Rp9
.ccollections
OrderedDict
p0
((lp1
(lp2
S'timestamp'
p3
aF3.85132098197937
aa(lp4
S'distance'
p5
aF140.4
aa(lp6
S'state'
p7
aI400
aatp8
Rp9
.ccollections
OrderedDict
p0
((lp1
(lp2
S'timestamp'
p3
aF3.8610680103302
aa(lp4
S'distance'
p5
aF140.4
aa(lp6
S'state'
p7
aI400
aatp8
Rp9
.ccollections
OrderedDict
p0
((lp1
(lp2
S'timestamp'
p3
aF3.8612780570983887
aa(lp4
S'distance'
p5
aF140.4
aa(lp6
S'state'
p7
aI400
aatp8
Rp9
.ccollections
OrderedDict
p0
((lp1
(lp2
S'timestamp'
p3
aF3.871206045150757
aa(lp4
S'distance'
p5
aF140.4
aa(lp6
S'state'
p7
aI400
aatp8
Rp9
.ccollections
OrderedDict
p0
((lp1
(lp2
S'timestamp'
p3
aF3.8713109493255615
aa(lp4
S'distance'
p5
aF140.4
aa(lp6
S'state'
p7
aI400
aatp8
Rp9
.ccollections
OrderedDict
p0
((lp1
(lp2
S'timestamp'
p3
aF3.881009101867676
aa(lp4
S'distance'
p5
aF140.4
aa(lp6
S'state'
p7
aI400
aatp8
Rp9
.ccollections
OrderedDict
p0
((lp1
(lp2
S'timestamp'
p3
aF3.8813540935516357
aa(lp4
S'distance'
p5
aF140.4
aa(lp6
S'state'
p7
aI400
aatp8
Rp9
.ccollections
OrderedDict
p0
((lp1
(lp2
S'timestamp'
p3
aF3.8910329341888428
aa(lp4
S'distance'
p5
aF140.4
aa(lp6
S'state'
p7
aI400
aatp8
Rp9
.ccollections
OrderedDict
p0
((lp1
(lp2
S'timestamp'
p3
aF3.8913331031799316
aa(lp4
S'distance'
p5
aF140.4
aa(lp6
S'state'
p7
aI400
aatp8
Rp9
.ccollections
OrderedDict
p0
((lp1
(lp2
S'timestamp'
p3
aF3.9008820056915283
aa(lp4
S'distance'
p5
aF140.4
aa(lp6
S'state'
p7
aI400
aatp8
Rp9
.ccollections
OrderedDict
p0
((lp1
(lp2
S'timestamp'
p3
aF3.9013590812683105
aa(lp4
S'distance'
p5
aF140.4
aa(lp6
S'state'
p7
aI400
aatp8
Rp9
.ccollections
OrderedDict
p0
((lp1
(lp2
S'timestamp'
p3
aF3.910973072052002
aa(lp4
S'distance'
p5
aF140.4
aa(lp6
S'state'
p7
aI400
aatp8
Rp9
.ccollections
OrderedDict
p0
((lp1
(lp2
S'timestamp'
p3
aF3.91145396232605
aa(lp4
S'distance'
p5
aF140.4
aa(lp6
S'state'
p7
aI400
aatp8
Rp9
.ccollections
OrderedDict
p0
((lp1
(lp2
S'timestamp'
p3
aF3.9211599826812744
aa(lp4
S'distance'
p5
aF140.4
aa(lp6
S'state'
p7
aI400
aatp8
Rp9
.ccollections
OrderedDict
p0
((lp1
(lp2
S'timestamp'
p3
aF3.9213669300079346
aa(lp4
S'distance'
p5
aF140.4
aa(lp6
S'state'
p7
aI400
aatp8
Rp9
.ccollections
OrderedDict
p0
((lp1
(lp2
S'timestamp'
p3
aF3.9310550689697266
aa(lp4
S'distance'
p5
aF140.4
aa(lp6
S'state'
p7
aI400
aatp8
Rp9
.ccollections
OrderedDict
p0
((lp1
(lp2
S'timestamp'
p3
aF3.931260108947754
aa(lp4
S'distance'
p5
aF140.4
aa(lp6
S'state'
p7
aI400
aatp8
Rp9
.ccollections
OrderedDict
p0
((lp1
(lp2
S'timestamp'
p3
aF3.9410550594329834
aa(lp4
S'distance'
p5
aF140.4
aa(lp6
S'state'
p7
aI0
aatp8
Rp9
.ccollections
OrderedDict
p0
((lp1
(lp2
S'timestamp'
p3
aF4.5008790493011475
aa(lp4
S'distance'
p5
aF37.15003967285156
aa(lp6
S'state'
p7
aI0
aatp8
Rp9
.ccollections
OrderedDict
p0
((lp1
(lp2
S'timestamp'
p3
aF4.510196924209595
aa(lp4
S'distance'
p5
aF37.15003967285156
aa(lp6
S'state'
p7
aI0
aatp8
Rp9
.ccollections
OrderedDict
p0
((lp1
(lp2
S'timestamp'
p3
aF4.510806083679199
aa(lp4
S'distance'
p5
aF37.15003967285156
aa(lp6
S'state'
p7
aI0
aatp8
Rp9
.ccollections
OrderedDict
p0
((lp1
(lp2
S'timestamp'
p3
aF4.520488977432251
aa(lp4
S'distance'
p5
aF37.15003967285156
aa(lp6
S'state'
p7
aI0
aatp8
Rp9
.ccollections
OrderedDict
p0
((lp1
(lp2
S'timestamp'
p3
aF4.520573139190674
aa(lp4
S'distance'
p5
aF37.15003967285156
aa(lp6
S'state'
p7
aI0
aatp8
Rp9
.ccollections
OrderedDict
p0
((lp1
(lp2
S'timestamp'
p3
aF4.530406951904297
aa(lp4
S'distance'
p5
aF37.15003967285156
aa(lp6
S'state'
p7
aI0
aatp8
Rp9
.ccollections
OrderedDict
p0
((lp1
(lp2
S'timestamp'
p3
aF4.530534029006958
aa(lp4
S'distance'
p5
aF37.15003967285156
aa(lp6
S'state'
p7
aI0
aatp8
Rp9
.ccollections
OrderedDict
p0
((lp1
(lp2
S'timestamp'
p3
aF4.540049076080322
aa(lp4
S'distance'
p5
aF37.15003967285156
aa(lp6
S'state'
p7
aI0
aatp8
Rp9
.ccollections
OrderedDict
p0
((lp1
(lp2
S'timestamp'
p3
aF4.540617942810059
aa(lp4
S'distance'
p5
aF37.15003967285156
aa(lp6
S'state'
p7
aI0
aatp8
Rp9
.ccollections
OrderedDict
p0
((lp1
(lp2
S'timestamp'
p3
aF4.550384044647217
aa(lp4
S'distance'
p5
aF37.15003967285156
aa(lp6
S'state'
p7
aI0
aatp8
Rp9
.ccollections
OrderedDict
p0
((lp1
(lp2
S'timestamp'
p3
aF4.550518989562988
aa(lp4
S'distance'
p5
aF37.15003967285156
aa(lp6
S'state'
p7
aI0
aatp8
Rp9
.ccollections
OrderedDict
p0
((lp1
(lp2
S'timestamp'
p3
aF4.56037712097168
aa(lp4
S'distance'
p5
aF37.15003967285156
aa(lp6
S'state'
p7
aI0
aatp8
Rp9
.ccollections
OrderedDict
p0
((lp1
(lp2
S'timestamp'
p3
aF4.560506105422974
aa(lp4
S'distance'
p5
aF37.15003967285156
aa(lp6
S'state'
p7
aI0
aatp8
Rp9
.ccollections
OrderedDict
p0
((lp1
(lp2
S'timestamp'
p3
aF4.5702080726623535
aa(lp4
S'distance'
p5
aF37.15003967285156
aa(lp6
S'state'
p7
aI0
aatp8
Rp9
.ccollections
OrderedDict
p0
((lp1
(lp2
S'timestamp'
p3
aF4.570619106292725
aa(lp4
S'distance'
p5
aF37.15003967285156
aa(lp6
S'state'
p7
aI0
aatp8
Rp9
.ccollections
OrderedDict
p0
((lp1
(lp2
S'timestamp'
p3
aF4.581289052963257
aa(lp4
S'distance'
p5
aF37.15003967285156
aa(lp6
S'state'
p7
aI0
aatp8
Rp9
.ccollections
OrderedDict
p0
((lp1
(lp2
S'timestamp'
p3
aF4.5813610553741455
aa(lp4
S'distance'
p5
aF37.15003967285156
aa(lp6
S'state'
p7
aI0
aatp8
Rp9
.ccollections
OrderedDict
p0
((lp1
(lp2
S'timestamp'
p3
aF4.590146064758301
aa(lp4
S'distance'
p5
aF37.15003967285156
aa(lp6
S'state'
p7
aI0
aatp8
Rp9
.ccollections
OrderedDict
p0
((lp1
(lp2
S'timestamp'
p3
aF4.59067702293396
aa(lp4
S'distance'
p5
aF37.15003967285156
aa(lp6
S'state'
p7
aI0
aatp8
Rp9
.ccollections
OrderedDict
p0
((lp1
(lp2
S'timestamp'
p3
aF4.600245952606201
aa(lp4
S'distance'
p5
aF37.15003967285156
aa(lp6
S'state'
p7
aI0
aatp8
Rp9
.ccollections
OrderedDict
p0
((lp1
(lp2
S'timestamp'
p3
aF4.600531101226807
aa(lp4
S'distance'
p5
aF37.15003967285156
aa(lp6
S'state'
p7
aI0
aatp8
Rp9
.ccollections
OrderedDict
p0
((lp1
(lp2
S'timestamp'
p3
aF4.610192060470581
aa(lp4
S'distance'
p5
aF37.15003967285156
aa(lp6
S'state'
p7
aI0
aatp8
Rp9
.ccollections
OrderedDict
p0
((lp1
(lp2
S'timestamp'
p3
aF4.610489130020142
aa(lp4
S'distance'
p5
aF37.15003967285156
aa(lp6
S'state'
p7
aI0
aatp8
Rp9
.ccollections
OrderedDict
p0
((lp1
(lp2
S'timestamp'
p3
aF4.619868993759155
aa(lp4
S'distance'
p5
aF37.15003967285156
aa(lp6
S'state'
p7
aI0
aatp8
Rp9
.ccollections
OrderedDict
p0
((lp1
(lp2
S'timestamp'
p3
aF4.620362997055054
aa(lp4
S'distance'
p5
aF37.15003967285156
aa(lp6
S'state'
p7
aI0
aatp8
Rp9
.ccollections
OrderedDict
p0
((lp1
(lp2
S'timestamp'
p3
aF4.630299091339111
aa(lp4
S'distance'
p5
aF37.15003967285156
aa(lp6
S'state'
p7
aI0
aatp8
Rp9
.ccollections
OrderedDict
p0
((lp1
(lp2
S'timestamp'
p3
aF4.63043212890625
aa(lp4
S'distance'
p5
aF37.15003967285156
aa(lp6
S'state'
p7
aI0
aatp8
Rp9
.ccollections
OrderedDict
p0
((lp1
(lp2
S'timestamp'
p3
aF4.6402599811553955
aa(lp4
S'distance'
p5
aF37.15003967285156
aa(lp6
S'state'
p7
aI0
aatp8
Rp9
.ccollections
OrderedDict
p0
((lp1
(lp2
S'timestamp'
p3
aF4.64042592048645
aa(lp4
S'distance'
p5
aF37.15003967285156
aa(lp6
S'state'
p7
aI0
aatp8
Rp9
.ccollections
OrderedDict
p0
((lp1
(lp2
S'timestamp'
p3
aF4.650286912918091
aa(lp4
S'distance'
p5
aF37.15003967285156
aa(lp6
S'state'
p7
aI0
aatp8
Rp9
.ccollections
OrderedDict
p0
((lp1
(lp2
S'timestamp'
p3
aF4.650418996810913
aa(lp4
S'distance'
p5
aF37.15003967285156
aa(lp6
S'state'
p7
aI0
aatp8
Rp9
.ccollections
OrderedDict
p0
((lp1
(lp2
S'timestamp'
p3
aF4.670159101486206
aa(lp4
S'distance'
p5
aF37.15003967285156
aa(lp6
S'state'
p7
aI0
aatp8
Rp9
.ccollections
OrderedDict
p0
((lp1
(lp2
S'timestamp'
p3
aF4.670243978500366
aa(lp4
S'distance'
p5
aF37.15003967285156
aa(lp6
S'state'
p7
aI0
aatp8
Rp9
.ccollections
OrderedDict
p0
((lp1
(lp2
S'timestamp'
p3
aF4.671373128890991
aa(lp4
S'distance'
p5
aF37.15003967285156
aa(lp6
S'state'
p7
aI0
aatp8
Rp9
.ccollections
OrderedDict
p0
((lp1
(lp2
S'timestamp'
p3
aF4.672434091567993
aa(lp4
S'distance'
p5
aF37.15003967285156
aa(lp6
S'state'
p7
aI0
aatp8
Rp9
.ccollections
OrderedDict
p0
((lp1
(lp2
S'timestamp'
p3
aF4.6801440715789795
aa(lp4
S'distance'
p5
aF37.15003967285156
aa(lp6
S'state'
p7
aI0
aatp8
Rp9
.ccollections
OrderedDict
p0
((lp1
(lp2
S'timestamp'
p3
aF4.680453062057495
aa(lp4
S'distance'
p5
aF37.15003967285156
aa(lp6
S'state'
p7
aI0
aatp8
Rp9
.ccollections
OrderedDict
p0
((lp1
(lp2
S'timestamp'
p3
aF4.690231084823608
aa(lp4
S'distance'
p5
aF37.15003967285156
aa(lp6
S'state'
p7
aI0
aatp8
Rp9
.ccollections
OrderedDict
p0
((lp1
(lp2
S'timestamp'
p3
aF4.690371036529541
aa(lp4
S'distance'
p5
aF37.15003967285156
aa(lp6
S'state'
p7
aI0
aatp8
Rp9
.ccollections
OrderedDict
p0
((lp1
(lp2
S'timestamp'
p3
aF4.699947118759155
aa(lp4
S'distance'
p5
aF37.15003967285156
aa(lp6
S'state'
p7
aI0
aatp8
Rp9
.ccollections
OrderedDict
p0
((lp1
(lp2
S'timestamp'
p3
aF4.700343132019043
aa(lp4
S'distance'
p5
aF37.15003967285156
aa(lp6
S'state'
p7
aI0
aatp8
Rp9
.ccollections
OrderedDict
p0
((lp1
(lp2
S'timestamp'
p3
aF4.710052967071533
aa(lp4
S'distance'
p5
aF37.15003967285156
aa(lp6
S'state'
p7
aI0
aatp8
Rp9
.ccollections
OrderedDict
p0
((lp1
(lp2
S'timestamp'
p3
aF4.710364103317261
aa(lp4
S'distance'
p5
aF37.15003967285156
aa(lp6
S'state'
p7
aI0
aatp8
Rp9
.ccollections
OrderedDict
p0
((lp1
(lp2
S'timestamp'
p3
aF4.72017502784729
aa(lp4
S'distance'
p5
aF37.15003967285156
aa(lp6
S'state'
p7
aI0
aatp8
Rp9
.ccollections
OrderedDict
p0
((lp1
(lp2
S'timestamp'
p3
aF4.720375061035156
aa(lp4
S'distance'
p5
aF37.15003967285156
aa(lp6
S'state'
p7
aI0
aatp8
Rp9
.ccollections
OrderedDict
p0
((lp1
(lp2
S'timestamp'
p3
aF4.730014085769653
aa(lp4
S'distance'
p5
aF37.15003967285156
aa(lp6
S'state'
p7
aI0
aatp8
Rp9
.ccollections
OrderedDict
p0
((lp1
(lp2
S'timestamp'
p3
aF4.730304956436157
aa(lp4
S'distance'
p5
aF37.15003967285156
aa(lp6
S'state'
p7
aI0
aatp8
Rp9
.ccollections
OrderedDict
p0
((lp1
(lp2
S'timestamp'
p3
aF4.740067958831787
aa(lp4
S'distance'
p5
aF37.15003967285156
aa(lp6
S'state'
p7
aI0
aatp8
Rp9
.ccollections
OrderedDict
p0
((lp1
(lp2
S'timestamp'
p3
aF4.740432024002075
aa(lp4
S'distance'
p5
aF37.15003967285156
aa(lp6
S'state'
p7
aI0
aatp8
Rp9
.ccollections
OrderedDict
p0
((lp1
(lp2
S'timestamp'
p3
aF4.750097036361694
aa(lp4
S'distance'
p5
aF37.15003967285156
aa(lp6
S'state'
p7
aI0
aatp8
Rp9
.ccollections
OrderedDict
p0
((lp1
(lp2
S'timestamp'
p3
aF4.7504401206970215
aa(lp4
S'distance'
p5
aF37.15003967285156
aa(lp6
S'state'
p7
aI0
aatp8
Rp9
.ccollections
OrderedDict
p0
((lp1
(lp2
S'timestamp'
p3
aF4.759977102279663
aa(lp4
S'distance'
p5
aF37.15003967285156
aa(lp6
S'state'
p7
aI0
aatp8
Rp9
.ccollections
OrderedDict
p0
((lp1
(lp2
S'timestamp'
p3
aF4.760513067245483
aa(lp4
S'distance'
p5
aF37.15003967285156
aa(lp6
S'state'
p7
aI0
aatp8
Rp9
.ccollections
OrderedDict
p0
((lp1
(lp2
S'timestamp'
p3
aF4.7701239585876465
aa(lp4
S'distance'
p5
aF37.15003967285156
aa(lp6
S'state'
p7
aI0
aatp8
Rp9
.ccollections
OrderedDict
p0
((lp1
(lp2
S'timestamp'
p3
aF4.770251035690308
aa(lp4
S'distance'
p5
aF37.15003967285156
aa(lp6
S'state'
p7
aI0
aatp8
Rp9
.ccollections
OrderedDict
p0
((lp1
(lp2
S'timestamp'
p3
aF4.779784917831421
aa(lp4
S'distance'
p5
aF37.15003967285156
aa(lp6
S'state'
p7
aI0
aatp8
Rp9
.ccollections
OrderedDict
p0
((lp1
(lp2
S'timestamp'
p3
aF4.780344009399414
aa(lp4
S'distance'
p5
aF37.15003967285156
aa(lp6
S'state'
p7
aI0
aatp8
Rp9
.ccollections
OrderedDict
p0
((lp1
(lp2
S'timestamp'
p3
aF4.790108919143677
aa(lp4
S'distance'
p5
aF37.15003967285156
aa(lp6
S'state'
p7
aI0
aatp8
Rp9
.ccollections
OrderedDict
p0
((lp1
(lp2
S'timestamp'
p3
aF4.7902350425720215
aa(lp4
S'distance'
p5
aF37.15003967285156
aa(lp6
S'state'
p7
aI0
aatp8
Rp9
.ccollections
OrderedDict
p0
((lp1
(lp2
S'timestamp'
p3
aF4.800084114074707
aa(lp4
S'distance'
p5
aF37.15003967285156
aa(lp6
S'state'
p7
aI0
aatp8
Rp9
.ccollections
OrderedDict
p0
((lp1
(lp2
S'timestamp'
p3
aF4.80020809173584
aa(lp4
S'distance'
p5
aF37.15003967285156
aa(lp6
S'state'
p7
aI0
aatp8
Rp9
.ccollections
OrderedDict
p0
((lp1
(lp2
S'timestamp'
p3
aF4.809967994689941
aa(lp4
S'distance'
p5
aF37.15003967285156
aa(lp6
S'state'
p7
aI0
aatp8
Rp9
.ccollections
OrderedDict
p0
((lp1
(lp2
S'timestamp'
p3
aF4.810219049453735
aa(lp4
S'distance'
p5
aF37.15003967285156
aa(lp6
S'state'
p7
aI0
aatp8
Rp9
.ccollections
OrderedDict
p0
((lp1
(lp2
S'timestamp'
p3
aF4.820173978805542
aa(lp4
S'distance'
p5
aF37.15003967285156
aa(lp6
S'state'
p7
aI0
aatp8
Rp9
.ccollections
OrderedDict
p0
((lp1
(lp2
S'timestamp'
p3
aF4.8209450244903564
aa(lp4
S'distance'
p5
aF37.15003967285156
aa(lp6
S'state'
p7
aI0
aatp8
Rp9
.ccollections
OrderedDict
p0
((lp1
(lp2
S'timestamp'
p3
aF4.829983949661255
aa(lp4
S'distance'
p5
aF37.15003967285156
aa(lp6
S'state'
p7
aI0
aatp8
Rp9
.ccollections
OrderedDict
p0
((lp1
(lp2
S'timestamp'
p3
aF4.83037805557251
aa(lp4
S'distance'
p5
aF37.15003967285156
aa(lp6
S'state'
p7
aI0
aatp8
Rp9
.ccollections
OrderedDict
p0
((lp1
(lp2
S'timestamp'
p3
aF4.839637041091919
aa(lp4
S'distance'
p5
aF37.15003967285156
aa(lp6
S'state'
p7
aI0
aatp8
Rp9
.ccollections
OrderedDict
p0
((lp1
(lp2
S'timestamp'
p3
aF4.8403661251068115
aa(lp4
S'distance'
p5
aF37.15003967285156
aa(lp6
S'state'
p7
aI0
aatp8
Rp9
.ccollections
OrderedDict
p0
((lp1
(lp2
S'timestamp'
p3
aF4.849900960922241
aa(lp4
S'distance'
p5
aF37.15003967285156
aa(lp6
S'state'
p7
aI0
aatp8
Rp9
.ccollections
OrderedDict
p0
((lp1
(lp2
S'timestamp'
p3
aF4.850222110748291
aa(lp4
S'distance'
p5
aF37.15003967285156
aa(lp6
S'state'
p7
aI0
aatp8
Rp9
.ccollections
OrderedDict
p0
((lp1
(lp2
S'timestamp'
p3
aF4.859805107116699
aa(lp4
S'distance'
p5
aF37.15003967285156
aa(lp6
S'state'
p7
aI0
aatp8
Rp9
.ccollections
OrderedDict
p0
((lp1
(lp2
S'timestamp'
p3
aF4.860193967819214
aa(lp4
S'distance'
p5
aF37.15003967285156
aa(lp6
S'state'
p7
aI0
aatp8
Rp9
.ccollections
OrderedDict
p0
((lp1
(lp2
S'timestamp'
p3
aF4.869768142700195
aa(lp4
S'distance'
p5
aF37.15003967285156
aa(lp6
S'state'
p7
aI0
aatp8
Rp9
.ccollections
OrderedDict
p0
((lp1
(lp2
S'timestamp'
p3
aF4.870115041732788
aa(lp4
S'distance'
p5
aF37.15003967285156
aa(lp6
S'state'
p7
aI0
aatp8
Rp9
.ccollections
OrderedDict
p0
((lp1
(lp2
S'timestamp'
p3
aF4.8799450397491455
aa(lp4
S'distance'
p5
aF37.15003967285156
aa(lp6
S'state'
p7
aI0
aatp8
Rp9
.ccollections
OrderedDict
p0
((lp1
(lp2
S'timestamp'
p3
aF4.8802080154418945
aa(lp4
S'distance'
p5
aF37.15003967285156
aa(lp6
S'state'
p7
aI0
aatp8
Rp9
.ccollections
OrderedDict
p0
((lp1
(lp2
S'timestamp'
p3
aF4.889840126037598
aa(lp4
S'distance'
p5
aF37.15003967285156
aa(lp6
S'state'
p7
aI0
aatp8
Rp9
.ccollections
OrderedDict
p0
((lp1
(lp2
S'timestamp'
p3
aF4.890260934829712
aa(lp4
S'distance'
p5
aF37.15003967285156
aa(lp6
S'state'
p7
aI0
aatp8
Rp9
.ccollections
OrderedDict
p0
((lp1
(lp2
S'timestamp'
p3
aF4.899543046951294
aa(lp4
S'distance'
p5
aF37.15003967285156
aa(lp6
S'state'
p7
aI0
aatp8
Rp9
.ccollections
OrderedDict
p0
((lp1
(lp2
S'timestamp'
p3
aF4.900305986404419
aa(lp4
S'distance'
p5
aF37.15003967285156
aa(lp6
S'state'
p7
aI0
aatp8
Rp9
.ccollections
OrderedDict
p0
((lp1
(lp2
S'timestamp'
p3
aF4.909688949584961
aa(lp4
S'distance'
p5
aF37.15003967285156
aa(lp6
S'state'
p7
aI0
aatp8
Rp9
.ccollections
OrderedDict
p0
((lp1
(lp2
S'timestamp'
p3
aF4.910218000411987
aa(lp4
S'distance'
p5
aF37.15003967285156
aa(lp6
S'state'
p7
aI0
aatp8
Rp9
.ccollections
OrderedDict
p0
((lp1
(lp2
S'timestamp'
p3
aF4.920076131820679
aa(lp4
S'distance'
p5
aF37.15003967285156
aa(lp6
S'state'
p7
aI0
aatp8
Rp9
.ccollections
OrderedDict
p0
((lp1
(lp2
S'timestamp'
p3
aF4.920232057571411
aa(lp4
S'distance'
p5
aF37.15003967285156
aa(lp6
S'state'
p7
aI0
aatp8
Rp9
.ccollections
OrderedDict
p0
((lp1
(lp2
S'timestamp'
p3
aF4.929594039916992
aa(lp4
S'distance'
p5
aF37.15003967285156
aa(lp6
S'state'
p7
aI0
aatp8
Rp9
.ccollections
OrderedDict
p0
((lp1
(lp2
S'timestamp'
p3
aF4.930320978164673
aa(lp4
S'distance'
p5
aF37.15003967285156
aa(lp6
S'state'
p7
aI0
aatp8
Rp9
.ccollections
OrderedDict
p0
((lp1
(lp2
S'timestamp'
p3
aF4.939561128616333
aa(lp4
S'distance'
p5
aF37.15003967285156
aa(lp6
S'state'
p7
aI0
aatp8
Rp9
.ccollections
OrderedDict
p0
((lp1
(lp2
S'timestamp'
p3
aF4.940231084823608
aa(lp4
S'distance'
p5
aF37.15003967285156
aa(lp6
S'state'
p7
aI0
aatp8
Rp9
.ccollections
OrderedDict
p0
((lp1
(lp2
S'timestamp'
p3
aF4.949602127075195
aa(lp4
S'distance'
p5
aF37.15003967285156
aa(lp6
S'state'
p7
aI0
aatp8
Rp9
.ccollections
OrderedDict
p0
((lp1
(lp2
S'timestamp'
p3
aF4.950282096862793
aa(lp4
S'distance'
p5
aF37.15003967285156
aa(lp6
S'state'
p7
aI0
aatp8
Rp9
.ccollections
OrderedDict
p0
((lp1
(lp2
S'timestamp'
p3
aF4.959654092788696
aa(lp4
S'distance'
p5
aF37.15003967285156
aa(lp6
S'state'
p7
aI0
aatp8
Rp9
.ccollections
OrderedDict
p0
((lp1
(lp2
S'timestamp'
p3
aF4.960183143615723
aa(lp4
S'distance'
p5
aF37.15003967285156
aa(lp6
S'state'
p7
aI0
aatp8
Rp9
.ccollections
OrderedDict
p0
((lp1
(lp2
S'timestamp'
p3
aF4.969717025756836
aa(lp4
S'distance'
p5
aF37.15003967285156
aa(lp6
S'state'
p7
aI0
aatp8
Rp9
.ccollections
OrderedDict
p0
((lp1
(lp2
S'timestamp'
p3
aF4.970156908035278
aa(lp4
S'distance'
p5
aF37.15003967285156
aa(lp6
S'state'
p7
aI0
aatp8
Rp9
.ccollections
OrderedDict
p0
((lp1
(lp2
S'timestamp'
p3
aF4.979512929916382
aa(lp4
S'distance'
p5
aF37.15003967285156
aa(lp6
S'state'
p7
aI0
aatp8
Rp9
.ccollections
OrderedDict
p0
((lp1
(lp2
S'timestamp'
p3
aF4.980129957199097
aa(lp4
S'distance'
p5
aF37.15003967285156
aa(lp6
S'state'
p7
aI0
aatp8
Rp9
.ccollections
OrderedDict
p0
((lp1
(lp2
S'timestamp'
p3
aF4.989673137664795
aa(lp4
S'distance'
p5
aF37.15003967285156
aa(lp6
S'state'
p7
aI0
aatp8
Rp9
.ccollections
OrderedDict
p0
((lp1
(lp2
S'timestamp'
p3
aF4.989962100982666
aa(lp4
S'distance'
p5
aF37.15003967285156
aa(lp6
S'state'
p7
aI0
aatp8
Rp9
.ccollections
OrderedDict
p0
((lp1
(lp2
S'timestamp'
p3
aF4.99962592124939
aa(lp4
S'distance'
p5
aF37.15003967285156
aa(lp6
S'state'
p7
aI0
aatp8
Rp9
.ccollections
OrderedDict
p0
((lp1
(lp2
S'timestamp'
p3
aF5.000169992446899
aa(lp4
S'distance'
p5
aF37.15003967285156
aa(lp6
S'state'
p7
aI0
aatp8
Rp9
.ccollections
OrderedDict
p0
((lp1
(lp2
S'timestamp'
p3
aF5.009833097457886
aa(lp4
S'distance'
p5
aF37.15003967285156
aa(lp6
S'state'
p7
aI0
aatp8
Rp9
.ccollections
OrderedDict
p0
((lp1
(lp2
S'timestamp'
p3
aF5.009967088699341
aa(lp4
S'distance'
p5
aF37.15003967285156
aa(lp6
S'state'
p7
aI0
aatp8
Rp9
.ccollections
OrderedDict
p0
((lp1
(lp2
S'timestamp'
p3
aF5.0197601318359375
aa(lp4
S'distance'
p5
aF37.15003967285156
aa(lp6
S'state'
p7
aI0
aatp8
Rp9
.ccollections
OrderedDict
p0
((lp1
(lp2
S'timestamp'
p3
aF5.02001690864563
aa(lp4
S'distance'
p5
aF37.15003967285156
aa(lp6
S'state'
p7
aI0
aatp8
Rp9
.ccollections
OrderedDict
p0
((lp1
(lp2
S'timestamp'
p3
aF5.029483079910278
aa(lp4
S'distance'
p5
aF37.15003967285156
aa(lp6
S'state'
p7
aI0
aatp8
Rp9
.ccollections
OrderedDict
p0
((lp1
(lp2
S'timestamp'
p3
aF5.030051946640015
aa(lp4
S'distance'
p5
aF37.15003967285156
aa(lp6
S'state'
p7
aI0
aatp8
Rp9
.ccollections
OrderedDict
p0
((lp1
(lp2
S'timestamp'
p3
aF5.039417028427124
aa(lp4
S'distance'
p5
aF37.15003967285156
aa(lp6
S'state'
p7
aI0
aatp8
Rp9
.ccollections
OrderedDict
p0
((lp1
(lp2
S'timestamp'
p3
aF5.040220022201538
aa(lp4
S'distance'
p5
aF37.15003967285156
aa(lp6
S'state'
p7
aI0
aatp8
Rp9
.ccollections
OrderedDict
p0
((lp1
(lp2
S'timestamp'
p3
aF5.049639940261841
aa(lp4
S'distance'
p5
aF37.15003967285156
aa(lp6
S'state'
p7
aI0
aatp8
Rp9
.ccollections
OrderedDict
p0
((lp1
(lp2
S'timestamp'
p3
aF5.050061941146851
aa(lp4
S'distance'
p5
aF37.15003967285156
aa(lp6
S'state'
p7
aI0
aatp8
Rp9
.ccollections
OrderedDict
p0
((lp1
(lp2
S'timestamp'
p3
aF5.059473991394043
aa(lp4
S'distance'
p5
aF37.15003967285156
aa(lp6
S'state'
p7
aI0
aatp8
Rp9
.ccollections
OrderedDict
p0
((lp1
(lp2
S'timestamp'
p3
aF5.060013055801392
aa(lp4
S'distance'
p5
aF37.15003967285156
aa(lp6
S'state'
p7
aI0
aatp8
Rp9
.ccollections
OrderedDict
p0
((lp1
(lp2
S'timestamp'
p3
aF5.069565057754517
aa(lp4
S'distance'
p5
aF37.15003967285156
aa(lp6
S'state'
p7
aI0
aatp8
Rp9
.ccollections
OrderedDict
p0
((lp1
(lp2
S'timestamp'
p3
aF5.070373058319092
aa(lp4
S'distance'
p5
aF37.15003967285156
aa(lp6
S'state'
p7
aI0
aatp8
Rp9
.ccollections
OrderedDict
p0
((lp1
(lp2
S'timestamp'
p3
aF5.079491138458252
aa(lp4
S'distance'
p5
aF37.15003967285156
aa(lp6
S'state'
p7
aI0
aatp8
Rp9
.ccollections
OrderedDict
p0
((lp1
(lp2
S'timestamp'
p3
aF5.080069065093994
aa(lp4
S'distance'
p5
aF37.15003967285156
aa(lp6
S'state'
p7
aI0
aatp8
Rp9
.ccollections
OrderedDict
p0
((lp1
(lp2
S'timestamp'
p3
aF5.089648962020874
aa(lp4
S'distance'
p5
aF37.15003967285156
aa(lp6
S'state'
p7
aI0
aatp8
Rp9
.ccollections
OrderedDict
p0
((lp1
(lp2
S'timestamp'
p3
aF5.090074062347412
aa(lp4
S'distance'
p5
aF37.15003967285156
aa(lp6
S'state'
p7
aI0
aatp8
Rp9
.ccollections
OrderedDict
p0
((lp1
(lp2
S'timestamp'
p3
aF5.099299907684326
aa(lp4
S'distance'
p5
aF37.15003967285156
aa(lp6
S'state'
p7
aI0
aatp8
Rp9
.ccollections
OrderedDict
p0
((lp1
(lp2
S'timestamp'
p3
aF5.100024938583374
aa(lp4
S'distance'
p5
aF37.15003967285156
aa(lp6
S'state'
p7
aI0
aatp8
Rp9
.ccollections
OrderedDict
p0
((lp1
(lp2
S'timestamp'
p3
aF5.1093909740448
aa(lp4
S'distance'
p5
aF37.15003967285156
aa(lp6
S'state'
p7
aI0
aatp8
Rp9
.ccollections
OrderedDict
p0
((lp1
(lp2
S'timestamp'
p3
aF5.110172986984253
aa(lp4
S'distance'
p5
aF37.15003967285156
aa(lp6
S'state'
p7
aI0
aatp8
Rp9
.ccollections
OrderedDict
p0
((lp1
(lp2
S'timestamp'
p3
aF5.119333028793335
aa(lp4
S'distance'
p5
aF37.15003967285156
aa(lp6
S'state'
p7
aI0
aatp8
Rp9
.ccollections
OrderedDict
p0
((lp1
(lp2
S'timestamp'
p3
aF5.120012998580933
aa(lp4
S'distance'
p5
aF37.15003967285156
aa(lp6
S'state'
p7
aI0
aatp8
Rp9
.ccollections
OrderedDict
p0
((lp1
(lp2
S'timestamp'
p3
aF5.129343032836914
aa(lp4
S'distance'
p5
aF37.15003967285156
aa(lp6
S'state'
p7
aI0
aatp8
Rp9
.ccollections
OrderedDict
p0
((lp1
(lp2
S'timestamp'
p3
aF5.129990100860596
aa(lp4
S'distance'
p5
aF37.15003967285156
aa(lp6
S'state'
p7
aI0
aatp8
Rp9
.ccollections
OrderedDict
p0
((lp1
(lp2
S'timestamp'
p3
aF5.139379024505615
aa(lp4
S'distance'
p5
aF37.15003967285156
aa(lp6
S'state'
p7
aI0
aatp8
Rp9
.ccollections
OrderedDict
p0
((lp1
(lp2
S'timestamp'
p3
aF5.140005111694336
aa(lp4
S'distance'
p5
aF37.15003967285156
aa(lp6
S'state'
p7
aI0
aatp8
Rp9
.ccollections
OrderedDict
p0
((lp1
(lp2
S'timestamp'
p3
aF5.149528980255127
aa(lp4
S'distance'
p5
aF37.15003967285156
aa(lp6
S'state'
p7
aI0
aatp8
Rp9
.ccollections
OrderedDict
p0
((lp1
(lp2
S'timestamp'
p3
aF5.1498260498046875
aa(lp4
S'distance'
p5
aF37.15003967285156
aa(lp6
S'state'
p7
aI0
aatp8
Rp9
.ccollections
OrderedDict
p0
((lp1
(lp2
S'timestamp'
p3
aF5.159436941146851
aa(lp4
S'distance'
p5
aF37.15003967285156
aa(lp6
S'state'
p7
aI0
aatp8
Rp9
.ccollections
OrderedDict
p0
((lp1
(lp2
S'timestamp'
p3
aF5.159852981567383
aa(lp4
S'distance'
p5
aF37.15003967285156
aa(lp6
S'state'
p7
aI0
aatp8
Rp9
.ccollections
OrderedDict
p0
((lp1
(lp2
S'timestamp'
p3
aF5.169672012329102
aa(lp4
S'distance'
p5
aF37.15003967285156
aa(lp6
S'state'
p7
aI0
aatp8
Rp9
.ccollections
OrderedDict
p0
((lp1
(lp2
S'timestamp'
p3
aF5.169804096221924
aa(lp4
S'distance'
p5
aF37.15003967285156
aa(lp6
S'state'
p7
aI0
aatp8
Rp9
.ccollections
OrderedDict
p0
((lp1
(lp2
S'timestamp'
p3
aF5.179429054260254
aa(lp4
S'distance'
p5
aF37.15003967285156
aa(lp6
S'state'
p7
aI0
aatp8
Rp9
.ccollections
OrderedDict
p0
((lp1
(lp2
S'timestamp'
p3
aF5.179803133010864
aa(lp4
S'distance'
p5
aF37.15003967285156
aa(lp6
S'state'
p7
aI0
aatp8
Rp9
.ccollections
OrderedDict
p0
((lp1
(lp2
S'timestamp'
p3
aF5.189678907394409
aa(lp4
S'distance'
p5
aF37.15003967285156
aa(lp6
S'state'
p7
aI0
aatp8
Rp9
.ccollections
OrderedDict
p0
((lp1
(lp2
S'timestamp'
p3
aF5.190129995346069
aa(lp4
S'distance'
p5
aF37.15003967285156
aa(lp6
S'state'
p7
aI0
aatp8
Rp9
.ccollections
OrderedDict
p0
((lp1
(lp2
S'timestamp'
p3
aF5.199279069900513
aa(lp4
S'distance'
p5
aF37.15003967285156
aa(lp6
S'state'
p7
aI0
aatp8
Rp9
.ccollections
OrderedDict
p0
((lp1
(lp2
S'timestamp'
p3
aF5.199842929840088
aa(lp4
S'distance'
p5
aF37.15003967285156
aa(lp6
S'state'
p7
aI0
aatp8
Rp9
.ccollections
OrderedDict
p0
((lp1
(lp2
S'timestamp'
p3
aF5.209376096725464
aa(lp4
S'distance'
p5
aF37.15003967285156
aa(lp6
S'state'
p7
aI0
aatp8
Rp9
.ccollections
OrderedDict
p0
((lp1
(lp2
S'timestamp'
p3
aF5.209888935089111
aa(lp4
S'distance'
p5
aF37.15003967285156
aa(lp6
S'state'
p7
aI0
aatp8
Rp9
.ccollections
OrderedDict
p0
((lp1
(lp2
S'timestamp'
p3
aF5.219320058822632
aa(lp4
S'distance'
p5
aF37.15003967285156
aa(lp6
S'state'
p7
aI0
aatp8
Rp9
.ccollections
OrderedDict
p0
((lp1
(lp2
S'timestamp'
p3
aF5.219880104064941
aa(lp4
S'distance'
p5
aF37.15003967285156
aa(lp6
S'state'
p7
aI0
aatp8
Rp9
.ccollections
OrderedDict
p0
((lp1
(lp2
S'timestamp'
p3
aF5.229481935501099
aa(lp4
S'distance'
p5
aF37.15003967285156
aa(lp6
S'state'
p7
aI0
aatp8
Rp9
.ccollections
OrderedDict
p0
((lp1
(lp2
S'timestamp'
p3
aF5.22989296913147
aa(lp4
S'distance'
p5
aF37.15003967285156
aa(lp6
S'state'
p7
aI0
aatp8
Rp9
.ccollections
OrderedDict
p0
((lp1
(lp2
S'timestamp'
p3
aF5.239406108856201
aa(lp4
S'distance'
p5
aF37.15003967285156
aa(lp6
S'state'
p7
aI0
aatp8
Rp9
.ccollections
OrderedDict
p0
((lp1
(lp2
S'timestamp'
p3
aF5.239803075790405
aa(lp4
S'distance'
p5
aF37.15003967285156
aa(lp6
S'state'
p7
aI0
aatp8
Rp9
.ccollections
OrderedDict
p0
((lp1
(lp2
S'timestamp'
p3
aF5.249704122543335
aa(lp4
S'distance'
p5
aF37.15003967285156
aa(lp6
S'state'
p7
aI0
aatp8
Rp9
.ccollections
OrderedDict
p0
((lp1
(lp2
S'timestamp'
p3
aF5.249983072280884
aa(lp4
S'distance'
p5
aF37.15003967285156
aa(lp6
S'state'
p7
aI0
aatp8
Rp9
.ccollections
OrderedDict
p0
((lp1
(lp2
S'timestamp'
p3
aF5.259416103363037
aa(lp4
S'distance'
p5
aF37.15003967285156
aa(lp6
S'state'
p7
aI0
aatp8
Rp9
.ccollections
OrderedDict
p0
((lp1
(lp2
S'timestamp'
p3
aF5.259784936904907
aa(lp4
S'distance'
p5
aF37.15003967285156
aa(lp6
S'state'
p7
aI0
aatp8
Rp9
.ccollections
OrderedDict
p0
((lp1
(lp2
S'timestamp'
p3
aF5.269366025924683
aa(lp4
S'distance'
p5
aF37.15003967285156
aa(lp6
S'state'
p7
aI0
aatp8
Rp9
.ccollections
OrderedDict
p0
((lp1
(lp2
S'timestamp'
p3
aF5.269767999649048
aa(lp4
S'distance'
p5
aF37.15003967285156
aa(lp6
S'state'
p7
aI0
aatp8
Rp9
.ccollections
OrderedDict
p0
((lp1
(lp2
S'timestamp'
p3
aF5.279303073883057
aa(lp4
S'distance'
p5
aF37.15003967285156
aa(lp6
S'state'
p7
aI0
aatp8
Rp9
.ccollections
OrderedDict
p0
((lp1
(lp2
S'timestamp'
p3
aF5.2796311378479
aa(lp4
S'distance'
p5
aF37.15003967285156
aa(lp6
S'state'
p7
aI0
aatp8
Rp9
.ccollections
OrderedDict
p0
((lp1
(lp2
S'timestamp'
p3
aF5.289355039596558
aa(lp4
S'distance'
p5
aF37.15003967285156
aa(lp6
S'state'
p7
aI0
aatp8
Rp9
.ccollections
OrderedDict
p0
((lp1
(lp2
S'timestamp'
p3
aF5.289762020111084
aa(lp4
S'distance'
p5
aF37.15003967285156
aa(lp6
S'state'
p7
aI0
aatp8
Rp9
.ccollections
OrderedDict
p0
((lp1
(lp2
S'timestamp'
p3
aF5.299345016479492
aa(lp4
S'distance'
p5
aF37.15003967285156
aa(lp6
S'state'
p7
aI0
aatp8
Rp9
.ccollections
OrderedDict
p0
((lp1
(lp2
S'timestamp'
p3
aF5.299736022949219
aa(lp4
S'distance'
p5
aF37.15003967285156
aa(lp6
S'state'
p7
aI0
aatp8
Rp9
.ccollections
OrderedDict
p0
((lp1
(lp2
S'timestamp'
p3
aF5.309360980987549
aa(lp4
S'distance'
p5
aF37.15003967285156
aa(lp6
S'state'
p7
aI0
aatp8
Rp9
.ccollections
OrderedDict
p0
((lp1
(lp2
S'timestamp'
p3
aF5.3096771240234375
aa(lp4
S'distance'
p5
aF37.15003967285156
aa(lp6
S'state'
p7
aI0
aatp8
Rp9
.ccollections
OrderedDict
p0
((lp1
(lp2
S'timestamp'
p3
aF5.319347143173218
aa(lp4
S'distance'
p5
aF37.15003967285156
aa(lp6
S'state'
p7
aI0
aatp8
Rp9
.ccollections
OrderedDict
p0
((lp1
(lp2
S'timestamp'
p3
aF5.319751977920532
aa(lp4
S'distance'
p5
aF37.15003967285156
aa(lp6
S'state'
p7
aI0
aatp8
Rp9
.ccollections
OrderedDict
p0
((lp1
(lp2
S'timestamp'
p3
aF5.329270124435425
aa(lp4
S'distance'
p5
aF37.15003967285156
aa(lp6
S'state'
p7
aI0
aatp8
Rp9
.ccollections
OrderedDict
p0
((lp1
(lp2
S'timestamp'
p3
aF5.329689979553223
aa(lp4
S'distance'
p5
aF37.15003967285156
aa(lp6
S'state'
p7
aI0
aatp8
Rp9
.ccollections
OrderedDict
p0
((lp1
(lp2
S'timestamp'
p3
aF5.339065074920654
aa(lp4
S'distance'
p5
aF37.15003967285156
aa(lp6
S'state'
p7
aI0
aatp8
Rp9
.ccollections
OrderedDict
p0
((lp1
(lp2
S'timestamp'
p3
aF5.339818954467773
aa(lp4
S'distance'
p5
aF37.15003967285156
aa(lp6
S'state'
p7
aI0
aatp8
Rp9
.ccollections
OrderedDict
p0
((lp1
(lp2
S'timestamp'
p3
aF5.349229097366333
aa(lp4
S'distance'
p5
aF37.15003967285156
aa(lp6
S'state'
p7
aI0
aatp8
Rp9
.ccollections
OrderedDict
p0
((lp1
(lp2
S'timestamp'
p3
aF5.349618911743164
aa(lp4
S'distance'
p5
aF37.15003967285156
aa(lp6
S'state'
p7
aI0
aatp8
Rp9
.ccollections
OrderedDict
p0
((lp1
(lp2
S'timestamp'
p3
aF5.359525918960571
aa(lp4
S'distance'
p5
aF37.15003967285156
aa(lp6
S'state'
p7
aI0
aatp8
Rp9
.ccollections
OrderedDict
p0
((lp1
(lp2
S'timestamp'
p3
aF5.359643936157227
aa(lp4
S'distance'
p5
aF37.15003967285156
aa(lp6
S'state'
p7
aI0
aatp8
Rp9
.ccollections
OrderedDict
p0
((lp1
(lp2
S'timestamp'
p3
aF5.369287014007568
aa(lp4
S'distance'
p5
aF37.15003967285156
aa(lp6
S'state'
p7
aI0
aatp8
Rp9
.ccollections
OrderedDict
p0
((lp1
(lp2
S'timestamp'
p3
aF5.3696229457855225
aa(lp4
S'distance'
p5
aF37.15003967285156
aa(lp6
S'state'
p7
aI0
aatp8
Rp9
.ccollections
OrderedDict
p0
((lp1
(lp2
S'timestamp'
p3
aF5.379387140274048
aa(lp4
S'distance'
p5
aF37.15003967285156
aa(lp6
S'state'
p7
aI0
aatp8
Rp9
.ccollections
OrderedDict
p0
((lp1
(lp2
S'timestamp'
p3
aF5.379517078399658
aa(lp4
S'distance'
p5
aF37.15003967285156
aa(lp6
S'state'
p7
aI0
aatp8
Rp9
.ccollections
OrderedDict
p0
((lp1
(lp2
S'timestamp'
p3
aF5.389339923858643
aa(lp4
S'distance'
p5
aF37.15003967285156
aa(lp6
S'state'
p7
aI0
aatp8
Rp9
.ccollections
OrderedDict
p0
((lp1
(lp2
S'timestamp'
p3
aF5.389588117599487
aa(lp4
S'distance'
p5
aF37.15003967285156
aa(lp6
S'state'
p7
aI0
aatp8
Rp9
.ccollections
OrderedDict
p0
((lp1
(lp2
S'timestamp'
p3
aF5.399842023849487
aa(lp4
S'distance'
p5
aF37.15003967285156
aa(lp6
S'state'
p7
aI0
aatp8
Rp9
.ccollections
OrderedDict
p0
((lp1
(lp2
S'timestamp'
p3
aF5.399924039840698
aa(lp4
S'distance'
p5
aF37.15003967285156
aa(lp6
S'state'
p7
aI0
aatp8
Rp9
.ccollections
OrderedDict
p0
((lp1
(lp2
S'timestamp'
p3
aF5.4091880321502686
aa(lp4
S'distance'
p5
aF37.15003967285156
aa(lp6
S'state'
p7
aI0
aatp8
Rp9
.ccollections
OrderedDict
p0
((lp1
(lp2
S'timestamp'
p3
aF5.409820079803467
aa(lp4
S'distance'
p5
aF37.15003967285156
aa(lp6
S'state'
p7
aI0
aatp8
Rp9
.ccollections
OrderedDict
p0
((lp1
(lp2
S'timestamp'
p3
aF5.419255971908569
aa(lp4
S'distance'
p5
aF37.15003967285156
aa(lp6
S'state'
p7
aI0
aatp8
Rp9
.ccollections
OrderedDict
p0
((lp1
(lp2
S'timestamp'
p3
aF5.420274972915649
aa(lp4
S'distance'
p5
aF37.15003967285156
aa(lp6
S'state'
p7
aI0
aatp8
Rp9
.ccollections
OrderedDict
p0
((lp1
(lp2
S'timestamp'
p3
aF5.429206132888794
aa(lp4
S'distance'
p5
aF37.15003967285156
aa(lp6
S'state'
p7
aI0
aatp8
Rp9
.ccollections
OrderedDict
p0
((lp1
(lp2
S'timestamp'
p3
aF5.429589033126831
aa(lp4
S'distance'
p5
aF37.15003967285156
aa(lp6
S'state'
p7
aI0
aatp8
Rp9
.ccollections
OrderedDict
p0
((lp1
(lp2
S'timestamp'
p3
aF5.438914060592651
aa(lp4
S'distance'
p5
aF37.15003967285156
aa(lp6
S'state'
p7
aI0
aatp8
Rp9
.ccollections
OrderedDict
p0
((lp1
(lp2
S'timestamp'
p3
aF5.439517974853516
aa(lp4
S'distance'
p5
aF37.15003967285156
aa(lp6
S'state'
p7
aI0
aatp8
Rp9
.ccollections
OrderedDict
p0
((lp1
(lp2
S'timestamp'
p3
aF5.449324131011963
aa(lp4
S'distance'
p5
aF37.15003967285156
aa(lp6
S'state'
p7
aI0
aatp8
Rp9
.ccollections
OrderedDict
p0
((lp1
(lp2
S'timestamp'
p3
aF5.449453115463257
aa(lp4
S'distance'
p5
aF37.15003967285156
aa(lp6
S'state'
p7
aI0
aatp8
Rp9
.ccollections
OrderedDict
p0
((lp1
(lp2
S'timestamp'
p3
aF5.459450960159302
aa(lp4
S'distance'
p5
aF37.15003967285156
aa(lp6
S'state'
p7
aI0
aatp8
Rp9
.ccollections
OrderedDict
p0
((lp1
(lp2
S'timestamp'
p3
aF5.4595770835876465
aa(lp4
S'distance'
p5
aF37.15003967285156
aa(lp6
S'state'
p7
aI0
aatp8
Rp9
.ccollections
OrderedDict
p0
((lp1
(lp2
S'timestamp'
p3
aF5.469164133071899
aa(lp4
S'distance'
p5
aF37.15003967285156
aa(lp6
S'state'
p7
aI0
aatp8
Rp9
.ccollections
OrderedDict
p0
((lp1
(lp2
S'timestamp'
p3
aF5.469537973403931
aa(lp4
S'distance'
p5
aF37.15003967285156
aa(lp6
S'state'
p7
aI0
aatp8
Rp9
.ccollections
OrderedDict
p0
((lp1
(lp2
S'timestamp'
p3
aF5.478935956954956
aa(lp4
S'distance'
p5
aF37.15003967285156
aa(lp6
S'state'
p7
aI0
aatp8
Rp9
.ccollections
OrderedDict
p0
((lp1
(lp2
S'timestamp'
p3
aF5.479746103286743
aa(lp4
S'distance'
p5
aF37.15003967285156
aa(lp6
S'state'
p7
aI0
aatp8
Rp9
.ccollections
OrderedDict
p0
((lp1
(lp2
S'timestamp'
p3
aF5.488976001739502
aa(lp4
S'distance'
p5
aF37.15003967285156
aa(lp6
S'state'
p7
aI0
aatp8
Rp9
.ccollections
OrderedDict
p0
((lp1
(lp2
S'timestamp'
p3
aF5.489682912826538
aa(lp4
S'distance'
p5
aF37.15003967285156
aa(lp6
S'state'
p7
aI0
aatp8
Rp9
.ccollections
OrderedDict
p0
((lp1
(lp2
S'timestamp'
p3
aF5.499005079269409
aa(lp4
S'distance'
p5
aF37.15003967285156
aa(lp6
S'state'
p7
aI0
aatp8
Rp9
.ccollections
OrderedDict
p0
((lp1
(lp2
S'timestamp'
p3
aF5.4997169971466064
aa(lp4
S'distance'
p5
aF37.15003967285156
aa(lp6
S'state'
p7
aI0
aatp8
Rp9
.ccollections
OrderedDict
p0
((lp1
(lp2
S'timestamp'
p3
aF5.508975028991699
aa(lp4
S'distance'
p5
aF37.15003967285156
aa(lp6
S'state'
p7
aI0
aatp8
Rp9
.ccollections
OrderedDict
p0
((lp1
(lp2
S'timestamp'
p3
aF5.509583950042725
aa(lp4
S'distance'
p5
aF37.15003967285156
aa(lp6
S'state'
p7
aI0
aatp8
Rp9
.ccollections
OrderedDict
p0
((lp1
(lp2
S'timestamp'
p3
aF5.519032955169678
aa(lp4
S'distance'
p5
aF37.15003967285156
aa(lp6
S'state'
p7
aI0
aatp8
Rp9
.ccollections
OrderedDict
p0
((lp1
(lp2
S'timestamp'
p3
aF5.519621133804321
aa(lp4
S'distance'
p5
aF37.15003967285156
aa(lp6
S'state'
p7
aI0
aatp8
Rp9
.ccollections
OrderedDict
p0
((lp1
(lp2
S'timestamp'
p3
aF5.529170036315918
aa(lp4
S'distance'
p5
aF37.15003967285156
aa(lp6
S'state'
p7
aI0
aatp8
Rp9
.ccollections
OrderedDict
p0
((lp1
(lp2
S'timestamp'
p3
aF5.5294201374053955
aa(lp4
S'distance'
p5
aF37.15003967285156
aa(lp6
S'state'
p7
aI0
aatp8
Rp9
.ccollections
OrderedDict
p0
((lp1
(lp2
S'timestamp'
p3
aF5.5390589237213135
aa(lp4
S'distance'
p5
aF37.15003967285156
aa(lp6
S'state'
p7
aI0
aatp8
Rp9
.ccollections
OrderedDict
p0
((lp1
(lp2
S'timestamp'
p3
aF5.539422988891602
aa(lp4
S'distance'
p5
aF37.15003967285156
aa(lp6
S'state'
p7
aI0
aatp8
Rp9
.ccollections
OrderedDict
p0
((lp1
(lp2
S'timestamp'
p3
aF5.549210071563721
aa(lp4
S'distance'
p5
aF37.15003967285156
aa(lp6
S'state'
p7
aI0
aatp8
Rp9
.ccollections
OrderedDict
p0
((lp1
(lp2
S'timestamp'
p3
aF5.549343109130859
aa(lp4
S'distance'
p5
aF37.15003967285156
aa(lp6
S'state'
p7
aI0
aatp8
Rp9
.ccollections
OrderedDict
p0
((lp1
(lp2
S'timestamp'
p3
aF5.5588600635528564
aa(lp4
S'distance'
p5
aF37.15003967285156
aa(lp6
S'state'
p7
aI0
aatp8
Rp9
.ccollections
OrderedDict
p0
((lp1
(lp2
S'timestamp'
p3
aF5.559534072875977
aa(lp4
S'distance'
p5
aF37.15003967285156
aa(lp6
S'state'
p7
aI0
aatp8
Rp9
.ccollections
OrderedDict
p0
((lp1
(lp2
S'timestamp'
p3
aF5.5690319538116455
aa(lp4
S'distance'
p5
aF37.15003967285156
aa(lp6
S'state'
p7
aI0
aatp8
Rp9
.ccollections
OrderedDict
p0
((lp1
(lp2
S'timestamp'
p3
aF5.569446086883545
aa(lp4
S'distance'
p5
aF37.15003967285156
aa(lp6
S'state'
p7
aI0
aatp8
Rp9
.ccollections
OrderedDict
p0
((lp1
(lp2
S'timestamp'
p3
aF5.57881498336792
aa(lp4
S'distance'
p5
aF37.15003967285156
aa(lp6
S'state'
p7
aI0
aatp8
Rp9
.ccollections
OrderedDict
p0
((lp1
(lp2
S'timestamp'
p3
aF5.57935094833374
aa(lp4
S'distance'
p5
aF37.15003967285156
aa(lp6
S'state'
p7
aI0
aatp8
Rp9
.ccollections
OrderedDict
p0
((lp1
(lp2
S'timestamp'
p3
aF5.58896803855896
aa(lp4
S'distance'
p5
aF37.15003967285156
aa(lp6
S'state'
p7
aI0
aatp8
Rp9
.ccollections
OrderedDict
p0
((lp1
(lp2
S'timestamp'
p3
aF5.589425086975098
aa(lp4
S'distance'
p5
aF37.15003967285156
aa(lp6
S'state'
p7
aI0
aatp8
Rp9
.ccollections
OrderedDict
p0
((lp1
(lp2
S'timestamp'
p3
aF5.598954916000366
aa(lp4
S'distance'
p5
aF37.15003967285156
aa(lp6
S'state'
p7
aI0
aatp8
Rp9
.ccollections
OrderedDict
p0
((lp1
(lp2
S'timestamp'
p3
aF5.599287033081055
aa(lp4
S'distance'
p5
aF37.15003967285156
aa(lp6
S'state'
p7
aI0
aatp8
Rp9
.ccollections
OrderedDict
p0
((lp1
(lp2
S'timestamp'
p3
aF5.608839988708496
aa(lp4
S'distance'
p5
aF37.15003967285156
aa(lp6
S'state'
p7
aI0
aatp8
Rp9
.ccollections
OrderedDict
p0
((lp1
(lp2
S'timestamp'
p3
aF5.60942006111145
aa(lp4
S'distance'
p5
aF37.15003967285156
aa(lp6
S'state'
p7
aI0
aatp8
Rp9
.ccollections
OrderedDict
p0
((lp1
(lp2
S'timestamp'
p3
aF5.618855953216553
aa(lp4
S'distance'
p5
aF37.15003967285156
aa(lp6
S'state'
p7
aI0
aatp8
Rp9
.ccollections
OrderedDict
p0
((lp1
(lp2
S'timestamp'
p3
aF5.619478940963745
aa(lp4
S'distance'
p5
aF37.15003967285156
aa(lp6
S'state'
p7
aI0
aatp8
Rp9
.ccollections
OrderedDict
p0
((lp1
(lp2
S'timestamp'
p3
aF5.628927946090698
aa(lp4
S'distance'
p5
aF37.15003967285156
aa(lp6
S'state'
p7
aI0
aatp8
Rp9
.ccollections
OrderedDict
p0
((lp1
(lp2
S'timestamp'
p3
aF5.629333972930908
aa(lp4
S'distance'
p5
aF37.15003967285156
aa(lp6
S'state'
p7
aI0
aatp8
Rp9
.ccollections
OrderedDict
p0
((lp1
(lp2
S'timestamp'
p3
aF5.638911008834839
aa(lp4
S'distance'
p5
aF37.15003967285156
aa(lp6
S'state'
p7
aI0
aatp8
Rp9
.ccollections
OrderedDict
p0
((lp1
(lp2
S'timestamp'
p3
aF5.639233112335205
aa(lp4
S'distance'
p5
aF37.15003967285156
aa(lp6
S'state'
p7
aI0
aatp8
Rp9
.ccollections
OrderedDict
p0
((lp1
(lp2
S'timestamp'
p3
aF5.648925065994263
aa(lp4
S'distance'
p5
aF37.15003967285156
aa(lp6
S'state'
p7
aI0
aatp8
Rp9
.ccollections
OrderedDict
p0
((lp1
(lp2
S'timestamp'
p3
aF5.649358034133911
aa(lp4
S'distance'
p5
aF37.15003967285156
aa(lp6
S'state'
p7
aI0
aatp8
Rp9
.ccollections
OrderedDict
p0
((lp1
(lp2
S'timestamp'
p3
aF5.658690929412842
aa(lp4
S'distance'
p5
aF37.15003967285156
aa(lp6
S'state'
p7
aI0
aatp8
Rp9
.ccollections
OrderedDict
p0
((lp1
(lp2
S'timestamp'
p3
aF5.659409046173096
aa(lp4
S'distance'
p5
aF37.15003967285156
aa(lp6
S'state'
p7
aI0
aatp8
Rp9
.ccollections
OrderedDict
p0
((lp1
(lp2
S'timestamp'
p3
aF5.66922402381897
aa(lp4
S'distance'
p5
aF37.15003967285156
aa(lp6
S'state'
p7
aI0
aatp8
Rp9
.ccollections
OrderedDict
p0
((lp1
(lp2
S'timestamp'
p3
aF5.669352054595947
aa(lp4
S'distance'
p5
aF37.15003967285156
aa(lp6
S'state'
p7
aI0
aatp8
Rp9
.ccollections
OrderedDict
p0
((lp1
(lp2
S'timestamp'
p3
aF5.67891001701355
aa(lp4
S'distance'
p5
aF37.15003967285156
aa(lp6
S'state'
p7
aI0
aatp8
Rp9
.ccollections
OrderedDict
p0
((lp1
(lp2
S'timestamp'
p3
aF5.679213047027588
aa(lp4
S'distance'
p5
aF37.15003967285156
aa(lp6
S'state'
p7
aI0
aatp8
Rp9
.ccollections
OrderedDict
p0
((lp1
(lp2
S'timestamp'
p3
aF5.688758134841919
aa(lp4
S'distance'
p5
aF37.15003967285156
aa(lp6
S'state'
p7
aI0
aatp8
Rp9
.ccollections
OrderedDict
p0
((lp1
(lp2
S'timestamp'
p3
aF5.689288139343262
aa(lp4
S'distance'
p5
aF37.15003967285156
aa(lp6
S'state'
p7
aI0
aatp8
Rp9
.ccollections
OrderedDict
p0
((lp1
(lp2
S'timestamp'
p3
aF5.698760032653809
aa(lp4
S'distance'
p5
aF37.15003967285156
aa(lp6
S'state'
p7
aI0
aatp8
Rp9
.ccollections
OrderedDict
p0
((lp1
(lp2
S'timestamp'
p3
aF5.69931697845459
aa(lp4
S'distance'
p5
aF37.15003967285156
aa(lp6
S'state'
p7
aI0
aatp8
Rp9
.ccollections
OrderedDict
p0
((lp1
(lp2
S'timestamp'
p3
aF5.708830118179321
aa(lp4
S'distance'
p5
aF37.15003967285156
aa(lp6
S'state'
p7
aI0
aatp8
Rp9
.ccollections
OrderedDict
p0
((lp1
(lp2
S'timestamp'
p3
aF5.709289073944092
aa(lp4
S'distance'
p5
aF37.15003967285156
aa(lp6
S'state'
p7
aI0
aatp8
Rp9
.ccollections
OrderedDict
p0
((lp1
(lp2
S'timestamp'
p3
aF5.718682050704956
aa(lp4
S'distance'
p5
aF37.15003967285156
aa(lp6
S'state'
p7
aI0
aatp8
Rp9
.ccollections
OrderedDict
p0
((lp1
(lp2
S'timestamp'
p3
aF5.719402074813843
aa(lp4
S'distance'
p5
aF37.15003967285156
aa(lp6
S'state'
p7
aI0
aatp8
Rp9
.ccollections
OrderedDict
p0
((lp1
(lp2
S'timestamp'
p3
aF5.7286200523376465
aa(lp4
S'distance'
p5
aF37.15003967285156
aa(lp6
S'state'
p7
aI0
aatp8
Rp9
.ccollections
OrderedDict
p0
((lp1
(lp2
S'timestamp'
p3
aF5.729383945465088
aa(lp4
S'distance'
p5
aF37.15003967285156
aa(lp6
S'state'
p7
aI0
aatp8
Rp9
.ccollections
OrderedDict
p0
((lp1
(lp2
S'timestamp'
p3
aF5.738814115524292
aa(lp4
S'distance'
p5
aF37.15003967285156
aa(lp6
S'state'
p7
aI0
aatp8
Rp9
.ccollections
OrderedDict
p0
((lp1
(lp2
S'timestamp'
p3
aF5.739366054534912
aa(lp4
S'distance'
p5
aF37.15003967285156
aa(lp6
S'state'
p7
aI0
aatp8
Rp9
.ccollections
OrderedDict
p0
((lp1
(lp2
S'timestamp'
p3
aF5.748700141906738
aa(lp4
S'distance'
p5
aF37.15003967285156
aa(lp6
S'state'
p7
aI0
aatp8
Rp9
.ccollections
OrderedDict
p0
((lp1
(lp2
S'timestamp'
p3
aF5.749243974685669
aa(lp4
S'distance'
p5
aF37.15003967285156
aa(lp6
S'state'
p7
aI0
aatp8
Rp9
.ccollections
OrderedDict
p0
((lp1
(lp2
S'timestamp'
p3
aF5.758836030960083
aa(lp4
S'distance'
p5
aF37.15003967285156
aa(lp6
S'state'
p7
aI0
aatp8
Rp9
.ccollections
OrderedDict
p0
((lp1
(lp2
S'timestamp'
p3
aF5.759273052215576
aa(lp4
S'distance'
p5
aF37.15003967285156
aa(lp6
S'state'
p7
aI0
aatp8
Rp9
.ccollections
OrderedDict
p0
((lp1
(lp2
S'timestamp'
p3
aF5.769115924835205
aa(lp4
S'distance'
p5
aF37.15003967285156
aa(lp6
S'state'
p7
aI0
aatp8
Rp9
.ccollections
OrderedDict
p0
((lp1
(lp2
S'timestamp'
p3
aF5.769205093383789
aa(lp4
S'distance'
p5
aF37.15003967285156
aa(lp6
S'state'
p7
aI0
aatp8
Rp9
.ccollections
OrderedDict
p0
((lp1
(lp2
S'timestamp'
p3
aF5.778619050979614
aa(lp4
S'distance'
p5
aF37.15003967285156
aa(lp6
S'state'
p7
aI0
aatp8
Rp9
.ccollections
OrderedDict
p0
((lp1
(lp2
S'timestamp'
p3
aF5.77921199798584
aa(lp4
S'distance'
p5
aF37.15003967285156
aa(lp6
S'state'
p7
aI0
aatp8
Rp9
.ccollections
OrderedDict
p0
((lp1
(lp2
S'timestamp'
p3
aF5.788645029067993
aa(lp4
S'distance'
p5
aF37.15003967285156
aa(lp6
S'state'
p7
aI0
aatp8
Rp9
.ccollections
OrderedDict
p0
((lp1
(lp2
S'timestamp'
p3
aF5.789164066314697
aa(lp4
S'distance'
p5
aF37.15003967285156
aa(lp6
S'state'
p7
aI0
aatp8
Rp9
.ccollections
OrderedDict
p0
((lp1
(lp2
S'timestamp'
p3
aF5.798792123794556
aa(lp4
S'distance'
p5
aF37.15003967285156
aa(lp6
S'state'
p7
aI0
aatp8
Rp9
.ccollections
OrderedDict
p0
((lp1
(lp2
S'timestamp'
p3
aF5.79911208152771
aa(lp4
S'distance'
p5
aF37.15003967285156
aa(lp6
S'state'
p7
aI0
aatp8
Rp9
.ccollections
OrderedDict
p0
((lp1
(lp2
S'timestamp'
p3
aF5.8089189529418945
aa(lp4
S'distance'
p5
aF37.15003967285156
aa(lp6
S'state'
p7
aI0
aatp8
Rp9
.ccollections
OrderedDict
p0
((lp1
(lp2
S'timestamp'
p3
aF5.809128046035767
aa(lp4
S'distance'
p5
aF37.15003967285156
aa(lp6
S'state'
p7
aI0
aatp8
Rp9
.ccollections
OrderedDict
p0
((lp1
(lp2
S'timestamp'
p3
aF5.819123983383179
aa(lp4
S'distance'
p5
aF37.15003967285156
aa(lp6
S'state'
p7
aI0
aatp8
Rp9
.ccollections
OrderedDict
p0
((lp1
(lp2
S'timestamp'
p3
aF5.819212913513184
aa(lp4
S'distance'
p5
aF37.15003967285156
aa(lp6
S'state'
p7
aI0
aatp8
Rp9
.ccollections
OrderedDict
p0
((lp1
(lp2
S'timestamp'
p3
aF5.828577995300293
aa(lp4
S'distance'
p5
aF37.15003967285156
aa(lp6
S'state'
p7
aI0
aatp8
Rp9
.ccollections
OrderedDict
p0
((lp1
(lp2
S'timestamp'
p3
aF5.829066038131714
aa(lp4
S'distance'
p5
aF37.15003967285156
aa(lp6
S'state'
p7
aI0
aatp8
Rp9
.ccollections
OrderedDict
p0
((lp1
(lp2
S'timestamp'
p3
aF5.838732004165649
aa(lp4
S'distance'
p5
aF37.15003967285156
aa(lp6
S'state'
p7
aI0
aatp8
Rp9
.ccollections
OrderedDict
p0
((lp1
(lp2
S'timestamp'
p3
aF5.839152097702026
aa(lp4
S'distance'
p5
aF37.15003967285156
aa(lp6
S'state'
p7
aI0
aatp8
Rp9
.ccollections
OrderedDict
p0
((lp1
(lp2
S'timestamp'
p3
aF5.848618984222412
aa(lp4
S'distance'
p5
aF37.15003967285156
aa(lp6
S'state'
p7
aI0
aatp8
Rp9
.ccollections
OrderedDict
p0
((lp1
(lp2
S'timestamp'
p3
aF5.848971128463745
aa(lp4
S'distance'
p5
aF37.15003967285156
aa(lp6
S'state'
p7
aI0
aatp8
Rp9
.ccollections
OrderedDict
p0
((lp1
(lp2
S'timestamp'
p3
aF5.858468055725098
aa(lp4
S'distance'
p5
aF37.15003967285156
aa(lp6
S'state'
p7
aI0
aatp8
Rp9
.ccollections
OrderedDict
p0
((lp1
(lp2
S'timestamp'
p3
aF5.859172105789185
aa(lp4
S'distance'
p5
aF37.15003967285156
aa(lp6
S'state'
p7
aI0
aatp8
Rp9
.ccollections
OrderedDict
p0
((lp1
(lp2
S'timestamp'
p3
aF5.868452072143555
aa(lp4
S'distance'
p5
aF37.15003967285156
aa(lp6
S'state'
p7
aI0
aatp8
Rp9
.ccollections
OrderedDict
p0
((lp1
(lp2
S'timestamp'
p3
aF5.8691229820251465
aa(lp4
S'distance'
p5
aF37.15003967285156
aa(lp6
S'state'
p7
aI0
aatp8
Rp9
.ccollections
OrderedDict
p0
((lp1
(lp2
S'timestamp'
p3
aF5.878628969192505
aa(lp4
S'distance'
p5
aF37.15003967285156
aa(lp6
S'state'
p7
aI0
aatp8
Rp9
.ccollections
OrderedDict
p0
((lp1
(lp2
S'timestamp'
p3
aF5.879166126251221
aa(lp4
S'distance'
p5
aF37.15003967285156
aa(lp6
S'state'
p7
aI0
aatp8
Rp9
.ccollections
OrderedDict
p0
((lp1
(lp2
S'timestamp'
p3
aF5.88840913772583
aa(lp4
S'distance'
p5
aF37.15003967285156
aa(lp6
S'state'
p7
aI0
aatp8
Rp9
.ccollections
OrderedDict
p0
((lp1
(lp2
S'timestamp'
p3
aF5.88912296295166
aa(lp4
S'distance'
p5
aF37.15003967285156
aa(lp6
S'state'
p7
aI0
aatp8
Rp9
.ccollections
OrderedDict
p0
((lp1
(lp2
S'timestamp'
p3
aF5.898723125457764
aa(lp4
S'distance'
p5
aF37.15003967285156
aa(lp6
S'state'
p7
aI0
aatp8
Rp9
.ccollections
OrderedDict
p0
((lp1
(lp2
S'timestamp'
p3
aF5.898987054824829
aa(lp4
S'distance'
p5
aF37.15003967285156
aa(lp6
S'state'
p7
aI0
aatp8
Rp9
.ccollections
OrderedDict
p0
((lp1
(lp2
S'timestamp'
p3
aF5.9094250202178955
aa(lp4
S'distance'
p5
aF37.15003967285156
aa(lp6
S'state'
p7
aI0
aatp8
Rp9
.ccollections
OrderedDict
p0
((lp1
(lp2
S'timestamp'
p3
aF5.909604072570801
aa(lp4
S'distance'
p5
aF37.15003967285156
aa(lp6
S'state'
p7
aI0
aatp8
Rp9
.ccollections
OrderedDict
p0
((lp1
(lp2
S'timestamp'
p3
aF5.918576002120972
aa(lp4
S'distance'
p5
aF37.15003967285156
aa(lp6
S'state'
p7
aI0
aatp8
Rp9
.ccollections
OrderedDict
p0
((lp1
(lp2
S'timestamp'
p3
aF5.919022083282471
aa(lp4
S'distance'
p5
aF37.15003967285156
aa(lp6
S'state'
p7
aI0
aatp8
Rp9
.ccollections
OrderedDict
p0
((lp1
(lp2
S'timestamp'
p3
aF5.928731918334961
aa(lp4
S'distance'
p5
aF37.15003967285156
aa(lp6
S'state'
p7
aI0
aatp8
Rp9
.ccollections
OrderedDict
p0
((lp1
(lp2
S'timestamp'
p3
aF5.928865909576416
aa(lp4
S'distance'
p5
aF37.15003967285156
aa(lp6
S'state'
p7
aI0
aatp8
Rp9
.ccollections
OrderedDict
p0
((lp1
(lp2
S'timestamp'
p3
aF5.938333988189697
aa(lp4
S'distance'
p5
aF37.15003967285156
aa(lp6
S'state'
p7
aI0
aatp8
Rp9
.ccollections
OrderedDict
p0
((lp1
(lp2
S'timestamp'
p3
aF5.938962936401367
aa(lp4
S'distance'
p5
aF37.15003967285156
aa(lp6
S'state'
p7
aI0
aatp8
Rp9
.ccollections
OrderedDict
p0
((lp1
(lp2
S'timestamp'
p3
aF5.948389053344727
aa(lp4
S'distance'
p5
aF37.15003967285156
aa(lp6
S'state'
p7
aI0
aatp8
Rp9
.ccollections
OrderedDict
p0
((lp1
(lp2
S'timestamp'
p3
aF5.949217081069946
aa(lp4
S'distance'
p5
aF37.15003967285156
aa(lp6
S'state'
p7
aI0
aatp8
Rp9
.ccollections
OrderedDict
p0
((lp1
(lp2
S'timestamp'
p3
aF5.958547115325928
aa(lp4
S'distance'
p5
aF37.15003967285156
aa(lp6
S'state'
p7
aI0
aatp8
Rp9
.ccollections
OrderedDict
p0
((lp1
(lp2
S'timestamp'
p3
aF5.9589080810546875
aa(lp4
S'distance'
p5
aF37.15003967285156
aa(lp6
S'state'
p7
aI0
aatp8
Rp9
.ccollections
OrderedDict
p0
((lp1
(lp2
S'timestamp'
p3
aF6.030316114425659
aa(lp4
S'distance'
p5
aF37.15003967285156
aa(lp6
S'state'
p7
aI0
aatp8
Rp9
.ccollections
OrderedDict
p0
((lp1
(lp2
S'timestamp'
p3
aF6.031268119812012
aa(lp4
S'distance'
p5
aF37.15003967285156
aa(lp6
S'state'
p7
aI0
aatp8
Rp9
.ccollections
OrderedDict
p0
((lp1
(lp2
S'timestamp'
p3
aF6.031383991241455
aa(lp4
S'distance'
p5
aF37.15003967285156
aa(lp6
S'state'
p7
aI0
aatp8
Rp9
.ccollections
OrderedDict
p0
((lp1
(lp2
S'timestamp'
p3
aF6.0315070152282715
aa(lp4
S'distance'
p5
aF37.15003967285156
aa(lp6
S'state'
p7
aI0
aatp8
Rp9
.ccollections
OrderedDict
p0
((lp1
(lp2
S'timestamp'
p3
aF6.031616926193237
aa(lp4
S'distance'
p5
aF37.15003967285156
aa(lp6
S'state'
p7
aI0
aatp8
Rp9
.ccollections
OrderedDict
p0
((lp1
(lp2
S'timestamp'
p3
aF6.031999111175537
aa(lp4
S'distance'
p5
aF37.15003967285156
aa(lp6
S'state'
p7
aI0
aatp8
Rp9
.ccollections
OrderedDict
p0
((lp1
(lp2
S'timestamp'
p3
aF6.0326759815216064
aa(lp4
S'distance'
p5
aF37.15003967285156
aa(lp6
S'state'
p7
aI0
aatp8
Rp9
.ccollections
OrderedDict
p0
((lp1
(lp2
S'timestamp'
p3
aF6.032752990722656
aa(lp4
S'distance'
p5
aF37.15003967285156
aa(lp6
S'state'
p7
aI0
aatp8
Rp9
.ccollections
OrderedDict
p0
((lp1
(lp2
S'timestamp'
p3
aF6.032839059829712
aa(lp4
S'distance'
p5
aF37.15003967285156
aa(lp6
S'state'
p7
aI0
aatp8
Rp9
.ccollections
OrderedDict
p0
((lp1
(lp2
S'timestamp'
p3
aF6.0329060554504395
aa(lp4
S'distance'
p5
aF37.15003967285156
aa(lp6
S'state'
p7
aI0
aatp8
Rp9
.ccollections
OrderedDict
p0
((lp1
(lp2
S'timestamp'
p3
aF6.032969951629639
aa(lp4
S'distance'
p5
aF37.15003967285156
aa(lp6
S'state'
p7
aI0
aatp8
Rp9
.ccollections
OrderedDict
p0
((lp1
(lp2
S'timestamp'
p3
aF6.033030986785889
aa(lp4
S'distance'
p5
aF37.15003967285156
aa(lp6
S'state'
p7
aI0
aatp8
Rp9
.ccollections
OrderedDict
p0
((lp1
(lp2
S'timestamp'
p3
aF6.033092021942139
aa(lp4
S'distance'
p5
aF37.15003967285156
aa(lp6
S'state'
p7
aI0
aatp8
Rp9
.ccollections
OrderedDict
p0
((lp1
(lp2
S'timestamp'
p3
aF6.0331549644470215
aa(lp4
S'distance'
p5
aF37.15003967285156
aa(lp6
S'state'
p7
aI0
aatp8
Rp9
.ccollections
OrderedDict
p0
((lp1
(lp2
S'timestamp'
p3
aF6.038748025894165
aa(lp4
S'distance'
p5
aF37.15003967285156
aa(lp6
S'state'
p7
aI0
aatp8
Rp9
.ccollections
OrderedDict
p0
((lp1
(lp2
S'timestamp'
p3
aF6.03914999961853
aa(lp4
S'distance'
p5
aF37.15003967285156
aa(lp6
S'state'
p7
aI0
aatp8
Rp9
.ccollections
OrderedDict
p0
((lp1
(lp2
S'timestamp'
p3
aF6.048954963684082
aa(lp4
S'distance'
p5
aF37.15003967285156
aa(lp6
S'state'
p7
aI0
aatp8
Rp9
.ccollections
OrderedDict
p0
((lp1
(lp2
S'timestamp'
p3
aF6.0497589111328125
aa(lp4
S'distance'
p5
aF37.15003967285156
aa(lp6
S'state'
p7
aI0
aatp8
Rp9
.ccollections
OrderedDict
p0
((lp1
(lp2
S'timestamp'
p3
aF6.058287143707275
aa(lp4
S'distance'
p5
aF37.15003967285156
aa(lp6
S'state'
p7
aI0
aatp8
Rp9
.ccollections
OrderedDict
p0
((lp1
(lp2
S'timestamp'
p3
aF6.059757947921753
aa(lp4
S'distance'
p5
aF37.15003967285156
aa(lp6
S'state'
p7
aI0
aatp8
Rp9
.ccollections
OrderedDict
p0
((lp1
(lp2
S'timestamp'
p3
aF6.068221092224121
aa(lp4
S'distance'
p5
aF37.15003967285156
aa(lp6
S'state'
p7
aI0
aatp8
Rp9
.ccollections
OrderedDict
p0
((lp1
(lp2
S'timestamp'
p3
aF6.069894075393677
aa(lp4
S'distance'
p5
aF37.15003967285156
aa(lp6
S'state'
p7
aI0
aatp8
Rp9
.ccollections
OrderedDict
p0
((lp1
(lp2
S'timestamp'
p3
aF6.07866096496582
aa(lp4
S'distance'
p5
aF37.15003967285156
aa(lp6
S'state'
p7
aI0
aatp8
Rp9
.ccollections
OrderedDict
p0
((lp1
(lp2
S'timestamp'
p3
aF6.078747034072876
aa(lp4
S'distance'
p5
aF37.15003967285156
aa(lp6
S'state'
p7
aI0
aatp8
Rp9
.ccollections
OrderedDict
p0
((lp1
(lp2
S'timestamp'
p3
aF6.088864088058472
aa(lp4
S'distance'
p5
aF37.15003967285156
aa(lp6
S'state'
p7
aI0
aatp8
Rp9
.ccollections
OrderedDict
p0
((lp1
(lp2
S'timestamp'
p3
aF6.0890281200408936
aa(lp4
S'distance'
p5
aF37.15003967285156
aa(lp6
S'state'
p7
aI0
aatp8
Rp9
.ccollections
OrderedDict
p0
((lp1
(lp2
S'timestamp'
p3
aF6.0981221199035645
aa(lp4
S'distance'
p5
aF37.15003967285156
aa(lp6
S'state'
p7
aI0
aatp8
Rp9
.ccollections
OrderedDict
p0
((lp1
(lp2
S'timestamp'
p3
aF6.098809003829956
aa(lp4
S'distance'
p5
aF37.15003967285156
aa(lp6
S'state'
p7
aI0
aatp8
Rp9
.ccollections
OrderedDict
p0
((lp1
(lp2
S'timestamp'
p3
aF6.108489036560059
aa(lp4
S'distance'
p5
aF37.15003967285156
aa(lp6
S'state'
p7
aI0
aatp8
Rp9
.ccollections
OrderedDict
p0
((lp1
(lp2
S'timestamp'
p3
aF6.108829975128174
aa(lp4
S'distance'
p5
aF37.15003967285156
aa(lp6
S'state'
p7
aI0
aatp8
Rp9
.ccollections
OrderedDict
p0
((lp1
(lp2
S'timestamp'
p3
aF6.1188459396362305
aa(lp4
S'distance'
p5
aF37.15003967285156
aa(lp6
S'state'
p7
aI0
aatp8
Rp9
.ccollections
OrderedDict
p0
((lp1
(lp2
S'timestamp'
p3
aF6.119595050811768
aa(lp4
S'distance'
p5
aF37.15003967285156
aa(lp6
S'state'
p7
aI0
aatp8
Rp9
.ccollections
OrderedDict
p0
((lp1
(lp2
S'timestamp'
p3
aF6.1281211376190186
aa(lp4
S'distance'
p5
aF37.15003967285156
aa(lp6
S'state'
p7
aI0
aatp8
Rp9
.ccollections
OrderedDict
p0
((lp1
(lp2
S'timestamp'
p3
aF6.128648042678833
aa(lp4
S'distance'
p5
aF37.15003967285156
aa(lp6
S'state'
p7
aI0
aatp8
Rp9
.ccollections
OrderedDict
p0
((lp1
(lp2
S'timestamp'
p3
aF6.1389479637146
aa(lp4
S'distance'
p5
aF37.15003967285156
aa(lp6
S'state'
p7
aI0
aatp8
Rp9
.ccollections
OrderedDict
p0
((lp1
(lp2
S'timestamp'
p3
aF6.13952112197876
aa(lp4
S'distance'
p5
aF37.15003967285156
aa(lp6
S'state'
p7
aI0
aatp8
Rp9
.ccollections
OrderedDict
p0
((lp1
(lp2
S'timestamp'
p3
aF6.148389101028442
aa(lp4
S'distance'
p5
aF37.15003967285156
aa(lp6
S'state'
p7
aI0
aatp8
Rp9
.ccollections
OrderedDict
p0
((lp1
(lp2
S'timestamp'
p3
aF6.148705005645752
aa(lp4
S'distance'
p5
aF37.15003967285156
aa(lp6
S'state'
p7
aI0
aatp8
Rp9
.ccollections
OrderedDict
p0
((lp1
(lp2
S'timestamp'
p3
aF6.158671140670776
aa(lp4
S'distance'
p5
aF37.15003967285156
aa(lp6
S'state'
p7
aI0
aatp8
Rp9
.ccollections
OrderedDict
p0
((lp1
(lp2
S'timestamp'
p3
aF6.1587629318237305
aa(lp4
S'distance'
p5
aF37.15003967285156
aa(lp6
S'state'
p7
aI0
aatp8
Rp9
.ccollections
OrderedDict
p0
((lp1
(lp2
S'timestamp'
p3
aF6.16907000541687
aa(lp4
S'distance'
p5
aF37.15003967285156
aa(lp6
S'state'
p7
aI0
aatp8
Rp9
.ccollections
OrderedDict
p0
((lp1
(lp2
S'timestamp'
p3
aF6.16956090927124
aa(lp4
S'distance'
p5
aF37.15003967285156
aa(lp6
S'state'
p7
aI0
aatp8
Rp9
.ccollections
OrderedDict
p0
((lp1
(lp2
S'timestamp'
p3
aF6.179372072219849
aa(lp4
S'distance'
p5
aF37.15003967285156
aa(lp6
S'state'
p7
aI0
aatp8
Rp9
.ccollections
OrderedDict
p0
((lp1
(lp2
S'timestamp'
p3
aF6.179553031921387
aa(lp4
S'distance'
p5
aF37.15003967285156
aa(lp6
S'state'
p7
aI0
aatp8
Rp9
.ccollections
OrderedDict
p0
((lp1
(lp2
S'timestamp'
p3
aF6.188561916351318
aa(lp4
S'distance'
p5
aF37.15003967285156
aa(lp6
S'state'
p7
aI0
aatp8
Rp9
.ccollections
OrderedDict
p0
((lp1
(lp2
S'timestamp'
p3
aF6.189954996109009
aa(lp4
S'distance'
p5
aF37.15003967285156
aa(lp6
S'state'
p7
aI0
aatp8
Rp9
.ccollections
OrderedDict
p0
((lp1
(lp2
S'timestamp'
p3
aF6.198143005371094
aa(lp4
S'distance'
p5
aF37.15003967285156
aa(lp6
S'state'
p7
aI0
aatp8
Rp9
.ccollections
OrderedDict
p0
((lp1
(lp2
S'timestamp'
p3
aF6.198808908462524
aa(lp4
S'distance'
p5
aF37.15003967285156
aa(lp6
S'state'
p7
aI0
aatp8
Rp9
.ccollections
OrderedDict
p0
((lp1
(lp2
S'timestamp'
p3
aF6.208285093307495
aa(lp4
S'distance'
p5
aF37.15003967285156
aa(lp6
S'state'
p7
aI0
aatp8
Rp9
.ccollections
OrderedDict
p0
((lp1
(lp2
S'timestamp'
p3
aF6.208727121353149
aa(lp4
S'distance'
p5
aF37.15003967285156
aa(lp6
S'state'
p7
aI0
aatp8
Rp9
.ccollections
OrderedDict
p0
((lp1
(lp2
S'timestamp'
p3
aF6.218271017074585
aa(lp4
S'distance'
p5
aF37.15003967285156
aa(lp6
S'state'
p7
aI0
aatp8
Rp9
.ccollections
OrderedDict
p0
((lp1
(lp2
S'timestamp'
p3
aF6.21868109703064
aa(lp4
S'distance'
p5
aF37.15003967285156
aa(lp6
S'state'
p7
aI0
aatp8
Rp9
.ccollections
OrderedDict
p0
((lp1
(lp2
S'timestamp'
p3
aF6.228292942047119
aa(lp4
S'distance'
p5
aF37.15003967285156
aa(lp6
S'state'
p7
aI0
aatp8
Rp9
.ccollections
OrderedDict
p0
((lp1
(lp2
S'timestamp'
p3
aF6.22865104675293
aa(lp4
S'distance'
p5
aF37.15003967285156
aa(lp6
S'state'
p7
aI0
aatp8
Rp9
.ccollections
OrderedDict
p0
((lp1
(lp2
S'timestamp'
p3
aF6.238309144973755
aa(lp4
S'distance'
p5
aF37.15003967285156
aa(lp6
S'state'
p7
aI0
aatp8
Rp9
.ccollections
OrderedDict
p0
((lp1
(lp2
S'timestamp'
p3
aF6.238626003265381
aa(lp4
S'distance'
p5
aF37.15003967285156
aa(lp6
S'state'
p7
aI0
aatp8
Rp9
.ccollections
OrderedDict
p0
((lp1
(lp2
S'timestamp'
p3
aF6.248286962509155
aa(lp4
S'distance'
p5
aF37.15003967285156
aa(lp6
S'state'
p7
aI0
aatp8
Rp9
.ccollections
OrderedDict
p0
((lp1
(lp2
S'timestamp'
p3
aF6.248613119125366
aa(lp4
S'distance'
p5
aF37.15003967285156
aa(lp6
S'state'
p7
aI0
aatp8
Rp9
.ccollections
OrderedDict
p0
((lp1
(lp2
S'timestamp'
p3
aF6.25827693939209
aa(lp4
S'distance'
p5
aF37.15003967285156
aa(lp6
S'state'
p7
aI0
aatp8
Rp9
.ccollections
OrderedDict
p0
((lp1
(lp2
S'timestamp'
p3
aF6.258650064468384
aa(lp4
S'distance'
p5
aF37.15003967285156
aa(lp6
S'state'
p7
aI0
aatp8
Rp9
.ccollections
OrderedDict
p0
((lp1
(lp2
S'timestamp'
p3
aF6.26839804649353
aa(lp4
S'distance'
p5
aF37.15003967285156
aa(lp6
S'state'
p7
aI0
aatp8
Rp9
.ccollections
OrderedDict
p0
((lp1
(lp2
S'timestamp'
p3
aF6.268531084060669
aa(lp4
S'distance'
p5
aF37.15003967285156
aa(lp6
S'state'
p7
aI0
aatp8
Rp9
.ccollections
OrderedDict
p0
((lp1
(lp2
S'timestamp'
p3
aF6.278264999389648
aa(lp4
S'distance'
p5
aF37.15003967285156
aa(lp6
S'state'
p7
aI0
aatp8
Rp9
.ccollections
OrderedDict
p0
((lp1
(lp2
S'timestamp'
p3
aF6.2785749435424805
aa(lp4
S'distance'
p5
aF37.15003967285156
aa(lp6
S'state'
p7
aI0
aatp8
Rp9
.ccollections
OrderedDict
p0
((lp1
(lp2
S'timestamp'
p3
aF6.288227081298828
aa(lp4
S'distance'
p5
aF37.15003967285156
aa(lp6
S'state'
p7
aI0
aatp8
Rp9
.ccollections
OrderedDict
p0
((lp1
(lp2
S'timestamp'
p3
aF6.288625955581665
aa(lp4
S'distance'
p5
aF37.15003967285156
aa(lp6
S'state'
p7
aI0
aatp8
Rp9
.ccollections
OrderedDict
p0
((lp1
(lp2
S'timestamp'
p3
aF6.297958135604858
aa(lp4
S'distance'
p5
aF37.15003967285156
aa(lp6
S'state'
p7
aI0
aatp8
Rp9
.ccollections
OrderedDict
p0
((lp1
(lp2
S'timestamp'
p3
aF6.298784971237183
aa(lp4
S'distance'
p5
aF37.15003967285156
aa(lp6
S'state'
p7
aI0
aatp8
Rp9
.ccollections
OrderedDict
p0
((lp1
(lp2
S'timestamp'
p3
aF6.308099985122681
aa(lp4
S'distance'
p5
aF37.15003967285156
aa(lp6
S'state'
p7
aI0
aatp8
Rp9
.ccollections
OrderedDict
p0
((lp1
(lp2
S'timestamp'
p3
aF6.308562994003296
aa(lp4
S'distance'
p5
aF37.15003967285156
aa(lp6
S'state'
p7
aI0
aatp8
Rp9
.ccollections
OrderedDict
p0
((lp1
(lp2
S'timestamp'
p3
aF6.318017959594727
aa(lp4
S'distance'
p5
aF37.15003967285156
aa(lp6
S'state'
p7
aI0
aatp8
Rp9
.ccollections
OrderedDict
p0
((lp1
(lp2
S'timestamp'
p3
aF6.318748950958252
aa(lp4
S'distance'
p5
aF37.15003967285156
aa(lp6
S'state'
p7
aI0
aatp8
Rp9
.ccollections
OrderedDict
p0
((lp1
(lp2
S'timestamp'
p3
aF6.3280229568481445
aa(lp4
S'distance'
p5
aF37.15003967285156
aa(lp6
S'state'
p7
aI0
aatp8
Rp9
.ccollections
OrderedDict
p0
((lp1
(lp2
S'timestamp'
p3
aF6.3286449909210205
aa(lp4
S'distance'
p5
aF37.15003967285156
aa(lp6
S'state'
p7
aI0
aatp8
Rp9
.ccollections
OrderedDict
p0
((lp1
(lp2
S'timestamp'
p3
aF6.338083028793335
aa(lp4
S'distance'
p5
aF37.15003967285156
aa(lp6
S'state'
p7
aI0
aatp8
Rp9
.ccollections
OrderedDict
p0
((lp1
(lp2
S'timestamp'
p3
aF6.338562965393066
aa(lp4
S'distance'
p5
aF37.15003967285156
aa(lp6
S'state'
p7
aI0
aatp8
Rp9
.ccollections
OrderedDict
p0
((lp1
(lp2
S'timestamp'
p3
aF6.348212957382202
aa(lp4
S'distance'
p5
aF37.15003967285156
aa(lp6
S'state'
p7
aI0
aatp8
Rp9
.ccollections
OrderedDict
p0
((lp1
(lp2
S'timestamp'
p3
aF6.348499059677124
aa(lp4
S'distance'
p5
aF37.15003967285156
aa(lp6
S'state'
p7
aI0
aatp8
Rp9
.ccollections
OrderedDict
p0
((lp1
(lp2
S'timestamp'
p3
aF6.358128070831299
aa(lp4
S'distance'
p5
aF37.15003967285156
aa(lp6
S'state'
p7
aI0
aatp8
Rp9
.ccollections
OrderedDict
p0
((lp1
(lp2
S'timestamp'
p3
aF6.35848593711853
aa(lp4
S'distance'
p5
aF37.15003967285156
aa(lp6
S'state'
p7
aI0
aatp8
Rp9
.ccollections
OrderedDict
p0
((lp1
(lp2
S'timestamp'
p3
aF6.368127107620239
aa(lp4
S'distance'
p5
aF37.15003967285156
aa(lp6
S'state'
p7
aI0
aatp8
Rp9
.ccollections
OrderedDict
p0
((lp1
(lp2
S'timestamp'
p3
aF6.36853814125061
aa(lp4
S'distance'
p5
aF37.15003967285156
aa(lp6
S'state'
p7
aI0
aatp8
Rp9
.ccollections
OrderedDict
p0
((lp1
(lp2
S'timestamp'
p3
aF6.378193140029907
aa(lp4
S'distance'
p5
aF37.15003967285156
aa(lp6
S'state'
p7
aI0
aatp8
Rp9
.ccollections
OrderedDict
p0
((lp1
(lp2
S'timestamp'
p3
aF6.378413915634155
aa(lp4
S'distance'
p5
aF37.15003967285156
aa(lp6
S'state'
p7
aI0
aatp8
Rp9
.ccollections
OrderedDict
p0
((lp1
(lp2
S'timestamp'
p3
aF6.388116121292114
aa(lp4
S'distance'
p5
aF37.15003967285156
aa(lp6
S'state'
p7
aI0
aatp8
Rp9
.ccollections
OrderedDict
p0
((lp1
(lp2
S'timestamp'
p3
aF6.388427972793579
aa(lp4
S'distance'
p5
aF37.15003967285156
aa(lp6
S'state'
p7
aI0
aatp8
Rp9
.ccollections
OrderedDict
p0
((lp1
(lp2
S'timestamp'
p3
aF6.398322105407715
aa(lp4
S'distance'
p5
aF37.15003967285156
aa(lp6
S'state'
p7
aI0
aatp8
Rp9
.ccollections
OrderedDict
p0
((lp1
(lp2
S'timestamp'
p3
aF6.398411989212036
aa(lp4
S'distance'
p5
aF37.15003967285156
aa(lp6
S'state'
p7
aI0
aatp8
Rp9
.ccollections
OrderedDict
p0
((lp1
(lp2
S'timestamp'
p3
aF6.4085869789123535
aa(lp4
S'distance'
p5
aF37.15003967285156
aa(lp6
S'state'
p7
aI0
aatp8
Rp9
.ccollections
OrderedDict
p0
((lp1
(lp2
S'timestamp'
p3
aF6.409104108810425
aa(lp4
S'distance'
p5
aF37.15003967285156
aa(lp6
S'state'
p7
aI0
aatp8
Rp9
.ccollections
OrderedDict
p0
((lp1
(lp2
S'timestamp'
p3
aF6.418283939361572
aa(lp4
S'distance'
p5
aF37.15003967285156
aa(lp6
S'state'
p7
aI0
aatp8
Rp9
.ccollections
OrderedDict
p0
((lp1
(lp2
S'timestamp'
p3
aF6.418472051620483
aa(lp4
S'distance'
p5
aF37.15003967285156
aa(lp6
S'state'
p7
aI0
aatp8
Rp9
.ccollections
OrderedDict
p0
((lp1
(lp2
S'timestamp'
p3
aF6.428225040435791
aa(lp4
S'distance'
p5
aF37.15003967285156
aa(lp6
S'state'
p7
aI0
aatp8
Rp9
.ccollections
OrderedDict
p0
((lp1
(lp2
S'timestamp'
p3
aF6.428439140319824
aa(lp4
S'distance'
p5
aF37.15003967285156
aa(lp6
S'state'
p7
aI0
aatp8
Rp9
.ccollections
OrderedDict
p0
((lp1
(lp2
S'timestamp'
p3
aF6.438177108764648
aa(lp4
S'distance'
p5
aF37.15003967285156
aa(lp6
S'state'
p7
aI0
aatp8
Rp9
.ccollections
OrderedDict
p0
((lp1
(lp2
S'timestamp'
p3
aF6.438416004180908
aa(lp4
S'distance'
p5
aF37.15003967285156
aa(lp6
S'state'
p7
aI0
aatp8
Rp9
.ccollections
OrderedDict
p0
((lp1
(lp2
S'timestamp'
p3
aF6.448169946670532
aa(lp4
S'distance'
p5
aF37.15003967285156
aa(lp6
S'state'
p7
aI0
aatp8
Rp9
.ccollections
OrderedDict
p0
((lp1
(lp2
S'timestamp'
p3
aF6.448318958282471
aa(lp4
S'distance'
p5
aF37.15003967285156
aa(lp6
S'state'
p7
aI0
aatp8
Rp9
.ccollections
OrderedDict
p0
((lp1
(lp2
S'timestamp'
p3
aF6.458162069320679
aa(lp4
S'distance'
p5
aF37.15003967285156
aa(lp6
S'state'
p7
aI0
aatp8
Rp9
.ccollections
OrderedDict
p0
((lp1
(lp2
S'timestamp'
p3
aF6.458369016647339
aa(lp4
S'distance'
p5
aF37.15003967285156
aa(lp6
S'state'
p7
aI0
aatp8
Rp9
.ccollections
OrderedDict
p0
((lp1
(lp2
S'timestamp'
p3
aF6.4678990840911865
aa(lp4
S'distance'
p5
aF37.15003967285156
aa(lp6
S'state'
p7
aI0
aatp8
Rp9
.ccollections
OrderedDict
p0
((lp1
(lp2
S'timestamp'
p3
aF6.468354940414429
aa(lp4
S'distance'
p5
aF37.15003967285156
aa(lp6
S'state'
p7
aI0
aatp8
Rp9
.ccollections
OrderedDict
p0
((lp1
(lp2
S'timestamp'
p3
aF6.4780919551849365
aa(lp4
S'distance'
p5
aF37.15003967285156
aa(lp6
S'state'
p7
aI0
aatp8
Rp9
.ccollections
OrderedDict
p0
((lp1
(lp2
S'timestamp'
p3
aF6.478377103805542
aa(lp4
S'distance'
p5
aF37.15003967285156
aa(lp6
S'state'
p7
aI0
aatp8
Rp9
.ccollections
OrderedDict
p0
((lp1
(lp2
S'timestamp'
p3
aF6.488136053085327
aa(lp4
S'distance'
p5
aF37.15003967285156
aa(lp6
S'state'
p7
aI0
aatp8
Rp9
.ccollections
OrderedDict
p0
((lp1
(lp2
S'timestamp'
p3
aF6.488290071487427
aa(lp4
S'distance'
p5
aF37.15003967285156
aa(lp6
S'state'
p7
aI0
aatp8
Rp9
.ccollections
OrderedDict
p0
((lp1
(lp2
S'timestamp'
p3
aF6.498106002807617
aa(lp4
S'distance'
p5
aF37.15003967285156
aa(lp6
S'state'
p7
aI0
aatp8
Rp9
.ccollections
OrderedDict
p0
((lp1
(lp2
S'timestamp'
p3
aF6.4983320236206055
aa(lp4
S'distance'
p5
aF37.15003967285156
aa(lp6
S'state'
p7
aI0
aatp8
Rp9
.ccollections
OrderedDict
p0
((lp1
(lp2
S'timestamp'
p3
aF6.508018970489502
aa(lp4
S'distance'
p5
aF37.15003967285156
aa(lp6
S'state'
p7
aI0
aatp8
Rp9
.ccollections
OrderedDict
p0
((lp1
(lp2
S'timestamp'
p3
aF6.508338928222656
aa(lp4
S'distance'
p5
aF37.15003967285156
aa(lp6
S'state'
p7
aI0
aatp8
Rp9
.ccollections
OrderedDict
p0
((lp1
(lp2
S'timestamp'
p3
aF6.518108129501343
aa(lp4
S'distance'
p5
aF37.15003967285156
aa(lp6
S'state'
p7
aI0
aatp8
Rp9
.ccollections
OrderedDict
p0
((lp1
(lp2
S'timestamp'
p3
aF6.518321990966797
aa(lp4
S'distance'
p5
aF37.15003967285156
aa(lp6
S'state'
p7
aI0
aatp8
Rp9
.ccollections
OrderedDict
p0
((lp1
(lp2
S'timestamp'
p3
aF6.527990102767944
aa(lp4
S'distance'
p5
aF37.15003967285156
aa(lp6
S'state'
p7
aI0
aatp8
Rp9
.ccollections
OrderedDict
p0
((lp1
(lp2
S'timestamp'
p3
aF6.52831506729126
aa(lp4
S'distance'
p5
aF37.15003967285156
aa(lp6
S'state'
p7
aI0
aatp8
Rp9
.ccollections
OrderedDict
p0
((lp1
(lp2
S'timestamp'
p3
aF6.538069009780884
aa(lp4
S'distance'
p5
aF37.15003967285156
aa(lp6
S'state'
p7
aI0
aatp8
Rp9
.ccollections
OrderedDict
p0
((lp1
(lp2
S'timestamp'
p3
aF6.538336992263794
aa(lp4
S'distance'
p5
aF37.15003967285156
aa(lp6
S'state'
p7
aI0
aatp8
Rp9
.ccollections
OrderedDict
p0
((lp1
(lp2
S'timestamp'
p3
aF6.54803204536438
aa(lp4
S'distance'
p5
aF37.15003967285156
aa(lp6
S'state'
p7
aI0
aatp8
Rp9
.ccollections
OrderedDict
p0
((lp1
(lp2
S'timestamp'
p3
aF6.548299074172974
aa(lp4
S'distance'
p5
aF37.15003967285156
aa(lp6
S'state'
p7
aI0
aatp8
Rp9
.ccollections
OrderedDict
p0
((lp1
(lp2
S'timestamp'
p3
aF6.558038949966431
aa(lp4
S'distance'
p5
aF37.15003967285156
aa(lp6
S'state'
p7
aI0
aatp8
Rp9
.ccollections
OrderedDict
p0
((lp1
(lp2
S'timestamp'
p3
aF6.558248043060303
aa(lp4
S'distance'
p5
aF37.15003967285156
aa(lp6
S'state'
p7
aI0
aatp8
Rp9
.ccollections
OrderedDict
p0
((lp1
(lp2
S'timestamp'
p3
aF6.568331003189087
aa(lp4
S'distance'
p5
aF37.15003967285156
aa(lp6
S'state'
p7
aI0
aatp8
Rp9
.ccollections
OrderedDict
p0
((lp1
(lp2
S'timestamp'
p3
aF6.5684709548950195
aa(lp4
S'distance'
p5
aF37.15003967285156
aa(lp6
S'state'
p7
aI0
aatp8
Rp9
.ccollections
OrderedDict
p0
((lp1
(lp2
S'timestamp'
p3
aF6.5782129764556885
aa(lp4
S'distance'
p5
aF37.15003967285156
aa(lp6
S'state'
p7
aI0
aatp8
Rp9
.ccollections
OrderedDict
p0
((lp1
(lp2
S'timestamp'
p3
aF6.578326940536499
aa(lp4
S'distance'
p5
aF37.15003967285156
aa(lp6
S'state'
p7
aI0
aatp8
Rp9
.ccollections
OrderedDict
p0
((lp1
(lp2
S'timestamp'
p3
aF6.588061094284058
aa(lp4
S'distance'
p5
aF37.15003967285156
aa(lp6
S'state'
p7
aI0
aatp8
Rp9
.ccollections
OrderedDict
p0
((lp1
(lp2
S'timestamp'
p3
aF6.588149070739746
aa(lp4
S'distance'
p5
aF37.15003967285156
aa(lp6
S'state'
p7
aI0
aatp8
Rp9
.ccollections
OrderedDict
p0
((lp1
(lp2
S'timestamp'
p3
aF6.598001956939697
aa(lp4
S'distance'
p5
aF37.15003967285156
aa(lp6
S'state'
p7
aI0
aatp8
Rp9
.ccollections
OrderedDict
p0
((lp1
(lp2
S'timestamp'
p3
aF6.598176956176758
aa(lp4
S'distance'
p5
aF37.15003967285156
aa(lp6
S'state'
p7
aI0
aatp8
Rp9
.ccollections
OrderedDict
p0
((lp1
(lp2
S'timestamp'
p3
aF6.6079630851745605
aa(lp4
S'distance'
p5
aF37.15003967285156
aa(lp6
S'state'
p7
aI0
aatp8
Rp9
.ccollections
OrderedDict
p0
((lp1
(lp2
S'timestamp'
p3
aF6.60819411277771
aa(lp4
S'distance'
p5
aF37.15003967285156
aa(lp6
S'state'
p7
aI0
aatp8
Rp9
.ccollections
OrderedDict
p0
((lp1
(lp2
S'timestamp'
p3
aF6.621930122375488
aa(lp4
S'distance'
p5
aF37.15003967285156
aa(lp6
S'state'
p7
aI0
aatp8
Rp9
.ccollections
OrderedDict
p0
((lp1
(lp2
S'timestamp'
p3
aF6.622281074523926
aa(lp4
S'distance'
p5
aF37.15003967285156
aa(lp6
S'state'
p7
aI0
aatp8
Rp9
.ccollections
OrderedDict
p0
((lp1
(lp2
S'timestamp'
p3
aF6.627856969833374
aa(lp4
S'distance'
p5
aF37.15003967285156
aa(lp6
S'state'
p7
aI0
aatp8
Rp9
.ccollections
OrderedDict
p0
((lp1
(lp2
S'timestamp'
p3
aF6.628296136856079
aa(lp4
S'distance'
p5
aF37.15003967285156
aa(lp6
S'state'
p7
aI0
aatp8
Rp9
.ccollections
OrderedDict
p0
((lp1
(lp2
S'timestamp'
p3
aF6.638221979141235
aa(lp4
S'distance'
p5
aF37.15003967285156
aa(lp6
S'state'
p7
aI0
aatp8
Rp9
.ccollections
OrderedDict
p0
((lp1
(lp2
S'timestamp'
p3
aF6.63837194442749
aa(lp4
S'distance'
p5
aF37.15003967285156
aa(lp6
S'state'
p7
aI0
aatp8
Rp9
.ccollections
OrderedDict
p0
((lp1
(lp2
S'timestamp'
p3
aF6.647939920425415
aa(lp4
S'distance'
p5
aF37.15003967285156
aa(lp6
S'state'
p7
aI0
aatp8
Rp9
.ccollections
OrderedDict
p0
((lp1
(lp2
S'timestamp'
p3
aF6.648077964782715
aa(lp4
S'distance'
p5
aF37.15003967285156
aa(lp6
S'state'
p7
aI0
aatp8
Rp9
.ccollections
OrderedDict
p0
((lp1
(lp2
S'timestamp'
p3
aF6.657979965209961
aa(lp4
S'distance'
p5
aF37.15003967285156
aa(lp6
S'state'
p7
aI0
aatp8
Rp9
.ccollections
OrderedDict
p0
((lp1
(lp2
S'timestamp'
p3
aF6.658070087432861
aa(lp4
S'distance'
p5
aF37.15003967285156
aa(lp6
S'state'
p7
aI0
aatp8
Rp9
.ccollections
OrderedDict
p0
((lp1
(lp2
S'timestamp'
p3
aF6.667937994003296
aa(lp4
S'distance'
p5
aF37.15003967285156
aa(lp6
S'state'
p7
aI0
aatp8
Rp9
.ccollections
OrderedDict
p0
((lp1
(lp2
S'timestamp'
p3
aF6.668070077896118
aa(lp4
S'distance'
p5
aF37.15003967285156
aa(lp6
S'state'
p7
aI0
aatp8
Rp9
.ccollections
OrderedDict
p0
((lp1
(lp2
S'timestamp'
p3
aF6.678189039230347
aa(lp4
S'distance'
p5
aF37.15003967285156
aa(lp6
S'state'
p7
aI0
aatp8
Rp9
.ccollections
OrderedDict
p0
((lp1
(lp2
S'timestamp'
p3
aF6.678275108337402
aa(lp4
S'distance'
p5
aF37.15003967285156
aa(lp6
S'state'
p7
aI0
aatp8
Rp9
.ccollections
OrderedDict
p0
((lp1
(lp2
S'timestamp'
p3
aF6.687778949737549
aa(lp4
S'distance'
p5
aF37.15003967285156
aa(lp6
S'state'
p7
aI0
aatp8
Rp9
.ccollections
OrderedDict
p0
((lp1
(lp2
S'timestamp'
p3
aF6.698076009750366
aa(lp4
S'distance'
p5
aF37.15003967285156
aa(lp6
S'state'
p7
aI0
aatp8
Rp9
.ccollections
OrderedDict
p0
((lp1
(lp2
S'timestamp'
p3
aF6.698894023895264
aa(lp4
S'distance'
p5
aF37.15003967285156
aa(lp6
S'state'
p7
aI0
aatp8
Rp9
.ccollections
OrderedDict
p0
((lp1
(lp2
S'timestamp'
p3
aF6.7008020877838135
aa(lp4
S'distance'
p5
aF37.15003967285156
aa(lp6
S'state'
p7
aI0
aatp8
Rp9
.ccollections
OrderedDict
p0
((lp1
(lp2
S'timestamp'
p3
aF6.707814931869507
aa(lp4
S'distance'
p5
aF37.15003967285156
aa(lp6
S'state'
p7
aI0
aatp8
Rp9
.ccollections
OrderedDict
p0
((lp1
(lp2
S'timestamp'
p3
aF6.708121061325073
aa(lp4
S'distance'
p5
aF37.15003967285156
aa(lp6
S'state'
p7
aI0
aatp8
Rp9
.ccollections
OrderedDict
p0
((lp1
(lp2
S'timestamp'
p3
aF6.717616081237793
aa(lp4
S'distance'
p5
aF37.15003967285156
aa(lp6
S'state'
p7
aI0
aatp8
Rp9
.ccollections
OrderedDict
p0
((lp1
(lp2
S'timestamp'
p3
aF6.718337059020996
aa(lp4
S'distance'
p5
aF37.15003967285156
aa(lp6
S'state'
p7
aI0
aatp8
Rp9
.ccollections
OrderedDict
p0
((lp1
(lp2
S'timestamp'
p3
aF6.727597951889038
aa(lp4
S'distance'
p5
aF37.15003967285156
aa(lp6
S'state'
p7
aI0
aatp8
Rp9
.ccollections
OrderedDict
p0
((lp1
(lp2
S'timestamp'
p3
aF6.728097915649414
aa(lp4
S'distance'
p5
aF37.15003967285156
aa(lp6
S'state'
p7
aI0
aatp8
Rp9
.ccollections
OrderedDict
p0
((lp1
(lp2
S'timestamp'
p3
aF6.737590074539185
aa(lp4
S'distance'
p5
aF37.15003967285156
aa(lp6
S'state'
p7
aI0
aatp8
Rp9
.ccollections
OrderedDict
p0
((lp1
(lp2
S'timestamp'
p3
aF6.738146066665649
aa(lp4
S'distance'
p5
aF37.15003967285156
aa(lp6
S'state'
p7
aI0
aatp8
Rp9
.ccollections
OrderedDict
p0
((lp1
(lp2
S'timestamp'
p3
aF6.747951030731201
aa(lp4
S'distance'
p5
aF37.15003967285156
aa(lp6
S'state'
p7
aI0
aatp8
Rp9
.ccollections
OrderedDict
p0
((lp1
(lp2
S'timestamp'
p3
aF6.748058080673218
aa(lp4
S'distance'
p5
aF37.15003967285156
aa(lp6
S'state'
p7
aI0
aatp8
Rp9
.ccollections
OrderedDict
p0
((lp1
(lp2
S'timestamp'
p3
aF6.7578511238098145
aa(lp4
S'distance'
p5
aF37.15003967285156
aa(lp6
S'state'
p7
aI0
aatp8
Rp9
.ccollections
OrderedDict
p0
((lp1
(lp2
S'timestamp'
p3
aF6.757986068725586
aa(lp4
S'distance'
p5
aF37.15003967285156
aa(lp6
S'state'
p7
aI0
aatp8
Rp9
.ccollections
OrderedDict
p0
((lp1
(lp2
S'timestamp'
p3
aF6.767627000808716
aa(lp4
S'distance'
p5
aF37.15003967285156
aa(lp6
S'state'
p7
aI0
aatp8
Rp9
.ccollections
OrderedDict
p0
((lp1
(lp2
S'timestamp'
p3
aF6.7787840366363525
aa(lp4
S'distance'
p5
aF37.15003967285156
aa(lp6
S'state'
p7
aI0
aatp8
Rp9
.ccollections
OrderedDict
p0
((lp1
(lp2
S'timestamp'
p3
aF6.7789671421051025
aa(lp4
S'distance'
p5
aF37.15003967285156
aa(lp6
S'state'
p7
aI0
aatp8
Rp9
.ccollections
OrderedDict
p0
((lp1
(lp2
S'timestamp'
p3
aF6.781430959701538
aa(lp4
S'distance'
p5
aF37.15003967285156
aa(lp6
S'state'
p7
aI0
aatp8
Rp9
.ccollections
OrderedDict
p0
((lp1
(lp2
S'timestamp'
p3
aF6.787915945053101
aa(lp4
S'distance'
p5
aF37.15003967285156
aa(lp6
S'state'
p7
aI0
aatp8
Rp9
.ccollections
OrderedDict
p0
((lp1
(lp2
S'timestamp'
p3
aF6.788007020950317
aa(lp4
S'distance'
p5
aF37.15003967285156
aa(lp6
S'state'
p7
aI0
aatp8
Rp9
.ccollections
OrderedDict
p0
((lp1
(lp2
S'timestamp'
p3
aF6.797945022583008
aa(lp4
S'distance'
p5
aF37.15003967285156
aa(lp6
S'state'
p7
aI0
aatp8
Rp9
.ccollections
OrderedDict
p0
((lp1
(lp2
S'timestamp'
p3
aF6.798192024230957
aa(lp4
S'distance'
p5
aF37.15003967285156
aa(lp6
S'state'
p7
aI0
aatp8
Rp9
.ccollections
OrderedDict
p0
((lp1
(lp2
S'timestamp'
p3
aF6.807667970657349
aa(lp4
S'distance'
p5
aF37.15003967285156
aa(lp6
S'state'
p7
aI0
aatp8
Rp9
.ccollections
OrderedDict
p0
((lp1
(lp2
S'timestamp'
p3
aF6.808021068572998
aa(lp4
S'distance'
p5
aF37.15003967285156
aa(lp6
S'state'
p7
aI0
aatp8
Rp9
.ccollections
OrderedDict
p0
((lp1
(lp2
S'timestamp'
p3
aF6.817522048950195
aa(lp4
S'distance'
p5
aF37.15003967285156
aa(lp6
S'state'
p7
aI0
aatp8
Rp9
.ccollections
OrderedDict
p0
((lp1
(lp2
S'timestamp'
p3
aF6.818206071853638
aa(lp4
S'distance'
p5
aF37.15003967285156
aa(lp6
S'state'
p7
aI0
aatp8
Rp9
.ccollections
OrderedDict
p0
((lp1
(lp2
S'timestamp'
p3
aF6.827484130859375
aa(lp4
S'distance'
p5
aF37.15003967285156
aa(lp6
S'state'
p7
aI0
aatp8
Rp9
.ccollections
OrderedDict
p0
((lp1
(lp2
S'timestamp'
p3
aF6.828071117401123
aa(lp4
S'distance'
p5
aF37.15003967285156
aa(lp6
S'state'
p7
aI0
aatp8
Rp9
.ccollections
OrderedDict
p0
((lp1
(lp2
S'timestamp'
p3
aF6.837557077407837
aa(lp4
S'distance'
p5
aF37.15003967285156
aa(lp6
S'state'
p7
aI0
aatp8
Rp9
.ccollections
OrderedDict
p0
((lp1
(lp2
S'timestamp'
p3
aF6.837959051132202
aa(lp4
S'distance'
p5
aF37.15003967285156
aa(lp6
S'state'
p7
aI0
aatp8
Rp9
.ccollections
OrderedDict
p0
((lp1
(lp2
S'timestamp'
p3
aF6.847630023956299
aa(lp4
S'distance'
p5
aF37.15003967285156
aa(lp6
S'state'
p7
aI0
aatp8
Rp9
.ccollections
OrderedDict
p0
((lp1
(lp2
S'timestamp'
p3
aF6.848022937774658
aa(lp4
S'distance'
p5
aF37.15003967285156
aa(lp6
S'state'
p7
aI0
aatp8
Rp9
.ccollections
OrderedDict
p0
((lp1
(lp2
S'timestamp'
p3
aF6.857759952545166
aa(lp4
S'distance'
p5
aF37.15003967285156
aa(lp6
S'state'
p7
aI0
aatp8
Rp9
.ccollections
OrderedDict
p0
((lp1
(lp2
S'timestamp'
p3
aF6.85788893699646
aa(lp4
S'distance'
p5
aF37.15003967285156
aa(lp6
S'state'
p7
aI0
aatp8
Rp9
.ccollections
OrderedDict
p0
((lp1
(lp2
S'timestamp'
p3
aF6.867769002914429
aa(lp4
S'distance'
p5
aF37.15003967285156
aa(lp6
S'state'
p7
aI0
aatp8
Rp9
.ccollections
OrderedDict
p0
((lp1
(lp2
S'timestamp'
p3
aF6.867898941040039
aa(lp4
S'distance'
p5
aF37.15003967285156
aa(lp6
S'state'
p7
aI0
aatp8
Rp9
.ccollections
OrderedDict
p0
((lp1
(lp2
S'timestamp'
p3
aF6.877565145492554
aa(lp4
S'distance'
p5
aF37.15003967285156
aa(lp6
S'state'
p7
aI0
aatp8
Rp9
.ccollections
OrderedDict
p0
((lp1
(lp2
S'timestamp'
p3
aF6.8780059814453125
aa(lp4
S'distance'
p5
aF37.15003967285156
aa(lp6
S'state'
p7
aI0
aatp8
Rp9
.ccollections
OrderedDict
p0
((lp1
(lp2
S'timestamp'
p3
aF6.887412071228027
aa(lp4
S'distance'
p5
aF37.15003967285156
aa(lp6
S'state'
p7
aI0
aatp8
Rp9
.ccollections
OrderedDict
p0
((lp1
(lp2
S'timestamp'
p3
aF6.8880181312561035
aa(lp4
S'distance'
p5
aF37.15003967285156
aa(lp6
S'state'
p7
aI0
aatp8
Rp9
.ccollections
OrderedDict
p0
((lp1
(lp2
S'timestamp'
p3
aF6.897305011749268
aa(lp4
S'distance'
p5
aF37.15003967285156
aa(lp6
S'state'
p7
aI0
aatp8
Rp9
.ccollections
OrderedDict
p0
((lp1
(lp2
S'timestamp'
p3
aF6.8978331089019775
aa(lp4
S'distance'
p5
aF37.15003967285156
aa(lp6
S'state'
p7
aI0
aatp8
Rp9
.ccollections
OrderedDict
p0
((lp1
(lp2
S'timestamp'
p3
aF6.907490968704224
aa(lp4
S'distance'
p5
aF37.15003967285156
aa(lp6
S'state'
p7
aI0
aatp8
Rp9
.ccollections
OrderedDict
p0
((lp1
(lp2
S'timestamp'
p3
aF6.90782904624939
aa(lp4
S'distance'
p5
aF37.15003967285156
aa(lp6
S'state'
p7
aI0
aatp8
Rp9
.ccollections
OrderedDict
p0
((lp1
(lp2
S'timestamp'
p3
aF6.917487144470215
aa(lp4
S'distance'
p5
aF37.15003967285156
aa(lp6
S'state'
p7
aI0
aatp8
Rp9
.ccollections
OrderedDict
p0
((lp1
(lp2
S'timestamp'
p3
aF6.917824029922485
aa(lp4
S'distance'
p5
aF37.15003967285156
aa(lp6
S'state'
p7
aI0
aatp8
Rp9
.ccollections
OrderedDict
p0
((lp1
(lp2
S'timestamp'
p3
aF6.927549123764038
aa(lp4
S'distance'
p5
aF37.15003967285156
aa(lp6
S'state'
p7
aI0
aatp8
Rp9
.ccollections
OrderedDict
p0
((lp1
(lp2
S'timestamp'
p3
aF6.927886009216309
aa(lp4
S'distance'
p5
aF37.15003967285156
aa(lp6
S'state'
p7
aI0
aatp8
Rp9
.ccollections
OrderedDict
p0
((lp1
(lp2
S'timestamp'
p3
aF6.938738107681274
aa(lp4
S'distance'
p5
aF37.15003967285156
aa(lp6
S'state'
p7
aI0
aatp8
Rp9
.ccollections
OrderedDict
p0
((lp1
(lp2
S'timestamp'
p3
aF6.939266920089722
aa(lp4
S'distance'
p5
aF37.15003967285156
aa(lp6
S'state'
p7
aI0
aatp8
Rp9
.ccollections
OrderedDict
p0
((lp1
(lp2
S'timestamp'
p3
aF6.94762110710144
aa(lp4
S'distance'
p5
aF37.15003967285156
aa(lp6
S'state'
p7
aI0
aatp8
Rp9
.ccollections
OrderedDict
p0
((lp1
(lp2
S'timestamp'
p3
aF6.947874069213867
aa(lp4
S'distance'
p5
aF37.15003967285156
aa(lp6
S'state'
p7
aI0
aatp8
Rp9
.ccollections
OrderedDict
p0
((lp1
(lp2
S'timestamp'
p3
aF6.95763897895813
aa(lp4
S'distance'
p5
aF37.15003967285156
aa(lp6
S'state'
p7
aI0
aatp8
Rp9
.ccollections
OrderedDict
p0
((lp1
(lp2
S'timestamp'
p3
aF6.957775115966797
aa(lp4
S'distance'
p5
aF37.15003967285156
aa(lp6
S'state'
p7
aI0
aatp8
Rp9
.ccollections
OrderedDict
p0
((lp1
(lp2
S'timestamp'
p3
aF6.967513084411621
aa(lp4
S'distance'
p5
aF37.15003967285156
aa(lp6
S'state'
p7
aI0
aatp8
Rp9
.ccollections
OrderedDict
p0
((lp1
(lp2
S'timestamp'
p3
aF6.967863082885742
aa(lp4
S'distance'
p5
aF37.15003967285156
aa(lp6
S'state'
p7
aI0
aatp8
Rp9
.ccollections
OrderedDict
p0
((lp1
(lp2
S'timestamp'
p3
aF6.977412939071655
aa(lp4
S'distance'
p5
aF37.15003967285156
aa(lp6
S'state'
p7
aI0
aatp8
Rp9
.ccollections
OrderedDict
p0
((lp1
(lp2
S'timestamp'
p3
aF6.977752923965454
aa(lp4
S'distance'
p5
aF37.15003967285156
aa(lp6
S'state'
p7
aI0
aatp8
Rp9
.ccollections
OrderedDict
p0
((lp1
(lp2
S'timestamp'
p3
aF6.98778510093689
aa(lp4
S'distance'
p5
aF37.15003967285156
aa(lp6
S'state'
p7
aI0
aatp8
Rp9
.ccollections
OrderedDict
p0
((lp1
(lp2
S'timestamp'
p3
aF6.987882137298584
aa(lp4
S'distance'
p5
aF37.15003967285156
aa(lp6
S'state'
p7
aI0
aatp8
Rp9
.ccollections
OrderedDict
p0
((lp1
(lp2
S'timestamp'
p3
aF6.9974730014801025
aa(lp4
S'distance'
p5
aF37.15003967285156
aa(lp6
S'state'
p7
aI0
aatp8
Rp9
.ccollections
OrderedDict
p0
((lp1
(lp2
S'timestamp'
p3
aF6.997867107391357
aa(lp4
S'distance'
p5
aF37.15003967285156
aa(lp6
S'state'
p7
aI0
aatp8
Rp9
.ccollections
OrderedDict
p0
((lp1
(lp2
S'timestamp'
p3
aF7.007307052612305
aa(lp4
S'distance'
p5
aF37.15003967285156
aa(lp6
S'state'
p7
aI0
aatp8
Rp9
.ccollections
OrderedDict
p0
((lp1
(lp2
S'timestamp'
p3
aF7.007762908935547
aa(lp4
S'distance'
p5
aF37.15003967285156
aa(lp6
S'state'
p7
aI0
aatp8
Rp9
.ccollections
OrderedDict
p0
((lp1
(lp2
S'timestamp'
p3
aF7.017521142959595
aa(lp4
S'distance'
p5
aF37.15003967285156
aa(lp6
S'state'
p7
aI0
aatp8
Rp9
.ccollections
OrderedDict
p0
((lp1
(lp2
S'timestamp'
p3
aF7.017719984054565
aa(lp4
S'distance'
p5
aF37.15003967285156
aa(lp6
S'state'
p7
aI0
aatp8
Rp9
.ccollections
OrderedDict
p0
((lp1
(lp2
S'timestamp'
p3
aF7.027529954910278
aa(lp4
S'distance'
p5
aF37.15003967285156
aa(lp6
S'state'
p7
aI0
aatp8
Rp9
.ccollections
OrderedDict
p0
((lp1
(lp2
S'timestamp'
p3
aF7.0278050899505615
aa(lp4
S'distance'
p5
aF37.15003967285156
aa(lp6
S'state'
p7
aI0
aatp8
Rp9
.ccollections
OrderedDict
p0
((lp1
(lp2
S'timestamp'
p3
aF7.037271022796631
aa(lp4
S'distance'
p5
aF37.15003967285156
aa(lp6
S'state'
p7
aI0
aatp8
Rp9
.ccollections
OrderedDict
p0
((lp1
(lp2
S'timestamp'
p3
aF7.0378289222717285
aa(lp4
S'distance'
p5
aF37.15003967285156
aa(lp6
S'state'
p7
aI0
aatp8
Rp9
.ccollections
OrderedDict
p0
((lp1
(lp2
S'timestamp'
p3
aF7.04731297492981
aa(lp4
S'distance'
p5
aF37.15003967285156
aa(lp6
S'state'
p7
aI0
aatp8
Rp9
.ccollections
OrderedDict
p0
((lp1
(lp2
S'timestamp'
p3
aF7.04776406288147
aa(lp4
S'distance'
p5
aF37.15003967285156
aa(lp6
S'state'
p7
aI0
aatp8
Rp9
.ccollections
OrderedDict
p0
((lp1
(lp2
S'timestamp'
p3
aF7.057322025299072
aa(lp4
S'distance'
p5
aF37.15003967285156
aa(lp6
S'state'
p7
aI0
aatp8
Rp9
.ccollections
OrderedDict
p0
((lp1
(lp2
S'timestamp'
p3
aF7.05795693397522
aa(lp4
S'distance'
p5
aF37.15003967285156
aa(lp6
S'state'
p7
aI0
aatp8
Rp9
.ccollections
OrderedDict
p0
((lp1
(lp2
S'timestamp'
p3
aF7.067502975463867
aa(lp4
S'distance'
p5
aF37.15003967285156
aa(lp6
S'state'
p7
aI0
aatp8
Rp9
.ccollections
OrderedDict
p0
((lp1
(lp2
S'timestamp'
p3
aF7.067811965942383
aa(lp4
S'distance'
p5
aF37.15003967285156
aa(lp6
S'state'
p7
aI0
aatp8
Rp9
.ccollections
OrderedDict
p0
((lp1
(lp2
S'timestamp'
p3
aF7.07779598236084
aa(lp4
S'distance'
p5
aF37.15003967285156
aa(lp6
S'state'
p7
aI0
aatp8
Rp9
.ccollections
OrderedDict
p0
((lp1
(lp2
S'timestamp'
p3
aF7.07787013053894
aa(lp4
S'distance'
p5
aF37.15003967285156
aa(lp6
S'state'
p7
aI0
aatp8
Rp9
.ccollections
OrderedDict
p0
((lp1
(lp2
S'timestamp'
p3
aF7.08733606338501
aa(lp4
S'distance'
p5
aF37.15003967285156
aa(lp6
S'state'
p7
aI0
aatp8
Rp9
.ccollections
OrderedDict
p0
((lp1
(lp2
S'timestamp'
p3
aF7.087841033935547
aa(lp4
S'distance'
p5
aF37.15003967285156
aa(lp6
S'state'
p7
aI0
aatp8
Rp9
.ccollections
OrderedDict
p0
((lp1
(lp2
S'timestamp'
p3
aF7.0973899364471436
aa(lp4
S'distance'
p5
aF37.15003967285156
aa(lp6
S'state'
p7
aI0
aatp8
Rp9
.ccollections
OrderedDict
p0
((lp1
(lp2
S'timestamp'
p3
aF7.097799062728882
aa(lp4
S'distance'
p5
aF37.15003967285156
aa(lp6
S'state'
p7
aI0
aatp8
Rp9
.ccollections
OrderedDict
p0
((lp1
(lp2
S'timestamp'
p3
aF7.107525110244751
aa(lp4
S'distance'
p5
aF37.15003967285156
aa(lp6
S'state'
p7
aI0
aatp8
Rp9
.ccollections
OrderedDict
p0
((lp1
(lp2
S'timestamp'
p3
aF7.1076531410217285
aa(lp4
S'distance'
p5
aF37.15003967285156
aa(lp6
S'state'
p7
aI0
aatp8
Rp9
.ccollections
OrderedDict
p0
((lp1
(lp2
S'timestamp'
p3
aF7.117514133453369
aa(lp4
S'distance'
p5
aF37.15003967285156
aa(lp6
S'state'
p7
aI0
aatp8
Rp9
.ccollections
OrderedDict
p0
((lp1
(lp2
S'timestamp'
p3
aF7.117670059204102
aa(lp4
S'distance'
p5
aF37.15003967285156
aa(lp6
S'state'
p7
aI0
aatp8
Rp9
.ccollections
OrderedDict
p0
((lp1
(lp2
S'timestamp'
p3
aF7.127464056015015
aa(lp4
S'distance'
p5
aF37.15003967285156
aa(lp6
S'state'
p7
aI0
aatp8
Rp9
.ccollections
OrderedDict
p0
((lp1
(lp2
S'timestamp'
p3
aF7.1277101039886475
aa(lp4
S'distance'
p5
aF37.15003967285156
aa(lp6
S'state'
p7
aI0
aatp8
Rp9
.ccollections
OrderedDict
p0
((lp1
(lp2
S'timestamp'
p3
aF7.1369829177856445
aa(lp4
S'distance'
p5
aF37.15003967285156
aa(lp6
S'state'
p7
aI0
aatp8
Rp9
.ccollections
OrderedDict
p0
((lp1
(lp2
S'timestamp'
p3
aF7.13770604133606
aa(lp4
S'distance'
p5
aF37.15003967285156
aa(lp6
S'state'
p7
aI0
aatp8
Rp9
.ccollections
OrderedDict
p0
((lp1
(lp2
S'timestamp'
p3
aF7.147547006607056
aa(lp4
S'distance'
p5
aF37.15003967285156
aa(lp6
S'state'
p7
aI0
aatp8
Rp9
.ccollections
OrderedDict
p0
((lp1
(lp2
S'timestamp'
p3
aF7.14762806892395
aa(lp4
S'distance'
p5
aF37.15003967285156
aa(lp6
S'state'
p7
aI0
aatp8
Rp9
.ccollections
OrderedDict
p0
((lp1
(lp2
S'timestamp'
p3
aF7.157305002212524
aa(lp4
S'distance'
p5
aF37.15003967285156
aa(lp6
S'state'
p7
aI0
aatp8
Rp9
.ccollections
OrderedDict
p0
((lp1
(lp2
S'timestamp'
p3
aF7.15770411491394
aa(lp4
S'distance'
p5
aF37.15003967285156
aa(lp6
S'state'
p7
aI0
aatp8
Rp9
.ccollections
OrderedDict
p0
((lp1
(lp2
S'timestamp'
p3
aF7.16729998588562
aa(lp4
S'distance'
p5
aF37.15003967285156
aa(lp6
S'state'
p7
aI0
aatp8
Rp9
.ccollections
OrderedDict
p0
((lp1
(lp2
S'timestamp'
p3
aF7.167604923248291
aa(lp4
S'distance'
p5
aF37.15003967285156
aa(lp6
S'state'
p7
aI0
aatp8
Rp9
.ccollections
OrderedDict
p0
((lp1
(lp2
S'timestamp'
p3
aF7.177288055419922
aa(lp4
S'distance'
p5
aF37.15003967285156
aa(lp6
S'state'
p7
aI0
aatp8
Rp9
.ccollections
OrderedDict
p0
((lp1
(lp2
S'timestamp'
p3
aF7.1776909828186035
aa(lp4
S'distance'
p5
aF37.15003967285156
aa(lp6
S'state'
p7
aI0
aatp8
Rp9
.ccollections
OrderedDict
p0
((lp1
(lp2
S'timestamp'
p3
aF7.1874449253082275
aa(lp4
S'distance'
p5
aF37.15003967285156
aa(lp6
S'state'
p7
aI0
aatp8
Rp9
.ccollections
OrderedDict
p0
((lp1
(lp2
S'timestamp'
p3
aF7.187572956085205
aa(lp4
S'distance'
p5
aF37.15003967285156
aa(lp6
S'state'
p7
aI0
aatp8
Rp9
.ccollections
OrderedDict
p0
((lp1
(lp2
S'timestamp'
p3
aF7.1974101066589355
aa(lp4
S'distance'
p5
aF37.15003967285156
aa(lp6
S'state'
p7
aI0
aatp8
Rp9
.ccollections
OrderedDict
p0
((lp1
(lp2
S'timestamp'
p3
aF7.197555065155029
aa(lp4
S'distance'
p5
aF37.15003967285156
aa(lp6
S'state'
p7
aI0
aatp8
Rp9
.ccollections
OrderedDict
p0
((lp1
(lp2
S'timestamp'
p3
aF7.207113027572632
aa(lp4
S'distance'
p5
aF37.15003967285156
aa(lp6
S'state'
p7
aI0
aatp8
Rp9
.ccollections
OrderedDict
p0
((lp1
(lp2
S'timestamp'
p3
aF7.2077720165252686
aa(lp4
S'distance'
p5
aF37.15003967285156
aa(lp6
S'state'
p7
aI0
aatp8
Rp9
.ccollections
OrderedDict
p0
((lp1
(lp2
S'timestamp'
p3
aF7.217219114303589
aa(lp4
S'distance'
p5
aF37.15003967285156
aa(lp6
S'state'
p7
aI0
aatp8
Rp9
.ccollections
OrderedDict
p0
((lp1
(lp2
S'timestamp'
p3
aF7.217571020126343
aa(lp4
S'distance'
p5
aF37.15003967285156
aa(lp6
S'state'
p7
aI0
aatp8
Rp9
.ccollections
OrderedDict
p0
((lp1
(lp2
S'timestamp'
p3
aF7.227427005767822
aa(lp4
S'distance'
p5
aF37.15003967285156
aa(lp6
S'state'
p7
aI0
aatp8
Rp9
.ccollections
OrderedDict
p0
((lp1
(lp2
S'timestamp'
p3
aF7.227560997009277
aa(lp4
S'distance'
p5
aF37.15003967285156
aa(lp6
S'state'
p7
aI0
aatp8
Rp9
.ccollections
OrderedDict
p0
((lp1
(lp2
S'timestamp'
p3
aF7.237196922302246
aa(lp4
S'distance'
p5
aF37.15003967285156
aa(lp6
S'state'
p7
aI0
aatp8
Rp9
.ccollections
OrderedDict
p0
((lp1
(lp2
S'timestamp'
p3
aF7.237549066543579
aa(lp4
S'distance'
p5
aF37.15003967285156
aa(lp6
S'state'
p7
aI0
aatp8
Rp9
.ccollections
OrderedDict
p0
((lp1
(lp2
S'timestamp'
p3
aF7.247067928314209
aa(lp4
S'distance'
p5
aF37.15003967285156
aa(lp6
S'state'
p7
aI0
aatp8
Rp9
.ccollections
OrderedDict
p0
((lp1
(lp2
S'timestamp'
p3
aF7.247812986373901
aa(lp4
S'distance'
p5
aF37.15003967285156
aa(lp6
S'state'
p7
aI0
aatp8
Rp9
.ccollections
OrderedDict
p0
((lp1
(lp2
S'timestamp'
p3
aF7.256961107254028
aa(lp4
S'distance'
p5
aF37.15003967285156
aa(lp6
S'state'
p7
aI0
aatp8
Rp9
.ccollections
OrderedDict
p0
((lp1
(lp2
S'timestamp'
p3
aF7.257601022720337
aa(lp4
S'distance'
p5
aF37.15003967285156
aa(lp6
S'state'
p7
aI0
aatp8
Rp9
.ccollections
OrderedDict
p0
((lp1
(lp2
S'timestamp'
p3
aF7.267159938812256
aa(lp4
S'distance'
p5
aF37.15003967285156
aa(lp6
S'state'
p7
aI0
aatp8
Rp9
.ccollections
OrderedDict
p0
((lp1
(lp2
S'timestamp'
p3
aF7.267580032348633
aa(lp4
S'distance'
p5
aF37.15003967285156
aa(lp6
S'state'
p7
aI0
aatp8
Rp9
.ccollections
OrderedDict
p0
((lp1
(lp2
S'timestamp'
p3
aF7.277209997177124
aa(lp4
S'distance'
p5
aF37.15003967285156
aa(lp6
S'state'
p7
aI0
aatp8
Rp9
.ccollections
OrderedDict
p0
((lp1
(lp2
S'timestamp'
p3
aF7.277575969696045
aa(lp4
S'distance'
p5
aF37.15003967285156
aa(lp6
S'state'
p7
aI0
aatp8
Rp9
.ccollections
OrderedDict
p0
((lp1
(lp2
S'timestamp'
p3
aF7.287106037139893
aa(lp4
S'distance'
p5
aF37.15003967285156
aa(lp6
S'state'
p7
aI0
aatp8
Rp9
.ccollections
OrderedDict
p0
((lp1
(lp2
S'timestamp'
p3
aF7.28751802444458
aa(lp4
S'distance'
p5
aF37.15003967285156
aa(lp6
S'state'
p7
aI0
aatp8
Rp9
.ccollections
OrderedDict
p0
((lp1
(lp2
S'timestamp'
p3
aF7.29714298248291
aa(lp4
S'distance'
p5
aF37.15003967285156
aa(lp6
S'state'
p7
aI0
aatp8
Rp9
.ccollections
OrderedDict
p0
((lp1
(lp2
S'timestamp'
p3
aF7.297583103179932
aa(lp4
S'distance'
p5
aF37.15003967285156
aa(lp6
S'state'
p7
aI0
aatp8
Rp9
.ccollections
OrderedDict
p0
((lp1
(lp2
S'timestamp'
p3
aF7.308053970336914
aa(lp4
S'distance'
p5
aF37.15003967285156
aa(lp6
S'state'
p7
aI0
aatp8
Rp9
.ccollections
OrderedDict
p0
((lp1
(lp2
S'timestamp'
p3
aF7.3086090087890625
aa(lp4
S'distance'
p5
aF37.15003967285156
aa(lp6
S'state'
p7
aI0
aatp8
Rp9
.ccollections
OrderedDict
p0
((lp1
(lp2
S'timestamp'
p3
aF7.3171000480651855
aa(lp4
S'distance'
p5
aF37.15003967285156
aa(lp6
S'state'
p7
aI0
aatp8
Rp9
.ccollections
OrderedDict
p0
((lp1
(lp2
S'timestamp'
p3
aF7.317521095275879
aa(lp4
S'distance'
p5
aF37.15003967285156
aa(lp6
S'state'
p7
aI0
aatp8
Rp9
.ccollections
OrderedDict
p0
((lp1
(lp2
S'timestamp'
p3
aF7.327095031738281
aa(lp4
S'distance'
p5
aF37.15003967285156
aa(lp6
S'state'
p7
aI0
aatp8
Rp9
.ccollections
OrderedDict
p0
((lp1
(lp2
S'timestamp'
p3
aF7.327600955963135
aa(lp4
S'distance'
p5
aF37.15003967285156
aa(lp6
S'state'
p7
aI0
aatp8
Rp9
.ccollections
OrderedDict
p0
((lp1
(lp2
S'timestamp'
p3
aF7.337100028991699
aa(lp4
S'distance'
p5
aF37.15003967285156
aa(lp6
S'state'
p7
aI0
aatp8
Rp9
.ccollections
OrderedDict
p0
((lp1
(lp2
S'timestamp'
p3
aF7.337561130523682
aa(lp4
S'distance'
p5
aF37.15003967285156
aa(lp6
S'state'
p7
aI0
aatp8
Rp9
.ccollections
OrderedDict
p0
((lp1
(lp2
S'timestamp'
p3
aF7.346998929977417
aa(lp4
S'distance'
p5
aF37.15003967285156
aa(lp6
S'state'
p7
aI0
aatp8
Rp9
.ccollections
OrderedDict
p0
((lp1
(lp2
S'timestamp'
p3
aF7.347904920578003
aa(lp4
S'distance'
p5
aF37.15003967285156
aa(lp6
S'state'
p7
aI0
aatp8
Rp9
.ccollections
OrderedDict
p0
((lp1
(lp2
S'timestamp'
p3
aF7.357056140899658
aa(lp4
S'distance'
p5
aF37.15003967285156
aa(lp6
S'state'
p7
aI0
aatp8
Rp9
.ccollections
OrderedDict
p0
((lp1
(lp2
S'timestamp'
p3
aF7.357563018798828
aa(lp4
S'distance'
p5
aF37.15003967285156
aa(lp6
S'state'
p7
aI0
aatp8
Rp9
.ccollections
OrderedDict
p0
((lp1
(lp2
S'timestamp'
p3
aF7.367078065872192
aa(lp4
S'distance'
p5
aF37.15003967285156
aa(lp6
S'state'
p7
aI0
aatp8
Rp9
.ccollections
OrderedDict
p0
((lp1
(lp2
S'timestamp'
p3
aF7.367537975311279
aa(lp4
S'distance'
p5
aF37.15003967285156
aa(lp6
S'state'
p7
aI0
aatp8
Rp9
.ccollections
OrderedDict
p0
((lp1
(lp2
S'timestamp'
p3
aF7.376946926116943
aa(lp4
S'distance'
p5
aF37.15003967285156
aa(lp6
S'state'
p7
aI0
aatp8
Rp9
.ccollections
OrderedDict
p0
((lp1
(lp2
S'timestamp'
p3
aF7.37789511680603
aa(lp4
S'distance'
p5
aF37.15003967285156
aa(lp6
S'state'
p7
aI0
aatp8
Rp9
.ccollections
OrderedDict
p0
((lp1
(lp2
S'timestamp'
p3
aF7.387115001678467
aa(lp4
S'distance'
p5
aF37.15003967285156
aa(lp6
S'state'
p7
aI0
aatp8
Rp9
.ccollections
OrderedDict
p0
((lp1
(lp2
S'timestamp'
p3
aF7.3874289989471436
aa(lp4
S'distance'
p5
aF37.15003967285156
aa(lp6
S'state'
p7
aI0
aatp8
Rp9
.ccollections
OrderedDict
p0
((lp1
(lp2
S'timestamp'
p3
aF7.397069931030273
aa(lp4
S'distance'
p5
aF37.15003967285156
aa(lp6
S'state'
p7
aI0
aatp8
Rp9
.ccollections
OrderedDict
p0
((lp1
(lp2
S'timestamp'
p3
aF7.397431135177612
aa(lp4
S'distance'
p5
aF37.15003967285156
aa(lp6
S'state'
p7
aI0
aatp8
Rp9
.ccollections
OrderedDict
p0
((lp1
(lp2
S'timestamp'
p3
aF7.407213926315308
aa(lp4
S'distance'
p5
aF37.15003967285156
aa(lp6
S'state'
p7
aI0
aatp8
Rp9
.ccollections
OrderedDict
p0
((lp1
(lp2
S'timestamp'
p3
aF7.407341003417969
aa(lp4
S'distance'
p5
aF37.15003967285156
aa(lp6
S'state'
p7
aI0
aatp8
Rp9
.ccollections
OrderedDict
p0
((lp1
(lp2
S'timestamp'
p3
aF7.416950941085815
aa(lp4
S'distance'
p5
aF37.15003967285156
aa(lp6
S'state'
p7
aI0
aatp8
Rp9
.ccollections
OrderedDict
p0
((lp1
(lp2
S'timestamp'
p3
aF7.417479991912842
aa(lp4
S'distance'
p5
aF37.15003967285156
aa(lp6
S'state'
p7
aI0
aatp8
Rp9
.ccollections
OrderedDict
p0
((lp1
(lp2
S'timestamp'
p3
aF7.427300930023193
aa(lp4
S'distance'
p5
aF37.15003967285156
aa(lp6
S'state'
p7
aI0
aatp8
Rp9
.ccollections
OrderedDict
p0
((lp1
(lp2
S'timestamp'
p3
aF7.42746901512146
aa(lp4
S'distance'
p5
aF37.15003967285156
aa(lp6
S'state'
p7
aI0
aatp8
Rp9
.ccollections
OrderedDict
p0
((lp1
(lp2
S'timestamp'
p3
aF7.4368579387664795
aa(lp4
S'distance'
p5
aF37.15003967285156
aa(lp6
S'state'
p7
aI0
aatp8
Rp9
.ccollections
OrderedDict
p0
((lp1
(lp2
S'timestamp'
p3
aF7.437557935714722
aa(lp4
S'distance'
p5
aF37.15003967285156
aa(lp6
S'state'
p7
aI0
aatp8
Rp9
.ccollections
OrderedDict
p0
((lp1
(lp2
S'timestamp'
p3
aF7.4470319747924805
aa(lp4
S'distance'
p5
aF37.15003967285156
aa(lp6
S'state'
p7
aI0
aatp8
Rp9
.ccollections
OrderedDict
p0
((lp1
(lp2
S'timestamp'
p3
aF7.447364091873169
aa(lp4
S'distance'
p5
aF37.15003967285156
aa(lp6
S'state'
p7
aI0
aatp8
Rp9
.ccollections
OrderedDict
p0
((lp1
(lp2
S'timestamp'
p3
aF7.457762002944946
aa(lp4
S'distance'
p5
aF37.15003967285156
aa(lp6
S'state'
p7
aI0
aatp8
Rp9
.ccollections
OrderedDict
p0
((lp1
(lp2
S'timestamp'
p3
aF7.457842111587524
aa(lp4
S'distance'
p5
aF37.15003967285156
aa(lp6
S'state'
p7
aI0
aatp8
Rp9
.ccollections
OrderedDict
p0
((lp1
(lp2
S'timestamp'
p3
aF7.466820001602173
aa(lp4
S'distance'
p5
aF37.15003967285156
aa(lp6
S'state'
p7
aI0
aatp8
Rp9
.ccollections
OrderedDict
p0
((lp1
(lp2
S'timestamp'
p3
aF7.467559099197388
aa(lp4
S'distance'
p5
aF37.15003967285156
aa(lp6
S'state'
p7
aI0
aatp8
Rp9
.ccollections
OrderedDict
p0
((lp1
(lp2
S'timestamp'
p3
aF7.47687292098999
aa(lp4
S'distance'
p5
aF37.15003967285156
aa(lp6
S'state'
p7
aI0
aatp8
Rp9
.ccollections
OrderedDict
p0
((lp1
(lp2
S'timestamp'
p3
aF7.477320909500122
aa(lp4
S'distance'
p5
aF37.15003967285156
aa(lp6
S'state'
p7
aI0
aatp8
Rp9
.ccollections
OrderedDict
p0
((lp1
(lp2
S'timestamp'
p3
aF7.487122058868408
aa(lp4
S'distance'
p5
aF37.15003967285156
aa(lp6
S'state'
p7
aI0
aatp8
Rp9
.ccollections
OrderedDict
p0
((lp1
(lp2
S'timestamp'
p3
aF7.487262010574341
aa(lp4
S'distance'
p5
aF37.15003967285156
aa(lp6
S'state'
p7
aI0
aatp8
Rp9
.ccollections
OrderedDict
p0
((lp1
(lp2
S'timestamp'
p3
aF7.497491121292114
aa(lp4
S'distance'
p5
aF37.15003967285156
aa(lp6
S'state'
p7
aI0
aatp8
Rp9
.ccollections
OrderedDict
p0
((lp1
(lp2
S'timestamp'
p3
aF7.497631072998047
aa(lp4
S'distance'
p5
aF37.15003967285156
aa(lp6
S'state'
p7
aI0
aatp8
Rp9
.ccollections
OrderedDict
p0
((lp1
(lp2
S'timestamp'
p3
aF7.506959915161133
aa(lp4
S'distance'
p5
aF37.15003967285156
aa(lp6
S'state'
p7
aI0
aatp8
Rp9
.ccollections
OrderedDict
p0
((lp1
(lp2
S'timestamp'
p3
aF7.507383108139038
aa(lp4
S'distance'
p5
aF37.15003967285156
aa(lp6
S'state'
p7
aI0
aatp8
Rp9
.ccollections
OrderedDict
p0
((lp1
(lp2
S'timestamp'
p3
aF7.516973972320557
aa(lp4
S'distance'
p5
aF37.15003967285156
aa(lp6
S'state'
p7
aI0
aatp8
Rp9
.ccollections
OrderedDict
p0
((lp1
(lp2
S'timestamp'
p3
aF7.517286062240601
aa(lp4
S'distance'
p5
aF37.15003967285156
aa(lp6
S'state'
p7
aI0
aatp8
Rp9
.ccollections
OrderedDict
p0
((lp1
(lp2
S'timestamp'
p3
aF7.536848068237305
aa(lp4
S'distance'
p5
aF37.15003967285156
aa(lp6
S'state'
p7
aI0
aatp8
Rp9
.ccollections
OrderedDict
p0
((lp1
(lp2
S'timestamp'
p3
aF7.5372560024261475
aa(lp4
S'distance'
p5
aF37.15003967285156
aa(lp6
S'state'
p7
aI0
aatp8
Rp9
.ccollections
OrderedDict
p0
((lp1
(lp2
S'timestamp'
p3
aF7.5384910106658936
aa(lp4
S'distance'
p5
aF37.15003967285156
aa(lp6
S'state'
p7
aI0
aatp8
Rp9
.ccollections
OrderedDict
p0
((lp1
(lp2
S'timestamp'
p3
aF7.539853096008301
aa(lp4
S'distance'
p5
aF37.15003967285156
aa(lp6
S'state'
p7
aI0
aatp8
Rp9
.ccollections
OrderedDict
p0
((lp1
(lp2
S'timestamp'
p3
aF7.54731297492981
aa(lp4
S'distance'
p5
aF37.15003967285156
aa(lp6
S'state'
p7
aI0
aatp8
Rp9
.ccollections
OrderedDict
p0
((lp1
(lp2
S'timestamp'
p3
aF7.548156023025513
aa(lp4
S'distance'
p5
aF37.15003967285156
aa(lp6
S'state'
p7
aI0
aatp8
Rp9
.ccollections
OrderedDict
p0
((lp1
(lp2
S'timestamp'
p3
aF7.557153940200806
aa(lp4
S'distance'
p5
aF37.15003967285156
aa(lp6
S'state'
p7
aI0
aatp8
Rp9
.ccollections
OrderedDict
p0
((lp1
(lp2
S'timestamp'
p3
aF7.557241916656494
aa(lp4
S'distance'
p5
aF37.15003967285156
aa(lp6
S'state'
p7
aI0
aatp8
Rp9
.ccollections
OrderedDict
p0
((lp1
(lp2
S'timestamp'
p3
aF7.567049026489258
aa(lp4
S'distance'
p5
aF37.15003967285156
aa(lp6
S'state'
p7
aI0
aatp8
Rp9
.ccollections
OrderedDict
p0
((lp1
(lp2
S'timestamp'
p3
aF7.567265033721924
aa(lp4
S'distance'
p5
aF37.15003967285156
aa(lp6
S'state'
p7
aI0
aatp8
Rp9
.ccollections
OrderedDict
p0
((lp1
(lp2
S'timestamp'
p3
aF7.576682090759277
aa(lp4
S'distance'
p5
aF37.15003967285156
aa(lp6
S'state'
p7
aI0
aatp8
Rp9
.ccollections
OrderedDict
p0
((lp1
(lp2
S'timestamp'
p3
aF7.577304124832153
aa(lp4
S'distance'
p5
aF37.15003967285156
aa(lp6
S'state'
p7
aI0
aatp8
Rp9
.ccollections
OrderedDict
p0
((lp1
(lp2
S'timestamp'
p3
aF7.586894989013672
aa(lp4
S'distance'
p5
aF37.15003967285156
aa(lp6
S'state'
p7
aI0
aatp8
Rp9
.ccollections
OrderedDict
p0
((lp1
(lp2
S'timestamp'
p3
aF7.587188959121704
aa(lp4
S'distance'
p5
aF37.15003967285156
aa(lp6
S'state'
p7
aI0
aatp8
Rp9
.ccollections
OrderedDict
p0
((lp1
(lp2
S'timestamp'
p3
aF7.5968310832977295
aa(lp4
S'distance'
p5
aF37.15003967285156
aa(lp6
S'state'
p7
aI0
aatp8
Rp9
.ccollections
OrderedDict
p0
((lp1
(lp2
S'timestamp'
p3
aF7.597404956817627
aa(lp4
S'distance'
p5
aF37.15003967285156
aa(lp6
S'state'
p7
aI0
aatp8
Rp9
.ccollections
OrderedDict
p0
((lp1
(lp2
S'timestamp'
p3
aF7.6069300174713135
aa(lp4
S'distance'
p5
aF37.15003967285156
aa(lp6
S'state'
p7
aI0
aatp8
Rp9
.ccollections
OrderedDict
p0
((lp1
(lp2
S'timestamp'
p3
aF7.607149124145508
aa(lp4
S'distance'
p5
aF37.15003967285156
aa(lp6
S'state'
p7
aI0
aatp8
Rp9
.ccollections
OrderedDict
p0
((lp1
(lp2
S'timestamp'
p3
aF7.616883039474487
aa(lp4
S'distance'
p5
aF37.15003967285156
aa(lp6
S'state'
p7
aI0
aatp8
Rp9
.ccollections
OrderedDict
p0
((lp1
(lp2
S'timestamp'
p3
aF7.617170095443726
aa(lp4
S'distance'
p5
aF37.15003967285156
aa(lp6
S'state'
p7
aI0
aatp8
Rp9
.ccollections
OrderedDict
p0
((lp1
(lp2
S'timestamp'
p3
aF7.626852989196777
aa(lp4
S'distance'
p5
aF37.15003967285156
aa(lp6
S'state'
p7
aI0
aatp8
Rp9
.ccollections
OrderedDict
p0
((lp1
(lp2
S'timestamp'
p3
aF7.627435922622681
aa(lp4
S'distance'
p5
aF37.15003967285156
aa(lp6
S'state'
p7
aI0
aatp8
Rp9
.ccollections
OrderedDict
p0
((lp1
(lp2
S'timestamp'
p3
aF7.637440919876099
aa(lp4
S'distance'
p5
aF37.15003967285156
aa(lp6
S'state'
p7
aI0
aatp8
Rp9
.ccollections
OrderedDict
p0
((lp1
(lp2
S'timestamp'
p3
aF7.638118028640747
aa(lp4
S'distance'
p5
aF37.15003967285156
aa(lp6
S'state'
p7
aI0
aatp8
Rp9
.ccollections
OrderedDict
p0
((lp1
(lp2
S'timestamp'
p3
aF7.647300958633423
aa(lp4
S'distance'
p5
aF37.15003967285156
aa(lp6
S'state'
p7
aI0
aatp8
Rp9
.ccollections
OrderedDict
p0
((lp1
(lp2
S'timestamp'
p3
aF7.647426128387451
aa(lp4
S'distance'
p5
aF37.15003967285156
aa(lp6
S'state'
p7
aI0
aatp8
Rp9
.ccollections
OrderedDict
p0
((lp1
(lp2
S'timestamp'
p3
aF7.657335996627808
aa(lp4
S'distance'
p5
aF37.15003967285156
aa(lp6
S'state'
p7
aI0
aatp8
Rp9
.ccollections
OrderedDict
p0
((lp1
(lp2
S'timestamp'
p3
aF7.657933950424194
aa(lp4
S'distance'
p5
aF37.15003967285156
aa(lp6
S'state'
p7
aI0
aatp8
Rp9
.ccollections
OrderedDict
p0
((lp1
(lp2
S'timestamp'
p3
aF7.667096138000488
aa(lp4
S'distance'
p5
aF37.15003967285156
aa(lp6
S'state'
p7
aI0
aatp8
Rp9
.ccollections
OrderedDict
p0
((lp1
(lp2
S'timestamp'
p3
aF7.667453050613403
aa(lp4
S'distance'
p5
aF37.15003967285156
aa(lp6
S'state'
p7
aI0
aatp8
Rp9
.ccollections
OrderedDict
p0
((lp1
(lp2
S'timestamp'
p3
aF7.67687201499939
aa(lp4
S'distance'
p5
aF37.15003967285156
aa(lp6
S'state'
p7
aI0
aatp8
Rp9
.ccollections
OrderedDict
p0
((lp1
(lp2
S'timestamp'
p3
aF7.677359104156494
aa(lp4
S'distance'
p5
aF37.15003967285156
aa(lp6
S'state'
p7
aI0
aatp8
Rp9
.ccollections
OrderedDict
p0
((lp1
(lp2
S'timestamp'
p3
aF7.68658709526062
aa(lp4
S'distance'
p5
aF37.15003967285156
aa(lp6
S'state'
p7
aI0
aatp8
Rp9
.ccollections
OrderedDict
p0
((lp1
(lp2
S'timestamp'
p3
aF7.6873180866241455
aa(lp4
S'distance'
p5
aF37.15003967285156
aa(lp6
S'state'
p7
aI0
aatp8
Rp9
.ccollections
OrderedDict
p0
((lp1
(lp2
S'timestamp'
p3
aF7.6967620849609375
aa(lp4
S'distance'
p5
aF37.15003967285156
aa(lp6
S'state'
p7
aI0
aatp8
Rp9
.ccollections
OrderedDict
p0
((lp1
(lp2
S'timestamp'
p3
aF7.697243928909302
aa(lp4
S'distance'
p5
aF37.15003967285156
aa(lp6
S'state'
p7
aI0
aatp8
Rp9
.ccollections
OrderedDict
p0
((lp1
(lp2
S'timestamp'
p3
aF7.706913948059082
aa(lp4
S'distance'
p5
aF37.15003967285156
aa(lp6
S'state'
p7
aI0
aatp8
Rp9
.ccollections
OrderedDict
p0
((lp1
(lp2
S'timestamp'
p3
aF7.707449913024902
aa(lp4
S'distance'
p5
aF37.15003967285156
aa(lp6
S'state'
p7
aI0
aatp8
Rp9
.ccollections
OrderedDict
p0
((lp1
(lp2
S'timestamp'
p3
aF7.716681003570557
aa(lp4
S'distance'
p5
aF37.15003967285156
aa(lp6
S'state'
p7
aI0
aatp8
Rp9
.ccollections
OrderedDict
p0
((lp1
(lp2
S'timestamp'
p3
aF7.717734098434448
aa(lp4
S'distance'
p5
aF37.15003967285156
aa(lp6
S'state'
p7
aI0
aatp8
Rp9
.ccollections
OrderedDict
p0
((lp1
(lp2
S'timestamp'
p3
aF7.726835012435913
aa(lp4
S'distance'
p5
aF37.15003967285156
aa(lp6
S'state'
p7
aI0
aatp8
Rp9
.ccollections
OrderedDict
p0
((lp1
(lp2
S'timestamp'
p3
aF7.727211952209473
aa(lp4
S'distance'
p5
aF37.15003967285156
aa(lp6
S'state'
p7
aI0
aatp8
Rp9
.ccollections
OrderedDict
p0
((lp1
(lp2
S'timestamp'
p3
aF7.736799955368042
aa(lp4
S'distance'
p5
aF37.15003967285156
aa(lp6
S'state'
p7
aI0
aatp8
Rp9
.ccollections
OrderedDict
p0
((lp1
(lp2
S'timestamp'
p3
aF7.737160921096802
aa(lp4
S'distance'
p5
aF37.15003967285156
aa(lp6
S'state'
p7
aI0
aatp8
Rp9
.ccollections
OrderedDict
p0
((lp1
(lp2
S'timestamp'
p3
aF7.7468791007995605
aa(lp4
S'distance'
p5
aF37.15003967285156
aa(lp6
S'state'
p7
aI0
aatp8
Rp9
.ccollections
OrderedDict
p0
((lp1
(lp2
S'timestamp'
p3
aF7.747246026992798
aa(lp4
S'distance'
p5
aF37.15003967285156
aa(lp6
S'state'
p7
aI0
aatp8
Rp9
.ccollections
OrderedDict
p0
((lp1
(lp2
S'timestamp'
p3
aF7.75687313079834
aa(lp4
S'distance'
p5
aF37.15003967285156
aa(lp6
S'state'
p7
aI0
aatp8
Rp9
.ccollections
OrderedDict
p0
((lp1
(lp2
S'timestamp'
p3
aF7.7569990158081055
aa(lp4
S'distance'
p5
aF37.15003967285156
aa(lp6
S'state'
p7
aI0
aatp8
Rp9
.ccollections
OrderedDict
p0
((lp1
(lp2
S'timestamp'
p3
aF7.7670159339904785
aa(lp4
S'distance'
p5
aF37.15003967285156
aa(lp6
S'state'
p7
aI0
aatp8
Rp9
.ccollections
OrderedDict
p0
((lp1
(lp2
S'timestamp'
p3
aF7.767164945602417
aa(lp4
S'distance'
p5
aF37.15003967285156
aa(lp6
S'state'
p7
aI0
aatp8
Rp9
.ccollections
OrderedDict
p0
((lp1
(lp2
S'timestamp'
p3
aF7.776790142059326
aa(lp4
S'distance'
p5
aF37.15003967285156
aa(lp6
S'state'
p7
aI0
aatp8
Rp9
.ccollections
OrderedDict
p0
((lp1
(lp2
S'timestamp'
p3
aF7.777404069900513
aa(lp4
S'distance'
p5
aF37.15003967285156
aa(lp6
S'state'
p7
aI0
aatp8
Rp9
.ccollections
OrderedDict
p0
((lp1
(lp2
S'timestamp'
p3
aF7.786798000335693
aa(lp4
S'distance'
p5
aF37.15003967285156
aa(lp6
S'state'
p7
aI0
aatp8
Rp9
.ccollections
OrderedDict
p0
((lp1
(lp2
S'timestamp'
p3
aF7.787454128265381
aa(lp4
S'distance'
p5
aF37.15003967285156
aa(lp6
S'state'
p7
aI0
aatp8
Rp9
.ccollections
OrderedDict
p0
((lp1
(lp2
S'timestamp'
p3
aF7.796807050704956
aa(lp4
S'distance'
p5
aF37.15003967285156
aa(lp6
S'state'
p7
aI0
aatp8
Rp9
.ccollections
OrderedDict
p0
((lp1
(lp2
S'timestamp'
p3
aF7.797346115112305
aa(lp4
S'distance'
p5
aF37.15003967285156
aa(lp6
S'state'
p7
aI0
aatp8
Rp9
.ccollections
OrderedDict
p0
((lp1
(lp2
S'timestamp'
p3
aF7.806571006774902
aa(lp4
S'distance'
p5
aF37.15003967285156
aa(lp6
S'state'
p7
aI0
aatp8
Rp9
.ccollections
OrderedDict
p0
((lp1
(lp2
S'timestamp'
p3
aF7.8071229457855225
aa(lp4
S'distance'
p5
aF37.15003967285156
aa(lp6
S'state'
p7
aI0
aatp8
Rp9
.ccollections
OrderedDict
p0
((lp1
(lp2
S'timestamp'
p3
aF7.8189849853515625
aa(lp4
S'distance'
p5
aF37.15003967285156
aa(lp6
S'state'
p7
aI0
aatp8
Rp9
.ccollections
OrderedDict
p0
((lp1
(lp2
S'timestamp'
p3
aF7.819164037704468
aa(lp4
S'distance'
p5
aF37.15003967285156
aa(lp6
S'state'
p7
aI0
aatp8
Rp9
.ccollections
OrderedDict
p0
((lp1
(lp2
S'timestamp'
p3
aF7.827023029327393
aa(lp4
S'distance'
p5
aF37.15003967285156
aa(lp6
S'state'
p7
aI0
aatp8
Rp9
.ccollections
OrderedDict
p0
((lp1
(lp2
S'timestamp'
p3
aF7.827290058135986
aa(lp4
S'distance'
p5
aF37.15003967285156
aa(lp6
S'state'
p7
aI0
aatp8
Rp9
.ccollections
OrderedDict
p0
((lp1
(lp2
S'timestamp'
p3
aF7.836997032165527
aa(lp4
S'distance'
p5
aF37.15003967285156
aa(lp6
S'state'
p7
aI0
aatp8
Rp9
.ccollections
OrderedDict
p0
((lp1
(lp2
S'timestamp'
p3
aF7.846889019012451
aa(lp4
S'distance'
p5
aF37.15003967285156
aa(lp6
S'state'
p7
aI0
aatp8
Rp9
.ccollections
OrderedDict
p0
((lp1
(lp2
S'timestamp'
p3
aF7.846987962722778
aa(lp4
S'distance'
p5
aF37.15003967285156
aa(lp6
S'state'
p7
aI0
aatp8
Rp9
.ccollections
OrderedDict
p0
((lp1
(lp2
S'timestamp'
p3
aF7.848006010055542
aa(lp4
S'distance'
p5
aF37.15003967285156
aa(lp6
S'state'
p7
aI0
aatp8
Rp9
.ccollections
OrderedDict
p0
((lp1
(lp2
S'timestamp'
p3
aF7.8570520877838135
aa(lp4
S'distance'
p5
aF37.15003967285156
aa(lp6
S'state'
p7
aI0
aatp8
Rp9
.ccollections
OrderedDict
p0
((lp1
(lp2
S'timestamp'
p3
aF7.857131004333496
aa(lp4
S'distance'
p5
aF37.15003967285156
aa(lp6
S'state'
p7
aI0
aatp8
Rp9
.ccollections
OrderedDict
p0
((lp1
(lp2
S'timestamp'
p3
aF7.866565942764282
aa(lp4
S'distance'
p5
aF37.15003967285156
aa(lp6
S'state'
p7
aI0
aatp8
Rp9
.ccollections
OrderedDict
p0
((lp1
(lp2
S'timestamp'
p3
aF7.867125988006592
aa(lp4
S'distance'
p5
aF37.15003967285156
aa(lp6
S'state'
p7
aI0
aatp8
Rp9
.ccollections
OrderedDict
p0
((lp1
(lp2
S'timestamp'
p3
aF7.876809120178223
aa(lp4
S'distance'
p5
aF37.15003967285156
aa(lp6
S'state'
p7
aI0
aatp8
Rp9
.ccollections
OrderedDict
p0
((lp1
(lp2
S'timestamp'
p3
aF7.876927137374878
aa(lp4
S'distance'
p5
aF37.15003967285156
aa(lp6
S'state'
p7
aI0
aatp8
Rp9
.ccollections
OrderedDict
p0
((lp1
(lp2
S'timestamp'
p3
aF7.886735916137695
aa(lp4
S'distance'
p5
aF37.15003967285156
aa(lp6
S'state'
p7
aI0
aatp8
Rp9
.ccollections
OrderedDict
p0
((lp1
(lp2
S'timestamp'
p3
aF7.8869969844818115
aa(lp4
S'distance'
p5
aF37.15003967285156
aa(lp6
S'state'
p7
aI0
aatp8
Rp9
.ccollections
OrderedDict
p0
((lp1
(lp2
S'timestamp'
p3
aF7.896749973297119
aa(lp4
S'distance'
p5
aF37.15003967285156
aa(lp6
S'state'
p7
aI0
aatp8
Rp9
.ccollections
OrderedDict
p0
((lp1
(lp2
S'timestamp'
p3
aF7.8974480628967285
aa(lp4
S'distance'
p5
aF37.15003967285156
aa(lp6
S'state'
p7
aI0
aatp8
Rp9
.ccollections
OrderedDict
p0
((lp1
(lp2
S'timestamp'
p3
aF7.906649112701416
aa(lp4
S'distance'
p5
aF37.15003967285156
aa(lp6
S'state'
p7
aI0
aatp8
Rp9
.ccollections
OrderedDict
p0
((lp1
(lp2
S'timestamp'
p3
aF7.9070539474487305
aa(lp4
S'distance'
p5
aF37.15003967285156
aa(lp6
S'state'
p7
aI0
aatp8
Rp9
.ccollections
OrderedDict
p0
((lp1
(lp2
S'timestamp'
p3
aF7.916926145553589
aa(lp4
S'distance'
p5
aF37.15003967285156
aa(lp6
S'state'
p7
aI0
aatp8
Rp9
.ccollections
OrderedDict
p0
((lp1
(lp2
S'timestamp'
p3
aF7.917132139205933
aa(lp4
S'distance'
p5
aF37.15003967285156
aa(lp6
S'state'
p7
aI0
aatp8
Rp9
.ccollections
OrderedDict
p0
((lp1
(lp2
S'timestamp'
p3
aF7.926693916320801
aa(lp4
S'distance'
p5
aF37.15003967285156
aa(lp6
S'state'
p7
aI0
aatp8
Rp9
.ccollections
OrderedDict
p0
((lp1
(lp2
S'timestamp'
p3
aF7.927077054977417
aa(lp4
S'distance'
p5
aF37.15003967285156
aa(lp6
S'state'
p7
aI0
aatp8
Rp9
.ccollections
OrderedDict
p0
((lp1
(lp2
S'timestamp'
p3
aF7.937068939208984
aa(lp4
S'distance'
p5
aF37.15003967285156
aa(lp6
S'state'
p7
aI0
aatp8
Rp9
.ccollections
OrderedDict
p0
((lp1
(lp2
S'timestamp'
p3
aF7.937161922454834
aa(lp4
S'distance'
p5
aF37.15003967285156
aa(lp6
S'state'
p7
aI0
aatp8
Rp9
.ccollections
OrderedDict
p0
((lp1
(lp2
S'timestamp'
p3
aF7.946897029876709
aa(lp4
S'distance'
p5
aF37.15003967285156
aa(lp6
S'state'
p7
aI0
aatp8
Rp9
.ccollections
OrderedDict
p0
((lp1
(lp2
S'timestamp'
p3
aF7.9476399421691895
aa(lp4
S'distance'
p5
aF37.15003967285156
aa(lp6
S'state'
p7
aI0
aatp8
Rp9
.ccollections
OrderedDict
p0
((lp1
(lp2
S'timestamp'
p3
aF7.956435918807983
aa(lp4
S'distance'
p5
aF37.15003967285156
aa(lp6
S'state'
p7
aI0
aatp8
Rp9
.ccollections
OrderedDict
p0
((lp1
(lp2
S'timestamp'
p3
aF7.957073926925659
aa(lp4
S'distance'
p5
aF37.15003967285156
aa(lp6
S'state'
p7
aI0
aatp8
Rp9
.ccollections
OrderedDict
p0
((lp1
(lp2
S'timestamp'
p3
aF7.966793060302734
aa(lp4
S'distance'
p5
aF37.15003967285156
aa(lp6
S'state'
p7
aI0
aatp8
Rp9
.ccollections
OrderedDict
p0
((lp1
(lp2
S'timestamp'
p3
aF7.966926097869873
aa(lp4
S'distance'
p5
aF37.15003967285156
aa(lp6
S'state'
p7
aI0
aatp8
Rp9
.ccollections
OrderedDict
p0
((lp1
(lp2
S'timestamp'
p3
aF7.97641396522522
aa(lp4
S'distance'
p5
aF37.15003967285156
aa(lp6
S'state'
p7
aI0
aatp8
Rp9
.ccollections
OrderedDict
p0
((lp1
(lp2
S'timestamp'
p3
aF7.976988077163696
aa(lp4
S'distance'
p5
aF37.15003967285156
aa(lp6
S'state'
p7
aI0
aatp8
Rp9
.ccollections
OrderedDict
p0
((lp1
(lp2
S'timestamp'
p3
aF7.986721038818359
aa(lp4
S'distance'
p5
aF37.15003967285156
aa(lp6
S'state'
p7
aI0
aatp8
Rp9
.ccollections
OrderedDict
p0
((lp1
(lp2
S'timestamp'
p3
aF7.986972093582153
aa(lp4
S'distance'
p5
aF37.15003967285156
aa(lp6
S'state'
p7
aI0
aatp8
Rp9
.ccollections
OrderedDict
p0
((lp1
(lp2
S'timestamp'
p3
aF7.996598958969116
aa(lp4
S'distance'
p5
aF37.15003967285156
aa(lp6
S'state'
p7
aI0
aatp8
Rp9
.ccollections
OrderedDict
p0
((lp1
(lp2
S'timestamp'
p3
aF7.996909141540527
aa(lp4
S'distance'
p5
aF37.15003967285156
aa(lp6
S'state'
p7
aI0
aatp8
Rp9
.ccollections
OrderedDict
p0
((lp1
(lp2
S'timestamp'
p3
aF8.006618022918701
aa(lp4
S'distance'
p5
aF37.15003967285156
aa(lp6
S'state'
p7
aI0
aatp8
Rp9
.ccollections
OrderedDict
p0
((lp1
(lp2
S'timestamp'
p3
aF8.006961107254028
aa(lp4
S'distance'
p5
aF37.15003967285156
aa(lp6
S'state'
p7
aI0
aatp8
Rp9
.