ccollections
OrderedDict
p0
((lp1
(lp2
S'state'
p3
aI0
aa(lp4
S'distance'
p5
aF384.9214172363281
aa(lp6
S'timestamp'
p7
aF0.0009899139404296875
aatp8
Rp9
.ccollections
OrderedDict
p0
((lp1
(lp2
S'state'
p3
aI0
aa(lp4
S'distance'
p5
aF384.9214172363281
aa(lp6
S'timestamp'
p7
aF0.0015289783477783203
aatp8
Rp9
.ccollections
OrderedDict
p0
((lp1
(lp2
S'state'
p3
aI0
aa(lp4
S'distance'
p5
aF384.9214172363281
aa(lp6
S'timestamp'
p7
aF0.011034965515136719
aatp8
Rp9
.ccollections
OrderedDict
p0
((lp1
(lp2
S'state'
p3
aI0
aa(lp4
S'distance'
p5
aF384.9214172363281
aa(lp6
S'timestamp'
p7
aF0.011499881744384766
aatp8
Rp9
.ccollections
OrderedDict
p0
((lp1
(lp2
S'state'
p3
aI0
aa(lp4
S'distance'
p5
aF384.9214172363281
aa(lp6
S'timestamp'
p7
aF0.023539066314697266
aatp8
Rp9
.ccollections
OrderedDict
p0
((lp1
(lp2
S'state'
p3
aI0
aa(lp4
S'distance'
p5
aF384.9214172363281
aa(lp6
S'timestamp'
p7
aF0.023611068725585938
aatp8
Rp9
.ccollections
OrderedDict
p0
((lp1
(lp2
S'state'
p3
aI0
aa(lp4
S'distance'
p5
aF384.9214172363281
aa(lp6
S'timestamp'
p7
aF0.03154706954956055
aatp8
Rp9
.ccollections
OrderedDict
p0
((lp1
(lp2
S'state'
p3
aI0
aa(lp4
S'distance'
p5
aF384.9214172363281
aa(lp6
S'timestamp'
p7
aF0.03186988830566406
aatp8
Rp9
.ccollections
OrderedDict
p0
((lp1
(lp2
S'state'
p3
aI0
aa(lp4
S'distance'
p5
aF384.9214172363281
aa(lp6
S'timestamp'
p7
aF0.040747880935668945
aatp8
Rp9
.ccollections
OrderedDict
p0
((lp1
(lp2
S'state'
p3
aI0
aa(lp4
S'distance'
p5
aF384.9214172363281
aa(lp6
S'timestamp'
p7
aF0.041706085205078125
aatp8
Rp9
.ccollections
OrderedDict
p0
((lp1
(lp2
S'state'
p3
aI0
aa(lp4
S'distance'
p5
aF384.9214172363281
aa(lp6
S'timestamp'
p7
aF0.05084586143493652
aatp8
Rp9
.ccollections
OrderedDict
p0
((lp1
(lp2
S'state'
p3
aI0
aa(lp4
S'distance'
p5
aF384.9214172363281
aa(lp6
S'timestamp'
p7
aF0.05199003219604492
aatp8
Rp9
.ccollections
OrderedDict
p0
((lp1
(lp2
S'state'
p3
aI0
aa(lp4
S'distance'
p5
aF384.9214172363281
aa(lp6
S'timestamp'
p7
aF0.0610198974609375
aatp8
Rp9
.ccollections
OrderedDict
p0
((lp1
(lp2
S'state'
p3
aI0
aa(lp4
S'distance'
p5
aF384.9214172363281
aa(lp6
S'timestamp'
p7
aF0.06180405616760254
aatp8
Rp9
.ccollections
OrderedDict
p0
((lp1
(lp2
S'state'
p3
aI0
aa(lp4
S'distance'
p5
aF384.9214172363281
aa(lp6
S'timestamp'
p7
aF0.07095193862915039
aatp8
Rp9
.ccollections
OrderedDict
p0
((lp1
(lp2
S'state'
p3
aI0
aa(lp4
S'distance'
p5
aF384.9214172363281
aa(lp6
S'timestamp'
p7
aF0.07158088684082031
aatp8
Rp9
.ccollections
OrderedDict
p0
((lp1
(lp2
S'state'
p3
aI0
aa(lp4
S'distance'
p5
aF384.9214172363281
aa(lp6
S'timestamp'
p7
aF0.08102607727050781
aatp8
Rp9
.ccollections
OrderedDict
p0
((lp1
(lp2
S'state'
p3
aI0
aa(lp4
S'distance'
p5
aF384.9214172363281
aa(lp6
S'timestamp'
p7
aF0.08197188377380371
aatp8
Rp9
.ccollections
OrderedDict
p0
((lp1
(lp2
S'state'
p3
aI0
aa(lp4
S'distance'
p5
aF384.9214172363281
aa(lp6
S'timestamp'
p7
aF0.09124588966369629
aatp8
Rp9
.ccollections
OrderedDict
p0
((lp1
(lp2
S'state'
p3
aI0
aa(lp4
S'distance'
p5
aF384.9214172363281
aa(lp6
S'timestamp'
p7
aF0.09139609336853027
aatp8
Rp9
.ccollections
OrderedDict
p0
((lp1
(lp2
S'state'
p3
aI0
aa(lp4
S'distance'
p5
aF384.9214172363281
aa(lp6
S'timestamp'
p7
aF0.10104608535766602
aatp8
Rp9
.ccollections
OrderedDict
p0
((lp1
(lp2
S'state'
p3
aI0
aa(lp4
S'distance'
p5
aF384.9214172363281
aa(lp6
S'timestamp'
p7
aF0.10150408744812012
aatp8
Rp9
.ccollections
OrderedDict
p0
((lp1
(lp2
S'state'
p3
aI0
aa(lp4
S'distance'
p5
aF384.9214172363281
aa(lp6
S'timestamp'
p7
aF0.11306095123291016
aatp8
Rp9
.ccollections
OrderedDict
p0
((lp1
(lp2
S'state'
p3
aI0
aa(lp4
S'distance'
p5
aF384.9214172363281
aa(lp6
S'timestamp'
p7
aF0.12079691886901855
aatp8
Rp9
.ccollections
OrderedDict
p0
((lp1
(lp2
S'state'
p3
aI0
aa(lp4
S'distance'
p5
aF384.9214172363281
aa(lp6
S'timestamp'
p7
aF0.12194108963012695
aatp8
Rp9
.ccollections
OrderedDict
p0
((lp1
(lp2
S'state'
p3
aI0
aa(lp4
S'distance'
p5
aF384.9214172363281
aa(lp6
S'timestamp'
p7
aF0.1231698989868164
aatp8
Rp9
.ccollections
OrderedDict
p0
((lp1
(lp2
S'state'
p3
aI0
aa(lp4
S'distance'
p5
aF384.9214172363281
aa(lp6
S'timestamp'
p7
aF0.1312859058380127
aatp8
Rp9
.ccollections
OrderedDict
p0
((lp1
(lp2
S'state'
p3
aI0
aa(lp4
S'distance'
p5
aF384.9214172363281
aa(lp6
S'timestamp'
p7
aF0.13154006004333496
aatp8
Rp9
.ccollections
OrderedDict
p0
((lp1
(lp2
S'state'
p3
aI0
aa(lp4
S'distance'
p5
aF384.9214172363281
aa(lp6
S'timestamp'
p7
aF0.14095401763916016
aatp8
Rp9
.ccollections
OrderedDict
p0
((lp1
(lp2
S'state'
p3
aI0
aa(lp4
S'distance'
p5
aF384.9214172363281
aa(lp6
S'timestamp'
p7
aF0.14199590682983398
aatp8
Rp9
.ccollections
OrderedDict
p0
((lp1
(lp2
S'state'
p3
aI0
aa(lp4
S'distance'
p5
aF384.9214172363281
aa(lp6
S'timestamp'
p7
aF0.15105700492858887
aatp8
Rp9
.ccollections
OrderedDict
p0
((lp1
(lp2
S'state'
p3
aI0
aa(lp4
S'distance'
p5
aF384.9214172363281
aa(lp6
S'timestamp'
p7
aF0.15173888206481934
aatp8
Rp9
.ccollections
OrderedDict
p0
((lp1
(lp2
S'state'
p3
aI0
aa(lp4
S'distance'
p5
aF384.9214172363281
aa(lp6
S'timestamp'
p7
aF0.1610579490661621
aatp8
Rp9
.ccollections
OrderedDict
p0
((lp1
(lp2
S'state'
p3
aI0
aa(lp4
S'distance'
p5
aF384.9214172363281
aa(lp6
S'timestamp'
p7
aF0.162031888961792
aatp8
Rp9
.ccollections
OrderedDict
p0
((lp1
(lp2
S'state'
p3
aI0
aa(lp4
S'distance'
p5
aF384.9214172363281
aa(lp6
S'timestamp'
p7
aF0.17120695114135742
aatp8
Rp9
.ccollections
OrderedDict
p0
((lp1
(lp2
S'state'
p3
aI0
aa(lp4
S'distance'
p5
aF384.9214172363281
aa(lp6
S'timestamp'
p7
aF0.17150497436523438
aatp8
Rp9
.ccollections
OrderedDict
p0
((lp1
(lp2
S'state'
p3
aI0
aa(lp4
S'distance'
p5
aF384.9214172363281
aa(lp6
S'timestamp'
p7
aF0.18099308013916016
aatp8
Rp9
.ccollections
OrderedDict
p0
((lp1
(lp2
S'state'
p3
aI0
aa(lp4
S'distance'
p5
aF384.9214172363281
aa(lp6
S'timestamp'
p7
aF0.18149995803833008
aatp8
Rp9
.ccollections
OrderedDict
p0
((lp1
(lp2
S'state'
p3
aI0
aa(lp4
S'distance'
p5
aF384.9214172363281
aa(lp6
S'timestamp'
p7
aF0.1909348964691162
aatp8
Rp9
.ccollections
OrderedDict
p0
((lp1
(lp2
S'state'
p3
aI0
aa(lp4
S'distance'
p5
aF384.9214172363281
aa(lp6
S'timestamp'
p7
aF0.19187593460083008
aatp8
Rp9
.ccollections
OrderedDict
p0
((lp1
(lp2
S'state'
p3
aI0
aa(lp4
S'distance'
p5
aF384.9214172363281
aa(lp6
S'timestamp'
p7
aF0.20144200325012207
aatp8
Rp9
.ccollections
OrderedDict
p0
((lp1
(lp2
S'state'
p3
aI0
aa(lp4
S'distance'
p5
aF384.9214172363281
aa(lp6
S'timestamp'
p7
aF0.2022709846496582
aatp8
Rp9
.ccollections
OrderedDict
p0
((lp1
(lp2
S'state'
p3
aI0
aa(lp4
S'distance'
p5
aF384.9214172363281
aa(lp6
S'timestamp'
p7
aF0.21073293685913086
aatp8
Rp9
.ccollections
OrderedDict
p0
((lp1
(lp2
S'state'
p3
aI0
aa(lp4
S'distance'
p5
aF384.9214172363281
aa(lp6
S'timestamp'
p7
aF0.21184587478637695
aatp8
Rp9
.ccollections
OrderedDict
p0
((lp1
(lp2
S'state'
p3
aI0
aa(lp4
S'distance'
p5
aF384.9214172363281
aa(lp6
S'timestamp'
p7
aF0.2209329605102539
aatp8
Rp9
.ccollections
OrderedDict
p0
((lp1
(lp2
S'state'
p3
aI0
aa(lp4
S'distance'
p5
aF384.9214172363281
aa(lp6
S'timestamp'
p7
aF0.22199487686157227
aatp8
Rp9
.ccollections
OrderedDict
p0
((lp1
(lp2
S'state'
p3
aI0
aa(lp4
S'distance'
p5
aF384.9214172363281
aa(lp6
S'timestamp'
p7
aF0.23102402687072754
aatp8
Rp9
.ccollections
OrderedDict
p0
((lp1
(lp2
S'state'
p3
aI0
aa(lp4
S'distance'
p5
aF384.9214172363281
aa(lp6
S'timestamp'
p7
aF0.23215508460998535
aatp8
Rp9
.ccollections
OrderedDict
p0
((lp1
(lp2
S'state'
p3
aI0
aa(lp4
S'distance'
p5
aF384.9214172363281
aa(lp6
S'timestamp'
p7
aF0.2415618896484375
aatp8
Rp9
.ccollections
OrderedDict
p0
((lp1
(lp2
S'state'
p3
aI0
aa(lp4
S'distance'
p5
aF384.9214172363281
aa(lp6
S'timestamp'
p7
aF0.24230194091796875
aatp8
Rp9
.ccollections
OrderedDict
p0
((lp1
(lp2
S'state'
p3
aI0
aa(lp4
S'distance'
p5
aF384.9214172363281
aa(lp6
S'timestamp'
p7
aF0.2513580322265625
aatp8
Rp9
.ccollections
OrderedDict
p0
((lp1
(lp2
S'state'
p3
aI0
aa(lp4
S'distance'
p5
aF384.9214172363281
aa(lp6
S'timestamp'
p7
aF0.25155091285705566
aatp8
Rp9
.ccollections
OrderedDict
p0
((lp1
(lp2
S'state'
p3
aI0
aa(lp4
S'distance'
p5
aF384.9214172363281
aa(lp6
S'timestamp'
p7
aF0.2610950469970703
aatp8
Rp9
.ccollections
OrderedDict
p0
((lp1
(lp2
S'state'
p3
aI0
aa(lp4
S'distance'
p5
aF384.9214172363281
aa(lp6
S'timestamp'
p7
aF0.2617669105529785
aatp8
Rp9
.ccollections
OrderedDict
p0
((lp1
(lp2
S'state'
p3
aI0
aa(lp4
S'distance'
p5
aF384.9214172363281
aa(lp6
S'timestamp'
p7
aF0.27075886726379395
aatp8
Rp9
.ccollections
OrderedDict
p0
((lp1
(lp2
S'state'
p3
aI0
aa(lp4
S'distance'
p5
aF384.9214172363281
aa(lp6
S'timestamp'
p7
aF0.2715940475463867
aatp8
Rp9
.ccollections
OrderedDict
p0
((lp1
(lp2
S'state'
p3
aI0
aa(lp4
S'distance'
p5
aF384.9214172363281
aa(lp6
S'timestamp'
p7
aF0.2813549041748047
aatp8
Rp9
.ccollections
OrderedDict
p0
((lp1
(lp2
S'state'
p3
aI0
aa(lp4
S'distance'
p5
aF384.9214172363281
aa(lp6
S'timestamp'
p7
aF0.2815060615539551
aatp8
Rp9
.ccollections
OrderedDict
p0
((lp1
(lp2
S'state'
p3
aI0
aa(lp4
S'distance'
p5
aF384.9214172363281
aa(lp6
S'timestamp'
p7
aF0.29082202911376953
aatp8
Rp9
.ccollections
OrderedDict
p0
((lp1
(lp2
S'state'
p3
aI0
aa(lp4
S'distance'
p5
aF384.9214172363281
aa(lp6
S'timestamp'
p7
aF0.2920348644256592
aatp8
Rp9
.ccollections
OrderedDict
p0
((lp1
(lp2
S'state'
p3
aI0
aa(lp4
S'distance'
p5
aF384.9214172363281
aa(lp6
S'timestamp'
p7
aF0.31197690963745117
aatp8
Rp9
.ccollections
OrderedDict
p0
((lp1
(lp2
S'state'
p3
aI0
aa(lp4
S'distance'
p5
aF384.9214172363281
aa(lp6
S'timestamp'
p7
aF0.3128218650817871
aatp8
Rp9
.ccollections
OrderedDict
p0
((lp1
(lp2
S'state'
p3
aI0
aa(lp4
S'distance'
p5
aF384.9214172363281
aa(lp6
S'timestamp'
p7
aF0.31328797340393066
aatp8
Rp9
.ccollections
OrderedDict
p0
((lp1
(lp2
S'state'
p3
aI0
aa(lp4
S'distance'
p5
aF384.9214172363281
aa(lp6
S'timestamp'
p7
aF0.3134269714355469
aatp8
Rp9
.ccollections
OrderedDict
p0
((lp1
(lp2
S'state'
p3
aI0
aa(lp4
S'distance'
p5
aF384.9214172363281
aa(lp6
S'timestamp'
p7
aF0.32100391387939453
aatp8
Rp9
.ccollections
OrderedDict
p0
((lp1
(lp2
S'state'
p3
aI0
aa(lp4
S'distance'
p5
aF384.9214172363281
aa(lp6
S'timestamp'
p7
aF0.3215360641479492
aatp8
Rp9
.ccollections
OrderedDict
p0
((lp1
(lp2
S'state'
p3
aI0
aa(lp4
S'distance'
p5
aF384.9214172363281
aa(lp6
S'timestamp'
p7
aF0.33074092864990234
aatp8
Rp9
.ccollections
OrderedDict
p0
((lp1
(lp2
S'state'
p3
aI0
aa(lp4
S'distance'
p5
aF384.9214172363281
aa(lp6
S'timestamp'
p7
aF0.33167195320129395
aatp8
Rp9
.ccollections
OrderedDict
p0
((lp1
(lp2
S'state'
p3
aI0
aa(lp4
S'distance'
p5
aF384.9214172363281
aa(lp6
S'timestamp'
p7
aF0.34073305130004883
aatp8
Rp9
.ccollections
OrderedDict
p0
((lp1
(lp2
S'state'
p3
aI0
aa(lp4
S'distance'
p5
aF384.9214172363281
aa(lp6
S'timestamp'
p7
aF0.3418710231781006
aatp8
Rp9
.ccollections
OrderedDict
p0
((lp1
(lp2
S'state'
p3
aI0
aa(lp4
S'distance'
p5
aF384.9214172363281
aa(lp6
S'timestamp'
p7
aF0.3508870601654053
aatp8
Rp9
.ccollections
OrderedDict
p0
((lp1
(lp2
S'state'
p3
aI0
aa(lp4
S'distance'
p5
aF384.9214172363281
aa(lp6
S'timestamp'
p7
aF0.3521239757537842
aatp8
Rp9
.ccollections
OrderedDict
p0
((lp1
(lp2
S'state'
p3
aI0
aa(lp4
S'distance'
p5
aF384.9214172363281
aa(lp6
S'timestamp'
p7
aF0.36072587966918945
aatp8
Rp9
.ccollections
OrderedDict
p0
((lp1
(lp2
S'state'
p3
aI0
aa(lp4
S'distance'
p5
aF384.9214172363281
aa(lp6
S'timestamp'
p7
aF0.3622090816497803
aatp8
Rp9
.ccollections
OrderedDict
p0
((lp1
(lp2
S'state'
p3
aI0
aa(lp4
S'distance'
p5
aF384.9214172363281
aa(lp6
S'timestamp'
p7
aF0.3707308769226074
aatp8
Rp9
.ccollections
OrderedDict
p0
((lp1
(lp2
S'state'
p3
aI0
aa(lp4
S'distance'
p5
aF384.9214172363281
aa(lp6
S'timestamp'
p7
aF0.3715958595275879
aatp8
Rp9
.ccollections
OrderedDict
p0
((lp1
(lp2
S'state'
p3
aI0
aa(lp4
S'distance'
p5
aF384.9214172363281
aa(lp6
S'timestamp'
p7
aF0.3807179927825928
aatp8
Rp9
.ccollections
OrderedDict
p0
((lp1
(lp2
S'state'
p3
aI0
aa(lp4
S'distance'
p5
aF384.9214172363281
aa(lp6
S'timestamp'
p7
aF0.3815650939941406
aatp8
Rp9
.ccollections
OrderedDict
p0
((lp1
(lp2
S'state'
p3
aI0
aa(lp4
S'distance'
p5
aF384.9214172363281
aa(lp6
S'timestamp'
p7
aF0.39093995094299316
aatp8
Rp9
.ccollections
OrderedDict
p0
((lp1
(lp2
S'state'
p3
aI0
aa(lp4
S'distance'
p5
aF384.9214172363281
aa(lp6
S'timestamp'
p7
aF0.39157986640930176
aatp8
Rp9
.ccollections
OrderedDict
p0
((lp1
(lp2
S'state'
p3
aI0
aa(lp4
S'distance'
p5
aF384.9214172363281
aa(lp6
S'timestamp'
p7
aF0.4007899761199951
aatp8
Rp9
.ccollections
OrderedDict
p0
((lp1
(lp2
S'state'
p3
aI0
aa(lp4
S'distance'
p5
aF384.9214172363281
aa(lp6
S'timestamp'
p7
aF0.40138888359069824
aatp8
Rp9
.ccollections
OrderedDict
p0
((lp1
(lp2
S'state'
p3
aI0
aa(lp4
S'distance'
p5
aF384.9214172363281
aa(lp6
S'timestamp'
p7
aF0.41090893745422363
aatp8
Rp9
.ccollections
OrderedDict
p0
((lp1
(lp2
S'state'
p3
aI0
aa(lp4
S'distance'
p5
aF384.9214172363281
aa(lp6
S'timestamp'
p7
aF0.41196703910827637
aatp8
Rp9
.ccollections
OrderedDict
p0
((lp1
(lp2
S'state'
p3
aI0
aa(lp4
S'distance'
p5
aF384.9214172363281
aa(lp6
S'timestamp'
p7
aF0.42095303535461426
aatp8
Rp9
.ccollections
OrderedDict
p0
((lp1
(lp2
S'state'
p3
aI0
aa(lp4
S'distance'
p5
aF384.9214172363281
aa(lp6
S'timestamp'
p7
aF0.42198801040649414
aatp8
Rp9
.ccollections
OrderedDict
p0
((lp1
(lp2
S'state'
p3
aI0
aa(lp4
S'distance'
p5
aF384.9214172363281
aa(lp6
S'timestamp'
p7
aF0.43072986602783203
aatp8
Rp9
.ccollections
OrderedDict
p0
((lp1
(lp2
S'state'
p3
aI0
aa(lp4
S'distance'
p5
aF384.9214172363281
aa(lp6
S'timestamp'
p7
aF0.43189501762390137
aatp8
Rp9
.ccollections
OrderedDict
p0
((lp1
(lp2
S'state'
p3
aI0
aa(lp4
S'distance'
p5
aF384.9214172363281
aa(lp6
S'timestamp'
p7
aF0.4409310817718506
aatp8
Rp9
.ccollections
OrderedDict
p0
((lp1
(lp2
S'state'
p3
aI0
aa(lp4
S'distance'
p5
aF384.9214172363281
aa(lp6
S'timestamp'
p7
aF0.44174790382385254
aatp8
Rp9
.ccollections
OrderedDict
p0
((lp1
(lp2
S'state'
p3
aI0
aa(lp4
S'distance'
p5
aF384.9214172363281
aa(lp6
S'timestamp'
p7
aF0.45078587532043457
aatp8
Rp9
.ccollections
OrderedDict
p0
((lp1
(lp2
S'state'
p3
aI0
aa(lp4
S'distance'
p5
aF384.9214172363281
aa(lp6
S'timestamp'
p7
aF0.4514799118041992
aatp8
Rp9
.ccollections
OrderedDict
p0
((lp1
(lp2
S'state'
p3
aI0
aa(lp4
S'distance'
p5
aF384.9214172363281
aa(lp6
S'timestamp'
p7
aF0.4608480930328369
aatp8
Rp9
.ccollections
OrderedDict
p0
((lp1
(lp2
S'state'
p3
aI0
aa(lp4
S'distance'
p5
aF384.9214172363281
aa(lp6
S'timestamp'
p7
aF0.46144890785217285
aatp8
Rp9
.ccollections
OrderedDict
p0
((lp1
(lp2
S'state'
p3
aI0
aa(lp4
S'distance'
p5
aF384.9214172363281
aa(lp6
S'timestamp'
p7
aF0.4708540439605713
aatp8
Rp9
.ccollections
OrderedDict
p0
((lp1
(lp2
S'state'
p3
aI0
aa(lp4
S'distance'
p5
aF384.9214172363281
aa(lp6
S'timestamp'
p7
aF0.4717130661010742
aatp8
Rp9
.ccollections
OrderedDict
p0
((lp1
(lp2
S'state'
p3
aI0
aa(lp4
S'distance'
p5
aF384.9214172363281
aa(lp6
S'timestamp'
p7
aF0.4808309078216553
aatp8
Rp9
.ccollections
OrderedDict
p0
((lp1
(lp2
S'state'
p3
aI0
aa(lp4
S'distance'
p5
aF384.9214172363281
aa(lp6
S'timestamp'
p7
aF0.49135589599609375
aatp8
Rp9
.ccollections
OrderedDict
p0
((lp1
(lp2
S'state'
p3
aI0
aa(lp4
S'distance'
p5
aF384.9214172363281
aa(lp6
S'timestamp'
p7
aF0.49158692359924316
aatp8
Rp9
.ccollections
OrderedDict
p0
((lp1
(lp2
S'state'
p3
aI0
aa(lp4
S'distance'
p5
aF384.9214172363281
aa(lp6
S'timestamp'
p7
aF0.49328088760375977
aatp8
Rp9
.ccollections
OrderedDict
p0
((lp1
(lp2
S'state'
p3
aI0
aa(lp4
S'distance'
p5
aF384.9214172363281
aa(lp6
S'timestamp'
p7
aF0.5007059574127197
aatp8
Rp9
.ccollections
OrderedDict
p0
((lp1
(lp2
S'state'
p3
aI0
aa(lp4
S'distance'
p5
aF384.9214172363281
aa(lp6
S'timestamp'
p7
aF0.5016379356384277
aatp8
Rp9
.ccollections
OrderedDict
p0
((lp1
(lp2
S'state'
p3
aI0
aa(lp4
S'distance'
p5
aF384.9214172363281
aa(lp6
S'timestamp'
p7
aF0.5106580257415771
aatp8
Rp9
.ccollections
OrderedDict
p0
((lp1
(lp2
S'state'
p3
aI0
aa(lp4
S'distance'
p5
aF384.9214172363281
aa(lp6
S'timestamp'
p7
aF0.511559009552002
aatp8
Rp9
.ccollections
OrderedDict
p0
((lp1
(lp2
S'state'
p3
aI0
aa(lp4
S'distance'
p5
aF384.9214172363281
aa(lp6
S'timestamp'
p7
aF0.5213470458984375
aatp8
Rp9
.ccollections
OrderedDict
p0
((lp1
(lp2
S'state'
p3
aI0
aa(lp4
S'distance'
p5
aF384.9214172363281
aa(lp6
S'timestamp'
p7
aF0.5215039253234863
aatp8
Rp9
.ccollections
OrderedDict
p0
((lp1
(lp2
S'state'
p3
aI0
aa(lp4
S'distance'
p5
aF384.9214172363281
aa(lp6
S'timestamp'
p7
aF0.5309739112854004
aatp8
Rp9
.ccollections
OrderedDict
p0
((lp1
(lp2
S'state'
p3
aI0
aa(lp4
S'distance'
p5
aF384.9214172363281
aa(lp6
S'timestamp'
p7
aF0.5314750671386719
aatp8
Rp9
.ccollections
OrderedDict
p0
((lp1
(lp2
S'state'
p3
aI0
aa(lp4
S'distance'
p5
aF384.9214172363281
aa(lp6
S'timestamp'
p7
aF0.5408370494842529
aatp8
Rp9
.ccollections
OrderedDict
p0
((lp1
(lp2
S'state'
p3
aI0
aa(lp4
S'distance'
p5
aF384.9214172363281
aa(lp6
S'timestamp'
p7
aF0.541496992111206
aatp8
Rp9
.ccollections
OrderedDict
p0
((lp1
(lp2
S'state'
p3
aI0
aa(lp4
S'distance'
p5
aF384.9214172363281
aa(lp6
S'timestamp'
p7
aF0.5613958835601807
aatp8
Rp9
.ccollections
OrderedDict
p0
((lp1
(lp2
S'state'
p3
aI0
aa(lp4
S'distance'
p5
aF384.9214172363281
aa(lp6
S'timestamp'
p7
aF0.5615520477294922
aatp8
Rp9
.ccollections
OrderedDict
p0
((lp1
(lp2
S'state'
p3
aI0
aa(lp4
S'distance'
p5
aF384.9214172363281
aa(lp6
S'timestamp'
p7
aF0.5636310577392578
aatp8
Rp9
.ccollections
OrderedDict
p0
((lp1
(lp2
S'state'
p3
aI0
aa(lp4
S'distance'
p5
aF384.9214172363281
aa(lp6
S'timestamp'
p7
aF0.5638220310211182
aatp8
Rp9
.ccollections
OrderedDict
p0
((lp1
(lp2
S'state'
p3
aI0
aa(lp4
S'distance'
p5
aF384.9214172363281
aa(lp6
S'timestamp'
p7
aF0.570854902267456
aatp8
Rp9
.ccollections
OrderedDict
p0
((lp1
(lp2
S'state'
p3
aI0
aa(lp4
S'distance'
p5
aF384.9214172363281
aa(lp6
S'timestamp'
p7
aF0.5720069408416748
aatp8
Rp9
.ccollections
OrderedDict
p0
((lp1
(lp2
S'state'
p3
aI0
aa(lp4
S'distance'
p5
aF384.9214172363281
aa(lp6
S'timestamp'
p7
aF0.5808780193328857
aatp8
Rp9
.ccollections
OrderedDict
p0
((lp1
(lp2
S'state'
p3
aI0
aa(lp4
S'distance'
p5
aF384.9214172363281
aa(lp6
S'timestamp'
p7
aF0.5813970565795898
aatp8
Rp9
.ccollections
OrderedDict
p0
((lp1
(lp2
S'state'
p3
aI0
aa(lp4
S'distance'
p5
aF384.9214172363281
aa(lp6
S'timestamp'
p7
aF0.5911350250244141
aatp8
Rp9
.ccollections
OrderedDict
p0
((lp1
(lp2
S'state'
p3
aI0
aa(lp4
S'distance'
p5
aF384.9214172363281
aa(lp6
S'timestamp'
p7
aF0.5915088653564453
aatp8
Rp9
.ccollections
OrderedDict
p0
((lp1
(lp2
S'state'
p3
aI0
aa(lp4
S'distance'
p5
aF384.9214172363281
aa(lp6
S'timestamp'
p7
aF0.6006200313568115
aatp8
Rp9
.ccollections
OrderedDict
p0
((lp1
(lp2
S'state'
p3
aI0
aa(lp4
S'distance'
p5
aF384.9214172363281
aa(lp6
S'timestamp'
p7
aF0.6015520095825195
aatp8
Rp9
.ccollections
OrderedDict
p0
((lp1
(lp2
S'state'
p3
aI0
aa(lp4
S'distance'
p5
aF384.9214172363281
aa(lp6
S'timestamp'
p7
aF0.6116158962249756
aatp8
Rp9
.ccollections
OrderedDict
p0
((lp1
(lp2
S'state'
p3
aI0
aa(lp4
S'distance'
p5
aF384.9214172363281
aa(lp6
S'timestamp'
p7
aF0.6119399070739746
aatp8
Rp9
.ccollections
OrderedDict
p0
((lp1
(lp2
S'state'
p3
aI0
aa(lp4
S'distance'
p5
aF384.9214172363281
aa(lp6
S'timestamp'
p7
aF0.6213359832763672
aatp8
Rp9
.ccollections
OrderedDict
p0
((lp1
(lp2
S'state'
p3
aI0
aa(lp4
S'distance'
p5
aF384.9214172363281
aa(lp6
S'timestamp'
p7
aF0.6214649677276611
aatp8
Rp9
.ccollections
OrderedDict
p0
((lp1
(lp2
S'state'
p3
aI0
aa(lp4
S'distance'
p5
aF384.9214172363281
aa(lp6
S'timestamp'
p7
aF0.631519079208374
aatp8
Rp9
.ccollections
OrderedDict
p0
((lp1
(lp2
S'state'
p3
aI0
aa(lp4
S'distance'
p5
aF384.9214172363281
aa(lp6
S'timestamp'
p7
aF0.6321990489959717
aatp8
Rp9
.ccollections
OrderedDict
p0
((lp1
(lp2
S'state'
p3
aI0
aa(lp4
S'distance'
p5
aF384.9214172363281
aa(lp6
S'timestamp'
p7
aF0.6412670612335205
aatp8
Rp9
.ccollections
OrderedDict
p0
((lp1
(lp2
S'state'
p3
aI0
aa(lp4
S'distance'
p5
aF384.9214172363281
aa(lp6
S'timestamp'
p7
aF0.6416840553283691
aatp8
Rp9
.ccollections
OrderedDict
p0
((lp1
(lp2
S'state'
p3
aI0
aa(lp4
S'distance'
p5
aF384.9214172363281
aa(lp6
S'timestamp'
p7
aF0.6506760120391846
aatp8
Rp9
.ccollections
OrderedDict
p0
((lp1
(lp2
S'state'
p3
aI0
aa(lp4
S'distance'
p5
aF384.9214172363281
aa(lp6
S'timestamp'
p7
aF0.6520400047302246
aatp8
Rp9
.ccollections
OrderedDict
p0
((lp1
(lp2
S'state'
p3
aI0
aa(lp4
S'distance'
p5
aF384.9214172363281
aa(lp6
S'timestamp'
p7
aF0.6608750820159912
aatp8
Rp9
.ccollections
OrderedDict
p0
((lp1
(lp2
S'state'
p3
aI0
aa(lp4
S'distance'
p5
aF384.9214172363281
aa(lp6
S'timestamp'
p7
aF0.6614370346069336
aatp8
Rp9
.ccollections
OrderedDict
p0
((lp1
(lp2
S'state'
p3
aI0
aa(lp4
S'distance'
p5
aF384.9214172363281
aa(lp6
S'timestamp'
p7
aF0.6713159084320068
aatp8
Rp9
.ccollections
OrderedDict
p0
((lp1
(lp2
S'state'
p3
aI0
aa(lp4
S'distance'
p5
aF384.9214172363281
aa(lp6
S'timestamp'
p7
aF0.671518087387085
aatp8
Rp9
.ccollections
OrderedDict
p0
((lp1
(lp2
S'state'
p3
aI0
aa(lp4
S'distance'
p5
aF384.9214172363281
aa(lp6
S'timestamp'
p7
aF0.6809489727020264
aatp8
Rp9
.ccollections
OrderedDict
p0
((lp1
(lp2
S'state'
p3
aI0
aa(lp4
S'distance'
p5
aF384.9214172363281
aa(lp6
S'timestamp'
p7
aF0.6814820766448975
aatp8
Rp9
.ccollections
OrderedDict
p0
((lp1
(lp2
S'state'
p3
aI0
aa(lp4
S'distance'
p5
aF384.9214172363281
aa(lp6
S'timestamp'
p7
aF0.6909329891204834
aatp8
Rp9
.ccollections
OrderedDict
p0
((lp1
(lp2
S'state'
p3
aI0
aa(lp4
S'distance'
p5
aF384.9214172363281
aa(lp6
S'timestamp'
p7
aF0.6914100646972656
aatp8
Rp9
.ccollections
OrderedDict
p0
((lp1
(lp2
S'state'
p3
aI0
aa(lp4
S'distance'
p5
aF384.9214172363281
aa(lp6
S'timestamp'
p7
aF0.7008340358734131
aatp8
Rp9
.ccollections
OrderedDict
p0
((lp1
(lp2
S'state'
p3
aI0
aa(lp4
S'distance'
p5
aF384.9214172363281
aa(lp6
S'timestamp'
p7
aF0.701866865158081
aatp8
Rp9
.ccollections
OrderedDict
p0
((lp1
(lp2
S'state'
p3
aI0
aa(lp4
S'distance'
p5
aF384.9214172363281
aa(lp6
S'timestamp'
p7
aF0.7108969688415527
aatp8
Rp9
.ccollections
OrderedDict
p0
((lp1
(lp2
S'state'
p3
aI0
aa(lp4
S'distance'
p5
aF384.9214172363281
aa(lp6
S'timestamp'
p7
aF0.7117979526519775
aatp8
Rp9
.ccollections
OrderedDict
p0
((lp1
(lp2
S'state'
p3
aI0
aa(lp4
S'distance'
p5
aF384.9214172363281
aa(lp6
S'timestamp'
p7
aF0.7207179069519043
aatp8
Rp9
.ccollections
OrderedDict
p0
((lp1
(lp2
S'state'
p3
aI0
aa(lp4
S'distance'
p5
aF384.9214172363281
aa(lp6
S'timestamp'
p7
aF0.7214829921722412
aatp8
Rp9
.ccollections
OrderedDict
p0
((lp1
(lp2
S'state'
p3
aI0
aa(lp4
S'distance'
p5
aF384.9214172363281
aa(lp6
S'timestamp'
p7
aF0.730867862701416
aatp8
Rp9
.ccollections
OrderedDict
p0
((lp1
(lp2
S'state'
p3
aI0
aa(lp4
S'distance'
p5
aF384.9214172363281
aa(lp6
S'timestamp'
p7
aF0.7313928604125977
aatp8
Rp9
.ccollections
OrderedDict
p0
((lp1
(lp2
S'state'
p3
aI0
aa(lp4
S'distance'
p5
aF384.9214172363281
aa(lp6
S'timestamp'
p7
aF0.7408580780029297
aatp8
Rp9
.ccollections
OrderedDict
p0
((lp1
(lp2
S'state'
p3
aI0
aa(lp4
S'distance'
p5
aF384.9214172363281
aa(lp6
S'timestamp'
p7
aF0.7417809963226318
aatp8
Rp9
.ccollections
OrderedDict
p0
((lp1
(lp2
S'state'
p3
aI0
aa(lp4
S'distance'
p5
aF384.9214172363281
aa(lp6
S'timestamp'
p7
aF0.7509570121765137
aatp8
Rp9
.ccollections
OrderedDict
p0
((lp1
(lp2
S'state'
p3
aI0
aa(lp4
S'distance'
p5
aF384.9214172363281
aa(lp6
S'timestamp'
p7
aF0.7518980503082275
aatp8
Rp9
.ccollections
OrderedDict
p0
((lp1
(lp2
S'state'
p3
aI0
aa(lp4
S'distance'
p5
aF384.9214172363281
aa(lp6
S'timestamp'
p7
aF0.7608239650726318
aatp8
Rp9
.ccollections
OrderedDict
p0
((lp1
(lp2
S'state'
p3
aI0
aa(lp4
S'distance'
p5
aF384.9214172363281
aa(lp6
S'timestamp'
p7
aF0.7619359493255615
aatp8
Rp9
.ccollections
OrderedDict
p0
((lp1
(lp2
S'state'
p3
aI0
aa(lp4
S'distance'
p5
aF384.9214172363281
aa(lp6
S'timestamp'
p7
aF0.7708849906921387
aatp8
Rp9
.ccollections
OrderedDict
p0
((lp1
(lp2
S'state'
p3
aI0
aa(lp4
S'distance'
p5
aF384.9214172363281
aa(lp6
S'timestamp'
p7
aF0.7713580131530762
aatp8
Rp9
.ccollections
OrderedDict
p0
((lp1
(lp2
S'state'
p3
aI0
aa(lp4
S'distance'
p5
aF384.9214172363281
aa(lp6
S'timestamp'
p7
aF0.7808470726013184
aatp8
Rp9
.ccollections
OrderedDict
p0
((lp1
(lp2
S'state'
p3
aI0
aa(lp4
S'distance'
p5
aF384.9214172363281
aa(lp6
S'timestamp'
p7
aF0.7814140319824219
aatp8
Rp9
.ccollections
OrderedDict
p0
((lp1
(lp2
S'state'
p3
aI0
aa(lp4
S'distance'
p5
aF384.9214172363281
aa(lp6
S'timestamp'
p7
aF0.7909119129180908
aatp8
Rp9
.ccollections
OrderedDict
p0
((lp1
(lp2
S'state'
p3
aI0
aa(lp4
S'distance'
p5
aF384.9214172363281
aa(lp6
S'timestamp'
p7
aF0.7920160293579102
aatp8
Rp9
.ccollections
OrderedDict
p0
((lp1
(lp2
S'state'
p3
aI0
aa(lp4
S'distance'
p5
aF384.9214172363281
aa(lp6
S'timestamp'
p7
aF0.8006348609924316
aatp8
Rp9
.ccollections
OrderedDict
p0
((lp1
(lp2
S'state'
p3
aI0
aa(lp4
S'distance'
p5
aF384.9214172363281
aa(lp6
S'timestamp'
p7
aF0.8017029762268066
aatp8
Rp9
.ccollections
OrderedDict
p0
((lp1
(lp2
S'state'
p3
aI0
aa(lp4
S'distance'
p5
aF384.9214172363281
aa(lp6
S'timestamp'
p7
aF0.8107478618621826
aatp8
Rp9
.ccollections
OrderedDict
p0
((lp1
(lp2
S'state'
p3
aI0
aa(lp4
S'distance'
p5
aF384.9214172363281
aa(lp6
S'timestamp'
p7
aF0.8112170696258545
aatp8
Rp9
.ccollections
OrderedDict
p0
((lp1
(lp2
S'state'
p3
aI0
aa(lp4
S'distance'
p5
aF384.9214172363281
aa(lp6
S'timestamp'
p7
aF0.8205630779266357
aatp8
Rp9
.ccollections
OrderedDict
p0
((lp1
(lp2
S'state'
p3
aI0
aa(lp4
S'distance'
p5
aF384.9214172363281
aa(lp6
S'timestamp'
p7
aF0.8221650123596191
aatp8
Rp9
.ccollections
OrderedDict
p0
((lp1
(lp2
S'state'
p3
aI0
aa(lp4
S'distance'
p5
aF384.9214172363281
aa(lp6
S'timestamp'
p7
aF0.8307859897613525
aatp8
Rp9
.ccollections
OrderedDict
p0
((lp1
(lp2
S'state'
p3
aI0
aa(lp4
S'distance'
p5
aF384.9214172363281
aa(lp6
S'timestamp'
p7
aF0.8316199779510498
aatp8
Rp9
.ccollections
OrderedDict
p0
((lp1
(lp2
S'state'
p3
aI0
aa(lp4
S'distance'
p5
aF384.9214172363281
aa(lp6
S'timestamp'
p7
aF0.8409090042114258
aatp8
Rp9
.ccollections
OrderedDict
p0
((lp1
(lp2
S'state'
p3
aI0
aa(lp4
S'distance'
p5
aF384.9214172363281
aa(lp6
S'timestamp'
p7
aF0.8413200378417969
aatp8
Rp9
.ccollections
OrderedDict
p0
((lp1
(lp2
S'state'
p3
aI0
aa(lp4
S'distance'
p5
aF384.9214172363281
aa(lp6
S'timestamp'
p7
aF0.8509490489959717
aatp8
Rp9
.ccollections
OrderedDict
p0
((lp1
(lp2
S'state'
p3
aI0
aa(lp4
S'distance'
p5
aF384.9214172363281
aa(lp6
S'timestamp'
p7
aF0.8612120151519775
aatp8
Rp9
.ccollections
OrderedDict
p0
((lp1
(lp2
S'state'
p3
aI0
aa(lp4
S'distance'
p5
aF384.9214172363281
aa(lp6
S'timestamp'
p7
aF0.861954927444458
aatp8
Rp9
.ccollections
OrderedDict
p0
((lp1
(lp2
S'state'
p3
aI0
aa(lp4
S'distance'
p5
aF384.9214172363281
aa(lp6
S'timestamp'
p7
aF0.8636579513549805
aatp8
Rp9
.ccollections
OrderedDict
p0
((lp1
(lp2
S'state'
p3
aI0
aa(lp4
S'distance'
p5
aF384.9214172363281
aa(lp6
S'timestamp'
p7
aF0.8707859516143799
aatp8
Rp9
.ccollections
OrderedDict
p0
((lp1
(lp2
S'state'
p3
aI0
aa(lp4
S'distance'
p5
aF384.9214172363281
aa(lp6
S'timestamp'
p7
aF0.871412992477417
aatp8
Rp9
.ccollections
OrderedDict
p0
((lp1
(lp2
S'state'
p3
aI0
aa(lp4
S'distance'
p5
aF384.9214172363281
aa(lp6
S'timestamp'
p7
aF0.8806300163269043
aatp8
Rp9
.ccollections
OrderedDict
p0
((lp1
(lp2
S'state'
p3
aI0
aa(lp4
S'distance'
p5
aF384.9214172363281
aa(lp6
S'timestamp'
p7
aF0.8819890022277832
aatp8
Rp9
.ccollections
OrderedDict
p0
((lp1
(lp2
S'state'
p3
aI0
aa(lp4
S'distance'
p5
aF384.9214172363281
aa(lp6
S'timestamp'
p7
aF0.8908460140228271
aatp8
Rp9
.ccollections
OrderedDict
p0
((lp1
(lp2
S'state'
p3
aI0
aa(lp4
S'distance'
p5
aF384.9214172363281
aa(lp6
S'timestamp'
p7
aF0.9008378982543945
aatp8
Rp9
.ccollections
OrderedDict
p0
((lp1
(lp2
S'state'
p3
aI0
aa(lp4
S'distance'
p5
aF384.9214172363281
aa(lp6
S'timestamp'
p7
aF0.9016740322113037
aatp8
Rp9
.ccollections
OrderedDict
p0
((lp1
(lp2
S'state'
p3
aI0
aa(lp4
S'distance'
p5
aF384.9214172363281
aa(lp6
S'timestamp'
p7
aF0.9018678665161133
aatp8
Rp9
.ccollections
OrderedDict
p0
((lp1
(lp2
S'state'
p3
aI0
aa(lp4
S'distance'
p5
aF384.9214172363281
aa(lp6
S'timestamp'
p7
aF0.9108190536499023
aatp8
Rp9
.ccollections
OrderedDict
p0
((lp1
(lp2
S'state'
p3
aI0
aa(lp4
S'distance'
p5
aF384.9214172363281
aa(lp6
S'timestamp'
p7
aF0.9114248752593994
aatp8
Rp9
.ccollections
OrderedDict
p0
((lp1
(lp2
S'state'
p3
aI0
aa(lp4
S'distance'
p5
aF384.9214172363281
aa(lp6
S'timestamp'
p7
aF0.9207320213317871
aatp8
Rp9
.ccollections
OrderedDict
p0
((lp1
(lp2
S'state'
p3
aI0
aa(lp4
S'distance'
p5
aF384.9214172363281
aa(lp6
S'timestamp'
p7
aF0.9219470024108887
aatp8
Rp9
.ccollections
OrderedDict
p0
((lp1
(lp2
S'state'
p3
aI0
aa(lp4
S'distance'
p5
aF384.9214172363281
aa(lp6
S'timestamp'
p7
aF0.9307780265808105
aatp8
Rp9
.ccollections
OrderedDict
p0
((lp1
(lp2
S'state'
p3
aI0
aa(lp4
S'distance'
p5
aF384.9214172363281
aa(lp6
S'timestamp'
p7
aF0.9314489364624023
aatp8
Rp9
.ccollections
OrderedDict
p0
((lp1
(lp2
S'state'
p3
aI0
aa(lp4
S'distance'
p5
aF384.9214172363281
aa(lp6
S'timestamp'
p7
aF0.9407858848571777
aatp8
Rp9
.ccollections
OrderedDict
p0
((lp1
(lp2
S'state'
p3
aI0
aa(lp4
S'distance'
p5
aF384.9214172363281
aa(lp6
S'timestamp'
p7
aF0.9414138793945312
aatp8
Rp9
.ccollections
OrderedDict
p0
((lp1
(lp2
S'state'
p3
aI0
aa(lp4
S'distance'
p5
aF384.9214172363281
aa(lp6
S'timestamp'
p7
aF0.9507648944854736
aatp8
Rp9
.ccollections
OrderedDict
p0
((lp1
(lp2
S'state'
p3
aI0
aa(lp4
S'distance'
p5
aF384.9214172363281
aa(lp6
S'timestamp'
p7
aF0.951941967010498
aatp8
Rp9
.ccollections
OrderedDict
p0
((lp1
(lp2
S'state'
p3
aI0
aa(lp4
S'distance'
p5
aF384.9214172363281
aa(lp6
S'timestamp'
p7
aF0.9607529640197754
aatp8
Rp9
.ccollections
OrderedDict
p0
((lp1
(lp2
S'state'
p3
aI0
aa(lp4
S'distance'
p5
aF384.9214172363281
aa(lp6
S'timestamp'
p7
aF0.9614698886871338
aatp8
Rp9
.ccollections
OrderedDict
p0
((lp1
(lp2
S'state'
p3
aI0
aa(lp4
S'distance'
p5
aF384.9214172363281
aa(lp6
S'timestamp'
p7
aF0.9706909656524658
aatp8
Rp9
.ccollections
OrderedDict
p0
((lp1
(lp2
S'state'
p3
aI0
aa(lp4
S'distance'
p5
aF384.9214172363281
aa(lp6
S'timestamp'
p7
aF0.9713819026947021
aatp8
Rp9
.ccollections
OrderedDict
p0
((lp1
(lp2
S'state'
p3
aI0
aa(lp4
S'distance'
p5
aF384.9214172363281
aa(lp6
S'timestamp'
p7
aF0.9908220767974854
aatp8
Rp9
.ccollections
OrderedDict
p0
((lp1
(lp2
S'state'
p3
aI0
aa(lp4
S'distance'
p5
aF384.9214172363281
aa(lp6
S'timestamp'
p7
aF0.9915599822998047
aatp8
Rp9
.ccollections
OrderedDict
p0
((lp1
(lp2
S'state'
p3
aI0
aa(lp4
S'distance'
p5
aF384.9214172363281
aa(lp6
S'timestamp'
p7
aF0.992408037185669
aatp8
Rp9
.ccollections
OrderedDict
p0
((lp1
(lp2
S'state'
p3
aI0
aa(lp4
S'distance'
p5
aF384.9214172363281
aa(lp6
S'timestamp'
p7
aF0.9933280944824219
aatp8
Rp9
.ccollections
OrderedDict
p0
((lp1
(lp2
S'state'
p3
aI0
aa(lp4
S'distance'
p5
aF384.9214172363281
aa(lp6
S'timestamp'
p7
aF1.0007719993591309
aatp8
Rp9
.ccollections
OrderedDict
p0
((lp1
(lp2
S'state'
p3
aI0
aa(lp4
S'distance'
p5
aF384.9214172363281
aa(lp6
S'timestamp'
p7
aF1.0014169216156006
aatp8
Rp9
.ccollections
OrderedDict
p0
((lp1
(lp2
S'state'
p3
aI0
aa(lp4
S'distance'
p5
aF384.9214172363281
aa(lp6
S'timestamp'
p7
aF1.010767936706543
aatp8
Rp9
.ccollections
OrderedDict
p0
((lp1
(lp2
S'state'
p3
aI0
aa(lp4
S'distance'
p5
aF384.9214172363281
aa(lp6
S'timestamp'
p7
aF1.0113530158996582
aatp8
Rp9
.ccollections
OrderedDict
p0
((lp1
(lp2
S'state'
p3
aI0
aa(lp4
S'distance'
p5
aF384.9214172363281
aa(lp6
S'timestamp'
p7
aF1.0207440853118896
aatp8
Rp9
.ccollections
OrderedDict
p0
((lp1
(lp2
S'state'
p3
aI0
aa(lp4
S'distance'
p5
aF384.9214172363281
aa(lp6
S'timestamp'
p7
aF1.0214118957519531
aatp8
Rp9
.ccollections
OrderedDict
p0
((lp1
(lp2
S'state'
p3
aI0
aa(lp4
S'distance'
p5
aF384.9214172363281
aa(lp6
S'timestamp'
p7
aF1.0307490825653076
aatp8
Rp9
.ccollections
OrderedDict
p0
((lp1
(lp2
S'state'
p3
aI0
aa(lp4
S'distance'
p5
aF384.9214172363281
aa(lp6
S'timestamp'
p7
aF1.0314300060272217
aatp8
Rp9
.ccollections
OrderedDict
p0
((lp1
(lp2
S'state'
p3
aI0
aa(lp4
S'distance'
p5
aF384.9214172363281
aa(lp6
S'timestamp'
p7
aF1.0407099723815918
aatp8
Rp9
.ccollections
OrderedDict
p0
((lp1
(lp2
S'state'
p3
aI0
aa(lp4
S'distance'
p5
aF384.9214172363281
aa(lp6
S'timestamp'
p7
aF1.0413129329681396
aatp8
Rp9
.ccollections
OrderedDict
p0
((lp1
(lp2
S'state'
p3
aI0
aa(lp4
S'distance'
p5
aF384.9214172363281
aa(lp6
S'timestamp'
p7
aF1.0507738590240479
aatp8
Rp9
.ccollections
OrderedDict
p0
((lp1
(lp2
S'state'
p3
aI0
aa(lp4
S'distance'
p5
aF384.9214172363281
aa(lp6
S'timestamp'
p7
aF1.0513520240783691
aatp8
Rp9
.ccollections
OrderedDict
p0
((lp1
(lp2
S'state'
p3
aI0
aa(lp4
S'distance'
p5
aF384.9214172363281
aa(lp6
S'timestamp'
p7
aF1.0610110759735107
aatp8
Rp9
.ccollections
OrderedDict
p0
((lp1
(lp2
S'state'
p3
aI0
aa(lp4
S'distance'
p5
aF384.9214172363281
aa(lp6
S'timestamp'
p7
aF1.0613958835601807
aatp8
Rp9
.ccollections
OrderedDict
p0
((lp1
(lp2
S'state'
p3
aI0
aa(lp4
S'distance'
p5
aF384.9214172363281
aa(lp6
S'timestamp'
p7
aF1.0707519054412842
aatp8
Rp9
.ccollections
OrderedDict
p0
((lp1
(lp2
S'state'
p3
aI0
aa(lp4
S'distance'
p5
aF384.9214172363281
aa(lp6
S'timestamp'
p7
aF1.071394920349121
aatp8
Rp9
.ccollections
OrderedDict
p0
((lp1
(lp2
S'state'
p3
aI0
aa(lp4
S'distance'
p5
aF384.9214172363281
aa(lp6
S'timestamp'
p7
aF1.0807130336761475
aatp8
Rp9
.ccollections
OrderedDict
p0
((lp1
(lp2
S'state'
p3
aI0
aa(lp4
S'distance'
p5
aF384.9214172363281
aa(lp6
S'timestamp'
p7
aF1.0813829898834229
aatp8
Rp9
.ccollections
OrderedDict
p0
((lp1
(lp2
S'state'
p3
aI0
aa(lp4
S'distance'
p5
aF384.9214172363281
aa(lp6
S'timestamp'
p7
aF1.0907580852508545
aatp8
Rp9
.ccollections
OrderedDict
p0
((lp1
(lp2
S'state'
p3
aI0
aa(lp4
S'distance'
p5
aF384.9214172363281
aa(lp6
S'timestamp'
p7
aF1.0913879871368408
aatp8
Rp9
.ccollections
OrderedDict
p0
((lp1
(lp2
S'state'
p3
aI0
aa(lp4
S'distance'
p5
aF384.9214172363281
aa(lp6
S'timestamp'
p7
aF1.1108009815216064
aatp8
Rp9
.ccollections
OrderedDict
p0
((lp1
(lp2
S'state'
p3
aI0
aa(lp4
S'distance'
p5
aF384.9214172363281
aa(lp6
S'timestamp'
p7
aF1.1129238605499268
aatp8
Rp9
.ccollections
OrderedDict
p0
((lp1
(lp2
S'state'
p3
aI0
aa(lp4
S'distance'
p5
aF384.9214172363281
aa(lp6
S'timestamp'
p7
aF1.1137230396270752
aatp8
Rp9
.ccollections
OrderedDict
p0
((lp1
(lp2
S'state'
p3
aI0
aa(lp4
S'distance'
p5
aF384.9214172363281
aa(lp6
S'timestamp'
p7
aF1.1138858795166016
aatp8
Rp9
.ccollections
OrderedDict
p0
((lp1
(lp2
S'state'
p3
aI0
aa(lp4
S'distance'
p5
aF384.9214172363281
aa(lp6
S'timestamp'
p7
aF1.1208000183105469
aatp8
Rp9
.ccollections
OrderedDict
p0
((lp1
(lp2
S'state'
p3
aI0
aa(lp4
S'distance'
p5
aF384.9214172363281
aa(lp6
S'timestamp'
p7
aF1.1213278770446777
aatp8
Rp9
.ccollections
OrderedDict
p0
((lp1
(lp2
S'state'
p3
aI0
aa(lp4
S'distance'
p5
aF384.9214172363281
aa(lp6
S'timestamp'
p7
aF1.1306500434875488
aatp8
Rp9
.ccollections
OrderedDict
p0
((lp1
(lp2
S'state'
p3
aI0
aa(lp4
S'distance'
p5
aF384.9214172363281
aa(lp6
S'timestamp'
p7
aF1.1313660144805908
aatp8
Rp9
.ccollections
OrderedDict
p0
((lp1
(lp2
S'state'
p3
aI0
aa(lp4
S'distance'
p5
aF384.9214172363281
aa(lp6
S'timestamp'
p7
aF1.140650987625122
aatp8
Rp9
.ccollections
OrderedDict
p0
((lp1
(lp2
S'state'
p3
aI0
aa(lp4
S'distance'
p5
aF384.9214172363281
aa(lp6
S'timestamp'
p7
aF1.1421458721160889
aatp8
Rp9
.ccollections
OrderedDict
p0
((lp1
(lp2
S'state'
p3
aI0
aa(lp4
S'distance'
p5
aF384.9214172363281
aa(lp6
S'timestamp'
p7
aF1.1507399082183838
aatp8
Rp9
.ccollections
OrderedDict
p0
((lp1
(lp2
S'state'
p3
aI0
aa(lp4
S'distance'
p5
aF384.9214172363281
aa(lp6
S'timestamp'
p7
aF1.151397943496704
aatp8
Rp9
.ccollections
OrderedDict
p0
((lp1
(lp2
S'state'
p3
aI0
aa(lp4
S'distance'
p5
aF384.9214172363281
aa(lp6
S'timestamp'
p7
aF1.1607260704040527
aatp8
Rp9
.ccollections
OrderedDict
p0
((lp1
(lp2
S'state'
p3
aI0
aa(lp4
S'distance'
p5
aF384.9214172363281
aa(lp6
S'timestamp'
p7
aF1.1614079475402832
aatp8
Rp9
.ccollections
OrderedDict
p0
((lp1
(lp2
S'state'
p3
aI0
aa(lp4
S'distance'
p5
aF384.9214172363281
aa(lp6
S'timestamp'
p7
aF1.170715093612671
aatp8
Rp9
.ccollections
OrderedDict
p0
((lp1
(lp2
S'state'
p3
aI0
aa(lp4
S'distance'
p5
aF384.9214172363281
aa(lp6
S'timestamp'
p7
aF1.171386957168579
aatp8
Rp9
.ccollections
OrderedDict
p0
((lp1
(lp2
S'state'
p3
aI0
aa(lp4
S'distance'
p5
aF384.9214172363281
aa(lp6
S'timestamp'
p7
aF1.1806988716125488
aatp8
Rp9
.ccollections
OrderedDict
p0
((lp1
(lp2
S'state'
p3
aI0
aa(lp4
S'distance'
p5
aF384.9214172363281
aa(lp6
S'timestamp'
p7
aF1.1814510822296143
aatp8
Rp9
.ccollections
OrderedDict
p0
((lp1
(lp2
S'state'
p3
aI0
aa(lp4
S'distance'
p5
aF384.9214172363281
aa(lp6
S'timestamp'
p7
aF1.1910600662231445
aatp8
Rp9
.ccollections
OrderedDict
p0
((lp1
(lp2
S'state'
p3
aI0
aa(lp4
S'distance'
p5
aF384.9214172363281
aa(lp6
S'timestamp'
p7
aF1.191236972808838
aatp8
Rp9
.ccollections
OrderedDict
p0
((lp1
(lp2
S'state'
p3
aI0
aa(lp4
S'distance'
p5
aF384.9214172363281
aa(lp6
S'timestamp'
p7
aF1.2007770538330078
aatp8
Rp9
.ccollections
OrderedDict
p0
((lp1
(lp2
S'state'
p3
aI0
aa(lp4
S'distance'
p5
aF384.9214172363281
aa(lp6
S'timestamp'
p7
aF1.2016968727111816
aatp8
Rp9
.ccollections
OrderedDict
p0
((lp1
(lp2
S'state'
p3
aI0
aa(lp4
S'distance'
p5
aF384.9214172363281
aa(lp6
S'timestamp'
p7
aF1.2108938694000244
aatp8
Rp9
.ccollections
OrderedDict
p0
((lp1
(lp2
S'state'
p3
aI0
aa(lp4
S'distance'
p5
aF384.9214172363281
aa(lp6
S'timestamp'
p7
aF1.211595058441162
aatp8
Rp9
.ccollections
OrderedDict
p0
((lp1
(lp2
S'state'
p3
aI0
aa(lp4
S'distance'
p5
aF384.9214172363281
aa(lp6
S'timestamp'
p7
aF1.2406680583953857
aatp8
Rp9
.ccollections
OrderedDict
p0
((lp1
(lp2
S'state'
p3
aI0
aa(lp4
S'distance'
p5
aF384.9214172363281
aa(lp6
S'timestamp'
p7
aF1.2414610385894775
aatp8
Rp9
.ccollections
OrderedDict
p0
((lp1
(lp2
S'state'
p3
aI0
aa(lp4
S'distance'
p5
aF384.9214172363281
aa(lp6
S'timestamp'
p7
aF1.2420110702514648
aatp8
Rp9
.ccollections
OrderedDict
p0
((lp1
(lp2
S'state'
p3
aI0
aa(lp4
S'distance'
p5
aF384.9214172363281
aa(lp6
S'timestamp'
p7
aF1.242790937423706
aatp8
Rp9
.ccollections
OrderedDict
p0
((lp1
(lp2
S'state'
p3
aI0
aa(lp4
S'distance'
p5
aF384.9214172363281
aa(lp6
S'timestamp'
p7
aF1.2510960102081299
aatp8
Rp9
.ccollections
OrderedDict
p0
((lp1
(lp2
S'state'
p3
aI0
aa(lp4
S'distance'
p5
aF384.9214172363281
aa(lp6
S'timestamp'
p7
aF1.2511940002441406
aatp8
Rp9
.ccollections
OrderedDict
p0
((lp1
(lp2
S'state'
p3
aI0
aa(lp4
S'distance'
p5
aF384.9214172363281
aa(lp6
S'timestamp'
p7
aF1.2524199485778809
aatp8
Rp9
.ccollections
OrderedDict
p0
((lp1
(lp2
S'state'
p3
aI0
aa(lp4
S'distance'
p5
aF384.9214172363281
aa(lp6
S'timestamp'
p7
aF1.2531640529632568
aatp8
Rp9
.ccollections
OrderedDict
p0
((lp1
(lp2
S'state'
p3
aI0
aa(lp4
S'distance'
p5
aF384.9214172363281
aa(lp6
S'timestamp'
p7
aF1.2607100009918213
aatp8
Rp9
.ccollections
OrderedDict
p0
((lp1
(lp2
S'state'
p3
aI0
aa(lp4
S'distance'
p5
aF384.9214172363281
aa(lp6
S'timestamp'
p7
aF1.2615818977355957
aatp8
Rp9
.ccollections
OrderedDict
p0
((lp1
(lp2
S'state'
p3
aI0
aa(lp4
S'distance'
p5
aF384.9214172363281
aa(lp6
S'timestamp'
p7
aF1.2706570625305176
aatp8
Rp9
.ccollections
OrderedDict
p0
((lp1
(lp2
S'state'
p3
aI0
aa(lp4
S'distance'
p5
aF384.9214172363281
aa(lp6
S'timestamp'
p7
aF1.2714998722076416
aatp8
Rp9
.ccollections
OrderedDict
p0
((lp1
(lp2
S'state'
p3
aI0
aa(lp4
S'distance'
p5
aF384.9214172363281
aa(lp6
S'timestamp'
p7
aF1.2804648876190186
aatp8
Rp9
.ccollections
OrderedDict
p0
((lp1
(lp2
S'state'
p3
aI0
aa(lp4
S'distance'
p5
aF384.9214172363281
aa(lp6
S'timestamp'
p7
aF1.2814738750457764
aatp8
Rp9
.ccollections
OrderedDict
p0
((lp1
(lp2
S'state'
p3
aI0
aa(lp4
S'distance'
p5
aF384.9214172363281
aa(lp6
S'timestamp'
p7
aF1.2905590534210205
aatp8
Rp9
.ccollections
OrderedDict
p0
((lp1
(lp2
S'state'
p3
aI400
aa(lp4
S'distance'
p5
aF384.9214172363281
aa(lp6
S'timestamp'
p7
aF1.2917420864105225
aatp8
Rp9
.ccollections
OrderedDict
p0
((lp1
(lp2
S'state'
p3
aI400
aa(lp4
S'distance'
p5
aF384.9214172363281
aa(lp6
S'timestamp'
p7
aF1.3007450103759766
aatp8
Rp9
.ccollections
OrderedDict
p0
((lp1
(lp2
S'state'
p3
aI400
aa(lp4
S'distance'
p5
aF384.9214172363281
aa(lp6
S'timestamp'
p7
aF1.3011999130249023
aatp8
Rp9
.ccollections
OrderedDict
p0
((lp1
(lp2
S'state'
p3
aI400
aa(lp4
S'distance'
p5
aF384.9214172363281
aa(lp6
S'timestamp'
p7
aF1.3118669986724854
aatp8
Rp9
.ccollections
OrderedDict
p0
((lp1
(lp2
S'state'
p3
aI400
aa(lp4
S'distance'
p5
aF384.9214172363281
aa(lp6
S'timestamp'
p7
aF1.312812089920044
aatp8
Rp9
.ccollections
OrderedDict
p0
((lp1
(lp2
S'state'
p3
aI400
aa(lp4
S'distance'
p5
aF384.9214172363281
aa(lp6
S'timestamp'
p7
aF1.3207058906555176
aatp8
Rp9
.ccollections
OrderedDict
p0
((lp1
(lp2
S'state'
p3
aI400
aa(lp4
S'distance'
p5
aF384.9214172363281
aa(lp6
S'timestamp'
p7
aF1.3216650485992432
aatp8
Rp9
.ccollections
OrderedDict
p0
((lp1
(lp2
S'state'
p3
aI400
aa(lp4
S'distance'
p5
aF384.9214172363281
aa(lp6
S'timestamp'
p7
aF1.3312420845031738
aatp8
Rp9
.ccollections
OrderedDict
p0
((lp1
(lp2
S'state'
p3
aI400
aa(lp4
S'distance'
p5
aF384.9214172363281
aa(lp6
S'timestamp'
p7
aF1.3314900398254395
aatp8
Rp9
.ccollections
OrderedDict
p0
((lp1
(lp2
S'state'
p3
aI400
aa(lp4
S'distance'
p5
aF384.9214172363281
aa(lp6
S'timestamp'
p7
aF1.3406610488891602
aatp8
Rp9
.ccollections
OrderedDict
p0
((lp1
(lp2
S'state'
p3
aI400
aa(lp4
S'distance'
p5
aF384.9214172363281
aa(lp6
S'timestamp'
p7
aF1.341446876525879
aatp8
Rp9
.ccollections
OrderedDict
p0
((lp1
(lp2
S'state'
p3
aI400
aa(lp4
S'distance'
p5
aF384.9214172363281
aa(lp6
S'timestamp'
p7
aF1.350787878036499
aatp8
Rp9
.ccollections
OrderedDict
p0
((lp1
(lp2
S'state'
p3
aI400
aa(lp4
S'distance'
p5
aF384.9214172363281
aa(lp6
S'timestamp'
p7
aF1.3514220714569092
aatp8
Rp9
.ccollections
OrderedDict
p0
((lp1
(lp2
S'state'
p3
aI400
aa(lp4
S'distance'
p5
aF384.9214172363281
aa(lp6
S'timestamp'
p7
aF1.360508918762207
aatp8
Rp9
.ccollections
OrderedDict
p0
((lp1
(lp2
S'state'
p3
aI400
aa(lp4
S'distance'
p5
aF384.9214172363281
aa(lp6
S'timestamp'
p7
aF1.361840009689331
aatp8
Rp9
.ccollections
OrderedDict
p0
((lp1
(lp2
S'state'
p3
aI400
aa(lp4
S'distance'
p5
aF384.9214172363281
aa(lp6
S'timestamp'
p7
aF1.370548963546753
aatp8
Rp9
.ccollections
OrderedDict
p0
((lp1
(lp2
S'state'
p3
aI400
aa(lp4
S'distance'
p5
aF384.9214172363281
aa(lp6
S'timestamp'
p7
aF1.3714148998260498
aatp8
Rp9
.ccollections
OrderedDict
p0
((lp1
(lp2
S'state'
p3
aI400
aa(lp4
S'distance'
p5
aF384.9214172363281
aa(lp6
S'timestamp'
p7
aF1.3805620670318604
aatp8
Rp9
.ccollections
OrderedDict
p0
((lp1
(lp2
S'state'
p3
aI400
aa(lp4
S'distance'
p5
aF384.9214172363281
aa(lp6
S'timestamp'
p7
aF1.3816359043121338
aatp8
Rp9
.ccollections
OrderedDict
p0
((lp1
(lp2
S'state'
p3
aI400
aa(lp4
S'distance'
p5
aF384.9214172363281
aa(lp6
S'timestamp'
p7
aF1.3905460834503174
aatp8
Rp9
.ccollections
OrderedDict
p0
((lp1
(lp2
S'state'
p3
aI400
aa(lp4
S'distance'
p5
aF384.9214172363281
aa(lp6
S'timestamp'
p7
aF1.3914070129394531
aatp8
Rp9
.ccollections
OrderedDict
p0
((lp1
(lp2
S'state'
p3
aI400
aa(lp4
S'distance'
p5
aF384.9214172363281
aa(lp6
S'timestamp'
p7
aF1.4006099700927734
aatp8
Rp9
.ccollections
OrderedDict
p0
((lp1
(lp2
S'state'
p3
aI400
aa(lp4
S'distance'
p5
aF384.9214172363281
aa(lp6
S'timestamp'
p7
aF1.4014639854431152
aatp8
Rp9
.ccollections
OrderedDict
p0
((lp1
(lp2
S'state'
p3
aI400
aa(lp4
S'distance'
p5
aF384.9214172363281
aa(lp6
S'timestamp'
p7
aF1.4104769229888916
aatp8
Rp9
.ccollections
OrderedDict
p0
((lp1
(lp2
S'state'
p3
aI400
aa(lp4
S'distance'
p5
aF384.9214172363281
aa(lp6
S'timestamp'
p7
aF1.4115300178527832
aatp8
Rp9
.ccollections
OrderedDict
p0
((lp1
(lp2
S'state'
p3
aI400
aa(lp4
S'distance'
p5
aF384.9214172363281
aa(lp6
S'timestamp'
p7
aF1.420543909072876
aatp8
Rp9
.ccollections
OrderedDict
p0
((lp1
(lp2
S'state'
p3
aI400
aa(lp4
S'distance'
p5
aF384.9214172363281
aa(lp6
S'timestamp'
p7
aF1.4214019775390625
aatp8
Rp9
.ccollections
OrderedDict
p0
((lp1
(lp2
S'state'
p3
aI400
aa(lp4
S'distance'
p5
aF384.9214172363281
aa(lp6
S'timestamp'
p7
aF1.4305419921875
aatp8
Rp9
.ccollections
OrderedDict
p0
((lp1
(lp2
S'state'
p3
aI400
aa(lp4
S'distance'
p5
aF384.9214172363281
aa(lp6
S'timestamp'
p7
aF1.431447982788086
aatp8
Rp9
.ccollections
OrderedDict
p0
((lp1
(lp2
S'state'
p3
aI400
aa(lp4
S'distance'
p5
aF384.9214172363281
aa(lp6
S'timestamp'
p7
aF1.4405419826507568
aatp8
Rp9
.ccollections
OrderedDict
p0
((lp1
(lp2
S'state'
p3
aI400
aa(lp4
S'distance'
p5
aF384.9214172363281
aa(lp6
S'timestamp'
p7
aF1.4413959980010986
aatp8
Rp9
.ccollections
OrderedDict
p0
((lp1
(lp2
S'state'
p3
aI400
aa(lp4
S'distance'
p5
aF384.9214172363281
aa(lp6
S'timestamp'
p7
aF1.4505279064178467
aatp8
Rp9
.ccollections
OrderedDict
p0
((lp1
(lp2
S'state'
p3
aI400
aa(lp4
S'distance'
p5
aF384.9214172363281
aa(lp6
S'timestamp'
p7
aF1.4513800144195557
aatp8
Rp9
.ccollections
OrderedDict
p0
((lp1
(lp2
S'state'
p3
aI400
aa(lp4
S'distance'
p5
aF384.9214172363281
aa(lp6
S'timestamp'
p7
aF1.4607000350952148
aatp8
Rp9
.ccollections
OrderedDict
p0
((lp1
(lp2
S'state'
p3
aI400
aa(lp4
S'distance'
p5
aF384.9214172363281
aa(lp6
S'timestamp'
p7
aF1.4614579677581787
aatp8
Rp9
.ccollections
OrderedDict
p0
((lp1
(lp2
S'state'
p3
aI400
aa(lp4
S'distance'
p5
aF384.9214172363281
aa(lp6
S'timestamp'
p7
aF1.4805550575256348
aatp8
Rp9
.ccollections
OrderedDict
p0
((lp1
(lp2
S'state'
p3
aI400
aa(lp4
S'distance'
p5
aF384.9214172363281
aa(lp6
S'timestamp'
p7
aF1.4812850952148438
aatp8
Rp9
.ccollections
OrderedDict
p0
((lp1
(lp2
S'state'
p3
aI400
aa(lp4
S'distance'
p5
aF384.9214172363281
aa(lp6
S'timestamp'
p7
aF1.483396053314209
aatp8
Rp9
.ccollections
OrderedDict
p0
((lp1
(lp2
S'state'
p3
aI400
aa(lp4
S'distance'
p5
aF384.9214172363281
aa(lp6
S'timestamp'
p7
aF1.484246015548706
aatp8
Rp9
.ccollections
OrderedDict
p0
((lp1
(lp2
S'state'
p3
aI400
aa(lp4
S'distance'
p5
aF384.9214172363281
aa(lp6
S'timestamp'
p7
aF1.4905760288238525
aatp8
Rp9
.ccollections
OrderedDict
p0
((lp1
(lp2
S'state'
p3
aI400
aa(lp4
S'distance'
p5
aF384.9214172363281
aa(lp6
S'timestamp'
p7
aF1.4933969974517822
aatp8
Rp9
.ccollections
OrderedDict
p0
((lp1
(lp2
S'state'
p3
aI400
aa(lp4
S'distance'
p5
aF384.9214172363281
aa(lp6
S'timestamp'
p7
aF1.5005300045013428
aatp8
Rp9
.ccollections
OrderedDict
p0
((lp1
(lp2
S'state'
p3
aI400
aa(lp4
S'distance'
p5
aF384.9214172363281
aa(lp6
S'timestamp'
p7
aF1.5013890266418457
aatp8
Rp9
.ccollections
OrderedDict
p0
((lp1
(lp2
S'state'
p3
aI400
aa(lp4
S'distance'
p5
aF384.9214172363281
aa(lp6
S'timestamp'
p7
aF1.510422945022583
aatp8
Rp9
.ccollections
OrderedDict
p0
((lp1
(lp2
S'state'
p3
aI400
aa(lp4
S'distance'
p5
aF384.9214172363281
aa(lp6
S'timestamp'
p7
aF1.5114340782165527
aatp8
Rp9
.ccollections
OrderedDict
p0
((lp1
(lp2
S'state'
p3
aI400
aa(lp4
S'distance'
p5
aF384.9214172363281
aa(lp6
S'timestamp'
p7
aF1.520474910736084
aatp8
Rp9
.ccollections
OrderedDict
p0
((lp1
(lp2
S'state'
p3
aI400
aa(lp4
S'distance'
p5
aF384.9214172363281
aa(lp6
S'timestamp'
p7
aF1.5214390754699707
aatp8
Rp9
.ccollections
OrderedDict
p0
((lp1
(lp2
S'state'
p3
aI400
aa(lp4
S'distance'
p5
aF384.9214172363281
aa(lp6
S'timestamp'
p7
aF1.5305240154266357
aatp8
Rp9
.ccollections
OrderedDict
p0
((lp1
(lp2
S'state'
p3
aI400
aa(lp4
S'distance'
p5
aF384.9214172363281
aa(lp6
S'timestamp'
p7
aF1.5318958759307861
aatp8
Rp9
.ccollections
OrderedDict
p0
((lp1
(lp2
S'state'
p3
aI400
aa(lp4
S'distance'
p5
aF384.9214172363281
aa(lp6
S'timestamp'
p7
aF1.5405800342559814
aatp8
Rp9
.ccollections
OrderedDict
p0
((lp1
(lp2
S'state'
p3
aI400
aa(lp4
S'distance'
p5
aF384.9214172363281
aa(lp6
S'timestamp'
p7
aF1.5413310527801514
aatp8
Rp9
.ccollections
OrderedDict
p0
((lp1
(lp2
S'state'
p3
aI400
aa(lp4
S'distance'
p5
aF384.9214172363281
aa(lp6
S'timestamp'
p7
aF1.5505750179290771
aatp8
Rp9
.ccollections
OrderedDict
p0
((lp1
(lp2
S'state'
p3
aI400
aa(lp4
S'distance'
p5
aF384.9214172363281
aa(lp6
S'timestamp'
p7
aF1.5513100624084473
aatp8
Rp9
.ccollections
OrderedDict
p0
((lp1
(lp2
S'state'
p3
aI400
aa(lp4
S'distance'
p5
aF384.9214172363281
aa(lp6
S'timestamp'
p7
aF1.5606729984283447
aatp8
Rp9
.ccollections
OrderedDict
p0
((lp1
(lp2
S'state'
p3
aI400
aa(lp4
S'distance'
p5
aF384.9214172363281
aa(lp6
S'timestamp'
p7
aF1.5617129802703857
aatp8
Rp9
.ccollections
OrderedDict
p0
((lp1
(lp2
S'state'
p3
aI400
aa(lp4
S'distance'
p5
aF384.9214172363281
aa(lp6
S'timestamp'
p7
aF1.570647954940796
aatp8
Rp9
.ccollections
OrderedDict
p0
((lp1
(lp2
S'state'
p3
aI400
aa(lp4
S'distance'
p5
aF384.9214172363281
aa(lp6
S'timestamp'
p7
aF1.5717809200286865
aatp8
Rp9
.ccollections
OrderedDict
p0
((lp1
(lp2
S'state'
p3
aI400
aa(lp4
S'distance'
p5
aF384.9214172363281
aa(lp6
S'timestamp'
p7
aF1.5805139541625977
aatp8
Rp9
.ccollections
OrderedDict
p0
((lp1
(lp2
S'state'
p3
aI400
aa(lp4
S'distance'
p5
aF384.9214172363281
aa(lp6
S'timestamp'
p7
aF1.5815670490264893
aatp8
Rp9
.ccollections
OrderedDict
p0
((lp1
(lp2
S'state'
p3
aI400
aa(lp4
S'distance'
p5
aF384.9214172363281
aa(lp6
S'timestamp'
p7
aF1.5905120372772217
aatp8
Rp9
.ccollections
OrderedDict
p0
((lp1
(lp2
S'state'
p3
aI400
aa(lp4
S'distance'
p5
aF384.9214172363281
aa(lp6
S'timestamp'
p7
aF1.6006109714508057
aatp8
Rp9
.ccollections
OrderedDict
p0
((lp1
(lp2
S'state'
p3
aI400
aa(lp4
S'distance'
p5
aF384.9214172363281
aa(lp6
S'timestamp'
p7
aF1.6013619899749756
aatp8
Rp9
.ccollections
OrderedDict
p0
((lp1
(lp2
S'state'
p3
aI400
aa(lp4
S'distance'
p5
aF384.9214172363281
aa(lp6
S'timestamp'
p7
aF1.6032130718231201
aatp8
Rp9
.ccollections
OrderedDict
p0
((lp1
(lp2
S'state'
p3
aI400
aa(lp4
S'distance'
p5
aF384.9214172363281
aa(lp6
S'timestamp'
p7
aF1.6107230186462402
aatp8
Rp9
.ccollections
OrderedDict
p0
((lp1
(lp2
S'state'
p3
aI400
aa(lp4
S'distance'
p5
aF384.9214172363281
aa(lp6
S'timestamp'
p7
aF1.6113300323486328
aatp8
Rp9
.ccollections
OrderedDict
p0
((lp1
(lp2
S'state'
p3
aI400
aa(lp4
S'distance'
p5
aF384.9214172363281
aa(lp6
S'timestamp'
p7
aF1.620419979095459
aatp8
Rp9
.ccollections
OrderedDict
p0
((lp1
(lp2
S'state'
p3
aI400
aa(lp4
S'distance'
p5
aF384.9214172363281
aa(lp6
S'timestamp'
p7
aF1.6214730739593506
aatp8
Rp9
.ccollections
OrderedDict
p0
((lp1
(lp2
S'state'
p3
aI400
aa(lp4
S'distance'
p5
aF384.9214172363281
aa(lp6
S'timestamp'
p7
aF1.630586862564087
aatp8
Rp9
.ccollections
OrderedDict
p0
((lp1
(lp2
S'state'
p3
aI400
aa(lp4
S'distance'
p5
aF384.9214172363281
aa(lp6
S'timestamp'
p7
aF1.6314399242401123
aatp8
Rp9
.ccollections
OrderedDict
p0
((lp1
(lp2
S'state'
p3
aI400
aa(lp4
S'distance'
p5
aF384.9214172363281
aa(lp6
S'timestamp'
p7
aF1.6405079364776611
aatp8
Rp9
.ccollections
OrderedDict
p0
((lp1
(lp2
S'state'
p3
aI400
aa(lp4
S'distance'
p5
aF384.9214172363281
aa(lp6
S'timestamp'
p7
aF1.6417748928070068
aatp8
Rp9
.ccollections
OrderedDict
p0
((lp1
(lp2
S'state'
p3
aI400
aa(lp4
S'distance'
p5
aF384.9214172363281
aa(lp6
S'timestamp'
p7
aF1.6507689952850342
aatp8
Rp9
.ccollections
OrderedDict
p0
((lp1
(lp2
S'state'
p3
aI400
aa(lp4
S'distance'
p5
aF384.9214172363281
aa(lp6
S'timestamp'
p7
aF1.65118408203125
aatp8
Rp9
.ccollections
OrderedDict
p0
((lp1
(lp2
S'state'
p3
aI400
aa(lp4
S'distance'
p5
aF384.9214172363281
aa(lp6
S'timestamp'
p7
aF1.6606340408325195
aatp8
Rp9
.ccollections
OrderedDict
p0
((lp1
(lp2
S'state'
p3
aI400
aa(lp4
S'distance'
p5
aF384.9214172363281
aa(lp6
S'timestamp'
p7
aF1.661712884902954
aatp8
Rp9
.ccollections
OrderedDict
p0
((lp1
(lp2
S'state'
p3
aI400
aa(lp4
S'distance'
p5
aF384.9214172363281
aa(lp6
S'timestamp'
p7
aF1.670396089553833
aatp8
Rp9
.ccollections
OrderedDict
p0
((lp1
(lp2
S'state'
p3
aI400
aa(lp4
S'distance'
p5
aF384.9214172363281
aa(lp6
S'timestamp'
p7
aF1.672041893005371
aatp8
Rp9
.ccollections
OrderedDict
p0
((lp1
(lp2
S'state'
p3
aI400
aa(lp4
S'distance'
p5
aF384.9214172363281
aa(lp6
S'timestamp'
p7
aF1.6804349422454834
aatp8
Rp9
.ccollections
OrderedDict
p0
((lp1
(lp2
S'state'
p3
aI400
aa(lp4
S'distance'
p5
aF384.9214172363281
aa(lp6
S'timestamp'
p7
aF1.6816120147705078
aatp8
Rp9
.ccollections
OrderedDict
p0
((lp1
(lp2
S'state'
p3
aI400
aa(lp4
S'distance'
p5
aF384.9214172363281
aa(lp6
S'timestamp'
p7
aF1.6904950141906738
aatp8
Rp9
.ccollections
OrderedDict
p0
((lp1
(lp2
S'state'
p3
aI400
aa(lp4
S'distance'
p5
aF384.9214172363281
aa(lp6
S'timestamp'
p7
aF1.69138503074646
aatp8
Rp9
.ccollections
OrderedDict
p0
((lp1
(lp2
S'state'
p3
aI400
aa(lp4
S'distance'
p5
aF384.9214172363281
aa(lp6
S'timestamp'
p7
aF1.7004928588867188
aatp8
Rp9
.ccollections
OrderedDict
p0
((lp1
(lp2
S'state'
p3
aI400
aa(lp4
S'distance'
p5
aF384.9214172363281
aa(lp6
S'timestamp'
p7
aF1.7017948627471924
aatp8
Rp9
.ccollections
OrderedDict
p0
((lp1
(lp2
S'state'
p3
aI400
aa(lp4
S'distance'
p5
aF384.9214172363281
aa(lp6
S'timestamp'
p7
aF1.7105040550231934
aatp8
Rp9
.ccollections
OrderedDict
p0
((lp1
(lp2
S'state'
p3
aI400
aa(lp4
S'distance'
p5
aF384.9214172363281
aa(lp6
S'timestamp'
p7
aF1.711899995803833
aatp8
Rp9
.ccollections
OrderedDict
p0
((lp1
(lp2
S'state'
p3
aI400
aa(lp4
S'distance'
p5
aF384.9214172363281
aa(lp6
S'timestamp'
p7
aF1.7204968929290771
aatp8
Rp9
.ccollections
OrderedDict
p0
((lp1
(lp2
S'state'
p3
aI400
aa(lp4
S'distance'
p5
aF384.9214172363281
aa(lp6
S'timestamp'
p7
aF1.7215280532836914
aatp8
Rp9
.ccollections
OrderedDict
p0
((lp1
(lp2
S'state'
p3
aI400
aa(lp4
S'distance'
p5
aF384.9214172363281
aa(lp6
S'timestamp'
p7
aF1.7304749488830566
aatp8
Rp9
.ccollections
OrderedDict
p0
((lp1
(lp2
S'state'
p3
aI400
aa(lp4
S'distance'
p5
aF384.9214172363281
aa(lp6
S'timestamp'
p7
aF1.731321096420288
aatp8
Rp9
.ccollections
OrderedDict
p0
((lp1
(lp2
S'state'
p3
aI0
aa(lp4
S'distance'
p5
aF384.9214172363281
aa(lp6
S'timestamp'
p7
aF1.7407379150390625
aatp8
Rp9
.ccollections
OrderedDict
p0
((lp1
(lp2
S'state'
p3
aI0
aa(lp4
S'distance'
p5
aF280.948486328125
aa(lp6
S'timestamp'
p7
aF2.301445960998535
aatp8
Rp9
.ccollections
OrderedDict
p0
((lp1
(lp2
S'state'
p3
aI0
aa(lp4
S'distance'
p5
aF280.948486328125
aa(lp6
S'timestamp'
p7
aF2.31052303314209
aatp8
Rp9
.ccollections
OrderedDict
p0
((lp1
(lp2
S'state'
p3
aI0
aa(lp4
S'distance'
p5
aF280.948486328125
aa(lp6
S'timestamp'
p7
aF2.3111329078674316
aatp8
Rp9
.ccollections
OrderedDict
p0
((lp1
(lp2
S'state'
p3
aI0
aa(lp4
S'distance'
p5
aF280.948486328125
aa(lp6
S'timestamp'
p7
aF2.3202919960021973
aatp8
Rp9
.ccollections
OrderedDict
p0
((lp1
(lp2
S'state'
p3
aI0
aa(lp4
S'distance'
p5
aF280.948486328125
aa(lp6
S'timestamp'
p7
aF2.3212409019470215
aatp8
Rp9
.ccollections
OrderedDict
p0
((lp1
(lp2
S'state'
p3
aI400
aa(lp4
S'distance'
p5
aF280.948486328125
aa(lp6
S'timestamp'
p7
aF2.3304290771484375
aatp8
Rp9
.ccollections
OrderedDict
p0
((lp1
(lp2
S'state'
p3
aI400
aa(lp4
S'distance'
p5
aF280.948486328125
aa(lp6
S'timestamp'
p7
aF2.340456962585449
aatp8
Rp9
.ccollections
OrderedDict
p0
((lp1
(lp2
S'state'
p3
aI400
aa(lp4
S'distance'
p5
aF280.948486328125
aa(lp6
S'timestamp'
p7
aF2.3408730030059814
aatp8
Rp9
.ccollections
OrderedDict
p0
((lp1
(lp2
S'state'
p3
aI400
aa(lp4
S'distance'
p5
aF280.948486328125
aa(lp6
S'timestamp'
p7
aF2.3427929878234863
aatp8
Rp9
.ccollections
OrderedDict
p0
((lp1
(lp2
S'state'
p3
aI400
aa(lp4
S'distance'
p5
aF280.948486328125
aa(lp6
S'timestamp'
p7
aF2.3605809211730957
aatp8
Rp9
.ccollections
OrderedDict
p0
((lp1
(lp2
S'state'
p3
aI400
aa(lp4
S'distance'
p5
aF280.948486328125
aa(lp6
S'timestamp'
p7
aF2.361799955368042
aatp8
Rp9
.ccollections
OrderedDict
p0
((lp1
(lp2
S'state'
p3
aI400
aa(lp4
S'distance'
p5
aF280.948486328125
aa(lp6
S'timestamp'
p7
aF2.368720054626465
aatp8
Rp9
.ccollections
OrderedDict
p0
((lp1
(lp2
S'state'
p3
aI400
aa(lp4
S'distance'
p5
aF280.948486328125
aa(lp6
S'timestamp'
p7
aF2.369020938873291
aatp8
Rp9
.ccollections
OrderedDict
p0
((lp1
(lp2
S'state'
p3
aI400
aa(lp4
S'distance'
p5
aF280.948486328125
aa(lp6
S'timestamp'
p7
aF2.3720109462738037
aatp8
Rp9
.ccollections
OrderedDict
p0
((lp1
(lp2
S'state'
p3
aI400
aa(lp4
S'distance'
p5
aF280.948486328125
aa(lp6
S'timestamp'
p7
aF2.372161865234375
aatp8
Rp9
.ccollections
OrderedDict
p0
((lp1
(lp2
S'state'
p3
aI400
aa(lp4
S'distance'
p5
aF280.948486328125
aa(lp6
S'timestamp'
p7
aF2.3805558681488037
aatp8
Rp9
.ccollections
OrderedDict
p0
((lp1
(lp2
S'state'
p3
aI400
aa(lp4
S'distance'
p5
aF280.948486328125
aa(lp6
S'timestamp'
p7
aF2.3812220096588135
aatp8
Rp9
.ccollections
OrderedDict
p0
((lp1
(lp2
S'state'
p3
aI400
aa(lp4
S'distance'
p5
aF280.948486328125
aa(lp6
S'timestamp'
p7
aF2.3904850482940674
aatp8
Rp9
.ccollections
OrderedDict
p0
((lp1
(lp2
S'state'
p3
aI400
aa(lp4
S'distance'
p5
aF280.948486328125
aa(lp6
S'timestamp'
p7
aF2.391166925430298
aatp8
Rp9
.ccollections
OrderedDict
p0
((lp1
(lp2
S'state'
p3
aI400
aa(lp4
S'distance'
p5
aF280.948486328125
aa(lp6
S'timestamp'
p7
aF2.4004650115966797
aatp8
Rp9
.ccollections
OrderedDict
p0
((lp1
(lp2
S'state'
p3
aI400
aa(lp4
S'distance'
p5
aF280.948486328125
aa(lp6
S'timestamp'
p7
aF2.4018099308013916
aatp8
Rp9
.ccollections
OrderedDict
p0
((lp1
(lp2
S'state'
p3
aI400
aa(lp4
S'distance'
p5
aF280.948486328125
aa(lp6
S'timestamp'
p7
aF2.410888910293579
aatp8
Rp9
.ccollections
OrderedDict
p0
((lp1
(lp2
S'state'
p3
aI400
aa(lp4
S'distance'
p5
aF280.948486328125
aa(lp6
S'timestamp'
p7
aF2.41123104095459
aatp8
Rp9
.ccollections
OrderedDict
p0
((lp1
(lp2
S'state'
p3
aI400
aa(lp4
S'distance'
p5
aF280.948486328125
aa(lp6
S'timestamp'
p7
aF2.42071795463562
aatp8
Rp9
.ccollections
OrderedDict
p0
((lp1
(lp2
S'state'
p3
aI400
aa(lp4
S'distance'
p5
aF280.948486328125
aa(lp6
S'timestamp'
p7
aF2.4216649532318115
aatp8
Rp9
.ccollections
OrderedDict
p0
((lp1
(lp2
S'state'
p3
aI400
aa(lp4
S'distance'
p5
aF280.948486328125
aa(lp6
S'timestamp'
p7
aF2.430492877960205
aatp8
Rp9
.ccollections
OrderedDict
p0
((lp1
(lp2
S'state'
p3
aI400
aa(lp4
S'distance'
p5
aF280.948486328125
aa(lp6
S'timestamp'
p7
aF2.4311609268188477
aatp8
Rp9
.ccollections
OrderedDict
p0
((lp1
(lp2
S'state'
p3
aI400
aa(lp4
S'distance'
p5
aF280.948486328125
aa(lp6
S'timestamp'
p7
aF2.440505027770996
aatp8
Rp9
.ccollections
OrderedDict
p0
((lp1
(lp2
S'state'
p3
aI400
aa(lp4
S'distance'
p5
aF280.948486328125
aa(lp6
S'timestamp'
p7
aF2.441041946411133
aatp8
Rp9
.ccollections
OrderedDict
p0
((lp1
(lp2
S'state'
p3
aI400
aa(lp4
S'distance'
p5
aF280.948486328125
aa(lp6
S'timestamp'
p7
aF2.4504950046539307
aatp8
Rp9
.ccollections
OrderedDict
p0
((lp1
(lp2
S'state'
p3
aI400
aa(lp4
S'distance'
p5
aF280.948486328125
aa(lp6
S'timestamp'
p7
aF2.451225996017456
aatp8
Rp9
.ccollections
OrderedDict
p0
((lp1
(lp2
S'state'
p3
aI400
aa(lp4
S'distance'
p5
aF280.948486328125
aa(lp6
S'timestamp'
p7
aF2.4606809616088867
aatp8
Rp9
.ccollections
OrderedDict
p0
((lp1
(lp2
S'state'
p3
aI400
aa(lp4
S'distance'
p5
aF280.948486328125
aa(lp6
S'timestamp'
p7
aF2.461138963699341
aatp8
Rp9
.ccollections
OrderedDict
p0
((lp1
(lp2
S'state'
p3
aI400
aa(lp4
S'distance'
p5
aF280.948486328125
aa(lp6
S'timestamp'
p7
aF2.470547914505005
aatp8
Rp9
.ccollections
OrderedDict
p0
((lp1
(lp2
S'state'
p3
aI400
aa(lp4
S'distance'
p5
aF280.948486328125
aa(lp6
S'timestamp'
p7
aF2.4710988998413086
aatp8
Rp9
.ccollections
OrderedDict
p0
((lp1
(lp2
S'state'
p3
aI400
aa(lp4
S'distance'
p5
aF280.948486328125
aa(lp6
S'timestamp'
p7
aF2.4804749488830566
aatp8
Rp9
.ccollections
OrderedDict
p0
((lp1
(lp2
S'state'
p3
aI400
aa(lp4
S'distance'
p5
aF280.948486328125
aa(lp6
S'timestamp'
p7
aF2.4811720848083496
aatp8
Rp9
.ccollections
OrderedDict
p0
((lp1
(lp2
S'state'
p3
aI400
aa(lp4
S'distance'
p5
aF280.948486328125
aa(lp6
S'timestamp'
p7
aF2.4905169010162354
aatp8
Rp9
.ccollections
OrderedDict
p0
((lp1
(lp2
S'state'
p3
aI400
aa(lp4
S'distance'
p5
aF280.948486328125
aa(lp6
S'timestamp'
p7
aF2.491456985473633
aatp8
Rp9
.ccollections
OrderedDict
p0
((lp1
(lp2
S'state'
p3
aI400
aa(lp4
S'distance'
p5
aF280.948486328125
aa(lp6
S'timestamp'
p7
aF2.500515937805176
aatp8
Rp9
.ccollections
OrderedDict
p0
((lp1
(lp2
S'state'
p3
aI400
aa(lp4
S'distance'
p5
aF280.948486328125
aa(lp6
S'timestamp'
p7
aF2.5019989013671875
aatp8
Rp9
.ccollections
OrderedDict
p0
((lp1
(lp2
S'state'
p3
aI400
aa(lp4
S'distance'
p5
aF280.948486328125
aa(lp6
S'timestamp'
p7
aF2.510688066482544
aatp8
Rp9
.ccollections
OrderedDict
p0
((lp1
(lp2
S'state'
p3
aI400
aa(lp4
S'distance'
p5
aF280.948486328125
aa(lp6
S'timestamp'
p7
aF2.511370897293091
aatp8
Rp9
.ccollections
OrderedDict
p0
((lp1
(lp2
S'state'
p3
aI400
aa(lp4
S'distance'
p5
aF280.948486328125
aa(lp6
S'timestamp'
p7
aF2.5203869342803955
aatp8
Rp9
.ccollections
OrderedDict
p0
((lp1
(lp2
S'state'
p3
aI400
aa(lp4
S'distance'
p5
aF280.948486328125
aa(lp6
S'timestamp'
p7
aF2.521972894668579
aatp8
Rp9
.ccollections
OrderedDict
p0
((lp1
(lp2
S'state'
p3
aI400
aa(lp4
S'distance'
p5
aF280.948486328125
aa(lp6
S'timestamp'
p7
aF2.5305209159851074
aatp8
Rp9
.ccollections
OrderedDict
p0
((lp1
(lp2
S'state'
p3
aI400
aa(lp4
S'distance'
p5
aF280.948486328125
aa(lp6
S'timestamp'
p7
aF2.531183958053589
aatp8
Rp9
.ccollections
OrderedDict
p0
((lp1
(lp2
S'state'
p3
aI400
aa(lp4
S'distance'
p5
aF280.948486328125
aa(lp6
S'timestamp'
p7
aF2.5404839515686035
aatp8
Rp9
.ccollections
OrderedDict
p0
((lp1
(lp2
S'state'
p3
aI400
aa(lp4
S'distance'
p5
aF280.948486328125
aa(lp6
S'timestamp'
p7
aF2.5414490699768066
aatp8
Rp9
.ccollections
OrderedDict
p0
((lp1
(lp2
S'state'
p3
aI400
aa(lp4
S'distance'
p5
aF280.948486328125
aa(lp6
S'timestamp'
p7
aF2.5504839420318604
aatp8
Rp9
.ccollections
OrderedDict
p0
((lp1
(lp2
S'state'
p3
aI400
aa(lp4
S'distance'
p5
aF280.948486328125
aa(lp6
S'timestamp'
p7
aF2.5509510040283203
aatp8
Rp9
.ccollections
OrderedDict
p0
((lp1
(lp2
S'state'
p3
aI400
aa(lp4
S'distance'
p5
aF280.948486328125
aa(lp6
S'timestamp'
p7
aF2.5604798793792725
aatp8
Rp9
.ccollections
OrderedDict
p0
((lp1
(lp2
S'state'
p3
aI400
aa(lp4
S'distance'
p5
aF280.948486328125
aa(lp6
S'timestamp'
p7
aF2.561208963394165
aatp8
Rp9
.ccollections
OrderedDict
p0
((lp1
(lp2
S'state'
p3
aI400
aa(lp4
S'distance'
p5
aF280.948486328125
aa(lp6
S'timestamp'
p7
aF2.5706229209899902
aatp8
Rp9
.ccollections
OrderedDict
p0
((lp1
(lp2
S'state'
p3
aI400
aa(lp4
S'distance'
p5
aF280.948486328125
aa(lp6
S'timestamp'
p7
aF2.57204008102417
aatp8
Rp9
.ccollections
OrderedDict
p0
((lp1
(lp2
S'state'
p3
aI400
aa(lp4
S'distance'
p5
aF280.948486328125
aa(lp6
S'timestamp'
p7
aF2.5807268619537354
aatp8
Rp9
.ccollections
OrderedDict
p0
((lp1
(lp2
S'state'
p3
aI400
aa(lp4
S'distance'
p5
aF280.948486328125
aa(lp6
S'timestamp'
p7
aF2.581238031387329
aatp8
Rp9
.ccollections
OrderedDict
p0
((lp1
(lp2
S'state'
p3
aI400
aa(lp4
S'distance'
p5
aF280.948486328125
aa(lp6
S'timestamp'
p7
aF2.5905709266662598
aatp8
Rp9
.ccollections
OrderedDict
p0
((lp1
(lp2
S'state'
p3
aI400
aa(lp4
S'distance'
p5
aF280.948486328125
aa(lp6
S'timestamp'
p7
aF2.5910229682922363
aatp8
Rp9
.ccollections
OrderedDict
p0
((lp1
(lp2
S'state'
p3
aI400
aa(lp4
S'distance'
p5
aF280.948486328125
aa(lp6
S'timestamp'
p7
aF2.600445032119751
aatp8
Rp9
.ccollections
OrderedDict
p0
((lp1
(lp2
S'state'
p3
aI400
aa(lp4
S'distance'
p5
aF280.948486328125
aa(lp6
S'timestamp'
p7
aF2.6010749340057373
aatp8
Rp9
.ccollections
OrderedDict
p0
((lp1
(lp2
S'state'
p3
aI400
aa(lp4
S'distance'
p5
aF280.948486328125
aa(lp6
S'timestamp'
p7
aF2.610447883605957
aatp8
Rp9
.ccollections
OrderedDict
p0
((lp1
(lp2
S'state'
p3
aI400
aa(lp4
S'distance'
p5
aF280.948486328125
aa(lp6
S'timestamp'
p7
aF2.6110880374908447
aatp8
Rp9
.ccollections
OrderedDict
p0
((lp1
(lp2
S'state'
p3
aI400
aa(lp4
S'distance'
p5
aF280.948486328125
aa(lp6
S'timestamp'
p7
aF2.620702028274536
aatp8
Rp9
.ccollections
OrderedDict
p0
((lp1
(lp2
S'state'
p3
aI400
aa(lp4
S'distance'
p5
aF280.948486328125
aa(lp6
S'timestamp'
p7
aF2.621108055114746
aatp8
Rp9
.ccollections
OrderedDict
p0
((lp1
(lp2
S'state'
p3
aI400
aa(lp4
S'distance'
p5
aF280.948486328125
aa(lp6
S'timestamp'
p7
aF2.6304149627685547
aatp8
Rp9
.ccollections
OrderedDict
p0
((lp1
(lp2
S'state'
p3
aI400
aa(lp4
S'distance'
p5
aF280.948486328125
aa(lp6
S'timestamp'
p7
aF2.631118059158325
aatp8
Rp9
.ccollections
OrderedDict
p0
((lp1
(lp2
S'state'
p3
aI400
aa(lp4
S'distance'
p5
aF280.948486328125
aa(lp6
S'timestamp'
p7
aF2.6404659748077393
aatp8
Rp9
.ccollections
OrderedDict
p0
((lp1
(lp2
S'state'
p3
aI400
aa(lp4
S'distance'
p5
aF280.948486328125
aa(lp6
S'timestamp'
p7
aF2.6413919925689697
aatp8
Rp9
.ccollections
OrderedDict
p0
((lp1
(lp2
S'state'
p3
aI400
aa(lp4
S'distance'
p5
aF280.948486328125
aa(lp6
S'timestamp'
p7
aF2.6505370140075684
aatp8
Rp9
.ccollections
OrderedDict
p0
((lp1
(lp2
S'state'
p3
aI400
aa(lp4
S'distance'
p5
aF280.948486328125
aa(lp6
S'timestamp'
p7
aF2.6512348651885986
aatp8
Rp9
.ccollections
OrderedDict
p0
((lp1
(lp2
S'state'
p3
aI400
aa(lp4
S'distance'
p5
aF280.948486328125
aa(lp6
S'timestamp'
p7
aF2.660680055618286
aatp8
Rp9
.ccollections
OrderedDict
p0
((lp1
(lp2
S'state'
p3
aI400
aa(lp4
S'distance'
p5
aF280.948486328125
aa(lp6
S'timestamp'
p7
aF2.661586046218872
aatp8
Rp9
.ccollections
OrderedDict
p0
((lp1
(lp2
S'state'
p3
aI400
aa(lp4
S'distance'
p5
aF280.948486328125
aa(lp6
S'timestamp'
p7
aF2.6705939769744873
aatp8
Rp9
.ccollections
OrderedDict
p0
((lp1
(lp2
S'state'
p3
aI400
aa(lp4
S'distance'
p5
aF280.948486328125
aa(lp6
S'timestamp'
p7
aF2.6710219383239746
aatp8
Rp9
.ccollections
OrderedDict
p0
((lp1
(lp2
S'state'
p3
aI400
aa(lp4
S'distance'
p5
aF280.948486328125
aa(lp6
S'timestamp'
p7
aF2.6804208755493164
aatp8
Rp9
.ccollections
OrderedDict
p0
((lp1
(lp2
S'state'
p3
aI400
aa(lp4
S'distance'
p5
aF280.948486328125
aa(lp6
S'timestamp'
p7
aF2.6810638904571533
aatp8
Rp9
.ccollections
OrderedDict
p0
((lp1
(lp2
S'state'
p3
aI400
aa(lp4
S'distance'
p5
aF280.948486328125
aa(lp6
S'timestamp'
p7
aF2.6903679370880127
aatp8
Rp9
.ccollections
OrderedDict
p0
((lp1
(lp2
S'state'
p3
aI400
aa(lp4
S'distance'
p5
aF280.948486328125
aa(lp6
S'timestamp'
p7
aF2.6915230751037598
aatp8
Rp9
.ccollections
OrderedDict
p0
((lp1
(lp2
S'state'
p3
aI400
aa(lp4
S'distance'
p5
aF280.948486328125
aa(lp6
S'timestamp'
p7
aF2.700413942337036
aatp8
Rp9
.ccollections
OrderedDict
p0
((lp1
(lp2
S'state'
p3
aI400
aa(lp4
S'distance'
p5
aF280.948486328125
aa(lp6
S'timestamp'
p7
aF2.7105600833892822
aatp8
Rp9
.ccollections
OrderedDict
p0
((lp1
(lp2
S'state'
p3
aI400
aa(lp4
S'distance'
p5
aF280.948486328125
aa(lp6
S'timestamp'
p7
aF2.7125020027160645
aatp8
Rp9
.ccollections
OrderedDict
p0
((lp1
(lp2
S'state'
p3
aI400
aa(lp4
S'distance'
p5
aF280.948486328125
aa(lp6
S'timestamp'
p7
aF2.712712049484253
aatp8
Rp9
.ccollections
OrderedDict
p0
((lp1
(lp2
S'state'
p3
aI400
aa(lp4
S'distance'
p5
aF280.948486328125
aa(lp6
S'timestamp'
p7
aF2.7203619480133057
aatp8
Rp9
.ccollections
OrderedDict
p0
((lp1
(lp2
S'state'
p3
aI400
aa(lp4
S'distance'
p5
aF280.948486328125
aa(lp6
S'timestamp'
p7
aF2.721081018447876
aatp8
Rp9
.ccollections
OrderedDict
p0
((lp1
(lp2
S'state'
p3
aI400
aa(lp4
S'distance'
p5
aF280.948486328125
aa(lp6
S'timestamp'
p7
aF2.730407953262329
aatp8
Rp9
.ccollections
OrderedDict
p0
((lp1
(lp2
S'state'
p3
aI400
aa(lp4
S'distance'
p5
aF280.948486328125
aa(lp6
S'timestamp'
p7
aF2.7311620712280273
aatp8
Rp9
.ccollections
OrderedDict
p0
((lp1
(lp2
S'state'
p3
aI400
aa(lp4
S'distance'
p5
aF280.948486328125
aa(lp6
S'timestamp'
p7
aF2.7404279708862305
aatp8
Rp9
.ccollections
OrderedDict
p0
((lp1
(lp2
S'state'
p3
aI400
aa(lp4
S'distance'
p5
aF280.948486328125
aa(lp6
S'timestamp'
p7
aF2.741083860397339
aatp8
Rp9
.ccollections
OrderedDict
p0
((lp1
(lp2
S'state'
p3
aI400
aa(lp4
S'distance'
p5
aF280.948486328125
aa(lp6
S'timestamp'
p7
aF2.750619888305664
aatp8
Rp9
.ccollections
OrderedDict
p0
((lp1
(lp2
S'state'
p3
aI400
aa(lp4
S'distance'
p5
aF280.948486328125
aa(lp6
S'timestamp'
p7
aF2.7509210109710693
aatp8
Rp9
.ccollections
OrderedDict
p0
((lp1
(lp2
S'state'
p3
aI400
aa(lp4
S'distance'
p5
aF280.948486328125
aa(lp6
S'timestamp'
p7
aF2.760511875152588
aatp8
Rp9
.ccollections
OrderedDict
p0
((lp1
(lp2
S'state'
p3
aI400
aa(lp4
S'distance'
p5
aF280.948486328125
aa(lp6
S'timestamp'
p7
aF2.7612080574035645
aatp8
Rp9
.ccollections
OrderedDict
p0
((lp1
(lp2
S'state'
p3
aI400
aa(lp4
S'distance'
p5
aF280.948486328125
aa(lp6
S'timestamp'
p7
aF2.7703630924224854
aatp8
Rp9
.ccollections
OrderedDict
p0
((lp1
(lp2
S'state'
p3
aI0
aa(lp4
S'distance'
p5
aF280.948486328125
aa(lp6
S'timestamp'
p7
aF2.7711288928985596
aatp8
Rp9
.ccollections
OrderedDict
p0
((lp1
(lp2
S'state'
p3
aI0
aa(lp4
S'distance'
p5
aF167.1688575744629
aa(lp6
S'timestamp'
p7
aF3.332159996032715
aatp8
Rp9
.ccollections
OrderedDict
p0
((lp1
(lp2
S'state'
p3
aI0
aa(lp4
S'distance'
p5
aF167.1688575744629
aa(lp6
S'timestamp'
p7
aF3.341050863265991
aatp8
Rp9
.ccollections
OrderedDict
p0
((lp1
(lp2
S'state'
p3
aI0
aa(lp4
S'distance'
p5
aF167.1688575744629
aa(lp6
S'timestamp'
p7
aF3.341269016265869
aatp8
Rp9
.ccollections
OrderedDict
p0
((lp1
(lp2
S'state'
p3
aI0
aa(lp4
S'distance'
p5
aF167.1688575744629
aa(lp6
S'timestamp'
p7
aF3.3508400917053223
aatp8
Rp9
.ccollections
OrderedDict
p0
((lp1
(lp2
S'state'
p3
aI0
aa(lp4
S'distance'
p5
aF167.1688575744629
aa(lp6
S'timestamp'
p7
aF3.3510448932647705
aatp8
Rp9
.ccollections
OrderedDict
p0
((lp1
(lp2
S'state'
p3
aI0
aa(lp4
S'distance'
p5
aF167.1688575744629
aa(lp6
S'timestamp'
p7
aF3.3604400157928467
aatp8
Rp9
.ccollections
OrderedDict
p0
((lp1
(lp2
S'state'
p3
aI0
aa(lp4
S'distance'
p5
aF167.1688575744629
aa(lp6
S'timestamp'
p7
aF3.361021041870117
aatp8
Rp9
.ccollections
OrderedDict
p0
((lp1
(lp2
S'state'
p3
aI0
aa(lp4
S'distance'
p5
aF167.1688575744629
aa(lp6
S'timestamp'
p7
aF3.3704540729522705
aatp8
Rp9
.ccollections
OrderedDict
p0
((lp1
(lp2
S'state'
p3
aI0
aa(lp4
S'distance'
p5
aF167.1688575744629
aa(lp6
S'timestamp'
p7
aF3.3715460300445557
aatp8
Rp9
.ccollections
OrderedDict
p0
((lp1
(lp2
S'state'
p3
aI0
aa(lp4
S'distance'
p5
aF167.1688575744629
aa(lp6
S'timestamp'
p7
aF3.39054799079895
aatp8
Rp9
.ccollections
OrderedDict
p0
((lp1
(lp2
S'state'
p3
aI0
aa(lp4
S'distance'
p5
aF167.1688575744629
aa(lp6
S'timestamp'
p7
aF3.3910810947418213
aatp8
Rp9
.ccollections
OrderedDict
p0
((lp1
(lp2
S'state'
p3
aI0
aa(lp4
S'distance'
p5
aF167.1688575744629
aa(lp6
S'timestamp'
p7
aF3.3917670249938965
aatp8
Rp9
.ccollections
OrderedDict
p0
((lp1
(lp2
S'state'
p3
aI400
aa(lp4
S'distance'
p5
aF167.1688575744629
aa(lp6
S'timestamp'
p7
aF3.3926949501037598
aatp8
Rp9
.ccollections
OrderedDict
p0
((lp1
(lp2
S'state'
p3
aI400
aa(lp4
S'distance'
p5
aF167.1688575744629
aa(lp6
S'timestamp'
p7
aF3.400446891784668
aatp8
Rp9
.ccollections
OrderedDict
p0
((lp1
(lp2
S'state'
p3
aI400
aa(lp4
S'distance'
p5
aF167.1688575744629
aa(lp6
S'timestamp'
p7
aF3.401171922683716
aatp8
Rp9
.ccollections
OrderedDict
p0
((lp1
(lp2
S'state'
p3
aI400
aa(lp4
S'distance'
p5
aF167.1688575744629
aa(lp6
S'timestamp'
p7
aF3.4114649295806885
aatp8
Rp9
.ccollections
OrderedDict
p0
((lp1
(lp2
S'state'
p3
aI400
aa(lp4
S'distance'
p5
aF167.1688575744629
aa(lp6
S'timestamp'
p7
aF3.4126698970794678
aatp8
Rp9
.ccollections
OrderedDict
p0
((lp1
(lp2
S'state'
p3
aI400
aa(lp4
S'distance'
p5
aF167.1688575744629
aa(lp6
S'timestamp'
p7
aF3.4229419231414795
aatp8
Rp9
.ccollections
OrderedDict
p0
((lp1
(lp2
S'state'
p3
aI400
aa(lp4
S'distance'
p5
aF167.1688575744629
aa(lp6
S'timestamp'
p7
aF3.423013925552368
aatp8
Rp9
.ccollections
OrderedDict
p0
((lp1
(lp2
S'state'
p3
aI400
aa(lp4
S'distance'
p5
aF167.1688575744629
aa(lp6
S'timestamp'
p7
aF3.4305689334869385
aatp8
Rp9
.ccollections
OrderedDict
p0
((lp1
(lp2
S'state'
p3
aI400
aa(lp4
S'distance'
p5
aF167.1688575744629
aa(lp6
S'timestamp'
p7
aF3.432229995727539
aatp8
Rp9
.ccollections
OrderedDict
p0
((lp1
(lp2
S'state'
p3
aI400
aa(lp4
S'distance'
p5
aF167.1688575744629
aa(lp6
S'timestamp'
p7
aF3.440497875213623
aatp8
Rp9
.ccollections
OrderedDict
p0
((lp1
(lp2
S'state'
p3
aI400
aa(lp4
S'distance'
p5
aF167.1688575744629
aa(lp6
S'timestamp'
p7
aF3.440959930419922
aatp8
Rp9
.ccollections
OrderedDict
p0
((lp1
(lp2
S'state'
p3
aI400
aa(lp4
S'distance'
p5
aF167.1688575744629
aa(lp6
S'timestamp'
p7
aF3.4504380226135254
aatp8
Rp9
.ccollections
OrderedDict
p0
((lp1
(lp2
S'state'
p3
aI400
aa(lp4
S'distance'
p5
aF167.1688575744629
aa(lp6
S'timestamp'
p7
aF3.4511630535125732
aatp8
Rp9
.ccollections
OrderedDict
p0
((lp1
(lp2
S'state'
p3
aI400
aa(lp4
S'distance'
p5
aF167.1688575744629
aa(lp6
S'timestamp'
p7
aF3.4606900215148926
aatp8
Rp9
.ccollections
OrderedDict
p0
((lp1
(lp2
S'state'
p3
aI400
aa(lp4
S'distance'
p5
aF167.1688575744629
aa(lp6
S'timestamp'
p7
aF3.470561981201172
aatp8
Rp9
.ccollections
OrderedDict
p0
((lp1
(lp2
S'state'
p3
aI400
aa(lp4
S'distance'
p5
aF167.1688575744629
aa(lp6
S'timestamp'
p7
aF3.4710469245910645
aatp8
Rp9
.ccollections
OrderedDict
p0
((lp1
(lp2
S'state'
p3
aI400
aa(lp4
S'distance'
p5
aF167.1688575744629
aa(lp6
S'timestamp'
p7
aF3.4720890522003174
aatp8
Rp9
.ccollections
OrderedDict
p0
((lp1
(lp2
S'state'
p3
aI400
aa(lp4
S'distance'
p5
aF167.1688575744629
aa(lp6
S'timestamp'
p7
aF3.4804790019989014
aatp8
Rp9
.ccollections
OrderedDict
p0
((lp1
(lp2
S'state'
p3
aI400
aa(lp4
S'distance'
p5
aF167.1688575744629
aa(lp6
S'timestamp'
p7
aF3.4809908866882324
aatp8
Rp9
.ccollections
OrderedDict
p0
((lp1
(lp2
S'state'
p3
aI400
aa(lp4
S'distance'
p5
aF167.1688575744629
aa(lp6
S'timestamp'
p7
aF3.490407943725586
aatp8
Rp9
.ccollections
OrderedDict
p0
((lp1
(lp2
S'state'
p3
aI400
aa(lp4
S'distance'
p5
aF167.1688575744629
aa(lp6
S'timestamp'
p7
aF3.4915740489959717
aatp8
Rp9
.ccollections
OrderedDict
p0
((lp1
(lp2
S'state'
p3
aI400
aa(lp4
S'distance'
p5
aF167.1688575744629
aa(lp6
S'timestamp'
p7
aF3.500396966934204
aatp8
Rp9
.ccollections
OrderedDict
p0
((lp1
(lp2
S'state'
p3
aI400
aa(lp4
S'distance'
p5
aF167.1688575744629
aa(lp6
S'timestamp'
p7
aF3.5009870529174805
aatp8
Rp9
.ccollections
OrderedDict
p0
((lp1
(lp2
S'state'
p3
aI400
aa(lp4
S'distance'
p5
aF167.1688575744629
aa(lp6
S'timestamp'
p7
aF3.5210859775543213
aatp8
Rp9
.ccollections
OrderedDict
p0
((lp1
(lp2
S'state'
p3
aI400
aa(lp4
S'distance'
p5
aF167.1688575744629
aa(lp6
S'timestamp'
p7
aF3.522036075592041
aatp8
Rp9
.ccollections
OrderedDict
p0
((lp1
(lp2
S'state'
p3
aI400
aa(lp4
S'distance'
p5
aF167.1688575744629
aa(lp6
S'timestamp'
p7
aF3.522840976715088
aatp8
Rp9
.ccollections
OrderedDict
p0
((lp1
(lp2
S'state'
p3
aI400
aa(lp4
S'distance'
p5
aF167.1688575744629
aa(lp6
S'timestamp'
p7
aF3.5229570865631104
aatp8
Rp9
.ccollections
OrderedDict
p0
((lp1
(lp2
S'state'
p3
aI400
aa(lp4
S'distance'
p5
aF167.1688575744629
aa(lp6
S'timestamp'
p7
aF3.530277967453003
aatp8
Rp9
.ccollections
OrderedDict
p0
((lp1
(lp2
S'state'
p3
aI400
aa(lp4
S'distance'
p5
aF167.1688575744629
aa(lp6
S'timestamp'
p7
aF3.531111001968384
aatp8
Rp9
.ccollections
OrderedDict
p0
((lp1
(lp2
S'state'
p3
aI400
aa(lp4
S'distance'
p5
aF167.1688575744629
aa(lp6
S'timestamp'
p7
aF3.5403010845184326
aatp8
Rp9
.ccollections
OrderedDict
p0
((lp1
(lp2
S'state'
p3
aI400
aa(lp4
S'distance'
p5
aF167.1688575744629
aa(lp6
S'timestamp'
p7
aF3.541491985321045
aatp8
Rp9
.ccollections
OrderedDict
p0
((lp1
(lp2
S'state'
p3
aI400
aa(lp4
S'distance'
p5
aF167.1688575744629
aa(lp6
S'timestamp'
p7
aF3.550316095352173
aatp8
Rp9
.ccollections
OrderedDict
p0
((lp1
(lp2
S'state'
p3
aI400
aa(lp4
S'distance'
p5
aF167.1688575744629
aa(lp6
S'timestamp'
p7
aF3.551069974899292
aatp8
Rp9
.ccollections
OrderedDict
p0
((lp1
(lp2
S'state'
p3
aI400
aa(lp4
S'distance'
p5
aF167.1688575744629
aa(lp6
S'timestamp'
p7
aF3.560396909713745
aatp8
Rp9
.ccollections
OrderedDict
p0
((lp1
(lp2
S'state'
p3
aI400
aa(lp4
S'distance'
p5
aF167.1688575744629
aa(lp6
S'timestamp'
p7
aF3.561086893081665
aatp8
Rp9
.ccollections
OrderedDict
p0
((lp1
(lp2
S'state'
p3
aI400
aa(lp4
S'distance'
p5
aF167.1688575744629
aa(lp6
S'timestamp'
p7
aF3.5703680515289307
aatp8
Rp9
.ccollections
OrderedDict
p0
((lp1
(lp2
S'state'
p3
aI400
aa(lp4
S'distance'
p5
aF167.1688575744629
aa(lp6
S'timestamp'
p7
aF3.571052074432373
aatp8
Rp9
.ccollections
OrderedDict
p0
((lp1
(lp2
S'state'
p3
aI400
aa(lp4
S'distance'
p5
aF167.1688575744629
aa(lp6
S'timestamp'
p7
aF3.580367088317871
aatp8
Rp9
.ccollections
OrderedDict
p0
((lp1
(lp2
S'state'
p3
aI400
aa(lp4
S'distance'
p5
aF167.1688575744629
aa(lp6
S'timestamp'
p7
aF3.581073045730591
aatp8
Rp9
.ccollections
OrderedDict
p0
((lp1
(lp2
S'state'
p3
aI400
aa(lp4
S'distance'
p5
aF167.1688575744629
aa(lp6
S'timestamp'
p7
aF3.590425968170166
aatp8
Rp9
.ccollections
OrderedDict
p0
((lp1
(lp2
S'state'
p3
aI400
aa(lp4
S'distance'
p5
aF167.1688575744629
aa(lp6
S'timestamp'
p7
aF3.5928680896759033
aatp8
Rp9
.ccollections
OrderedDict
p0
((lp1
(lp2
S'state'
p3
aI400
aa(lp4
S'distance'
p5
aF167.1688575744629
aa(lp6
S'timestamp'
p7
aF3.6004018783569336
aatp8
Rp9
.ccollections
OrderedDict
p0
((lp1
(lp2
S'state'
p3
aI400
aa(lp4
S'distance'
p5
aF167.1688575744629
aa(lp6
S'timestamp'
p7
aF3.6010499000549316
aatp8
Rp9
.ccollections
OrderedDict
p0
((lp1
(lp2
S'state'
p3
aI400
aa(lp4
S'distance'
p5
aF167.1688575744629
aa(lp6
S'timestamp'
p7
aF3.610882043838501
aatp8
Rp9
.ccollections
OrderedDict
p0
((lp1
(lp2
S'state'
p3
aI400
aa(lp4
S'distance'
p5
aF167.1688575744629
aa(lp6
S'timestamp'
p7
aF3.611660957336426
aatp8
Rp9
.ccollections
OrderedDict
p0
((lp1
(lp2
S'state'
p3
aI400
aa(lp4
S'distance'
p5
aF167.1688575744629
aa(lp6
S'timestamp'
p7
aF3.620630979537964
aatp8
Rp9
.ccollections
OrderedDict
p0
((lp1
(lp2
S'state'
p3
aI400
aa(lp4
S'distance'
p5
aF167.1688575744629
aa(lp6
S'timestamp'
p7
aF3.6208128929138184
aatp8
Rp9
.ccollections
OrderedDict
p0
((lp1
(lp2
S'state'
p3
aI400
aa(lp4
S'distance'
p5
aF167.1688575744629
aa(lp6
S'timestamp'
p7
aF3.630409002304077
aatp8
Rp9
.ccollections
OrderedDict
p0
((lp1
(lp2
S'state'
p3
aI400
aa(lp4
S'distance'
p5
aF167.1688575744629
aa(lp6
S'timestamp'
p7
aF3.631018877029419
aatp8
Rp9
.ccollections
OrderedDict
p0
((lp1
(lp2
S'state'
p3
aI400
aa(lp4
S'distance'
p5
aF167.1688575744629
aa(lp6
S'timestamp'
p7
aF3.6404168605804443
aatp8
Rp9
.ccollections
OrderedDict
p0
((lp1
(lp2
S'state'
p3
aI400
aa(lp4
S'distance'
p5
aF167.1688575744629
aa(lp6
S'timestamp'
p7
aF3.641057014465332
aatp8
Rp9
.ccollections
OrderedDict
p0
((lp1
(lp2
S'state'
p3
aI400
aa(lp4
S'distance'
p5
aF167.1688575744629
aa(lp6
S'timestamp'
p7
aF3.650381088256836
aatp8
Rp9
.ccollections
OrderedDict
p0
((lp1
(lp2
S'state'
p3
aI400
aa(lp4
S'distance'
p5
aF167.1688575744629
aa(lp6
S'timestamp'
p7
aF3.650999069213867
aatp8
Rp9
.ccollections
OrderedDict
p0
((lp1
(lp2
S'state'
p3
aI400
aa(lp4
S'distance'
p5
aF167.1688575744629
aa(lp6
S'timestamp'
p7
aF3.6603870391845703
aatp8
Rp9
.ccollections
OrderedDict
p0
((lp1
(lp2
S'state'
p3
aI400
aa(lp4
S'distance'
p5
aF167.1688575744629
aa(lp6
S'timestamp'
p7
aF3.6610360145568848
aatp8
Rp9
.ccollections
OrderedDict
p0
((lp1
(lp2
S'state'
p3
aI400
aa(lp4
S'distance'
p5
aF167.1688575744629
aa(lp6
S'timestamp'
p7
aF3.670259952545166
aatp8
Rp9
.ccollections
OrderedDict
p0
((lp1
(lp2
S'state'
p3
aI400
aa(lp4
S'distance'
p5
aF167.1688575744629
aa(lp6
S'timestamp'
p7
aF3.6711559295654297
aatp8
Rp9
.ccollections
OrderedDict
p0
((lp1
(lp2
S'state'
p3
aI400
aa(lp4
S'distance'
p5
aF167.1688575744629
aa(lp6
S'timestamp'
p7
aF3.680299997329712
aatp8
Rp9
.ccollections
OrderedDict
p0
((lp1
(lp2
S'state'
p3
aI400
aa(lp4
S'distance'
p5
aF167.1688575744629
aa(lp6
S'timestamp'
p7
aF3.6810169219970703
aatp8
Rp9
.ccollections
OrderedDict
p0
((lp1
(lp2
S'state'
p3
aI400
aa(lp4
S'distance'
p5
aF167.1688575744629
aa(lp6
S'timestamp'
p7
aF3.6903700828552246
aatp8
Rp9
.ccollections
OrderedDict
p0
((lp1
(lp2
S'state'
p3
aI400
aa(lp4
S'distance'
p5
aF167.1688575744629
aa(lp6
S'timestamp'
p7
aF3.69099497795105
aatp8
Rp9
.ccollections
OrderedDict
p0
((lp1
(lp2
S'state'
p3
aI400
aa(lp4
S'distance'
p5
aF167.1688575744629
aa(lp6
S'timestamp'
p7
aF3.7004449367523193
aatp8
Rp9
.ccollections
OrderedDict
p0
((lp1
(lp2
S'state'
p3
aI400
aa(lp4
S'distance'
p5
aF167.1688575744629
aa(lp6
S'timestamp'
p7
aF3.7010200023651123
aatp8
Rp9
.ccollections
OrderedDict
p0
((lp1
(lp2
S'state'
p3
aI400
aa(lp4
S'distance'
p5
aF167.1688575744629
aa(lp6
S'timestamp'
p7
aF3.710383892059326
aatp8
Rp9
.ccollections
OrderedDict
p0
((lp1
(lp2
S'state'
p3
aI400
aa(lp4
S'distance'
p5
aF167.1688575744629
aa(lp6
S'timestamp'
p7
aF3.71105694770813
aatp8
Rp9
.ccollections
OrderedDict
p0
((lp1
(lp2
S'state'
p3
aI400
aa(lp4
S'distance'
p5
aF167.1688575744629
aa(lp6
S'timestamp'
p7
aF3.720371961593628
aatp8
Rp9
.ccollections
OrderedDict
p0
((lp1
(lp2
S'state'
p3
aI400
aa(lp4
S'distance'
p5
aF167.1688575744629
aa(lp6
S'timestamp'
p7
aF3.7211849689483643
aatp8
Rp9
.ccollections
OrderedDict
p0
((lp1
(lp2
S'state'
p3
aI400
aa(lp4
S'distance'
p5
aF167.1688575744629
aa(lp6
S'timestamp'
p7
aF3.7303669452667236
aatp8
Rp9
.ccollections
OrderedDict
p0
((lp1
(lp2
S'state'
p3
aI400
aa(lp4
S'distance'
p5
aF167.1688575744629
aa(lp6
S'timestamp'
p7
aF3.730910062789917
aatp8
Rp9
.ccollections
OrderedDict
p0
((lp1
(lp2
S'state'
p3
aI400
aa(lp4
S'distance'
p5
aF167.1688575744629
aa(lp6
S'timestamp'
p7
aF3.7403810024261475
aatp8
Rp9
.ccollections
OrderedDict
p0
((lp1
(lp2
S'state'
p3
aI400
aa(lp4
S'distance'
p5
aF167.1688575744629
aa(lp6
S'timestamp'
p7
aF3.741594076156616
aatp8
Rp9
.ccollections
OrderedDict
p0
((lp1
(lp2
S'state'
p3
aI400
aa(lp4
S'distance'
p5
aF167.1688575744629
aa(lp6
S'timestamp'
p7
aF3.7504029273986816
aatp8
Rp9
.ccollections
OrderedDict
p0
((lp1
(lp2
S'state'
p3
aI400
aa(lp4
S'distance'
p5
aF167.1688575744629
aa(lp6
S'timestamp'
p7
aF3.750869035720825
aatp8
Rp9
.ccollections
OrderedDict
p0
((lp1
(lp2
S'state'
p3
aI400
aa(lp4
S'distance'
p5
aF167.1688575744629
aa(lp6
S'timestamp'
p7
aF3.760417938232422
aatp8
Rp9
.ccollections
OrderedDict
p0
((lp1
(lp2
S'state'
p3
aI400
aa(lp4
S'distance'
p5
aF167.1688575744629
aa(lp6
S'timestamp'
p7
aF3.761014938354492
aatp8
Rp9
.ccollections
OrderedDict
p0
((lp1
(lp2
S'state'
p3
aI400
aa(lp4
S'distance'
p5
aF167.1688575744629
aa(lp6
S'timestamp'
p7
aF3.7703778743743896
aatp8
Rp9
.ccollections
OrderedDict
p0
((lp1
(lp2
S'state'
p3
aI400
aa(lp4
S'distance'
p5
aF167.1688575744629
aa(lp6
S'timestamp'
p7
aF3.7710249423980713
aatp8
Rp9
.ccollections
OrderedDict
p0
((lp1
(lp2
S'state'
p3
aI400
aa(lp4
S'distance'
p5
aF167.1688575744629
aa(lp6
S'timestamp'
p7
aF3.780319929122925
aatp8
Rp9
.ccollections
OrderedDict
p0
((lp1
(lp2
S'state'
p3
aI400
aa(lp4
S'distance'
p5
aF167.1688575744629
aa(lp6
S'timestamp'
p7
aF3.7810490131378174
aatp8
Rp9
.ccollections
OrderedDict
p0
((lp1
(lp2
S'state'
p3
aI400
aa(lp4
S'distance'
p5
aF167.1688575744629
aa(lp6
S'timestamp'
p7
aF3.790415048599243
aatp8
Rp9
.ccollections
OrderedDict
p0
((lp1
(lp2
S'state'
p3
aI400
aa(lp4
S'distance'
p5
aF167.1688575744629
aa(lp6
S'timestamp'
p7
aF3.7911648750305176
aatp8
Rp9
.ccollections
OrderedDict
p0
((lp1
(lp2
S'state'
p3
aI400
aa(lp4
S'distance'
p5
aF167.1688575744629
aa(lp6
S'timestamp'
p7
aF3.8002769947052
aatp8
Rp9
.ccollections
OrderedDict
p0
((lp1
(lp2
S'state'
p3
aI400
aa(lp4
S'distance'
p5
aF167.1688575744629
aa(lp6
S'timestamp'
p7
aF3.8010239601135254
aatp8
Rp9
.ccollections
OrderedDict
p0
((lp1
(lp2
S'state'
p3
aI400
aa(lp4
S'distance'
p5
aF167.1688575744629
aa(lp6
S'timestamp'
p7
aF3.8102779388427734
aatp8
Rp9
.ccollections
OrderedDict
p0
((lp1
(lp2
S'state'
p3
aI400
aa(lp4
S'distance'
p5
aF167.1688575744629
aa(lp6
S'timestamp'
p7
aF3.8203768730163574
aatp8
Rp9
.ccollections
OrderedDict
p0
((lp1
(lp2
S'state'
p3
aI400
aa(lp4
S'distance'
p5
aF167.1688575744629
aa(lp6
S'timestamp'
p7
aF3.820978879928589
aatp8
Rp9
.ccollections
OrderedDict
p0
((lp1
(lp2
S'state'
p3
aI400
aa(lp4
S'distance'
p5
aF167.1688575744629
aa(lp6
S'timestamp'
p7
aF3.823173999786377
aatp8
Rp9
.ccollections
OrderedDict
p0
((lp1
(lp2
S'state'
p3
aI400
aa(lp4
S'distance'
p5
aF167.1688575744629
aa(lp6
S'timestamp'
p7
aF3.8303349018096924
aatp8
Rp9
.ccollections
OrderedDict
p0
((lp1
(lp2
S'state'
p3
aI400
aa(lp4
S'distance'
p5
aF167.1688575744629
aa(lp6
S'timestamp'
p7
aF3.830962896347046
aatp8
Rp9
.ccollections
OrderedDict
p0
((lp1
(lp2
S'state'
p3
aI400
aa(lp4
S'distance'
p5
aF167.1688575744629
aa(lp6
S'timestamp'
p7
aF3.8403780460357666
aatp8
Rp9
.ccollections
OrderedDict
p0
((lp1
(lp2
S'state'
p3
aI400
aa(lp4
S'distance'
p5
aF167.1688575744629
aa(lp6
S'timestamp'
p7
aF3.840848922729492
aatp8
Rp9
.ccollections
OrderedDict
p0
((lp1
(lp2
S'state'
p3
aI400
aa(lp4
S'distance'
p5
aF167.1688575744629
aa(lp6
S'timestamp'
p7
aF3.8503329753875732
aatp8
Rp9
.ccollections
OrderedDict
p0
((lp1
(lp2
S'state'
p3
aI400
aa(lp4
S'distance'
p5
aF167.1688575744629
aa(lp6
S'timestamp'
p7
aF3.8508219718933105
aatp8
Rp9
.ccollections
OrderedDict
p0
((lp1
(lp2
S'state'
p3
aI400
aa(lp4
S'distance'
p5
aF167.1688575744629
aa(lp6
S'timestamp'
p7
aF3.860360860824585
aatp8
Rp9
.ccollections
OrderedDict
p0
((lp1
(lp2
S'state'
p3
aI400
aa(lp4
S'distance'
p5
aF167.1688575744629
aa(lp6
S'timestamp'
p7
aF3.861114025115967
aatp8
Rp9
.ccollections
OrderedDict
p0
((lp1
(lp2
S'state'
p3
aI400
aa(lp4
S'distance'
p5
aF167.1688575744629
aa(lp6
S'timestamp'
p7
aF3.870347023010254
aatp8
Rp9
.ccollections
OrderedDict
p0
((lp1
(lp2
S'state'
p3
aI0
aa(lp4
S'distance'
p5
aF167.1688575744629
aa(lp6
S'timestamp'
p7
aF3.8711469173431396
aatp8
Rp9
.ccollections
OrderedDict
p0
((lp1
(lp2
S'state'
p3
aI0
aa(lp4
S'distance'
p5
aF55.015252113342285
aa(lp6
S'timestamp'
p7
aF4.434161901473999
aatp8
Rp9
.ccollections
OrderedDict
p0
((lp1
(lp2
S'state'
p3
aI0
aa(lp4
S'distance'
p5
aF55.015252113342285
aa(lp6
S'timestamp'
p7
aF4.440361976623535
aatp8
Rp9
.ccollections
OrderedDict
p0
((lp1
(lp2
S'state'
p3
aI0
aa(lp4
S'distance'
p5
aF55.015252113342285
aa(lp6
S'timestamp'
p7
aF4.441082954406738
aatp8
Rp9
.ccollections
OrderedDict
p0
((lp1
(lp2
S'state'
p3
aI0
aa(lp4
S'distance'
p5
aF55.015252113342285
aa(lp6
S'timestamp'
p7
aF4.450464963912964
aatp8
Rp9
.ccollections
OrderedDict
p0
((lp1
(lp2
S'state'
p3
aI0
aa(lp4
S'distance'
p5
aF55.015252113342285
aa(lp6
S'timestamp'
p7
aF4.451303005218506
aatp8
Rp9
.ccollections
OrderedDict
p0
((lp1
(lp2
S'state'
p3
aI0
aa(lp4
S'distance'
p5
aF55.015252113342285
aa(lp6
S'timestamp'
p7
aF4.4602460861206055
aatp8
Rp9
.ccollections
OrderedDict
p0
((lp1
(lp2
S'state'
p3
aI0
aa(lp4
S'distance'
p5
aF55.015252113342285
aa(lp6
S'timestamp'
p7
aF4.460911989212036
aatp8
Rp9
.ccollections
OrderedDict
p0
((lp1
(lp2
S'state'
p3
aI0
aa(lp4
S'distance'
p5
aF55.015252113342285
aa(lp6
S'timestamp'
p7
aF4.470144987106323
aatp8
Rp9
.ccollections
OrderedDict
p0
((lp1
(lp2
S'state'
p3
aI0
aa(lp4
S'distance'
p5
aF55.015252113342285
aa(lp6
S'timestamp'
p7
aF4.470962047576904
aatp8
Rp9
.ccollections
OrderedDict
p0
((lp1
(lp2
S'state'
p3
aI0
aa(lp4
S'distance'
p5
aF55.015252113342285
aa(lp6
S'timestamp'
p7
aF4.480324029922485
aatp8
Rp9
.ccollections
OrderedDict
p0
((lp1
(lp2
S'state'
p3
aI0
aa(lp4
S'distance'
p5
aF55.015252113342285
aa(lp6
S'timestamp'
p7
aF4.481426000595093
aatp8
Rp9
.ccollections
OrderedDict
p0
((lp1
(lp2
S'state'
p3
aI0
aa(lp4
S'distance'
p5
aF55.015252113342285
aa(lp6
S'timestamp'
p7
aF4.49031400680542
aatp8
Rp9
.ccollections
OrderedDict
p0
((lp1
(lp2
S'state'
p3
aI0
aa(lp4
S'distance'
p5
aF55.015252113342285
aa(lp6
S'timestamp'
p7
aF4.491101980209351
aatp8
Rp9
.ccollections
OrderedDict
p0
((lp1
(lp2
S'state'
p3
aI0
aa(lp4
S'distance'
p5
aF55.015252113342285
aa(lp6
S'timestamp'
p7
aF4.500205993652344
aatp8
Rp9
.ccollections
OrderedDict
p0
((lp1
(lp2
S'state'
p3
aI0
aa(lp4
S'distance'
p5
aF55.015252113342285
aa(lp6
S'timestamp'
p7
aF4.500704050064087
aatp8
Rp9
.ccollections
OrderedDict
p0
((lp1
(lp2
S'state'
p3
aI0
aa(lp4
S'distance'
p5
aF55.015252113342285
aa(lp6
S'timestamp'
p7
aF4.512817859649658
aatp8
Rp9
.ccollections
OrderedDict
p0
((lp1
(lp2
S'state'
p3
aI0
aa(lp4
S'distance'
p5
aF55.015252113342285
aa(lp6
S'timestamp'
p7
aF4.5139479637146
aatp8
Rp9
.ccollections
OrderedDict
p0
((lp1
(lp2
S'state'
p3
aI0
aa(lp4
S'distance'
p5
aF55.015252113342285
aa(lp6
S'timestamp'
p7
aF4.520065069198608
aatp8
Rp9
.ccollections
OrderedDict
p0
((lp1
(lp2
S'state'
p3
aI0
aa(lp4
S'distance'
p5
aF55.015252113342285
aa(lp6
S'timestamp'
p7
aF4.520878076553345
aatp8
Rp9
.ccollections
OrderedDict
p0
((lp1
(lp2
S'state'
p3
aI0
aa(lp4
S'distance'
p5
aF55.015252113342285
aa(lp6
S'timestamp'
p7
aF4.530674934387207
aatp8
Rp9
.ccollections
OrderedDict
p0
((lp1
(lp2
S'state'
p3
aI0
aa(lp4
S'distance'
p5
aF55.015252113342285
aa(lp6
S'timestamp'
p7
aF4.53085994720459
aatp8
Rp9
.ccollections
OrderedDict
p0
((lp1
(lp2
S'state'
p3
aI0
aa(lp4
S'distance'
p5
aF55.015252113342285
aa(lp6
S'timestamp'
p7
aF4.540224075317383
aatp8
Rp9
.ccollections
OrderedDict
p0
((lp1
(lp2
S'state'
p3
aI0
aa(lp4
S'distance'
p5
aF55.015252113342285
aa(lp6
S'timestamp'
p7
aF4.54066801071167
aatp8
Rp9
.ccollections
OrderedDict
p0
((lp1
(lp2
S'state'
p3
aI0
aa(lp4
S'distance'
p5
aF55.015252113342285
aa(lp6
S'timestamp'
p7
aF4.550579071044922
aatp8
Rp9
.ccollections
OrderedDict
p0
((lp1
(lp2
S'state'
p3
aI0
aa(lp4
S'distance'
p5
aF55.015252113342285
aa(lp6
S'timestamp'
p7
aF4.5601348876953125
aatp8
Rp9
.ccollections
OrderedDict
p0
((lp1
(lp2
S'state'
p3
aI0
aa(lp4
S'distance'
p5
aF55.015252113342285
aa(lp6
S'timestamp'
p7
aF4.5607590675354
aatp8
Rp9
.ccollections
OrderedDict
p0
((lp1
(lp2
S'state'
p3
aI0
aa(lp4
S'distance'
p5
aF55.015252113342285
aa(lp6
S'timestamp'
p7
aF4.562855958938599
aatp8
Rp9
.ccollections
OrderedDict
p0
((lp1
(lp2
S'state'
p3
aI0
aa(lp4
S'distance'
p5
aF55.015252113342285
aa(lp6
S'timestamp'
p7
aF4.570307016372681
aatp8
Rp9
.ccollections
OrderedDict
p0
((lp1
(lp2
S'state'
p3
aI0
aa(lp4
S'distance'
p5
aF55.015252113342285
aa(lp6
S'timestamp'
p7
aF4.5713019371032715
aatp8
Rp9
.ccollections
OrderedDict
p0
((lp1
(lp2
S'state'
p3
aI0
aa(lp4
S'distance'
p5
aF55.015252113342285
aa(lp6
S'timestamp'
p7
aF4.580286026000977
aatp8
Rp9
.ccollections
OrderedDict
p0
((lp1
(lp2
S'state'
p3
aI0
aa(lp4
S'distance'
p5
aF55.015252113342285
aa(lp6
S'timestamp'
p7
aF4.580718040466309
aatp8
Rp9
.ccollections
OrderedDict
p0
((lp1
(lp2
S'state'
p3
aI0
aa(lp4
S'distance'
p5
aF55.015252113342285
aa(lp6
S'timestamp'
p7
aF4.590254068374634
aatp8
Rp9
.ccollections
OrderedDict
p0
((lp1
(lp2
S'state'
p3
aI0
aa(lp4
S'distance'
p5
aF55.015252113342285
aa(lp6
S'timestamp'
p7
aF4.590712070465088
aatp8
Rp9
.ccollections
OrderedDict
p0
((lp1
(lp2
S'state'
p3
aI0
aa(lp4
S'distance'
p5
aF55.015252113342285
aa(lp6
S'timestamp'
p7
aF4.600244045257568
aatp8
Rp9
.ccollections
OrderedDict
p0
((lp1
(lp2
S'state'
p3
aI0
aa(lp4
S'distance'
p5
aF55.015252113342285
aa(lp6
S'timestamp'
p7
aF4.601338863372803
aatp8
Rp9
.ccollections
OrderedDict
p0
((lp1
(lp2
S'state'
p3
aI0
aa(lp4
S'distance'
p5
aF55.015252113342285
aa(lp6
S'timestamp'
p7
aF4.610240936279297
aatp8
Rp9
.ccollections
OrderedDict
p0
((lp1
(lp2
S'state'
p3
aI0
aa(lp4
S'distance'
p5
aF55.015252113342285
aa(lp6
S'timestamp'
p7
aF4.611291885375977
aatp8
Rp9
.ccollections
OrderedDict
p0
((lp1
(lp2
S'state'
p3
aI0
aa(lp4
S'distance'
p5
aF55.015252113342285
aa(lp6
S'timestamp'
p7
aF4.620224952697754
aatp8
Rp9
.ccollections
OrderedDict
p0
((lp1
(lp2
S'state'
p3
aI0
aa(lp4
S'distance'
p5
aF55.015252113342285
aa(lp6
S'timestamp'
p7
aF4.621345043182373
aatp8
Rp9
.ccollections
OrderedDict
p0
((lp1
(lp2
S'state'
p3
aI0
aa(lp4
S'distance'
p5
aF55.015252113342285
aa(lp6
S'timestamp'
p7
aF4.630050897598267
aatp8
Rp9
.ccollections
OrderedDict
p0
((lp1
(lp2
S'state'
p3
aI0
aa(lp4
S'distance'
p5
aF55.015252113342285
aa(lp6
S'timestamp'
p7
aF4.630939960479736
aatp8
Rp9
.ccollections
OrderedDict
p0
((lp1
(lp2
S'state'
p3
aI0
aa(lp4
S'distance'
p5
aF55.015252113342285
aa(lp6
S'timestamp'
p7
aF4.640026092529297
aatp8
Rp9
.ccollections
OrderedDict
p0
((lp1
(lp2
S'state'
p3
aI0
aa(lp4
S'distance'
p5
aF55.015252113342285
aa(lp6
S'timestamp'
p7
aF4.640917062759399
aatp8
Rp9
.ccollections
OrderedDict
p0
((lp1
(lp2
S'state'
p3
aI0
aa(lp4
S'distance'
p5
aF55.015252113342285
aa(lp6
S'timestamp'
p7
aF4.650323867797852
aatp8
Rp9
.ccollections
OrderedDict
p0
((lp1
(lp2
S'state'
p3
aI0
aa(lp4
S'distance'
p5
aF55.015252113342285
aa(lp6
S'timestamp'
p7
aF4.650902032852173
aatp8
Rp9
.ccollections
OrderedDict
p0
((lp1
(lp2
S'state'
p3
aI0
aa(lp4
S'distance'
p5
aF55.015252113342285
aa(lp6
S'timestamp'
p7
aF4.66065788269043
aatp8
Rp9
.ccollections
OrderedDict
p0
((lp1
(lp2
S'state'
p3
aI0
aa(lp4
S'distance'
p5
aF55.015252113342285
aa(lp6
S'timestamp'
p7
aF4.660827875137329
aatp8
Rp9
.ccollections
OrderedDict
p0
((lp1
(lp2
S'state'
p3
aI0
aa(lp4
S'distance'
p5
aF55.015252113342285
aa(lp6
S'timestamp'
p7
aF4.670217990875244
aatp8
Rp9
.ccollections
OrderedDict
p0
((lp1
(lp2
S'state'
p3
aI0
aa(lp4
S'distance'
p5
aF55.015252113342285
aa(lp6
S'timestamp'
p7
aF4.671884059906006
aatp8
Rp9
.ccollections
OrderedDict
p0
((lp1
(lp2
S'state'
p3
aI0
aa(lp4
S'distance'
p5
aF55.015252113342285
aa(lp6
S'timestamp'
p7
aF4.680031061172485
aatp8
Rp9
.ccollections
OrderedDict
p0
((lp1
(lp2
S'state'
p3
aI0
aa(lp4
S'distance'
p5
aF55.015252113342285
aa(lp6
S'timestamp'
p7
aF4.680909872055054
aatp8
Rp9
.ccollections
OrderedDict
p0
((lp1
(lp2
S'state'
p3
aI0
aa(lp4
S'distance'
p5
aF55.015252113342285
aa(lp6
S'timestamp'
p7
aF4.690057039260864
aatp8
Rp9
.ccollections
OrderedDict
p0
((lp1
(lp2
S'state'
p3
aI0
aa(lp4
S'distance'
p5
aF55.015252113342285
aa(lp6
S'timestamp'
p7
aF4.690890073776245
aatp8
Rp9
.ccollections
OrderedDict
p0
((lp1
(lp2
S'state'
p3
aI0
aa(lp4
S'distance'
p5
aF55.015252113342285
aa(lp6
S'timestamp'
p7
aF4.700037002563477
aatp8
Rp9
.ccollections
OrderedDict
p0
((lp1
(lp2
S'state'
p3
aI0
aa(lp4
S'distance'
p5
aF55.015252113342285
aa(lp6
S'timestamp'
p7
aF4.7009100914001465
aatp8
Rp9
.ccollections
OrderedDict
p0
((lp1
(lp2
S'state'
p3
aI0
aa(lp4
S'distance'
p5
aF55.015252113342285
aa(lp6
S'timestamp'
p7
aF4.710320949554443
aatp8
Rp9
.ccollections
OrderedDict
p0
((lp1
(lp2
S'state'
p3
aI0
aa(lp4
S'distance'
p5
aF55.015252113342285
aa(lp6
S'timestamp'
p7
aF4.711375951766968
aatp8
Rp9
.ccollections
OrderedDict
p0
((lp1
(lp2
S'state'
p3
aI0
aa(lp4
S'distance'
p5
aF55.015252113342285
aa(lp6
S'timestamp'
p7
aF4.719996929168701
aatp8
Rp9
.ccollections
OrderedDict
p0
((lp1
(lp2
S'state'
p3
aI0
aa(lp4
S'distance'
p5
aF55.015252113342285
aa(lp6
S'timestamp'
p7
aF4.720880031585693
aatp8
Rp9
.ccollections
OrderedDict
p0
((lp1
(lp2
S'state'
p3
aI0
aa(lp4
S'distance'
p5
aF55.015252113342285
aa(lp6
S'timestamp'
p7
aF4.730026960372925
aatp8
Rp9
.ccollections
OrderedDict
p0
((lp1
(lp2
S'state'
p3
aI0
aa(lp4
S'distance'
p5
aF55.015252113342285
aa(lp6
S'timestamp'
p7
aF4.730895042419434
aatp8
Rp9
.ccollections
OrderedDict
p0
((lp1
(lp2
S'state'
p3
aI0
aa(lp4
S'distance'
p5
aF55.015252113342285
aa(lp6
S'timestamp'
p7
aF4.740079879760742
aatp8
Rp9
.ccollections
OrderedDict
p0
((lp1
(lp2
S'state'
p3
aI0
aa(lp4
S'distance'
p5
aF55.015252113342285
aa(lp6
S'timestamp'
p7
aF4.740949869155884
aatp8
Rp9
.ccollections
OrderedDict
p0
((lp1
(lp2
S'state'
p3
aI0
aa(lp4
S'distance'
p5
aF55.015252113342285
aa(lp6
S'timestamp'
p7
aF4.750649929046631
aatp8
Rp9
.ccollections
OrderedDict
p0
((lp1
(lp2
S'state'
p3
aI0
aa(lp4
S'distance'
p5
aF55.015252113342285
aa(lp6
S'timestamp'
p7
aF4.750881910324097
aatp8
Rp9
.ccollections
OrderedDict
p0
((lp1
(lp2
S'state'
p3
aI0
aa(lp4
S'distance'
p5
aF55.015252113342285
aa(lp6
S'timestamp'
p7
aF4.760006904602051
aatp8
Rp9
.ccollections
OrderedDict
p0
((lp1
(lp2
S'state'
p3
aI0
aa(lp4
S'distance'
p5
aF55.015252113342285
aa(lp6
S'timestamp'
p7
aF4.76076602935791
aatp8
Rp9
.ccollections
OrderedDict
p0
((lp1
(lp2
S'state'
p3
aI0
aa(lp4
S'distance'
p5
aF55.015252113342285
aa(lp6
S'timestamp'
p7
aF4.770057916641235
aatp8
Rp9
.ccollections
OrderedDict
p0
((lp1
(lp2
S'state'
p3
aI0
aa(lp4
S'distance'
p5
aF55.015252113342285
aa(lp6
S'timestamp'
p7
aF4.770864009857178
aatp8
Rp9
.ccollections
OrderedDict
p0
((lp1
(lp2
S'state'
p3
aI0
aa(lp4
S'distance'
p5
aF55.015252113342285
aa(lp6
S'timestamp'
p7
aF4.780267000198364
aatp8
Rp9
.ccollections
OrderedDict
p0
((lp1
(lp2
S'state'
p3
aI0
aa(lp4
S'distance'
p5
aF55.015252113342285
aa(lp6
S'timestamp'
p7
aF4.781272888183594
aatp8
Rp9
.ccollections
OrderedDict
p0
((lp1
(lp2
S'state'
p3
aI0
aa(lp4
S'distance'
p5
aF55.015252113342285
aa(lp6
S'timestamp'
p7
aF4.800087928771973
aatp8
Rp9
.ccollections
OrderedDict
p0
((lp1
(lp2
S'state'
p3
aI0
aa(lp4
S'distance'
p5
aF55.015252113342285
aa(lp6
S'timestamp'
p7
aF4.800961017608643
aatp8
Rp9
.ccollections
OrderedDict
p0
((lp1
(lp2
S'state'
p3
aI0
aa(lp4
S'distance'
p5
aF55.015252113342285
aa(lp6
S'timestamp'
p7
aF4.801919937133789
aatp8
Rp9
.ccollections
OrderedDict
p0
((lp1
(lp2
S'state'
p3
aI0
aa(lp4
S'distance'
p5
aF55.015252113342285
aa(lp6
S'timestamp'
p7
aF4.802141904830933
aatp8
Rp9
.ccollections
OrderedDict
p0
((lp1
(lp2
S'state'
p3
aI0
aa(lp4
S'distance'
p5
aF55.015252113342285
aa(lp6
S'timestamp'
p7
aF4.8100690841674805
aatp8
Rp9
.ccollections
OrderedDict
p0
((lp1
(lp2
S'state'
p3
aI0
aa(lp4
S'distance'
p5
aF55.015252113342285
aa(lp6
S'timestamp'
p7
aF4.811995029449463
aatp8
Rp9
.ccollections
OrderedDict
p0
((lp1
(lp2
S'state'
p3
aI0
aa(lp4
S'distance'
p5
aF55.015252113342285
aa(lp6
S'timestamp'
p7
aF4.820436954498291
aatp8
Rp9
.ccollections
OrderedDict
p0
((lp1
(lp2
S'state'
p3
aI0
aa(lp4
S'distance'
p5
aF55.015252113342285
aa(lp6
S'timestamp'
p7
aF4.820738077163696
aatp8
Rp9
.ccollections
OrderedDict
p0
((lp1
(lp2
S'state'
p3
aI0
aa(lp4
S'distance'
p5
aF55.015252113342285
aa(lp6
S'timestamp'
p7
aF4.830106973648071
aatp8
Rp9
.ccollections
OrderedDict
p0
((lp1
(lp2
S'state'
p3
aI0
aa(lp4
S'distance'
p5
aF55.015252113342285
aa(lp6
S'timestamp'
p7
aF4.830755949020386
aatp8
Rp9
.ccollections
OrderedDict
p0
((lp1
(lp2
S'state'
p3
aI0
aa(lp4
S'distance'
p5
aF55.015252113342285
aa(lp6
S'timestamp'
p7
aF4.840372085571289
aatp8
Rp9
.ccollections
OrderedDict
p0
((lp1
(lp2
S'state'
p3
aI0
aa(lp4
S'distance'
p5
aF55.015252113342285
aa(lp6
S'timestamp'
p7
aF4.8411290645599365
aatp8
Rp9
.ccollections
OrderedDict
p0
((lp1
(lp2
S'state'
p3
aI0
aa(lp4
S'distance'
p5
aF55.015252113342285
aa(lp6
S'timestamp'
p7
aF4.850223064422607
aatp8
Rp9
.ccollections
OrderedDict
p0
((lp1
(lp2
S'state'
p3
aI0
aa(lp4
S'distance'
p5
aF55.015252113342285
aa(lp6
S'timestamp'
p7
aF4.850874900817871
aatp8
Rp9
.ccollections
OrderedDict
p0
((lp1
(lp2
S'state'
p3
aI0
aa(lp4
S'distance'
p5
aF55.015252113342285
aa(lp6
S'timestamp'
p7
aF4.860347032546997
aatp8
Rp9
.ccollections
OrderedDict
p0
((lp1
(lp2
S'state'
p3
aI0
aa(lp4
S'distance'
p5
aF55.015252113342285
aa(lp6
S'timestamp'
p7
aF4.86076807975769
aatp8
Rp9
.ccollections
OrderedDict
p0
((lp1
(lp2
S'state'
p3
aI0
aa(lp4
S'distance'
p5
aF55.015252113342285
aa(lp6
S'timestamp'
p7
aF4.8700878620147705
aatp8
Rp9
.ccollections
OrderedDict
p0
((lp1
(lp2
S'state'
p3
aI0
aa(lp4
S'distance'
p5
aF55.015252113342285
aa(lp6
S'timestamp'
p7
aF4.870753049850464
aatp8
Rp9
.ccollections
OrderedDict
p0
((lp1
(lp2
S'state'
p3
aI0
aa(lp4
S'distance'
p5
aF55.015252113342285
aa(lp6
S'timestamp'
p7
aF4.8800129890441895
aatp8
Rp9
.ccollections
OrderedDict
p0
((lp1
(lp2
S'state'
p3
aI0
aa(lp4
S'distance'
p5
aF55.015252113342285
aa(lp6
S'timestamp'
p7
aF4.880831956863403
aatp8
Rp9
.ccollections
OrderedDict
p0
((lp1
(lp2
S'state'
p3
aI0
aa(lp4
S'distance'
p5
aF55.015252113342285
aa(lp6
S'timestamp'
p7
aF4.8901848793029785
aatp8
Rp9
.ccollections
OrderedDict
p0
((lp1
(lp2
S'state'
p3
aI0
aa(lp4
S'distance'
p5
aF55.015252113342285
aa(lp6
S'timestamp'
p7
aF4.891229867935181
aatp8
Rp9
.ccollections
OrderedDict
p0
((lp1
(lp2
S'state'
p3
aI0
aa(lp4
S'distance'
p5
aF55.015252113342285
aa(lp6
S'timestamp'
p7
aF4.8999528884887695
aatp8
Rp9
.ccollections
OrderedDict
p0
((lp1
(lp2
S'state'
p3
aI0
aa(lp4
S'distance'
p5
aF55.015252113342285
aa(lp6
S'timestamp'
p7
aF4.900953054428101
aatp8
Rp9
.ccollections
OrderedDict
p0
((lp1
(lp2
S'state'
p3
aI0
aa(lp4
S'distance'
p5
aF55.015252113342285
aa(lp6
S'timestamp'
p7
aF4.910227060317993
aatp8
Rp9
.ccollections
OrderedDict
p0
((lp1
(lp2
S'state'
p3
aI0
aa(lp4
S'distance'
p5
aF55.015252113342285
aa(lp6
S'timestamp'
p7
aF4.911103963851929
aatp8
Rp9
.ccollections
OrderedDict
p0
((lp1
(lp2
S'state'
p3
aI0
aa(lp4
S'distance'
p5
aF55.015252113342285
aa(lp6
S'timestamp'
p7
aF4.9201319217681885
aatp8
Rp9
.ccollections
OrderedDict
p0
((lp1
(lp2
S'state'
p3
aI0
aa(lp4
S'distance'
p5
aF55.015252113342285
aa(lp6
S'timestamp'
p7
aF4.930063009262085
aatp8
Rp9
.ccollections
OrderedDict
p0
((lp1
(lp2
S'state'
p3
aI0
aa(lp4
S'distance'
p5
aF55.015252113342285
aa(lp6
S'timestamp'
p7
aF4.930631875991821
aatp8
Rp9
.ccollections
OrderedDict
p0
((lp1
(lp2
S'state'
p3
aI0
aa(lp4
S'distance'
p5
aF55.015252113342285
aa(lp6
S'timestamp'
p7
aF4.932861089706421
aatp8
Rp9
.ccollections
OrderedDict
p0
((lp1
(lp2
S'state'
p3
aI0
aa(lp4
S'distance'
p5
aF55.015252113342285
aa(lp6
S'timestamp'
p7
aF4.940340995788574
aatp8
Rp9
.ccollections
OrderedDict
p0
((lp1
(lp2
S'state'
p3
aI0
aa(lp4
S'distance'
p5
aF55.015252113342285
aa(lp6
S'timestamp'
p7
aF4.941176891326904
aatp8
Rp9
.ccollections
OrderedDict
p0
((lp1
(lp2
S'state'
p3
aI0
aa(lp4
S'distance'
p5
aF55.015252113342285
aa(lp6
S'timestamp'
p7
aF4.949924945831299
aatp8
Rp9
.ccollections
OrderedDict
p0
((lp1
(lp2
S'state'
p3
aI0
aa(lp4
S'distance'
p5
aF55.015252113342285
aa(lp6
S'timestamp'
p7
aF4.950777053833008
aatp8
Rp9
.ccollections
OrderedDict
p0
((lp1
(lp2
S'state'
p3
aI0
aa(lp4
S'distance'
p5
aF55.015252113342285
aa(lp6
S'timestamp'
p7
aF4.960628986358643
aatp8
Rp9
.ccollections
OrderedDict
p0
((lp1
(lp2
S'state'
p3
aI0
aa(lp4
S'distance'
p5
aF55.015252113342285
aa(lp6
S'timestamp'
p7
aF4.96130108833313
aatp8
Rp9
.ccollections
OrderedDict
p0
((lp1
(lp2
S'state'
p3
aI0
aa(lp4
S'distance'
p5
aF55.015252113342285
aa(lp6
S'timestamp'
p7
aF4.972384929656982
aatp8
Rp9
.ccollections
OrderedDict
p0
((lp1
(lp2
S'state'
p3
aI0
aa(lp4
S'distance'
p5
aF55.015252113342285
aa(lp6
S'timestamp'
p7
aF4.972652912139893
aatp8
Rp9
.ccollections
OrderedDict
p0
((lp1
(lp2
S'state'
p3
aI0
aa(lp4
S'distance'
p5
aF55.015252113342285
aa(lp6
S'timestamp'
p7
aF4.980603933334351
aatp8
Rp9
.ccollections
OrderedDict
p0
((lp1
(lp2
S'state'
p3
aI0
aa(lp4
S'distance'
p5
aF55.015252113342285
aa(lp6
S'timestamp'
p7
aF4.980778932571411
aatp8
Rp9
.ccollections
OrderedDict
p0
((lp1
(lp2
S'state'
p3
aI0
aa(lp4
S'distance'
p5
aF55.015252113342285
aa(lp6
S'timestamp'
p7
aF4.9901368618011475
aatp8
Rp9
.ccollections
OrderedDict
p0
((lp1
(lp2
S'state'
p3
aI0
aa(lp4
S'distance'
p5
aF55.015252113342285
aa(lp6
S'timestamp'
p7
aF4.991430997848511
aatp8
Rp9
.ccollections
OrderedDict
p0
((lp1
(lp2
S'state'
p3
aI0
aa(lp4
S'distance'
p5
aF55.015252113342285
aa(lp6
S'timestamp'
p7
aF4.9999799728393555
aatp8
Rp9
.ccollections
OrderedDict
p0
((lp1
(lp2
S'state'
p3
aI0
aa(lp4
S'distance'
p5
aF55.015252113342285
aa(lp6
S'timestamp'
p7
aF5.000854015350342
aatp8
Rp9
.ccollections
OrderedDict
p0
((lp1
(lp2
S'state'
p3
aI0
aa(lp4
S'distance'
p5
aF55.015252113342285
aa(lp6
S'timestamp'
p7
aF5.009981870651245
aatp8
Rp9
.ccollections
OrderedDict
p0
((lp1
(lp2
S'state'
p3
aI0
aa(lp4
S'distance'
p5
aF55.015252113342285
aa(lp6
S'timestamp'
p7
aF5.010767936706543
aatp8
Rp9
.ccollections
OrderedDict
p0
((lp1
(lp2
S'state'
p3
aI0
aa(lp4
S'distance'
p5
aF55.015252113342285
aa(lp6
S'timestamp'
p7
aF5.020153999328613
aatp8
Rp9
.ccollections
OrderedDict
p0
((lp1
(lp2
S'state'
p3
aI0
aa(lp4
S'distance'
p5
aF55.015252113342285
aa(lp6
S'timestamp'
p7
aF5.021216869354248
aatp8
Rp9
.ccollections
OrderedDict
p0
((lp1
(lp2
S'state'
p3
aI0
aa(lp4
S'distance'
p5
aF55.015252113342285
aa(lp6
S'timestamp'
p7
aF5.030174970626831
aatp8
Rp9
.ccollections
OrderedDict
p0
((lp1
(lp2
S'state'
p3
aI0
aa(lp4
S'distance'
p5
aF55.015252113342285
aa(lp6
S'timestamp'
p7
aF5.031394004821777
aatp8
Rp9
.ccollections
OrderedDict
p0
((lp1
(lp2
S'state'
p3
aI0
aa(lp4
S'distance'
p5
aF55.015252113342285
aa(lp6
S'timestamp'
p7
aF5.039967060089111
aatp8
Rp9
.ccollections
OrderedDict
p0
((lp1
(lp2
S'state'
p3
aI0
aa(lp4
S'distance'
p5
aF55.015252113342285
aa(lp6
S'timestamp'
p7
aF5.040802955627441
aatp8
Rp9
.ccollections
OrderedDict
p0
((lp1
(lp2
S'state'
p3
aI0
aa(lp4
S'distance'
p5
aF55.015252113342285
aa(lp6
S'timestamp'
p7
aF5.050018072128296
aatp8
Rp9
.ccollections
OrderedDict
p0
((lp1
(lp2
S'state'
p3
aI0
aa(lp4
S'distance'
p5
aF55.015252113342285
aa(lp6
S'timestamp'
p7
aF5.050652980804443
aatp8
Rp9
.ccollections
OrderedDict
p0
((lp1
(lp2
S'state'
p3
aI0
aa(lp4
S'distance'
p5
aF55.015252113342285
aa(lp6
S'timestamp'
p7
aF5.0599119663238525
aatp8
Rp9
.ccollections
OrderedDict
p0
((lp1
(lp2
S'state'
p3
aI0
aa(lp4
S'distance'
p5
aF55.015252113342285
aa(lp6
S'timestamp'
p7
aF5.060961961746216
aatp8
Rp9
.ccollections
OrderedDict
p0
((lp1
(lp2
S'state'
p3
aI0
aa(lp4
S'distance'
p5
aF55.015252113342285
aa(lp6
S'timestamp'
p7
aF5.070095062255859
aatp8
Rp9
.ccollections
OrderedDict
p0
((lp1
(lp2
S'state'
p3
aI0
aa(lp4
S'distance'
p5
aF55.015252113342285
aa(lp6
S'timestamp'
p7
aF5.07117486000061
aatp8
Rp9
.ccollections
OrderedDict
p0
((lp1
(lp2
S'state'
p3
aI0
aa(lp4
S'distance'
p5
aF55.015252113342285
aa(lp6
S'timestamp'
p7
aF5.079974889755249
aatp8
Rp9
.ccollections
OrderedDict
p0
((lp1
(lp2
S'state'
p3
aI0
aa(lp4
S'distance'
p5
aF55.015252113342285
aa(lp6
S'timestamp'
p7
aF5.080808877944946
aatp8
Rp9
.ccollections
OrderedDict
p0
((lp1
(lp2
S'state'
p3
aI0
aa(lp4
S'distance'
p5
aF55.015252113342285
aa(lp6
S'timestamp'
p7
aF5.090221881866455
aatp8
Rp9
.ccollections
OrderedDict
p0
((lp1
(lp2
S'state'
p3
aI0
aa(lp4
S'distance'
p5
aF55.015252113342285
aa(lp6
S'timestamp'
p7
aF5.091192007064819
aatp8
Rp9
.ccollections
OrderedDict
p0
((lp1
(lp2
S'state'
p3
aI0
aa(lp4
S'distance'
p5
aF55.015252113342285
aa(lp6
S'timestamp'
p7
aF5.1001598834991455
aatp8
Rp9
.ccollections
OrderedDict
p0
((lp1
(lp2
S'state'
p3
aI0
aa(lp4
S'distance'
p5
aF55.015252113342285
aa(lp6
S'timestamp'
p7
aF5.100919008255005
aatp8
Rp9
.ccollections
OrderedDict
p0
((lp1
(lp2
S'state'
p3
aI0
aa(lp4
S'distance'
p5
aF55.015252113342285
aa(lp6
S'timestamp'
p7
aF5.110710859298706
aatp8
Rp9
.ccollections
OrderedDict
p0
((lp1
(lp2
S'state'
p3
aI0
aa(lp4
S'distance'
p5
aF55.015252113342285
aa(lp6
S'timestamp'
p7
aF5.111029863357544
aatp8
Rp9
.ccollections
OrderedDict
p0
((lp1
(lp2
S'state'
p3
aI0
aa(lp4
S'distance'
p5
aF55.015252113342285
aa(lp6
S'timestamp'
p7
aF5.119925022125244
aatp8
Rp9
.ccollections
OrderedDict
p0
((lp1
(lp2
S'state'
p3
aI0
aa(lp4
S'distance'
p5
aF55.015252113342285
aa(lp6
S'timestamp'
p7
aF5.121095895767212
aatp8
Rp9
.ccollections
OrderedDict
p0
((lp1
(lp2
S'state'
p3
aI0
aa(lp4
S'distance'
p5
aF55.015252113342285
aa(lp6
S'timestamp'
p7
aF5.13008189201355
aatp8
Rp9
.ccollections
OrderedDict
p0
((lp1
(lp2
S'state'
p3
aI0
aa(lp4
S'distance'
p5
aF55.015252113342285
aa(lp6
S'timestamp'
p7
aF5.131008863449097
aatp8
Rp9
.ccollections
OrderedDict
p0
((lp1
(lp2
S'state'
p3
aI0
aa(lp4
S'distance'
p5
aF55.015252113342285
aa(lp6
S'timestamp'
p7
aF5.140140056610107
aatp8
Rp9
.ccollections
OrderedDict
p0
((lp1
(lp2
S'state'
p3
aI0
aa(lp4
S'distance'
p5
aF55.015252113342285
aa(lp6
S'timestamp'
p7
aF5.140984058380127
aatp8
Rp9
.ccollections
OrderedDict
p0
((lp1
(lp2
S'state'
p3
aI0
aa(lp4
S'distance'
p5
aF55.015252113342285
aa(lp6
S'timestamp'
p7
aF5.149942874908447
aatp8
Rp9
.ccollections
OrderedDict
p0
((lp1
(lp2
S'state'
p3
aI0
aa(lp4
S'distance'
p5
aF55.015252113342285
aa(lp6
S'timestamp'
p7
aF5.150836944580078
aatp8
Rp9
.ccollections
OrderedDict
p0
((lp1
(lp2
S'state'
p3
aI0
aa(lp4
S'distance'
p5
aF55.015252113342285
aa(lp6
S'timestamp'
p7
aF5.160603046417236
aatp8
Rp9
.ccollections
OrderedDict
p0
((lp1
(lp2
S'state'
p3
aI0
aa(lp4
S'distance'
p5
aF55.015252113342285
aa(lp6
S'timestamp'
p7
aF5.160799026489258
aatp8
Rp9
.ccollections
OrderedDict
p0
((lp1
(lp2
S'state'
p3
aI0
aa(lp4
S'distance'
p5
aF55.015252113342285
aa(lp6
S'timestamp'
p7
aF5.17071795463562
aatp8
Rp9
.ccollections
OrderedDict
p0
((lp1
(lp2
S'state'
p3
aI0
aa(lp4
S'distance'
p5
aF55.015252113342285
aa(lp6
S'timestamp'
p7
aF5.17091703414917
aatp8
Rp9
.ccollections
OrderedDict
p0
((lp1
(lp2
S'state'
p3
aI0
aa(lp4
S'distance'
p5
aF55.015252113342285
aa(lp6
S'timestamp'
p7
aF5.180583953857422
aatp8
Rp9
.ccollections
OrderedDict
p0
((lp1
(lp2
S'state'
p3
aI0
aa(lp4
S'distance'
p5
aF55.015252113342285
aa(lp6
S'timestamp'
p7
aF5.1807379722595215
aatp8
Rp9
.ccollections
OrderedDict
p0
((lp1
(lp2
S'state'
p3
aI0
aa(lp4
S'distance'
p5
aF55.015252113342285
aa(lp6
S'timestamp'
p7
aF5.190116882324219
aatp8
Rp9
.ccollections
OrderedDict
p0
((lp1
(lp2
S'state'
p3
aI0
aa(lp4
S'distance'
p5
aF55.015252113342285
aa(lp6
S'timestamp'
p7
aF5.191303968429565
aatp8
Rp9
.ccollections
OrderedDict
p0
((lp1
(lp2
S'state'
p3
aI0
aa(lp4
S'distance'
p5
aF55.015252113342285
aa(lp6
S'timestamp'
p7
aF5.199939012527466
aatp8
Rp9
.ccollections
OrderedDict
p0
((lp1
(lp2
S'state'
p3
aI0
aa(lp4
S'distance'
p5
aF55.015252113342285
aa(lp6
S'timestamp'
p7
aF5.2006800174713135
aatp8
Rp9
.ccollections
OrderedDict
p0
((lp1
(lp2
S'state'
p3
aI0
aa(lp4
S'distance'
p5
aF55.015252113342285
aa(lp6
S'timestamp'
p7
aF5.209995985031128
aatp8
Rp9
.ccollections
OrderedDict
p0
((lp1
(lp2
S'state'
p3
aI0
aa(lp4
S'distance'
p5
aF55.015252113342285
aa(lp6
S'timestamp'
p7
aF5.210709095001221
aatp8
Rp9
.ccollections
OrderedDict
p0
((lp1
(lp2
S'state'
p3
aI0
aa(lp4
S'distance'
p5
aF55.015252113342285
aa(lp6
S'timestamp'
p7
aF5.219805002212524
aatp8
Rp9
.ccollections
OrderedDict
p0
((lp1
(lp2
S'state'
p3
aI0
aa(lp4
S'distance'
p5
aF55.015252113342285
aa(lp6
S'timestamp'
p7
aF5.220871925354004
aatp8
Rp9
.ccollections
OrderedDict
p0
((lp1
(lp2
S'state'
p3
aI0
aa(lp4
S'distance'
p5
aF55.015252113342285
aa(lp6
S'timestamp'
p7
aF5.230150938034058
aatp8
Rp9
.ccollections
OrderedDict
p0
((lp1
(lp2
S'state'
p3
aI0
aa(lp4
S'distance'
p5
aF55.015252113342285
aa(lp6
S'timestamp'
p7
aF5.231441974639893
aatp8
Rp9
.ccollections
OrderedDict
p0
((lp1
(lp2
S'state'
p3
aI0
aa(lp4
S'distance'
p5
aF55.015252113342285
aa(lp6
S'timestamp'
p7
aF5.239923000335693
aatp8
Rp9
.ccollections
OrderedDict
p0
((lp1
(lp2
S'state'
p3
aI0
aa(lp4
S'distance'
p5
aF55.015252113342285
aa(lp6
S'timestamp'
p7
aF5.240984916687012
aatp8
Rp9
.ccollections
OrderedDict
p0
((lp1
(lp2
S'state'
p3
aI0
aa(lp4
S'distance'
p5
aF55.015252113342285
aa(lp6
S'timestamp'
p7
aF5.250563859939575
aatp8
Rp9
.ccollections
OrderedDict
p0
((lp1
(lp2
S'state'
p3
aI0
aa(lp4
S'distance'
p5
aF55.015252113342285
aa(lp6
S'timestamp'
p7
aF5.250797986984253
aatp8
Rp9
.ccollections
OrderedDict
p0
((lp1
(lp2
S'state'
p3
aI0
aa(lp4
S'distance'
p5
aF55.015252113342285
aa(lp6
S'timestamp'
p7
aF5.259845972061157
aatp8
Rp9
.ccollections
OrderedDict
p0
((lp1
(lp2
S'state'
p3
aI0
aa(lp4
S'distance'
p5
aF55.015252113342285
aa(lp6
S'timestamp'
p7
aF5.260782957077026
aatp8
Rp9
.ccollections
OrderedDict
p0
((lp1
(lp2
S'state'
p3
aI0
aa(lp4
S'distance'
p5
aF55.015252113342285
aa(lp6
S'timestamp'
p7
aF5.269819021224976
aatp8
Rp9
.ccollections
OrderedDict
p0
((lp1
(lp2
S'state'
p3
aI0
aa(lp4
S'distance'
p5
aF55.015252113342285
aa(lp6
S'timestamp'
p7
aF5.270905017852783
aatp8
Rp9
.ccollections
OrderedDict
p0
((lp1
(lp2
S'state'
p3
aI0
aa(lp4
S'distance'
p5
aF55.015252113342285
aa(lp6
S'timestamp'
p7
aF5.279919862747192
aatp8
Rp9
.ccollections
OrderedDict
p0
((lp1
(lp2
S'state'
p3
aI0
aa(lp4
S'distance'
p5
aF55.015252113342285
aa(lp6
S'timestamp'
p7
aF5.28105902671814
aatp8
Rp9
.ccollections
OrderedDict
p0
((lp1
(lp2
S'state'
p3
aI0
aa(lp4
S'distance'
p5
aF55.015252113342285
aa(lp6
S'timestamp'
p7
aF5.2898828983306885
aatp8
Rp9
.ccollections
OrderedDict
p0
((lp1
(lp2
S'state'
p3
aI0
aa(lp4
S'distance'
p5
aF55.015252113342285
aa(lp6
S'timestamp'
p7
aF5.290802955627441
aatp8
Rp9
.ccollections
OrderedDict
p0
((lp1
(lp2
S'state'
p3
aI0
aa(lp4
S'distance'
p5
aF55.015252113342285
aa(lp6
S'timestamp'
p7
aF5.300098896026611
aatp8
Rp9
.ccollections
OrderedDict
p0
((lp1
(lp2
S'state'
p3
aI0
aa(lp4
S'distance'
p5
aF55.015252113342285
aa(lp6
S'timestamp'
p7
aF5.300742864608765
aatp8
Rp9
.ccollections
OrderedDict
p0
((lp1
(lp2
S'state'
p3
aI0
aa(lp4
S'distance'
p5
aF55.015252113342285
aa(lp6
S'timestamp'
p7
aF5.310065984725952
aatp8
Rp9
.ccollections
OrderedDict
p0
((lp1
(lp2
S'state'
p3
aI0
aa(lp4
S'distance'
p5
aF55.015252113342285
aa(lp6
S'timestamp'
p7
aF5.311233997344971
aatp8
Rp9
.ccollections
OrderedDict
p0
((lp1
(lp2
S'state'
p3
aI0
aa(lp4
S'distance'
p5
aF55.015252113342285
aa(lp6
S'timestamp'
p7
aF5.319922924041748
aatp8
Rp9
.ccollections
OrderedDict
p0
((lp1
(lp2
S'state'
p3
aI0
aa(lp4
S'distance'
p5
aF55.015252113342285
aa(lp6
S'timestamp'
p7
aF5.320648908615112
aatp8
Rp9
.ccollections
OrderedDict
p0
((lp1
(lp2
S'state'
p3
aI0
aa(lp4
S'distance'
p5
aF55.015252113342285
aa(lp6
S'timestamp'
p7
aF5.330550909042358
aatp8
Rp9
.ccollections
OrderedDict
p0
((lp1
(lp2
S'state'
p3
aI0
aa(lp4
S'distance'
p5
aF55.015252113342285
aa(lp6
S'timestamp'
p7
aF5.330798864364624
aatp8
Rp9
.ccollections
OrderedDict
p0
((lp1
(lp2
S'state'
p3
aI0
aa(lp4
S'distance'
p5
aF55.015252113342285
aa(lp6
S'timestamp'
p7
aF5.340094089508057
aatp8
Rp9
.ccollections
OrderedDict
p0
((lp1
(lp2
S'state'
p3
aI0
aa(lp4
S'distance'
p5
aF55.015252113342285
aa(lp6
S'timestamp'
p7
aF5.341588020324707
aatp8
Rp9
.ccollections
OrderedDict
p0
((lp1
(lp2
S'state'
p3
aI0
aa(lp4
S'distance'
p5
aF55.015252113342285
aa(lp6
S'timestamp'
p7
aF5.350064992904663
aatp8
Rp9
.ccollections
OrderedDict
p0
((lp1
(lp2
S'state'
p3
aI0
aa(lp4
S'distance'
p5
aF55.015252113342285
aa(lp6
S'timestamp'
p7
aF5.3512959480285645
aatp8
Rp9
.ccollections
OrderedDict
p0
((lp1
(lp2
S'state'
p3
aI0
aa(lp4
S'distance'
p5
aF55.015252113342285
aa(lp6
S'timestamp'
p7
aF5.359905004501343
aatp8
Rp9
.ccollections
OrderedDict
p0
((lp1
(lp2
S'state'
p3
aI0
aa(lp4
S'distance'
p5
aF55.015252113342285
aa(lp6
S'timestamp'
p7
aF5.360743045806885
aatp8
Rp9
.ccollections
OrderedDict
p0
((lp1
(lp2
S'state'
p3
aI0
aa(lp4
S'distance'
p5
aF55.015252113342285
aa(lp6
S'timestamp'
p7
aF5.370441913604736
aatp8
Rp9
.ccollections
OrderedDict
p0
((lp1
(lp2
S'state'
p3
aI0
aa(lp4
S'distance'
p5
aF55.015252113342285
aa(lp6
S'timestamp'
p7
aF5.371229887008667
aatp8
Rp9
.ccollections
OrderedDict
p0
((lp1
(lp2
S'state'
p3
aI0
aa(lp4
S'distance'
p5
aF55.015252113342285
aa(lp6
S'timestamp'
p7
aF5.380079030990601
aatp8
Rp9
.ccollections
OrderedDict
p0
((lp1
(lp2
S'state'
p3
aI0
aa(lp4
S'distance'
p5
aF55.015252113342285
aa(lp6
S'timestamp'
p7
aF5.380820989608765
aatp8
Rp9
.ccollections
OrderedDict
p0
((lp1
(lp2
S'state'
p3
aI0
aa(lp4
S'distance'
p5
aF55.015252113342285
aa(lp6
S'timestamp'
p7
aF5.389893054962158
aatp8
Rp9
.ccollections
OrderedDict
p0
((lp1
(lp2
S'state'
p3
aI0
aa(lp4
S'distance'
p5
aF55.015252113342285
aa(lp6
S'timestamp'
p7
aF5.3907389640808105
aatp8
Rp9
.ccollections
OrderedDict
p0
((lp1
(lp2
S'state'
p3
aI0
aa(lp4
S'distance'
p5
aF55.015252113342285
aa(lp6
S'timestamp'
p7
aF5.399833917617798
aatp8
Rp9
.ccollections
OrderedDict
p0
((lp1
(lp2
S'state'
p3
aI0
aa(lp4
S'distance'
p5
aF55.015252113342285
aa(lp6
S'timestamp'
p7
aF5.400497913360596
aatp8
Rp9
.ccollections
OrderedDict
p0
((lp1
(lp2
S'state'
p3
aI0
aa(lp4
S'distance'
p5
aF55.015252113342285
aa(lp6
S'timestamp'
p7
aF5.4098100662231445
aatp8
Rp9
.ccollections
OrderedDict
p0
((lp1
(lp2
S'state'
p3
aI0
aa(lp4
S'distance'
p5
aF55.015252113342285
aa(lp6
S'timestamp'
p7
aF5.412041902542114
aatp8
Rp9
.ccollections
OrderedDict
p0
((lp1
(lp2
S'state'
p3
aI0
aa(lp4
S'distance'
p5
aF55.015252113342285
aa(lp6
S'timestamp'
p7
aF5.4305150508880615
aatp8
Rp9
.ccollections
OrderedDict
p0
((lp1
(lp2
S'state'
p3
aI0
aa(lp4
S'distance'
p5
aF55.015252113342285
aa(lp6
S'timestamp'
p7
aF5.430785894393921
aatp8
Rp9
.ccollections
OrderedDict
p0
((lp1
(lp2
S'state'
p3
aI0
aa(lp4
S'distance'
p5
aF55.015252113342285
aa(lp6
S'timestamp'
p7
aF5.431670904159546
aatp8
Rp9
.ccollections
OrderedDict
p0
((lp1
(lp2
S'state'
p3
aI0
aa(lp4
S'distance'
p5
aF55.015252113342285
aa(lp6
S'timestamp'
p7
aF5.432018995285034
aatp8
Rp9
.ccollections
OrderedDict
p0
((lp1
(lp2
S'state'
p3
aI0
aa(lp4
S'distance'
p5
aF55.015252113342285
aa(lp6
S'timestamp'
p7
aF5.439884901046753
aatp8
Rp9
.ccollections
OrderedDict
p0
((lp1
(lp2
S'state'
p3
aI0
aa(lp4
S'distance'
p5
aF55.015252113342285
aa(lp6
S'timestamp'
p7
aF5.440409898757935
aatp8
Rp9
.ccollections
OrderedDict
p0
((lp1
(lp2
S'state'
p3
aI0
aa(lp4
S'distance'
p5
aF55.015252113342285
aa(lp6
S'timestamp'
p7
aF5.450345039367676
aatp8
Rp9
.ccollections
OrderedDict
p0
((lp1
(lp2
S'state'
p3
aI0
aa(lp4
S'distance'
p5
aF55.015252113342285
aa(lp6
S'timestamp'
p7
aF5.45048189163208
aatp8
Rp9
.ccollections
OrderedDict
p0
((lp1
(lp2
S'state'
p3
aI0
aa(lp4
S'distance'
p5
aF55.015252113342285
aa(lp6
S'timestamp'
p7
aF5.460104942321777
aatp8
Rp9
.ccollections
OrderedDict
p0
((lp1
(lp2
S'state'
p3
aI0
aa(lp4
S'distance'
p5
aF55.015252113342285
aa(lp6
S'timestamp'
p7
aF5.460848093032837
aatp8
Rp9
.ccollections
OrderedDict
p0
((lp1
(lp2
S'state'
p3
aI0
aa(lp4
S'distance'
p5
aF55.015252113342285
aa(lp6
S'timestamp'
p7
aF5.47005295753479
aatp8
Rp9
.ccollections
OrderedDict
p0
((lp1
(lp2
S'state'
p3
aI0
aa(lp4
S'distance'
p5
aF55.015252113342285
aa(lp6
S'timestamp'
p7
aF5.470731973648071
aatp8
Rp9
.ccollections
OrderedDict
p0
((lp1
(lp2
S'state'
p3
aI0
aa(lp4
S'distance'
p5
aF55.015252113342285
aa(lp6
S'timestamp'
p7
aF5.480064868927002
aatp8
Rp9
.ccollections
OrderedDict
p0
((lp1
(lp2
S'state'
p3
aI0
aa(lp4
S'distance'
p5
aF55.015252113342285
aa(lp6
S'timestamp'
p7
aF5.480637073516846
aatp8
Rp9
.ccollections
OrderedDict
p0
((lp1
(lp2
S'state'
p3
aI0
aa(lp4
S'distance'
p5
aF55.015252113342285
aa(lp6
S'timestamp'
p7
aF5.4898810386657715
aatp8
Rp9
.ccollections
OrderedDict
p0
((lp1
(lp2
S'state'
p3
aI0
aa(lp4
S'distance'
p5
aF55.015252113342285
aa(lp6
S'timestamp'
p7
aF5.4917168617248535
aatp8
Rp9
.ccollections
OrderedDict
p0
((lp1
(lp2
S'state'
p3
aI0
aa(lp4
S'distance'
p5
aF55.015252113342285
aa(lp6
S'timestamp'
p7
aF5.500226974487305
aatp8
Rp9
.ccollections
OrderedDict
p0
((lp1
(lp2
S'state'
p3
aI0
aa(lp4
S'distance'
p5
aF55.015252113342285
aa(lp6
S'timestamp'
p7
aF5.500331878662109
aatp8
Rp9
.ccollections
OrderedDict
p0
((lp1
(lp2
S'state'
p3
aI0
aa(lp4
S'distance'
p5
aF55.015252113342285
aa(lp6
S'timestamp'
p7
aF5.509868860244751
aatp8
Rp9
.ccollections
OrderedDict
p0
((lp1
(lp2
S'state'
p3
aI0
aa(lp4
S'distance'
p5
aF55.015252113342285
aa(lp6
S'timestamp'
p7
aF5.51081109046936
aatp8
Rp9
.ccollections
OrderedDict
p0
((lp1
(lp2
S'state'
p3
aI0
aa(lp4
S'distance'
p5
aF55.015252113342285
aa(lp6
S'timestamp'
p7
aF5.519924879074097
aatp8
Rp9
.ccollections
OrderedDict
p0
((lp1
(lp2
S'state'
p3
aI0
aa(lp4
S'distance'
p5
aF55.015252113342285
aa(lp6
S'timestamp'
p7
aF5.520664930343628
aatp8
Rp9
.ccollections
OrderedDict
p0
((lp1
(lp2
S'state'
p3
aI0
aa(lp4
S'distance'
p5
aF55.015252113342285
aa(lp6
S'timestamp'
p7
aF5.529982089996338
aatp8
Rp9
.ccollections
OrderedDict
p0
((lp1
(lp2
S'state'
p3
aI0
aa(lp4
S'distance'
p5
aF55.015252113342285
aa(lp6
S'timestamp'
p7
aF5.530639886856079
aatp8
Rp9
.ccollections
OrderedDict
p0
((lp1
(lp2
S'state'
p3
aI0
aa(lp4
S'distance'
p5
aF55.015252113342285
aa(lp6
S'timestamp'
p7
aF5.540201902389526
aatp8
Rp9
.ccollections
OrderedDict
p0
((lp1
(lp2
S'state'
p3
aI0
aa(lp4
S'distance'
p5
aF55.015252113342285
aa(lp6
S'timestamp'
p7
aF5.54072904586792
aatp8
Rp9
.ccollections
OrderedDict
p0
((lp1
(lp2
S'state'
p3
aI0
aa(lp4
S'distance'
p5
aF55.015252113342285
aa(lp6
S'timestamp'
p7
aF5.550201892852783
aatp8
Rp9
.ccollections
OrderedDict
p0
((lp1
(lp2
S'state'
p3
aI0
aa(lp4
S'distance'
p5
aF55.015252113342285
aa(lp6
S'timestamp'
p7
aF5.550652980804443
aatp8
Rp9
.ccollections
OrderedDict
p0
((lp1
(lp2
S'state'
p3
aI0
aa(lp4
S'distance'
p5
aF55.015252113342285
aa(lp6
S'timestamp'
p7
aF5.559989929199219
aatp8
Rp9
.ccollections
OrderedDict
p0
((lp1
(lp2
S'state'
p3
aI0
aa(lp4
S'distance'
p5
aF55.015252113342285
aa(lp6
S'timestamp'
p7
aF5.560698986053467
aatp8
Rp9
.ccollections
OrderedDict
p0
((lp1
(lp2
S'state'
p3
aI0
aa(lp4
S'distance'
p5
aF55.015252113342285
aa(lp6
S'timestamp'
p7
aF5.580467939376831
aatp8
Rp9
.ccollections
OrderedDict
p0
((lp1
(lp2
S'state'
p3
aI0
aa(lp4
S'distance'
p5
aF55.015252113342285
aa(lp6
S'timestamp'
p7
aF5.580667018890381
aatp8
Rp9
.ccollections
OrderedDict
p0
((lp1
(lp2
S'state'
p3
aI0
aa(lp4
S'distance'
p5
aF55.015252113342285
aa(lp6
S'timestamp'
p7
aF5.582697868347168
aatp8
Rp9
.ccollections
OrderedDict
p0
((lp1
(lp2
S'state'
p3
aI0
aa(lp4
S'distance'
p5
aF55.015252113342285
aa(lp6
S'timestamp'
p7
aF5.583415985107422
aatp8
Rp9
.ccollections
OrderedDict
p0
((lp1
(lp2
S'state'
p3
aI0
aa(lp4
S'distance'
p5
aF55.015252113342285
aa(lp6
S'timestamp'
p7
aF5.590023040771484
aatp8
Rp9
.ccollections
OrderedDict
p0
((lp1
(lp2
S'state'
p3
aI0
aa(lp4
S'distance'
p5
aF55.015252113342285
aa(lp6
S'timestamp'
p7
aF5.591477870941162
aatp8
Rp9
.ccollections
OrderedDict
p0
((lp1
(lp2
S'state'
p3
aI0
aa(lp4
S'distance'
p5
aF55.015252113342285
aa(lp6
S'timestamp'
p7
aF5.600024938583374
aatp8
Rp9
.ccollections
OrderedDict
p0
((lp1
(lp2
S'state'
p3
aI0
aa(lp4
S'distance'
p5
aF55.015252113342285
aa(lp6
S'timestamp'
p7
aF5.600912094116211
aatp8
Rp9
.ccollections
OrderedDict
p0
((lp1
(lp2
S'state'
p3
aI0
aa(lp4
S'distance'
p5
aF55.015252113342285
aa(lp6
S'timestamp'
p7
aF5.610440015792847
aatp8
Rp9
.ccollections
OrderedDict
p0
((lp1
(lp2
S'state'
p3
aI0
aa(lp4
S'distance'
p5
aF55.015252113342285
aa(lp6
S'timestamp'
p7
aF5.6105170249938965
aatp8
Rp9
.ccollections
OrderedDict
p0
((lp1
(lp2
S'state'
p3
aI0
aa(lp4
S'distance'
p5
aF55.015252113342285
aa(lp6
S'timestamp'
p7
aF5.620655059814453
aatp8
Rp9
.ccollections
OrderedDict
p0
((lp1
(lp2
S'state'
p3
aI0
aa(lp4
S'distance'
p5
aF55.015252113342285
aa(lp6
S'timestamp'
p7
aF5.620830059051514
aatp8
Rp9
.ccollections
OrderedDict
p0
((lp1
(lp2
S'state'
p3
aI0
aa(lp4
S'distance'
p5
aF55.015252113342285
aa(lp6
S'timestamp'
p7
aF5.630121946334839
aatp8
Rp9
.ccollections
OrderedDict
p0
((lp1
(lp2
S'state'
p3
aI0
aa(lp4
S'distance'
p5
aF55.015252113342285
aa(lp6
S'timestamp'
p7
aF5.630537033081055
aatp8
Rp9
.ccollections
OrderedDict
p0
((lp1
(lp2
S'state'
p3
aI0
aa(lp4
S'distance'
p5
aF55.015252113342285
aa(lp6
S'timestamp'
p7
aF5.640075922012329
aatp8
Rp9
.ccollections
OrderedDict
p0
((lp1
(lp2
S'state'
p3
aI0
aa(lp4
S'distance'
p5
aF55.015252113342285
aa(lp6
S'timestamp'
p7
aF5.641072988510132
aatp8
Rp9
.ccollections
OrderedDict
p0
((lp1
(lp2
S'state'
p3
aI0
aa(lp4
S'distance'
p5
aF55.015252113342285
aa(lp6
S'timestamp'
p7
aF5.65081000328064
aatp8
Rp9
.ccollections
OrderedDict
p0
((lp1
(lp2
S'state'
p3
aI0
aa(lp4
S'distance'
p5
aF55.015252113342285
aa(lp6
S'timestamp'
p7
aF5.650879859924316
aatp8
Rp9
.ccollections
OrderedDict
p0
((lp1
(lp2
S'state'
p3
aI0
aa(lp4
S'distance'
p5
aF55.015252113342285
aa(lp6
S'timestamp'
p7
aF5.660167932510376
aatp8
Rp9
.ccollections
OrderedDict
p0
((lp1
(lp2
S'state'
p3
aI0
aa(lp4
S'distance'
p5
aF55.015252113342285
aa(lp6
S'timestamp'
p7
aF5.670475006103516
aatp8
Rp9
.ccollections
OrderedDict
p0
((lp1
(lp2
S'state'
p3
aI0
aa(lp4
S'distance'
p5
aF55.015252113342285
aa(lp6
S'timestamp'
p7
aF5.670551061630249
aatp8
Rp9
.ccollections
OrderedDict
p0
((lp1
(lp2
S'state'
p3
aI0
aa(lp4
S'distance'
p5
aF55.015252113342285
aa(lp6
S'timestamp'
p7
aF5.6729559898376465
aatp8
Rp9
.ccollections
OrderedDict
p0
((lp1
(lp2
S'state'
p3
aI0
aa(lp4
S'distance'
p5
aF55.015252113342285
aa(lp6
S'timestamp'
p7
aF5.680027961730957
aatp8
Rp9
.ccollections
OrderedDict
p0
((lp1
(lp2
S'state'
p3
aI0
aa(lp4
S'distance'
p5
aF55.015252113342285
aa(lp6
S'timestamp'
p7
aF5.682477951049805
aatp8
Rp9
.ccollections
OrderedDict
p0
((lp1
(lp2
S'state'
p3
aI0
aa(lp4
S'distance'
p5
aF55.015252113342285
aa(lp6
S'timestamp'
p7
aF5.756428003311157
aatp8
Rp9
.ccollections
OrderedDict
p0
((lp1
(lp2
S'state'
p3
aI0
aa(lp4
S'distance'
p5
aF55.015252113342285
aa(lp6
S'timestamp'
p7
aF5.760624885559082
aatp8
Rp9
.ccollections
OrderedDict
p0
((lp1
(lp2
S'state'
p3
aI0
aa(lp4
S'distance'
p5
aF55.015252113342285
aa(lp6
S'timestamp'
p7
aF5.7689268589019775
aatp8
Rp9
.ccollections
OrderedDict
p0
((lp1
(lp2
S'state'
p3
aI0
aa(lp4
S'distance'
p5
aF55.015252113342285
aa(lp6
S'timestamp'
p7
aF5.771272897720337
aatp8
Rp9
.ccollections
OrderedDict
p0
((lp1
(lp2
S'state'
p3
aI0
aa(lp4
S'distance'
p5
aF55.015252113342285
aa(lp6
S'timestamp'
p7
aF5.778673887252808
aatp8
Rp9
.ccollections
OrderedDict
p0
((lp1
(lp2
S'state'
p3
aI0
aa(lp4
S'distance'
p5
aF55.015252113342285
aa(lp6
S'timestamp'
p7
aF5.781400918960571
aatp8
Rp9
.ccollections
OrderedDict
p0
((lp1
(lp2
S'state'
p3
aI0
aa(lp4
S'distance'
p5
aF55.015252113342285
aa(lp6
S'timestamp'
p7
aF5.782281875610352
aatp8
Rp9
.ccollections
OrderedDict
p0
((lp1
(lp2
S'state'
p3
aI0
aa(lp4
S'distance'
p5
aF55.015252113342285
aa(lp6
S'timestamp'
p7
aF5.78240704536438
aatp8
Rp9
.ccollections
OrderedDict
p0
((lp1
(lp2
S'state'
p3
aI0
aa(lp4
S'distance'
p5
aF55.015252113342285
aa(lp6
S'timestamp'
p7
aF5.788083076477051
aatp8
Rp9
.ccollections
OrderedDict
p0
((lp1
(lp2
S'state'
p3
aI0
aa(lp4
S'distance'
p5
aF55.015252113342285
aa(lp6
S'timestamp'
p7
aF5.791177034378052
aatp8
Rp9
.ccollections
OrderedDict
p0
((lp1
(lp2
S'state'
p3
aI0
aa(lp4
S'distance'
p5
aF55.015252113342285
aa(lp6
S'timestamp'
p7
aF5.793336868286133
aatp8
Rp9
.ccollections
OrderedDict
p0
((lp1
(lp2
S'state'
p3
aI0
aa(lp4
S'distance'
p5
aF55.015252113342285
aa(lp6
S'timestamp'
p7
aF5.795363903045654
aatp8
Rp9
.ccollections
OrderedDict
p0
((lp1
(lp2
S'state'
p3
aI0
aa(lp4
S'distance'
p5
aF55.015252113342285
aa(lp6
S'timestamp'
p7
aF5.795487880706787
aatp8
Rp9
.ccollections
OrderedDict
p0
((lp1
(lp2
S'state'
p3
aI0
aa(lp4
S'distance'
p5
aF55.015252113342285
aa(lp6
S'timestamp'
p7
aF5.796415090560913
aatp8
Rp9
.ccollections
OrderedDict
p0
((lp1
(lp2
S'state'
p3
aI0
aa(lp4
S'distance'
p5
aF55.015252113342285
aa(lp6
S'timestamp'
p7
aF5.796844959259033
aatp8
Rp9
.ccollections
OrderedDict
p0
((lp1
(lp2
S'state'
p3
aI0
aa(lp4
S'distance'
p5
aF55.015252113342285
aa(lp6
S'timestamp'
p7
aF5.799076080322266
aatp8
Rp9
.ccollections
OrderedDict
p0
((lp1
(lp2
S'state'
p3
aI0
aa(lp4
S'distance'
p5
aF55.015252113342285
aa(lp6
S'timestamp'
p7
aF5.799539089202881
aatp8
Rp9
.ccollections
OrderedDict
p0
((lp1
(lp2
S'state'
p3
aI0
aa(lp4
S'distance'
p5
aF55.015252113342285
aa(lp6
S'timestamp'
p7
aF5.799962043762207
aatp8
Rp9
.ccollections
OrderedDict
p0
((lp1
(lp2
S'state'
p3
aI0
aa(lp4
S'distance'
p5
aF55.015252113342285
aa(lp6
S'timestamp'
p7
aF5.801299095153809
aatp8
Rp9
.ccollections
OrderedDict
p0
((lp1
(lp2
S'state'
p3
aI0
aa(lp4
S'distance'
p5
aF55.015252113342285
aa(lp6
S'timestamp'
p7
aF5.80185604095459
aatp8
Rp9
.ccollections
OrderedDict
p0
((lp1
(lp2
S'state'
p3
aI0
aa(lp4
S'distance'
p5
aF55.015252113342285
aa(lp6
S'timestamp'
p7
aF5.802495002746582
aatp8
Rp9
.ccollections
OrderedDict
p0
((lp1
(lp2
S'state'
p3
aI0
aa(lp4
S'distance'
p5
aF55.015252113342285
aa(lp6
S'timestamp'
p7
aF5.8049280643463135
aatp8
Rp9
.ccollections
OrderedDict
p0
((lp1
(lp2
S'state'
p3
aI0
aa(lp4
S'distance'
p5
aF55.015252113342285
aa(lp6
S'timestamp'
p7
aF5.805224895477295
aatp8
Rp9
.ccollections
OrderedDict
p0
((lp1
(lp2
S'state'
p3
aI0
aa(lp4
S'distance'
p5
aF55.015252113342285
aa(lp6
S'timestamp'
p7
aF5.806945085525513
aatp8
Rp9
.ccollections
OrderedDict
p0
((lp1
(lp2
S'state'
p3
aI0
aa(lp4
S'distance'
p5
aF55.015252113342285
aa(lp6
S'timestamp'
p7
aF5.809820890426636
aatp8
Rp9
.ccollections
OrderedDict
p0
((lp1
(lp2
S'state'
p3
aI0
aa(lp4
S'distance'
p5
aF55.015252113342285
aa(lp6
S'timestamp'
p7
aF5.811086893081665
aatp8
Rp9
.ccollections
OrderedDict
p0
((lp1
(lp2
S'state'
p3
aI0
aa(lp4
S'distance'
p5
aF55.015252113342285
aa(lp6
S'timestamp'
p7
aF5.819859981536865
aatp8
Rp9
.ccollections
OrderedDict
p0
((lp1
(lp2
S'state'
p3
aI0
aa(lp4
S'distance'
p5
aF55.015252113342285
aa(lp6
S'timestamp'
p7
aF5.820745944976807
aatp8
Rp9
.ccollections
OrderedDict
p0
((lp1
(lp2
S'state'
p3
aI0
aa(lp4
S'distance'
p5
aF55.015252113342285
aa(lp6
S'timestamp'
p7
aF5.830368995666504
aatp8
Rp9
.ccollections
OrderedDict
p0
((lp1
(lp2
S'state'
p3
aI0
aa(lp4
S'distance'
p5
aF55.015252113342285
aa(lp6
S'timestamp'
p7
aF5.831230878829956
aatp8
Rp9
.ccollections
OrderedDict
p0
((lp1
(lp2
S'state'
p3
aI0
aa(lp4
S'distance'
p5
aF55.015252113342285
aa(lp6
S'timestamp'
p7
aF5.840576887130737
aatp8
Rp9
.ccollections
OrderedDict
p0
((lp1
(lp2
S'state'
p3
aI0
aa(lp4
S'distance'
p5
aF55.015252113342285
aa(lp6
S'timestamp'
p7
aF5.841264963150024
aatp8
Rp9
.ccollections
OrderedDict
p0
((lp1
(lp2
S'state'
p3
aI0
aa(lp4
S'distance'
p5
aF55.015252113342285
aa(lp6
S'timestamp'
p7
aF5.850317001342773
aatp8
Rp9
.ccollections
OrderedDict
p0
((lp1
(lp2
S'state'
p3
aI0
aa(lp4
S'distance'
p5
aF55.015252113342285
aa(lp6
S'timestamp'
p7
aF5.850399017333984
aatp8
Rp9
.ccollections
OrderedDict
p0
((lp1
(lp2
S'state'
p3
aI0
aa(lp4
S'distance'
p5
aF55.015252113342285
aa(lp6
S'timestamp'
p7
aF5.860508918762207
aatp8
Rp9
.ccollections
OrderedDict
p0
((lp1
(lp2
S'state'
p3
aI0
aa(lp4
S'distance'
p5
aF55.015252113342285
aa(lp6
S'timestamp'
p7
aF5.8610429763793945
aatp8
Rp9
.ccollections
OrderedDict
p0
((lp1
(lp2
S'state'
p3
aI0
aa(lp4
S'distance'
p5
aF55.015252113342285
aa(lp6
S'timestamp'
p7
aF5.870012998580933
aatp8
Rp9
.ccollections
OrderedDict
p0
((lp1
(lp2
S'state'
p3
aI0
aa(lp4
S'distance'
p5
aF55.015252113342285
aa(lp6
S'timestamp'
p7
aF5.871216058731079
aatp8
Rp9
.ccollections
OrderedDict
p0
((lp1
(lp2
S'state'
p3
aI0
aa(lp4
S'distance'
p5
aF55.015252113342285
aa(lp6
S'timestamp'
p7
aF5.879859924316406
aatp8
Rp9
.ccollections
OrderedDict
p0
((lp1
(lp2
S'state'
p3
aI0
aa(lp4
S'distance'
p5
aF55.015252113342285
aa(lp6
S'timestamp'
p7
aF5.880543947219849
aatp8
Rp9
.ccollections
OrderedDict
p0
((lp1
(lp2
S'state'
p3
aI0
aa(lp4
S'distance'
p5
aF55.015252113342285
aa(lp6
S'timestamp'
p7
aF5.890498876571655
aatp8
Rp9
.ccollections
OrderedDict
p0
((lp1
(lp2
S'state'
p3
aI0
aa(lp4
S'distance'
p5
aF55.015252113342285
aa(lp6
S'timestamp'
p7
aF5.890733003616333
aatp8
Rp9
.ccollections
OrderedDict
p0
((lp1
(lp2
S'state'
p3
aI0
aa(lp4
S'distance'
p5
aF55.015252113342285
aa(lp6
S'timestamp'
p7
aF5.9000020027160645
aatp8
Rp9
.ccollections
OrderedDict
p0
((lp1
(lp2
S'state'
p3
aI0
aa(lp4
S'distance'
p5
aF55.015252113342285
aa(lp6
S'timestamp'
p7
aF5.900636911392212
aatp8
Rp9
.ccollections
OrderedDict
p0
((lp1
(lp2
S'state'
p3
aI0
aa(lp4
S'distance'
p5
aF55.015252113342285
aa(lp6
S'timestamp'
p7
aF5.909986972808838
aatp8
Rp9
.ccollections
OrderedDict
p0
((lp1
(lp2
S'state'
p3
aI0
aa(lp4
S'distance'
p5
aF55.015252113342285
aa(lp6
S'timestamp'
p7
aF5.9106268882751465
aatp8
Rp9
.ccollections
OrderedDict
p0
((lp1
(lp2
S'state'
p3
aI0
aa(lp4
S'distance'
p5
aF55.015252113342285
aa(lp6
S'timestamp'
p7
aF5.920016050338745
aatp8
Rp9
.ccollections
OrderedDict
p0
((lp1
(lp2
S'state'
p3
aI0
aa(lp4
S'distance'
p5
aF55.015252113342285
aa(lp6
S'timestamp'
p7
aF5.920651912689209
aatp8
Rp9
.ccollections
OrderedDict
p0
((lp1
(lp2
S'state'
p3
aI0
aa(lp4
S'distance'
p5
aF55.015252113342285
aa(lp6
S'timestamp'
p7
aF5.930235862731934
aatp8
Rp9
.ccollections
OrderedDict
p0
((lp1
(lp2
S'state'
p3
aI0
aa(lp4
S'distance'
p5
aF55.015252113342285
aa(lp6
S'timestamp'
p7
aF5.930310010910034
aatp8
Rp9
.ccollections
OrderedDict
p0
((lp1
(lp2
S'state'
p3
aI0
aa(lp4
S'distance'
p5
aF55.015252113342285
aa(lp6
S'timestamp'
p7
aF5.940486907958984
aatp8
Rp9
.ccollections
OrderedDict
p0
((lp1
(lp2
S'state'
p3
aI0
aa(lp4
S'distance'
p5
aF55.015252113342285
aa(lp6
S'timestamp'
p7
aF5.94133996963501
aatp8
Rp9
.ccollections
OrderedDict
p0
((lp1
(lp2
S'state'
p3
aI0
aa(lp4
S'distance'
p5
aF55.015252113342285
aa(lp6
S'timestamp'
p7
aF5.949976921081543
aatp8
Rp9
.ccollections
OrderedDict
p0
((lp1
(lp2
S'state'
p3
aI0
aa(lp4
S'distance'
p5
aF55.015252113342285
aa(lp6
S'timestamp'
p7
aF5.95059609413147
aatp8
Rp9
.ccollections
OrderedDict
p0
((lp1
(lp2
S'state'
p3
aI0
aa(lp4
S'distance'
p5
aF55.015252113342285
aa(lp6
S'timestamp'
p7
aF5.960004091262817
aatp8
Rp9
.ccollections
OrderedDict
p0
((lp1
(lp2
S'state'
p3
aI0
aa(lp4
S'distance'
p5
aF55.015252113342285
aa(lp6
S'timestamp'
p7
aF5.960532903671265
aatp8
Rp9
.ccollections
OrderedDict
p0
((lp1
(lp2
S'state'
p3
aI0
aa(lp4
S'distance'
p5
aF55.015252113342285
aa(lp6
S'timestamp'
p7
aF5.969999074935913
aatp8
Rp9
.ccollections
OrderedDict
p0
((lp1
(lp2
S'state'
p3
aI0
aa(lp4
S'distance'
p5
aF55.015252113342285
aa(lp6
S'timestamp'
p7
aF5.97066593170166
aatp8
Rp9
.ccollections
OrderedDict
p0
((lp1
(lp2
S'state'
p3
aI0
aa(lp4
S'distance'
p5
aF55.015252113342285
aa(lp6
S'timestamp'
p7
aF5.980643033981323
aatp8
Rp9
.ccollections
OrderedDict
p0
((lp1
(lp2
S'state'
p3
aI0
aa(lp4
S'distance'
p5
aF55.015252113342285
aa(lp6
S'timestamp'
p7
aF5.9808220863342285
aatp8
Rp9
.ccollections
OrderedDict
p0
((lp1
(lp2
S'state'
p3
aI0
aa(lp4
S'distance'
p5
aF55.015252113342285
aa(lp6
S'timestamp'
p7
aF5.990062952041626
aatp8
Rp9
.ccollections
OrderedDict
p0
((lp1
(lp2
S'state'
p3
aI0
aa(lp4
S'distance'
p5
aF55.015252113342285
aa(lp6
S'timestamp'
p7
aF5.991038084030151
aatp8
Rp9
.ccollections
OrderedDict
p0
((lp1
(lp2
S'state'
p3
aI0
aa(lp4
S'distance'
p5
aF55.015252113342285
aa(lp6
S'timestamp'
p7
aF5.999993085861206
aatp8
Rp9
.ccollections
OrderedDict
p0
((lp1
(lp2
S'state'
p3
aI0
aa(lp4
S'distance'
p5
aF55.015252113342285
aa(lp6
S'timestamp'
p7
aF6.000494003295898
aatp8
Rp9
.ccollections
OrderedDict
p0
((lp1
(lp2
S'state'
p3
aI0
aa(lp4
S'distance'
p5
aF55.015252113342285
aa(lp6
S'timestamp'
p7
aF6.010751962661743
aatp8
Rp9
.ccollections
OrderedDict
p0
((lp1
(lp2
S'state'
p3
aI0
aa(lp4
S'distance'
p5
aF55.015252113342285
aa(lp6
S'timestamp'
p7
aF6.011106967926025
aatp8
Rp9
.ccollections
OrderedDict
p0
((lp1
(lp2
S'state'
p3
aI0
aa(lp4
S'distance'
p5
aF55.015252113342285
aa(lp6
S'timestamp'
p7
aF6.020492076873779
aatp8
Rp9
.ccollections
OrderedDict
p0
((lp1
(lp2
S'state'
p3
aI0
aa(lp4
S'distance'
p5
aF55.015252113342285
aa(lp6
S'timestamp'
p7
aF6.021768093109131
aatp8
Rp9
.ccollections
OrderedDict
p0
((lp1
(lp2
S'state'
p3
aI0
aa(lp4
S'distance'
p5
aF55.015252113342285
aa(lp6
S'timestamp'
p7
aF6.030040979385376
aatp8
Rp9
.ccollections
OrderedDict
p0
((lp1
(lp2
S'state'
p3
aI0
aa(lp4
S'distance'
p5
aF55.015252113342285
aa(lp6
S'timestamp'
p7
aF6.039920091629028
aatp8
Rp9
.ccollections
OrderedDict
p0
((lp1
(lp2
S'state'
p3
aI0
aa(lp4
S'distance'
p5
aF55.015252113342285
aa(lp6
S'timestamp'
p7
aF6.04030704498291
aatp8
Rp9
.ccollections
OrderedDict
p0
((lp1
(lp2
S'state'
p3
aI0
aa(lp4
S'distance'
p5
aF55.015252113342285
aa(lp6
S'timestamp'
p7
aF6.041055917739868
aatp8
Rp9
.ccollections
OrderedDict
p0
((lp1
(lp2
S'state'
p3
aI0
aa(lp4
S'distance'
p5
aF55.015252113342285
aa(lp6
S'timestamp'
p7
aF6.04996395111084
aatp8
Rp9
.ccollections
OrderedDict
p0
((lp1
(lp2
S'state'
p3
aI0
aa(lp4
S'distance'
p5
aF55.015252113342285
aa(lp6
S'timestamp'
p7
aF6.0507049560546875
aatp8
Rp9
.ccollections
OrderedDict
p0
((lp1
(lp2
S'state'
p3
aI0
aa(lp4
S'distance'
p5
aF55.015252113342285
aa(lp6
S'timestamp'
p7
aF6.060330867767334
aatp8
Rp9
.ccollections
OrderedDict
p0
((lp1
(lp2
S'state'
p3
aI0
aa(lp4
S'distance'
p5
aF55.015252113342285
aa(lp6
S'timestamp'
p7
aF6.060781955718994
aatp8
Rp9
.ccollections
OrderedDict
p0
((lp1
(lp2
S'state'
p3
aI0
aa(lp4
S'distance'
p5
aF55.015252113342285
aa(lp6
S'timestamp'
p7
aF6.069788932800293
aatp8
Rp9
.ccollections
OrderedDict
p0
((lp1
(lp2
S'state'
p3
aI0
aa(lp4
S'distance'
p5
aF55.015252113342285
aa(lp6
S'timestamp'
p7
aF6.070523023605347
aatp8
Rp9
.ccollections
OrderedDict
p0
((lp1
(lp2
S'state'
p3
aI0
aa(lp4
S'distance'
p5
aF55.015252113342285
aa(lp6
S'timestamp'
p7
aF6.080353021621704
aatp8
Rp9
.ccollections
OrderedDict
p0
((lp1
(lp2
S'state'
p3
aI0
aa(lp4
S'distance'
p5
aF55.015252113342285
aa(lp6
S'timestamp'
p7
aF6.081080913543701
aatp8
Rp9
.ccollections
OrderedDict
p0
((lp1
(lp2
S'state'
p3
aI0
aa(lp4
S'distance'
p5
aF55.015252113342285
aa(lp6
S'timestamp'
p7
aF6.089988946914673
aatp8
Rp9
.ccollections
OrderedDict
p0
((lp1
(lp2
S'state'
p3
aI0
aa(lp4
S'distance'
p5
aF55.015252113342285
aa(lp6
S'timestamp'
p7
aF6.090494871139526
aatp8
Rp9
.ccollections
OrderedDict
p0
((lp1
(lp2
S'state'
p3
aI0
aa(lp4
S'distance'
p5
aF55.015252113342285
aa(lp6
S'timestamp'
p7
aF6.100001096725464
aatp8
Rp9
.ccollections
OrderedDict
p0
((lp1
(lp2
S'state'
p3
aI0
aa(lp4
S'distance'
p5
aF55.015252113342285
aa(lp6
S'timestamp'
p7
aF6.100503921508789
aatp8
Rp9
.ccollections
OrderedDict
p0
((lp1
(lp2
S'state'
p3
aI0
aa(lp4
S'distance'
p5
aF55.015252113342285
aa(lp6
S'timestamp'
p7
aF6.109950065612793
aatp8
Rp9
.ccollections
OrderedDict
p0
((lp1
(lp2
S'state'
p3
aI0
aa(lp4
S'distance'
p5
aF55.015252113342285
aa(lp6
S'timestamp'
p7
aF6.110691070556641
aatp8
Rp9
.ccollections
OrderedDict
p0
((lp1
(lp2
S'state'
p3
aI0
aa(lp4
S'distance'
p5
aF55.015252113342285
aa(lp6
S'timestamp'
p7
aF6.120388031005859
aatp8
Rp9
.ccollections
OrderedDict
p0
((lp1
(lp2
S'state'
p3
aI0
aa(lp4
S'distance'
p5
aF55.015252113342285
aa(lp6
S'timestamp'
p7
aF6.120702028274536
aatp8
Rp9
.ccollections
OrderedDict
p0
((lp1
(lp2
S'state'
p3
aI0
aa(lp4
S'distance'
p5
aF55.015252113342285
aa(lp6
S'timestamp'
p7
aF6.130400896072388
aatp8
Rp9
.ccollections
OrderedDict
p0
((lp1
(lp2
S'state'
p3
aI0
aa(lp4
S'distance'
p5
aF55.015252113342285
aa(lp6
S'timestamp'
p7
aF6.1305930614471436
aatp8
Rp9
.ccollections
OrderedDict
p0
((lp1
(lp2
S'state'
p3
aI0
aa(lp4
S'distance'
p5
aF55.015252113342285
aa(lp6
S'timestamp'
p7
aF6.139849901199341
aatp8
Rp9
.ccollections
OrderedDict
p0
((lp1
(lp2
S'state'
p3
aI0
aa(lp4
S'distance'
p5
aF55.015252113342285
aa(lp6
S'timestamp'
p7
aF6.140436887741089
aatp8
Rp9
.ccollections
OrderedDict
p0
((lp1
(lp2
S'state'
p3
aI0
aa(lp4
S'distance'
p5
aF55.015252113342285
aa(lp6
S'timestamp'
p7
aF6.149993896484375
aatp8
Rp9
.ccollections
OrderedDict
p0
((lp1
(lp2
S'state'
p3
aI0
aa(lp4
S'distance'
p5
aF55.015252113342285
aa(lp6
S'timestamp'
p7
aF6.150552988052368
aatp8
Rp9
.ccollections
OrderedDict
p0
((lp1
(lp2
S'state'
p3
aI0
aa(lp4
S'distance'
p5
aF55.015252113342285
aa(lp6
S'timestamp'
p7
aF6.159977912902832
aatp8
Rp9
.ccollections
OrderedDict
p0
((lp1
(lp2
S'state'
p3
aI0
aa(lp4
S'distance'
p5
aF55.015252113342285
aa(lp6
S'timestamp'
p7
aF6.1606879234313965
aatp8
Rp9
.ccollections
OrderedDict
p0
((lp1
(lp2
S'state'
p3
aI0
aa(lp4
S'distance'
p5
aF55.015252113342285
aa(lp6
S'timestamp'
p7
aF6.169911861419678
aatp8
Rp9
.ccollections
OrderedDict
p0
((lp1
(lp2
S'state'
p3
aI0
aa(lp4
S'distance'
p5
aF55.015252113342285
aa(lp6
S'timestamp'
p7
aF6.170504093170166
aatp8
Rp9
.ccollections
OrderedDict
p0
((lp1
(lp2
S'state'
p3
aI0
aa(lp4
S'distance'
p5
aF55.015252113342285
aa(lp6
S'timestamp'
p7
aF6.179918050765991
aatp8
Rp9
.ccollections
OrderedDict
p0
((lp1
(lp2
S'state'
p3
aI0
aa(lp4
S'distance'
p5
aF55.015252113342285
aa(lp6
S'timestamp'
p7
aF6.180783033370972
aatp8
Rp9
.ccollections
OrderedDict
p0
((lp1
(lp2
S'state'
p3
aI0
aa(lp4
S'distance'
p5
aF55.015252113342285
aa(lp6
S'timestamp'
p7
aF6.189934968948364
aatp8
Rp9
.ccollections
OrderedDict
p0
((lp1
(lp2
S'state'
p3
aI0
aa(lp4
S'distance'
p5
aF55.015252113342285
aa(lp6
S'timestamp'
p7
aF6.190525054931641
aatp8
Rp9
.ccollections
OrderedDict
p0
((lp1
(lp2
S'state'
p3
aI0
aa(lp4
S'distance'
p5
aF55.015252113342285
aa(lp6
S'timestamp'
p7
aF6.199972867965698
aatp8
Rp9
.ccollections
OrderedDict
p0
((lp1
(lp2
S'state'
p3
aI0
aa(lp4
S'distance'
p5
aF55.015252113342285
aa(lp6
S'timestamp'
p7
aF6.200447082519531
aatp8
Rp9
.ccollections
OrderedDict
p0
((lp1
(lp2
S'state'
p3
aI0
aa(lp4
S'distance'
p5
aF55.015252113342285
aa(lp6
S'timestamp'
p7
aF6.2106709480285645
aatp8
Rp9
.ccollections
OrderedDict
p0
((lp1
(lp2
S'state'
p3
aI0
aa(lp4
S'distance'
p5
aF55.015252113342285
aa(lp6
S'timestamp'
p7
aF6.210960865020752
aatp8
Rp9
.ccollections
OrderedDict
p0
((lp1
(lp2
S'state'
p3
aI0
aa(lp4
S'distance'
p5
aF55.015252113342285
aa(lp6
S'timestamp'
p7
aF6.219848871231079
aatp8
Rp9
.ccollections
OrderedDict
p0
((lp1
(lp2
S'state'
p3
aI0
aa(lp4
S'distance'
p5
aF55.015252113342285
aa(lp6
S'timestamp'
p7
aF6.220416069030762
aatp8
Rp9
.ccollections
OrderedDict
p0
((lp1
(lp2
S'state'
p3
aI0
aa(lp4
S'distance'
p5
aF55.015252113342285
aa(lp6
S'timestamp'
p7
aF6.230536937713623
aatp8
Rp9
.ccollections
OrderedDict
p0
((lp1
(lp2
S'state'
p3
aI0
aa(lp4
S'distance'
p5
aF55.015252113342285
aa(lp6
S'timestamp'
p7
aF6.232029914855957
aatp8
Rp9
.ccollections
OrderedDict
p0
((lp1
(lp2
S'state'
p3
aI0
aa(lp4
S'distance'
p5
aF55.015252113342285
aa(lp6
S'timestamp'
p7
aF6.240549087524414
aatp8
Rp9
.ccollections
OrderedDict
p0
((lp1
(lp2
S'state'
p3
aI0
aa(lp4
S'distance'
p5
aF55.015252113342285
aa(lp6
S'timestamp'
p7
aF6.241175889968872
aatp8
Rp9
.ccollections
OrderedDict
p0
((lp1
(lp2
S'state'
p3
aI0
aa(lp4
S'distance'
p5
aF55.015252113342285
aa(lp6
S'timestamp'
p7
aF6.250406980514526
aatp8
Rp9
.ccollections
OrderedDict
p0
((lp1
(lp2
S'state'
p3
aI0
aa(lp4
S'distance'
p5
aF55.015252113342285
aa(lp6
S'timestamp'
p7
aF6.2505738735198975
aatp8
Rp9
.ccollections
OrderedDict
p0
((lp1
(lp2
S'state'
p3
aI0
aa(lp4
S'distance'
p5
aF55.015252113342285
aa(lp6
S'timestamp'
p7
aF6.259832859039307
aatp8
Rp9
.ccollections
OrderedDict
p0
((lp1
(lp2
S'state'
p3
aI0
aa(lp4
S'distance'
p5
aF55.015252113342285
aa(lp6
S'timestamp'
p7
aF6.2604899406433105
aatp8
Rp9
.ccollections
OrderedDict
p0
((lp1
(lp2
S'state'
p3
aI0
aa(lp4
S'distance'
p5
aF55.015252113342285
aa(lp6
S'timestamp'
p7
aF6.269898891448975
aatp8
Rp9
.ccollections
OrderedDict
p0
((lp1
(lp2
S'state'
p3
aI0
aa(lp4
S'distance'
p5
aF55.015252113342285
aa(lp6
S'timestamp'
p7
aF6.270520925521851
aatp8
Rp9
.ccollections
OrderedDict
p0
((lp1
(lp2
S'state'
p3
aI0
aa(lp4
S'distance'
p5
aF55.015252113342285
aa(lp6
S'timestamp'
p7
aF6.2800328731536865
aatp8
Rp9
.ccollections
OrderedDict
p0
((lp1
(lp2
S'state'
p3
aI0
aa(lp4
S'distance'
p5
aF55.015252113342285
aa(lp6
S'timestamp'
p7
aF6.280740022659302
aatp8
Rp9
.ccollections
OrderedDict
p0
((lp1
(lp2
S'state'
p3
aI0
aa(lp4
S'distance'
p5
aF55.015252113342285
aa(lp6
S'timestamp'
p7
aF6.290366888046265
aatp8
Rp9
.ccollections
OrderedDict
p0
((lp1
(lp2
S'state'
p3
aI0
aa(lp4
S'distance'
p5
aF55.015252113342285
aa(lp6
S'timestamp'
p7
aF6.291064977645874
aatp8
Rp9
.ccollections
OrderedDict
p0
((lp1
(lp2
S'state'
p3
aI0
aa(lp4
S'distance'
p5
aF55.015252113342285
aa(lp6
S'timestamp'
p7
aF6.299830913543701
aatp8
Rp9
.ccollections
OrderedDict
p0
((lp1
(lp2
S'state'
p3
aI0
aa(lp4
S'distance'
p5
aF55.015252113342285
aa(lp6
S'timestamp'
p7
aF6.300414085388184
aatp8
Rp9
.ccollections
OrderedDict
p0
((lp1
(lp2
S'state'
p3
aI0
aa(lp4
S'distance'
p5
aF55.015252113342285
aa(lp6
S'timestamp'
p7
aF6.309880971908569
aatp8
Rp9
.ccollections
OrderedDict
p0
((lp1
(lp2
S'state'
p3
aI0
aa(lp4
S'distance'
p5
aF55.015252113342285
aa(lp6
S'timestamp'
p7
aF6.310468912124634
aatp8
Rp9
.ccollections
OrderedDict
p0
((lp1
(lp2
S'state'
p3
aI0
aa(lp4
S'distance'
p5
aF55.015252113342285
aa(lp6
S'timestamp'
p7
aF6.319820880889893
aatp8
Rp9
.ccollections
OrderedDict
p0
((lp1
(lp2
S'state'
p3
aI0
aa(lp4
S'distance'
p5
aF55.015252113342285
aa(lp6
S'timestamp'
p7
aF6.320440053939819
aatp8
Rp9
.ccollections
OrderedDict
p0
((lp1
(lp2
S'state'
p3
aI0
aa(lp4
S'distance'
p5
aF55.015252113342285
aa(lp6
S'timestamp'
p7
aF6.3299219608306885
aatp8
Rp9
.ccollections
OrderedDict
p0
((lp1
(lp2
S'state'
p3
aI0
aa(lp4
S'distance'
p5
aF55.015252113342285
aa(lp6
S'timestamp'
p7
aF6.3306450843811035
aatp8
Rp9
.ccollections
OrderedDict
p0
((lp1
(lp2
S'state'
p3
aI0
aa(lp4
S'distance'
p5
aF55.015252113342285
aa(lp6
S'timestamp'
p7
aF6.339936971664429
aatp8
Rp9
.ccollections
OrderedDict
p0
((lp1
(lp2
S'state'
p3
aI0
aa(lp4
S'distance'
p5
aF55.015252113342285
aa(lp6
S'timestamp'
p7
aF6.340625047683716
aatp8
Rp9
.ccollections
OrderedDict
p0
((lp1
(lp2
S'state'
p3
aI0
aa(lp4
S'distance'
p5
aF55.015252113342285
aa(lp6
S'timestamp'
p7
aF6.350008010864258
aatp8
Rp9
.ccollections
OrderedDict
p0
((lp1
(lp2
S'state'
p3
aI0
aa(lp4
S'distance'
p5
aF55.015252113342285
aa(lp6
S'timestamp'
p7
aF6.350576877593994
aatp8
Rp9
.ccollections
OrderedDict
p0
((lp1
(lp2
S'state'
p3
aI0
aa(lp4
S'distance'
p5
aF55.015252113342285
aa(lp6
S'timestamp'
p7
aF6.360161066055298
aatp8
Rp9
.ccollections
OrderedDict
p0
((lp1
(lp2
S'state'
p3
aI0
aa(lp4
S'distance'
p5
aF55.015252113342285
aa(lp6
S'timestamp'
p7
aF6.360780954360962
aatp8
Rp9
.ccollections
OrderedDict
p0
((lp1
(lp2
S'state'
p3
aI0
aa(lp4
S'distance'
p5
aF55.015252113342285
aa(lp6
S'timestamp'
p7
aF6.3698930740356445
aatp8
Rp9
.ccollections
OrderedDict
p0
((lp1
(lp2
S'state'
p3
aI0
aa(lp4
S'distance'
p5
aF55.015252113342285
aa(lp6
S'timestamp'
p7
aF6.370511054992676
aatp8
Rp9
.ccollections
OrderedDict
p0
((lp1
(lp2
S'state'
p3
aI0
aa(lp4
S'distance'
p5
aF55.015252113342285
aa(lp6
S'timestamp'
p7
aF6.37992787361145
aatp8
Rp9
.ccollections
OrderedDict
p0
((lp1
(lp2
S'state'
p3
aI0
aa(lp4
S'distance'
p5
aF55.015252113342285
aa(lp6
S'timestamp'
p7
aF6.380631923675537
aatp8
Rp9
.ccollections
OrderedDict
p0
((lp1
(lp2
S'state'
p3
aI0
aa(lp4
S'distance'
p5
aF55.015252113342285
aa(lp6
S'timestamp'
p7
aF6.390017986297607
aatp8
Rp9
.ccollections
OrderedDict
p0
((lp1
(lp2
S'state'
p3
aI0
aa(lp4
S'distance'
p5
aF55.015252113342285
aa(lp6
S'timestamp'
p7
aF6.390491962432861
aatp8
Rp9
.ccollections
OrderedDict
p0
((lp1
(lp2
S'state'
p3
aI0
aa(lp4
S'distance'
p5
aF55.015252113342285
aa(lp6
S'timestamp'
p7
aF6.399955987930298
aatp8
Rp9
.ccollections
OrderedDict
p0
((lp1
(lp2
S'state'
p3
aI0
aa(lp4
S'distance'
p5
aF55.015252113342285
aa(lp6
S'timestamp'
p7
aF6.4097840785980225
aatp8
Rp9
.ccollections
OrderedDict
p0
((lp1
(lp2
S'state'
p3
aI0
aa(lp4
S'distance'
p5
aF55.015252113342285
aa(lp6
S'timestamp'
p7
aF6.411221027374268
aatp8
Rp9
.ccollections
OrderedDict
p0
((lp1
(lp2
S'state'
p3
aI0
aa(lp4
S'distance'
p5
aF55.015252113342285
aa(lp6
S'timestamp'
p7
aF6.411484003067017
aatp8
Rp9
.ccollections
OrderedDict
p0
((lp1
(lp2
S'state'
p3
aI0
aa(lp4
S'distance'
p5
aF55.015252113342285
aa(lp6
S'timestamp'
p7
aF6.419856071472168
aatp8
Rp9
.ccollections
OrderedDict
p0
((lp1
(lp2
S'state'
p3
aI0
aa(lp4
S'distance'
p5
aF55.015252113342285
aa(lp6
S'timestamp'
p7
aF6.4203948974609375
aatp8
Rp9
.ccollections
OrderedDict
p0
((lp1
(lp2
S'state'
p3
aI0
aa(lp4
S'distance'
p5
aF55.015252113342285
aa(lp6
S'timestamp'
p7
aF6.4299139976501465
aatp8
Rp9
.ccollections
OrderedDict
p0
((lp1
(lp2
S'state'
p3
aI0
aa(lp4
S'distance'
p5
aF55.015252113342285
aa(lp6
S'timestamp'
p7
aF6.430574893951416
aatp8
Rp9
.ccollections
OrderedDict
p0
((lp1
(lp2
S'state'
p3
aI0
aa(lp4
S'distance'
p5
aF55.015252113342285
aa(lp6
S'timestamp'
p7
aF6.439908981323242
aatp8
Rp9
.ccollections
OrderedDict
p0
((lp1
(lp2
S'state'
p3
aI0
aa(lp4
S'distance'
p5
aF55.015252113342285
aa(lp6
S'timestamp'
p7
aF6.440639019012451
aatp8
Rp9
.ccollections
OrderedDict
p0
((lp1
(lp2
S'state'
p3
aI0
aa(lp4
S'distance'
p5
aF55.015252113342285
aa(lp6
S'timestamp'
p7
aF6.449908018112183
aatp8
Rp9
.ccollections
OrderedDict
p0
((lp1
(lp2
S'state'
p3
aI0
aa(lp4
S'distance'
p5
aF55.015252113342285
aa(lp6
S'timestamp'
p7
aF6.450632095336914
aatp8
Rp9
.ccollections
OrderedDict
p0
((lp1
(lp2
S'state'
p3
aI0
aa(lp4
S'distance'
p5
aF55.015252113342285
aa(lp6
S'timestamp'
p7
aF6.460403919219971
aatp8
Rp9
.ccollections
OrderedDict
p0
((lp1
(lp2
S'state'
p3
aI0
aa(lp4
S'distance'
p5
aF55.015252113342285
aa(lp6
S'timestamp'
p7
aF6.460618019104004
aatp8
Rp9
.ccollections
OrderedDict
p0
((lp1
(lp2
S'state'
p3
aI0
aa(lp4
S'distance'
p5
aF55.015252113342285
aa(lp6
S'timestamp'
p7
aF6.4703569412231445
aatp8
Rp9
.ccollections
OrderedDict
p0
((lp1
(lp2
S'state'
p3
aI0
aa(lp4
S'distance'
p5
aF55.015252113342285
aa(lp6
S'timestamp'
p7
aF6.470583915710449
aatp8
Rp9
.ccollections
OrderedDict
p0
((lp1
(lp2
S'state'
p3
aI0
aa(lp4
S'distance'
p5
aF55.015252113342285
aa(lp6
S'timestamp'
p7
aF6.479717969894409
aatp8
Rp9
.ccollections
OrderedDict
p0
((lp1
(lp2
S'state'
p3
aI0
aa(lp4
S'distance'
p5
aF55.015252113342285
aa(lp6
S'timestamp'
p7
aF6.481757879257202
aatp8
Rp9
.ccollections
OrderedDict
p0
((lp1
(lp2
S'state'
p3
aI0
aa(lp4
S'distance'
p5
aF55.015252113342285
aa(lp6
S'timestamp'
p7
aF6.490407943725586
aatp8
Rp9
.ccollections
OrderedDict
p0
((lp1
(lp2
S'state'
p3
aI0
aa(lp4
S'distance'
p5
aF55.015252113342285
aa(lp6
S'timestamp'
p7
aF6.490700006484985
aatp8
Rp9
.ccollections
OrderedDict
p0
((lp1
(lp2
S'state'
p3
aI0
aa(lp4
S'distance'
p5
aF55.015252113342285
aa(lp6
S'timestamp'
p7
aF6.499875068664551
aatp8
Rp9
.ccollections
OrderedDict
p0
((lp1
(lp2
S'state'
p3
aI0
aa(lp4
S'distance'
p5
aF55.015252113342285
aa(lp6
S'timestamp'
p7
aF6.500715017318726
aatp8
Rp9
.ccollections
OrderedDict
p0
((lp1
(lp2
S'state'
p3
aI0
aa(lp4
S'distance'
p5
aF55.015252113342285
aa(lp6
S'timestamp'
p7
aF6.5098888874053955
aatp8
Rp9
.ccollections
OrderedDict
p0
((lp1
(lp2
S'state'
p3
aI0
aa(lp4
S'distance'
p5
aF55.015252113342285
aa(lp6
S'timestamp'
p7
aF6.511411905288696
aatp8
Rp9
.ccollections
OrderedDict
p0
((lp1
(lp2
S'state'
p3
aI0
aa(lp4
S'distance'
p5
aF55.015252113342285
aa(lp6
S'timestamp'
p7
aF6.519912958145142
aatp8
Rp9
.ccollections
OrderedDict
p0
((lp1
(lp2
S'state'
p3
aI0
aa(lp4
S'distance'
p5
aF55.015252113342285
aa(lp6
S'timestamp'
p7
aF6.5205628871917725
aatp8
Rp9
.ccollections
OrderedDict
p0
((lp1
(lp2
S'state'
p3
aI0
aa(lp4
S'distance'
p5
aF55.015252113342285
aa(lp6
S'timestamp'
p7
aF6.530030012130737
aatp8
Rp9
.ccollections
OrderedDict
p0
((lp1
(lp2
S'state'
p3
aI0
aa(lp4
S'distance'
p5
aF55.015252113342285
aa(lp6
S'timestamp'
p7
aF6.530425071716309
aatp8
Rp9
.ccollections
OrderedDict
p0
((lp1
(lp2
S'state'
p3
aI0
aa(lp4
S'distance'
p5
aF55.015252113342285
aa(lp6
S'timestamp'
p7
aF6.540410995483398
aatp8
Rp9
.ccollections
OrderedDict
p0
((lp1
(lp2
S'state'
p3
aI0
aa(lp4
S'distance'
p5
aF55.015252113342285
aa(lp6
S'timestamp'
p7
aF6.5405659675598145
aatp8
Rp9
.ccollections
OrderedDict
p0
((lp1
(lp2
S'state'
p3
aI0
aa(lp4
S'distance'
p5
aF55.015252113342285
aa(lp6
S'timestamp'
p7
aF6.549903869628906
aatp8
Rp9
.ccollections
OrderedDict
p0
((lp1
(lp2
S'state'
p3
aI0
aa(lp4
S'distance'
p5
aF55.015252113342285
aa(lp6
S'timestamp'
p7
aF6.550354957580566
aatp8
Rp9
.ccollections
OrderedDict
p0
((lp1
(lp2
S'state'
p3
aI0
aa(lp4
S'distance'
p5
aF55.015252113342285
aa(lp6
S'timestamp'
p7
aF6.559793949127197
aatp8
Rp9
.ccollections
OrderedDict
p0
((lp1
(lp2
S'state'
p3
aI0
aa(lp4
S'distance'
p5
aF55.015252113342285
aa(lp6
S'timestamp'
p7
aF6.560795068740845
aatp8
Rp9
.ccollections
OrderedDict
p0
((lp1
(lp2
S'state'
p3
aI0
aa(lp4
S'distance'
p5
aF55.015252113342285
aa(lp6
S'timestamp'
p7
aF6.56981897354126
aatp8
Rp9
.ccollections
OrderedDict
p0
((lp1
(lp2
S'state'
p3
aI0
aa(lp4
S'distance'
p5
aF55.015252113342285
aa(lp6
S'timestamp'
p7
aF6.570723056793213
aatp8
Rp9
.ccollections
OrderedDict
p0
((lp1
(lp2
S'state'
p3
aI0
aa(lp4
S'distance'
p5
aF55.015252113342285
aa(lp6
S'timestamp'
p7
aF6.579663991928101
aatp8
Rp9
.ccollections
OrderedDict
p0
((lp1
(lp2
S'state'
p3
aI0
aa(lp4
S'distance'
p5
aF55.015252113342285
aa(lp6
S'timestamp'
p7
aF6.581109046936035
aatp8
Rp9
.ccollections
OrderedDict
p0
((lp1
(lp2
S'state'
p3
aI0
aa(lp4
S'distance'
p5
aF55.015252113342285
aa(lp6
S'timestamp'
p7
aF6.599881887435913
aatp8
Rp9
.ccollections
OrderedDict
p0
((lp1
(lp2
S'state'
p3
aI0
aa(lp4
S'distance'
p5
aF55.015252113342285
aa(lp6
S'timestamp'
p7
aF6.6007609367370605
aatp8
Rp9
.ccollections
OrderedDict
p0
((lp1
(lp2
S'state'
p3
aI0
aa(lp4
S'distance'
p5
aF55.015252113342285
aa(lp6
S'timestamp'
p7
aF6.60136604309082
aatp8
Rp9
.ccollections
OrderedDict
p0
((lp1
(lp2
S'state'
p3
aI0
aa(lp4
S'distance'
p5
aF55.015252113342285
aa(lp6
S'timestamp'
p7
aF6.601999998092651
aatp8
Rp9
.ccollections
OrderedDict
p0
((lp1
(lp2
S'state'
p3
aI0
aa(lp4
S'distance'
p5
aF55.015252113342285
aa(lp6
S'timestamp'
p7
aF6.6099748611450195
aatp8
Rp9
.ccollections
OrderedDict
p0
((lp1
(lp2
S'state'
p3
aI0
aa(lp4
S'distance'
p5
aF55.015252113342285
aa(lp6
S'timestamp'
p7
aF6.6104490756988525
aatp8
Rp9
.ccollections
OrderedDict
p0
((lp1
(lp2
S'state'
p3
aI0
aa(lp4
S'distance'
p5
aF55.015252113342285
aa(lp6
S'timestamp'
p7
aF6.6198930740356445
aatp8
Rp9
.ccollections
OrderedDict
p0
((lp1
(lp2
S'state'
p3
aI0
aa(lp4
S'distance'
p5
aF55.015252113342285
aa(lp6
S'timestamp'
p7
aF6.620538949966431
aatp8
Rp9
.ccollections
OrderedDict
p0
((lp1
(lp2
S'state'
p3
aI0
aa(lp4
S'distance'
p5
aF55.015252113342285
aa(lp6
S'timestamp'
p7
aF6.629765033721924
aatp8
Rp9
.ccollections
OrderedDict
p0
((lp1
(lp2
S'state'
p3
aI0
aa(lp4
S'distance'
p5
aF55.015252113342285
aa(lp6
S'timestamp'
p7
aF6.631156921386719
aatp8
Rp9
.ccollections
OrderedDict
p0
((lp1
(lp2
S'state'
p3
aI0
aa(lp4
S'distance'
p5
aF55.015252113342285
aa(lp6
S'timestamp'
p7
aF6.639698028564453
aatp8
Rp9
.ccollections
OrderedDict
p0
((lp1
(lp2
S'state'
p3
aI0
aa(lp4
S'distance'
p5
aF55.015252113342285
aa(lp6
S'timestamp'
p7
aF6.640758991241455
aatp8
Rp9
.ccollections
OrderedDict
p0
((lp1
(lp2
S'state'
p3
aI0
aa(lp4
S'distance'
p5
aF55.015252113342285
aa(lp6
S'timestamp'
p7
aF6.649874925613403
aatp8
Rp9
.ccollections
OrderedDict
p0
((lp1
(lp2
S'state'
p3
aI0
aa(lp4
S'distance'
p5
aF55.015252113342285
aa(lp6
S'timestamp'
p7
aF6.650413990020752
aatp8
Rp9
.ccollections
OrderedDict
p0
((lp1
(lp2
S'state'
p3
aI0
aa(lp4
S'distance'
p5
aF55.015252113342285
aa(lp6
S'timestamp'
p7
aF6.659818887710571
aatp8
Rp9
.ccollections
OrderedDict
p0
((lp1
(lp2
S'state'
p3
aI0
aa(lp4
S'distance'
p5
aF55.015252113342285
aa(lp6
S'timestamp'
p7
aF6.660568952560425
aatp8
Rp9
.ccollections
OrderedDict
p0
((lp1
(lp2
S'state'
p3
aI0
aa(lp4
S'distance'
p5
aF55.015252113342285
aa(lp6
S'timestamp'
p7
aF6.670314073562622
aatp8
Rp9
.ccollections
OrderedDict
p0
((lp1
(lp2
S'state'
p3
aI0
aa(lp4
S'distance'
p5
aF55.015252113342285
aa(lp6
S'timestamp'
p7
aF6.670598983764648
aatp8
Rp9
.ccollections
OrderedDict
p0
((lp1
(lp2
S'state'
p3
aI0
aa(lp4
S'distance'
p5
aF55.015252113342285
aa(lp6
S'timestamp'
p7
aF6.680278062820435
aatp8
Rp9
.ccollections
OrderedDict
p0
((lp1
(lp2
S'state'
p3
aI0
aa(lp4
S'distance'
p5
aF55.015252113342285
aa(lp6
S'timestamp'
p7
aF6.680526971817017
aatp8
Rp9
.ccollections
OrderedDict
p0
((lp1
(lp2
S'state'
p3
aI0
aa(lp4
S'distance'
p5
aF55.015252113342285
aa(lp6
S'timestamp'
p7
aF6.689728021621704
aatp8
Rp9
.ccollections
OrderedDict
p0
((lp1
(lp2
S'state'
p3
aI0
aa(lp4
S'distance'
p5
aF55.015252113342285
aa(lp6
S'timestamp'
p7
aF6.690633058547974
aatp8
Rp9
.ccollections
OrderedDict
p0
((lp1
(lp2
S'state'
p3
aI0
aa(lp4
S'distance'
p5
aF55.015252113342285
aa(lp6
S'timestamp'
p7
aF6.699748992919922
aatp8
Rp9
.ccollections
OrderedDict
p0
((lp1
(lp2
S'state'
p3
aI0
aa(lp4
S'distance'
p5
aF55.015252113342285
aa(lp6
S'timestamp'
p7
aF6.700639963150024
aatp8
Rp9
.ccollections
OrderedDict
p0
((lp1
(lp2
S'state'
p3
aI0
aa(lp4
S'distance'
p5
aF55.015252113342285
aa(lp6
S'timestamp'
p7
aF6.709762096405029
aatp8
Rp9
.ccollections
OrderedDict
p0
((lp1
(lp2
S'state'
p3
aI0
aa(lp4
S'distance'
p5
aF55.015252113342285
aa(lp6
S'timestamp'
p7
aF6.710808992385864
aatp8
Rp9
.ccollections
OrderedDict
p0
((lp1
(lp2
S'state'
p3
aI0
aa(lp4
S'distance'
p5
aF55.015252113342285
aa(lp6
S'timestamp'
p7
aF6.71973991394043
aatp8
Rp9
.ccollections
OrderedDict
p0
((lp1
(lp2
S'state'
p3
aI0
aa(lp4
S'distance'
p5
aF55.015252113342285
aa(lp6
S'timestamp'
p7
aF6.720592021942139
aatp8
Rp9
.ccollections
OrderedDict
p0
((lp1
(lp2
S'state'
p3
aI0
aa(lp4
S'distance'
p5
aF55.015252113342285
aa(lp6
S'timestamp'
p7
aF6.729750871658325
aatp8
Rp9
.ccollections
OrderedDict
p0
((lp1
(lp2
S'state'
p3
aI0
aa(lp4
S'distance'
p5
aF55.015252113342285
aa(lp6
S'timestamp'
p7
aF6.73064398765564
aatp8
Rp9
.ccollections
OrderedDict
p0
((lp1
(lp2
S'state'
p3
aI0
aa(lp4
S'distance'
p5
aF55.015252113342285
aa(lp6
S'timestamp'
p7
aF6.73974609375
aatp8
Rp9
.ccollections
OrderedDict
p0
((lp1
(lp2
S'state'
p3
aI0
aa(lp4
S'distance'
p5
aF55.015252113342285
aa(lp6
S'timestamp'
p7
aF6.740962982177734
aatp8
Rp9
.ccollections
OrderedDict
p0
((lp1
(lp2
S'state'
p3
aI0
aa(lp4
S'distance'
p5
aF55.015252113342285
aa(lp6
S'timestamp'
p7
aF6.749753952026367
aatp8
Rp9
.ccollections
OrderedDict
p0
((lp1
(lp2
S'state'
p3
aI0
aa(lp4
S'distance'
p5
aF55.015252113342285
aa(lp6
S'timestamp'
p7
aF6.750834941864014
aatp8
Rp9
.ccollections
OrderedDict
p0
((lp1
(lp2
S'state'
p3
aI0
aa(lp4
S'distance'
p5
aF55.015252113342285
aa(lp6
S'timestamp'
p7
aF6.759752035140991
aatp8
Rp9
.ccollections
OrderedDict
p0
((lp1
(lp2
S'state'
p3
aI0
aa(lp4
S'distance'
p5
aF55.015252113342285
aa(lp6
S'timestamp'
p7
aF6.760613918304443
aatp8
Rp9
.ccollections
OrderedDict
p0
((lp1
(lp2
S'state'
p3
aI0
aa(lp4
S'distance'
p5
aF55.015252113342285
aa(lp6
S'timestamp'
p7
aF6.769728899002075
aatp8
Rp9
.ccollections
OrderedDict
p0
((lp1
(lp2
S'state'
p3
aI0
aa(lp4
S'distance'
p5
aF55.015252113342285
aa(lp6
S'timestamp'
p7
aF6.779864072799683
aatp8
Rp9
.ccollections
OrderedDict
p0
((lp1
(lp2
S'state'
p3
aI0
aa(lp4
S'distance'
p5
aF55.015252113342285
aa(lp6
S'timestamp'
p7
aF6.780426979064941
aatp8
Rp9
.ccollections
OrderedDict
p0
((lp1
(lp2
S'state'
p3
aI0
aa(lp4
S'distance'
p5
aF55.015252113342285
aa(lp6
S'timestamp'
p7
aF6.782577991485596
aatp8
Rp9
.ccollections
OrderedDict
p0
((lp1
(lp2
S'state'
p3
aI0
aa(lp4
S'distance'
p5
aF55.015252113342285
aa(lp6
S'timestamp'
p7
aF6.789741039276123
aatp8
Rp9
.ccollections
OrderedDict
p0
((lp1
(lp2
S'state'
p3
aI0
aa(lp4
S'distance'
p5
aF55.015252113342285
aa(lp6
S'timestamp'
p7
aF6.790920972824097
aatp8
Rp9
.ccollections
OrderedDict
p0
((lp1
(lp2
S'state'
p3
aI0
aa(lp4
S'distance'
p5
aF55.015252113342285
aa(lp6
S'timestamp'
p7
aF6.799894094467163
aatp8
Rp9
.ccollections
OrderedDict
p0
((lp1
(lp2
S'state'
p3
aI0
aa(lp4
S'distance'
p5
aF55.015252113342285
aa(lp6
S'timestamp'
p7
aF6.800303936004639
aatp8
Rp9
.ccollections
OrderedDict
p0
((lp1
(lp2
S'state'
p3
aI0
aa(lp4
S'distance'
p5
aF55.015252113342285
aa(lp6
S'timestamp'
p7
aF6.809735059738159
aatp8
Rp9
.ccollections
OrderedDict
p0
((lp1
(lp2
S'state'
p3
aI0
aa(lp4
S'distance'
p5
aF55.015252113342285
aa(lp6
S'timestamp'
p7
aF6.811100006103516
aatp8
Rp9
.ccollections
OrderedDict
p0
((lp1
(lp2
S'state'
p3
aI0
aa(lp4
S'distance'
p5
aF55.015252113342285
aa(lp6
S'timestamp'
p7
aF6.8197340965271
aatp8
Rp9
.ccollections
OrderedDict
p0
((lp1
(lp2
S'state'
p3
aI0
aa(lp4
S'distance'
p5
aF55.015252113342285
aa(lp6
S'timestamp'
p7
aF6.820597887039185
aatp8
Rp9
.ccollections
OrderedDict
p0
((lp1
(lp2
S'state'
p3
aI0
aa(lp4
S'distance'
p5
aF55.015252113342285
aa(lp6
S'timestamp'
p7
aF6.829715013504028
aatp8
Rp9
.ccollections
OrderedDict
p0
((lp1
(lp2
S'state'
p3
aI0
aa(lp4
S'distance'
p5
aF55.015252113342285
aa(lp6
S'timestamp'
p7
aF6.831112861633301
aatp8
Rp9
.ccollections
OrderedDict
p0
((lp1
(lp2
S'state'
p3
aI0
aa(lp4
S'distance'
p5
aF55.015252113342285
aa(lp6
S'timestamp'
p7
aF6.839720964431763
aatp8
Rp9
.ccollections
OrderedDict
p0
((lp1
(lp2
S'state'
p3
aI0
aa(lp4
S'distance'
p5
aF55.015252113342285
aa(lp6
S'timestamp'
p7
aF6.840599060058594
aatp8
Rp9
.ccollections
OrderedDict
p0
((lp1
(lp2
S'state'
p3
aI0
aa(lp4
S'distance'
p5
aF55.015252113342285
aa(lp6
S'timestamp'
p7
aF6.84971809387207
aatp8
Rp9
.ccollections
OrderedDict
p0
((lp1
(lp2
S'state'
p3
aI0
aa(lp4
S'distance'
p5
aF55.015252113342285
aa(lp6
S'timestamp'
p7
aF6.850636005401611
aatp8
Rp9
.ccollections
OrderedDict
p0
((lp1
(lp2
S'state'
p3
aI0
aa(lp4
S'distance'
p5
aF55.015252113342285
aa(lp6
S'timestamp'
p7
aF6.859642028808594
aatp8
Rp9
.ccollections
OrderedDict
p0
((lp1
(lp2
S'state'
p3
aI0
aa(lp4
S'distance'
p5
aF55.015252113342285
aa(lp6
S'timestamp'
p7
aF6.860658884048462
aatp8
Rp9
.ccollections
OrderedDict
p0
((lp1
(lp2
S'state'
p3
aI0
aa(lp4
S'distance'
p5
aF55.015252113342285
aa(lp6
S'timestamp'
p7
aF6.869693040847778
aatp8
Rp9
.ccollections
OrderedDict
p0
((lp1
(lp2
S'state'
p3
aI0
aa(lp4
S'distance'
p5
aF55.015252113342285
aa(lp6
S'timestamp'
p7
aF6.870939016342163
aatp8
Rp9
.ccollections
OrderedDict
p0
((lp1
(lp2
S'state'
p3
aI0
aa(lp4
S'distance'
p5
aF55.015252113342285
aa(lp6
S'timestamp'
p7
aF6.879709005355835
aatp8
Rp9
.ccollections
OrderedDict
p0
((lp1
(lp2
S'state'
p3
aI0
aa(lp4
S'distance'
p5
aF55.015252113342285
aa(lp6
S'timestamp'
p7
aF6.8810179233551025
aatp8
Rp9
.ccollections
OrderedDict
p0
((lp1
(lp2
S'state'
p3
aI0
aa(lp4
S'distance'
p5
aF55.015252113342285
aa(lp6
S'timestamp'
p7
aF6.889965057373047
aatp8
Rp9
.ccollections
OrderedDict
p0
((lp1
(lp2
S'state'
p3
aI0
aa(lp4
S'distance'
p5
aF55.015252113342285
aa(lp6
S'timestamp'
p7
aF6.890459060668945
aatp8
Rp9
.ccollections
OrderedDict
p0
((lp1
(lp2
S'state'
p3
aI0
aa(lp4
S'distance'
p5
aF55.015252113342285
aa(lp6
S'timestamp'
p7
aF6.899806022644043
aatp8
Rp9
.ccollections
OrderedDict
p0
((lp1
(lp2
S'state'
p3
aI0
aa(lp4
S'distance'
p5
aF55.015252113342285
aa(lp6
S'timestamp'
p7
aF6.90057897567749
aatp8
Rp9
.ccollections
OrderedDict
p0
((lp1
(lp2
S'state'
p3
aI0
aa(lp4
S'distance'
p5
aF55.015252113342285
aa(lp6
S'timestamp'
p7
aF6.90971302986145
aatp8
Rp9
.ccollections
OrderedDict
p0
((lp1
(lp2
S'state'
p3
aI0
aa(lp4
S'distance'
p5
aF55.015252113342285
aa(lp6
S'timestamp'
p7
aF6.912205934524536
aatp8
Rp9
.ccollections
OrderedDict
p0
((lp1
(lp2
S'state'
p3
aI0
aa(lp4
S'distance'
p5
aF55.015252113342285
aa(lp6
S'timestamp'
p7
aF6.919615030288696
aatp8
Rp9
.ccollections
OrderedDict
p0
((lp1
(lp2
S'state'
p3
aI0
aa(lp4
S'distance'
p5
aF55.015252113342285
aa(lp6
S'timestamp'
p7
aF6.920650005340576
aatp8
Rp9
.ccollections
OrderedDict
p0
((lp1
(lp2
S'state'
p3
aI0
aa(lp4
S'distance'
p5
aF55.015252113342285
aa(lp6
S'timestamp'
p7
aF6.929702043533325
aatp8
Rp9
.ccollections
OrderedDict
p0
((lp1
(lp2
S'state'
p3
aI0
aa(lp4
S'distance'
p5
aF55.015252113342285
aa(lp6
S'timestamp'
p7
aF6.9305970668792725
aatp8
Rp9
.ccollections
OrderedDict
p0
((lp1
(lp2
S'state'
p3
aI0
aa(lp4
S'distance'
p5
aF55.015252113342285
aa(lp6
S'timestamp'
p7
aF6.939698934555054
aatp8
Rp9
.ccollections
OrderedDict
p0
((lp1
(lp2
S'state'
p3
aI0
aa(lp4
S'distance'
p5
aF55.015252113342285
aa(lp6
S'timestamp'
p7
aF6.9405810832977295
aatp8
Rp9
.ccollections
OrderedDict
p0
((lp1
(lp2
S'state'
p3
aI0
aa(lp4
S'distance'
p5
aF55.015252113342285
aa(lp6
S'timestamp'
p7
aF6.949702024459839
aatp8
Rp9
.ccollections
OrderedDict
p0
((lp1
(lp2
S'state'
p3
aI0
aa(lp4
S'distance'
p5
aF55.015252113342285
aa(lp6
S'timestamp'
p7
aF6.9507410526275635
aatp8
Rp9
.ccollections
OrderedDict
p0
((lp1
(lp2
S'state'
p3
aI0
aa(lp4
S'distance'
p5
aF55.015252113342285
aa(lp6
S'timestamp'
p7
aF6.959635019302368
aatp8
Rp9
.ccollections
OrderedDict
p0
((lp1
(lp2
S'state'
p3
aI0
aa(lp4
S'distance'
p5
aF55.015252113342285
aa(lp6
S'timestamp'
p7
aF6.960583925247192
aatp8
Rp9
.ccollections
OrderedDict
p0
((lp1
(lp2
S'state'
p3
aI0
aa(lp4
S'distance'
p5
aF55.015252113342285
aa(lp6
S'timestamp'
p7
aF6.969698905944824
aatp8
Rp9
.ccollections
OrderedDict
p0
((lp1
(lp2
S'state'
p3
aI0
aa(lp4
S'distance'
p5
aF55.015252113342285
aa(lp6
S'timestamp'
p7
aF6.970592975616455
aatp8
Rp9
.ccollections
OrderedDict
p0
((lp1
(lp2
S'state'
p3
aI0
aa(lp4
S'distance'
p5
aF55.015252113342285
aa(lp6
S'timestamp'
p7
aF6.979675054550171
aatp8
Rp9
.ccollections
OrderedDict
p0
((lp1
(lp2
S'state'
p3
aI0
aa(lp4
S'distance'
p5
aF55.015252113342285
aa(lp6
S'timestamp'
p7
aF6.980520009994507
aatp8
Rp9
.ccollections
OrderedDict
p0
((lp1
(lp2
S'state'
p3
aI0
aa(lp4
S'distance'
p5
aF55.015252113342285
aa(lp6
S'timestamp'
p7
aF6.989674091339111
aatp8
Rp9
.ccollections
OrderedDict
p0
((lp1
(lp2
S'state'
p3
aI0
aa(lp4
S'distance'
p5
aF55.015252113342285
aa(lp6
S'timestamp'
p7
aF6.991657972335815
aatp8
Rp9
.ccollections
OrderedDict
p0
((lp1
(lp2
S'state'
p3
aI0
aa(lp4
S'distance'
p5
aF55.015252113342285
aa(lp6
S'timestamp'
p7
aF6.999753952026367
aatp8
Rp9
.ccollections
OrderedDict
p0
((lp1
(lp2
S'state'
p3
aI0
aa(lp4
S'distance'
p5
aF55.015252113342285
aa(lp6
S'timestamp'
p7
aF7.000623941421509
aatp8
Rp9
.ccollections
OrderedDict
p0
((lp1
(lp2
S'state'
p3
aI0
aa(lp4
S'distance'
p5
aF55.015252113342285
aa(lp6
S'timestamp'
p7
aF7.009739875793457
aatp8
Rp9
.ccollections
OrderedDict
p0
((lp1
(lp2
S'state'
p3
aI0
aa(lp4
S'distance'
p5
aF55.015252113342285
aa(lp6
S'timestamp'
p7
aF7.011106967926025
aatp8
Rp9
.ccollections
OrderedDict
p0
((lp1
(lp2
S'state'
p3
aI0
aa(lp4
S'distance'
p5
aF55.015252113342285
aa(lp6
S'timestamp'
p7
aF7.019675970077515
aatp8
Rp9
.ccollections
OrderedDict
p0
((lp1
(lp2
S'state'
p3
aI0
aa(lp4
S'distance'
p5
aF55.015252113342285
aa(lp6
S'timestamp'
p7
aF7.0207130908966064
aatp8
Rp9
.ccollections
OrderedDict
p0
((lp1
(lp2
S'state'
p3
aI0
aa(lp4
S'distance'
p5
aF55.015252113342285
aa(lp6
S'timestamp'
p7
aF7.029706954956055
aatp8
Rp9
.ccollections
OrderedDict
p0
((lp1
(lp2
S'state'
p3
aI0
aa(lp4
S'distance'
p5
aF55.015252113342285
aa(lp6
S'timestamp'
p7
aF7.031264066696167
aatp8
Rp9
.ccollections
OrderedDict
p0
((lp1
(lp2
S'state'
p3
aI0
aa(lp4
S'distance'
p5
aF55.015252113342285
aa(lp6
S'timestamp'
p7
aF7.03978705406189
aatp8
Rp9
.ccollections
OrderedDict
p0
((lp1
(lp2
S'state'
p3
aI0
aa(lp4
S'distance'
p5
aF55.015252113342285
aa(lp6
S'timestamp'
p7
aF7.040343999862671
aatp8
Rp9
.ccollections
OrderedDict
p0
((lp1
(lp2
S'state'
p3
aI0
aa(lp4
S'distance'
p5
aF55.015252113342285
aa(lp6
S'timestamp'
p7
aF7.049731016159058
aatp8
Rp9
.ccollections
OrderedDict
p0
((lp1
(lp2
S'state'
p3
aI0
aa(lp4
S'distance'
p5
aF55.015252113342285
aa(lp6
S'timestamp'
p7
aF7.050275087356567
aatp8
Rp9
.ccollections
OrderedDict
p0
((lp1
(lp2
S'state'
p3
aI0
aa(lp4
S'distance'
p5
aF55.015252113342285
aa(lp6
S'timestamp'
p7
aF7.059911012649536
aatp8
Rp9
.ccollections
OrderedDict
p0
((lp1
(lp2
S'state'
p3
aI0
aa(lp4
S'distance'
p5
aF55.015252113342285
aa(lp6
S'timestamp'
p7
aF7.060388088226318
aatp8
Rp9
.ccollections
OrderedDict
p0
((lp1
(lp2
S'state'
p3
aI0
aa(lp4
S'distance'
p5
aF55.015252113342285
aa(lp6
S'timestamp'
p7
aF7.0696799755096436
aatp8
Rp9
.ccollections
OrderedDict
p0
((lp1
(lp2
S'state'
p3
aI0
aa(lp4
S'distance'
p5
aF55.015252113342285
aa(lp6
S'timestamp'
p7
aF7.0702619552612305
aatp8
Rp9
.ccollections
OrderedDict
p0
((lp1
(lp2
S'state'
p3
aI0
aa(lp4
S'distance'
p5
aF55.015252113342285
aa(lp6
S'timestamp'
p7
aF7.079679012298584
aatp8
Rp9
.ccollections
OrderedDict
p0
((lp1
(lp2
S'state'
p3
aI0
aa(lp4
S'distance'
p5
aF55.015252113342285
aa(lp6
S'timestamp'
p7
aF7.080621004104614
aatp8
Rp9
.ccollections
OrderedDict
p0
((lp1
(lp2
S'state'
p3
aI0
aa(lp4
S'distance'
p5
aF55.015252113342285
aa(lp6
S'timestamp'
p7
aF7.089787006378174
aatp8
Rp9
.ccollections
OrderedDict
p0
((lp1
(lp2
S'state'
p3
aI0
aa(lp4
S'distance'
p5
aF55.015252113342285
aa(lp6
S'timestamp'
p7
aF7.090425968170166
aatp8
Rp9
.ccollections
OrderedDict
p0
((lp1
(lp2
S'state'
p3
aI0
aa(lp4
S'distance'
p5
aF55.015252113342285
aa(lp6
S'timestamp'
p7
aF7.099577903747559
aatp8
Rp9
.ccollections
OrderedDict
p0
((lp1
(lp2
S'state'
p3
aI0
aa(lp4
S'distance'
p5
aF55.015252113342285
aa(lp6
S'timestamp'
p7
aF7.1004250049591064
aatp8
Rp9
.ccollections
OrderedDict
p0
((lp1
(lp2
S'state'
p3
aI0
aa(lp4
S'distance'
p5
aF55.015252113342285
aa(lp6
S'timestamp'
p7
aF7.109648942947388
aatp8
Rp9
.ccollections
OrderedDict
p0
((lp1
(lp2
S'state'
p3
aI0
aa(lp4
S'distance'
p5
aF55.015252113342285
aa(lp6
S'timestamp'
p7
aF7.111293077468872
aatp8
Rp9
.ccollections
OrderedDict
p0
((lp1
(lp2
S'state'
p3
aI0
aa(lp4
S'distance'
p5
aF55.015252113342285
aa(lp6
S'timestamp'
p7
aF7.1197190284729
aatp8
Rp9
.ccollections
OrderedDict
p0
((lp1
(lp2
S'state'
p3
aI0
aa(lp4
S'distance'
p5
aF55.015252113342285
aa(lp6
S'timestamp'
p7
aF7.120342969894409
aatp8
Rp9
.ccollections
OrderedDict
p0
((lp1
(lp2
S'state'
p3
aI0
aa(lp4
S'distance'
p5
aF55.015252113342285
aa(lp6
S'timestamp'
p7
aF7.129821062088013
aatp8
Rp9
.ccollections
OrderedDict
p0
((lp1
(lp2
S'state'
p3
aI0
aa(lp4
S'distance'
p5
aF55.015252113342285
aa(lp6
S'timestamp'
p7
aF7.130321979522705
aatp8
Rp9
.ccollections
OrderedDict
p0
((lp1
(lp2
S'state'
p3
aI0
aa(lp4
S'distance'
p5
aF55.015252113342285
aa(lp6
S'timestamp'
p7
aF7.139777898788452
aatp8
Rp9
.ccollections
OrderedDict
p0
((lp1
(lp2
S'state'
p3
aI0
aa(lp4
S'distance'
p5
aF55.015252113342285
aa(lp6
S'timestamp'
p7
aF7.140038013458252
aatp8
Rp9
.ccollections
OrderedDict
p0
((lp1
(lp2
S'state'
p3
aI0
aa(lp4
S'distance'
p5
aF55.015252113342285
aa(lp6
S'timestamp'
p7
aF7.149551868438721
aatp8
Rp9
.ccollections
OrderedDict
p0
((lp1
(lp2
S'state'
p3
aI0
aa(lp4
S'distance'
p5
aF55.015252113342285
aa(lp6
S'timestamp'
p7
aF7.151943922042847
aatp8
Rp9
.ccollections
OrderedDict
p0
((lp1
(lp2
S'state'
p3
aI0
aa(lp4
S'distance'
p5
aF55.015252113342285
aa(lp6
S'timestamp'
p7
aF7.159727096557617
aatp8
Rp9
.ccollections
OrderedDict
p0
((lp1
(lp2
S'state'
p3
aI0
aa(lp4
S'distance'
p5
aF55.015252113342285
aa(lp6
S'timestamp'
p7
aF7.160523891448975
aatp8
Rp9
.ccollections
OrderedDict
p0
((lp1
(lp2
S'state'
p3
aI0
aa(lp4
S'distance'
p5
aF55.015252113342285
aa(lp6
S'timestamp'
p7
aF7.169642925262451
aatp8
Rp9
.ccollections
OrderedDict
p0
((lp1
(lp2
S'state'
p3
aI0
aa(lp4
S'distance'
p5
aF55.015252113342285
aa(lp6
S'timestamp'
p7
aF7.170517921447754
aatp8
Rp9
.ccollections
OrderedDict
p0
((lp1
(lp2
S'state'
p3
aI0
aa(lp4
S'distance'
p5
aF55.015252113342285
aa(lp6
S'timestamp'
p7
aF7.17970609664917
aatp8
Rp9
.ccollections
OrderedDict
p0
((lp1
(lp2
S'state'
p3
aI0
aa(lp4
S'distance'
p5
aF55.015252113342285
aa(lp6
S'timestamp'
p7
aF7.180422067642212
aatp8
Rp9
.ccollections
OrderedDict
p0
((lp1
(lp2
S'state'
p3
aI0
aa(lp4
S'distance'
p5
aF55.015252113342285
aa(lp6
S'timestamp'
p7
aF7.189889907836914
aatp8
Rp9
.ccollections
OrderedDict
p0
((lp1
(lp2
S'state'
p3
aI0
aa(lp4
S'distance'
p5
aF55.015252113342285
aa(lp6
S'timestamp'
p7
aF7.190989971160889
aatp8
Rp9
.ccollections
OrderedDict
p0
((lp1
(lp2
S'state'
p3
aI0
aa(lp4
S'distance'
p5
aF55.015252113342285
aa(lp6
S'timestamp'
p7
aF7.199639081954956
aatp8
Rp9
.ccollections
OrderedDict
p0
((lp1
(lp2
S'state'
p3
aI0
aa(lp4
S'distance'
p5
aF55.015252113342285
aa(lp6
S'timestamp'
p7
aF7.200537919998169
aatp8
Rp9
.ccollections
OrderedDict
p0
((lp1
(lp2
S'state'
p3
aI0
aa(lp4
S'distance'
p5
aF55.015252113342285
aa(lp6
S'timestamp'
p7
aF7.209650039672852
aatp8
Rp9
.ccollections
OrderedDict
p0
((lp1
(lp2
S'state'
p3
aI0
aa(lp4
S'distance'
p5
aF55.015252113342285
aa(lp6
S'timestamp'
p7
aF7.210263013839722
aatp8
Rp9
.ccollections
OrderedDict
p0
((lp1
(lp2
S'state'
p3
aI0
aa(lp4
S'distance'
p5
aF55.015252113342285
aa(lp6
S'timestamp'
p7
aF7.219966888427734
aatp8
Rp9
.ccollections
OrderedDict
p0
((lp1
(lp2
S'state'
p3
aI0
aa(lp4
S'distance'
p5
aF55.015252113342285
aa(lp6
S'timestamp'
p7
aF7.2206950187683105
aatp8
Rp9
.ccollections
OrderedDict
p0
((lp1
(lp2
S'state'
p3
aI0
aa(lp4
S'distance'
p5
aF55.015252113342285
aa(lp6
S'timestamp'
p7
aF7.229902029037476
aatp8
Rp9
.ccollections
OrderedDict
p0
((lp1
(lp2
S'state'
p3
aI0
aa(lp4
S'distance'
p5
aF55.015252113342285
aa(lp6
S'timestamp'
p7
aF7.2304089069366455
aatp8
Rp9
.ccollections
OrderedDict
p0
((lp1
(lp2
S'state'
p3
aI0
aa(lp4
S'distance'
p5
aF55.015252113342285
aa(lp6
S'timestamp'
p7
aF7.239892959594727
aatp8
Rp9
.ccollections
OrderedDict
p0
((lp1
(lp2
S'state'
p3
aI0
aa(lp4
S'distance'
p5
aF55.015252113342285
aa(lp6
S'timestamp'
p7
aF7.242002964019775
aatp8
Rp9
.ccollections
OrderedDict
p0
((lp1
(lp2
S'state'
p3
aI0
aa(lp4
S'distance'
p5
aF55.015252113342285
aa(lp6
S'timestamp'
p7
aF7.2499048709869385
aatp8
Rp9
.ccollections
OrderedDict
p0
((lp1
(lp2
S'state'
p3
aI0
aa(lp4
S'distance'
p5
aF55.015252113342285
aa(lp6
S'timestamp'
p7
aF7.250488042831421
aatp8
Rp9
.ccollections
OrderedDict
p0
((lp1
(lp2
S'state'
p3
aI0
aa(lp4
S'distance'
p5
aF55.015252113342285
aa(lp6
S'timestamp'
p7
aF7.259567022323608
aatp8
Rp9
.ccollections
OrderedDict
p0
((lp1
(lp2
S'state'
p3
aI0
aa(lp4
S'distance'
p5
aF55.015252113342285
aa(lp6
S'timestamp'
p7
aF7.260586977005005
aatp8
Rp9
.ccollections
OrderedDict
p0
((lp1
(lp2
S'state'
p3
aI0
aa(lp4
S'distance'
p5
aF55.015252113342285
aa(lp6
S'timestamp'
p7
aF7.269794940948486
aatp8
Rp9
.ccollections
OrderedDict
p0
((lp1
(lp2
S'state'
p3
aI0
aa(lp4
S'distance'
p5
aF55.015252113342285
aa(lp6
S'timestamp'
p7
aF7.271529912948608
aatp8
Rp9
.ccollections
OrderedDict
p0
((lp1
(lp2
S'state'
p3
aI0
aa(lp4
S'distance'
p5
aF55.015252113342285
aa(lp6
S'timestamp'
p7
aF7.279613018035889
aatp8
Rp9
.ccollections
OrderedDict
p0
((lp1
(lp2
S'state'
p3
aI0
aa(lp4
S'distance'
p5
aF55.015252113342285
aa(lp6
S'timestamp'
p7
aF7.28093695640564
aatp8
Rp9
.ccollections
OrderedDict
p0
((lp1
(lp2
S'state'
p3
aI0
aa(lp4
S'distance'
p5
aF55.015252113342285
aa(lp6
S'timestamp'
p7
aF7.289844036102295
aatp8
Rp9
.ccollections
OrderedDict
p0
((lp1
(lp2
S'state'
p3
aI0
aa(lp4
S'distance'
p5
aF55.015252113342285
aa(lp6
S'timestamp'
p7
aF7.290497064590454
aatp8
Rp9
.ccollections
OrderedDict
p0
((lp1
(lp2
S'state'
p3
aI0
aa(lp4
S'distance'
p5
aF55.015252113342285
aa(lp6
S'timestamp'
p7
aF7.299851894378662
aatp8
Rp9
.ccollections
OrderedDict
p0
((lp1
(lp2
S'state'
p3
aI0
aa(lp4
S'distance'
p5
aF55.015252113342285
aa(lp6
S'timestamp'
p7
aF7.300504922866821
aatp8
Rp9
.ccollections
OrderedDict
p0
((lp1
(lp2
S'state'
p3
aI0
aa(lp4
S'distance'
p5
aF55.015252113342285
aa(lp6
S'timestamp'
p7
aF7.309906005859375
aatp8
Rp9
.ccollections
OrderedDict
p0
((lp1
(lp2
S'state'
p3
aI0
aa(lp4
S'distance'
p5
aF55.015252113342285
aa(lp6
S'timestamp'
p7
aF7.310831069946289
aatp8
Rp9
.ccollections
OrderedDict
p0
((lp1
(lp2
S'state'
p3
aI0
aa(lp4
S'distance'
p5
aF55.015252113342285
aa(lp6
S'timestamp'
p7
aF7.319797039031982
aatp8
Rp9
.ccollections
OrderedDict
p0
((lp1
(lp2
S'state'
p3
aI0
aa(lp4
S'distance'
p5
aF55.015252113342285
aa(lp6
S'timestamp'
p7
aF7.320698022842407
aatp8
Rp9
.ccollections
OrderedDict
p0
((lp1
(lp2
S'state'
p3
aI0
aa(lp4
S'distance'
p5
aF55.015252113342285
aa(lp6
S'timestamp'
p7
aF7.329859972000122
aatp8
Rp9
.ccollections
OrderedDict
p0
((lp1
(lp2
S'state'
p3
aI0
aa(lp4
S'distance'
p5
aF55.015252113342285
aa(lp6
S'timestamp'
p7
aF7.330506086349487
aatp8
Rp9
.ccollections
OrderedDict
p0
((lp1
(lp2
S'state'
p3
aI0
aa(lp4
S'distance'
p5
aF55.015252113342285
aa(lp6
S'timestamp'
p7
aF7.339792966842651
aatp8
Rp9
.ccollections
OrderedDict
p0
((lp1
(lp2
S'state'
p3
aI0
aa(lp4
S'distance'
p5
aF55.015252113342285
aa(lp6
S'timestamp'
p7
aF7.3408379554748535
aatp8
Rp9
.ccollections
OrderedDict
p0
((lp1
(lp2
S'state'
p3
aI0
aa(lp4
S'distance'
p5
aF55.015252113342285
aa(lp6
S'timestamp'
p7
aF7.349771976470947
aatp8
Rp9
.ccollections
OrderedDict
p0
((lp1
(lp2
S'state'
p3
aI0
aa(lp4
S'distance'
p5
aF55.015252113342285
aa(lp6
S'timestamp'
p7
aF7.350955963134766
aatp8
Rp9
.ccollections
OrderedDict
p0
((lp1
(lp2
S'state'
p3
aI0
aa(lp4
S'distance'
p5
aF55.015252113342285
aa(lp6
S'timestamp'
p7
aF7.3596179485321045
aatp8
Rp9
.ccollections
OrderedDict
p0
((lp1
(lp2
S'state'
p3
aI0
aa(lp4
S'distance'
p5
aF55.015252113342285
aa(lp6
S'timestamp'
p7
aF7.3605170249938965
aatp8
Rp9
.ccollections
OrderedDict
p0
((lp1
(lp2
S'state'
p3
aI0
aa(lp4
S'distance'
p5
aF55.015252113342285
aa(lp6
S'timestamp'
p7
aF7.3695969581604
aatp8
Rp9
.ccollections
OrderedDict
p0
((lp1
(lp2
S'state'
p3
aI0
aa(lp4
S'distance'
p5
aF55.015252113342285
aa(lp6
S'timestamp'
p7
aF7.370689868927002
aatp8
Rp9
.ccollections
OrderedDict
p0
((lp1
(lp2
S'state'
p3
aI0
aa(lp4
S'distance'
p5
aF55.015252113342285
aa(lp6
S'timestamp'
p7
aF7.37979793548584
aatp8
Rp9
.ccollections
OrderedDict
p0
((lp1
(lp2
S'state'
p3
aI0
aa(lp4
S'distance'
p5
aF55.015252113342285
aa(lp6
S'timestamp'
p7
aF7.380641937255859
aatp8
Rp9
.ccollections
OrderedDict
p0
((lp1
(lp2
S'state'
p3
aI0
aa(lp4
S'distance'
p5
aF55.015252113342285
aa(lp6
S'timestamp'
p7
aF7.389973878860474
aatp8
Rp9
.ccollections
OrderedDict
p0
((lp1
(lp2
S'state'
p3
aI0
aa(lp4
S'distance'
p5
aF55.015252113342285
aa(lp6
S'timestamp'
p7
aF7.392781972885132
aatp8
Rp9
.ccollections
OrderedDict
p0
((lp1
(lp2
S'state'
p3
aI0
aa(lp4
S'distance'
p5
aF55.015252113342285
aa(lp6
S'timestamp'
p7
aF7.399791955947876
aatp8
Rp9
.ccollections
OrderedDict
p0
((lp1
(lp2
S'state'
p3
aI0
aa(lp4
S'distance'
p5
aF55.015252113342285
aa(lp6
S'timestamp'
p7
aF7.4006969928741455
aatp8
Rp9
.ccollections
OrderedDict
p0
((lp1
(lp2
S'state'
p3
aI0
aa(lp4
S'distance'
p5
aF55.015252113342285
aa(lp6
S'timestamp'
p7
aF7.410214900970459
aatp8
Rp9
.ccollections
OrderedDict
p0
((lp1
(lp2
S'state'
p3
aI0
aa(lp4
S'distance'
p5
aF55.015252113342285
aa(lp6
S'timestamp'
p7
aF7.410299062728882
aatp8
Rp9
.ccollections
OrderedDict
p0
((lp1
(lp2
S'state'
p3
aI0
aa(lp4
S'distance'
p5
aF55.015252113342285
aa(lp6
S'timestamp'
p7
aF7.419863939285278
aatp8
Rp9
.ccollections
OrderedDict
p0
((lp1
(lp2
S'state'
p3
aI0
aa(lp4
S'distance'
p5
aF55.015252113342285
aa(lp6
S'timestamp'
p7
aF7.420747995376587
aatp8
Rp9
.ccollections
OrderedDict
p0
((lp1
(lp2
S'state'
p3
aI0
aa(lp4
S'distance'
p5
aF55.015252113342285
aa(lp6
S'timestamp'
p7
aF7.429578065872192
aatp8
Rp9
.ccollections
OrderedDict
p0
((lp1
(lp2
S'state'
p3
aI0
aa(lp4
S'distance'
p5
aF55.015252113342285
aa(lp6
S'timestamp'
p7
aF7.4305150508880615
aatp8
Rp9
.ccollections
OrderedDict
p0
((lp1
(lp2
S'state'
p3
aI0
aa(lp4
S'distance'
p5
aF55.015252113342285
aa(lp6
S'timestamp'
p7
aF7.439722061157227
aatp8
Rp9
.ccollections
OrderedDict
p0
((lp1
(lp2
S'state'
p3
aI0
aa(lp4
S'distance'
p5
aF55.015252113342285
aa(lp6
S'timestamp'
p7
aF7.440392017364502
aatp8
Rp9
.ccollections
OrderedDict
p0
((lp1
(lp2
S'state'
p3
aI0
aa(lp4
S'distance'
p5
aF55.015252113342285
aa(lp6
S'timestamp'
p7
aF7.450098037719727
aatp8
Rp9
.ccollections
OrderedDict
p0
((lp1
(lp2
S'state'
p3
aI0
aa(lp4
S'distance'
p5
aF55.015252113342285
aa(lp6
S'timestamp'
p7
aF7.450424909591675
aatp8
Rp9
.ccollections
OrderedDict
p0
((lp1
(lp2
S'state'
p3
aI0
aa(lp4
S'distance'
p5
aF55.015252113342285
aa(lp6
S'timestamp'
p7
aF7.459723949432373
aatp8
Rp9
.ccollections
OrderedDict
p0
((lp1
(lp2
S'state'
p3
aI0
aa(lp4
S'distance'
p5
aF55.015252113342285
aa(lp6
S'timestamp'
p7
aF7.460579872131348
aatp8
Rp9
.ccollections
OrderedDict
p0
((lp1
(lp2
S'state'
p3
aI0
aa(lp4
S'distance'
p5
aF55.015252113342285
aa(lp6
S'timestamp'
p7
aF7.469592094421387
aatp8
Rp9
.ccollections
OrderedDict
p0
((lp1
(lp2
S'state'
p3
aI0
aa(lp4
S'distance'
p5
aF55.015252113342285
aa(lp6
S'timestamp'
p7
aF7.470639944076538
aatp8
Rp9
.ccollections
OrderedDict
p0
((lp1
(lp2
S'state'
p3
aI0
aa(lp4
S'distance'
p5
aF55.015252113342285
aa(lp6
S'timestamp'
p7
aF7.479851007461548
aatp8
Rp9
.ccollections
OrderedDict
p0
((lp1
(lp2
S'state'
p3
aI0
aa(lp4
S'distance'
p5
aF55.015252113342285
aa(lp6
S'timestamp'
p7
aF7.480675935745239
aatp8
Rp9
.ccollections
OrderedDict
p0
((lp1
(lp2
S'state'
p3
aI0
aa(lp4
S'distance'
p5
aF55.015252113342285
aa(lp6
S'timestamp'
p7
aF7.490498065948486
aatp8
Rp9
.ccollections
OrderedDict
p0
((lp1
(lp2
S'state'
p3
aI0
aa(lp4
S'distance'
p5
aF55.015252113342285
aa(lp6
S'timestamp'
p7
aF7.491224050521851
aatp8
Rp9
.ccollections
OrderedDict
p0
((lp1
(lp2
S'state'
p3
aI0
aa(lp4
S'distance'
p5
aF55.015252113342285
aa(lp6
S'timestamp'
p7
aF7.499676942825317
aatp8
Rp9
.ccollections
OrderedDict
p0
((lp1
(lp2
S'state'
p3
aI0
aa(lp4
S'distance'
p5
aF55.015252113342285
aa(lp6
S'timestamp'
p7
aF7.500747919082642
aatp8
Rp9
.ccollections
OrderedDict
p0
((lp1
(lp2
S'state'
p3
aI0
aa(lp4
S'distance'
p5
aF55.015252113342285
aa(lp6
S'timestamp'
p7
aF7.509720087051392
aatp8
Rp9
.ccollections
OrderedDict
p0
((lp1
(lp2
S'state'
p3
aI0
aa(lp4
S'distance'
p5
aF55.015252113342285
aa(lp6
S'timestamp'
p7
aF7.520078897476196
aatp8
Rp9
.ccollections
OrderedDict
p0
((lp1
(lp2
S'state'
p3
aI0
aa(lp4
S'distance'
p5
aF55.015252113342285
aa(lp6
S'timestamp'
p7
aF7.520222902297974
aatp8
Rp9
.ccollections
OrderedDict
p0
((lp1
(lp2
S'state'
p3
aI0
aa(lp4
S'distance'
p5
aF55.015252113342285
aa(lp6
S'timestamp'
p7
aF7.521883964538574
aatp8
Rp9
.ccollections
OrderedDict
p0
((lp1
(lp2
S'state'
p3
aI0
aa(lp4
S'distance'
p5
aF55.015252113342285
aa(lp6
S'timestamp'
p7
aF7.529774904251099
aatp8
Rp9
.ccollections
OrderedDict
p0
((lp1
(lp2
S'state'
p3
aI0
aa(lp4
S'distance'
p5
aF55.015252113342285
aa(lp6
S'timestamp'
p7
aF7.530570030212402
aatp8
Rp9
.ccollections
OrderedDict
p0
((lp1
(lp2
S'state'
p3
aI0
aa(lp4
S'distance'
p5
aF55.015252113342285
aa(lp6
S'timestamp'
p7
aF7.539754867553711
aatp8
Rp9
.ccollections
OrderedDict
p0
((lp1
(lp2
S'state'
p3
aI0
aa(lp4
S'distance'
p5
aF55.015252113342285
aa(lp6
S'timestamp'
p7
aF7.540549993515015
aatp8
Rp9
.ccollections
OrderedDict
p0
((lp1
(lp2
S'state'
p3
aI0
aa(lp4
S'distance'
p5
aF55.015252113342285
aa(lp6
S'timestamp'
p7
aF7.549745082855225
aatp8
Rp9
.ccollections
OrderedDict
p0
((lp1
(lp2
S'state'
p3
aI0
aa(lp4
S'distance'
p5
aF55.015252113342285
aa(lp6
S'timestamp'
p7
aF7.55056095123291
aatp8
Rp9
.ccollections
OrderedDict
p0
((lp1
(lp2
S'state'
p3
aI0
aa(lp4
S'distance'
p5
aF55.015252113342285
aa(lp6
S'timestamp'
p7
aF7.559566974639893
aatp8
Rp9
.ccollections
OrderedDict
p0
((lp1
(lp2
S'state'
p3
aI0
aa(lp4
S'distance'
p5
aF55.015252113342285
aa(lp6
S'timestamp'
p7
aF7.560924053192139
aatp8
Rp9
.ccollections
OrderedDict
p0
((lp1
(lp2
S'state'
p3
aI0
aa(lp4
S'distance'
p5
aF55.015252113342285
aa(lp6
S'timestamp'
p7
aF7.570035934448242
aatp8
Rp9
.ccollections
OrderedDict
p0
((lp1
(lp2
S'state'
p3
aI0
aa(lp4
S'distance'
p5
aF55.015252113342285
aa(lp6
S'timestamp'
p7
aF7.570122957229614
aatp8
Rp9
.ccollections
OrderedDict
p0
((lp1
(lp2
S'state'
p3
aI0
aa(lp4
S'distance'
p5
aF55.015252113342285
aa(lp6
S'timestamp'
p7
aF7.5798020362854
aatp8
Rp9
.ccollections
OrderedDict
p0
((lp1
(lp2
S'state'
p3
aI0
aa(lp4
S'distance'
p5
aF55.015252113342285
aa(lp6
S'timestamp'
p7
aF7.581338882446289
aatp8
Rp9
.ccollections
OrderedDict
p0
((lp1
(lp2
S'state'
p3
aI0
aa(lp4
S'distance'
p5
aF55.015252113342285
aa(lp6
S'timestamp'
p7
aF7.589582920074463
aatp8
Rp9
.ccollections
OrderedDict
p0
((lp1
(lp2
S'state'
p3
aI0
aa(lp4
S'distance'
p5
aF55.015252113342285
aa(lp6
S'timestamp'
p7
aF7.591206073760986
aatp8
Rp9
.ccollections
OrderedDict
p0
((lp1
(lp2
S'state'
p3
aI0
aa(lp4
S'distance'
p5
aF55.015252113342285
aa(lp6
S'timestamp'
p7
aF7.599750995635986
aatp8
Rp9
.ccollections
OrderedDict
p0
((lp1
(lp2
S'state'
p3
aI0
aa(lp4
S'distance'
p5
aF55.015252113342285
aa(lp6
S'timestamp'
p7
aF7.60061502456665
aatp8
Rp9
.ccollections
OrderedDict
p0
((lp1
(lp2
S'state'
p3
aI0
aa(lp4
S'distance'
p5
aF55.015252113342285
aa(lp6
S'timestamp'
p7
aF7.610073089599609
aatp8
Rp9
.ccollections
OrderedDict
p0
((lp1
(lp2
S'state'
p3
aI0
aa(lp4
S'distance'
p5
aF55.015252113342285
aa(lp6
S'timestamp'
p7
aF7.610262870788574
aatp8
Rp9
.ccollections
OrderedDict
p0
((lp1
(lp2
S'state'
p3
aI0
aa(lp4
S'distance'
p5
aF55.015252113342285
aa(lp6
S'timestamp'
p7
aF7.6196160316467285
aatp8
Rp9
.ccollections
OrderedDict
p0
((lp1
(lp2
S'state'
p3
aI0
aa(lp4
S'distance'
p5
aF55.015252113342285
aa(lp6
S'timestamp'
p7
aF7.620325088500977
aatp8
Rp9
.ccollections
OrderedDict
p0
((lp1
(lp2
S'state'
p3
aI0
aa(lp4
S'distance'
p5
aF55.015252113342285
aa(lp6
S'timestamp'
p7
aF7.629607915878296
aatp8
Rp9
.ccollections
OrderedDict
p0
((lp1
(lp2
S'state'
p3
aI0
aa(lp4
S'distance'
p5
aF55.015252113342285
aa(lp6
S'timestamp'
p7
aF7.630528926849365
aatp8
Rp9
.ccollections
OrderedDict
p0
((lp1
(lp2
S'state'
p3
aI0
aa(lp4
S'distance'
p5
aF55.015252113342285
aa(lp6
S'timestamp'
p7
aF7.639741897583008
aatp8
Rp9
.ccollections
OrderedDict
p0
((lp1
(lp2
S'state'
p3
aI0
aa(lp4
S'distance'
p5
aF55.015252113342285
aa(lp6
S'timestamp'
p7
aF7.6403138637542725
aatp8
Rp9
.ccollections
OrderedDict
p0
((lp1
(lp2
S'state'
p3
aI0
aa(lp4
S'distance'
p5
aF55.015252113342285
aa(lp6
S'timestamp'
p7
aF7.649641036987305
aatp8
Rp9
.ccollections
OrderedDict
p0
((lp1
(lp2
S'state'
p3
aI0
aa(lp4
S'distance'
p5
aF55.015252113342285
aa(lp6
S'timestamp'
p7
aF7.650254964828491
aatp8
Rp9
.ccollections
OrderedDict
p0
((lp1
(lp2
S'state'
p3
aI0
aa(lp4
S'distance'
p5
aF55.015252113342285
aa(lp6
S'timestamp'
p7
aF7.659692049026489
aatp8
Rp9
.ccollections
OrderedDict
p0
((lp1
(lp2
S'state'
p3
aI0
aa(lp4
S'distance'
p5
aF55.015252113342285
aa(lp6
S'timestamp'
p7
aF7.660321950912476
aatp8
Rp9
.ccollections
OrderedDict
p0
((lp1
(lp2
S'state'
p3
aI0
aa(lp4
S'distance'
p5
aF55.015252113342285
aa(lp6
S'timestamp'
p7
aF7.669676065444946
aatp8
Rp9
.ccollections
OrderedDict
p0
((lp1
(lp2
S'state'
p3
aI0
aa(lp4
S'distance'
p5
aF55.015252113342285
aa(lp6
S'timestamp'
p7
aF7.670127868652344
aatp8
Rp9
.ccollections
OrderedDict
p0
((lp1
(lp2
S'state'
p3
aI0
aa(lp4
S'distance'
p5
aF55.015252113342285
aa(lp6
S'timestamp'
p7
aF7.689961910247803
aatp8
Rp9
.ccollections
OrderedDict
p0
((lp1
(lp2
S'state'
p3
aI0
aa(lp4
S'distance'
p5
aF55.015252113342285
aa(lp6
S'timestamp'
p7
aF7.690407037734985
aatp8
Rp9
.ccollections
OrderedDict
p0
((lp1
(lp2
S'state'
p3
aI0
aa(lp4
S'distance'
p5
aF55.015252113342285
aa(lp6
S'timestamp'
p7
aF7.692589998245239
aatp8
Rp9
.ccollections
OrderedDict
p0
((lp1
(lp2
S'state'
p3
aI0
aa(lp4
S'distance'
p5
aF55.015252113342285
aa(lp6
S'timestamp'
p7
aF7.692676067352295
aatp8
Rp9
.ccollections
OrderedDict
p0
((lp1
(lp2
S'state'
p3
aI0
aa(lp4
S'distance'
p5
aF55.015252113342285
aa(lp6
S'timestamp'
p7
aF7.6998679637908936
aatp8
Rp9
.ccollections
OrderedDict
p0
((lp1
(lp2
S'state'
p3
aI0
aa(lp4
S'distance'
p5
aF55.015252113342285
aa(lp6
S'timestamp'
p7
aF7.700407028198242
aatp8
Rp9
.ccollections
OrderedDict
p0
((lp1
(lp2
S'state'
p3
aI0
aa(lp4
S'distance'
p5
aF55.015252113342285
aa(lp6
S'timestamp'
p7
aF7.709769010543823
aatp8
Rp9
.ccollections
OrderedDict
p0
((lp1
(lp2
S'state'
p3
aI0
aa(lp4
S'distance'
p5
aF55.015252113342285
aa(lp6
S'timestamp'
p7
aF7.710191965103149
aatp8
Rp9
.ccollections
OrderedDict
p0
((lp1
(lp2
S'state'
p3
aI0
aa(lp4
S'distance'
p5
aF55.015252113342285
aa(lp6
S'timestamp'
p7
aF7.719987869262695
aatp8
Rp9
.ccollections
OrderedDict
p0
((lp1
(lp2
S'state'
p3
aI0
aa(lp4
S'distance'
p5
aF55.015252113342285
aa(lp6
S'timestamp'
p7
aF7.720104932785034
aatp8
Rp9
.ccollections
OrderedDict
p0
((lp1
(lp2
S'state'
p3
aI0
aa(lp4
S'distance'
p5
aF55.015252113342285
aa(lp6
S'timestamp'
p7
aF7.739971876144409
aatp8
Rp9
.ccollections
OrderedDict
p0
((lp1
(lp2
S'state'
p3
aI0
aa(lp4
S'distance'
p5
aF55.015252113342285
aa(lp6
S'timestamp'
p7
aF7.740108966827393
aatp8
Rp9
.ccollections
OrderedDict
p0
((lp1
(lp2
S'state'
p3
aI0
aa(lp4
S'distance'
p5
aF55.015252113342285
aa(lp6
S'timestamp'
p7
aF7.7412190437316895
aatp8
Rp9
.ccollections
OrderedDict
p0
((lp1
(lp2
S'state'
p3
aI0
aa(lp4
S'distance'
p5
aF55.015252113342285
aa(lp6
S'timestamp'
p7
aF7.7421839237213135
aatp8
Rp9
.ccollections
OrderedDict
p0
((lp1
(lp2
S'state'
p3
aI0
aa(lp4
S'distance'
p5
aF55.015252113342285
aa(lp6
S'timestamp'
p7
aF7.74980902671814
aatp8
Rp9
.ccollections
OrderedDict
p0
((lp1
(lp2
S'state'
p3
aI0
aa(lp4
S'distance'
p5
aF55.015252113342285
aa(lp6
S'timestamp'
p7
aF7.751051902770996
aatp8
Rp9
.ccollections
OrderedDict
p0
((lp1
(lp2
S'state'
p3
aI0
aa(lp4
S'distance'
p5
aF55.015252113342285
aa(lp6
S'timestamp'
p7
aF7.7595579624176025
aatp8
Rp9
.ccollections
OrderedDict
p0
((lp1
(lp2
S'state'
p3
aI0
aa(lp4
S'distance'
p5
aF55.015252113342285
aa(lp6
S'timestamp'
p7
aF7.7603960037231445
aatp8
Rp9
.ccollections
OrderedDict
p0
((lp1
(lp2
S'state'
p3
aI0
aa(lp4
S'distance'
p5
aF55.015252113342285
aa(lp6
S'timestamp'
p7
aF7.769824981689453
aatp8
Rp9
.ccollections
OrderedDict
p0
((lp1
(lp2
S'state'
p3
aI0
aa(lp4
S'distance'
p5
aF55.015252113342285
aa(lp6
S'timestamp'
p7
aF7.770314931869507
aatp8
Rp9
.ccollections
OrderedDict
p0
((lp1
(lp2
S'state'
p3
aI0
aa(lp4
S'distance'
p5
aF55.015252113342285
aa(lp6
S'timestamp'
p7
aF7.779684066772461
aatp8
Rp9
.ccollections
OrderedDict
p0
((lp1
(lp2
S'state'
p3
aI0
aa(lp4
S'distance'
p5
aF55.015252113342285
aa(lp6
S'timestamp'
p7
aF7.780963897705078
aatp8
Rp9
.ccollections
OrderedDict
p0
((lp1
(lp2
S'state'
p3
aI0
aa(lp4
S'distance'
p5
aF55.015252113342285
aa(lp6
S'timestamp'
p7
aF7.789819955825806
aatp8
Rp9
.ccollections
OrderedDict
p0
((lp1
(lp2
S'state'
p3
aI0
aa(lp4
S'distance'
p5
aF55.015252113342285
aa(lp6
S'timestamp'
p7
aF7.791060924530029
aatp8
Rp9
.ccollections
OrderedDict
p0
((lp1
(lp2
S'state'
p3
aI0
aa(lp4
S'distance'
p5
aF55.015252113342285
aa(lp6
S'timestamp'
p7
aF7.799570083618164
aatp8
Rp9
.ccollections
OrderedDict
p0
((lp1
(lp2
S'state'
p3
aI0
aa(lp4
S'distance'
p5
aF55.015252113342285
aa(lp6
S'timestamp'
p7
aF7.800415992736816
aatp8
Rp9
.ccollections
OrderedDict
p0
((lp1
(lp2
S'state'
p3
aI0
aa(lp4
S'distance'
p5
aF55.015252113342285
aa(lp6
S'timestamp'
p7
aF7.8096699714660645
aatp8
Rp9
.ccollections
OrderedDict
p0
((lp1
(lp2
S'state'
p3
aI0
aa(lp4
S'distance'
p5
aF55.015252113342285
aa(lp6
S'timestamp'
p7
aF7.810325860977173
aatp8
Rp9
.ccollections
OrderedDict
p0
((lp1
(lp2
S'state'
p3
aI0
aa(lp4
S'distance'
p5
aF55.015252113342285
aa(lp6
S'timestamp'
p7
aF7.829655885696411
aatp8
Rp9
.ccollections
OrderedDict
p0
((lp1
(lp2
S'state'
p3
aI0
aa(lp4
S'distance'
p5
aF55.015252113342285
aa(lp6
S'timestamp'
p7
aF7.83099889755249
aatp8
Rp9
.ccollections
OrderedDict
p0
((lp1
(lp2
S'state'
p3
aI0
aa(lp4
S'distance'
p5
aF55.015252113342285
aa(lp6
S'timestamp'
p7
aF7.83964204788208
aatp8
Rp9
.ccollections
OrderedDict
p0
((lp1
(lp2
S'state'
p3
aI0
aa(lp4
S'distance'
p5
aF55.015252113342285
aa(lp6
S'timestamp'
p7
aF7.841048002243042
aatp8
Rp9
.ccollections
OrderedDict
p0
((lp1
(lp2
S'state'
p3
aI0
aa(lp4
S'distance'
p5
aF55.015252113342285
aa(lp6
S'timestamp'
p7
aF7.841217041015625
aatp8
Rp9
.ccollections
OrderedDict
p0
((lp1
(lp2
S'state'
p3
aI0
aa(lp4
S'distance'
p5
aF55.015252113342285
aa(lp6
S'timestamp'
p7
aF7.841681957244873
aatp8
Rp9
.ccollections
OrderedDict
p0
((lp1
(lp2
S'state'
p3
aI0
aa(lp4
S'distance'
p5
aF55.015252113342285
aa(lp6
S'timestamp'
p7
aF7.849526882171631
aatp8
Rp9
.ccollections
OrderedDict
p0
((lp1
(lp2
S'state'
p3
aI0
aa(lp4
S'distance'
p5
aF55.015252113342285
aa(lp6
S'timestamp'
p7
aF7.85014796257019
aatp8
Rp9
.ccollections
OrderedDict
p0
((lp1
(lp2
S'state'
p3
aI0
aa(lp4
S'distance'
p5
aF55.015252113342285
aa(lp6
S'timestamp'
p7
aF7.859607934951782
aatp8
Rp9
.ccollections
OrderedDict
p0
((lp1
(lp2
S'state'
p3
aI0
aa(lp4
S'distance'
p5
aF55.015252113342285
aa(lp6
S'timestamp'
p7
aF7.860349893569946
aatp8
Rp9
.ccollections
OrderedDict
p0
((lp1
(lp2
S'state'
p3
aI0
aa(lp4
S'distance'
p5
aF55.015252113342285
aa(lp6
S'timestamp'
p7
aF7.8694908618927
aatp8
Rp9
.ccollections
OrderedDict
p0
((lp1
(lp2
S'state'
p3
aI0
aa(lp4
S'distance'
p5
aF55.015252113342285
aa(lp6
S'timestamp'
p7
aF7.871099948883057
aatp8
Rp9
.ccollections
OrderedDict
p0
((lp1
(lp2
S'state'
p3
aI0
aa(lp4
S'distance'
p5
aF55.015252113342285
aa(lp6
S'timestamp'
p7
aF7.879587888717651
aatp8
Rp9
.ccollections
OrderedDict
p0
((lp1
(lp2
S'state'
p3
aI0
aa(lp4
S'distance'
p5
aF55.015252113342285
aa(lp6
S'timestamp'
p7
aF7.88971209526062
aatp8
Rp9
.ccollections
OrderedDict
p0
((lp1
(lp2
S'state'
p3
aI0
aa(lp4
S'distance'
p5
aF55.015252113342285
aa(lp6
S'timestamp'
p7
aF7.889883995056152
aatp8
Rp9
.ccollections
OrderedDict
p0
((lp1
(lp2
S'state'
p3
aI0
aa(lp4
S'distance'
p5
aF55.015252113342285
aa(lp6
S'timestamp'
p7
aF7.891201019287109
aatp8
Rp9
.ccollections
OrderedDict
p0
((lp1
(lp2
S'state'
p3
aI0
aa(lp4
S'distance'
p5
aF55.015252113342285
aa(lp6
S'timestamp'
p7
aF7.899935007095337
aatp8
Rp9
.ccollections
OrderedDict
p0
((lp1
(lp2
S'state'
p3
aI0
aa(lp4
S'distance'
p5
aF55.015252113342285
aa(lp6
S'timestamp'
p7
aF7.9001219272613525
aatp8
Rp9
.ccollections
OrderedDict
p0
((lp1
(lp2
S'state'
p3
aI0
aa(lp4
S'distance'
p5
aF55.015252113342285
aa(lp6
S'timestamp'
p7
aF7.909798860549927
aatp8
Rp9
.ccollections
OrderedDict
p0
((lp1
(lp2
S'state'
p3
aI0
aa(lp4
S'distance'
p5
aF55.015252113342285
aa(lp6
S'timestamp'
p7
aF7.910161972045898
aatp8
Rp9
.ccollections
OrderedDict
p0
((lp1
(lp2
S'state'
p3
aI0
aa(lp4
S'distance'
p5
aF55.015252113342285
aa(lp6
S'timestamp'
p7
aF7.919540882110596
aatp8
Rp9
.ccollections
OrderedDict
p0
((lp1
(lp2
S'state'
p3
aI0
aa(lp4
S'distance'
p5
aF55.015252113342285
aa(lp6
S'timestamp'
p7
aF7.920799970626831
aatp8
Rp9
.ccollections
OrderedDict
p0
((lp1
(lp2
S'state'
p3
aI0
aa(lp4
S'distance'
p5
aF55.015252113342285
aa(lp6
S'timestamp'
p7
aF7.9296629428863525
aatp8
Rp9
.ccollections
OrderedDict
p0
((lp1
(lp2
S'state'
p3
aI0
aa(lp4
S'distance'
p5
aF55.015252113342285
aa(lp6
S'timestamp'
p7
aF7.93028998374939
aatp8
Rp9
.ccollections
OrderedDict
p0
((lp1
(lp2
S'state'
p3
aI0
aa(lp4
S'distance'
p5
aF55.015252113342285
aa(lp6
S'timestamp'
p7
aF7.939630031585693
aatp8
Rp9
.ccollections
OrderedDict
p0
((lp1
(lp2
S'state'
p3
aI0
aa(lp4
S'distance'
p5
aF55.015252113342285
aa(lp6
S'timestamp'
p7
aF7.9402360916137695
aatp8
Rp9
.ccollections
OrderedDict
p0
((lp1
(lp2
S'state'
p3
aI0
aa(lp4
S'distance'
p5
aF55.015252113342285
aa(lp6
S'timestamp'
p7
aF7.949606895446777
aatp8
Rp9
.ccollections
OrderedDict
p0
((lp1
(lp2
S'state'
p3
aI0
aa(lp4
S'distance'
p5
aF55.015252113342285
aa(lp6
S'timestamp'
p7
aF7.950299024581909
aatp8
Rp9
.ccollections
OrderedDict
p0
((lp1
(lp2
S'state'
p3
aI0
aa(lp4
S'distance'
p5
aF55.015252113342285
aa(lp6
S'timestamp'
p7
aF7.959614038467407
aatp8
Rp9
.ccollections
OrderedDict
p0
((lp1
(lp2
S'state'
p3
aI0
aa(lp4
S'distance'
p5
aF55.015252113342285
aa(lp6
S'timestamp'
p7
aF7.9608190059661865
aatp8
Rp9
.ccollections
OrderedDict
p0
((lp1
(lp2
S'state'
p3
aI0
aa(lp4
S'distance'
p5
aF55.015252113342285
aa(lp6
S'timestamp'
p7
aF7.969656944274902
aatp8
Rp9
.ccollections
OrderedDict
p0
((lp1
(lp2
S'state'
p3
aI0
aa(lp4
S'distance'
p5
aF55.015252113342285
aa(lp6
S'timestamp'
p7
aF7.970319032669067
aatp8
Rp9
.ccollections
OrderedDict
p0
((lp1
(lp2
S'state'
p3
aI0
aa(lp4
S'distance'
p5
aF55.015252113342285
aa(lp6
S'timestamp'
p7
aF7.979565858840942
aatp8
Rp9
.ccollections
OrderedDict
p0
((lp1
(lp2
S'state'
p3
aI0
aa(lp4
S'distance'
p5
aF55.015252113342285
aa(lp6
S'timestamp'
p7
aF7.9801928997039795
aatp8
Rp9
.ccollections
OrderedDict
p0
((lp1
(lp2
S'state'
p3
aI0
aa(lp4
S'distance'
p5
aF55.015252113342285
aa(lp6
S'timestamp'
p7
aF7.989634990692139
aatp8
Rp9
.ccollections
OrderedDict
p0
((lp1
(lp2
S'state'
p3
aI0
aa(lp4
S'distance'
p5
aF55.015252113342285
aa(lp6
S'timestamp'
p7
aF7.9906089305877686
aatp8
Rp9
.ccollections
OrderedDict
p0
((lp1
(lp2
S'state'
p3
aI0
aa(lp4
S'distance'
p5
aF55.015252113342285
aa(lp6
S'timestamp'
p7
aF7.999899864196777
aatp8
Rp9
.ccollections
OrderedDict
p0
((lp1
(lp2
S'state'
p3
aI0
aa(lp4
S'distance'
p5
aF55.015252113342285
aa(lp6
S'timestamp'
p7
aF8.000568866729736
aatp8
Rp9
.