ccollections
OrderedDict
p0
((lp1
(lp2
S'timestamp'
p3
aF0.007730007171630859
aa(lp4
S'distance'
p5
aF384.0
aa(lp6
S'state'
p7
aI0
aatp8
Rp9
.ccollections
OrderedDict
p0
((lp1
(lp2
S'timestamp'
p3
aF0.007833003997802734
aa(lp4
S'distance'
p5
aF384.0
aa(lp6
S'state'
p7
aI0
aatp8
Rp9
.ccollections
OrderedDict
p0
((lp1
(lp2
S'timestamp'
p3
aF0.01707601547241211
aa(lp4
S'distance'
p5
aF384.0
aa(lp6
S'state'
p7
aI0
aatp8
Rp9
.ccollections
OrderedDict
p0
((lp1
(lp2
S'timestamp'
p3
aF0.019082069396972656
aa(lp4
S'distance'
p5
aF384.0
aa(lp6
S'state'
p7
aI0
aatp8
Rp9
.ccollections
OrderedDict
p0
((lp1
(lp2
S'timestamp'
p3
aF0.02932286262512207
aa(lp4
S'distance'
p5
aF384.0
aa(lp6
S'state'
p7
aI0
aatp8
Rp9
.ccollections
OrderedDict
p0
((lp1
(lp2
S'timestamp'
p3
aF0.03024005889892578
aa(lp4
S'distance'
p5
aF384.0
aa(lp6
S'state'
p7
aI0
aatp8
Rp9
.ccollections
OrderedDict
p0
((lp1
(lp2
S'timestamp'
p3
aF0.038017988204956055
aa(lp4
S'distance'
p5
aF384.0
aa(lp6
S'state'
p7
aI0
aatp8
Rp9
.ccollections
OrderedDict
p0
((lp1
(lp2
S'timestamp'
p3
aF0.038346052169799805
aa(lp4
S'distance'
p5
aF384.0
aa(lp6
S'state'
p7
aI0
aatp8
Rp9
.ccollections
OrderedDict
p0
((lp1
(lp2
S'timestamp'
p3
aF0.04714798927307129
aa(lp4
S'distance'
p5
aF384.0
aa(lp6
S'state'
p7
aI0
aatp8
Rp9
.ccollections
OrderedDict
p0
((lp1
(lp2
S'timestamp'
p3
aF0.04869890213012695
aa(lp4
S'distance'
p5
aF384.0
aa(lp6
S'state'
p7
aI0
aatp8
Rp9
.ccollections
OrderedDict
p0
((lp1
(lp2
S'timestamp'
p3
aF0.05720806121826172
aa(lp4
S'distance'
p5
aF384.0
aa(lp6
S'state'
p7
aI0
aatp8
Rp9
.ccollections
OrderedDict
p0
((lp1
(lp2
S'timestamp'
p3
aF0.057951927185058594
aa(lp4
S'distance'
p5
aF384.0
aa(lp6
S'state'
p7
aI0
aatp8
Rp9
.ccollections
OrderedDict
p0
((lp1
(lp2
S'timestamp'
p3
aF0.06872105598449707
aa(lp4
S'distance'
p5
aF384.0
aa(lp6
S'state'
p7
aI0
aatp8
Rp9
.ccollections
OrderedDict
p0
((lp1
(lp2
S'timestamp'
p3
aF0.06902909278869629
aa(lp4
S'distance'
p5
aF384.0
aa(lp6
S'state'
p7
aI0
aatp8
Rp9
.ccollections
OrderedDict
p0
((lp1
(lp2
S'timestamp'
p3
aF0.0782020092010498
aa(lp4
S'distance'
p5
aF384.0
aa(lp6
S'state'
p7
aI0
aatp8
Rp9
.ccollections
OrderedDict
p0
((lp1
(lp2
S'timestamp'
p3
aF0.07836294174194336
aa(lp4
S'distance'
p5
aF384.0
aa(lp6
S'state'
p7
aI0
aatp8
Rp9
.ccollections
OrderedDict
p0
((lp1
(lp2
S'timestamp'
p3
aF0.08767890930175781
aa(lp4
S'distance'
p5
aF384.0
aa(lp6
S'state'
p7
aI0
aatp8
Rp9
.ccollections
OrderedDict
p0
((lp1
(lp2
S'timestamp'
p3
aF0.08791089057922363
aa(lp4
S'distance'
p5
aF384.0
aa(lp6
S'state'
p7
aI0
aatp8
Rp9
.ccollections
OrderedDict
p0
((lp1
(lp2
S'timestamp'
p3
aF0.09799790382385254
aa(lp4
S'distance'
p5
aF384.0
aa(lp6
S'state'
p7
aI0
aatp8
Rp9
.ccollections
OrderedDict
p0
((lp1
(lp2
S'timestamp'
p3
aF0.09898495674133301
aa(lp4
S'distance'
p5
aF384.0
aa(lp6
S'state'
p7
aI0
aatp8
Rp9
.ccollections
OrderedDict
p0
((lp1
(lp2
S'timestamp'
p3
aF0.10826396942138672
aa(lp4
S'distance'
p5
aF384.0
aa(lp6
S'state'
p7
aI0
aatp8
Rp9
.ccollections
OrderedDict
p0
((lp1
(lp2
S'timestamp'
p3
aF0.10840702056884766
aa(lp4
S'distance'
p5
aF384.0
aa(lp6
S'state'
p7
aI0
aatp8
Rp9
.ccollections
OrderedDict
p0
((lp1
(lp2
S'timestamp'
p3
aF0.11711907386779785
aa(lp4
S'distance'
p5
aF384.0
aa(lp6
S'state'
p7
aI0
aatp8
Rp9
.ccollections
OrderedDict
p0
((lp1
(lp2
S'timestamp'
p3
aF0.11882805824279785
aa(lp4
S'distance'
p5
aF384.0
aa(lp6
S'state'
p7
aI0
aatp8
Rp9
.ccollections
OrderedDict
p0
((lp1
(lp2
S'timestamp'
p3
aF0.12713909149169922
aa(lp4
S'distance'
p5
aF384.0
aa(lp6
S'state'
p7
aI0
aatp8
Rp9
.ccollections
OrderedDict
p0
((lp1
(lp2
S'timestamp'
p3
aF0.12780404090881348
aa(lp4
S'distance'
p5
aF384.0
aa(lp6
S'state'
p7
aI0
aatp8
Rp9
.ccollections
OrderedDict
p0
((lp1
(lp2
S'timestamp'
p3
aF0.1374349594116211
aa(lp4
S'distance'
p5
aF384.0
aa(lp6
S'state'
p7
aI0
aatp8
Rp9
.ccollections
OrderedDict
p0
((lp1
(lp2
S'timestamp'
p3
aF0.137955904006958
aa(lp4
S'distance'
p5
aF384.0
aa(lp6
S'state'
p7
aI0
aatp8
Rp9
.ccollections
OrderedDict
p0
((lp1
(lp2
S'timestamp'
p3
aF0.14775800704956055
aa(lp4
S'distance'
p5
aF384.0
aa(lp6
S'state'
p7
aI0
aatp8
Rp9
.ccollections
OrderedDict
p0
((lp1
(lp2
S'timestamp'
p3
aF0.1478588581085205
aa(lp4
S'distance'
p5
aF384.0
aa(lp6
S'state'
p7
aI0
aatp8
Rp9
.ccollections
OrderedDict
p0
((lp1
(lp2
S'timestamp'
p3
aF0.15719008445739746
aa(lp4
S'distance'
p5
aF384.0
aa(lp6
S'state'
p7
aI0
aatp8
Rp9
.ccollections
OrderedDict
p0
((lp1
(lp2
S'timestamp'
p3
aF0.15798592567443848
aa(lp4
S'distance'
p5
aF384.0
aa(lp6
S'state'
p7
aI0
aatp8
Rp9
.ccollections
OrderedDict
p0
((lp1
(lp2
S'timestamp'
p3
aF0.17041397094726562
aa(lp4
S'distance'
p5
aF384.0
aa(lp6
S'state'
p7
aI0
aatp8
Rp9
.ccollections
OrderedDict
p0
((lp1
(lp2
S'timestamp'
p3
aF0.1709280014038086
aa(lp4
S'distance'
p5
aF384.0
aa(lp6
S'state'
p7
aI0
aatp8
Rp9
.ccollections
OrderedDict
p0
((lp1
(lp2
S'timestamp'
p3
aF0.1782529354095459
aa(lp4
S'distance'
p5
aF384.0
aa(lp6
S'state'
p7
aI0
aatp8
Rp9
.ccollections
OrderedDict
p0
((lp1
(lp2
S'timestamp'
p3
aF0.17836308479309082
aa(lp4
S'distance'
p5
aF384.0
aa(lp6
S'state'
p7
aI0
aatp8
Rp9
.ccollections
OrderedDict
p0
((lp1
(lp2
S'timestamp'
p3
aF0.18939995765686035
aa(lp4
S'distance'
p5
aF384.0
aa(lp6
S'state'
p7
aI0
aatp8
Rp9
.ccollections
OrderedDict
p0
((lp1
(lp2
S'timestamp'
p3
aF0.18984603881835938
aa(lp4
S'distance'
p5
aF384.0
aa(lp6
S'state'
p7
aI0
aatp8
Rp9
.ccollections
OrderedDict
p0
((lp1
(lp2
S'timestamp'
p3
aF0.19740009307861328
aa(lp4
S'distance'
p5
aF384.0
aa(lp6
S'state'
p7
aI0
aatp8
Rp9
.ccollections
OrderedDict
p0
((lp1
(lp2
S'timestamp'
p3
aF0.1979210376739502
aa(lp4
S'distance'
p5
aF384.0
aa(lp6
S'state'
p7
aI0
aatp8
Rp9
.ccollections
OrderedDict
p0
((lp1
(lp2
S'timestamp'
p3
aF0.20756101608276367
aa(lp4
S'distance'
p5
aF384.0
aa(lp6
S'state'
p7
aI0
aatp8
Rp9
.ccollections
OrderedDict
p0
((lp1
(lp2
S'timestamp'
p3
aF0.20802998542785645
aa(lp4
S'distance'
p5
aF384.0
aa(lp6
S'state'
p7
aI0
aatp8
Rp9
.ccollections
OrderedDict
p0
((lp1
(lp2
S'timestamp'
p3
aF0.217756986618042
aa(lp4
S'distance'
p5
aF384.0
aa(lp6
S'state'
p7
aI0
aatp8
Rp9
.ccollections
OrderedDict
p0
((lp1
(lp2
S'timestamp'
p3
aF0.21797895431518555
aa(lp4
S'distance'
p5
aF384.0
aa(lp6
S'state'
p7
aI0
aatp8
Rp9
.ccollections
OrderedDict
p0
((lp1
(lp2
S'timestamp'
p3
aF0.22861099243164062
aa(lp4
S'distance'
p5
aF384.0
aa(lp6
S'state'
p7
aI0
aatp8
Rp9
.ccollections
OrderedDict
p0
((lp1
(lp2
S'timestamp'
p3
aF0.22889089584350586
aa(lp4
S'distance'
p5
aF384.0
aa(lp6
S'state'
p7
aI0
aatp8
Rp9
.ccollections
OrderedDict
p0
((lp1
(lp2
S'timestamp'
p3
aF0.23775196075439453
aa(lp4
S'distance'
p5
aF384.0
aa(lp6
S'state'
p7
aI0
aatp8
Rp9
.ccollections
OrderedDict
p0
((lp1
(lp2
S'timestamp'
p3
aF0.23789095878601074
aa(lp4
S'distance'
p5
aF384.0
aa(lp6
S'state'
p7
aI0
aatp8
Rp9
.ccollections
OrderedDict
p0
((lp1
(lp2
S'timestamp'
p3
aF0.24735307693481445
aa(lp4
S'distance'
p5
aF384.0
aa(lp6
S'state'
p7
aI0
aatp8
Rp9
.ccollections
OrderedDict
p0
((lp1
(lp2
S'timestamp'
p3
aF0.2478809356689453
aa(lp4
S'distance'
p5
aF384.0
aa(lp6
S'state'
p7
aI0
aatp8
Rp9
.ccollections
OrderedDict
p0
((lp1
(lp2
S'timestamp'
p3
aF0.2573399543762207
aa(lp4
S'distance'
p5
aF384.0
aa(lp6
S'state'
p7
aI0
aatp8
Rp9
.ccollections
OrderedDict
p0
((lp1
(lp2
S'timestamp'
p3
aF0.2577838897705078
aa(lp4
S'distance'
p5
aF384.0
aa(lp6
S'state'
p7
aI0
aatp8
Rp9
.ccollections
OrderedDict
p0
((lp1
(lp2
S'timestamp'
p3
aF0.2673640251159668
aa(lp4
S'distance'
p5
aF384.0
aa(lp6
S'state'
p7
aI0
aatp8
Rp9
.ccollections
OrderedDict
p0
((lp1
(lp2
S'timestamp'
p3
aF0.2682619094848633
aa(lp4
S'distance'
p5
aF384.0
aa(lp6
S'state'
p7
aI0
aatp8
Rp9
.ccollections
OrderedDict
p0
((lp1
(lp2
S'timestamp'
p3
aF0.2773170471191406
aa(lp4
S'distance'
p5
aF384.0
aa(lp6
S'state'
p7
aI0
aatp8
Rp9
.ccollections
OrderedDict
p0
((lp1
(lp2
S'timestamp'
p3
aF0.27903199195861816
aa(lp4
S'distance'
p5
aF384.0
aa(lp6
S'state'
p7
aI0
aatp8
Rp9
.ccollections
OrderedDict
p0
((lp1
(lp2
S'timestamp'
p3
aF0.2871100902557373
aa(lp4
S'distance'
p5
aF384.0
aa(lp6
S'state'
p7
aI0
aatp8
Rp9
.ccollections
OrderedDict
p0
((lp1
(lp2
S'timestamp'
p3
aF0.2879929542541504
aa(lp4
S'distance'
p5
aF384.0
aa(lp6
S'state'
p7
aI0
aatp8
Rp9
.ccollections
OrderedDict
p0
((lp1
(lp2
S'timestamp'
p3
aF0.29781389236450195
aa(lp4
S'distance'
p5
aF384.0
aa(lp6
S'state'
p7
aI0
aatp8
Rp9
.ccollections
OrderedDict
p0
((lp1
(lp2
S'timestamp'
p3
aF0.29854488372802734
aa(lp4
S'distance'
p5
aF384.0
aa(lp6
S'state'
p7
aI0
aatp8
Rp9
.ccollections
OrderedDict
p0
((lp1
(lp2
S'timestamp'
p3
aF0.307574987411499
aa(lp4
S'distance'
p5
aF384.0
aa(lp6
S'state'
p7
aI0
aatp8
Rp9
.ccollections
OrderedDict
p0
((lp1
(lp2
S'timestamp'
p3
aF0.3081979751586914
aa(lp4
S'distance'
p5
aF384.0
aa(lp6
S'state'
p7
aI0
aatp8
Rp9
.ccollections
OrderedDict
p0
((lp1
(lp2
S'timestamp'
p3
aF0.3172569274902344
aa(lp4
S'distance'
p5
aF384.0
aa(lp6
S'state'
p7
aI0
aatp8
Rp9
.ccollections
OrderedDict
p0
((lp1
(lp2
S'timestamp'
p3
aF0.31807994842529297
aa(lp4
S'distance'
p5
aF384.0
aa(lp6
S'state'
p7
aI0
aatp8
Rp9
.ccollections
OrderedDict
p0
((lp1
(lp2
S'timestamp'
p3
aF0.32800889015197754
aa(lp4
S'distance'
p5
aF384.0
aa(lp6
S'state'
p7
aI0
aatp8
Rp9
.ccollections
OrderedDict
p0
((lp1
(lp2
S'timestamp'
p3
aF0.3291759490966797
aa(lp4
S'distance'
p5
aF384.0
aa(lp6
S'state'
p7
aI0
aatp8
Rp9
.ccollections
OrderedDict
p0
((lp1
(lp2
S'timestamp'
p3
aF0.3371119499206543
aa(lp4
S'distance'
p5
aF384.0
aa(lp6
S'state'
p7
aI0
aatp8
Rp9
.ccollections
OrderedDict
p0
((lp1
(lp2
S'timestamp'
p3
aF0.3381969928741455
aa(lp4
S'distance'
p5
aF384.0
aa(lp6
S'state'
p7
aI0
aatp8
Rp9
.ccollections
OrderedDict
p0
((lp1
(lp2
S'timestamp'
p3
aF0.3477919101715088
aa(lp4
S'distance'
p5
aF384.0
aa(lp6
S'state'
p7
aI0
aatp8
Rp9
.ccollections
OrderedDict
p0
((lp1
(lp2
S'timestamp'
p3
aF0.34940099716186523
aa(lp4
S'distance'
p5
aF384.0
aa(lp6
S'state'
p7
aI0
aatp8
Rp9
.ccollections
OrderedDict
p0
((lp1
(lp2
S'timestamp'
p3
aF0.3596959114074707
aa(lp4
S'distance'
p5
aF384.0
aa(lp6
S'state'
p7
aI0
aatp8
Rp9
.ccollections
OrderedDict
p0
((lp1
(lp2
S'timestamp'
p3
aF0.35994386672973633
aa(lp4
S'distance'
p5
aF384.0
aa(lp6
S'state'
p7
aI0
aatp8
Rp9
.ccollections
OrderedDict
p0
((lp1
(lp2
S'timestamp'
p3
aF0.36768603324890137
aa(lp4
S'distance'
p5
aF384.0
aa(lp6
S'state'
p7
aI0
aatp8
Rp9
.ccollections
OrderedDict
p0
((lp1
(lp2
S'timestamp'
p3
aF0.3691558837890625
aa(lp4
S'distance'
p5
aF384.0
aa(lp6
S'state'
p7
aI0
aatp8
Rp9
.ccollections
OrderedDict
p0
((lp1
(lp2
S'timestamp'
p3
aF0.37725186347961426
aa(lp4
S'distance'
p5
aF384.0
aa(lp6
S'state'
p7
aI0
aatp8
Rp9
.ccollections
OrderedDict
p0
((lp1
(lp2
S'timestamp'
p3
aF0.3778269290924072
aa(lp4
S'distance'
p5
aF384.0
aa(lp6
S'state'
p7
aI0
aatp8
Rp9
.ccollections
OrderedDict
p0
((lp1
(lp2
S'timestamp'
p3
aF0.38777995109558105
aa(lp4
S'distance'
p5
aF384.0
aa(lp6
S'state'
p7
aI0
aatp8
Rp9
.ccollections
OrderedDict
p0
((lp1
(lp2
S'timestamp'
p3
aF0.3879890441894531
aa(lp4
S'distance'
p5
aF384.0
aa(lp6
S'state'
p7
aI0
aatp8
Rp9
.ccollections
OrderedDict
p0
((lp1
(lp2
S'timestamp'
p3
aF0.3976280689239502
aa(lp4
S'distance'
p5
aF384.0
aa(lp6
S'state'
p7
aI0
aatp8
Rp9
.ccollections
OrderedDict
p0
((lp1
(lp2
S'timestamp'
p3
aF0.3988010883331299
aa(lp4
S'distance'
p5
aF384.0
aa(lp6
S'state'
p7
aI0
aatp8
Rp9
.ccollections
OrderedDict
p0
((lp1
(lp2
S'timestamp'
p3
aF0.40758490562438965
aa(lp4
S'distance'
p5
aF384.0
aa(lp6
S'state'
p7
aI0
aatp8
Rp9
.ccollections
OrderedDict
p0
((lp1
(lp2
S'timestamp'
p3
aF0.40776896476745605
aa(lp4
S'distance'
p5
aF384.0
aa(lp6
S'state'
p7
aI0
aatp8
Rp9
.ccollections
OrderedDict
p0
((lp1
(lp2
S'timestamp'
p3
aF0.417011022567749
aa(lp4
S'distance'
p5
aF384.0
aa(lp6
S'state'
p7
aI0
aatp8
Rp9
.ccollections
OrderedDict
p0
((lp1
(lp2
S'timestamp'
p3
aF0.41780686378479004
aa(lp4
S'distance'
p5
aF384.0
aa(lp6
S'state'
p7
aI0
aatp8
Rp9
.ccollections
OrderedDict
p0
((lp1
(lp2
S'timestamp'
p3
aF0.42786288261413574
aa(lp4
S'distance'
p5
aF384.0
aa(lp6
S'state'
p7
aI0
aatp8
Rp9
.ccollections
OrderedDict
p0
((lp1
(lp2
S'timestamp'
p3
aF0.42844700813293457
aa(lp4
S'distance'
p5
aF384.0
aa(lp6
S'state'
p7
aI0
aatp8
Rp9
.ccollections
OrderedDict
p0
((lp1
(lp2
S'timestamp'
p3
aF0.4378349781036377
aa(lp4
S'distance'
p5
aF384.0
aa(lp6
S'state'
p7
aI0
aatp8
Rp9
.ccollections
OrderedDict
p0
((lp1
(lp2
S'timestamp'
p3
aF0.43820691108703613
aa(lp4
S'distance'
p5
aF384.0
aa(lp6
S'state'
p7
aI0
aatp8
Rp9
.ccollections
OrderedDict
p0
((lp1
(lp2
S'timestamp'
p3
aF0.44701600074768066
aa(lp4
S'distance'
p5
aF384.0
aa(lp6
S'state'
p7
aI0
aatp8
Rp9
.ccollections
OrderedDict
p0
((lp1
(lp2
S'timestamp'
p3
aF0.4476590156555176
aa(lp4
S'distance'
p5
aF384.0
aa(lp6
S'state'
p7
aI0
aatp8
Rp9
.ccollections
OrderedDict
p0
((lp1
(lp2
S'timestamp'
p3
aF0.45758605003356934
aa(lp4
S'distance'
p5
aF384.0
aa(lp6
S'state'
p7
aI0
aatp8
Rp9
.ccollections
OrderedDict
p0
((lp1
(lp2
S'timestamp'
p3
aF0.45766305923461914
aa(lp4
S'distance'
p5
aF384.0
aa(lp6
S'state'
p7
aI0
aatp8
Rp9
.ccollections
OrderedDict
p0
((lp1
(lp2
S'timestamp'
p3
aF0.467120885848999
aa(lp4
S'distance'
p5
aF384.0
aa(lp6
S'state'
p7
aI0
aatp8
Rp9
.ccollections
OrderedDict
p0
((lp1
(lp2
S'timestamp'
p3
aF0.4677860736846924
aa(lp4
S'distance'
p5
aF384.0
aa(lp6
S'state'
p7
aI0
aatp8
Rp9
.ccollections
OrderedDict
p0
((lp1
(lp2
S'timestamp'
p3
aF0.47713398933410645
aa(lp4
S'distance'
p5
aF384.0
aa(lp6
S'state'
p7
aI0
aatp8
Rp9
.ccollections
OrderedDict
p0
((lp1
(lp2
S'timestamp'
p3
aF0.47815895080566406
aa(lp4
S'distance'
p5
aF384.0
aa(lp6
S'state'
p7
aI0
aatp8
Rp9
.ccollections
OrderedDict
p0
((lp1
(lp2
S'timestamp'
p3
aF0.4873778820037842
aa(lp4
S'distance'
p5
aF384.0
aa(lp6
S'state'
p7
aI0
aatp8
Rp9
.ccollections
OrderedDict
p0
((lp1
(lp2
S'timestamp'
p3
aF0.4893970489501953
aa(lp4
S'distance'
p5
aF384.0
aa(lp6
S'state'
p7
aI0
aatp8
Rp9
.ccollections
OrderedDict
p0
((lp1
(lp2
S'timestamp'
p3
aF0.49704408645629883
aa(lp4
S'distance'
p5
aF384.0
aa(lp6
S'state'
p7
aI0
aatp8
Rp9
.ccollections
OrderedDict
p0
((lp1
(lp2
S'timestamp'
p3
aF0.49921107292175293
aa(lp4
S'distance'
p5
aF384.0
aa(lp6
S'state'
p7
aI0
aatp8
Rp9
.ccollections
OrderedDict
p0
((lp1
(lp2
S'timestamp'
p3
aF0.507335901260376
aa(lp4
S'distance'
p5
aF384.0
aa(lp6
S'state'
p7
aI0
aatp8
Rp9
.ccollections
OrderedDict
p0
((lp1
(lp2
S'timestamp'
p3
aF0.5078709125518799
aa(lp4
S'distance'
p5
aF384.0
aa(lp6
S'state'
p7
aI0
aatp8
Rp9
.ccollections
OrderedDict
p0
((lp1
(lp2
S'timestamp'
p3
aF0.5177760124206543
aa(lp4
S'distance'
p5
aF384.0
aa(lp6
S'state'
p7
aI0
aatp8
Rp9
.ccollections
OrderedDict
p0
((lp1
(lp2
S'timestamp'
p3
aF0.5179579257965088
aa(lp4
S'distance'
p5
aF384.0
aa(lp6
S'state'
p7
aI0
aatp8
Rp9
.ccollections
OrderedDict
p0
((lp1
(lp2
S'timestamp'
p3
aF0.5276510715484619
aa(lp4
S'distance'
p5
aF384.0
aa(lp6
S'state'
p7
aI0
aatp8
Rp9
.ccollections
OrderedDict
p0
((lp1
(lp2
S'timestamp'
p3
aF0.5278759002685547
aa(lp4
S'distance'
p5
aF384.0
aa(lp6
S'state'
p7
aI0
aatp8
Rp9
.ccollections
OrderedDict
p0
((lp1
(lp2
S'timestamp'
p3
aF0.5369699001312256
aa(lp4
S'distance'
p5
aF384.0
aa(lp6
S'state'
p7
aI0
aatp8
Rp9
.ccollections
OrderedDict
p0
((lp1
(lp2
S'timestamp'
p3
aF0.5384700298309326
aa(lp4
S'distance'
p5
aF384.0
aa(lp6
S'state'
p7
aI0
aatp8
Rp9
.ccollections
OrderedDict
p0
((lp1
(lp2
S'timestamp'
p3
aF0.5470728874206543
aa(lp4
S'distance'
p5
aF384.0
aa(lp6
S'state'
p7
aI0
aatp8
Rp9
.ccollections
OrderedDict
p0
((lp1
(lp2
S'timestamp'
p3
aF0.5479040145874023
aa(lp4
S'distance'
p5
aF384.0
aa(lp6
S'state'
p7
aI0
aatp8
Rp9
.ccollections
OrderedDict
p0
((lp1
(lp2
S'timestamp'
p3
aF0.5577170848846436
aa(lp4
S'distance'
p5
aF384.0
aa(lp6
S'state'
p7
aI0
aatp8
Rp9
.ccollections
OrderedDict
p0
((lp1
(lp2
S'timestamp'
p3
aF0.5586578845977783
aa(lp4
S'distance'
p5
aF384.0
aa(lp6
S'state'
p7
aI0
aatp8
Rp9
.ccollections
OrderedDict
p0
((lp1
(lp2
S'timestamp'
p3
aF0.5673708915710449
aa(lp4
S'distance'
p5
aF384.0
aa(lp6
S'state'
p7
aI0
aatp8
Rp9
.ccollections
OrderedDict
p0
((lp1
(lp2
S'timestamp'
p3
aF0.5678448677062988
aa(lp4
S'distance'
p5
aF384.0
aa(lp6
S'state'
p7
aI0
aatp8
Rp9
.ccollections
OrderedDict
p0
((lp1
(lp2
S'timestamp'
p3
aF0.5782270431518555
aa(lp4
S'distance'
p5
aF384.0
aa(lp6
S'state'
p7
aI0
aatp8
Rp9
.ccollections
OrderedDict
p0
((lp1
(lp2
S'timestamp'
p3
aF0.578434944152832
aa(lp4
S'distance'
p5
aF384.0
aa(lp6
S'state'
p7
aI0
aatp8
Rp9
.ccollections
OrderedDict
p0
((lp1
(lp2
S'timestamp'
p3
aF0.5875890254974365
aa(lp4
S'distance'
p5
aF384.0
aa(lp6
S'state'
p7
aI0
aatp8
Rp9
.ccollections
OrderedDict
p0
((lp1
(lp2
S'timestamp'
p3
aF0.5876898765563965
aa(lp4
S'distance'
p5
aF384.0
aa(lp6
S'state'
p7
aI0
aatp8
Rp9
.ccollections
OrderedDict
p0
((lp1
(lp2
S'timestamp'
p3
aF0.5978660583496094
aa(lp4
S'distance'
p5
aF384.0
aa(lp6
S'state'
p7
aI0
aatp8
Rp9
.ccollections
OrderedDict
p0
((lp1
(lp2
S'timestamp'
p3
aF0.597938060760498
aa(lp4
S'distance'
p5
aF384.0
aa(lp6
S'state'
p7
aI0
aatp8
Rp9
.ccollections
OrderedDict
p0
((lp1
(lp2
S'timestamp'
p3
aF0.6140780448913574
aa(lp4
S'distance'
p5
aF384.0
aa(lp6
S'state'
p7
aI0
aatp8
Rp9
.ccollections
OrderedDict
p0
((lp1
(lp2
S'timestamp'
p3
aF0.614799976348877
aa(lp4
S'distance'
p5
aF384.0
aa(lp6
S'state'
p7
aI0
aatp8
Rp9
.ccollections
OrderedDict
p0
((lp1
(lp2
S'timestamp'
p3
aF0.6186239719390869
aa(lp4
S'distance'
p5
aF384.0
aa(lp6
S'state'
p7
aI0
aatp8
Rp9
.ccollections
OrderedDict
p0
((lp1
(lp2
S'timestamp'
p3
aF0.6187450885772705
aa(lp4
S'distance'
p5
aF384.0
aa(lp6
S'state'
p7
aI0
aatp8
Rp9
.ccollections
OrderedDict
p0
((lp1
(lp2
S'timestamp'
p3
aF0.6276838779449463
aa(lp4
S'distance'
p5
aF384.0
aa(lp6
S'state'
p7
aI0
aatp8
Rp9
.ccollections
OrderedDict
p0
((lp1
(lp2
S'timestamp'
p3
aF0.6278510093688965
aa(lp4
S'distance'
p5
aF384.0
aa(lp6
S'state'
p7
aI0
aatp8
Rp9
.ccollections
OrderedDict
p0
((lp1
(lp2
S'timestamp'
p3
aF0.637800931930542
aa(lp4
S'distance'
p5
aF384.0
aa(lp6
S'state'
p7
aI0
aatp8
Rp9
.ccollections
OrderedDict
p0
((lp1
(lp2
S'timestamp'
p3
aF0.6379849910736084
aa(lp4
S'distance'
p5
aF384.0
aa(lp6
S'state'
p7
aI0
aatp8
Rp9
.ccollections
OrderedDict
p0
((lp1
(lp2
S'timestamp'
p3
aF0.6472499370574951
aa(lp4
S'distance'
p5
aF384.0
aa(lp6
S'state'
p7
aI0
aatp8
Rp9
.ccollections
OrderedDict
p0
((lp1
(lp2
S'timestamp'
p3
aF0.6481359004974365
aa(lp4
S'distance'
p5
aF384.0
aa(lp6
S'state'
p7
aI0
aatp8
Rp9
.ccollections
OrderedDict
p0
((lp1
(lp2
S'timestamp'
p3
aF0.6569669246673584
aa(lp4
S'distance'
p5
aF384.0
aa(lp6
S'state'
p7
aI0
aatp8
Rp9
.ccollections
OrderedDict
p0
((lp1
(lp2
S'timestamp'
p3
aF0.6588079929351807
aa(lp4
S'distance'
p5
aF384.0
aa(lp6
S'state'
p7
aI0
aatp8
Rp9
.ccollections
OrderedDict
p0
((lp1
(lp2
S'timestamp'
p3
aF0.6673009395599365
aa(lp4
S'distance'
p5
aF384.0
aa(lp6
S'state'
p7
aI0
aatp8
Rp9
.ccollections
OrderedDict
p0
((lp1
(lp2
S'timestamp'
p3
aF0.6678500175476074
aa(lp4
S'distance'
p5
aF384.0
aa(lp6
S'state'
p7
aI0
aatp8
Rp9
.ccollections
OrderedDict
p0
((lp1
(lp2
S'timestamp'
p3
aF0.6772868633270264
aa(lp4
S'distance'
p5
aF384.0
aa(lp6
S'state'
p7
aI0
aatp8
Rp9
.ccollections
OrderedDict
p0
((lp1
(lp2
S'timestamp'
p3
aF0.6780500411987305
aa(lp4
S'distance'
p5
aF384.0
aa(lp6
S'state'
p7
aI0
aatp8
Rp9
.ccollections
OrderedDict
p0
((lp1
(lp2
S'timestamp'
p3
aF0.6882989406585693
aa(lp4
S'distance'
p5
aF384.0
aa(lp6
S'state'
p7
aI0
aatp8
Rp9
.ccollections
OrderedDict
p0
((lp1
(lp2
S'timestamp'
p3
aF0.6899800300598145
aa(lp4
S'distance'
p5
aF384.0
aa(lp6
S'state'
p7
aI0
aatp8
Rp9
.ccollections
OrderedDict
p0
((lp1
(lp2
S'timestamp'
p3
aF0.6976149082183838
aa(lp4
S'distance'
p5
aF384.0
aa(lp6
S'state'
p7
aI0
aatp8
Rp9
.ccollections
OrderedDict
p0
((lp1
(lp2
S'timestamp'
p3
aF0.6977789402008057
aa(lp4
S'distance'
p5
aF384.0
aa(lp6
S'state'
p7
aI0
aatp8
Rp9
.ccollections
OrderedDict
p0
((lp1
(lp2
S'timestamp'
p3
aF0.7094650268554688
aa(lp4
S'distance'
p5
aF384.0
aa(lp6
S'state'
p7
aI0
aatp8
Rp9
.ccollections
OrderedDict
p0
((lp1
(lp2
S'timestamp'
p3
aF0.7106049060821533
aa(lp4
S'distance'
p5
aF384.0
aa(lp6
S'state'
p7
aI0
aatp8
Rp9
.ccollections
OrderedDict
p0
((lp1
(lp2
S'timestamp'
p3
aF0.7172870635986328
aa(lp4
S'distance'
p5
aF384.0
aa(lp6
S'state'
p7
aI0
aatp8
Rp9
.ccollections
OrderedDict
p0
((lp1
(lp2
S'timestamp'
p3
aF0.7180719375610352
aa(lp4
S'distance'
p5
aF384.0
aa(lp6
S'state'
p7
aI0
aatp8
Rp9
.ccollections
OrderedDict
p0
((lp1
(lp2
S'timestamp'
p3
aF0.7272288799285889
aa(lp4
S'distance'
p5
aF384.0
aa(lp6
S'state'
p7
aI0
aatp8
Rp9
.ccollections
OrderedDict
p0
((lp1
(lp2
S'timestamp'
p3
aF0.7278120517730713
aa(lp4
S'distance'
p5
aF384.0
aa(lp6
S'state'
p7
aI0
aatp8
Rp9
.ccollections
OrderedDict
p0
((lp1
(lp2
S'timestamp'
p3
aF0.7374560832977295
aa(lp4
S'distance'
p5
aF384.0
aa(lp6
S'state'
p7
aI0
aatp8
Rp9
.ccollections
OrderedDict
p0
((lp1
(lp2
S'timestamp'
p3
aF0.7388949394226074
aa(lp4
S'distance'
p5
aF384.0
aa(lp6
S'state'
p7
aI0
aatp8
Rp9
.ccollections
OrderedDict
p0
((lp1
(lp2
S'timestamp'
p3
aF0.747838020324707
aa(lp4
S'distance'
p5
aF384.0
aa(lp6
S'state'
p7
aI0
aatp8
Rp9
.ccollections
OrderedDict
p0
((lp1
(lp2
S'timestamp'
p3
aF0.7480790615081787
aa(lp4
S'distance'
p5
aF384.0
aa(lp6
S'state'
p7
aI0
aatp8
Rp9
.ccollections
OrderedDict
p0
((lp1
(lp2
S'timestamp'
p3
aF0.7576940059661865
aa(lp4
S'distance'
p5
aF384.0
aa(lp6
S'state'
p7
aI0
aatp8
Rp9
.ccollections
OrderedDict
p0
((lp1
(lp2
S'timestamp'
p3
aF0.7603020668029785
aa(lp4
S'distance'
p5
aF384.0
aa(lp6
S'state'
p7
aI0
aatp8
Rp9
.ccollections
OrderedDict
p0
((lp1
(lp2
S'timestamp'
p3
aF0.7669000625610352
aa(lp4
S'distance'
p5
aF384.0
aa(lp6
S'state'
p7
aI0
aatp8
Rp9
.ccollections
OrderedDict
p0
((lp1
(lp2
S'timestamp'
p3
aF0.7680680751800537
aa(lp4
S'distance'
p5
aF384.0
aa(lp6
S'state'
p7
aI0
aatp8
Rp9
.ccollections
OrderedDict
p0
((lp1
(lp2
S'timestamp'
p3
aF0.7772228717803955
aa(lp4
S'distance'
p5
aF384.0
aa(lp6
S'state'
p7
aI0
aatp8
Rp9
.ccollections
OrderedDict
p0
((lp1
(lp2
S'timestamp'
p3
aF0.7777869701385498
aa(lp4
S'distance'
p5
aF384.0
aa(lp6
S'state'
p7
aI0
aatp8
Rp9
.ccollections
OrderedDict
p0
((lp1
(lp2
S'timestamp'
p3
aF0.7871749401092529
aa(lp4
S'distance'
p5
aF384.0
aa(lp6
S'state'
p7
aI0
aatp8
Rp9
.ccollections
OrderedDict
p0
((lp1
(lp2
S'timestamp'
p3
aF0.7890059947967529
aa(lp4
S'distance'
p5
aF384.0
aa(lp6
S'state'
p7
aI0
aatp8
Rp9
.ccollections
OrderedDict
p0
((lp1
(lp2
S'timestamp'
p3
aF0.7975308895111084
aa(lp4
S'distance'
p5
aF384.0
aa(lp6
S'state'
p7
aI0
aatp8
Rp9
.ccollections
OrderedDict
p0
((lp1
(lp2
S'timestamp'
p3
aF0.7981729507446289
aa(lp4
S'distance'
p5
aF384.0
aa(lp6
S'state'
p7
aI0
aatp8
Rp9
.ccollections
OrderedDict
p0
((lp1
(lp2
S'timestamp'
p3
aF0.8073470592498779
aa(lp4
S'distance'
p5
aF384.0
aa(lp6
S'state'
p7
aI0
aatp8
Rp9
.ccollections
OrderedDict
p0
((lp1
(lp2
S'timestamp'
p3
aF0.807776927947998
aa(lp4
S'distance'
p5
aF384.0
aa(lp6
S'state'
p7
aI0
aatp8
Rp9
.ccollections
OrderedDict
p0
((lp1
(lp2
S'timestamp'
p3
aF0.8171758651733398
aa(lp4
S'distance'
p5
aF384.0
aa(lp6
S'state'
p7
aI0
aatp8
Rp9
.ccollections
OrderedDict
p0
((lp1
(lp2
S'timestamp'
p3
aF0.8177480697631836
aa(lp4
S'distance'
p5
aF384.0
aa(lp6
S'state'
p7
aI0
aatp8
Rp9
.ccollections
OrderedDict
p0
((lp1
(lp2
S'timestamp'
p3
aF0.8279430866241455
aa(lp4
S'distance'
p5
aF384.0
aa(lp6
S'state'
p7
aI0
aatp8
Rp9
.ccollections
OrderedDict
p0
((lp1
(lp2
S'timestamp'
p3
aF0.8281328678131104
aa(lp4
S'distance'
p5
aF384.0
aa(lp6
S'state'
p7
aI0
aatp8
Rp9
.ccollections
OrderedDict
p0
((lp1
(lp2
S'timestamp'
p3
aF0.8371238708496094
aa(lp4
S'distance'
p5
aF384.0
aa(lp6
S'state'
p7
aI0
aatp8
Rp9
.ccollections
OrderedDict
p0
((lp1
(lp2
S'timestamp'
p3
aF0.839439868927002
aa(lp4
S'distance'
p5
aF384.0
aa(lp6
S'state'
p7
aI0
aatp8
Rp9
.ccollections
OrderedDict
p0
((lp1
(lp2
S'timestamp'
p3
aF0.8480179309844971
aa(lp4
S'distance'
p5
aF384.0
aa(lp6
S'state'
p7
aI0
aatp8
Rp9
.ccollections
OrderedDict
p0
((lp1
(lp2
S'timestamp'
p3
aF0.8490869998931885
aa(lp4
S'distance'
p5
aF384.0
aa(lp6
S'state'
p7
aI0
aatp8
Rp9
.ccollections
OrderedDict
p0
((lp1
(lp2
S'timestamp'
p3
aF0.85725998878479
aa(lp4
S'distance'
p5
aF384.0
aa(lp6
S'state'
p7
aI0
aatp8
Rp9
.ccollections
OrderedDict
p0
((lp1
(lp2
S'timestamp'
p3
aF0.8577320575714111
aa(lp4
S'distance'
p5
aF384.0
aa(lp6
S'state'
p7
aI0
aatp8
Rp9
.ccollections
OrderedDict
p0
((lp1
(lp2
S'timestamp'
p3
aF0.8694400787353516
aa(lp4
S'distance'
p5
aF384.0
aa(lp6
S'state'
p7
aI0
aatp8
Rp9
.ccollections
OrderedDict
p0
((lp1
(lp2
S'timestamp'
p3
aF0.869575023651123
aa(lp4
S'distance'
p5
aF384.0
aa(lp6
S'state'
p7
aI0
aatp8
Rp9
.ccollections
OrderedDict
p0
((lp1
(lp2
S'timestamp'
p3
aF0.8772640228271484
aa(lp4
S'distance'
p5
aF384.0
aa(lp6
S'state'
p7
aI0
aatp8
Rp9
.ccollections
OrderedDict
p0
((lp1
(lp2
S'timestamp'
p3
aF0.8788950443267822
aa(lp4
S'distance'
p5
aF384.0
aa(lp6
S'state'
p7
aI0
aatp8
Rp9
.ccollections
OrderedDict
p0
((lp1
(lp2
S'timestamp'
p3
aF0.887336015701294
aa(lp4
S'distance'
p5
aF384.0
aa(lp6
S'state'
p7
aI0
aatp8
Rp9
.ccollections
OrderedDict
p0
((lp1
(lp2
S'timestamp'
p3
aF0.8877160549163818
aa(lp4
S'distance'
p5
aF384.0
aa(lp6
S'state'
p7
aI0
aatp8
Rp9
.ccollections
OrderedDict
p0
((lp1
(lp2
S'timestamp'
p3
aF0.8977570533752441
aa(lp4
S'distance'
p5
aF384.0
aa(lp6
S'state'
p7
aI0
aatp8
Rp9
.ccollections
OrderedDict
p0
((lp1
(lp2
S'timestamp'
p3
aF0.8982019424438477
aa(lp4
S'distance'
p5
aF384.0
aa(lp6
S'state'
p7
aI0
aatp8
Rp9
.ccollections
OrderedDict
p0
((lp1
(lp2
S'timestamp'
p3
aF0.9076728820800781
aa(lp4
S'distance'
p5
aF384.0
aa(lp6
S'state'
p7
aI0
aatp8
Rp9
.ccollections
OrderedDict
p0
((lp1
(lp2
S'timestamp'
p3
aF0.9079508781433105
aa(lp4
S'distance'
p5
aF384.0
aa(lp6
S'state'
p7
aI0
aatp8
Rp9
.ccollections
OrderedDict
p0
((lp1
(lp2
S'timestamp'
p3
aF0.9175620079040527
aa(lp4
S'distance'
p5
aF384.0
aa(lp6
S'state'
p7
aI0
aatp8
Rp9
.ccollections
OrderedDict
p0
((lp1
(lp2
S'timestamp'
p3
aF0.917834997177124
aa(lp4
S'distance'
p5
aF384.0
aa(lp6
S'state'
p7
aI0
aatp8
Rp9
.ccollections
OrderedDict
p0
((lp1
(lp2
S'timestamp'
p3
aF0.9275720119476318
aa(lp4
S'distance'
p5
aF384.0
aa(lp6
S'state'
p7
aI0
aatp8
Rp9
.ccollections
OrderedDict
p0
((lp1
(lp2
S'timestamp'
p3
aF0.927670955657959
aa(lp4
S'distance'
p5
aF384.0
aa(lp6
S'state'
p7
aI0
aatp8
Rp9
.ccollections
OrderedDict
p0
((lp1
(lp2
S'timestamp'
p3
aF0.9372329711914062
aa(lp4
S'distance'
p5
aF384.0
aa(lp6
S'state'
p7
aI0
aatp8
Rp9
.ccollections
OrderedDict
p0
((lp1
(lp2
S'timestamp'
p3
aF0.9379348754882812
aa(lp4
S'distance'
p5
aF384.0
aa(lp6
S'state'
p7
aI0
aatp8
Rp9
.ccollections
OrderedDict
p0
((lp1
(lp2
S'timestamp'
p3
aF0.9470970630645752
aa(lp4
S'distance'
p5
aF384.0
aa(lp6
S'state'
p7
aI0
aatp8
Rp9
.ccollections
OrderedDict
p0
((lp1
(lp2
S'timestamp'
p3
aF0.9477288722991943
aa(lp4
S'distance'
p5
aF384.0
aa(lp6
S'state'
p7
aI0
aatp8
Rp9
.ccollections
OrderedDict
p0
((lp1
(lp2
S'timestamp'
p3
aF0.959784984588623
aa(lp4
S'distance'
p5
aF384.0
aa(lp6
S'state'
p7
aI0
aatp8
Rp9
.ccollections
OrderedDict
p0
((lp1
(lp2
S'timestamp'
p3
aF0.9599490165710449
aa(lp4
S'distance'
p5
aF384.0
aa(lp6
S'state'
p7
aI0
aatp8
Rp9
.ccollections
OrderedDict
p0
((lp1
(lp2
S'timestamp'
p3
aF0.9677629470825195
aa(lp4
S'distance'
p5
aF384.0
aa(lp6
S'state'
p7
aI0
aatp8
Rp9
.ccollections
OrderedDict
p0
((lp1
(lp2
S'timestamp'
p3
aF0.9678900241851807
aa(lp4
S'distance'
p5
aF384.0
aa(lp6
S'state'
p7
aI0
aatp8
Rp9
.ccollections
OrderedDict
p0
((lp1
(lp2
S'timestamp'
p3
aF0.977423906326294
aa(lp4
S'distance'
p5
aF384.0
aa(lp6
S'state'
p7
aI0
aatp8
Rp9
.ccollections
OrderedDict
p0
((lp1
(lp2
S'timestamp'
p3
aF0.9780318737030029
aa(lp4
S'distance'
p5
aF384.0
aa(lp6
S'state'
p7
aI0
aatp8
Rp9
.ccollections
OrderedDict
p0
((lp1
(lp2
S'timestamp'
p3
aF0.9873180389404297
aa(lp4
S'distance'
p5
aF384.0
aa(lp6
S'state'
p7
aI0
aatp8
Rp9
.ccollections
OrderedDict
p0
((lp1
(lp2
S'timestamp'
p3
aF0.9878408908843994
aa(lp4
S'distance'
p5
aF384.0
aa(lp6
S'state'
p7
aI0
aatp8
Rp9
.ccollections
OrderedDict
p0
((lp1
(lp2
S'timestamp'
p3
aF0.9974799156188965
aa(lp4
S'distance'
p5
aF384.0
aa(lp6
S'state'
p7
aI0
aatp8
Rp9
.ccollections
OrderedDict
p0
((lp1
(lp2
S'timestamp'
p3
aF0.9981319904327393
aa(lp4
S'distance'
p5
aF384.0
aa(lp6
S'state'
p7
aI0
aatp8
Rp9
.ccollections
OrderedDict
p0
((lp1
(lp2
S'timestamp'
p3
aF1.00746488571167
aa(lp4
S'distance'
p5
aF384.0
aa(lp6
S'state'
p7
aI0
aatp8
Rp9
.ccollections
OrderedDict
p0
((lp1
(lp2
S'timestamp'
p3
aF1.0080609321594238
aa(lp4
S'distance'
p5
aF384.0
aa(lp6
S'state'
p7
aI0
aatp8
Rp9
.ccollections
OrderedDict
p0
((lp1
(lp2
S'timestamp'
p3
aF1.0172569751739502
aa(lp4
S'distance'
p5
aF384.0
aa(lp6
S'state'
p7
aI0
aatp8
Rp9
.ccollections
OrderedDict
p0
((lp1
(lp2
S'timestamp'
p3
aF1.0179989337921143
aa(lp4
S'distance'
p5
aF384.0
aa(lp6
S'state'
p7
aI0
aatp8
Rp9
.ccollections
OrderedDict
p0
((lp1
(lp2
S'timestamp'
p3
aF1.0286688804626465
aa(lp4
S'distance'
p5
aF384.0
aa(lp6
S'state'
p7
aI0
aatp8
Rp9
.ccollections
OrderedDict
p0
((lp1
(lp2
S'timestamp'
p3
aF1.0288560390472412
aa(lp4
S'distance'
p5
aF384.0
aa(lp6
S'state'
p7
aI0
aatp8
Rp9
.ccollections
OrderedDict
p0
((lp1
(lp2
S'timestamp'
p3
aF1.0373969078063965
aa(lp4
S'distance'
p5
aF384.0
aa(lp6
S'state'
p7
aI0
aatp8
Rp9
.ccollections
OrderedDict
p0
((lp1
(lp2
S'timestamp'
p3
aF1.0381650924682617
aa(lp4
S'distance'
p5
aF384.0
aa(lp6
S'state'
p7
aI0
aatp8
Rp9
.ccollections
OrderedDict
p0
((lp1
(lp2
S'timestamp'
p3
aF1.0473358631134033
aa(lp4
S'distance'
p5
aF384.0
aa(lp6
S'state'
p7
aI0
aatp8
Rp9
.ccollections
OrderedDict
p0
((lp1
(lp2
S'timestamp'
p3
aF1.0476858615875244
aa(lp4
S'distance'
p5
aF384.0
aa(lp6
S'state'
p7
aI0
aatp8
Rp9
.ccollections
OrderedDict
p0
((lp1
(lp2
S'timestamp'
p3
aF1.0575649738311768
aa(lp4
S'distance'
p5
aF384.0
aa(lp6
S'state'
p7
aI0
aatp8
Rp9
.ccollections
OrderedDict
p0
((lp1
(lp2
S'timestamp'
p3
aF1.057677984237671
aa(lp4
S'distance'
p5
aF384.0
aa(lp6
S'state'
p7
aI0
aatp8
Rp9
.ccollections
OrderedDict
p0
((lp1
(lp2
S'timestamp'
p3
aF1.0675840377807617
aa(lp4
S'distance'
p5
aF384.0
aa(lp6
S'state'
p7
aI0
aatp8
Rp9
.ccollections
OrderedDict
p0
((lp1
(lp2
S'timestamp'
p3
aF1.067662000656128
aa(lp4
S'distance'
p5
aF384.0
aa(lp6
S'state'
p7
aI0
aatp8
Rp9
.ccollections
OrderedDict
p0
((lp1
(lp2
S'timestamp'
p3
aF1.0773558616638184
aa(lp4
S'distance'
p5
aF384.0
aa(lp6
S'state'
p7
aI0
aatp8
Rp9
.ccollections
OrderedDict
p0
((lp1
(lp2
S'timestamp'
p3
aF1.0780138969421387
aa(lp4
S'distance'
p5
aF384.0
aa(lp6
S'state'
p7
aI0
aatp8
Rp9
.ccollections
OrderedDict
p0
((lp1
(lp2
S'timestamp'
p3
aF1.087251901626587
aa(lp4
S'distance'
p5
aF384.0
aa(lp6
S'state'
p7
aI0
aatp8
Rp9
.ccollections
OrderedDict
p0
((lp1
(lp2
S'timestamp'
p3
aF1.0877220630645752
aa(lp4
S'distance'
p5
aF384.0
aa(lp6
S'state'
p7
aI0
aatp8
Rp9
.ccollections
OrderedDict
p0
((lp1
(lp2
S'timestamp'
p3
aF1.0970749855041504
aa(lp4
S'distance'
p5
aF384.0
aa(lp6
S'state'
p7
aI0
aatp8
Rp9
.ccollections
OrderedDict
p0
((lp1
(lp2
S'timestamp'
p3
aF1.097851037979126
aa(lp4
S'distance'
p5
aF384.0
aa(lp6
S'state'
p7
aI0
aatp8
Rp9
.ccollections
OrderedDict
p0
((lp1
(lp2
S'timestamp'
p3
aF1.1076760292053223
aa(lp4
S'distance'
p5
aF384.0
aa(lp6
S'state'
p7
aI0
aatp8
Rp9
.ccollections
OrderedDict
p0
((lp1
(lp2
S'timestamp'
p3
aF1.108062982559204
aa(lp4
S'distance'
p5
aF384.0
aa(lp6
S'state'
p7
aI0
aatp8
Rp9
.ccollections
OrderedDict
p0
((lp1
(lp2
S'timestamp'
p3
aF1.1169588565826416
aa(lp4
S'distance'
p5
aF384.0
aa(lp6
S'state'
p7
aI0
aatp8
Rp9
.ccollections
OrderedDict
p0
((lp1
(lp2
S'timestamp'
p3
aF1.1177308559417725
aa(lp4
S'distance'
p5
aF384.0
aa(lp6
S'state'
p7
aI0
aatp8
Rp9
.ccollections
OrderedDict
p0
((lp1
(lp2
S'timestamp'
p3
aF1.1271460056304932
aa(lp4
S'distance'
p5
aF384.0
aa(lp6
S'state'
p7
aI0
aatp8
Rp9
.ccollections
OrderedDict
p0
((lp1
(lp2
S'timestamp'
p3
aF1.1277599334716797
aa(lp4
S'distance'
p5
aF384.0
aa(lp6
S'state'
p7
aI0
aatp8
Rp9
.ccollections
OrderedDict
p0
((lp1
(lp2
S'timestamp'
p3
aF1.1370830535888672
aa(lp4
S'distance'
p5
aF384.0
aa(lp6
S'state'
p7
aI0
aatp8
Rp9
.ccollections
OrderedDict
p0
((lp1
(lp2
S'timestamp'
p3
aF1.1376979351043701
aa(lp4
S'distance'
p5
aF384.0
aa(lp6
S'state'
p7
aI0
aatp8
Rp9
.ccollections
OrderedDict
p0
((lp1
(lp2
S'timestamp'
p3
aF1.1469919681549072
aa(lp4
S'distance'
p5
aF384.0
aa(lp6
S'state'
p7
aI0
aatp8
Rp9
.ccollections
OrderedDict
p0
((lp1
(lp2
S'timestamp'
p3
aF1.1476640701293945
aa(lp4
S'distance'
p5
aF384.0
aa(lp6
S'state'
p7
aI0
aatp8
Rp9
.ccollections
OrderedDict
p0
((lp1
(lp2
S'timestamp'
p3
aF1.1571638584136963
aa(lp4
S'distance'
p5
aF384.0
aa(lp6
S'state'
p7
aI0
aatp8
Rp9
.ccollections
OrderedDict
p0
((lp1
(lp2
S'timestamp'
p3
aF1.1578190326690674
aa(lp4
S'distance'
p5
aF384.0
aa(lp6
S'state'
p7
aI0
aatp8
Rp9
.ccollections
OrderedDict
p0
((lp1
(lp2
S'timestamp'
p3
aF1.1782310009002686
aa(lp4
S'distance'
p5
aF384.0
aa(lp6
S'state'
p7
aI0
aatp8
Rp9
.ccollections
OrderedDict
p0
((lp1
(lp2
S'timestamp'
p3
aF1.178389072418213
aa(lp4
S'distance'
p5
aF384.0
aa(lp6
S'state'
p7
aI0
aatp8
Rp9
.ccollections
OrderedDict
p0
((lp1
(lp2
S'timestamp'
p3
aF1.1786088943481445
aa(lp4
S'distance'
p5
aF384.0
aa(lp6
S'state'
p7
aI0
aatp8
Rp9
.ccollections
OrderedDict
p0
((lp1
(lp2
S'timestamp'
p3
aF1.1790449619293213
aa(lp4
S'distance'
p5
aF384.0
aa(lp6
S'state'
p7
aI0
aatp8
Rp9
.ccollections
OrderedDict
p0
((lp1
(lp2
S'timestamp'
p3
aF1.187290906906128
aa(lp4
S'distance'
p5
aF384.0
aa(lp6
S'state'
p7
aI0
aatp8
Rp9
.ccollections
OrderedDict
p0
((lp1
(lp2
S'timestamp'
p3
aF1.1881320476531982
aa(lp4
S'distance'
p5
aF384.0
aa(lp6
S'state'
p7
aI0
aatp8
Rp9
.ccollections
OrderedDict
p0
((lp1
(lp2
S'timestamp'
p3
aF1.197429895401001
aa(lp4
S'distance'
p5
aF384.0
aa(lp6
S'state'
p7
aI0
aatp8
Rp9
.ccollections
OrderedDict
p0
((lp1
(lp2
S'timestamp'
p3
aF1.1977970600128174
aa(lp4
S'distance'
p5
aF384.0
aa(lp6
S'state'
p7
aI0
aatp8
Rp9
.ccollections
OrderedDict
p0
((lp1
(lp2
S'timestamp'
p3
aF1.2091588973999023
aa(lp4
S'distance'
p5
aF384.0
aa(lp6
S'state'
p7
aI0
aatp8
Rp9
.ccollections
OrderedDict
p0
((lp1
(lp2
S'timestamp'
p3
aF1.2105388641357422
aa(lp4
S'distance'
p5
aF384.0
aa(lp6
S'state'
p7
aI0
aatp8
Rp9
.ccollections
OrderedDict
p0
((lp1
(lp2
S'timestamp'
p3
aF1.2192199230194092
aa(lp4
S'distance'
p5
aF384.0
aa(lp6
S'state'
p7
aI0
aatp8
Rp9
.ccollections
OrderedDict
p0
((lp1
(lp2
S'timestamp'
p3
aF1.2196240425109863
aa(lp4
S'distance'
p5
aF384.0
aa(lp6
S'state'
p7
aI0
aatp8
Rp9
.ccollections
OrderedDict
p0
((lp1
(lp2
S'timestamp'
p3
aF1.2272350788116455
aa(lp4
S'distance'
p5
aF384.0
aa(lp6
S'state'
p7
aI0
aatp8
Rp9
.ccollections
OrderedDict
p0
((lp1
(lp2
S'timestamp'
p3
aF1.2275090217590332
aa(lp4
S'distance'
p5
aF384.0
aa(lp6
S'state'
p7
aI0
aatp8
Rp9
.ccollections
OrderedDict
p0
((lp1
(lp2
S'timestamp'
p3
aF1.2374119758605957
aa(lp4
S'distance'
p5
aF384.0
aa(lp6
S'state'
p7
aI0
aatp8
Rp9
.ccollections
OrderedDict
p0
((lp1
(lp2
S'timestamp'
p3
aF1.2376720905303955
aa(lp4
S'distance'
p5
aF384.0
aa(lp6
S'state'
p7
aI0
aatp8
Rp9
.ccollections
OrderedDict
p0
((lp1
(lp2
S'timestamp'
p3
aF1.247441053390503
aa(lp4
S'distance'
p5
aF384.0
aa(lp6
S'state'
p7
aI0
aatp8
Rp9
.ccollections
OrderedDict
p0
((lp1
(lp2
S'timestamp'
p3
aF1.2476990222930908
aa(lp4
S'distance'
p5
aF384.0
aa(lp6
S'state'
p7
aI0
aatp8
Rp9
.ccollections
OrderedDict
p0
((lp1
(lp2
S'timestamp'
p3
aF1.2573108673095703
aa(lp4
S'distance'
p5
aF384.0
aa(lp6
S'state'
p7
aI0
aatp8
Rp9
.ccollections
OrderedDict
p0
((lp1
(lp2
S'timestamp'
p3
aF1.258924961090088
aa(lp4
S'distance'
p5
aF384.0
aa(lp6
S'state'
p7
aI0
aatp8
Rp9
.ccollections
OrderedDict
p0
((lp1
(lp2
S'timestamp'
p3
aF1.2677350044250488
aa(lp4
S'distance'
p5
aF384.0
aa(lp6
S'state'
p7
aI0
aatp8
Rp9
.ccollections
OrderedDict
p0
((lp1
(lp2
S'timestamp'
p3
aF1.2679929733276367
aa(lp4
S'distance'
p5
aF384.0
aa(lp6
S'state'
p7
aI0
aatp8
Rp9
.ccollections
OrderedDict
p0
((lp1
(lp2
S'timestamp'
p3
aF1.2771410942077637
aa(lp4
S'distance'
p5
aF384.0
aa(lp6
S'state'
p7
aI0
aatp8
Rp9
.ccollections
OrderedDict
p0
((lp1
(lp2
S'timestamp'
p3
aF1.2780048847198486
aa(lp4
S'distance'
p5
aF384.0
aa(lp6
S'state'
p7
aI0
aatp8
Rp9
.ccollections
OrderedDict
p0
((lp1
(lp2
S'timestamp'
p3
aF1.2885808944702148
aa(lp4
S'distance'
p5
aF384.0
aa(lp6
S'state'
p7
aI0
aatp8
Rp9
.ccollections
OrderedDict
p0
((lp1
(lp2
S'timestamp'
p3
aF1.2888550758361816
aa(lp4
S'distance'
p5
aF384.0
aa(lp6
S'state'
p7
aI0
aatp8
Rp9
.ccollections
OrderedDict
p0
((lp1
(lp2
S'timestamp'
p3
aF1.2975139617919922
aa(lp4
S'distance'
p5
aF384.0
aa(lp6
S'state'
p7
aI0
aatp8
Rp9
.ccollections
OrderedDict
p0
((lp1
(lp2
S'timestamp'
p3
aF1.2975940704345703
aa(lp4
S'distance'
p5
aF384.0
aa(lp6
S'state'
p7
aI0
aatp8
Rp9
.ccollections
OrderedDict
p0
((lp1
(lp2
S'timestamp'
p3
aF1.3069639205932617
aa(lp4
S'distance'
p5
aF384.0
aa(lp6
S'state'
p7
aI0
aatp8
Rp9
.ccollections
OrderedDict
p0
((lp1
(lp2
S'timestamp'
p3
aF1.30781888961792
aa(lp4
S'distance'
p5
aF384.0
aa(lp6
S'state'
p7
aI0
aatp8
Rp9
.ccollections
OrderedDict
p0
((lp1
(lp2
S'timestamp'
p3
aF1.3170249462127686
aa(lp4
S'distance'
p5
aF384.0
aa(lp6
S'state'
p7
aI0
aatp8
Rp9
.ccollections
OrderedDict
p0
((lp1
(lp2
S'timestamp'
p3
aF1.3176939487457275
aa(lp4
S'distance'
p5
aF384.0
aa(lp6
S'state'
p7
aI0
aatp8
Rp9
.ccollections
OrderedDict
p0
((lp1
(lp2
S'timestamp'
p3
aF1.3279430866241455
aa(lp4
S'distance'
p5
aF384.0
aa(lp6
S'state'
p7
aI0
aatp8
Rp9
.ccollections
OrderedDict
p0
((lp1
(lp2
S'timestamp'
p3
aF1.3280229568481445
aa(lp4
S'distance'
p5
aF384.0
aa(lp6
S'state'
p7
aI0
aatp8
Rp9
.ccollections
OrderedDict
p0
((lp1
(lp2
S'timestamp'
p3
aF1.3368690013885498
aa(lp4
S'distance'
p5
aF384.0
aa(lp6
S'state'
p7
aI0
aatp8
Rp9
.ccollections
OrderedDict
p0
((lp1
(lp2
S'timestamp'
p3
aF1.337662935256958
aa(lp4
S'distance'
p5
aF384.0
aa(lp6
S'state'
p7
aI0
aatp8
Rp9
.ccollections
OrderedDict
p0
((lp1
(lp2
S'timestamp'
p3
aF1.3472840785980225
aa(lp4
S'distance'
p5
aF384.0
aa(lp6
S'state'
p7
aI0
aatp8
Rp9
.ccollections
OrderedDict
p0
((lp1
(lp2
S'timestamp'
p3
aF1.347809076309204
aa(lp4
S'distance'
p5
aF384.0
aa(lp6
S'state'
p7
aI0
aatp8
Rp9
.ccollections
OrderedDict
p0
((lp1
(lp2
S'timestamp'
p3
aF1.358043909072876
aa(lp4
S'distance'
p5
aF384.0
aa(lp6
S'state'
p7
aI0
aatp8
Rp9
.ccollections
OrderedDict
p0
((lp1
(lp2
S'timestamp'
p3
aF1.3585660457611084
aa(lp4
S'distance'
p5
aF384.0
aa(lp6
S'state'
p7
aI0
aatp8
Rp9
.ccollections
OrderedDict
p0
((lp1
(lp2
S'timestamp'
p3
aF1.3676409721374512
aa(lp4
S'distance'
p5
aF384.0
aa(lp6
S'state'
p7
aI0
aatp8
Rp9
.ccollections
OrderedDict
p0
((lp1
(lp2
S'timestamp'
p3
aF1.3688409328460693
aa(lp4
S'distance'
p5
aF384.0
aa(lp6
S'state'
p7
aI0
aatp8
Rp9
.ccollections
OrderedDict
p0
((lp1
(lp2
S'timestamp'
p3
aF1.379173994064331
aa(lp4
S'distance'
p5
aF384.0
aa(lp6
S'state'
p7
aI0
aatp8
Rp9
.ccollections
OrderedDict
p0
((lp1
(lp2
S'timestamp'
p3
aF1.3795299530029297
aa(lp4
S'distance'
p5
aF384.0
aa(lp6
S'state'
p7
aI0
aatp8
Rp9
.ccollections
OrderedDict
p0
((lp1
(lp2
S'timestamp'
p3
aF1.387618064880371
aa(lp4
S'distance'
p5
aF384.0
aa(lp6
S'state'
p7
aI0
aatp8
Rp9
.ccollections
OrderedDict
p0
((lp1
(lp2
S'timestamp'
p3
aF1.3884658813476562
aa(lp4
S'distance'
p5
aF384.0
aa(lp6
S'state'
p7
aI0
aatp8
Rp9
.ccollections
OrderedDict
p0
((lp1
(lp2
S'timestamp'
p3
aF1.397731065750122
aa(lp4
S'distance'
p5
aF384.0
aa(lp6
S'state'
p7
aI0
aatp8
Rp9
.ccollections
OrderedDict
p0
((lp1
(lp2
S'timestamp'
p3
aF1.3979668617248535
aa(lp4
S'distance'
p5
aF384.0
aa(lp6
S'state'
p7
aI0
aatp8
Rp9
.ccollections
OrderedDict
p0
((lp1
(lp2
S'timestamp'
p3
aF1.4073278903961182
aa(lp4
S'distance'
p5
aF384.0
aa(lp6
S'state'
p7
aI0
aatp8
Rp9
.ccollections
OrderedDict
p0
((lp1
(lp2
S'timestamp'
p3
aF1.4085030555725098
aa(lp4
S'distance'
p5
aF384.0
aa(lp6
S'state'
p7
aI0
aatp8
Rp9
.ccollections
OrderedDict
p0
((lp1
(lp2
S'timestamp'
p3
aF1.4171819686889648
aa(lp4
S'distance'
p5
aF384.0
aa(lp6
S'state'
p7
aI0
aatp8
Rp9
.ccollections
OrderedDict
p0
((lp1
(lp2
S'timestamp'
p3
aF1.4176149368286133
aa(lp4
S'distance'
p5
aF384.0
aa(lp6
S'state'
p7
aI0
aatp8
Rp9
.ccollections
OrderedDict
p0
((lp1
(lp2
S'timestamp'
p3
aF1.4271490573883057
aa(lp4
S'distance'
p5
aF384.0
aa(lp6
S'state'
p7
aI0
aatp8
Rp9
.ccollections
OrderedDict
p0
((lp1
(lp2
S'timestamp'
p3
aF1.4276618957519531
aa(lp4
S'distance'
p5
aF384.0
aa(lp6
S'state'
p7
aI0
aatp8
Rp9
.ccollections
OrderedDict
p0
((lp1
(lp2
S'timestamp'
p3
aF1.4375720024108887
aa(lp4
S'distance'
p5
aF384.0
aa(lp6
S'state'
p7
aI0
aatp8
Rp9
.ccollections
OrderedDict
p0
((lp1
(lp2
S'timestamp'
p3
aF1.43790602684021
aa(lp4
S'distance'
p5
aF384.0
aa(lp6
S'state'
p7
aI0
aatp8
Rp9
.ccollections
OrderedDict
p0
((lp1
(lp2
S'timestamp'
p3
aF1.448678970336914
aa(lp4
S'distance'
p5
aF384.0
aa(lp6
S'state'
p7
aI0
aatp8
Rp9
.ccollections
OrderedDict
p0
((lp1
(lp2
S'timestamp'
p3
aF1.449030876159668
aa(lp4
S'distance'
p5
aF384.0
aa(lp6
S'state'
p7
aI0
aatp8
Rp9
.ccollections
OrderedDict
p0
((lp1
(lp2
S'timestamp'
p3
aF1.4568960666656494
aa(lp4
S'distance'
p5
aF384.0
aa(lp6
S'state'
p7
aI0
aatp8
Rp9
.ccollections
OrderedDict
p0
((lp1
(lp2
S'timestamp'
p3
aF1.4576239585876465
aa(lp4
S'distance'
p5
aF384.0
aa(lp6
S'state'
p7
aI0
aatp8
Rp9
.ccollections
OrderedDict
p0
((lp1
(lp2
S'timestamp'
p3
aF1.4668800830841064
aa(lp4
S'distance'
p5
aF384.0
aa(lp6
S'state'
p7
aI0
aatp8
Rp9
.ccollections
OrderedDict
p0
((lp1
(lp2
S'timestamp'
p3
aF1.4675910472869873
aa(lp4
S'distance'
p5
aF384.0
aa(lp6
S'state'
p7
aI0
aatp8
Rp9
.ccollections
OrderedDict
p0
((lp1
(lp2
S'timestamp'
p3
aF1.4771530628204346
aa(lp4
S'distance'
p5
aF384.0
aa(lp6
S'state'
p7
aI0
aatp8
Rp9
.ccollections
OrderedDict
p0
((lp1
(lp2
S'timestamp'
p3
aF1.477653980255127
aa(lp4
S'distance'
p5
aF384.0
aa(lp6
S'state'
p7
aI0
aatp8
Rp9
.ccollections
OrderedDict
p0
((lp1
(lp2
S'timestamp'
p3
aF1.4878928661346436
aa(lp4
S'distance'
p5
aF384.0
aa(lp6
S'state'
p7
aI400
aatp8
Rp9
.ccollections
OrderedDict
p0
((lp1
(lp2
S'timestamp'
p3
aF1.4880189895629883
aa(lp4
S'distance'
p5
aF384.0
aa(lp6
S'state'
p7
aI400
aatp8
Rp9
.ccollections
OrderedDict
p0
((lp1
(lp2
S'timestamp'
p3
aF1.49727201461792
aa(lp4
S'distance'
p5
aF384.0
aa(lp6
S'state'
p7
aI400
aatp8
Rp9
.ccollections
OrderedDict
p0
((lp1
(lp2
S'timestamp'
p3
aF1.4979579448699951
aa(lp4
S'distance'
p5
aF384.0
aa(lp6
S'state'
p7
aI400
aatp8
Rp9
.ccollections
OrderedDict
p0
((lp1
(lp2
S'timestamp'
p3
aF1.5088748931884766
aa(lp4
S'distance'
p5
aF384.0
aa(lp6
S'state'
p7
aI400
aatp8
Rp9
.ccollections
OrderedDict
p0
((lp1
(lp2
S'timestamp'
p3
aF1.5094540119171143
aa(lp4
S'distance'
p5
aF384.0
aa(lp6
S'state'
p7
aI400
aatp8
Rp9
.ccollections
OrderedDict
p0
((lp1
(lp2
S'timestamp'
p3
aF1.5186779499053955
aa(lp4
S'distance'
p5
aF384.0
aa(lp6
S'state'
p7
aI400
aatp8
Rp9
.ccollections
OrderedDict
p0
((lp1
(lp2
S'timestamp'
p3
aF1.5303800106048584
aa(lp4
S'distance'
p5
aF384.0
aa(lp6
S'state'
p7
aI400
aatp8
Rp9
.ccollections
OrderedDict
p0
((lp1
(lp2
S'timestamp'
p3
aF1.5306520462036133
aa(lp4
S'distance'
p5
aF384.0
aa(lp6
S'state'
p7
aI400
aatp8
Rp9
.ccollections
OrderedDict
p0
((lp1
(lp2
S'timestamp'
p3
aF1.5308918952941895
aa(lp4
S'distance'
p5
aF384.0
aa(lp6
S'state'
p7
aI400
aatp8
Rp9
.ccollections
OrderedDict
p0
((lp1
(lp2
S'timestamp'
p3
aF1.5373480319976807
aa(lp4
S'distance'
p5
aF384.0
aa(lp6
S'state'
p7
aI400
aatp8
Rp9
.ccollections
OrderedDict
p0
((lp1
(lp2
S'timestamp'
p3
aF1.5387890338897705
aa(lp4
S'distance'
p5
aF384.0
aa(lp6
S'state'
p7
aI400
aatp8
Rp9
.ccollections
OrderedDict
p0
((lp1
(lp2
S'timestamp'
p3
aF1.5471479892730713
aa(lp4
S'distance'
p5
aF384.0
aa(lp6
S'state'
p7
aI400
aatp8
Rp9
.ccollections
OrderedDict
p0
((lp1
(lp2
S'timestamp'
p3
aF1.5476629734039307
aa(lp4
S'distance'
p5
aF384.0
aa(lp6
S'state'
p7
aI400
aatp8
Rp9
.ccollections
OrderedDict
p0
((lp1
(lp2
S'timestamp'
p3
aF1.5569698810577393
aa(lp4
S'distance'
p5
aF384.0
aa(lp6
S'state'
p7
aI400
aatp8
Rp9
.ccollections
OrderedDict
p0
((lp1
(lp2
S'timestamp'
p3
aF1.5575618743896484
aa(lp4
S'distance'
p5
aF384.0
aa(lp6
S'state'
p7
aI400
aatp8
Rp9
.ccollections
OrderedDict
p0
((lp1
(lp2
S'timestamp'
p3
aF1.5676689147949219
aa(lp4
S'distance'
p5
aF384.0
aa(lp6
S'state'
p7
aI400
aatp8
Rp9
.ccollections
OrderedDict
p0
((lp1
(lp2
S'timestamp'
p3
aF1.5680508613586426
aa(lp4
S'distance'
p5
aF384.0
aa(lp6
S'state'
p7
aI400
aatp8
Rp9
.ccollections
OrderedDict
p0
((lp1
(lp2
S'timestamp'
p3
aF1.57722806930542
aa(lp4
S'distance'
p5
aF384.0
aa(lp6
S'state'
p7
aI400
aatp8
Rp9
.ccollections
OrderedDict
p0
((lp1
(lp2
S'timestamp'
p3
aF1.5779380798339844
aa(lp4
S'distance'
p5
aF384.0
aa(lp6
S'state'
p7
aI400
aatp8
Rp9
.ccollections
OrderedDict
p0
((lp1
(lp2
S'timestamp'
p3
aF1.587312936782837
aa(lp4
S'distance'
p5
aF384.0
aa(lp6
S'state'
p7
aI400
aatp8
Rp9
.ccollections
OrderedDict
p0
((lp1
(lp2
S'timestamp'
p3
aF1.5889530181884766
aa(lp4
S'distance'
p5
aF384.0
aa(lp6
S'state'
p7
aI400
aatp8
Rp9
.ccollections
OrderedDict
p0
((lp1
(lp2
S'timestamp'
p3
aF1.5975489616394043
aa(lp4
S'distance'
p5
aF384.0
aa(lp6
S'state'
p7
aI400
aatp8
Rp9
.ccollections
OrderedDict
p0
((lp1
(lp2
S'timestamp'
p3
aF1.5977098941802979
aa(lp4
S'distance'
p5
aF384.0
aa(lp6
S'state'
p7
aI400
aatp8
Rp9
.ccollections
OrderedDict
p0
((lp1
(lp2
S'timestamp'
p3
aF1.6075830459594727
aa(lp4
S'distance'
p5
aF384.0
aa(lp6
S'state'
p7
aI400
aatp8
Rp9
.ccollections
OrderedDict
p0
((lp1
(lp2
S'timestamp'
p3
aF1.6083159446716309
aa(lp4
S'distance'
p5
aF384.0
aa(lp6
S'state'
p7
aI400
aatp8
Rp9
.ccollections
OrderedDict
p0
((lp1
(lp2
S'timestamp'
p3
aF1.6171519756317139
aa(lp4
S'distance'
p5
aF384.0
aa(lp6
S'state'
p7
aI400
aatp8
Rp9
.ccollections
OrderedDict
p0
((lp1
(lp2
S'timestamp'
p3
aF1.6183030605316162
aa(lp4
S'distance'
p5
aF384.0
aa(lp6
S'state'
p7
aI400
aatp8
Rp9
.ccollections
OrderedDict
p0
((lp1
(lp2
S'timestamp'
p3
aF1.6268689632415771
aa(lp4
S'distance'
p5
aF384.0
aa(lp6
S'state'
p7
aI400
aatp8
Rp9
.ccollections
OrderedDict
p0
((lp1
(lp2
S'timestamp'
p3
aF1.627945899963379
aa(lp4
S'distance'
p5
aF384.0
aa(lp6
S'state'
p7
aI400
aatp8
Rp9
.ccollections
OrderedDict
p0
((lp1
(lp2
S'timestamp'
p3
aF1.6380980014801025
aa(lp4
S'distance'
p5
aF384.0
aa(lp6
S'state'
p7
aI400
aatp8
Rp9
.ccollections
OrderedDict
p0
((lp1
(lp2
S'timestamp'
p3
aF1.6382560729980469
aa(lp4
S'distance'
p5
aF384.0
aa(lp6
S'state'
p7
aI400
aatp8
Rp9
.ccollections
OrderedDict
p0
((lp1
(lp2
S'timestamp'
p3
aF1.6474800109863281
aa(lp4
S'distance'
p5
aF384.0
aa(lp6
S'state'
p7
aI400
aatp8
Rp9
.ccollections
OrderedDict
p0
((lp1
(lp2
S'timestamp'
p3
aF1.648684024810791
aa(lp4
S'distance'
p5
aF384.0
aa(lp6
S'state'
p7
aI400
aatp8
Rp9
.ccollections
OrderedDict
p0
((lp1
(lp2
S'timestamp'
p3
aF1.658397912979126
aa(lp4
S'distance'
p5
aF384.0
aa(lp6
S'state'
p7
aI400
aatp8
Rp9
.ccollections
OrderedDict
p0
((lp1
(lp2
S'timestamp'
p3
aF1.6586918830871582
aa(lp4
S'distance'
p5
aF384.0
aa(lp6
S'state'
p7
aI400
aatp8
Rp9
.ccollections
OrderedDict
p0
((lp1
(lp2
S'timestamp'
p3
aF1.6675219535827637
aa(lp4
S'distance'
p5
aF384.0
aa(lp6
S'state'
p7
aI400
aatp8
Rp9
.ccollections
OrderedDict
p0
((lp1
(lp2
S'timestamp'
p3
aF1.6676349639892578
aa(lp4
S'distance'
p5
aF384.0
aa(lp6
S'state'
p7
aI400
aatp8
Rp9
.ccollections
OrderedDict
p0
((lp1
(lp2
S'timestamp'
p3
aF1.6785690784454346
aa(lp4
S'distance'
p5
aF384.0
aa(lp6
S'state'
p7
aI400
aatp8
Rp9
.ccollections
OrderedDict
p0
((lp1
(lp2
S'timestamp'
p3
aF1.6787569522857666
aa(lp4
S'distance'
p5
aF384.0
aa(lp6
S'state'
p7
aI400
aatp8
Rp9
.ccollections
OrderedDict
p0
((lp1
(lp2
S'timestamp'
p3
aF1.6875100135803223
aa(lp4
S'distance'
p5
aF384.0
aa(lp6
S'state'
p7
aI400
aatp8
Rp9
.ccollections
OrderedDict
p0
((lp1
(lp2
S'timestamp'
p3
aF1.6875929832458496
aa(lp4
S'distance'
p5
aF384.0
aa(lp6
S'state'
p7
aI400
aatp8
Rp9
.ccollections
OrderedDict
p0
((lp1
(lp2
S'timestamp'
p3
aF1.698077917098999
aa(lp4
S'distance'
p5
aF384.0
aa(lp6
S'state'
p7
aI400
aatp8
Rp9
.ccollections
OrderedDict
p0
((lp1
(lp2
S'timestamp'
p3
aF1.6982159614562988
aa(lp4
S'distance'
p5
aF384.0
aa(lp6
S'state'
p7
aI400
aatp8
Rp9
.ccollections
OrderedDict
p0
((lp1
(lp2
S'timestamp'
p3
aF1.7068760395050049
aa(lp4
S'distance'
p5
aF384.0
aa(lp6
S'state'
p7
aI400
aatp8
Rp9
.ccollections
OrderedDict
p0
((lp1
(lp2
S'timestamp'
p3
aF1.7075519561767578
aa(lp4
S'distance'
p5
aF384.0
aa(lp6
S'state'
p7
aI400
aatp8
Rp9
.ccollections
OrderedDict
p0
((lp1
(lp2
S'timestamp'
p3
aF1.7169299125671387
aa(lp4
S'distance'
p5
aF384.0
aa(lp6
S'state'
p7
aI400
aatp8
Rp9
.ccollections
OrderedDict
p0
((lp1
(lp2
S'timestamp'
p3
aF1.7181289196014404
aa(lp4
S'distance'
p5
aF384.0
aa(lp6
S'state'
p7
aI400
aatp8
Rp9
.ccollections
OrderedDict
p0
((lp1
(lp2
S'timestamp'
p3
aF1.7373919486999512
aa(lp4
S'distance'
p5
aF384.0
aa(lp6
S'state'
p7
aI400
aatp8
Rp9
.ccollections
OrderedDict
p0
((lp1
(lp2
S'timestamp'
p3
aF1.737968921661377
aa(lp4
S'distance'
p5
aF384.0
aa(lp6
S'state'
p7
aI400
aatp8
Rp9
.ccollections
OrderedDict
p0
((lp1
(lp2
S'timestamp'
p3
aF1.7385149002075195
aa(lp4
S'distance'
p5
aF384.0
aa(lp6
S'state'
p7
aI400
aatp8
Rp9
.ccollections
OrderedDict
p0
((lp1
(lp2
S'timestamp'
p3
aF1.7391130924224854
aa(lp4
S'distance'
p5
aF384.0
aa(lp6
S'state'
p7
aI400
aatp8
Rp9
.ccollections
OrderedDict
p0
((lp1
(lp2
S'timestamp'
p3
aF1.7472000122070312
aa(lp4
S'distance'
p5
aF384.0
aa(lp6
S'state'
p7
aI400
aatp8
Rp9
.ccollections
OrderedDict
p0
((lp1
(lp2
S'timestamp'
p3
aF1.7476730346679688
aa(lp4
S'distance'
p5
aF384.0
aa(lp6
S'state'
p7
aI400
aatp8
Rp9
.ccollections
OrderedDict
p0
((lp1
(lp2
S'timestamp'
p3
aF1.7573859691619873
aa(lp4
S'distance'
p5
aF384.0
aa(lp6
S'state'
p7
aI400
aatp8
Rp9
.ccollections
OrderedDict
p0
((lp1
(lp2
S'timestamp'
p3
aF1.7576708793640137
aa(lp4
S'distance'
p5
aF384.0
aa(lp6
S'state'
p7
aI400
aatp8
Rp9
.ccollections
OrderedDict
p0
((lp1
(lp2
S'timestamp'
p3
aF1.7670369148254395
aa(lp4
S'distance'
p5
aF384.0
aa(lp6
S'state'
p7
aI400
aatp8
Rp9
.ccollections
OrderedDict
p0
((lp1
(lp2
S'timestamp'
p3
aF1.7675659656524658
aa(lp4
S'distance'
p5
aF384.0
aa(lp6
S'state'
p7
aI400
aatp8
Rp9
.ccollections
OrderedDict
p0
((lp1
(lp2
S'timestamp'
p3
aF1.777925968170166
aa(lp4
S'distance'
p5
aF384.0
aa(lp6
S'state'
p7
aI400
aatp8
Rp9
.ccollections
OrderedDict
p0
((lp1
(lp2
S'timestamp'
p3
aF1.7802670001983643
aa(lp4
S'distance'
p5
aF384.0
aa(lp6
S'state'
p7
aI400
aatp8
Rp9
.ccollections
OrderedDict
p0
((lp1
(lp2
S'timestamp'
p3
aF1.787708044052124
aa(lp4
S'distance'
p5
aF384.0
aa(lp6
S'state'
p7
aI400
aatp8
Rp9
.ccollections
OrderedDict
p0
((lp1
(lp2
S'timestamp'
p3
aF1.7878310680389404
aa(lp4
S'distance'
p5
aF384.0
aa(lp6
S'state'
p7
aI400
aatp8
Rp9
.ccollections
OrderedDict
p0
((lp1
(lp2
S'timestamp'
p3
aF1.797785997390747
aa(lp4
S'distance'
p5
aF384.0
aa(lp6
S'state'
p7
aI400
aatp8
Rp9
.ccollections
OrderedDict
p0
((lp1
(lp2
S'timestamp'
p3
aF1.7990100383758545
aa(lp4
S'distance'
p5
aF384.0
aa(lp6
S'state'
p7
aI400
aatp8
Rp9
.ccollections
OrderedDict
p0
((lp1
(lp2
S'timestamp'
p3
aF1.808825969696045
aa(lp4
S'distance'
p5
aF384.0
aa(lp6
S'state'
p7
aI400
aatp8
Rp9
.ccollections
OrderedDict
p0
((lp1
(lp2
S'timestamp'
p3
aF1.808953046798706
aa(lp4
S'distance'
p5
aF384.0
aa(lp6
S'state'
p7
aI400
aatp8
Rp9
.ccollections
OrderedDict
p0
((lp1
(lp2
S'timestamp'
p3
aF1.818100929260254
aa(lp4
S'distance'
p5
aF384.0
aa(lp6
S'state'
p7
aI400
aatp8
Rp9
.ccollections
OrderedDict
p0
((lp1
(lp2
S'timestamp'
p3
aF1.8182969093322754
aa(lp4
S'distance'
p5
aF384.0
aa(lp6
S'state'
p7
aI400
aatp8
Rp9
.ccollections
OrderedDict
p0
((lp1
(lp2
S'timestamp'
p3
aF1.8272030353546143
aa(lp4
S'distance'
p5
aF384.0
aa(lp6
S'state'
p7
aI400
aatp8
Rp9
.ccollections
OrderedDict
p0
((lp1
(lp2
S'timestamp'
p3
aF1.8277320861816406
aa(lp4
S'distance'
p5
aF384.0
aa(lp6
S'state'
p7
aI400
aatp8
Rp9
.ccollections
OrderedDict
p0
((lp1
(lp2
S'timestamp'
p3
aF1.8376119136810303
aa(lp4
S'distance'
p5
aF384.0
aa(lp6
S'state'
p7
aI400
aatp8
Rp9
.ccollections
OrderedDict
p0
((lp1
(lp2
S'timestamp'
p3
aF1.8377618789672852
aa(lp4
S'distance'
p5
aF384.0
aa(lp6
S'state'
p7
aI400
aatp8
Rp9
.ccollections
OrderedDict
p0
((lp1
(lp2
S'timestamp'
p3
aF1.8494908809661865
aa(lp4
S'distance'
p5
aF384.0
aa(lp6
S'state'
p7
aI400
aatp8
Rp9
.ccollections
OrderedDict
p0
((lp1
(lp2
S'timestamp'
p3
aF1.8495590686798096
aa(lp4
S'distance'
p5
aF384.0
aa(lp6
S'state'
p7
aI400
aatp8
Rp9
.ccollections
OrderedDict
p0
((lp1
(lp2
S'timestamp'
p3
aF1.856985092163086
aa(lp4
S'distance'
p5
aF384.0
aa(lp6
S'state'
p7
aI400
aatp8
Rp9
.ccollections
OrderedDict
p0
((lp1
(lp2
S'timestamp'
p3
aF1.8577768802642822
aa(lp4
S'distance'
p5
aF384.0
aa(lp6
S'state'
p7
aI400
aatp8
Rp9
.ccollections
OrderedDict
p0
((lp1
(lp2
S'timestamp'
p3
aF1.8674490451812744
aa(lp4
S'distance'
p5
aF384.0
aa(lp6
S'state'
p7
aI400
aatp8
Rp9
.ccollections
OrderedDict
p0
((lp1
(lp2
S'timestamp'
p3
aF1.8676998615264893
aa(lp4
S'distance'
p5
aF384.0
aa(lp6
S'state'
p7
aI400
aatp8
Rp9
.ccollections
OrderedDict
p0
((lp1
(lp2
S'timestamp'
p3
aF1.8770129680633545
aa(lp4
S'distance'
p5
aF384.0
aa(lp6
S'state'
p7
aI400
aatp8
Rp9
.ccollections
OrderedDict
p0
((lp1
(lp2
S'timestamp'
p3
aF1.8775720596313477
aa(lp4
S'distance'
p5
aF384.0
aa(lp6
S'state'
p7
aI400
aatp8
Rp9
.ccollections
OrderedDict
p0
((lp1
(lp2
S'timestamp'
p3
aF1.8870959281921387
aa(lp4
S'distance'
p5
aF384.0
aa(lp6
S'state'
p7
aI400
aatp8
Rp9
.ccollections
OrderedDict
p0
((lp1
(lp2
S'timestamp'
p3
aF1.887526035308838
aa(lp4
S'distance'
p5
aF384.0
aa(lp6
S'state'
p7
aI400
aatp8
Rp9
.ccollections
OrderedDict
p0
((lp1
(lp2
S'timestamp'
p3
aF1.8975119590759277
aa(lp4
S'distance'
p5
aF384.0
aa(lp6
S'state'
p7
aI400
aatp8
Rp9
.ccollections
OrderedDict
p0
((lp1
(lp2
S'timestamp'
p3
aF1.8976850509643555
aa(lp4
S'distance'
p5
aF384.0
aa(lp6
S'state'
p7
aI400
aatp8
Rp9
.ccollections
OrderedDict
p0
((lp1
(lp2
S'timestamp'
p3
aF1.907033920288086
aa(lp4
S'distance'
p5
aF384.0
aa(lp6
S'state'
p7
aI400
aatp8
Rp9
.ccollections
OrderedDict
p0
((lp1
(lp2
S'timestamp'
p3
aF1.9075310230255127
aa(lp4
S'distance'
p5
aF384.0
aa(lp6
S'state'
p7
aI400
aatp8
Rp9
.ccollections
OrderedDict
p0
((lp1
(lp2
S'timestamp'
p3
aF1.9169368743896484
aa(lp4
S'distance'
p5
aF384.0
aa(lp6
S'state'
p7
aI400
aatp8
Rp9
.ccollections
OrderedDict
p0
((lp1
(lp2
S'timestamp'
p3
aF1.9175598621368408
aa(lp4
S'distance'
p5
aF384.0
aa(lp6
S'state'
p7
aI400
aatp8
Rp9
.ccollections
OrderedDict
p0
((lp1
(lp2
S'timestamp'
p3
aF1.9271268844604492
aa(lp4
S'distance'
p5
aF384.0
aa(lp6
S'state'
p7
aI400
aatp8
Rp9
.ccollections
OrderedDict
p0
((lp1
(lp2
S'timestamp'
p3
aF1.9276299476623535
aa(lp4
S'distance'
p5
aF384.0
aa(lp6
S'state'
p7
aI400
aatp8
Rp9
.ccollections
OrderedDict
p0
((lp1
(lp2
S'timestamp'
p3
aF1.9374659061431885
aa(lp4
S'distance'
p5
aF384.0
aa(lp6
S'state'
p7
aI400
aatp8
Rp9
.ccollections
OrderedDict
p0
((lp1
(lp2
S'timestamp'
p3
aF1.9471969604492188
aa(lp4
S'distance'
p5
aF384.0
aa(lp6
S'state'
p7
aI400
aatp8
Rp9
.ccollections
OrderedDict
p0
((lp1
(lp2
S'timestamp'
p3
aF1.9475278854370117
aa(lp4
S'distance'
p5
aF384.0
aa(lp6
S'state'
p7
aI400
aatp8
Rp9
.ccollections
OrderedDict
p0
((lp1
(lp2
S'timestamp'
p3
aF1.9490809440612793
aa(lp4
S'distance'
p5
aF384.0
aa(lp6
S'state'
p7
aI400
aatp8
Rp9
.ccollections
OrderedDict
p0
((lp1
(lp2
S'timestamp'
p3
aF1.9567780494689941
aa(lp4
S'distance'
p5
aF384.0
aa(lp6
S'state'
p7
aI400
aatp8
Rp9
.ccollections
OrderedDict
p0
((lp1
(lp2
S'timestamp'
p3
aF1.9575998783111572
aa(lp4
S'distance'
p5
aF384.0
aa(lp6
S'state'
p7
aI400
aatp8
Rp9
.ccollections
OrderedDict
p0
((lp1
(lp2
S'timestamp'
p3
aF1.9667439460754395
aa(lp4
S'distance'
p5
aF384.0
aa(lp6
S'state'
p7
aI400
aatp8
Rp9
.ccollections
OrderedDict
p0
((lp1
(lp2
S'timestamp'
p3
aF1.9674248695373535
aa(lp4
S'distance'
p5
aF384.0
aa(lp6
S'state'
p7
aI400
aatp8
Rp9
.ccollections
OrderedDict
p0
((lp1
(lp2
S'timestamp'
p3
aF1.977186918258667
aa(lp4
S'distance'
p5
aF384.0
aa(lp6
S'state'
p7
aI400
aatp8
Rp9
.ccollections
OrderedDict
p0
((lp1
(lp2
S'timestamp'
p3
aF1.9775340557098389
aa(lp4
S'distance'
p5
aF384.0
aa(lp6
S'state'
p7
aI400
aatp8
Rp9
.ccollections
OrderedDict
p0
((lp1
(lp2
S'timestamp'
p3
aF1.987065076828003
aa(lp4
S'distance'
p5
aF384.0
aa(lp6
S'state'
p7
aI400
aatp8
Rp9
.ccollections
OrderedDict
p0
((lp1
(lp2
S'timestamp'
p3
aF1.9876270294189453
aa(lp4
S'distance'
p5
aF384.0
aa(lp6
S'state'
p7
aI400
aatp8
Rp9
.ccollections
OrderedDict
p0
((lp1
(lp2
S'timestamp'
p3
aF1.997040033340454
aa(lp4
S'distance'
p5
aF384.0
aa(lp6
S'state'
p7
aI400
aatp8
Rp9
.ccollections
OrderedDict
p0
((lp1
(lp2
S'timestamp'
p3
aF1.9976980686187744
aa(lp4
S'distance'
p5
aF384.0
aa(lp6
S'state'
p7
aI400
aatp8
Rp9
.ccollections
OrderedDict
p0
((lp1
(lp2
S'timestamp'
p3
aF2.0067739486694336
aa(lp4
S'distance'
p5
aF384.0
aa(lp6
S'state'
p7
aI400
aatp8
Rp9
.ccollections
OrderedDict
p0
((lp1
(lp2
S'timestamp'
p3
aF2.007657051086426
aa(lp4
S'distance'
p5
aF384.0
aa(lp6
S'state'
p7
aI400
aatp8
Rp9
.ccollections
OrderedDict
p0
((lp1
(lp2
S'timestamp'
p3
aF2.017117977142334
aa(lp4
S'distance'
p5
aF384.0
aa(lp6
S'state'
p7
aI400
aatp8
Rp9
.ccollections
OrderedDict
p0
((lp1
(lp2
S'timestamp'
p3
aF2.0176260471343994
aa(lp4
S'distance'
p5
aF384.0
aa(lp6
S'state'
p7
aI400
aatp8
Rp9
.ccollections
OrderedDict
p0
((lp1
(lp2
S'timestamp'
p3
aF2.027092933654785
aa(lp4
S'distance'
p5
aF384.0
aa(lp6
S'state'
p7
aI400
aatp8
Rp9
.ccollections
OrderedDict
p0
((lp1
(lp2
S'timestamp'
p3
aF2.027477979660034
aa(lp4
S'distance'
p5
aF384.0
aa(lp6
S'state'
p7
aI400
aatp8
Rp9
.ccollections
OrderedDict
p0
((lp1
(lp2
S'timestamp'
p3
aF2.0371320247650146
aa(lp4
S'distance'
p5
aF384.0
aa(lp6
S'state'
p7
aI0
aatp8
Rp9
.ccollections
OrderedDict
p0
((lp1
(lp2
S'timestamp'
p3
aF2.6082019805908203
aa(lp4
S'distance'
p5
aF277.29203033447266
aa(lp6
S'state'
p7
aI0
aatp8
Rp9
.ccollections
OrderedDict
p0
((lp1
(lp2
S'timestamp'
p3
aF2.6175119876861572
aa(lp4
S'distance'
p5
aF277.29203033447266
aa(lp6
S'state'
p7
aI0
aatp8
Rp9
.ccollections
OrderedDict
p0
((lp1
(lp2
S'timestamp'
p3
aF2.6175999641418457
aa(lp4
S'distance'
p5
aF277.29203033447266
aa(lp6
S'state'
p7
aI0
aatp8
Rp9
.ccollections
OrderedDict
p0
((lp1
(lp2
S'timestamp'
p3
aF2.6267290115356445
aa(lp4
S'distance'
p5
aF277.29203033447266
aa(lp6
S'state'
p7
aI0
aatp8
Rp9
.ccollections
OrderedDict
p0
((lp1
(lp2
S'timestamp'
p3
aF2.6273369789123535
aa(lp4
S'distance'
p5
aF277.29203033447266
aa(lp6
S'state'
p7
aI0
aatp8
Rp9
.ccollections
OrderedDict
p0
((lp1
(lp2
S'timestamp'
p3
aF2.636863946914673
aa(lp4
S'distance'
p5
aF277.29203033447266
aa(lp6
S'state'
p7
aI0
aatp8
Rp9
.ccollections
OrderedDict
p0
((lp1
(lp2
S'timestamp'
p3
aF2.6374480724334717
aa(lp4
S'distance'
p5
aF277.29203033447266
aa(lp6
S'state'
p7
aI0
aatp8
Rp9
.ccollections
OrderedDict
p0
((lp1
(lp2
S'timestamp'
p3
aF2.6472959518432617
aa(lp4
S'distance'
p5
aF277.29203033447266
aa(lp6
S'state'
p7
aI0
aatp8
Rp9
.ccollections
OrderedDict
p0
((lp1
(lp2
S'timestamp'
p3
aF2.647947072982788
aa(lp4
S'distance'
p5
aF277.29203033447266
aa(lp6
S'state'
p7
aI0
aatp8
Rp9
.ccollections
OrderedDict
p0
((lp1
(lp2
S'timestamp'
p3
aF2.656825065612793
aa(lp4
S'distance'
p5
aF277.29203033447266
aa(lp6
S'state'
p7
aI0
aatp8
Rp9
.ccollections
OrderedDict
p0
((lp1
(lp2
S'timestamp'
p3
aF2.6573469638824463
aa(lp4
S'distance'
p5
aF277.29203033447266
aa(lp6
S'state'
p7
aI0
aatp8
Rp9
.ccollections
OrderedDict
p0
((lp1
(lp2
S'timestamp'
p3
aF2.6674540042877197
aa(lp4
S'distance'
p5
aF277.29203033447266
aa(lp6
S'state'
p7
aI0
aatp8
Rp9
.ccollections
OrderedDict
p0
((lp1
(lp2
S'timestamp'
p3
aF2.6675949096679688
aa(lp4
S'distance'
p5
aF277.29203033447266
aa(lp6
S'state'
p7
aI0
aatp8
Rp9
.ccollections
OrderedDict
p0
((lp1
(lp2
S'timestamp'
p3
aF2.676892042160034
aa(lp4
S'distance'
p5
aF277.29203033447266
aa(lp6
S'state'
p7
aI0
aatp8
Rp9
.ccollections
OrderedDict
p0
((lp1
(lp2
S'timestamp'
p3
aF2.6773979663848877
aa(lp4
S'distance'
p5
aF277.29203033447266
aa(lp6
S'state'
p7
aI0
aatp8
Rp9
.ccollections
OrderedDict
p0
((lp1
(lp2
S'timestamp'
p3
aF2.686915874481201
aa(lp4
S'distance'
p5
aF277.29203033447266
aa(lp6
S'state'
p7
aI0
aatp8
Rp9
.ccollections
OrderedDict
p0
((lp1
(lp2
S'timestamp'
p3
aF2.687695026397705
aa(lp4
S'distance'
p5
aF277.29203033447266
aa(lp6
S'state'
p7
aI0
aatp8
Rp9
.ccollections
OrderedDict
p0
((lp1
(lp2
S'timestamp'
p3
aF2.696899890899658
aa(lp4
S'distance'
p5
aF277.29203033447266
aa(lp6
S'state'
p7
aI0
aatp8
Rp9
.ccollections
OrderedDict
p0
((lp1
(lp2
S'timestamp'
p3
aF2.697371006011963
aa(lp4
S'distance'
p5
aF277.29203033447266
aa(lp6
S'state'
p7
aI0
aatp8
Rp9
.ccollections
OrderedDict
p0
((lp1
(lp2
S'timestamp'
p3
aF2.70660400390625
aa(lp4
S'distance'
p5
aF277.29203033447266
aa(lp6
S'state'
p7
aI0
aatp8
Rp9
.ccollections
OrderedDict
p0
((lp1
(lp2
S'timestamp'
p3
aF2.707237958908081
aa(lp4
S'distance'
p5
aF277.29203033447266
aa(lp6
S'state'
p7
aI0
aatp8
Rp9
.ccollections
OrderedDict
p0
((lp1
(lp2
S'timestamp'
p3
aF2.7166190147399902
aa(lp4
S'distance'
p5
aF277.29203033447266
aa(lp6
S'state'
p7
aI0
aatp8
Rp9
.ccollections
OrderedDict
p0
((lp1
(lp2
S'timestamp'
p3
aF2.7177650928497314
aa(lp4
S'distance'
p5
aF277.29203033447266
aa(lp6
S'state'
p7
aI0
aatp8
Rp9
.ccollections
OrderedDict
p0
((lp1
(lp2
S'timestamp'
p3
aF2.726891040802002
aa(lp4
S'distance'
p5
aF277.29203033447266
aa(lp6
S'state'
p7
aI0
aatp8
Rp9
.ccollections
OrderedDict
p0
((lp1
(lp2
S'timestamp'
p3
aF2.727370023727417
aa(lp4
S'distance'
p5
aF277.29203033447266
aa(lp6
S'state'
p7
aI0
aatp8
Rp9
.ccollections
OrderedDict
p0
((lp1
(lp2
S'timestamp'
p3
aF2.736737012863159
aa(lp4
S'distance'
p5
aF277.29203033447266
aa(lp6
S'state'
p7
aI0
aatp8
Rp9
.ccollections
OrderedDict
p0
((lp1
(lp2
S'timestamp'
p3
aF2.737186908721924
aa(lp4
S'distance'
p5
aF277.29203033447266
aa(lp6
S'state'
p7
aI0
aatp8
Rp9
.ccollections
OrderedDict
p0
((lp1
(lp2
S'timestamp'
p3
aF2.747483968734741
aa(lp4
S'distance'
p5
aF277.29203033447266
aa(lp6
S'state'
p7
aI0
aatp8
Rp9
.ccollections
OrderedDict
p0
((lp1
(lp2
S'timestamp'
p3
aF2.7475950717926025
aa(lp4
S'distance'
p5
aF277.29203033447266
aa(lp6
S'state'
p7
aI0
aatp8
Rp9
.ccollections
OrderedDict
p0
((lp1
(lp2
S'timestamp'
p3
aF2.7566590309143066
aa(lp4
S'distance'
p5
aF277.29203033447266
aa(lp6
S'state'
p7
aI0
aatp8
Rp9
.ccollections
OrderedDict
p0
((lp1
(lp2
S'timestamp'
p3
aF2.7572338581085205
aa(lp4
S'distance'
p5
aF277.29203033447266
aa(lp6
S'state'
p7
aI0
aatp8
Rp9
.ccollections
OrderedDict
p0
((lp1
(lp2
S'timestamp'
p3
aF2.7771589756011963
aa(lp4
S'distance'
p5
aF277.29203033447266
aa(lp6
S'state'
p7
aI0
aatp8
Rp9
.ccollections
OrderedDict
p0
((lp1
(lp2
S'timestamp'
p3
aF2.777492046356201
aa(lp4
S'distance'
p5
aF277.29203033447266
aa(lp6
S'state'
p7
aI0
aatp8
Rp9
.ccollections
OrderedDict
p0
((lp1
(lp2
S'timestamp'
p3
aF2.778203010559082
aa(lp4
S'distance'
p5
aF277.29203033447266
aa(lp6
S'state'
p7
aI0
aatp8
Rp9
.ccollections
OrderedDict
p0
((lp1
(lp2
S'timestamp'
p3
aF2.7787840366363525
aa(lp4
S'distance'
p5
aF277.29203033447266
aa(lp6
S'state'
p7
aI0
aatp8
Rp9
.ccollections
OrderedDict
p0
((lp1
(lp2
S'timestamp'
p3
aF2.786839008331299
aa(lp4
S'distance'
p5
aF277.29203033447266
aa(lp6
S'state'
p7
aI0
aatp8
Rp9
.ccollections
OrderedDict
p0
((lp1
(lp2
S'timestamp'
p3
aF2.7873899936676025
aa(lp4
S'distance'
p5
aF277.29203033447266
aa(lp6
S'state'
p7
aI0
aatp8
Rp9
.ccollections
OrderedDict
p0
((lp1
(lp2
S'timestamp'
p3
aF2.7968430519104004
aa(lp4
S'distance'
p5
aF277.29203033447266
aa(lp6
S'state'
p7
aI0
aatp8
Rp9
.ccollections
OrderedDict
p0
((lp1
(lp2
S'timestamp'
p3
aF2.797363042831421
aa(lp4
S'distance'
p5
aF277.29203033447266
aa(lp6
S'state'
p7
aI0
aatp8
Rp9
.ccollections
OrderedDict
p0
((lp1
(lp2
S'timestamp'
p3
aF2.806575059890747
aa(lp4
S'distance'
p5
aF277.29203033447266
aa(lp6
S'state'
p7
aI0
aatp8
Rp9
.ccollections
OrderedDict
p0
((lp1
(lp2
S'timestamp'
p3
aF2.807547092437744
aa(lp4
S'distance'
p5
aF277.29203033447266
aa(lp6
S'state'
p7
aI0
aatp8
Rp9
.ccollections
OrderedDict
p0
((lp1
(lp2
S'timestamp'
p3
aF2.817125082015991
aa(lp4
S'distance'
p5
aF277.29203033447266
aa(lp6
S'state'
p7
aI0
aatp8
Rp9
.ccollections
OrderedDict
p0
((lp1
(lp2
S'timestamp'
p3
aF2.8175530433654785
aa(lp4
S'distance'
p5
aF277.29203033447266
aa(lp6
S'state'
p7
aI0
aatp8
Rp9
.ccollections
OrderedDict
p0
((lp1
(lp2
S'timestamp'
p3
aF2.827225923538208
aa(lp4
S'distance'
p5
aF277.29203033447266
aa(lp6
S'state'
p7
aI0
aatp8
Rp9
.ccollections
OrderedDict
p0
((lp1
(lp2
S'timestamp'
p3
aF2.8274030685424805
aa(lp4
S'distance'
p5
aF277.29203033447266
aa(lp6
S'state'
p7
aI0
aatp8
Rp9
.ccollections
OrderedDict
p0
((lp1
(lp2
S'timestamp'
p3
aF2.8367879390716553
aa(lp4
S'distance'
p5
aF277.29203033447266
aa(lp6
S'state'
p7
aI0
aatp8
Rp9
.ccollections
OrderedDict
p0
((lp1
(lp2
S'timestamp'
p3
aF2.8372840881347656
aa(lp4
S'distance'
p5
aF277.29203033447266
aa(lp6
S'state'
p7
aI0
aatp8
Rp9
.ccollections
OrderedDict
p0
((lp1
(lp2
S'timestamp'
p3
aF2.846627950668335
aa(lp4
S'distance'
p5
aF277.29203033447266
aa(lp6
S'state'
p7
aI0
aatp8
Rp9
.ccollections
OrderedDict
p0
((lp1
(lp2
S'timestamp'
p3
aF2.847343921661377
aa(lp4
S'distance'
p5
aF277.29203033447266
aa(lp6
S'state'
p7
aI0
aatp8
Rp9
.ccollections
OrderedDict
p0
((lp1
(lp2
S'timestamp'
p3
aF2.856656074523926
aa(lp4
S'distance'
p5
aF277.29203033447266
aa(lp6
S'state'
p7
aI0
aatp8
Rp9
.ccollections
OrderedDict
p0
((lp1
(lp2
S'timestamp'
p3
aF2.8571949005126953
aa(lp4
S'distance'
p5
aF277.29203033447266
aa(lp6
S'state'
p7
aI0
aatp8
Rp9
.ccollections
OrderedDict
p0
((lp1
(lp2
S'timestamp'
p3
aF2.8666648864746094
aa(lp4
S'distance'
p5
aF277.29203033447266
aa(lp6
S'state'
p7
aI0
aatp8
Rp9
.ccollections
OrderedDict
p0
((lp1
(lp2
S'timestamp'
p3
aF2.867393970489502
aa(lp4
S'distance'
p5
aF277.29203033447266
aa(lp6
S'state'
p7
aI400
aatp8
Rp9
.ccollections
OrderedDict
p0
((lp1
(lp2
S'timestamp'
p3
aF2.8765649795532227
aa(lp4
S'distance'
p5
aF277.29203033447266
aa(lp6
S'state'
p7
aI400
aatp8
Rp9
.ccollections
OrderedDict
p0
((lp1
(lp2
S'timestamp'
p3
aF2.877274990081787
aa(lp4
S'distance'
p5
aF277.29203033447266
aa(lp6
S'state'
p7
aI400
aatp8
Rp9
.ccollections
OrderedDict
p0
((lp1
(lp2
S'timestamp'
p3
aF2.886833906173706
aa(lp4
S'distance'
p5
aF277.29203033447266
aa(lp6
S'state'
p7
aI400
aatp8
Rp9
.ccollections
OrderedDict
p0
((lp1
(lp2
S'timestamp'
p3
aF2.8873889446258545
aa(lp4
S'distance'
p5
aF277.29203033447266
aa(lp6
S'state'
p7
aI400
aatp8
Rp9
.ccollections
OrderedDict
p0
((lp1
(lp2
S'timestamp'
p3
aF2.8980650901794434
aa(lp4
S'distance'
p5
aF277.29203033447266
aa(lp6
S'state'
p7
aI400
aatp8
Rp9
.ccollections
OrderedDict
p0
((lp1
(lp2
S'timestamp'
p3
aF2.8988759517669678
aa(lp4
S'distance'
p5
aF277.29203033447266
aa(lp6
S'state'
p7
aI400
aatp8
Rp9
.ccollections
OrderedDict
p0
((lp1
(lp2
S'timestamp'
p3
aF2.907449960708618
aa(lp4
S'distance'
p5
aF277.29203033447266
aa(lp6
S'state'
p7
aI400
aatp8
Rp9
.ccollections
OrderedDict
p0
((lp1
(lp2
S'timestamp'
p3
aF2.907829999923706
aa(lp4
S'distance'
p5
aF277.29203033447266
aa(lp6
S'state'
p7
aI400
aatp8
Rp9
.ccollections
OrderedDict
p0
((lp1
(lp2
S'timestamp'
p3
aF2.917085886001587
aa(lp4
S'distance'
p5
aF277.29203033447266
aa(lp6
S'state'
p7
aI400
aatp8
Rp9
.ccollections
OrderedDict
p0
((lp1
(lp2
S'timestamp'
p3
aF2.9268510341644287
aa(lp4
S'distance'
p5
aF277.29203033447266
aa(lp6
S'state'
p7
aI400
aatp8
Rp9
.ccollections
OrderedDict
p0
((lp1
(lp2
S'timestamp'
p3
aF2.927561044692993
aa(lp4
S'distance'
p5
aF277.29203033447266
aa(lp6
S'state'
p7
aI400
aatp8
Rp9
.ccollections
OrderedDict
p0
((lp1
(lp2
S'timestamp'
p3
aF2.928464889526367
aa(lp4
S'distance'
p5
aF277.29203033447266
aa(lp6
S'state'
p7
aI400
aatp8
Rp9
.ccollections
OrderedDict
p0
((lp1
(lp2
S'timestamp'
p3
aF2.9366369247436523
aa(lp4
S'distance'
p5
aF277.29203033447266
aa(lp6
S'state'
p7
aI400
aatp8
Rp9
.ccollections
OrderedDict
p0
((lp1
(lp2
S'timestamp'
p3
aF2.9383480548858643
aa(lp4
S'distance'
p5
aF277.29203033447266
aa(lp6
S'state'
p7
aI400
aatp8
Rp9
.ccollections
OrderedDict
p0
((lp1
(lp2
S'timestamp'
p3
aF2.9468319416046143
aa(lp4
S'distance'
p5
aF277.29203033447266
aa(lp6
S'state'
p7
aI400
aatp8
Rp9
.ccollections
OrderedDict
p0
((lp1
(lp2
S'timestamp'
p3
aF2.9473369121551514
aa(lp4
S'distance'
p5
aF277.29203033447266
aa(lp6
S'state'
p7
aI400
aatp8
Rp9
.ccollections
OrderedDict
p0
((lp1
(lp2
S'timestamp'
p3
aF2.9565529823303223
aa(lp4
S'distance'
p5
aF277.29203033447266
aa(lp6
S'state'
p7
aI400
aatp8
Rp9
.ccollections
OrderedDict
p0
((lp1
(lp2
S'timestamp'
p3
aF2.9573819637298584
aa(lp4
S'distance'
p5
aF277.29203033447266
aa(lp6
S'state'
p7
aI400
aatp8
Rp9
.ccollections
OrderedDict
p0
((lp1
(lp2
S'timestamp'
p3
aF2.9665398597717285
aa(lp4
S'distance'
p5
aF277.29203033447266
aa(lp6
S'state'
p7
aI400
aatp8
Rp9
.ccollections
OrderedDict
p0
((lp1
(lp2
S'timestamp'
p3
aF2.967555046081543
aa(lp4
S'distance'
p5
aF277.29203033447266
aa(lp6
S'state'
p7
aI400
aatp8
Rp9
.ccollections
OrderedDict
p0
((lp1
(lp2
S'timestamp'
p3
aF2.9768478870391846
aa(lp4
S'distance'
p5
aF277.29203033447266
aa(lp6
S'state'
p7
aI400
aatp8
Rp9
.ccollections
OrderedDict
p0
((lp1
(lp2
S'timestamp'
p3
aF2.977379083633423
aa(lp4
S'distance'
p5
aF277.29203033447266
aa(lp6
S'state'
p7
aI400
aatp8
Rp9
.ccollections
OrderedDict
p0
((lp1
(lp2
S'timestamp'
p3
aF2.986983060836792
aa(lp4
S'distance'
p5
aF277.29203033447266
aa(lp6
S'state'
p7
aI400
aatp8
Rp9
.ccollections
OrderedDict
p0
((lp1
(lp2
S'timestamp'
p3
aF2.9876420497894287
aa(lp4
S'distance'
p5
aF277.29203033447266
aa(lp6
S'state'
p7
aI400
aatp8
Rp9
.ccollections
OrderedDict
p0
((lp1
(lp2
S'timestamp'
p3
aF2.996973991394043
aa(lp4
S'distance'
p5
aF277.29203033447266
aa(lp6
S'state'
p7
aI400
aatp8
Rp9
.ccollections
OrderedDict
p0
((lp1
(lp2
S'timestamp'
p3
aF2.997504949569702
aa(lp4
S'distance'
p5
aF277.29203033447266
aa(lp6
S'state'
p7
aI400
aatp8
Rp9
.ccollections
OrderedDict
p0
((lp1
(lp2
S'timestamp'
p3
aF3.0065550804138184
aa(lp4
S'distance'
p5
aF277.29203033447266
aa(lp6
S'state'
p7
aI400
aatp8
Rp9
.ccollections
OrderedDict
p0
((lp1
(lp2
S'timestamp'
p3
aF3.0078248977661133
aa(lp4
S'distance'
p5
aF277.29203033447266
aa(lp6
S'state'
p7
aI400
aatp8
Rp9
.ccollections
OrderedDict
p0
((lp1
(lp2
S'timestamp'
p3
aF3.0169129371643066
aa(lp4
S'distance'
p5
aF277.29203033447266
aa(lp6
S'state'
p7
aI400
aatp8
Rp9
.ccollections
OrderedDict
p0
((lp1
(lp2
S'timestamp'
p3
aF3.0176360607147217
aa(lp4
S'distance'
p5
aF277.29203033447266
aa(lp6
S'state'
p7
aI400
aatp8
Rp9
.ccollections
OrderedDict
p0
((lp1
(lp2
S'timestamp'
p3
aF3.0268239974975586
aa(lp4
S'distance'
p5
aF277.29203033447266
aa(lp6
S'state'
p7
aI400
aatp8
Rp9
.ccollections
OrderedDict
p0
((lp1
(lp2
S'timestamp'
p3
aF3.0276010036468506
aa(lp4
S'distance'
p5
aF277.29203033447266
aa(lp6
S'state'
p7
aI400
aatp8
Rp9
.ccollections
OrderedDict
p0
((lp1
(lp2
S'timestamp'
p3
aF3.036494016647339
aa(lp4
S'distance'
p5
aF277.29203033447266
aa(lp6
S'state'
p7
aI400
aatp8
Rp9
.ccollections
OrderedDict
p0
((lp1
(lp2
S'timestamp'
p3
aF3.0371880531311035
aa(lp4
S'distance'
p5
aF277.29203033447266
aa(lp6
S'state'
p7
aI400
aatp8
Rp9
.ccollections
OrderedDict
p0
((lp1
(lp2
S'timestamp'
p3
aF3.0464909076690674
aa(lp4
S'distance'
p5
aF277.29203033447266
aa(lp6
S'state'
p7
aI400
aatp8
Rp9
.ccollections
OrderedDict
p0
((lp1
(lp2
S'timestamp'
p3
aF3.047231912612915
aa(lp4
S'distance'
p5
aF277.29203033447266
aa(lp6
S'state'
p7
aI400
aatp8
Rp9
.ccollections
OrderedDict
p0
((lp1
(lp2
S'timestamp'
p3
aF3.056731939315796
aa(lp4
S'distance'
p5
aF277.29203033447266
aa(lp6
S'state'
p7
aI400
aatp8
Rp9
.ccollections
OrderedDict
p0
((lp1
(lp2
S'timestamp'
p3
aF3.057281970977783
aa(lp4
S'distance'
p5
aF277.29203033447266
aa(lp6
S'state'
p7
aI400
aatp8
Rp9
.ccollections
OrderedDict
p0
((lp1
(lp2
S'timestamp'
p3
aF3.066725015640259
aa(lp4
S'distance'
p5
aF277.29203033447266
aa(lp6
S'state'
p7
aI400
aatp8
Rp9
.ccollections
OrderedDict
p0
((lp1
(lp2
S'timestamp'
p3
aF3.0673789978027344
aa(lp4
S'distance'
p5
aF277.29203033447266
aa(lp6
S'state'
p7
aI400
aatp8
Rp9
.ccollections
OrderedDict
p0
((lp1
(lp2
S'timestamp'
p3
aF3.0768110752105713
aa(lp4
S'distance'
p5
aF277.29203033447266
aa(lp6
S'state'
p7
aI400
aatp8
Rp9
.ccollections
OrderedDict
p0
((lp1
(lp2
S'timestamp'
p3
aF3.078613042831421
aa(lp4
S'distance'
p5
aF277.29203033447266
aa(lp6
S'state'
p7
aI400
aatp8
Rp9
.ccollections
OrderedDict
p0
((lp1
(lp2
S'timestamp'
p3
aF3.08656907081604
aa(lp4
S'distance'
p5
aF277.29203033447266
aa(lp6
S'state'
p7
aI400
aatp8
Rp9
.ccollections
OrderedDict
p0
((lp1
(lp2
S'timestamp'
p3
aF3.087501049041748
aa(lp4
S'distance'
p5
aF277.29203033447266
aa(lp6
S'state'
p7
aI400
aatp8
Rp9
.ccollections
OrderedDict
p0
((lp1
(lp2
S'timestamp'
p3
aF3.0967390537261963
aa(lp4
S'distance'
p5
aF277.29203033447266
aa(lp6
S'state'
p7
aI400
aatp8
Rp9
.ccollections
OrderedDict
p0
((lp1
(lp2
S'timestamp'
p3
aF3.0973079204559326
aa(lp4
S'distance'
p5
aF277.29203033447266
aa(lp6
S'state'
p7
aI400
aatp8
Rp9
.ccollections
OrderedDict
p0
((lp1
(lp2
S'timestamp'
p3
aF3.106924057006836
aa(lp4
S'distance'
p5
aF277.29203033447266
aa(lp6
S'state'
p7
aI400
aatp8
Rp9
.ccollections
OrderedDict
p0
((lp1
(lp2
S'timestamp'
p3
aF3.1073338985443115
aa(lp4
S'distance'
p5
aF277.29203033447266
aa(lp6
S'state'
p7
aI400
aatp8
Rp9
.ccollections
OrderedDict
p0
((lp1
(lp2
S'timestamp'
p3
aF3.1171820163726807
aa(lp4
S'distance'
p5
aF277.29203033447266
aa(lp6
S'state'
p7
aI400
aatp8
Rp9
.ccollections
OrderedDict
p0
((lp1
(lp2
S'timestamp'
p3
aF3.1180579662323
aa(lp4
S'distance'
p5
aF277.29203033447266
aa(lp6
S'state'
p7
aI400
aatp8
Rp9
.ccollections
OrderedDict
p0
((lp1
(lp2
S'timestamp'
p3
aF3.1265299320220947
aa(lp4
S'distance'
p5
aF277.29203033447266
aa(lp6
S'state'
p7
aI400
aatp8
Rp9
.ccollections
OrderedDict
p0
((lp1
(lp2
S'timestamp'
p3
aF3.127331018447876
aa(lp4
S'distance'
p5
aF277.29203033447266
aa(lp6
S'state'
p7
aI400
aatp8
Rp9
.ccollections
OrderedDict
p0
((lp1
(lp2
S'timestamp'
p3
aF3.1366219520568848
aa(lp4
S'distance'
p5
aF277.29203033447266
aa(lp6
S'state'
p7
aI400
aatp8
Rp9
.ccollections
OrderedDict
p0
((lp1
(lp2
S'timestamp'
p3
aF3.1374380588531494
aa(lp4
S'distance'
p5
aF277.29203033447266
aa(lp6
S'state'
p7
aI400
aatp8
Rp9
.ccollections
OrderedDict
p0
((lp1
(lp2
S'timestamp'
p3
aF3.1466469764709473
aa(lp4
S'distance'
p5
aF277.29203033447266
aa(lp6
S'state'
p7
aI400
aatp8
Rp9
.ccollections
OrderedDict
p0
((lp1
(lp2
S'timestamp'
p3
aF3.147310972213745
aa(lp4
S'distance'
p5
aF277.29203033447266
aa(lp6
S'state'
p7
aI400
aatp8
Rp9
.ccollections
OrderedDict
p0
((lp1
(lp2
S'timestamp'
p3
aF3.1564879417419434
aa(lp4
S'distance'
p5
aF277.29203033447266
aa(lp6
S'state'
p7
aI400
aatp8
Rp9
.ccollections
OrderedDict
p0
((lp1
(lp2
S'timestamp'
p3
aF3.1572818756103516
aa(lp4
S'distance'
p5
aF277.29203033447266
aa(lp6
S'state'
p7
aI400
aatp8
Rp9
.ccollections
OrderedDict
p0
((lp1
(lp2
S'timestamp'
p3
aF3.1765639781951904
aa(lp4
S'distance'
p5
aF277.29203033447266
aa(lp6
S'state'
p7
aI400
aatp8
Rp9
.ccollections
OrderedDict
p0
((lp1
(lp2
S'timestamp'
p3
aF3.1775219440460205
aa(lp4
S'distance'
p5
aF277.29203033447266
aa(lp6
S'state'
p7
aI400
aatp8
Rp9
.ccollections
OrderedDict
p0
((lp1
(lp2
S'timestamp'
p3
aF3.1785290241241455
aa(lp4
S'distance'
p5
aF277.29203033447266
aa(lp6
S'state'
p7
aI400
aatp8
Rp9
.ccollections
OrderedDict
p0
((lp1
(lp2
S'timestamp'
p3
aF3.1787750720977783
aa(lp4
S'distance'
p5
aF277.29203033447266
aa(lp6
S'state'
p7
aI400
aatp8
Rp9
.ccollections
OrderedDict
p0
((lp1
(lp2
S'timestamp'
p3
aF3.186697006225586
aa(lp4
S'distance'
p5
aF277.29203033447266
aa(lp6
S'state'
p7
aI400
aatp8
Rp9
.ccollections
OrderedDict
p0
((lp1
(lp2
S'timestamp'
p3
aF3.187479019165039
aa(lp4
S'distance'
p5
aF277.29203033447266
aa(lp6
S'state'
p7
aI400
aatp8
Rp9
.ccollections
OrderedDict
p0
((lp1
(lp2
S'timestamp'
p3
aF3.1965200901031494
aa(lp4
S'distance'
p5
aF277.29203033447266
aa(lp6
S'state'
p7
aI400
aatp8
Rp9
.ccollections
OrderedDict
p0
((lp1
(lp2
S'timestamp'
p3
aF3.19724702835083
aa(lp4
S'distance'
p5
aF277.29203033447266
aa(lp6
S'state'
p7
aI400
aatp8
Rp9
.ccollections
OrderedDict
p0
((lp1
(lp2
S'timestamp'
p3
aF3.206510066986084
aa(lp4
S'distance'
p5
aF277.29203033447266
aa(lp6
S'state'
p7
aI400
aatp8
Rp9
.ccollections
OrderedDict
p0
((lp1
(lp2
S'timestamp'
p3
aF3.207284927368164
aa(lp4
S'distance'
p5
aF277.29203033447266
aa(lp6
S'state'
p7
aI400
aatp8
Rp9
.ccollections
OrderedDict
p0
((lp1
(lp2
S'timestamp'
p3
aF3.2164859771728516
aa(lp4
S'distance'
p5
aF277.29203033447266
aa(lp6
S'state'
p7
aI400
aatp8
Rp9
.ccollections
OrderedDict
p0
((lp1
(lp2
S'timestamp'
p3
aF3.2174460887908936
aa(lp4
S'distance'
p5
aF277.29203033447266
aa(lp6
S'state'
p7
aI400
aatp8
Rp9
.ccollections
OrderedDict
p0
((lp1
(lp2
S'timestamp'
p3
aF3.2269668579101562
aa(lp4
S'distance'
p5
aF277.29203033447266
aa(lp6
S'state'
p7
aI400
aatp8
Rp9
.ccollections
OrderedDict
p0
((lp1
(lp2
S'timestamp'
p3
aF3.2272400856018066
aa(lp4
S'distance'
p5
aF277.29203033447266
aa(lp6
S'state'
p7
aI400
aatp8
Rp9
.ccollections
OrderedDict
p0
((lp1
(lp2
S'timestamp'
p3
aF3.2364420890808105
aa(lp4
S'distance'
p5
aF277.29203033447266
aa(lp6
S'state'
p7
aI400
aatp8
Rp9
.ccollections
OrderedDict
p0
((lp1
(lp2
S'timestamp'
p3
aF3.237133026123047
aa(lp4
S'distance'
p5
aF277.29203033447266
aa(lp6
S'state'
p7
aI400
aatp8
Rp9
.ccollections
OrderedDict
p0
((lp1
(lp2
S'timestamp'
p3
aF3.2466089725494385
aa(lp4
S'distance'
p5
aF277.29203033447266
aa(lp6
S'state'
p7
aI400
aatp8
Rp9
.ccollections
OrderedDict
p0
((lp1
(lp2
S'timestamp'
p3
aF3.247269868850708
aa(lp4
S'distance'
p5
aF277.29203033447266
aa(lp6
S'state'
p7
aI400
aatp8
Rp9
.ccollections
OrderedDict
p0
((lp1
(lp2
S'timestamp'
p3
aF3.2565078735351562
aa(lp4
S'distance'
p5
aF277.29203033447266
aa(lp6
S'state'
p7
aI400
aatp8
Rp9
.ccollections
OrderedDict
p0
((lp1
(lp2
S'timestamp'
p3
aF3.2573320865631104
aa(lp4
S'distance'
p5
aF277.29203033447266
aa(lp6
S'state'
p7
aI400
aatp8
Rp9
.ccollections
OrderedDict
p0
((lp1
(lp2
S'timestamp'
p3
aF3.2768828868865967
aa(lp4
S'distance'
p5
aF277.29203033447266
aa(lp6
S'state'
p7
aI400
aatp8
Rp9
.ccollections
OrderedDict
p0
((lp1
(lp2
S'timestamp'
p3
aF3.277674913406372
aa(lp4
S'distance'
p5
aF277.29203033447266
aa(lp6
S'state'
p7
aI400
aatp8
Rp9
.ccollections
OrderedDict
p0
((lp1
(lp2
S'timestamp'
p3
aF3.2778918743133545
aa(lp4
S'distance'
p5
aF277.29203033447266
aa(lp6
S'state'
p7
aI400
aatp8
Rp9
.ccollections
OrderedDict
p0
((lp1
(lp2
S'timestamp'
p3
aF3.2787110805511475
aa(lp4
S'distance'
p5
aF277.29203033447266
aa(lp6
S'state'
p7
aI400
aatp8
Rp9
.ccollections
OrderedDict
p0
((lp1
(lp2
S'timestamp'
p3
aF3.2965610027313232
aa(lp4
S'distance'
p5
aF277.29203033447266
aa(lp6
S'state'
p7
aI400
aatp8
Rp9
.ccollections
OrderedDict
p0
((lp1
(lp2
S'timestamp'
p3
aF3.2973990440368652
aa(lp4
S'distance'
p5
aF277.29203033447266
aa(lp6
S'state'
p7
aI400
aatp8
Rp9
.ccollections
OrderedDict
p0
((lp1
(lp2
S'timestamp'
p3
aF3.2975969314575195
aa(lp4
S'distance'
p5
aF277.29203033447266
aa(lp6
S'state'
p7
aI400
aatp8
Rp9
.ccollections
OrderedDict
p0
((lp1
(lp2
S'timestamp'
p3
aF3.2986700534820557
aa(lp4
S'distance'
p5
aF277.29203033447266
aa(lp6
S'state'
p7
aI400
aatp8
Rp9
.ccollections
OrderedDict
p0
((lp1
(lp2
S'timestamp'
p3
aF3.306536912918091
aa(lp4
S'distance'
p5
aF277.29203033447266
aa(lp6
S'state'
p7
aI400
aatp8
Rp9
.ccollections
OrderedDict
p0
((lp1
(lp2
S'timestamp'
p3
aF3.307255983352661
aa(lp4
S'distance'
p5
aF277.29203033447266
aa(lp6
S'state'
p7
aI400
aatp8
Rp9
.ccollections
OrderedDict
p0
((lp1
(lp2
S'timestamp'
p3
aF3.3167049884796143
aa(lp4
S'distance'
p5
aF277.29203033447266
aa(lp6
S'state'
p7
aI400
aatp8
Rp9
.ccollections
OrderedDict
p0
((lp1
(lp2
S'timestamp'
p3
aF3.3171639442443848
aa(lp4
S'distance'
p5
aF277.29203033447266
aa(lp6
S'state'
p7
aI400
aatp8
Rp9
.ccollections
OrderedDict
p0
((lp1
(lp2
S'timestamp'
p3
aF3.3269588947296143
aa(lp4
S'distance'
p5
aF277.29203033447266
aa(lp6
S'state'
p7
aI400
aatp8
Rp9
.ccollections
OrderedDict
p0
((lp1
(lp2
S'timestamp'
p3
aF3.32759690284729
aa(lp4
S'distance'
p5
aF277.29203033447266
aa(lp6
S'state'
p7
aI400
aatp8
Rp9
.ccollections
OrderedDict
p0
((lp1
(lp2
S'timestamp'
p3
aF3.3380379676818848
aa(lp4
S'distance'
p5
aF277.29203033447266
aa(lp6
S'state'
p7
aI400
aatp8
Rp9
.ccollections
OrderedDict
p0
((lp1
(lp2
S'timestamp'
p3
aF3.3391079902648926
aa(lp4
S'distance'
p5
aF277.29203033447266
aa(lp6
S'state'
p7
aI400
aatp8
Rp9
.ccollections
OrderedDict
p0
((lp1
(lp2
S'timestamp'
p3
aF3.3464369773864746
aa(lp4
S'distance'
p5
aF277.29203033447266
aa(lp6
S'state'
p7
aI400
aatp8
Rp9
.ccollections
OrderedDict
p0
((lp1
(lp2
S'timestamp'
p3
aF3.3472089767456055
aa(lp4
S'distance'
p5
aF277.29203033447266
aa(lp6
S'state'
p7
aI400
aatp8
Rp9
.ccollections
OrderedDict
p0
((lp1
(lp2
S'timestamp'
p3
aF3.356606960296631
aa(lp4
S'distance'
p5
aF277.29203033447266
aa(lp6
S'state'
p7
aI400
aatp8
Rp9
.ccollections
OrderedDict
p0
((lp1
(lp2
S'timestamp'
p3
aF3.3572120666503906
aa(lp4
S'distance'
p5
aF277.29203033447266
aa(lp6
S'state'
p7
aI400
aatp8
Rp9
.ccollections
OrderedDict
p0
((lp1
(lp2
S'timestamp'
p3
aF3.3665549755096436
aa(lp4
S'distance'
p5
aF277.29203033447266
aa(lp6
S'state'
p7
aI400
aatp8
Rp9
.ccollections
OrderedDict
p0
((lp1
(lp2
S'timestamp'
p3
aF3.36718487739563
aa(lp4
S'distance'
p5
aF277.29203033447266
aa(lp6
S'state'
p7
aI400
aatp8
Rp9
.ccollections
OrderedDict
p0
((lp1
(lp2
S'timestamp'
p3
aF3.3764679431915283
aa(lp4
S'distance'
p5
aF277.29203033447266
aa(lp6
S'state'
p7
aI400
aatp8
Rp9
.ccollections
OrderedDict
p0
((lp1
(lp2
S'timestamp'
p3
aF3.3773908615112305
aa(lp4
S'distance'
p5
aF277.29203033447266
aa(lp6
S'state'
p7
aI400
aatp8
Rp9
.ccollections
OrderedDict
p0
((lp1
(lp2
S'timestamp'
p3
aF3.386496067047119
aa(lp4
S'distance'
p5
aF277.29203033447266
aa(lp6
S'state'
p7
aI400
aatp8
Rp9
.ccollections
OrderedDict
p0
((lp1
(lp2
S'timestamp'
p3
aF3.387326955795288
aa(lp4
S'distance'
p5
aF277.29203033447266
aa(lp6
S'state'
p7
aI400
aatp8
Rp9
.ccollections
OrderedDict
p0
((lp1
(lp2
S'timestamp'
p3
aF3.396955966949463
aa(lp4
S'distance'
p5
aF277.29203033447266
aa(lp6
S'state'
p7
aI400
aatp8
Rp9
.ccollections
OrderedDict
p0
((lp1
(lp2
S'timestamp'
p3
aF3.3971199989318848
aa(lp4
S'distance'
p5
aF277.29203033447266
aa(lp6
S'state'
p7
aI400
aatp8
Rp9
.ccollections
OrderedDict
p0
((lp1
(lp2
S'timestamp'
p3
aF3.416435956954956
aa(lp4
S'distance'
p5
aF277.29203033447266
aa(lp6
S'state'
p7
aI400
aatp8
Rp9
.ccollections
OrderedDict
p0
((lp1
(lp2
S'timestamp'
p3
aF3.4171860218048096
aa(lp4
S'distance'
p5
aF277.29203033447266
aa(lp6
S'state'
p7
aI400
aatp8
Rp9
.ccollections
OrderedDict
p0
((lp1
(lp2
S'timestamp'
p3
aF3.4185168743133545
aa(lp4
S'distance'
p5
aF277.29203033447266
aa(lp6
S'state'
p7
aI400
aatp8
Rp9
.ccollections
OrderedDict
p0
((lp1
(lp2
S'timestamp'
p3
aF3.418596029281616
aa(lp4
S'distance'
p5
aF277.29203033447266
aa(lp6
S'state'
p7
aI400
aatp8
Rp9
.ccollections
OrderedDict
p0
((lp1
(lp2
S'timestamp'
p3
aF3.426403045654297
aa(lp4
S'distance'
p5
aF277.29203033447266
aa(lp6
S'state'
p7
aI400
aatp8
Rp9
.ccollections
OrderedDict
p0
((lp1
(lp2
S'timestamp'
p3
aF3.427340030670166
aa(lp4
S'distance'
p5
aF277.29203033447266
aa(lp6
S'state'
p7
aI400
aatp8
Rp9
.ccollections
OrderedDict
p0
((lp1
(lp2
S'timestamp'
p3
aF3.437062978744507
aa(lp4
S'distance'
p5
aF277.29203033447266
aa(lp6
S'state'
p7
aI0
aatp8
Rp9
.ccollections
OrderedDict
p0
((lp1
(lp2
S'timestamp'
p3
aF4.008615970611572
aa(lp4
S'distance'
p5
aF174.14897918701172
aa(lp6
S'state'
p7
aI0
aatp8
Rp9
.ccollections
OrderedDict
p0
((lp1
(lp2
S'timestamp'
p3
aF4.0168678760528564
aa(lp4
S'distance'
p5
aF174.14897918701172
aa(lp6
S'state'
p7
aI0
aatp8
Rp9
.ccollections
OrderedDict
p0
((lp1
(lp2
S'timestamp'
p3
aF4.01823091506958
aa(lp4
S'distance'
p5
aF174.14897918701172
aa(lp6
S'state'
p7
aI0
aatp8
Rp9
.ccollections
OrderedDict
p0
((lp1
(lp2
S'timestamp'
p3
aF4.026849031448364
aa(lp4
S'distance'
p5
aF174.14897918701172
aa(lp6
S'state'
p7
aI0
aatp8
Rp9
.ccollections
OrderedDict
p0
((lp1
(lp2
S'timestamp'
p3
aF4.036920070648193
aa(lp4
S'distance'
p5
aF174.14897918701172
aa(lp6
S'state'
p7
aI0
aatp8
Rp9
.ccollections
OrderedDict
p0
((lp1
(lp2
S'timestamp'
p3
aF4.037569999694824
aa(lp4
S'distance'
p5
aF174.14897918701172
aa(lp6
S'state'
p7
aI0
aatp8
Rp9
.ccollections
OrderedDict
p0
((lp1
(lp2
S'timestamp'
p3
aF4.038045883178711
aa(lp4
S'distance'
p5
aF174.14897918701172
aa(lp6
S'state'
p7
aI0
aatp8
Rp9
.ccollections
OrderedDict
p0
((lp1
(lp2
S'timestamp'
p3
aF4.04703688621521
aa(lp4
S'distance'
p5
aF174.14897918701172
aa(lp6
S'state'
p7
aI0
aatp8
Rp9
.ccollections
OrderedDict
p0
((lp1
(lp2
S'timestamp'
p3
aF4.047183036804199
aa(lp4
S'distance'
p5
aF174.14897918701172
aa(lp6
S'state'
p7
aI0
aatp8
Rp9
.ccollections
OrderedDict
p0
((lp1
(lp2
S'timestamp'
p3
aF4.05705189704895
aa(lp4
S'distance'
p5
aF174.14897918701172
aa(lp6
S'state'
p7
aI0
aatp8
Rp9
.ccollections
OrderedDict
p0
((lp1
(lp2
S'timestamp'
p3
aF4.0571959018707275
aa(lp4
S'distance'
p5
aF174.14897918701172
aa(lp6
S'state'
p7
aI0
aatp8
Rp9
.ccollections
OrderedDict
p0
((lp1
(lp2
S'timestamp'
p3
aF4.066704034805298
aa(lp4
S'distance'
p5
aF174.14897918701172
aa(lp6
S'state'
p7
aI0
aatp8
Rp9
.ccollections
OrderedDict
p0
((lp1
(lp2
S'timestamp'
p3
aF4.067702054977417
aa(lp4
S'distance'
p5
aF174.14897918701172
aa(lp6
S'state'
p7
aI0
aatp8
Rp9
.ccollections
OrderedDict
p0
((lp1
(lp2
S'timestamp'
p3
aF4.07751989364624
aa(lp4
S'distance'
p5
aF174.14897918701172
aa(lp6
S'state'
p7
aI0
aatp8
Rp9
.ccollections
OrderedDict
p0
((lp1
(lp2
S'timestamp'
p3
aF4.077800989151001
aa(lp4
S'distance'
p5
aF174.14897918701172
aa(lp6
S'state'
p7
aI0
aatp8
Rp9
.ccollections
OrderedDict
p0
((lp1
(lp2
S'timestamp'
p3
aF4.087898015975952
aa(lp4
S'distance'
p5
aF174.14897918701172
aa(lp6
S'state'
p7
aI0
aatp8
Rp9
.ccollections
OrderedDict
p0
((lp1
(lp2
S'timestamp'
p3
aF4.0885329246521
aa(lp4
S'distance'
p5
aF174.14897918701172
aa(lp6
S'state'
p7
aI0
aatp8
Rp9
.ccollections
OrderedDict
p0
((lp1
(lp2
S'timestamp'
p3
aF4.098075866699219
aa(lp4
S'distance'
p5
aF174.14897918701172
aa(lp6
S'state'
p7
aI0
aatp8
Rp9
.ccollections
OrderedDict
p0
((lp1
(lp2
S'timestamp'
p3
aF4.0986008644104
aa(lp4
S'distance'
p5
aF174.14897918701172
aa(lp6
S'state'
p7
aI0
aatp8
Rp9
.ccollections
OrderedDict
p0
((lp1
(lp2
S'timestamp'
p3
aF4.106985092163086
aa(lp4
S'distance'
p5
aF174.14897918701172
aa(lp6
S'state'
p7
aI0
aatp8
Rp9
.ccollections
OrderedDict
p0
((lp1
(lp2
S'timestamp'
p3
aF4.107228994369507
aa(lp4
S'distance'
p5
aF174.14897918701172
aa(lp6
S'state'
p7
aI0
aatp8
Rp9
.ccollections
OrderedDict
p0
((lp1
(lp2
S'timestamp'
p3
aF4.118066072463989
aa(lp4
S'distance'
p5
aF174.14897918701172
aa(lp6
S'state'
p7
aI0
aatp8
Rp9
.ccollections
OrderedDict
p0
((lp1
(lp2
S'timestamp'
p3
aF4.118638038635254
aa(lp4
S'distance'
p5
aF174.14897918701172
aa(lp6
S'state'
p7
aI0
aatp8
Rp9
.ccollections
OrderedDict
p0
((lp1
(lp2
S'timestamp'
p3
aF4.127158880233765
aa(lp4
S'distance'
p5
aF174.14897918701172
aa(lp6
S'state'
p7
aI0
aatp8
Rp9
.ccollections
OrderedDict
p0
((lp1
(lp2
S'timestamp'
p3
aF4.1279518604278564
aa(lp4
S'distance'
p5
aF174.14897918701172
aa(lp6
S'state'
p7
aI0
aatp8
Rp9
.ccollections
OrderedDict
p0
((lp1
(lp2
S'timestamp'
p3
aF4.136909008026123
aa(lp4
S'distance'
p5
aF174.14897918701172
aa(lp6
S'state'
p7
aI0
aatp8
Rp9
.ccollections
OrderedDict
p0
((lp1
(lp2
S'timestamp'
p3
aF4.137063980102539
aa(lp4
S'distance'
p5
aF174.14897918701172
aa(lp6
S'state'
p7
aI0
aatp8
Rp9
.ccollections
OrderedDict
p0
((lp1
(lp2
S'timestamp'
p3
aF4.147059917449951
aa(lp4
S'distance'
p5
aF174.14897918701172
aa(lp6
S'state'
p7
aI0
aatp8
Rp9
.ccollections
OrderedDict
p0
((lp1
(lp2
S'timestamp'
p3
aF4.148155927658081
aa(lp4
S'distance'
p5
aF174.14897918701172
aa(lp6
S'state'
p7
aI0
aatp8
Rp9
.ccollections
OrderedDict
p0
((lp1
(lp2
S'timestamp'
p3
aF4.15719199180603
aa(lp4
S'distance'
p5
aF174.14897918701172
aa(lp6
S'state'
p7
aI0
aatp8
Rp9
.ccollections
OrderedDict
p0
((lp1
(lp2
S'timestamp'
p3
aF4.157670974731445
aa(lp4
S'distance'
p5
aF174.14897918701172
aa(lp6
S'state'
p7
aI0
aatp8
Rp9
.ccollections
OrderedDict
p0
((lp1
(lp2
S'timestamp'
p3
aF4.1671669483184814
aa(lp4
S'distance'
p5
aF174.14897918701172
aa(lp6
S'state'
p7
aI0
aatp8
Rp9
.ccollections
OrderedDict
p0
((lp1
(lp2
S'timestamp'
p3
aF4.167680025100708
aa(lp4
S'distance'
p5
aF174.14897918701172
aa(lp6
S'state'
p7
aI0
aatp8
Rp9
.ccollections
OrderedDict
p0
((lp1
(lp2
S'timestamp'
p3
aF4.1796019077301025
aa(lp4
S'distance'
p5
aF174.14897918701172
aa(lp6
S'state'
p7
aI0
aatp8
Rp9
.ccollections
OrderedDict
p0
((lp1
(lp2
S'timestamp'
p3
aF4.1797990798950195
aa(lp4
S'distance'
p5
aF174.14897918701172
aa(lp6
S'state'
p7
aI0
aatp8
Rp9
.ccollections
OrderedDict
p0
((lp1
(lp2
S'timestamp'
p3
aF4.186563968658447
aa(lp4
S'distance'
p5
aF174.14897918701172
aa(lp6
S'state'
p7
aI0
aatp8
Rp9
.ccollections
OrderedDict
p0
((lp1
(lp2
S'timestamp'
p3
aF4.187778949737549
aa(lp4
S'distance'
p5
aF174.14897918701172
aa(lp6
S'state'
p7
aI0
aatp8
Rp9
.ccollections
OrderedDict
p0
((lp1
(lp2
S'timestamp'
p3
aF4.19720196723938
aa(lp4
S'distance'
p5
aF174.14897918701172
aa(lp6
S'state'
p7
aI0
aatp8
Rp9
.ccollections
OrderedDict
p0
((lp1
(lp2
S'timestamp'
p3
aF4.197407960891724
aa(lp4
S'distance'
p5
aF174.14897918701172
aa(lp6
S'state'
p7
aI0
aatp8
Rp9
.ccollections
OrderedDict
p0
((lp1
(lp2
S'timestamp'
p3
aF4.206525087356567
aa(lp4
S'distance'
p5
aF174.14897918701172
aa(lp6
S'state'
p7
aI0
aatp8
Rp9
.ccollections
OrderedDict
p0
((lp1
(lp2
S'timestamp'
p3
aF4.207635879516602
aa(lp4
S'distance'
p5
aF174.14897918701172
aa(lp6
S'state'
p7
aI0
aatp8
Rp9
.ccollections
OrderedDict
p0
((lp1
(lp2
S'timestamp'
p3
aF4.217854022979736
aa(lp4
S'distance'
p5
aF174.14897918701172
aa(lp6
S'state'
p7
aI0
aatp8
Rp9
.ccollections
OrderedDict
p0
((lp1
(lp2
S'timestamp'
p3
aF4.218226909637451
aa(lp4
S'distance'
p5
aF174.14897918701172
aa(lp6
S'state'
p7
aI0
aatp8
Rp9
.ccollections
OrderedDict
p0
((lp1
(lp2
S'timestamp'
p3
aF4.226693868637085
aa(lp4
S'distance'
p5
aF174.14897918701172
aa(lp6
S'state'
p7
aI0
aatp8
Rp9
.ccollections
OrderedDict
p0
((lp1
(lp2
S'timestamp'
p3
aF4.227994918823242
aa(lp4
S'distance'
p5
aF174.14897918701172
aa(lp6
S'state'
p7
aI0
aatp8
Rp9
.ccollections
OrderedDict
p0
((lp1
(lp2
S'timestamp'
p3
aF4.236751079559326
aa(lp4
S'distance'
p5
aF174.14897918701172
aa(lp6
S'state'
p7
aI0
aatp8
Rp9
.ccollections
OrderedDict
p0
((lp1
(lp2
S'timestamp'
p3
aF4.237056016921997
aa(lp4
S'distance'
p5
aF174.14897918701172
aa(lp6
S'state'
p7
aI0
aatp8
Rp9
.ccollections
OrderedDict
p0
((lp1
(lp2
S'timestamp'
p3
aF4.246974945068359
aa(lp4
S'distance'
p5
aF174.14897918701172
aa(lp6
S'state'
p7
aI0
aatp8
Rp9
.ccollections
OrderedDict
p0
((lp1
(lp2
S'timestamp'
p3
aF4.247771978378296
aa(lp4
S'distance'
p5
aF174.14897918701172
aa(lp6
S'state'
p7
aI0
aatp8
Rp9
.ccollections
OrderedDict
p0
((lp1
(lp2
S'timestamp'
p3
aF4.257314920425415
aa(lp4
S'distance'
p5
aF174.14897918701172
aa(lp6
S'state'
p7
aI0
aatp8
Rp9
.ccollections
OrderedDict
p0
((lp1
(lp2
S'timestamp'
p3
aF4.257488012313843
aa(lp4
S'distance'
p5
aF174.14897918701172
aa(lp6
S'state'
p7
aI0
aatp8
Rp9
.ccollections
OrderedDict
p0
((lp1
(lp2
S'timestamp'
p3
aF4.2673890590667725
aa(lp4
S'distance'
p5
aF174.14897918701172
aa(lp6
S'state'
p7
aI0
aatp8
Rp9
.ccollections
OrderedDict
p0
((lp1
(lp2
S'timestamp'
p3
aF4.268286943435669
aa(lp4
S'distance'
p5
aF174.14897918701172
aa(lp6
S'state'
p7
aI0
aatp8
Rp9
.ccollections
OrderedDict
p0
((lp1
(lp2
S'timestamp'
p3
aF4.287208080291748
aa(lp4
S'distance'
p5
aF174.14897918701172
aa(lp6
S'state'
p7
aI0
aatp8
Rp9
.ccollections
OrderedDict
p0
((lp1
(lp2
S'timestamp'
p3
aF4.287431955337524
aa(lp4
S'distance'
p5
aF174.14897918701172
aa(lp6
S'state'
p7
aI0
aatp8
Rp9
.ccollections
OrderedDict
p0
((lp1
(lp2
S'timestamp'
p3
aF4.288815975189209
aa(lp4
S'distance'
p5
aF174.14897918701172
aa(lp6
S'state'
p7
aI0
aatp8
Rp9
.ccollections
OrderedDict
p0
((lp1
(lp2
S'timestamp'
p3
aF4.289232969284058
aa(lp4
S'distance'
p5
aF174.14897918701172
aa(lp6
S'state'
p7
aI0
aatp8
Rp9
.ccollections
OrderedDict
p0
((lp1
(lp2
S'timestamp'
p3
aF4.297132968902588
aa(lp4
S'distance'
p5
aF174.14897918701172
aa(lp6
S'state'
p7
aI0
aatp8
Rp9
.ccollections
OrderedDict
p0
((lp1
(lp2
S'timestamp'
p3
aF4.29741907119751
aa(lp4
S'distance'
p5
aF174.14897918701172
aa(lp6
S'state'
p7
aI400
aatp8
Rp9
.ccollections
OrderedDict
p0
((lp1
(lp2
S'timestamp'
p3
aF4.307149887084961
aa(lp4
S'distance'
p5
aF174.14897918701172
aa(lp6
S'state'
p7
aI400
aatp8
Rp9
.ccollections
OrderedDict
p0
((lp1
(lp2
S'timestamp'
p3
aF4.307225942611694
aa(lp4
S'distance'
p5
aF174.14897918701172
aa(lp6
S'state'
p7
aI400
aatp8
Rp9
.ccollections
OrderedDict
p0
((lp1
(lp2
S'timestamp'
p3
aF4.324703931808472
aa(lp4
S'distance'
p5
aF174.14897918701172
aa(lp6
S'state'
p7
aI400
aatp8
Rp9
.ccollections
OrderedDict
p0
((lp1
(lp2
S'timestamp'
p3
aF4.324955940246582
aa(lp4
S'distance'
p5
aF174.14897918701172
aa(lp6
S'state'
p7
aI400
aatp8
Rp9
.ccollections
OrderedDict
p0
((lp1
(lp2
S'timestamp'
p3
aF4.327996015548706
aa(lp4
S'distance'
p5
aF174.14897918701172
aa(lp6
S'state'
p7
aI400
aatp8
Rp9
.ccollections
OrderedDict
p0
((lp1
(lp2
S'timestamp'
p3
aF4.328446865081787
aa(lp4
S'distance'
p5
aF174.14897918701172
aa(lp6
S'state'
p7
aI400
aatp8
Rp9
.ccollections
OrderedDict
p0
((lp1
(lp2
S'timestamp'
p3
aF4.340488910675049
aa(lp4
S'distance'
p5
aF174.14897918701172
aa(lp6
S'state'
p7
aI400
aatp8
Rp9
.ccollections
OrderedDict
p0
((lp1
(lp2
S'timestamp'
p3
aF4.341043949127197
aa(lp4
S'distance'
p5
aF174.14897918701172
aa(lp6
S'state'
p7
aI400
aatp8
Rp9
.ccollections
OrderedDict
p0
((lp1
(lp2
S'timestamp'
p3
aF4.347375869750977
aa(lp4
S'distance'
p5
aF174.14897918701172
aa(lp6
S'state'
p7
aI400
aatp8
Rp9
.ccollections
OrderedDict
p0
((lp1
(lp2
S'timestamp'
p3
aF4.347784042358398
aa(lp4
S'distance'
p5
aF174.14897918701172
aa(lp6
S'state'
p7
aI400
aatp8
Rp9
.ccollections
OrderedDict
p0
((lp1
(lp2
S'timestamp'
p3
aF4.358727931976318
aa(lp4
S'distance'
p5
aF174.14897918701172
aa(lp6
S'state'
p7
aI400
aatp8
Rp9
.ccollections
OrderedDict
p0
((lp1
(lp2
S'timestamp'
p3
aF4.359144926071167
aa(lp4
S'distance'
p5
aF174.14897918701172
aa(lp6
S'state'
p7
aI400
aatp8
Rp9
.ccollections
OrderedDict
p0
((lp1
(lp2
S'timestamp'
p3
aF4.366466045379639
aa(lp4
S'distance'
p5
aF174.14897918701172
aa(lp6
S'state'
p7
aI400
aatp8
Rp9
.ccollections
OrderedDict
p0
((lp1
(lp2
S'timestamp'
p3
aF4.36794900894165
aa(lp4
S'distance'
p5
aF174.14897918701172
aa(lp6
S'state'
p7
aI400
aatp8
Rp9
.ccollections
OrderedDict
p0
((lp1
(lp2
S'timestamp'
p3
aF4.376833915710449
aa(lp4
S'distance'
p5
aF174.14897918701172
aa(lp6
S'state'
p7
aI400
aatp8
Rp9
.ccollections
OrderedDict
p0
((lp1
(lp2
S'timestamp'
p3
aF4.3796539306640625
aa(lp4
S'distance'
p5
aF174.14897918701172
aa(lp6
S'state'
p7
aI400
aatp8
Rp9
.ccollections
OrderedDict
p0
((lp1
(lp2
S'timestamp'
p3
aF4.386858940124512
aa(lp4
S'distance'
p5
aF174.14897918701172
aa(lp6
S'state'
p7
aI400
aatp8
Rp9
.ccollections
OrderedDict
p0
((lp1
(lp2
S'timestamp'
p3
aF4.387532949447632
aa(lp4
S'distance'
p5
aF174.14897918701172
aa(lp6
S'state'
p7
aI400
aatp8
Rp9
.ccollections
OrderedDict
p0
((lp1
(lp2
S'timestamp'
p3
aF4.407171964645386
aa(lp4
S'distance'
p5
aF174.14897918701172
aa(lp6
S'state'
p7
aI400
aatp8
Rp9
.ccollections
OrderedDict
p0
((lp1
(lp2
S'timestamp'
p3
aF4.408703088760376
aa(lp4
S'distance'
p5
aF174.14897918701172
aa(lp6
S'state'
p7
aI400
aatp8
Rp9
.ccollections
OrderedDict
p0
((lp1
(lp2
S'timestamp'
p3
aF4.408886909484863
aa(lp4
S'distance'
p5
aF174.14897918701172
aa(lp6
S'state'
p7
aI400
aatp8
Rp9
.ccollections
OrderedDict
p0
((lp1
(lp2
S'timestamp'
p3
aF4.409064054489136
aa(lp4
S'distance'
p5
aF174.14897918701172
aa(lp6
S'state'
p7
aI400
aatp8
Rp9
.ccollections
OrderedDict
p0
((lp1
(lp2
S'timestamp'
p3
aF4.416568994522095
aa(lp4
S'distance'
p5
aF174.14897918701172
aa(lp6
S'state'
p7
aI400
aatp8
Rp9
.ccollections
OrderedDict
p0
((lp1
(lp2
S'timestamp'
p3
aF4.418444871902466
aa(lp4
S'distance'
p5
aF174.14897918701172
aa(lp6
S'state'
p7
aI400
aatp8
Rp9
.ccollections
OrderedDict
p0
((lp1
(lp2
S'timestamp'
p3
aF4.427093982696533
aa(lp4
S'distance'
p5
aF174.14897918701172
aa(lp6
S'state'
p7
aI400
aatp8
Rp9
.ccollections
OrderedDict
p0
((lp1
(lp2
S'timestamp'
p3
aF4.427165985107422
aa(lp4
S'distance'
p5
aF174.14897918701172
aa(lp6
S'state'
p7
aI400
aatp8
Rp9
.ccollections
OrderedDict
p0
((lp1
(lp2
S'timestamp'
p3
aF4.436791896820068
aa(lp4
S'distance'
p5
aF174.14897918701172
aa(lp6
S'state'
p7
aI400
aatp8
Rp9
.ccollections
OrderedDict
p0
((lp1
(lp2
S'timestamp'
p3
aF4.437736988067627
aa(lp4
S'distance'
p5
aF174.14897918701172
aa(lp6
S'state'
p7
aI400
aatp8
Rp9
.ccollections
OrderedDict
p0
((lp1
(lp2
S'timestamp'
p3
aF4.446901082992554
aa(lp4
S'distance'
p5
aF174.14897918701172
aa(lp6
S'state'
p7
aI400
aatp8
Rp9
.ccollections
OrderedDict
p0
((lp1
(lp2
S'timestamp'
p3
aF4.447339057922363
aa(lp4
S'distance'
p5
aF174.14897918701172
aa(lp6
S'state'
p7
aI400
aatp8
Rp9
.ccollections
OrderedDict
p0
((lp1
(lp2
S'timestamp'
p3
aF4.457253932952881
aa(lp4
S'distance'
p5
aF174.14897918701172
aa(lp6
S'state'
p7
aI400
aatp8
Rp9
.ccollections
OrderedDict
p0
((lp1
(lp2
S'timestamp'
p3
aF4.458011865615845
aa(lp4
S'distance'
p5
aF174.14897918701172
aa(lp6
S'state'
p7
aI400
aatp8
Rp9
.ccollections
OrderedDict
p0
((lp1
(lp2
S'timestamp'
p3
aF4.466536998748779
aa(lp4
S'distance'
p5
aF174.14897918701172
aa(lp6
S'state'
p7
aI400
aatp8
Rp9
.ccollections
OrderedDict
p0
((lp1
(lp2
S'timestamp'
p3
aF4.467303991317749
aa(lp4
S'distance'
p5
aF174.14897918701172
aa(lp6
S'state'
p7
aI400
aatp8
Rp9
.ccollections
OrderedDict
p0
((lp1
(lp2
S'timestamp'
p3
aF4.4766480922698975
aa(lp4
S'distance'
p5
aF174.14897918701172
aa(lp6
S'state'
p7
aI400
aatp8
Rp9
.ccollections
OrderedDict
p0
((lp1
(lp2
S'timestamp'
p3
aF4.477128982543945
aa(lp4
S'distance'
p5
aF174.14897918701172
aa(lp6
S'state'
p7
aI400
aatp8
Rp9
.ccollections
OrderedDict
p0
((lp1
(lp2
S'timestamp'
p3
aF4.4865639209747314
aa(lp4
S'distance'
p5
aF174.14897918701172
aa(lp6
S'state'
p7
aI400
aatp8
Rp9
.ccollections
OrderedDict
p0
((lp1
(lp2
S'timestamp'
p3
aF4.487175941467285
aa(lp4
S'distance'
p5
aF174.14897918701172
aa(lp6
S'state'
p7
aI400
aatp8
Rp9
.ccollections
OrderedDict
p0
((lp1
(lp2
S'timestamp'
p3
aF4.497426986694336
aa(lp4
S'distance'
p5
aF174.14897918701172
aa(lp6
S'state'
p7
aI400
aatp8
Rp9
.ccollections
OrderedDict
p0
((lp1
(lp2
S'timestamp'
p3
aF4.4979400634765625
aa(lp4
S'distance'
p5
aF174.14897918701172
aa(lp6
S'state'
p7
aI400
aatp8
Rp9
.ccollections
OrderedDict
p0
((lp1
(lp2
S'timestamp'
p3
aF4.506496906280518
aa(lp4
S'distance'
p5
aF174.14897918701172
aa(lp6
S'state'
p7
aI400
aatp8
Rp9
.ccollections
OrderedDict
p0
((lp1
(lp2
S'timestamp'
p3
aF4.507296085357666
aa(lp4
S'distance'
p5
aF174.14897918701172
aa(lp6
S'state'
p7
aI400
aatp8
Rp9
.ccollections
OrderedDict
p0
((lp1
(lp2
S'timestamp'
p3
aF4.516686916351318
aa(lp4
S'distance'
p5
aF174.14897918701172
aa(lp6
S'state'
p7
aI400
aatp8
Rp9
.ccollections
OrderedDict
p0
((lp1
(lp2
S'timestamp'
p3
aF4.517478942871094
aa(lp4
S'distance'
p5
aF174.14897918701172
aa(lp6
S'state'
p7
aI400
aatp8
Rp9
.ccollections
OrderedDict
p0
((lp1
(lp2
S'timestamp'
p3
aF4.527349948883057
aa(lp4
S'distance'
p5
aF174.14897918701172
aa(lp6
S'state'
p7
aI400
aatp8
Rp9
.ccollections
OrderedDict
p0
((lp1
(lp2
S'timestamp'
p3
aF4.528213977813721
aa(lp4
S'distance'
p5
aF174.14897918701172
aa(lp6
S'state'
p7
aI400
aatp8
Rp9
.ccollections
OrderedDict
p0
((lp1
(lp2
S'timestamp'
p3
aF4.5385050773620605
aa(lp4
S'distance'
p5
aF174.14897918701172
aa(lp6
S'state'
p7
aI400
aatp8
Rp9
.ccollections
OrderedDict
p0
((lp1
(lp2
S'timestamp'
p3
aF4.539290904998779
aa(lp4
S'distance'
p5
aF174.14897918701172
aa(lp6
S'state'
p7
aI400
aatp8
Rp9
.ccollections
OrderedDict
p0
((lp1
(lp2
S'timestamp'
p3
aF4.5466148853302
aa(lp4
S'distance'
p5
aF174.14897918701172
aa(lp6
S'state'
p7
aI400
aatp8
Rp9
.ccollections
OrderedDict
p0
((lp1
(lp2
S'timestamp'
p3
aF4.547216892242432
aa(lp4
S'distance'
p5
aF174.14897918701172
aa(lp6
S'state'
p7
aI400
aatp8
Rp9
.ccollections
OrderedDict
p0
((lp1
(lp2
S'timestamp'
p3
aF4.556623935699463
aa(lp4
S'distance'
p5
aF174.14897918701172
aa(lp6
S'state'
p7
aI400
aatp8
Rp9
.ccollections
OrderedDict
p0
((lp1
(lp2
S'timestamp'
p3
aF4.55779504776001
aa(lp4
S'distance'
p5
aF174.14897918701172
aa(lp6
S'state'
p7
aI400
aatp8
Rp9
.ccollections
OrderedDict
p0
((lp1
(lp2
S'timestamp'
p3
aF4.5667688846588135
aa(lp4
S'distance'
p5
aF174.14897918701172
aa(lp6
S'state'
p7
aI400
aatp8
Rp9
.ccollections
OrderedDict
p0
((lp1
(lp2
S'timestamp'
p3
aF4.567889928817749
aa(lp4
S'distance'
p5
aF174.14897918701172
aa(lp6
S'state'
p7
aI400
aatp8
Rp9
.ccollections
OrderedDict
p0
((lp1
(lp2
S'timestamp'
p3
aF4.576911926269531
aa(lp4
S'distance'
p5
aF174.14897918701172
aa(lp6
S'state'
p7
aI400
aatp8
Rp9
.ccollections
OrderedDict
p0
((lp1
(lp2
S'timestamp'
p3
aF4.578131914138794
aa(lp4
S'distance'
p5
aF174.14897918701172
aa(lp6
S'state'
p7
aI400
aatp8
Rp9
.ccollections
OrderedDict
p0
((lp1
(lp2
S'timestamp'
p3
aF4.586700916290283
aa(lp4
S'distance'
p5
aF174.14897918701172
aa(lp6
S'state'
p7
aI400
aatp8
Rp9
.ccollections
OrderedDict
p0
((lp1
(lp2
S'timestamp'
p3
aF4.587827920913696
aa(lp4
S'distance'
p5
aF174.14897918701172
aa(lp6
S'state'
p7
aI400
aatp8
Rp9
.ccollections
OrderedDict
p0
((lp1
(lp2
S'timestamp'
p3
aF4.597743034362793
aa(lp4
S'distance'
p5
aF174.14897918701172
aa(lp6
S'state'
p7
aI400
aatp8
Rp9
.ccollections
OrderedDict
p0
((lp1
(lp2
S'timestamp'
p3
aF4.598543882369995
aa(lp4
S'distance'
p5
aF174.14897918701172
aa(lp6
S'state'
p7
aI400
aatp8
Rp9
.ccollections
OrderedDict
p0
((lp1
(lp2
S'timestamp'
p3
aF4.606894016265869
aa(lp4
S'distance'
p5
aF174.14897918701172
aa(lp6
S'state'
p7
aI400
aatp8
Rp9
.ccollections
OrderedDict
p0
((lp1
(lp2
S'timestamp'
p3
aF4.60739803314209
aa(lp4
S'distance'
p5
aF174.14897918701172
aa(lp6
S'state'
p7
aI400
aatp8
Rp9
.ccollections
OrderedDict
p0
((lp1
(lp2
S'timestamp'
p3
aF4.616858959197998
aa(lp4
S'distance'
p5
aF174.14897918701172
aa(lp6
S'state'
p7
aI400
aatp8
Rp9
.ccollections
OrderedDict
p0
((lp1
(lp2
S'timestamp'
p3
aF4.6181769371032715
aa(lp4
S'distance'
p5
aF174.14897918701172
aa(lp6
S'state'
p7
aI400
aatp8
Rp9
.ccollections
OrderedDict
p0
((lp1
(lp2
S'timestamp'
p3
aF4.6267409324646
aa(lp4
S'distance'
p5
aF174.14897918701172
aa(lp6
S'state'
p7
aI400
aatp8
Rp9
.ccollections
OrderedDict
p0
((lp1
(lp2
S'timestamp'
p3
aF4.628069877624512
aa(lp4
S'distance'
p5
aF174.14897918701172
aa(lp6
S'state'
p7
aI400
aatp8
Rp9
.ccollections
OrderedDict
p0
((lp1
(lp2
S'timestamp'
p3
aF4.638089895248413
aa(lp4
S'distance'
p5
aF174.14897918701172
aa(lp6
S'state'
p7
aI400
aatp8
Rp9
.ccollections
OrderedDict
p0
((lp1
(lp2
S'timestamp'
p3
aF4.638288974761963
aa(lp4
S'distance'
p5
aF174.14897918701172
aa(lp6
S'state'
p7
aI400
aatp8
Rp9
.ccollections
OrderedDict
p0
((lp1
(lp2
S'timestamp'
p3
aF4.647253036499023
aa(lp4
S'distance'
p5
aF174.14897918701172
aa(lp6
S'state'
p7
aI400
aatp8
Rp9
.ccollections
OrderedDict
p0
((lp1
(lp2
S'timestamp'
p3
aF4.647500991821289
aa(lp4
S'distance'
p5
aF174.14897918701172
aa(lp6
S'state'
p7
aI400
aatp8
Rp9
.ccollections
OrderedDict
p0
((lp1
(lp2
S'timestamp'
p3
aF4.658138990402222
aa(lp4
S'distance'
p5
aF174.14897918701172
aa(lp6
S'state'
p7
aI400
aatp8
Rp9
.ccollections
OrderedDict
p0
((lp1
(lp2
S'timestamp'
p3
aF4.658282995223999
aa(lp4
S'distance'
p5
aF174.14897918701172
aa(lp6
S'state'
p7
aI400
aatp8
Rp9
.ccollections
OrderedDict
p0
((lp1
(lp2
S'timestamp'
p3
aF4.666688919067383
aa(lp4
S'distance'
p5
aF174.14897918701172
aa(lp6
S'state'
p7
aI400
aatp8
Rp9
.ccollections
OrderedDict
p0
((lp1
(lp2
S'timestamp'
p3
aF4.668052911758423
aa(lp4
S'distance'
p5
aF174.14897918701172
aa(lp6
S'state'
p7
aI400
aatp8
Rp9
.ccollections
OrderedDict
p0
((lp1
(lp2
S'timestamp'
p3
aF4.676379919052124
aa(lp4
S'distance'
p5
aF174.14897918701172
aa(lp6
S'state'
p7
aI400
aatp8
Rp9
.ccollections
OrderedDict
p0
((lp1
(lp2
S'timestamp'
p3
aF4.678477048873901
aa(lp4
S'distance'
p5
aF174.14897918701172
aa(lp6
S'state'
p7
aI400
aatp8
Rp9
.ccollections
OrderedDict
p0
((lp1
(lp2
S'timestamp'
p3
aF4.688698053359985
aa(lp4
S'distance'
p5
aF174.14897918701172
aa(lp6
S'state'
p7
aI400
aatp8
Rp9
.ccollections
OrderedDict
p0
((lp1
(lp2
S'timestamp'
p3
aF4.688938856124878
aa(lp4
S'distance'
p5
aF174.14897918701172
aa(lp6
S'state'
p7
aI400
aatp8
Rp9
.ccollections
OrderedDict
p0
((lp1
(lp2
S'timestamp'
p3
aF4.697404861450195
aa(lp4
S'distance'
p5
aF174.14897918701172
aa(lp6
S'state'
p7
aI400
aatp8
Rp9
.ccollections
OrderedDict
p0
((lp1
(lp2
S'timestamp'
p3
aF4.697645902633667
aa(lp4
S'distance'
p5
aF174.14897918701172
aa(lp6
S'state'
p7
aI400
aatp8
Rp9
.ccollections
OrderedDict
p0
((lp1
(lp2
S'timestamp'
p3
aF4.7065229415893555
aa(lp4
S'distance'
p5
aF174.14897918701172
aa(lp6
S'state'
p7
aI400
aatp8
Rp9
.ccollections
OrderedDict
p0
((lp1
(lp2
S'timestamp'
p3
aF4.707140922546387
aa(lp4
S'distance'
p5
aF174.14897918701172
aa(lp6
S'state'
p7
aI400
aatp8
Rp9
.ccollections
OrderedDict
p0
((lp1
(lp2
S'timestamp'
p3
aF4.727061986923218
aa(lp4
S'distance'
p5
aF174.14897918701172
aa(lp6
S'state'
p7
aI400
aatp8
Rp9
.ccollections
OrderedDict
p0
((lp1
(lp2
S'timestamp'
p3
aF4.727257013320923
aa(lp4
S'distance'
p5
aF174.14897918701172
aa(lp6
S'state'
p7
aI400
aatp8
Rp9
.ccollections
OrderedDict
p0
((lp1
(lp2
S'timestamp'
p3
aF4.7287209033966064
aa(lp4
S'distance'
p5
aF174.14897918701172
aa(lp6
S'state'
p7
aI400
aatp8
Rp9
.ccollections
OrderedDict
p0
((lp1
(lp2
S'timestamp'
p3
aF4.728811025619507
aa(lp4
S'distance'
p5
aF174.14897918701172
aa(lp6
S'state'
p7
aI400
aatp8
Rp9
.ccollections
OrderedDict
p0
((lp1
(lp2
S'timestamp'
p3
aF4.737725019454956
aa(lp4
S'distance'
p5
aF174.14897918701172
aa(lp6
S'state'
p7
aI400
aatp8
Rp9
.ccollections
OrderedDict
p0
((lp1
(lp2
S'timestamp'
p3
aF4.7383458614349365
aa(lp4
S'distance'
p5
aF174.14897918701172
aa(lp6
S'state'
p7
aI400
aatp8
Rp9
.ccollections
OrderedDict
p0
((lp1
(lp2
S'timestamp'
p3
aF4.746774911880493
aa(lp4
S'distance'
p5
aF174.14897918701172
aa(lp6
S'state'
p7
aI400
aatp8
Rp9
.ccollections
OrderedDict
p0
((lp1
(lp2
S'timestamp'
p3
aF4.7471489906311035
aa(lp4
S'distance'
p5
aF174.14897918701172
aa(lp6
S'state'
p7
aI400
aatp8
Rp9
.ccollections
OrderedDict
p0
((lp1
(lp2
S'timestamp'
p3
aF4.756600856781006
aa(lp4
S'distance'
p5
aF174.14897918701172
aa(lp6
S'state'
p7
aI400
aatp8
Rp9
.ccollections
OrderedDict
p0
((lp1
(lp2
S'timestamp'
p3
aF4.757760047912598
aa(lp4
S'distance'
p5
aF174.14897918701172
aa(lp6
S'state'
p7
aI400
aatp8
Rp9
.ccollections
OrderedDict
p0
((lp1
(lp2
S'timestamp'
p3
aF4.778167963027954
aa(lp4
S'distance'
p5
aF174.14897918701172
aa(lp6
S'state'
p7
aI400
aatp8
Rp9
.ccollections
OrderedDict
p0
((lp1
(lp2
S'timestamp'
p3
aF4.778337001800537
aa(lp4
S'distance'
p5
aF174.14897918701172
aa(lp6
S'state'
p7
aI400
aatp8
Rp9
.ccollections
OrderedDict
p0
((lp1
(lp2
S'timestamp'
p3
aF4.779170989990234
aa(lp4
S'distance'
p5
aF174.14897918701172
aa(lp6
S'state'
p7
aI400
aatp8
Rp9
.ccollections
OrderedDict
p0
((lp1
(lp2
S'timestamp'
p3
aF4.779536008834839
aa(lp4
S'distance'
p5
aF174.14897918701172
aa(lp6
S'state'
p7
aI400
aatp8
Rp9
.ccollections
OrderedDict
p0
((lp1
(lp2
S'timestamp'
p3
aF4.786611080169678
aa(lp4
S'distance'
p5
aF174.14897918701172
aa(lp6
S'state'
p7
aI400
aatp8
Rp9
.ccollections
OrderedDict
p0
((lp1
(lp2
S'timestamp'
p3
aF4.787118911743164
aa(lp4
S'distance'
p5
aF174.14897918701172
aa(lp6
S'state'
p7
aI400
aatp8
Rp9
.ccollections
OrderedDict
p0
((lp1
(lp2
S'timestamp'
p3
aF4.796308994293213
aa(lp4
S'distance'
p5
aF174.14897918701172
aa(lp6
S'state'
p7
aI400
aatp8
Rp9
.ccollections
OrderedDict
p0
((lp1
(lp2
S'timestamp'
p3
aF4.797744989395142
aa(lp4
S'distance'
p5
aF174.14897918701172
aa(lp6
S'state'
p7
aI400
aatp8
Rp9
.ccollections
OrderedDict
p0
((lp1
(lp2
S'timestamp'
p3
aF4.807291030883789
aa(lp4
S'distance'
p5
aF174.14897918701172
aa(lp6
S'state'
p7
aI400
aatp8
Rp9
.ccollections
OrderedDict
p0
((lp1
(lp2
S'timestamp'
p3
aF4.80744194984436
aa(lp4
S'distance'
p5
aF174.14897918701172
aa(lp6
S'state'
p7
aI400
aatp8
Rp9
.ccollections
OrderedDict
p0
((lp1
(lp2
S'timestamp'
p3
aF4.8175740242004395
aa(lp4
S'distance'
p5
aF174.14897918701172
aa(lp6
S'state'
p7
aI400
aatp8
Rp9
.ccollections
OrderedDict
p0
((lp1
(lp2
S'timestamp'
p3
aF4.818532943725586
aa(lp4
S'distance'
p5
aF174.14897918701172
aa(lp6
S'state'
p7
aI400
aatp8
Rp9
.ccollections
OrderedDict
p0
((lp1
(lp2
S'timestamp'
p3
aF4.827641010284424
aa(lp4
S'distance'
p5
aF174.14897918701172
aa(lp6
S'state'
p7
aI400
aatp8
Rp9
.ccollections
OrderedDict
p0
((lp1
(lp2
S'timestamp'
p3
aF4.827724933624268
aa(lp4
S'distance'
p5
aF174.14897918701172
aa(lp6
S'state'
p7
aI400
aatp8
Rp9
.ccollections
OrderedDict
p0
((lp1
(lp2
S'timestamp'
p3
aF4.836484909057617
aa(lp4
S'distance'
p5
aF174.14897918701172
aa(lp6
S'state'
p7
aI400
aatp8
Rp9
.ccollections
OrderedDict
p0
((lp1
(lp2
S'timestamp'
p3
aF4.839370965957642
aa(lp4
S'distance'
p5
aF174.14897918701172
aa(lp6
S'state'
p7
aI400
aatp8
Rp9
.ccollections
OrderedDict
p0
((lp1
(lp2
S'timestamp'
p3
aF4.8466620445251465
aa(lp4
S'distance'
p5
aF174.14897918701172
aa(lp6
S'state'
p7
aI400
aatp8
Rp9
.ccollections
OrderedDict
p0
((lp1
(lp2
S'timestamp'
p3
aF4.848021030426025
aa(lp4
S'distance'
p5
aF174.14897918701172
aa(lp6
S'state'
p7
aI400
aatp8
Rp9
.ccollections
OrderedDict
p0
((lp1
(lp2
S'timestamp'
p3
aF4.856695890426636
aa(lp4
S'distance'
p5
aF174.14897918701172
aa(lp6
S'state'
p7
aI400
aatp8
Rp9
.ccollections
OrderedDict
p0
((lp1
(lp2
S'timestamp'
p3
aF4.857163906097412
aa(lp4
S'distance'
p5
aF174.14897918701172
aa(lp6
S'state'
p7
aI400
aatp8
Rp9
.ccollections
OrderedDict
p0
((lp1
(lp2
S'timestamp'
p3
aF4.866659879684448
aa(lp4
S'distance'
p5
aF174.14897918701172
aa(lp6
S'state'
p7
aI400
aatp8
Rp9
.ccollections
OrderedDict
p0
((lp1
(lp2
S'timestamp'
p3
aF4.867646932601929
aa(lp4
S'distance'
p5
aF174.14897918701172
aa(lp6
S'state'
p7
aI0
aatp8
Rp9
.ccollections
OrderedDict
p0
((lp1
(lp2
S'timestamp'
p3
aF5.428478956222534
aa(lp4
S'distance'
p5
aF75.98929023742676
aa(lp6
S'state'
p7
aI0
aatp8
Rp9
.ccollections
OrderedDict
p0
((lp1
(lp2
S'timestamp'
p3
aF5.436486005783081
aa(lp4
S'distance'
p5
aF75.98929023742676
aa(lp6
S'state'
p7
aI0
aatp8
Rp9
.ccollections
OrderedDict
p0
((lp1
(lp2
S'timestamp'
p3
aF5.438199043273926
aa(lp4
S'distance'
p5
aF75.98929023742676
aa(lp6
S'state'
p7
aI0
aatp8
Rp9
.ccollections
OrderedDict
p0
((lp1
(lp2
S'timestamp'
p3
aF5.446577072143555
aa(lp4
S'distance'
p5
aF75.98929023742676
aa(lp6
S'state'
p7
aI0
aatp8
Rp9
.ccollections
OrderedDict
p0
((lp1
(lp2
S'timestamp'
p3
aF5.447207927703857
aa(lp4
S'distance'
p5
aF75.98929023742676
aa(lp6
S'state'
p7
aI0
aatp8
Rp9
.ccollections
OrderedDict
p0
((lp1
(lp2
S'timestamp'
p3
aF5.458270072937012
aa(lp4
S'distance'
p5
aF75.98929023742676
aa(lp6
S'state'
p7
aI0
aatp8
Rp9
.ccollections
OrderedDict
p0
((lp1
(lp2
S'timestamp'
p3
aF5.459203004837036
aa(lp4
S'distance'
p5
aF75.98929023742676
aa(lp6
S'state'
p7
aI0
aatp8
Rp9
.ccollections
OrderedDict
p0
((lp1
(lp2
S'timestamp'
p3
aF5.46835994720459
aa(lp4
S'distance'
p5
aF75.98929023742676
aa(lp6
S'state'
p7
aI0
aatp8
Rp9
.ccollections
OrderedDict
p0
((lp1
(lp2
S'timestamp'
p3
aF5.469043970108032
aa(lp4
S'distance'
p5
aF75.98929023742676
aa(lp6
S'state'
p7
aI0
aatp8
Rp9
.ccollections
OrderedDict
p0
((lp1
(lp2
S'timestamp'
p3
aF5.476798057556152
aa(lp4
S'distance'
p5
aF75.98929023742676
aa(lp6
S'state'
p7
aI0
aatp8
Rp9
.ccollections
OrderedDict
p0
((lp1
(lp2
S'timestamp'
p3
aF5.477773904800415
aa(lp4
S'distance'
p5
aF75.98929023742676
aa(lp6
S'state'
p7
aI0
aatp8
Rp9
.ccollections
OrderedDict
p0
((lp1
(lp2
S'timestamp'
p3
aF5.486798048019409
aa(lp4
S'distance'
p5
aF75.98929023742676
aa(lp6
S'state'
p7
aI0
aatp8
Rp9
.ccollections
OrderedDict
p0
((lp1
(lp2
S'timestamp'
p3
aF5.488142013549805
aa(lp4
S'distance'
p5
aF75.98929023742676
aa(lp6
S'state'
p7
aI0
aatp8
Rp9
.ccollections
OrderedDict
p0
((lp1
(lp2
S'timestamp'
p3
aF5.496397972106934
aa(lp4
S'distance'
p5
aF75.98929023742676
aa(lp6
S'state'
p7
aI0
aatp8
Rp9
.ccollections
OrderedDict
p0
((lp1
(lp2
S'timestamp'
p3
aF5.496744871139526
aa(lp4
S'distance'
p5
aF75.98929023742676
aa(lp6
S'state'
p7
aI0
aatp8
Rp9
.ccollections
OrderedDict
p0
((lp1
(lp2
S'timestamp'
p3
aF5.516180992126465
aa(lp4
S'distance'
p5
aF75.98929023742676
aa(lp6
S'state'
p7
aI0
aatp8
Rp9
.ccollections
OrderedDict
p0
((lp1
(lp2
S'timestamp'
p3
aF5.517219066619873
aa(lp4
S'distance'
p5
aF75.98929023742676
aa(lp6
S'state'
p7
aI0
aatp8
Rp9
.ccollections
OrderedDict
p0
((lp1
(lp2
S'timestamp'
p3
aF5.518604040145874
aa(lp4
S'distance'
p5
aF75.98929023742676
aa(lp6
S'state'
p7
aI0
aatp8
Rp9
.ccollections
OrderedDict
p0
((lp1
(lp2
S'timestamp'
p3
aF5.518681049346924
aa(lp4
S'distance'
p5
aF75.98929023742676
aa(lp6
S'state'
p7
aI0
aatp8
Rp9
.ccollections
OrderedDict
p0
((lp1
(lp2
S'timestamp'
p3
aF5.526113986968994
aa(lp4
S'distance'
p5
aF75.98929023742676
aa(lp6
S'state'
p7
aI0
aatp8
Rp9
.ccollections
OrderedDict
p0
((lp1
(lp2
S'timestamp'
p3
aF5.526901960372925
aa(lp4
S'distance'
p5
aF75.98929023742676
aa(lp6
S'state'
p7
aI0
aatp8
Rp9
.ccollections
OrderedDict
p0
((lp1
(lp2
S'timestamp'
p3
aF5.536320924758911
aa(lp4
S'distance'
p5
aF75.98929023742676
aa(lp6
S'state'
p7
aI0
aatp8
Rp9
.ccollections
OrderedDict
p0
((lp1
(lp2
S'timestamp'
p3
aF5.536650896072388
aa(lp4
S'distance'
p5
aF75.98929023742676
aa(lp6
S'state'
p7
aI0
aatp8
Rp9
.ccollections
OrderedDict
p0
((lp1
(lp2
S'timestamp'
p3
aF5.546328067779541
aa(lp4
S'distance'
p5
aF75.98929023742676
aa(lp6
S'state'
p7
aI0
aatp8
Rp9
.ccollections
OrderedDict
p0
((lp1
(lp2
S'timestamp'
p3
aF5.546839952468872
aa(lp4
S'distance'
p5
aF75.98929023742676
aa(lp6
S'state'
p7
aI0
aatp8
Rp9
.ccollections
OrderedDict
p0
((lp1
(lp2
S'timestamp'
p3
aF5.556346893310547
aa(lp4
S'distance'
p5
aF75.98929023742676
aa(lp6
S'state'
p7
aI0
aatp8
Rp9
.ccollections
OrderedDict
p0
((lp1
(lp2
S'timestamp'
p3
aF5.556843042373657
aa(lp4
S'distance'
p5
aF75.98929023742676
aa(lp6
S'state'
p7
aI0
aatp8
Rp9
.ccollections
OrderedDict
p0
((lp1
(lp2
S'timestamp'
p3
aF5.5660998821258545
aa(lp4
S'distance'
p5
aF75.98929023742676
aa(lp6
S'state'
p7
aI0
aatp8
Rp9
.ccollections
OrderedDict
p0
((lp1
(lp2
S'timestamp'
p3
aF5.5677430629730225
aa(lp4
S'distance'
p5
aF75.98929023742676
aa(lp6
S'state'
p7
aI0
aatp8
Rp9
.ccollections
OrderedDict
p0
((lp1
(lp2
S'timestamp'
p3
aF5.576351881027222
aa(lp4
S'distance'
p5
aF75.98929023742676
aa(lp6
S'state'
p7
aI0
aatp8
Rp9
.ccollections
OrderedDict
p0
((lp1
(lp2
S'timestamp'
p3
aF5.57689094543457
aa(lp4
S'distance'
p5
aF75.98929023742676
aa(lp6
S'state'
p7
aI0
aatp8
Rp9
.ccollections
OrderedDict
p0
((lp1
(lp2
S'timestamp'
p3
aF5.5869300365448
aa(lp4
S'distance'
p5
aF75.98929023742676
aa(lp6
S'state'
p7
aI0
aatp8
Rp9
.ccollections
OrderedDict
p0
((lp1
(lp2
S'timestamp'
p3
aF5.588353872299194
aa(lp4
S'distance'
p5
aF75.98929023742676
aa(lp6
S'state'
p7
aI0
aatp8
Rp9
.ccollections
OrderedDict
p0
((lp1
(lp2
S'timestamp'
p3
aF5.596364974975586
aa(lp4
S'distance'
p5
aF75.98929023742676
aa(lp6
S'state'
p7
aI0
aatp8
Rp9
.ccollections
OrderedDict
p0
((lp1
(lp2
S'timestamp'
p3
aF5.59765100479126
aa(lp4
S'distance'
p5
aF75.98929023742676
aa(lp6
S'state'
p7
aI0
aatp8
Rp9
.ccollections
OrderedDict
p0
((lp1
(lp2
S'timestamp'
p3
aF5.606600046157837
aa(lp4
S'distance'
p5
aF75.98929023742676
aa(lp6
S'state'
p7
aI0
aatp8
Rp9
.ccollections
OrderedDict
p0
((lp1
(lp2
S'timestamp'
p3
aF5.617810964584351
aa(lp4
S'distance'
p5
aF75.98929023742676
aa(lp6
S'state'
p7
aI0
aatp8
Rp9
.ccollections
OrderedDict
p0
((lp1
(lp2
S'timestamp'
p3
aF5.617888927459717
aa(lp4
S'distance'
p5
aF75.98929023742676
aa(lp6
S'state'
p7
aI0
aatp8
Rp9
.ccollections
OrderedDict
p0
((lp1
(lp2
S'timestamp'
p3
aF5.617959022521973
aa(lp4
S'distance'
p5
aF75.98929023742676
aa(lp6
S'state'
p7
aI0
aatp8
Rp9
.ccollections
OrderedDict
p0
((lp1
(lp2
S'timestamp'
p3
aF5.626189947128296
aa(lp4
S'distance'
p5
aF75.98929023742676
aa(lp6
S'state'
p7
aI0
aatp8
Rp9
.ccollections
OrderedDict
p0
((lp1
(lp2
S'timestamp'
p3
aF5.62769889831543
aa(lp4
S'distance'
p5
aF75.98929023742676
aa(lp6
S'state'
p7
aI0
aatp8
Rp9
.ccollections
OrderedDict
p0
((lp1
(lp2
S'timestamp'
p3
aF5.636864900588989
aa(lp4
S'distance'
p5
aF75.98929023742676
aa(lp6
S'state'
p7
aI0
aatp8
Rp9
.ccollections
OrderedDict
p0
((lp1
(lp2
S'timestamp'
p3
aF5.636969089508057
aa(lp4
S'distance'
p5
aF75.98929023742676
aa(lp6
S'state'
p7
aI0
aatp8
Rp9
.ccollections
OrderedDict
p0
((lp1
(lp2
S'timestamp'
p3
aF5.646941900253296
aa(lp4
S'distance'
p5
aF75.98929023742676
aa(lp6
S'state'
p7
aI0
aatp8
Rp9
.ccollections
OrderedDict
p0
((lp1
(lp2
S'timestamp'
p3
aF5.6471428871154785
aa(lp4
S'distance'
p5
aF75.98929023742676
aa(lp6
S'state'
p7
aI0
aatp8
Rp9
.ccollections
OrderedDict
p0
((lp1
(lp2
S'timestamp'
p3
aF5.6578569412231445
aa(lp4
S'distance'
p5
aF75.98929023742676
aa(lp6
S'state'
p7
aI0
aatp8
Rp9
.ccollections
OrderedDict
p0
((lp1
(lp2
S'timestamp'
p3
aF5.658024072647095
aa(lp4
S'distance'
p5
aF75.98929023742676
aa(lp6
S'state'
p7
aI0
aatp8
Rp9
.ccollections
OrderedDict
p0
((lp1
(lp2
S'timestamp'
p3
aF5.666601896286011
aa(lp4
S'distance'
p5
aF75.98929023742676
aa(lp6
S'state'
p7
aI0
aatp8
Rp9
.ccollections
OrderedDict
p0
((lp1
(lp2
S'timestamp'
p3
aF5.667687892913818
aa(lp4
S'distance'
p5
aF75.98929023742676
aa(lp6
S'state'
p7
aI0
aatp8
Rp9
.ccollections
OrderedDict
p0
((lp1
(lp2
S'timestamp'
p3
aF5.676645040512085
aa(lp4
S'distance'
p5
aF75.98929023742676
aa(lp6
S'state'
p7
aI0
aatp8
Rp9
.ccollections
OrderedDict
p0
((lp1
(lp2
S'timestamp'
p3
aF5.678448915481567
aa(lp4
S'distance'
p5
aF75.98929023742676
aa(lp6
S'state'
p7
aI0
aatp8
Rp9
.ccollections
OrderedDict
p0
((lp1
(lp2
S'timestamp'
p3
aF5.686644077301025
aa(lp4
S'distance'
p5
aF75.98929023742676
aa(lp6
S'state'
p7
aI0
aatp8
Rp9
.ccollections
OrderedDict
p0
((lp1
(lp2
S'timestamp'
p3
aF5.687076091766357
aa(lp4
S'distance'
p5
aF75.98929023742676
aa(lp6
S'state'
p7
aI0
aatp8
Rp9
.ccollections
OrderedDict
p0
((lp1
(lp2
S'timestamp'
p3
aF5.697679042816162
aa(lp4
S'distance'
p5
aF75.98929023742676
aa(lp6
S'state'
p7
aI0
aatp8
Rp9
.ccollections
OrderedDict
p0
((lp1
(lp2
S'timestamp'
p3
aF5.698217868804932
aa(lp4
S'distance'
p5
aF75.98929023742676
aa(lp6
S'state'
p7
aI0
aatp8
Rp9
.ccollections
OrderedDict
p0
((lp1
(lp2
S'timestamp'
p3
aF5.706228971481323
aa(lp4
S'distance'
p5
aF75.98929023742676
aa(lp6
S'state'
p7
aI0
aatp8
Rp9
.ccollections
OrderedDict
p0
((lp1
(lp2
S'timestamp'
p3
aF5.706968069076538
aa(lp4
S'distance'
p5
aF75.98929023742676
aa(lp6
S'state'
p7
aI0
aatp8
Rp9
.ccollections
OrderedDict
p0
((lp1
(lp2
S'timestamp'
p3
aF5.716360092163086
aa(lp4
S'distance'
p5
aF75.98929023742676
aa(lp6
S'state'
p7
aI0
aatp8
Rp9
.ccollections
OrderedDict
p0
((lp1
(lp2
S'timestamp'
p3
aF5.717639923095703
aa(lp4
S'distance'
p5
aF75.98929023742676
aa(lp6
S'state'
p7
aI0
aatp8
Rp9
.ccollections
OrderedDict
p0
((lp1
(lp2
S'timestamp'
p3
aF5.727094888687134
aa(lp4
S'distance'
p5
aF75.98929023742676
aa(lp6
S'state'
p7
aI0
aatp8
Rp9
.ccollections
OrderedDict
p0
((lp1
(lp2
S'timestamp'
p3
aF5.727302074432373
aa(lp4
S'distance'
p5
aF75.98929023742676
aa(lp6
S'state'
p7
aI0
aatp8
Rp9
.ccollections
OrderedDict
p0
((lp1
(lp2
S'timestamp'
p3
aF5.736691951751709
aa(lp4
S'distance'
p5
aF75.98929023742676
aa(lp6
S'state'
p7
aI0
aatp8
Rp9
.ccollections
OrderedDict
p0
((lp1
(lp2
S'timestamp'
p3
aF5.737138986587524
aa(lp4
S'distance'
p5
aF75.98929023742676
aa(lp6
S'state'
p7
aI0
aatp8
Rp9
.ccollections
OrderedDict
p0
((lp1
(lp2
S'timestamp'
p3
aF5.7469189167022705
aa(lp4
S'distance'
p5
aF75.98929023742676
aa(lp6
S'state'
p7
aI0
aatp8
Rp9
.ccollections
OrderedDict
p0
((lp1
(lp2
S'timestamp'
p3
aF5.747710943222046
aa(lp4
S'distance'
p5
aF75.98929023742676
aa(lp6
S'state'
p7
aI0
aatp8
Rp9
.ccollections
OrderedDict
p0
((lp1
(lp2
S'timestamp'
p3
aF5.766018867492676
aa(lp4
S'distance'
p5
aF75.98929023742676
aa(lp6
S'state'
p7
aI0
aatp8
Rp9
.ccollections
OrderedDict
p0
((lp1
(lp2
S'timestamp'
p3
aF5.767075061798096
aa(lp4
S'distance'
p5
aF75.98929023742676
aa(lp6
S'state'
p7
aI0
aatp8
Rp9
.ccollections
OrderedDict
p0
((lp1
(lp2
S'timestamp'
p3
aF5.7680559158325195
aa(lp4
S'distance'
p5
aF75.98929023742676
aa(lp6
S'state'
p7
aI0
aatp8
Rp9
.ccollections
OrderedDict
p0
((lp1
(lp2
S'timestamp'
p3
aF5.768220901489258
aa(lp4
S'distance'
p5
aF75.98929023742676
aa(lp6
S'state'
p7
aI0
aatp8
Rp9
.ccollections
OrderedDict
p0
((lp1
(lp2
S'timestamp'
p3
aF5.77631688117981
aa(lp4
S'distance'
p5
aF75.98929023742676
aa(lp6
S'state'
p7
aI0
aatp8
Rp9
.ccollections
OrderedDict
p0
((lp1
(lp2
S'timestamp'
p3
aF5.7767369747161865
aa(lp4
S'distance'
p5
aF75.98929023742676
aa(lp6
S'state'
p7
aI0
aatp8
Rp9
.ccollections
OrderedDict
p0
((lp1
(lp2
S'timestamp'
p3
aF5.786211013793945
aa(lp4
S'distance'
p5
aF75.98929023742676
aa(lp6
S'state'
p7
aI0
aatp8
Rp9
.ccollections
OrderedDict
p0
((lp1
(lp2
S'timestamp'
p3
aF5.787144899368286
aa(lp4
S'distance'
p5
aF75.98929023742676
aa(lp6
S'state'
p7
aI0
aatp8
Rp9
.ccollections
OrderedDict
p0
((lp1
(lp2
S'timestamp'
p3
aF5.796271085739136
aa(lp4
S'distance'
p5
aF75.98929023742676
aa(lp6
S'state'
p7
aI0
aatp8
Rp9
.ccollections
OrderedDict
p0
((lp1
(lp2
S'timestamp'
p3
aF5.796786069869995
aa(lp4
S'distance'
p5
aF75.98929023742676
aa(lp6
S'state'
p7
aI0
aatp8
Rp9
.ccollections
OrderedDict
p0
((lp1
(lp2
S'timestamp'
p3
aF5.806102991104126
aa(lp4
S'distance'
p5
aF75.98929023742676
aa(lp6
S'state'
p7
aI0
aatp8
Rp9
.ccollections
OrderedDict
p0
((lp1
(lp2
S'timestamp'
p3
aF5.806962966918945
aa(lp4
S'distance'
p5
aF75.98929023742676
aa(lp6
S'state'
p7
aI0
aatp8
Rp9
.ccollections
OrderedDict
p0
((lp1
(lp2
S'timestamp'
p3
aF5.826328992843628
aa(lp4
S'distance'
p5
aF75.98929023742676
aa(lp6
S'state'
p7
aI0
aatp8
Rp9
.ccollections
OrderedDict
p0
((lp1
(lp2
S'timestamp'
p3
aF5.8267529010772705
aa(lp4
S'distance'
p5
aF75.98929023742676
aa(lp6
S'state'
p7
aI0
aatp8
Rp9
.ccollections
OrderedDict
p0
((lp1
(lp2
S'timestamp'
p3
aF5.827836036682129
aa(lp4
S'distance'
p5
aF75.98929023742676
aa(lp6
S'state'
p7
aI0
aatp8
Rp9
.ccollections
OrderedDict
p0
((lp1
(lp2
S'timestamp'
p3
aF5.827913045883179
aa(lp4
S'distance'
p5
aF75.98929023742676
aa(lp6
S'state'
p7
aI0
aatp8
Rp9
.ccollections
OrderedDict
p0
((lp1
(lp2
S'timestamp'
p3
aF5.836308002471924
aa(lp4
S'distance'
p5
aF75.98929023742676
aa(lp6
S'state'
p7
aI0
aatp8
Rp9
.ccollections
OrderedDict
p0
((lp1
(lp2
S'timestamp'
p3
aF5.83686089515686
aa(lp4
S'distance'
p5
aF75.98929023742676
aa(lp6
S'state'
p7
aI0
aatp8
Rp9
.ccollections
OrderedDict
p0
((lp1
(lp2
S'timestamp'
p3
aF5.846970081329346
aa(lp4
S'distance'
p5
aF75.98929023742676
aa(lp6
S'state'
p7
aI0
aatp8
Rp9
.ccollections
OrderedDict
p0
((lp1
(lp2
S'timestamp'
p3
aF5.84719705581665
aa(lp4
S'distance'
p5
aF75.98929023742676
aa(lp6
S'state'
p7
aI0
aatp8
Rp9
.ccollections
OrderedDict
p0
((lp1
(lp2
S'timestamp'
p3
aF5.856863975524902
aa(lp4
S'distance'
p5
aF75.98929023742676
aa(lp6
S'state'
p7
aI0
aatp8
Rp9
.ccollections
OrderedDict
p0
((lp1
(lp2
S'timestamp'
p3
aF5.857068061828613
aa(lp4
S'distance'
p5
aF75.98929023742676
aa(lp6
S'state'
p7
aI0
aatp8
Rp9
.ccollections
OrderedDict
p0
((lp1
(lp2
S'timestamp'
p3
aF5.866945028305054
aa(lp4
S'distance'
p5
aF75.98929023742676
aa(lp6
S'state'
p7
aI0
aatp8
Rp9
.ccollections
OrderedDict
p0
((lp1
(lp2
S'timestamp'
p3
aF5.867065906524658
aa(lp4
S'distance'
p5
aF75.98929023742676
aa(lp6
S'state'
p7
aI0
aatp8
Rp9
.ccollections
OrderedDict
p0
((lp1
(lp2
S'timestamp'
p3
aF5.886770963668823
aa(lp4
S'distance'
p5
aF75.98929023742676
aa(lp6
S'state'
p7
aI0
aatp8
Rp9
.ccollections
OrderedDict
p0
((lp1
(lp2
S'timestamp'
p3
aF5.887146949768066
aa(lp4
S'distance'
p5
aF75.98929023742676
aa(lp6
S'state'
p7
aI0
aatp8
Rp9
.ccollections
OrderedDict
p0
((lp1
(lp2
S'timestamp'
p3
aF5.887646913528442
aa(lp4
S'distance'
p5
aF75.98929023742676
aa(lp6
S'state'
p7
aI0
aatp8
Rp9
.ccollections
OrderedDict
p0
((lp1
(lp2
S'timestamp'
p3
aF5.887880086898804
aa(lp4
S'distance'
p5
aF75.98929023742676
aa(lp6
S'state'
p7
aI0
aatp8
Rp9
.ccollections
OrderedDict
p0
((lp1
(lp2
S'timestamp'
p3
aF5.897235870361328
aa(lp4
S'distance'
p5
aF75.98929023742676
aa(lp6
S'state'
p7
aI0
aatp8
Rp9
.ccollections
OrderedDict
p0
((lp1
(lp2
S'timestamp'
p3
aF5.897536039352417
aa(lp4
S'distance'
p5
aF75.98929023742676
aa(lp6
S'state'
p7
aI0
aatp8
Rp9
.ccollections
OrderedDict
p0
((lp1
(lp2
S'timestamp'
p3
aF5.9067370891571045
aa(lp4
S'distance'
p5
aF75.98929023742676
aa(lp6
S'state'
p7
aI0
aatp8
Rp9
.ccollections
OrderedDict
p0
((lp1
(lp2
S'timestamp'
p3
aF5.9078450202941895
aa(lp4
S'distance'
p5
aF75.98929023742676
aa(lp6
S'state'
p7
aI0
aatp8
Rp9
.ccollections
OrderedDict
p0
((lp1
(lp2
S'timestamp'
p3
aF5.91618800163269
aa(lp4
S'distance'
p5
aF75.98929023742676
aa(lp6
S'state'
p7
aI0
aatp8
Rp9
.ccollections
OrderedDict
p0
((lp1
(lp2
S'timestamp'
p3
aF5.917444944381714
aa(lp4
S'distance'
p5
aF75.98929023742676
aa(lp6
S'state'
p7
aI0
aatp8
Rp9
.ccollections
OrderedDict
p0
((lp1
(lp2
S'timestamp'
p3
aF5.926038026809692
aa(lp4
S'distance'
p5
aF75.98929023742676
aa(lp6
S'state'
p7
aI0
aatp8
Rp9
.ccollections
OrderedDict
p0
((lp1
(lp2
S'timestamp'
p3
aF5.927063941955566
aa(lp4
S'distance'
p5
aF75.98929023742676
aa(lp6
S'state'
p7
aI0
aatp8
Rp9
.ccollections
OrderedDict
p0
((lp1
(lp2
S'timestamp'
p3
aF5.93832802772522
aa(lp4
S'distance'
p5
aF75.98929023742676
aa(lp6
S'state'
p7
aI0
aatp8
Rp9
.ccollections
OrderedDict
p0
((lp1
(lp2
S'timestamp'
p3
aF5.938617944717407
aa(lp4
S'distance'
p5
aF75.98929023742676
aa(lp6
S'state'
p7
aI0
aatp8
Rp9
.ccollections
OrderedDict
p0
((lp1
(lp2
S'timestamp'
p3
aF5.9461588859558105
aa(lp4
S'distance'
p5
aF75.98929023742676
aa(lp6
S'state'
p7
aI0
aatp8
Rp9
.ccollections
OrderedDict
p0
((lp1
(lp2
S'timestamp'
p3
aF5.956676959991455
aa(lp4
S'distance'
p5
aF75.98929023742676
aa(lp6
S'state'
p7
aI0
aatp8
Rp9
.ccollections
OrderedDict
p0
((lp1
(lp2
S'timestamp'
p3
aF5.956851005554199
aa(lp4
S'distance'
p5
aF75.98929023742676
aa(lp6
S'state'
p7
aI0
aatp8
Rp9
.ccollections
OrderedDict
p0
((lp1
(lp2
S'timestamp'
p3
aF5.957618951797485
aa(lp4
S'distance'
p5
aF75.98929023742676
aa(lp6
S'state'
p7
aI0
aatp8
Rp9
.ccollections
OrderedDict
p0
((lp1
(lp2
S'timestamp'
p3
aF5.966871023178101
aa(lp4
S'distance'
p5
aF75.98929023742676
aa(lp6
S'state'
p7
aI0
aatp8
Rp9
.ccollections
OrderedDict
p0
((lp1
(lp2
S'timestamp'
p3
aF5.9670329093933105
aa(lp4
S'distance'
p5
aF75.98929023742676
aa(lp6
S'state'
p7
aI0
aatp8
Rp9
.ccollections
OrderedDict
p0
((lp1
(lp2
S'timestamp'
p3
aF5.976862907409668
aa(lp4
S'distance'
p5
aF75.98929023742676
aa(lp6
S'state'
p7
aI0
aatp8
Rp9
.ccollections
OrderedDict
p0
((lp1
(lp2
S'timestamp'
p3
aF5.977395057678223
aa(lp4
S'distance'
p5
aF75.98929023742676
aa(lp6
S'state'
p7
aI0
aatp8
Rp9
.ccollections
OrderedDict
p0
((lp1
(lp2
S'timestamp'
p3
aF5.986816883087158
aa(lp4
S'distance'
p5
aF75.98929023742676
aa(lp6
S'state'
p7
aI0
aatp8
Rp9
.ccollections
OrderedDict
p0
((lp1
(lp2
S'timestamp'
p3
aF5.986896991729736
aa(lp4
S'distance'
p5
aF75.98929023742676
aa(lp6
S'state'
p7
aI0
aatp8
Rp9
.ccollections
OrderedDict
p0
((lp1
(lp2
S'timestamp'
p3
aF5.996263027191162
aa(lp4
S'distance'
p5
aF75.98929023742676
aa(lp6
S'state'
p7
aI0
aatp8
Rp9
.ccollections
OrderedDict
p0
((lp1
(lp2
S'timestamp'
p3
aF5.996815919876099
aa(lp4
S'distance'
p5
aF75.98929023742676
aa(lp6
S'state'
p7
aI0
aatp8
Rp9
.ccollections
OrderedDict
p0
((lp1
(lp2
S'timestamp'
p3
aF6.005982875823975
aa(lp4
S'distance'
p5
aF75.98929023742676
aa(lp6
S'state'
p7
aI0
aatp8
Rp9
.ccollections
OrderedDict
p0
((lp1
(lp2
S'timestamp'
p3
aF6.006907939910889
aa(lp4
S'distance'
p5
aF75.98929023742676
aa(lp6
S'state'
p7
aI0
aatp8
Rp9
.ccollections
OrderedDict
p0
((lp1
(lp2
S'timestamp'
p3
aF6.017632007598877
aa(lp4
S'distance'
p5
aF75.98929023742676
aa(lp6
S'state'
p7
aI0
aatp8
Rp9
.ccollections
OrderedDict
p0
((lp1
(lp2
S'timestamp'
p3
aF6.017806053161621
aa(lp4
S'distance'
p5
aF75.98929023742676
aa(lp6
S'state'
p7
aI0
aatp8
Rp9
.ccollections
OrderedDict
p0
((lp1
(lp2
S'timestamp'
p3
aF6.028512954711914
aa(lp4
S'distance'
p5
aF75.98929023742676
aa(lp6
S'state'
p7
aI0
aatp8
Rp9
.ccollections
OrderedDict
p0
((lp1
(lp2
S'timestamp'
p3
aF6.028785943984985
aa(lp4
S'distance'
p5
aF75.98929023742676
aa(lp6
S'state'
p7
aI0
aatp8
Rp9
.ccollections
OrderedDict
p0
((lp1
(lp2
S'timestamp'
p3
aF6.03692889213562
aa(lp4
S'distance'
p5
aF75.98929023742676
aa(lp6
S'state'
p7
aI0
aatp8
Rp9
.ccollections
OrderedDict
p0
((lp1
(lp2
S'timestamp'
p3
aF6.038136959075928
aa(lp4
S'distance'
p5
aF75.98929023742676
aa(lp6
S'state'
p7
aI0
aatp8
Rp9
.ccollections
OrderedDict
p0
((lp1
(lp2
S'timestamp'
p3
aF6.04620099067688
aa(lp4
S'distance'
p5
aF75.98929023742676
aa(lp6
S'state'
p7
aI0
aatp8
Rp9
.ccollections
OrderedDict
p0
((lp1
(lp2
S'timestamp'
p3
aF6.0474488735198975
aa(lp4
S'distance'
p5
aF75.98929023742676
aa(lp6
S'state'
p7
aI0
aatp8
Rp9
.ccollections
OrderedDict
p0
((lp1
(lp2
S'timestamp'
p3
aF6.057288885116577
aa(lp4
S'distance'
p5
aF75.98929023742676
aa(lp6
S'state'
p7
aI0
aatp8
Rp9
.ccollections
OrderedDict
p0
((lp1
(lp2
S'timestamp'
p3
aF6.057453870773315
aa(lp4
S'distance'
p5
aF75.98929023742676
aa(lp6
S'state'
p7
aI0
aatp8
Rp9
.ccollections
OrderedDict
p0
((lp1
(lp2
S'timestamp'
p3
aF6.0690929889678955
aa(lp4
S'distance'
p5
aF75.98929023742676
aa(lp6
S'state'
p7
aI0
aatp8
Rp9
.ccollections
OrderedDict
p0
((lp1
(lp2
S'timestamp'
p3
aF6.069385051727295
aa(lp4
S'distance'
p5
aF75.98929023742676
aa(lp6
S'state'
p7
aI0
aatp8
Rp9
.ccollections
OrderedDict
p0
((lp1
(lp2
S'timestamp'
p3
aF6.0761730670928955
aa(lp4
S'distance'
p5
aF75.98929023742676
aa(lp6
S'state'
p7
aI0
aatp8
Rp9
.ccollections
OrderedDict
p0
((lp1
(lp2
S'timestamp'
p3
aF6.077024936676025
aa(lp4
S'distance'
p5
aF75.98929023742676
aa(lp6
S'state'
p7
aI0
aatp8
Rp9
.ccollections
OrderedDict
p0
((lp1
(lp2
S'timestamp'
p3
aF6.086297035217285
aa(lp4
S'distance'
p5
aF75.98929023742676
aa(lp6
S'state'
p7
aI0
aatp8
Rp9
.ccollections
OrderedDict
p0
((lp1
(lp2
S'timestamp'
p3
aF6.087368011474609
aa(lp4
S'distance'
p5
aF75.98929023742676
aa(lp6
S'state'
p7
aI0
aatp8
Rp9
.ccollections
OrderedDict
p0
((lp1
(lp2
S'timestamp'
p3
aF6.099232912063599
aa(lp4
S'distance'
p5
aF75.98929023742676
aa(lp6
S'state'
p7
aI0
aatp8
Rp9
.ccollections
OrderedDict
p0
((lp1
(lp2
S'timestamp'
p3
aF6.0993030071258545
aa(lp4
S'distance'
p5
aF75.98929023742676
aa(lp6
S'state'
p7
aI0
aatp8
Rp9
.ccollections
OrderedDict
p0
((lp1
(lp2
S'timestamp'
p3
aF6.10604190826416
aa(lp4
S'distance'
p5
aF75.98929023742676
aa(lp6
S'state'
p7
aI0
aatp8
Rp9
.ccollections
OrderedDict
p0
((lp1
(lp2
S'timestamp'
p3
aF6.1083478927612305
aa(lp4
S'distance'
p5
aF75.98929023742676
aa(lp6
S'state'
p7
aI0
aatp8
Rp9
.ccollections
OrderedDict
p0
((lp1
(lp2
S'timestamp'
p3
aF6.116626024246216
aa(lp4
S'distance'
p5
aF75.98929023742676
aa(lp6
S'state'
p7
aI0
aatp8
Rp9
.ccollections
OrderedDict
p0
((lp1
(lp2
S'timestamp'
p3
aF6.116795063018799
aa(lp4
S'distance'
p5
aF75.98929023742676
aa(lp6
S'state'
p7
aI0
aatp8
Rp9
.ccollections
OrderedDict
p0
((lp1
(lp2
S'timestamp'
p3
aF6.137235879898071
aa(lp4
S'distance'
p5
aF75.98929023742676
aa(lp6
S'state'
p7
aI0
aatp8
Rp9
.ccollections
OrderedDict
p0
((lp1
(lp2
S'timestamp'
p3
aF6.137372970581055
aa(lp4
S'distance'
p5
aF75.98929023742676
aa(lp6
S'state'
p7
aI0
aatp8
Rp9
.ccollections
OrderedDict
p0
((lp1
(lp2
S'timestamp'
p3
aF6.138352870941162
aa(lp4
S'distance'
p5
aF75.98929023742676
aa(lp6
S'state'
p7
aI0
aatp8
Rp9
.ccollections
OrderedDict
p0
((lp1
(lp2
S'timestamp'
p3
aF6.139298915863037
aa(lp4
S'distance'
p5
aF75.98929023742676
aa(lp6
S'state'
p7
aI0
aatp8
Rp9
.ccollections
OrderedDict
p0
((lp1
(lp2
S'timestamp'
p3
aF6.14612603187561
aa(lp4
S'distance'
p5
aF75.98929023742676
aa(lp6
S'state'
p7
aI0
aatp8
Rp9
.ccollections
OrderedDict
p0
((lp1
(lp2
S'timestamp'
p3
aF6.14828896522522
aa(lp4
S'distance'
p5
aF75.98929023742676
aa(lp6
S'state'
p7
aI0
aatp8
Rp9
.ccollections
OrderedDict
p0
((lp1
(lp2
S'timestamp'
p3
aF6.156591892242432
aa(lp4
S'distance'
p5
aF75.98929023742676
aa(lp6
S'state'
p7
aI0
aatp8
Rp9
.ccollections
OrderedDict
p0
((lp1
(lp2
S'timestamp'
p3
aF6.158294916152954
aa(lp4
S'distance'
p5
aF75.98929023742676
aa(lp6
S'state'
p7
aI0
aatp8
Rp9
.ccollections
OrderedDict
p0
((lp1
(lp2
S'timestamp'
p3
aF6.166333913803101
aa(lp4
S'distance'
p5
aF75.98929023742676
aa(lp6
S'state'
p7
aI0
aatp8
Rp9
.ccollections
OrderedDict
p0
((lp1
(lp2
S'timestamp'
p3
aF6.167078018188477
aa(lp4
S'distance'
p5
aF75.98929023742676
aa(lp6
S'state'
p7
aI0
aatp8
Rp9
.ccollections
OrderedDict
p0
((lp1
(lp2
S'timestamp'
p3
aF6.177825927734375
aa(lp4
S'distance'
p5
aF75.98929023742676
aa(lp6
S'state'
p7
aI0
aatp8
Rp9
.ccollections
OrderedDict
p0
((lp1
(lp2
S'timestamp'
p3
aF6.17800498008728
aa(lp4
S'distance'
p5
aF75.98929023742676
aa(lp6
S'state'
p7
aI0
aatp8
Rp9
.ccollections
OrderedDict
p0
((lp1
(lp2
S'timestamp'
p3
aF6.186145067214966
aa(lp4
S'distance'
p5
aF75.98929023742676
aa(lp6
S'state'
p7
aI0
aatp8
Rp9
.ccollections
OrderedDict
p0
((lp1
(lp2
S'timestamp'
p3
aF6.186966896057129
aa(lp4
S'distance'
p5
aF75.98929023742676
aa(lp6
S'state'
p7
aI0
aatp8
Rp9
.ccollections
OrderedDict
p0
((lp1
(lp2
S'timestamp'
p3
aF6.196346044540405
aa(lp4
S'distance'
p5
aF75.98929023742676
aa(lp6
S'state'
p7
aI0
aatp8
Rp9
.ccollections
OrderedDict
p0
((lp1
(lp2
S'timestamp'
p3
aF6.199367046356201
aa(lp4
S'distance'
p5
aF75.98929023742676
aa(lp6
S'state'
p7
aI0
aatp8
Rp9
.ccollections
OrderedDict
p0
((lp1
(lp2
S'timestamp'
p3
aF6.20624303817749
aa(lp4
S'distance'
p5
aF75.98929023742676
aa(lp6
S'state'
p7
aI0
aatp8
Rp9
.ccollections
OrderedDict
p0
((lp1
(lp2
S'timestamp'
p3
aF6.207787036895752
aa(lp4
S'distance'
p5
aF75.98929023742676
aa(lp6
S'state'
p7
aI0
aatp8
Rp9
.ccollections
OrderedDict
p0
((lp1
(lp2
S'timestamp'
p3
aF6.216604948043823
aa(lp4
S'distance'
p5
aF75.98929023742676
aa(lp6
S'state'
p7
aI0
aatp8
Rp9
.ccollections
OrderedDict
p0
((lp1
(lp2
S'timestamp'
p3
aF6.217328071594238
aa(lp4
S'distance'
p5
aF75.98929023742676
aa(lp6
S'state'
p7
aI0
aatp8
Rp9
.ccollections
OrderedDict
p0
((lp1
(lp2
S'timestamp'
p3
aF6.225977897644043
aa(lp4
S'distance'
p5
aF75.98929023742676
aa(lp6
S'state'
p7
aI0
aatp8
Rp9
.ccollections
OrderedDict
p0
((lp1
(lp2
S'timestamp'
p3
aF6.228563070297241
aa(lp4
S'distance'
p5
aF75.98929023742676
aa(lp6
S'state'
p7
aI0
aatp8
Rp9
.ccollections
OrderedDict
p0
((lp1
(lp2
S'timestamp'
p3
aF6.235969066619873
aa(lp4
S'distance'
p5
aF75.98929023742676
aa(lp6
S'state'
p7
aI0
aatp8
Rp9
.ccollections
OrderedDict
p0
((lp1
(lp2
S'timestamp'
p3
aF6.2386369705200195
aa(lp4
S'distance'
p5
aF75.98929023742676
aa(lp6
S'state'
p7
aI0
aatp8
Rp9
.ccollections
OrderedDict
p0
((lp1
(lp2
S'timestamp'
p3
aF6.2659430503845215
aa(lp4
S'distance'
p5
aF75.98929023742676
aa(lp6
S'state'
p7
aI0
aatp8
Rp9
.ccollections
OrderedDict
p0
((lp1
(lp2
S'timestamp'
p3
aF6.267498016357422
aa(lp4
S'distance'
p5
aF75.98929023742676
aa(lp6
S'state'
p7
aI0
aatp8
Rp9
.ccollections
OrderedDict
p0
((lp1
(lp2
S'timestamp'
p3
aF6.26761794090271
aa(lp4
S'distance'
p5
aF75.98929023742676
aa(lp6
S'state'
p7
aI0
aatp8
Rp9
.ccollections
OrderedDict
p0
((lp1
(lp2
S'timestamp'
p3
aF6.268466949462891
aa(lp4
S'distance'
p5
aF75.98929023742676
aa(lp6
S'state'
p7
aI0
aatp8
Rp9
.ccollections
OrderedDict
p0
((lp1
(lp2
S'timestamp'
p3
aF6.275965929031372
aa(lp4
S'distance'
p5
aF75.98929023742676
aa(lp6
S'state'
p7
aI0
aatp8
Rp9
.ccollections
OrderedDict
p0
((lp1
(lp2
S'timestamp'
p3
aF6.2774999141693115
aa(lp4
S'distance'
p5
aF75.98929023742676
aa(lp6
S'state'
p7
aI0
aatp8
Rp9
.ccollections
OrderedDict
p0
((lp1
(lp2
S'timestamp'
p3
aF6.277601003646851
aa(lp4
S'distance'
p5
aF75.98929023742676
aa(lp6
S'state'
p7
aI0
aatp8
Rp9
.ccollections
OrderedDict
p0
((lp1
(lp2
S'timestamp'
p3
aF6.278812885284424
aa(lp4
S'distance'
p5
aF75.98929023742676
aa(lp6
S'state'
p7
aI0
aatp8
Rp9
.ccollections
OrderedDict
p0
((lp1
(lp2
S'timestamp'
p3
aF6.296444892883301
aa(lp4
S'distance'
p5
aF75.98929023742676
aa(lp6
S'state'
p7
aI0
aatp8
Rp9
.ccollections
OrderedDict
p0
((lp1
(lp2
S'timestamp'
p3
aF6.296696901321411
aa(lp4
S'distance'
p5
aF75.98929023742676
aa(lp6
S'state'
p7
aI0
aatp8
Rp9
.ccollections
OrderedDict
p0
((lp1
(lp2
S'timestamp'
p3
aF6.29787802696228
aa(lp4
S'distance'
p5
aF75.98929023742676
aa(lp6
S'state'
p7
aI0
aatp8
Rp9
.ccollections
OrderedDict
p0
((lp1
(lp2
S'timestamp'
p3
aF6.299082040786743
aa(lp4
S'distance'
p5
aF75.98929023742676
aa(lp6
S'state'
p7
aI0
aatp8
Rp9
.ccollections
OrderedDict
p0
((lp1
(lp2
S'timestamp'
p3
aF6.306225061416626
aa(lp4
S'distance'
p5
aF75.98929023742676
aa(lp6
S'state'
p7
aI0
aatp8
Rp9
.ccollections
OrderedDict
p0
((lp1
(lp2
S'timestamp'
p3
aF6.306856870651245
aa(lp4
S'distance'
p5
aF75.98929023742676
aa(lp6
S'state'
p7
aI0
aatp8
Rp9
.ccollections
OrderedDict
p0
((lp1
(lp2
S'timestamp'
p3
aF6.315958023071289
aa(lp4
S'distance'
p5
aF75.98929023742676
aa(lp6
S'state'
p7
aI0
aatp8
Rp9
.ccollections
OrderedDict
p0
((lp1
(lp2
S'timestamp'
p3
aF6.317447900772095
aa(lp4
S'distance'
p5
aF75.98929023742676
aa(lp6
S'state'
p7
aI0
aatp8
Rp9
.ccollections
OrderedDict
p0
((lp1
(lp2
S'timestamp'
p3
aF6.32593297958374
aa(lp4
S'distance'
p5
aF75.98929023742676
aa(lp6
S'state'
p7
aI0
aatp8
Rp9
.ccollections
OrderedDict
p0
((lp1
(lp2
S'timestamp'
p3
aF6.326943874359131
aa(lp4
S'distance'
p5
aF75.98929023742676
aa(lp6
S'state'
p7
aI0
aatp8
Rp9
.ccollections
OrderedDict
p0
((lp1
(lp2
S'timestamp'
p3
aF6.3364949226379395
aa(lp4
S'distance'
p5
aF75.98929023742676
aa(lp6
S'state'
p7
aI0
aatp8
Rp9
.ccollections
OrderedDict
p0
((lp1
(lp2
S'timestamp'
p3
aF6.3378400802612305
aa(lp4
S'distance'
p5
aF75.98929023742676
aa(lp6
S'state'
p7
aI0
aatp8
Rp9
.ccollections
OrderedDict
p0
((lp1
(lp2
S'timestamp'
p3
aF6.345901966094971
aa(lp4
S'distance'
p5
aF75.98929023742676
aa(lp6
S'state'
p7
aI0
aatp8
Rp9
.ccollections
OrderedDict
p0
((lp1
(lp2
S'timestamp'
p3
aF6.346976041793823
aa(lp4
S'distance'
p5
aF75.98929023742676
aa(lp6
S'state'
p7
aI0
aatp8
Rp9
.ccollections
OrderedDict
p0
((lp1
(lp2
S'timestamp'
p3
aF6.3559229373931885
aa(lp4
S'distance'
p5
aF75.98929023742676
aa(lp6
S'state'
p7
aI0
aatp8
Rp9
.ccollections
OrderedDict
p0
((lp1
(lp2
S'timestamp'
p3
aF6.358183860778809
aa(lp4
S'distance'
p5
aF75.98929023742676
aa(lp6
S'state'
p7
aI0
aatp8
Rp9
.ccollections
OrderedDict
p0
((lp1
(lp2
S'timestamp'
p3
aF6.368151903152466
aa(lp4
S'distance'
p5
aF75.98929023742676
aa(lp6
S'state'
p7
aI0
aatp8
Rp9
.ccollections
OrderedDict
p0
((lp1
(lp2
S'timestamp'
p3
aF6.368365049362183
aa(lp4
S'distance'
p5
aF75.98929023742676
aa(lp6
S'state'
p7
aI0
aatp8
Rp9
.ccollections
OrderedDict
p0
((lp1
(lp2
S'timestamp'
p3
aF6.377259969711304
aa(lp4
S'distance'
p5
aF75.98929023742676
aa(lp6
S'state'
p7
aI0
aatp8
Rp9
.ccollections
OrderedDict
p0
((lp1
(lp2
S'timestamp'
p3
aF6.377466917037964
aa(lp4
S'distance'
p5
aF75.98929023742676
aa(lp6
S'state'
p7
aI0
aatp8
Rp9
.ccollections
OrderedDict
p0
((lp1
(lp2
S'timestamp'
p3
aF6.3861470222473145
aa(lp4
S'distance'
p5
aF75.98929023742676
aa(lp6
S'state'
p7
aI0
aatp8
Rp9
.ccollections
OrderedDict
p0
((lp1
(lp2
S'timestamp'
p3
aF6.3869359493255615
aa(lp4
S'distance'
p5
aF75.98929023742676
aa(lp6
S'state'
p7
aI0
aatp8
Rp9
.ccollections
OrderedDict
p0
((lp1
(lp2
S'timestamp'
p3
aF6.3967790603637695
aa(lp4
S'distance'
p5
aF75.98929023742676
aa(lp6
S'state'
p7
aI0
aatp8
Rp9
.ccollections
OrderedDict
p0
((lp1
(lp2
S'timestamp'
p3
aF6.396998882293701
aa(lp4
S'distance'
p5
aF75.98929023742676
aa(lp6
S'state'
p7
aI0
aatp8
Rp9
.ccollections
OrderedDict
p0
((lp1
(lp2
S'timestamp'
p3
aF6.406173944473267
aa(lp4
S'distance'
p5
aF75.98929023742676
aa(lp6
S'state'
p7
aI0
aatp8
Rp9
.ccollections
OrderedDict
p0
((lp1
(lp2
S'timestamp'
p3
aF6.407067060470581
aa(lp4
S'distance'
p5
aF75.98929023742676
aa(lp6
S'state'
p7
aI0
aatp8
Rp9
.ccollections
OrderedDict
p0
((lp1
(lp2
S'timestamp'
p3
aF6.416070938110352
aa(lp4
S'distance'
p5
aF75.98929023742676
aa(lp6
S'state'
p7
aI0
aatp8
Rp9
.ccollections
OrderedDict
p0
((lp1
(lp2
S'timestamp'
p3
aF6.417156934738159
aa(lp4
S'distance'
p5
aF75.98929023742676
aa(lp6
S'state'
p7
aI0
aatp8
Rp9
.ccollections
OrderedDict
p0
((lp1
(lp2
S'timestamp'
p3
aF6.4260900020599365
aa(lp4
S'distance'
p5
aF75.98929023742676
aa(lp6
S'state'
p7
aI0
aatp8
Rp9
.ccollections
OrderedDict
p0
((lp1
(lp2
S'timestamp'
p3
aF6.429264068603516
aa(lp4
S'distance'
p5
aF75.98929023742676
aa(lp6
S'state'
p7
aI0
aatp8
Rp9
.ccollections
OrderedDict
p0
((lp1
(lp2
S'timestamp'
p3
aF6.437290906906128
aa(lp4
S'distance'
p5
aF75.98929023742676
aa(lp6
S'state'
p7
aI0
aatp8
Rp9
.ccollections
OrderedDict
p0
((lp1
(lp2
S'timestamp'
p3
aF6.437723875045776
aa(lp4
S'distance'
p5
aF75.98929023742676
aa(lp6
S'state'
p7
aI0
aatp8
Rp9
.ccollections
OrderedDict
p0
((lp1
(lp2
S'timestamp'
p3
aF6.445875883102417
aa(lp4
S'distance'
p5
aF75.98929023742676
aa(lp6
S'state'
p7
aI0
aatp8
Rp9
.ccollections
OrderedDict
p0
((lp1
(lp2
S'timestamp'
p3
aF6.447242021560669
aa(lp4
S'distance'
p5
aF75.98929023742676
aa(lp6
S'state'
p7
aI0
aatp8
Rp9
.ccollections
OrderedDict
p0
((lp1
(lp2
S'timestamp'
p3
aF6.456701040267944
aa(lp4
S'distance'
p5
aF75.98929023742676
aa(lp6
S'state'
p7
aI0
aatp8
Rp9
.ccollections
OrderedDict
p0
((lp1
(lp2
S'timestamp'
p3
aF6.45776891708374
aa(lp4
S'distance'
p5
aF75.98929023742676
aa(lp6
S'state'
p7
aI0
aatp8
Rp9
.ccollections
OrderedDict
p0
((lp1
(lp2
S'timestamp'
p3
aF6.467325925827026
aa(lp4
S'distance'
p5
aF75.98929023742676
aa(lp6
S'state'
p7
aI0
aatp8
Rp9
.ccollections
OrderedDict
p0
((lp1
(lp2
S'timestamp'
p3
aF6.467504024505615
aa(lp4
S'distance'
p5
aF75.98929023742676
aa(lp6
S'state'
p7
aI0
aatp8
Rp9
.ccollections
OrderedDict
p0
((lp1
(lp2
S'timestamp'
p3
aF6.477658033370972
aa(lp4
S'distance'
p5
aF75.98929023742676
aa(lp6
S'state'
p7
aI0
aatp8
Rp9
.ccollections
OrderedDict
p0
((lp1
(lp2
S'timestamp'
p3
aF6.4778289794921875
aa(lp4
S'distance'
p5
aF75.98929023742676
aa(lp6
S'state'
p7
aI0
aatp8
Rp9
.ccollections
OrderedDict
p0
((lp1
(lp2
S'timestamp'
p3
aF6.48755407333374
aa(lp4
S'distance'
p5
aF75.98929023742676
aa(lp6
S'state'
p7
aI0
aatp8
Rp9
.ccollections
OrderedDict
p0
((lp1
(lp2
S'timestamp'
p3
aF6.487966060638428
aa(lp4
S'distance'
p5
aF75.98929023742676
aa(lp6
S'state'
p7
aI0
aatp8
Rp9
.ccollections
OrderedDict
p0
((lp1
(lp2
S'timestamp'
p3
aF6.506417989730835
aa(lp4
S'distance'
p5
aF75.98929023742676
aa(lp6
S'state'
p7
aI0
aatp8
Rp9
.ccollections
OrderedDict
p0
((lp1
(lp2
S'timestamp'
p3
aF6.507224082946777
aa(lp4
S'distance'
p5
aF75.98929023742676
aa(lp6
S'state'
p7
aI0
aatp8
Rp9
.ccollections
OrderedDict
p0
((lp1
(lp2
S'timestamp'
p3
aF6.507611036300659
aa(lp4
S'distance'
p5
aF75.98929023742676
aa(lp6
S'state'
p7
aI0
aatp8
Rp9
.ccollections
OrderedDict
p0
((lp1
(lp2
S'timestamp'
p3
aF6.508846044540405
aa(lp4
S'distance'
p5
aF75.98929023742676
aa(lp6
S'state'
p7
aI0
aatp8
Rp9
.ccollections
OrderedDict
p0
((lp1
(lp2
S'timestamp'
p3
aF6.516495943069458
aa(lp4
S'distance'
p5
aF75.98929023742676
aa(lp6
S'state'
p7
aI0
aatp8
Rp9
.ccollections
OrderedDict
p0
((lp1
(lp2
S'timestamp'
p3
aF6.516668081283569
aa(lp4
S'distance'
p5
aF75.98929023742676
aa(lp6
S'state'
p7
aI0
aatp8
Rp9
.ccollections
OrderedDict
p0
((lp1
(lp2
S'timestamp'
p3
aF6.527976989746094
aa(lp4
S'distance'
p5
aF75.98929023742676
aa(lp6
S'state'
p7
aI0
aatp8
Rp9
.ccollections
OrderedDict
p0
((lp1
(lp2
S'timestamp'
p3
aF6.528058052062988
aa(lp4
S'distance'
p5
aF75.98929023742676
aa(lp6
S'state'
p7
aI0
aatp8
Rp9
.ccollections
OrderedDict
p0
((lp1
(lp2
S'timestamp'
p3
aF6.537460088729858
aa(lp4
S'distance'
p5
aF75.98929023742676
aa(lp6
S'state'
p7
aI0
aatp8
Rp9
.ccollections
OrderedDict
p0
((lp1
(lp2
S'timestamp'
p3
aF6.538477897644043
aa(lp4
S'distance'
p5
aF75.98929023742676
aa(lp6
S'state'
p7
aI0
aatp8
Rp9
.ccollections
OrderedDict
p0
((lp1
(lp2
S'timestamp'
p3
aF6.546442985534668
aa(lp4
S'distance'
p5
aF75.98929023742676
aa(lp6
S'state'
p7
aI0
aatp8
Rp9
.ccollections
OrderedDict
p0
((lp1
(lp2
S'timestamp'
p3
aF6.5469019412994385
aa(lp4
S'distance'
p5
aF75.98929023742676
aa(lp6
S'state'
p7
aI0
aatp8
Rp9
.ccollections
OrderedDict
p0
((lp1
(lp2
S'timestamp'
p3
aF6.556281089782715
aa(lp4
S'distance'
p5
aF75.98929023742676
aa(lp6
S'state'
p7
aI0
aatp8
Rp9
.ccollections
OrderedDict
p0
((lp1
(lp2
S'timestamp'
p3
aF6.557168006896973
aa(lp4
S'distance'
p5
aF75.98929023742676
aa(lp6
S'state'
p7
aI0
aatp8
Rp9
.ccollections
OrderedDict
p0
((lp1
(lp2
S'timestamp'
p3
aF6.566273927688599
aa(lp4
S'distance'
p5
aF75.98929023742676
aa(lp6
S'state'
p7
aI0
aatp8
Rp9
.ccollections
OrderedDict
p0
((lp1
(lp2
S'timestamp'
p3
aF6.566763877868652
aa(lp4
S'distance'
p5
aF75.98929023742676
aa(lp6
S'state'
p7
aI0
aatp8
Rp9
.ccollections
OrderedDict
p0
((lp1
(lp2
S'timestamp'
p3
aF6.576566934585571
aa(lp4
S'distance'
p5
aF75.98929023742676
aa(lp6
S'state'
p7
aI0
aatp8
Rp9
.ccollections
OrderedDict
p0
((lp1
(lp2
S'timestamp'
p3
aF6.577168941497803
aa(lp4
S'distance'
p5
aF75.98929023742676
aa(lp6
S'state'
p7
aI0
aatp8
Rp9
.ccollections
OrderedDict
p0
((lp1
(lp2
S'timestamp'
p3
aF6.586374044418335
aa(lp4
S'distance'
p5
aF75.98929023742676
aa(lp6
S'state'
p7
aI0
aatp8
Rp9
.ccollections
OrderedDict
p0
((lp1
(lp2
S'timestamp'
p3
aF6.5874810218811035
aa(lp4
S'distance'
p5
aF75.98929023742676
aa(lp6
S'state'
p7
aI0
aatp8
Rp9
.ccollections
OrderedDict
p0
((lp1
(lp2
S'timestamp'
p3
aF6.596229076385498
aa(lp4
S'distance'
p5
aF75.98929023742676
aa(lp6
S'state'
p7
aI0
aatp8
Rp9
.ccollections
OrderedDict
p0
((lp1
(lp2
S'timestamp'
p3
aF6.5979790687561035
aa(lp4
S'distance'
p5
aF75.98929023742676
aa(lp6
S'state'
p7
aI0
aatp8
Rp9
.ccollections
OrderedDict
p0
((lp1
(lp2
S'timestamp'
p3
aF6.607457876205444
aa(lp4
S'distance'
p5
aF75.98929023742676
aa(lp6
S'state'
p7
aI0
aatp8
Rp9
.ccollections
OrderedDict
p0
((lp1
(lp2
S'timestamp'
p3
aF6.608198881149292
aa(lp4
S'distance'
p5
aF75.98929023742676
aa(lp6
S'state'
p7
aI0
aatp8
Rp9
.ccollections
OrderedDict
p0
((lp1
(lp2
S'timestamp'
p3
aF6.626143932342529
aa(lp4
S'distance'
p5
aF75.98929023742676
aa(lp6
S'state'
p7
aI0
aatp8
Rp9
.ccollections
OrderedDict
p0
((lp1
(lp2
S'timestamp'
p3
aF6.627300977706909
aa(lp4
S'distance'
p5
aF75.98929023742676
aa(lp6
S'state'
p7
aI0
aatp8
Rp9
.ccollections
OrderedDict
p0
((lp1
(lp2
S'timestamp'
p3
aF6.629656076431274
aa(lp4
S'distance'
p5
aF75.98929023742676
aa(lp6
S'state'
p7
aI0
aatp8
Rp9
.ccollections
OrderedDict
p0
((lp1
(lp2
S'timestamp'
p3
aF6.631133079528809
aa(lp4
S'distance'
p5
aF75.98929023742676
aa(lp6
S'state'
p7
aI0
aatp8
Rp9
.ccollections
OrderedDict
p0
((lp1
(lp2
S'timestamp'
p3
aF6.638472080230713
aa(lp4
S'distance'
p5
aF75.98929023742676
aa(lp6
S'state'
p7
aI0
aatp8
Rp9
.ccollections
OrderedDict
p0
((lp1
(lp2
S'timestamp'
p3
aF6.638706922531128
aa(lp4
S'distance'
p5
aF75.98929023742676
aa(lp6
S'state'
p7
aI0
aatp8
Rp9
.ccollections
OrderedDict
p0
((lp1
(lp2
S'timestamp'
p3
aF6.64624285697937
aa(lp4
S'distance'
p5
aF75.98929023742676
aa(lp6
S'state'
p7
aI0
aatp8
Rp9
.ccollections
OrderedDict
p0
((lp1
(lp2
S'timestamp'
p3
aF6.6466710567474365
aa(lp4
S'distance'
p5
aF75.98929023742676
aa(lp6
S'state'
p7
aI0
aatp8
Rp9
.ccollections
OrderedDict
p0
((lp1
(lp2
S'timestamp'
p3
aF6.656827926635742
aa(lp4
S'distance'
p5
aF75.98929023742676
aa(lp6
S'state'
p7
aI0
aatp8
Rp9
.ccollections
OrderedDict
p0
((lp1
(lp2
S'timestamp'
p3
aF6.658676862716675
aa(lp4
S'distance'
p5
aF75.98929023742676
aa(lp6
S'state'
p7
aI0
aatp8
Rp9
.ccollections
OrderedDict
p0
((lp1
(lp2
S'timestamp'
p3
aF6.6658570766448975
aa(lp4
S'distance'
p5
aF75.98929023742676
aa(lp6
S'state'
p7
aI0
aatp8
Rp9
.ccollections
OrderedDict
p0
((lp1
(lp2
S'timestamp'
p3
aF6.668155908584595
aa(lp4
S'distance'
p5
aF75.98929023742676
aa(lp6
S'state'
p7
aI0
aatp8
Rp9
.ccollections
OrderedDict
p0
((lp1
(lp2
S'timestamp'
p3
aF6.677605867385864
aa(lp4
S'distance'
p5
aF75.98929023742676
aa(lp6
S'state'
p7
aI0
aatp8
Rp9
.ccollections
OrderedDict
p0
((lp1
(lp2
S'timestamp'
p3
aF6.6787049770355225
aa(lp4
S'distance'
p5
aF75.98929023742676
aa(lp6
S'state'
p7
aI0
aatp8
Rp9
.ccollections
OrderedDict
p0
((lp1
(lp2
S'timestamp'
p3
aF6.6859588623046875
aa(lp4
S'distance'
p5
aF75.98929023742676
aa(lp6
S'state'
p7
aI0
aatp8
Rp9
.ccollections
OrderedDict
p0
((lp1
(lp2
S'timestamp'
p3
aF6.688304901123047
aa(lp4
S'distance'
p5
aF75.98929023742676
aa(lp6
S'state'
p7
aI0
aatp8
Rp9
.ccollections
OrderedDict
p0
((lp1
(lp2
S'timestamp'
p3
aF6.696254014968872
aa(lp4
S'distance'
p5
aF75.98929023742676
aa(lp6
S'state'
p7
aI0
aatp8
Rp9
.ccollections
OrderedDict
p0
((lp1
(lp2
S'timestamp'
p3
aF6.69714093208313
aa(lp4
S'distance'
p5
aF75.98929023742676
aa(lp6
S'state'
p7
aI0
aatp8
Rp9
.ccollections
OrderedDict
p0
((lp1
(lp2
S'timestamp'
p3
aF6.706094980239868
aa(lp4
S'distance'
p5
aF75.98929023742676
aa(lp6
S'state'
p7
aI0
aatp8
Rp9
.ccollections
OrderedDict
p0
((lp1
(lp2
S'timestamp'
p3
aF6.707345962524414
aa(lp4
S'distance'
p5
aF75.98929023742676
aa(lp6
S'state'
p7
aI0
aatp8
Rp9
.ccollections
OrderedDict
p0
((lp1
(lp2
S'timestamp'
p3
aF6.716171026229858
aa(lp4
S'distance'
p5
aF75.98929023742676
aa(lp6
S'state'
p7
aI0
aatp8
Rp9
.ccollections
OrderedDict
p0
((lp1
(lp2
S'timestamp'
p3
aF6.719495058059692
aa(lp4
S'distance'
p5
aF75.98929023742676
aa(lp6
S'state'
p7
aI0
aatp8
Rp9
.ccollections
OrderedDict
p0
((lp1
(lp2
S'timestamp'
p3
aF6.727792024612427
aa(lp4
S'distance'
p5
aF75.98929023742676
aa(lp6
S'state'
p7
aI0
aatp8
Rp9
.ccollections
OrderedDict
p0
((lp1
(lp2
S'timestamp'
p3
aF6.7283899784088135
aa(lp4
S'distance'
p5
aF75.98929023742676
aa(lp6
S'state'
p7
aI0
aatp8
Rp9
.ccollections
OrderedDict
p0
((lp1
(lp2
S'timestamp'
p3
aF6.735953092575073
aa(lp4
S'distance'
p5
aF75.98929023742676
aa(lp6
S'state'
p7
aI0
aatp8
Rp9
.ccollections
OrderedDict
p0
((lp1
(lp2
S'timestamp'
p3
aF6.737549066543579
aa(lp4
S'distance'
p5
aF75.98929023742676
aa(lp6
S'state'
p7
aI0
aatp8
Rp9
.ccollections
OrderedDict
p0
((lp1
(lp2
S'timestamp'
p3
aF6.746742010116577
aa(lp4
S'distance'
p5
aF75.98929023742676
aa(lp6
S'state'
p7
aI0
aatp8
Rp9
.ccollections
OrderedDict
p0
((lp1
(lp2
S'timestamp'
p3
aF6.74790096282959
aa(lp4
S'distance'
p5
aF75.98929023742676
aa(lp6
S'state'
p7
aI0
aatp8
Rp9
.ccollections
OrderedDict
p0
((lp1
(lp2
S'timestamp'
p3
aF6.755898952484131
aa(lp4
S'distance'
p5
aF75.98929023742676
aa(lp6
S'state'
p7
aI0
aatp8
Rp9
.ccollections
OrderedDict
p0
((lp1
(lp2
S'timestamp'
p3
aF6.758624076843262
aa(lp4
S'distance'
p5
aF75.98929023742676
aa(lp6
S'state'
p7
aI0
aatp8
Rp9
.ccollections
OrderedDict
p0
((lp1
(lp2
S'timestamp'
p3
aF6.766146898269653
aa(lp4
S'distance'
p5
aF75.98929023742676
aa(lp6
S'state'
p7
aI0
aatp8
Rp9
.ccollections
OrderedDict
p0
((lp1
(lp2
S'timestamp'
p3
aF6.767359972000122
aa(lp4
S'distance'
p5
aF75.98929023742676
aa(lp6
S'state'
p7
aI0
aatp8
Rp9
.ccollections
OrderedDict
p0
((lp1
(lp2
S'timestamp'
p3
aF6.77910590171814
aa(lp4
S'distance'
p5
aF75.98929023742676
aa(lp6
S'state'
p7
aI0
aatp8
Rp9
.ccollections
OrderedDict
p0
((lp1
(lp2
S'timestamp'
p3
aF6.779183864593506
aa(lp4
S'distance'
p5
aF75.98929023742676
aa(lp6
S'state'
p7
aI0
aatp8
Rp9
.ccollections
OrderedDict
p0
((lp1
(lp2
S'timestamp'
p3
aF6.785973072052002
aa(lp4
S'distance'
p5
aF75.98929023742676
aa(lp6
S'state'
p7
aI0
aatp8
Rp9
.ccollections
OrderedDict
p0
((lp1
(lp2
S'timestamp'
p3
aF6.786743879318237
aa(lp4
S'distance'
p5
aF75.98929023742676
aa(lp6
S'state'
p7
aI0
aatp8
Rp9
.ccollections
OrderedDict
p0
((lp1
(lp2
S'timestamp'
p3
aF6.795850992202759
aa(lp4
S'distance'
p5
aF75.98929023742676
aa(lp6
S'state'
p7
aI0
aatp8
Rp9
.ccollections
OrderedDict
p0
((lp1
(lp2
S'timestamp'
p3
aF6.796601057052612
aa(lp4
S'distance'
p5
aF75.98929023742676
aa(lp6
S'state'
p7
aI0
aatp8
Rp9
.ccollections
OrderedDict
p0
((lp1
(lp2
S'timestamp'
p3
aF6.805840015411377
aa(lp4
S'distance'
p5
aF75.98929023742676
aa(lp6
S'state'
p7
aI0
aatp8
Rp9
.ccollections
OrderedDict
p0
((lp1
(lp2
S'timestamp'
p3
aF6.806766986846924
aa(lp4
S'distance'
p5
aF75.98929023742676
aa(lp6
S'state'
p7
aI0
aatp8
Rp9
.ccollections
OrderedDict
p0
((lp1
(lp2
S'timestamp'
p3
aF6.816677093505859
aa(lp4
S'distance'
p5
aF75.98929023742676
aa(lp6
S'state'
p7
aI0
aatp8
Rp9
.ccollections
OrderedDict
p0
((lp1
(lp2
S'timestamp'
p3
aF6.818716049194336
aa(lp4
S'distance'
p5
aF75.98929023742676
aa(lp6
S'state'
p7
aI0
aatp8
Rp9
.ccollections
OrderedDict
p0
((lp1
(lp2
S'timestamp'
p3
aF6.826509952545166
aa(lp4
S'distance'
p5
aF75.98929023742676
aa(lp6
S'state'
p7
aI0
aatp8
Rp9
.ccollections
OrderedDict
p0
((lp1
(lp2
S'timestamp'
p3
aF6.826932907104492
aa(lp4
S'distance'
p5
aF75.98929023742676
aa(lp6
S'state'
p7
aI0
aatp8
Rp9
.ccollections
OrderedDict
p0
((lp1
(lp2
S'timestamp'
p3
aF6.836816072463989
aa(lp4
S'distance'
p5
aF75.98929023742676
aa(lp6
S'state'
p7
aI0
aatp8
Rp9
.ccollections
OrderedDict
p0
((lp1
(lp2
S'timestamp'
p3
aF6.836932897567749
aa(lp4
S'distance'
p5
aF75.98929023742676
aa(lp6
S'state'
p7
aI0
aatp8
Rp9
.ccollections
OrderedDict
p0
((lp1
(lp2
S'timestamp'
p3
aF6.8458380699157715
aa(lp4
S'distance'
p5
aF75.98929023742676
aa(lp6
S'state'
p7
aI0
aatp8
Rp9
.ccollections
OrderedDict
p0
((lp1
(lp2
S'timestamp'
p3
aF6.8465800285339355
aa(lp4
S'distance'
p5
aF75.98929023742676
aa(lp6
S'state'
p7
aI0
aatp8
Rp9
.ccollections
OrderedDict
p0
((lp1
(lp2
S'timestamp'
p3
aF6.859893083572388
aa(lp4
S'distance'
p5
aF75.98929023742676
aa(lp6
S'state'
p7
aI0
aatp8
Rp9
.ccollections
OrderedDict
p0
((lp1
(lp2
S'timestamp'
p3
aF6.86008095741272
aa(lp4
S'distance'
p5
aF75.98929023742676
aa(lp6
S'state'
p7
aI0
aatp8
Rp9
.ccollections
OrderedDict
p0
((lp1
(lp2
S'timestamp'
p3
aF6.867686986923218
aa(lp4
S'distance'
p5
aF75.98929023742676
aa(lp6
S'state'
p7
aI0
aatp8
Rp9
.ccollections
OrderedDict
p0
((lp1
(lp2
S'timestamp'
p3
aF6.868654012680054
aa(lp4
S'distance'
p5
aF75.98929023742676
aa(lp6
S'state'
p7
aI0
aatp8
Rp9
.ccollections
OrderedDict
p0
((lp1
(lp2
S'timestamp'
p3
aF6.8758320808410645
aa(lp4
S'distance'
p5
aF75.98929023742676
aa(lp6
S'state'
p7
aI0
aatp8
Rp9
.ccollections
OrderedDict
p0
((lp1
(lp2
S'timestamp'
p3
aF6.876816987991333
aa(lp4
S'distance'
p5
aF75.98929023742676
aa(lp6
S'state'
p7
aI0
aatp8
Rp9
.ccollections
OrderedDict
p0
((lp1
(lp2
S'timestamp'
p3
aF6.885977029800415
aa(lp4
S'distance'
p5
aF75.98929023742676
aa(lp6
S'state'
p7
aI0
aatp8
Rp9
.ccollections
OrderedDict
p0
((lp1
(lp2
S'timestamp'
p3
aF6.886620998382568
aa(lp4
S'distance'
p5
aF75.98929023742676
aa(lp6
S'state'
p7
aI0
aatp8
Rp9
.ccollections
OrderedDict
p0
((lp1
(lp2
S'timestamp'
p3
aF6.896914958953857
aa(lp4
S'distance'
p5
aF75.98929023742676
aa(lp6
S'state'
p7
aI0
aatp8
Rp9
.ccollections
OrderedDict
p0
((lp1
(lp2
S'timestamp'
p3
aF6.897794008255005
aa(lp4
S'distance'
p5
aF75.98929023742676
aa(lp6
S'state'
p7
aI0
aatp8
Rp9
.ccollections
OrderedDict
p0
((lp1
(lp2
S'timestamp'
p3
aF6.907382011413574
aa(lp4
S'distance'
p5
aF75.98929023742676
aa(lp6
S'state'
p7
aI0
aatp8
Rp9
.ccollections
OrderedDict
p0
((lp1
(lp2
S'timestamp'
p3
aF6.907581090927124
aa(lp4
S'distance'
p5
aF75.98929023742676
aa(lp6
S'state'
p7
aI0
aatp8
Rp9
.ccollections
OrderedDict
p0
((lp1
(lp2
S'timestamp'
p3
aF6.916536092758179
aa(lp4
S'distance'
p5
aF75.98929023742676
aa(lp6
S'state'
p7
aI0
aatp8
Rp9
.ccollections
OrderedDict
p0
((lp1
(lp2
S'timestamp'
p3
aF6.917562961578369
aa(lp4
S'distance'
p5
aF75.98929023742676
aa(lp6
S'state'
p7
aI0
aatp8
Rp9
.ccollections
OrderedDict
p0
((lp1
(lp2
S'timestamp'
p3
aF6.92582106590271
aa(lp4
S'distance'
p5
aF75.98929023742676
aa(lp6
S'state'
p7
aI0
aatp8
Rp9
.ccollections
OrderedDict
p0
((lp1
(lp2
S'timestamp'
p3
aF6.926621913909912
aa(lp4
S'distance'
p5
aF75.98929023742676
aa(lp6
S'state'
p7
aI0
aatp8
Rp9
.ccollections
OrderedDict
p0
((lp1
(lp2
S'timestamp'
p3
aF6.937361001968384
aa(lp4
S'distance'
p5
aF75.98929023742676
aa(lp6
S'state'
p7
aI0
aatp8
Rp9
.ccollections
OrderedDict
p0
((lp1
(lp2
S'timestamp'
p3
aF6.93754506111145
aa(lp4
S'distance'
p5
aF75.98929023742676
aa(lp6
S'state'
p7
aI0
aatp8
Rp9
.ccollections
OrderedDict
p0
((lp1
(lp2
S'timestamp'
p3
aF6.946013927459717
aa(lp4
S'distance'
p5
aF75.98929023742676
aa(lp6
S'state'
p7
aI0
aatp8
Rp9
.ccollections
OrderedDict
p0
((lp1
(lp2
S'timestamp'
p3
aF6.947088003158569
aa(lp4
S'distance'
p5
aF75.98929023742676
aa(lp6
S'state'
p7
aI0
aatp8
Rp9
.ccollections
OrderedDict
p0
((lp1
(lp2
S'timestamp'
p3
aF6.95622992515564
aa(lp4
S'distance'
p5
aF75.98929023742676
aa(lp6
S'state'
p7
aI0
aatp8
Rp9
.ccollections
OrderedDict
p0
((lp1
(lp2
S'timestamp'
p3
aF6.956816911697388
aa(lp4
S'distance'
p5
aF75.98929023742676
aa(lp6
S'state'
p7
aI0
aatp8
Rp9
.ccollections
OrderedDict
p0
((lp1
(lp2
S'timestamp'
p3
aF6.9667229652404785
aa(lp4
S'distance'
p5
aF75.98929023742676
aa(lp6
S'state'
p7
aI0
aatp8
Rp9
.ccollections
OrderedDict
p0
((lp1
(lp2
S'timestamp'
p3
aF6.966932058334351
aa(lp4
S'distance'
p5
aF75.98929023742676
aa(lp6
S'state'
p7
aI0
aatp8
Rp9
.ccollections
OrderedDict
p0
((lp1
(lp2
S'timestamp'
p3
aF6.978370904922485
aa(lp4
S'distance'
p5
aF75.98929023742676
aa(lp6
S'state'
p7
aI0
aatp8
Rp9
.ccollections
OrderedDict
p0
((lp1
(lp2
S'timestamp'
p3
aF6.978589057922363
aa(lp4
S'distance'
p5
aF75.98929023742676
aa(lp6
S'state'
p7
aI0
aatp8
Rp9
.ccollections
OrderedDict
p0
((lp1
(lp2
S'timestamp'
p3
aF6.995882034301758
aa(lp4
S'distance'
p5
aF75.98929023742676
aa(lp6
S'state'
p7
aI0
aatp8
Rp9
.ccollections
OrderedDict
p0
((lp1
(lp2
S'timestamp'
p3
aF6.99802303314209
aa(lp4
S'distance'
p5
aF75.98929023742676
aa(lp6
S'state'
p7
aI0
aatp8
Rp9
.ccollections
OrderedDict
p0
((lp1
(lp2
S'timestamp'
p3
aF6.998708963394165
aa(lp4
S'distance'
p5
aF75.98929023742676
aa(lp6
S'state'
p7
aI0
aatp8
Rp9
.ccollections
OrderedDict
p0
((lp1
(lp2
S'timestamp'
p3
aF6.998785018920898
aa(lp4
S'distance'
p5
aF75.98929023742676
aa(lp6
S'state'
p7
aI0
aatp8
Rp9
.ccollections
OrderedDict
p0
((lp1
(lp2
S'timestamp'
p3
aF7.005821943283081
aa(lp4
S'distance'
p5
aF75.98929023742676
aa(lp6
S'state'
p7
aI0
aatp8
Rp9
.ccollections
OrderedDict
p0
((lp1
(lp2
S'timestamp'
p3
aF7.006608009338379
aa(lp4
S'distance'
p5
aF75.98929023742676
aa(lp6
S'state'
p7
aI0
aatp8
Rp9
.ccollections
OrderedDict
p0
((lp1
(lp2
S'timestamp'
p3
aF7.0170369148254395
aa(lp4
S'distance'
p5
aF75.98929023742676
aa(lp6
S'state'
p7
aI0
aatp8
Rp9
.ccollections
OrderedDict
p0
((lp1
(lp2
S'timestamp'
p3
aF7.017189025878906
aa(lp4
S'distance'
p5
aF75.98929023742676
aa(lp6
S'state'
p7
aI0
aatp8
Rp9
.ccollections
OrderedDict
p0
((lp1
(lp2
S'timestamp'
p3
aF7.026190996170044
aa(lp4
S'distance'
p5
aF75.98929023742676
aa(lp6
S'state'
p7
aI0
aatp8
Rp9
.ccollections
OrderedDict
p0
((lp1
(lp2
S'timestamp'
p3
aF7.028195858001709
aa(lp4
S'distance'
p5
aF75.98929023742676
aa(lp6
S'state'
p7
aI0
aatp8
Rp9
.ccollections
OrderedDict
p0
((lp1
(lp2
S'timestamp'
p3
aF7.0359790325164795
aa(lp4
S'distance'
p5
aF75.98929023742676
aa(lp6
S'state'
p7
aI0
aatp8
Rp9
.ccollections
OrderedDict
p0
((lp1
(lp2
S'timestamp'
p3
aF7.036742925643921
aa(lp4
S'distance'
p5
aF75.98929023742676
aa(lp6
S'state'
p7
aI0
aatp8
Rp9
.ccollections
OrderedDict
p0
((lp1
(lp2
S'timestamp'
p3
aF7.046892881393433
aa(lp4
S'distance'
p5
aF75.98929023742676
aa(lp6
S'state'
p7
aI0
aatp8
Rp9
.ccollections
OrderedDict
p0
((lp1
(lp2
S'timestamp'
p3
aF7.047044992446899
aa(lp4
S'distance'
p5
aF75.98929023742676
aa(lp6
S'state'
p7
aI0
aatp8
Rp9
.ccollections
OrderedDict
p0
((lp1
(lp2
S'timestamp'
p3
aF7.05668306350708
aa(lp4
S'distance'
p5
aF75.98929023742676
aa(lp6
S'state'
p7
aI0
aatp8
Rp9
.ccollections
OrderedDict
p0
((lp1
(lp2
S'timestamp'
p3
aF7.067709922790527
aa(lp4
S'distance'
p5
aF75.98929023742676
aa(lp6
S'state'
p7
aI0
aatp8
Rp9
.ccollections
OrderedDict
p0
((lp1
(lp2
S'timestamp'
p3
aF7.06779408454895
aa(lp4
S'distance'
p5
aF75.98929023742676
aa(lp6
S'state'
p7
aI0
aatp8
Rp9
.ccollections
OrderedDict
p0
((lp1
(lp2
S'timestamp'
p3
aF7.0678629875183105
aa(lp4
S'distance'
p5
aF75.98929023742676
aa(lp6
S'state'
p7
aI0
aatp8
Rp9
.ccollections
OrderedDict
p0
((lp1
(lp2
S'timestamp'
p3
aF7.076660871505737
aa(lp4
S'distance'
p5
aF75.98929023742676
aa(lp6
S'state'
p7
aI0
aatp8
Rp9
.ccollections
OrderedDict
p0
((lp1
(lp2
S'timestamp'
p3
aF7.076745986938477
aa(lp4
S'distance'
p5
aF75.98929023742676
aa(lp6
S'state'
p7
aI0
aatp8
Rp9
.ccollections
OrderedDict
p0
((lp1
(lp2
S'timestamp'
p3
aF7.085882902145386
aa(lp4
S'distance'
p5
aF75.98929023742676
aa(lp6
S'state'
p7
aI0
aatp8
Rp9
.ccollections
OrderedDict
p0
((lp1
(lp2
S'timestamp'
p3
aF7.161654949188232
aa(lp4
S'distance'
p5
aF75.98929023742676
aa(lp6
S'state'
p7
aI0
aatp8
Rp9
.ccollections
OrderedDict
p0
((lp1
(lp2
S'timestamp'
p3
aF7.1650378704071045
aa(lp4
S'distance'
p5
aF75.98929023742676
aa(lp6
S'state'
p7
aI0
aatp8
Rp9
.ccollections
OrderedDict
p0
((lp1
(lp2
S'timestamp'
p3
aF7.165195941925049
aa(lp4
S'distance'
p5
aF75.98929023742676
aa(lp6
S'state'
p7
aI0
aatp8
Rp9
.ccollections
OrderedDict
p0
((lp1
(lp2
S'timestamp'
p3
aF7.168328046798706
aa(lp4
S'distance'
p5
aF75.98929023742676
aa(lp6
S'state'
p7
aI0
aatp8
Rp9
.ccollections
OrderedDict
p0
((lp1
(lp2
S'timestamp'
p3
aF7.168493986129761
aa(lp4
S'distance'
p5
aF75.98929023742676
aa(lp6
S'state'
p7
aI0
aatp8
Rp9
.ccollections
OrderedDict
p0
((lp1
(lp2
S'timestamp'
p3
aF7.168622016906738
aa(lp4
S'distance'
p5
aF75.98929023742676
aa(lp6
S'state'
p7
aI0
aatp8
Rp9
.ccollections
OrderedDict
p0
((lp1
(lp2
S'timestamp'
p3
aF7.170861005783081
aa(lp4
S'distance'
p5
aF75.98929023742676
aa(lp6
S'state'
p7
aI0
aatp8
Rp9
.ccollections
OrderedDict
p0
((lp1
(lp2
S'timestamp'
p3
aF7.172575950622559
aa(lp4
S'distance'
p5
aF75.98929023742676
aa(lp6
S'state'
p7
aI0
aatp8
Rp9
.ccollections
OrderedDict
p0
((lp1
(lp2
S'timestamp'
p3
aF7.175849914550781
aa(lp4
S'distance'
p5
aF75.98929023742676
aa(lp6
S'state'
p7
aI0
aatp8
Rp9
.ccollections
OrderedDict
p0
((lp1
(lp2
S'timestamp'
p3
aF7.17653489112854
aa(lp4
S'distance'
p5
aF75.98929023742676
aa(lp6
S'state'
p7
aI0
aatp8
Rp9
.ccollections
OrderedDict
p0
((lp1
(lp2
S'timestamp'
p3
aF7.177198886871338
aa(lp4
S'distance'
p5
aF75.98929023742676
aa(lp6
S'state'
p7
aI0
aatp8
Rp9
.ccollections
OrderedDict
p0
((lp1
(lp2
S'timestamp'
p3
aF7.177315950393677
aa(lp4
S'distance'
p5
aF75.98929023742676
aa(lp6
S'state'
p7
aI0
aatp8
Rp9
.ccollections
OrderedDict
p0
((lp1
(lp2
S'timestamp'
p3
aF7.17772102355957
aa(lp4
S'distance'
p5
aF75.98929023742676
aa(lp6
S'state'
p7
aI0
aatp8
Rp9
.ccollections
OrderedDict
p0
((lp1
(lp2
S'timestamp'
p3
aF7.178125858306885
aa(lp4
S'distance'
p5
aF75.98929023742676
aa(lp6
S'state'
p7
aI0
aatp8
Rp9
.ccollections
OrderedDict
p0
((lp1
(lp2
S'timestamp'
p3
aF7.1791300773620605
aa(lp4
S'distance'
p5
aF75.98929023742676
aa(lp6
S'state'
p7
aI0
aatp8
Rp9
.ccollections
OrderedDict
p0
((lp1
(lp2
S'timestamp'
p3
aF7.180598020553589
aa(lp4
S'distance'
p5
aF75.98929023742676
aa(lp6
S'state'
p7
aI0
aatp8
Rp9
.ccollections
OrderedDict
p0
((lp1
(lp2
S'timestamp'
p3
aF7.182626962661743
aa(lp4
S'distance'
p5
aF75.98929023742676
aa(lp6
S'state'
p7
aI0
aatp8
Rp9
.ccollections
OrderedDict
p0
((lp1
(lp2
S'timestamp'
p3
aF7.187730073928833
aa(lp4
S'distance'
p5
aF75.98929023742676
aa(lp6
S'state'
p7
aI0
aatp8
Rp9
.ccollections
OrderedDict
p0
((lp1
(lp2
S'timestamp'
p3
aF7.187895059585571
aa(lp4
S'distance'
p5
aF75.98929023742676
aa(lp6
S'state'
p7
aI0
aatp8
Rp9
.ccollections
OrderedDict
p0
((lp1
(lp2
S'timestamp'
p3
aF7.188745975494385
aa(lp4
S'distance'
p5
aF75.98929023742676
aa(lp6
S'state'
p7
aI0
aatp8
Rp9
.ccollections
OrderedDict
p0
((lp1
(lp2
S'timestamp'
p3
aF7.188886880874634
aa(lp4
S'distance'
p5
aF75.98929023742676
aa(lp6
S'state'
p7
aI0
aatp8
Rp9
.ccollections
OrderedDict
p0
((lp1
(lp2
S'timestamp'
p3
aF7.195903062820435
aa(lp4
S'distance'
p5
aF75.98929023742676
aa(lp6
S'state'
p7
aI0
aatp8
Rp9
.ccollections
OrderedDict
p0
((lp1
(lp2
S'timestamp'
p3
aF7.196650981903076
aa(lp4
S'distance'
p5
aF75.98929023742676
aa(lp6
S'state'
p7
aI0
aatp8
Rp9
.ccollections
OrderedDict
p0
((lp1
(lp2
S'timestamp'
p3
aF7.215959072113037
aa(lp4
S'distance'
p5
aF75.98929023742676
aa(lp6
S'state'
p7
aI0
aatp8
Rp9
.ccollections
OrderedDict
p0
((lp1
(lp2
S'timestamp'
p3
aF7.217182874679565
aa(lp4
S'distance'
p5
aF75.98929023742676
aa(lp6
S'state'
p7
aI0
aatp8
Rp9
.ccollections
OrderedDict
p0
((lp1
(lp2
S'timestamp'
p3
aF7.217388868331909
aa(lp4
S'distance'
p5
aF75.98929023742676
aa(lp6
S'state'
p7
aI0
aatp8
Rp9
.ccollections
OrderedDict
p0
((lp1
(lp2
S'timestamp'
p3
aF7.217717885971069
aa(lp4
S'distance'
p5
aF75.98929023742676
aa(lp6
S'state'
p7
aI0
aatp8
Rp9
.ccollections
OrderedDict
p0
((lp1
(lp2
S'timestamp'
p3
aF7.227859973907471
aa(lp4
S'distance'
p5
aF75.98929023742676
aa(lp6
S'state'
p7
aI0
aatp8
Rp9
.ccollections
OrderedDict
p0
((lp1
(lp2
S'timestamp'
p3
aF7.228219032287598
aa(lp4
S'distance'
p5
aF75.98929023742676
aa(lp6
S'state'
p7
aI0
aatp8
Rp9
.ccollections
OrderedDict
p0
((lp1
(lp2
S'timestamp'
p3
aF7.236922979354858
aa(lp4
S'distance'
p5
aF75.98929023742676
aa(lp6
S'state'
p7
aI0
aatp8
Rp9
.ccollections
OrderedDict
p0
((lp1
(lp2
S'timestamp'
p3
aF7.238118886947632
aa(lp4
S'distance'
p5
aF75.98929023742676
aa(lp6
S'state'
p7
aI0
aatp8
Rp9
.ccollections
OrderedDict
p0
((lp1
(lp2
S'timestamp'
p3
aF7.245887041091919
aa(lp4
S'distance'
p5
aF75.98929023742676
aa(lp6
S'state'
p7
aI0
aatp8
Rp9
.ccollections
OrderedDict
p0
((lp1
(lp2
S'timestamp'
p3
aF7.246516942977905
aa(lp4
S'distance'
p5
aF75.98929023742676
aa(lp6
S'state'
p7
aI0
aatp8
Rp9
.ccollections
OrderedDict
p0
((lp1
(lp2
S'timestamp'
p3
aF7.25595498085022
aa(lp4
S'distance'
p5
aF75.98929023742676
aa(lp6
S'state'
p7
aI0
aatp8
Rp9
.ccollections
OrderedDict
p0
((lp1
(lp2
S'timestamp'
p3
aF7.257158041000366
aa(lp4
S'distance'
p5
aF75.98929023742676
aa(lp6
S'state'
p7
aI0
aatp8
Rp9
.ccollections
OrderedDict
p0
((lp1
(lp2
S'timestamp'
p3
aF7.26617693901062
aa(lp4
S'distance'
p5
aF75.98929023742676
aa(lp6
S'state'
p7
aI0
aatp8
Rp9
.ccollections
OrderedDict
p0
((lp1
(lp2
S'timestamp'
p3
aF7.267896890640259
aa(lp4
S'distance'
p5
aF75.98929023742676
aa(lp6
S'state'
p7
aI0
aatp8
Rp9
.ccollections
OrderedDict
p0
((lp1
(lp2
S'timestamp'
p3
aF7.276306867599487
aa(lp4
S'distance'
p5
aF75.98929023742676
aa(lp6
S'state'
p7
aI0
aatp8
Rp9
.ccollections
OrderedDict
p0
((lp1
(lp2
S'timestamp'
p3
aF7.276860952377319
aa(lp4
S'distance'
p5
aF75.98929023742676
aa(lp6
S'state'
p7
aI0
aatp8
Rp9
.ccollections
OrderedDict
p0
((lp1
(lp2
S'timestamp'
p3
aF7.288163900375366
aa(lp4
S'distance'
p5
aF75.98929023742676
aa(lp6
S'state'
p7
aI0
aatp8
Rp9
.ccollections
OrderedDict
p0
((lp1
(lp2
S'timestamp'
p3
aF7.288284063339233
aa(lp4
S'distance'
p5
aF75.98929023742676
aa(lp6
S'state'
p7
aI0
aatp8
Rp9
.ccollections
OrderedDict
p0
((lp1
(lp2
S'timestamp'
p3
aF7.297050952911377
aa(lp4
S'distance'
p5
aF75.98929023742676
aa(lp6
S'state'
p7
aI0
aatp8
Rp9
.ccollections
OrderedDict
p0
((lp1
(lp2
S'timestamp'
p3
aF7.2976720333099365
aa(lp4
S'distance'
p5
aF75.98929023742676
aa(lp6
S'state'
p7
aI0
aatp8
Rp9
.ccollections
OrderedDict
p0
((lp1
(lp2
S'timestamp'
p3
aF7.307292938232422
aa(lp4
S'distance'
p5
aF75.98929023742676
aa(lp6
S'state'
p7
aI0
aatp8
Rp9
.ccollections
OrderedDict
p0
((lp1
(lp2
S'timestamp'
p3
aF7.307503938674927
aa(lp4
S'distance'
p5
aF75.98929023742676
aa(lp6
S'state'
p7
aI0
aatp8
Rp9
.ccollections
OrderedDict
p0
((lp1
(lp2
S'timestamp'
p3
aF7.3166279792785645
aa(lp4
S'distance'
p5
aF75.98929023742676
aa(lp6
S'state'
p7
aI0
aatp8
Rp9
.ccollections
OrderedDict
p0
((lp1
(lp2
S'timestamp'
p3
aF7.317174911499023
aa(lp4
S'distance'
p5
aF75.98929023742676
aa(lp6
S'state'
p7
aI0
aatp8
Rp9
.ccollections
OrderedDict
p0
((lp1
(lp2
S'timestamp'
p3
aF7.326190948486328
aa(lp4
S'distance'
p5
aF75.98929023742676
aa(lp6
S'state'
p7
aI0
aatp8
Rp9
.ccollections
OrderedDict
p0
((lp1
(lp2
S'timestamp'
p3
aF7.326678037643433
aa(lp4
S'distance'
p5
aF75.98929023742676
aa(lp6
S'state'
p7
aI0
aatp8
Rp9
.ccollections
OrderedDict
p0
((lp1
(lp2
S'timestamp'
p3
aF7.336227893829346
aa(lp4
S'distance'
p5
aF75.98929023742676
aa(lp6
S'state'
p7
aI0
aatp8
Rp9
.ccollections
OrderedDict
p0
((lp1
(lp2
S'timestamp'
p3
aF7.336874008178711
aa(lp4
S'distance'
p5
aF75.98929023742676
aa(lp6
S'state'
p7
aI0
aatp8
Rp9
.ccollections
OrderedDict
p0
((lp1
(lp2
S'timestamp'
p3
aF7.346421003341675
aa(lp4
S'distance'
p5
aF75.98929023742676
aa(lp6
S'state'
p7
aI0
aatp8
Rp9
.ccollections
OrderedDict
p0
((lp1
(lp2
S'timestamp'
p3
aF7.347827911376953
aa(lp4
S'distance'
p5
aF75.98929023742676
aa(lp6
S'state'
p7
aI0
aatp8
Rp9
.ccollections
OrderedDict
p0
((lp1
(lp2
S'timestamp'
p3
aF7.367444038391113
aa(lp4
S'distance'
p5
aF75.98929023742676
aa(lp6
S'state'
p7
aI0
aatp8
Rp9
.ccollections
OrderedDict
p0
((lp1
(lp2
S'timestamp'
p3
aF7.368300914764404
aa(lp4
S'distance'
p5
aF75.98929023742676
aa(lp6
S'state'
p7
aI0
aatp8
Rp9
.ccollections
OrderedDict
p0
((lp1
(lp2
S'timestamp'
p3
aF7.368673086166382
aa(lp4
S'distance'
p5
aF75.98929023742676
aa(lp6
S'state'
p7
aI0
aatp8
Rp9
.ccollections
OrderedDict
p0
((lp1
(lp2
S'timestamp'
p3
aF7.3689398765563965
aa(lp4
S'distance'
p5
aF75.98929023742676
aa(lp6
S'state'
p7
aI0
aatp8
Rp9
.ccollections
OrderedDict
p0
((lp1
(lp2
S'timestamp'
p3
aF7.376666069030762
aa(lp4
S'distance'
p5
aF75.98929023742676
aa(lp6
S'state'
p7
aI0
aatp8
Rp9
.ccollections
OrderedDict
p0
((lp1
(lp2
S'timestamp'
p3
aF7.376901865005493
aa(lp4
S'distance'
p5
aF75.98929023742676
aa(lp6
S'state'
p7
aI0
aatp8
Rp9
.ccollections
OrderedDict
p0
((lp1
(lp2
S'timestamp'
p3
aF7.386354923248291
aa(lp4
S'distance'
p5
aF75.98929023742676
aa(lp6
S'state'
p7
aI0
aatp8
Rp9
.ccollections
OrderedDict
p0
((lp1
(lp2
S'timestamp'
p3
aF7.387796878814697
aa(lp4
S'distance'
p5
aF75.98929023742676
aa(lp6
S'state'
p7
aI0
aatp8
Rp9
.ccollections
OrderedDict
p0
((lp1
(lp2
S'timestamp'
p3
aF7.395910024642944
aa(lp4
S'distance'
p5
aF75.98929023742676
aa(lp6
S'state'
p7
aI0
aatp8
Rp9
.ccollections
OrderedDict
p0
((lp1
(lp2
S'timestamp'
p3
aF7.397198915481567
aa(lp4
S'distance'
p5
aF75.98929023742676
aa(lp6
S'state'
p7
aI0
aatp8
Rp9
.ccollections
OrderedDict
p0
((lp1
(lp2
S'timestamp'
p3
aF7.405853033065796
aa(lp4
S'distance'
p5
aF75.98929023742676
aa(lp6
S'state'
p7
aI0
aatp8
Rp9
.ccollections
OrderedDict
p0
((lp1
(lp2
S'timestamp'
p3
aF7.406879901885986
aa(lp4
S'distance'
p5
aF75.98929023742676
aa(lp6
S'state'
p7
aI0
aatp8
Rp9
.ccollections
OrderedDict
p0
((lp1
(lp2
S'timestamp'
p3
aF7.4180169105529785
aa(lp4
S'distance'
p5
aF75.98929023742676
aa(lp6
S'state'
p7
aI0
aatp8
Rp9
.ccollections
OrderedDict
p0
((lp1
(lp2
S'timestamp'
p3
aF7.41840386390686
aa(lp4
S'distance'
p5
aF75.98929023742676
aa(lp6
S'state'
p7
aI0
aatp8
Rp9
.ccollections
OrderedDict
p0
((lp1
(lp2
S'timestamp'
p3
aF7.426191091537476
aa(lp4
S'distance'
p5
aF75.98929023742676
aa(lp6
S'state'
p7
aI0
aatp8
Rp9
.ccollections
OrderedDict
p0
((lp1
(lp2
S'timestamp'
p3
aF7.428215980529785
aa(lp4
S'distance'
p5
aF75.98929023742676
aa(lp6
S'state'
p7
aI0
aatp8
Rp9
.ccollections
OrderedDict
p0
((lp1
(lp2
S'timestamp'
p3
aF7.435918092727661
aa(lp4
S'distance'
p5
aF75.98929023742676
aa(lp6
S'state'
p7
aI0
aatp8
Rp9
.ccollections
OrderedDict
p0
((lp1
(lp2
S'timestamp'
p3
aF7.4366559982299805
aa(lp4
S'distance'
p5
aF75.98929023742676
aa(lp6
S'state'
p7
aI0
aatp8
Rp9
.ccollections
OrderedDict
p0
((lp1
(lp2
S'timestamp'
p3
aF7.445839881896973
aa(lp4
S'distance'
p5
aF75.98929023742676
aa(lp6
S'state'
p7
aI0
aatp8
Rp9
.ccollections
OrderedDict
p0
((lp1
(lp2
S'timestamp'
p3
aF7.447799921035767
aa(lp4
S'distance'
p5
aF75.98929023742676
aa(lp6
S'state'
p7
aI0
aatp8
Rp9
.ccollections
OrderedDict
p0
((lp1
(lp2
S'timestamp'
p3
aF7.455888032913208
aa(lp4
S'distance'
p5
aF75.98929023742676
aa(lp6
S'state'
p7
aI0
aatp8
Rp9
.ccollections
OrderedDict
p0
((lp1
(lp2
S'timestamp'
p3
aF7.458292007446289
aa(lp4
S'distance'
p5
aF75.98929023742676
aa(lp6
S'state'
p7
aI0
aatp8
Rp9
.ccollections
OrderedDict
p0
((lp1
(lp2
S'timestamp'
p3
aF7.466265916824341
aa(lp4
S'distance'
p5
aF75.98929023742676
aa(lp6
S'state'
p7
aI0
aatp8
Rp9
.ccollections
OrderedDict
p0
((lp1
(lp2
S'timestamp'
p3
aF7.46777606010437
aa(lp4
S'distance'
p5
aF75.98929023742676
aa(lp6
S'state'
p7
aI0
aatp8
Rp9
.ccollections
OrderedDict
p0
((lp1
(lp2
S'timestamp'
p3
aF7.475933074951172
aa(lp4
S'distance'
p5
aF75.98929023742676
aa(lp6
S'state'
p7
aI0
aatp8
Rp9
.ccollections
OrderedDict
p0
((lp1
(lp2
S'timestamp'
p3
aF7.476670026779175
aa(lp4
S'distance'
p5
aF75.98929023742676
aa(lp6
S'state'
p7
aI0
aatp8
Rp9
.ccollections
OrderedDict
p0
((lp1
(lp2
S'timestamp'
p3
aF7.485897064208984
aa(lp4
S'distance'
p5
aF75.98929023742676
aa(lp6
S'state'
p7
aI0
aatp8
Rp9
.ccollections
OrderedDict
p0
((lp1
(lp2
S'timestamp'
p3
aF7.4866039752960205
aa(lp4
S'distance'
p5
aF75.98929023742676
aa(lp6
S'state'
p7
aI0
aatp8
Rp9
.ccollections
OrderedDict
p0
((lp1
(lp2
S'timestamp'
p3
aF7.496527910232544
aa(lp4
S'distance'
p5
aF75.98929023742676
aa(lp6
S'state'
p7
aI0
aatp8
Rp9
.ccollections
OrderedDict
p0
((lp1
(lp2
S'timestamp'
p3
aF7.496819972991943
aa(lp4
S'distance'
p5
aF75.98929023742676
aa(lp6
S'state'
p7
aI0
aatp8
Rp9
.ccollections
OrderedDict
p0
((lp1
(lp2
S'timestamp'
p3
aF7.50644588470459
aa(lp4
S'distance'
p5
aF75.98929023742676
aa(lp6
S'state'
p7
aI0
aatp8
Rp9
.ccollections
OrderedDict
p0
((lp1
(lp2
S'timestamp'
p3
aF7.508162021636963
aa(lp4
S'distance'
p5
aF75.98929023742676
aa(lp6
S'state'
p7
aI0
aatp8
Rp9
.ccollections
OrderedDict
p0
((lp1
(lp2
S'timestamp'
p3
aF7.515871047973633
aa(lp4
S'distance'
p5
aF75.98929023742676
aa(lp6
S'state'
p7
aI0
aatp8
Rp9
.ccollections
OrderedDict
p0
((lp1
(lp2
S'timestamp'
p3
aF7.517291069030762
aa(lp4
S'distance'
p5
aF75.98929023742676
aa(lp6
S'state'
p7
aI0
aatp8
Rp9
.ccollections
OrderedDict
p0
((lp1
(lp2
S'timestamp'
p3
aF7.52606987953186
aa(lp4
S'distance'
p5
aF75.98929023742676
aa(lp6
S'state'
p7
aI0
aatp8
Rp9
.ccollections
OrderedDict
p0
((lp1
(lp2
S'timestamp'
p3
aF7.526937961578369
aa(lp4
S'distance'
p5
aF75.98929023742676
aa(lp6
S'state'
p7
aI0
aatp8
Rp9
.ccollections
OrderedDict
p0
((lp1
(lp2
S'timestamp'
p3
aF7.5359978675842285
aa(lp4
S'distance'
p5
aF75.98929023742676
aa(lp6
S'state'
p7
aI0
aatp8
Rp9
.ccollections
OrderedDict
p0
((lp1
(lp2
S'timestamp'
p3
aF7.536700963973999
aa(lp4
S'distance'
p5
aF75.98929023742676
aa(lp6
S'state'
p7
aI0
aatp8
Rp9
.ccollections
OrderedDict
p0
((lp1
(lp2
S'timestamp'
p3
aF7.54597806930542
aa(lp4
S'distance'
p5
aF75.98929023742676
aa(lp6
S'state'
p7
aI0
aatp8
Rp9
.ccollections
OrderedDict
p0
((lp1
(lp2
S'timestamp'
p3
aF7.546622037887573
aa(lp4
S'distance'
p5
aF75.98929023742676
aa(lp6
S'state'
p7
aI0
aatp8
Rp9
.ccollections
OrderedDict
p0
((lp1
(lp2
S'timestamp'
p3
aF7.558245897293091
aa(lp4
S'distance'
p5
aF75.98929023742676
aa(lp6
S'state'
p7
aI0
aatp8
Rp9
.ccollections
OrderedDict
p0
((lp1
(lp2
S'timestamp'
p3
aF7.558793067932129
aa(lp4
S'distance'
p5
aF75.98929023742676
aa(lp6
S'state'
p7
aI0
aatp8
Rp9
.ccollections
OrderedDict
p0
((lp1
(lp2
S'timestamp'
p3
aF7.567473888397217
aa(lp4
S'distance'
p5
aF75.98929023742676
aa(lp6
S'state'
p7
aI0
aatp8
Rp9
.ccollections
OrderedDict
p0
((lp1
(lp2
S'timestamp'
p3
aF7.567651033401489
aa(lp4
S'distance'
p5
aF75.98929023742676
aa(lp6
S'state'
p7
aI0
aatp8
Rp9
.ccollections
OrderedDict
p0
((lp1
(lp2
S'timestamp'
p3
aF7.575845956802368
aa(lp4
S'distance'
p5
aF75.98929023742676
aa(lp6
S'state'
p7
aI0
aatp8
Rp9
.ccollections
OrderedDict
p0
((lp1
(lp2
S'timestamp'
p3
aF7.5767600536346436
aa(lp4
S'distance'
p5
aF75.98929023742676
aa(lp6
S'state'
p7
aI0
aatp8
Rp9
.ccollections
OrderedDict
p0
((lp1
(lp2
S'timestamp'
p3
aF7.587202072143555
aa(lp4
S'distance'
p5
aF75.98929023742676
aa(lp6
S'state'
p7
aI0
aatp8
Rp9
.ccollections
OrderedDict
p0
((lp1
(lp2
S'timestamp'
p3
aF7.587514877319336
aa(lp4
S'distance'
p5
aF75.98929023742676
aa(lp6
S'state'
p7
aI0
aatp8
Rp9
.ccollections
OrderedDict
p0
((lp1
(lp2
S'timestamp'
p3
aF7.597656965255737
aa(lp4
S'distance'
p5
aF75.98929023742676
aa(lp6
S'state'
p7
aI0
aatp8
Rp9
.ccollections
OrderedDict
p0
((lp1
(lp2
S'timestamp'
p3
aF7.597872972488403
aa(lp4
S'distance'
p5
aF75.98929023742676
aa(lp6
S'state'
p7
aI0
aatp8
Rp9
.ccollections
OrderedDict
p0
((lp1
(lp2
S'timestamp'
p3
aF7.606201887130737
aa(lp4
S'distance'
p5
aF75.98929023742676
aa(lp6
S'state'
p7
aI0
aatp8
Rp9
.ccollections
OrderedDict
p0
((lp1
(lp2
S'timestamp'
p3
aF7.607604026794434
aa(lp4
S'distance'
p5
aF75.98929023742676
aa(lp6
S'state'
p7
aI0
aatp8
Rp9
.ccollections
OrderedDict
p0
((lp1
(lp2
S'timestamp'
p3
aF7.617371082305908
aa(lp4
S'distance'
p5
aF75.98929023742676
aa(lp6
S'state'
p7
aI0
aatp8
Rp9
.ccollections
OrderedDict
p0
((lp1
(lp2
S'timestamp'
p3
aF7.617552995681763
aa(lp4
S'distance'
p5
aF75.98929023742676
aa(lp6
S'state'
p7
aI0
aatp8
Rp9
.ccollections
OrderedDict
p0
((lp1
(lp2
S'timestamp'
p3
aF7.625849008560181
aa(lp4
S'distance'
p5
aF75.98929023742676
aa(lp6
S'state'
p7
aI0
aatp8
Rp9
.ccollections
OrderedDict
p0
((lp1
(lp2
S'timestamp'
p3
aF7.626786947250366
aa(lp4
S'distance'
p5
aF75.98929023742676
aa(lp6
S'state'
p7
aI0
aatp8
Rp9
.ccollections
OrderedDict
p0
((lp1
(lp2
S'timestamp'
p3
aF7.63900899887085
aa(lp4
S'distance'
p5
aF75.98929023742676
aa(lp6
S'state'
p7
aI0
aatp8
Rp9
.ccollections
OrderedDict
p0
((lp1
(lp2
S'timestamp'
p3
aF7.639081954956055
aa(lp4
S'distance'
p5
aF75.98929023742676
aa(lp6
S'state'
p7
aI0
aatp8
Rp9
.ccollections
OrderedDict
p0
((lp1
(lp2
S'timestamp'
p3
aF7.645904064178467
aa(lp4
S'distance'
p5
aF75.98929023742676
aa(lp6
S'state'
p7
aI0
aatp8
Rp9
.ccollections
OrderedDict
p0
((lp1
(lp2
S'timestamp'
p3
aF7.6469080448150635
aa(lp4
S'distance'
p5
aF75.98929023742676
aa(lp6
S'state'
p7
aI0
aatp8
Rp9
.ccollections
OrderedDict
p0
((lp1
(lp2
S'timestamp'
p3
aF7.656498908996582
aa(lp4
S'distance'
p5
aF75.98929023742676
aa(lp6
S'state'
p7
aI0
aatp8
Rp9
.ccollections
OrderedDict
p0
((lp1
(lp2
S'timestamp'
p3
aF7.657710075378418
aa(lp4
S'distance'
p5
aF75.98929023742676
aa(lp6
S'state'
p7
aI0
aatp8
Rp9
.ccollections
OrderedDict
p0
((lp1
(lp2
S'timestamp'
p3
aF7.665891885757446
aa(lp4
S'distance'
p5
aF75.98929023742676
aa(lp6
S'state'
p7
aI0
aatp8
Rp9
.ccollections
OrderedDict
p0
((lp1
(lp2
S'timestamp'
p3
aF7.6678760051727295
aa(lp4
S'distance'
p5
aF75.98929023742676
aa(lp6
S'state'
p7
aI0
aatp8
Rp9
.ccollections
OrderedDict
p0
((lp1
(lp2
S'timestamp'
p3
aF7.679431915283203
aa(lp4
S'distance'
p5
aF75.98929023742676
aa(lp6
S'state'
p7
aI0
aatp8
Rp9
.ccollections
OrderedDict
p0
((lp1
(lp2
S'timestamp'
p3
aF7.679653882980347
aa(lp4
S'distance'
p5
aF75.98929023742676
aa(lp6
S'state'
p7
aI0
aatp8
Rp9
.ccollections
OrderedDict
p0
((lp1
(lp2
S'timestamp'
p3
aF7.686033010482788
aa(lp4
S'distance'
p5
aF75.98929023742676
aa(lp6
S'state'
p7
aI0
aatp8
Rp9
.ccollections
OrderedDict
p0
((lp1
(lp2
S'timestamp'
p3
aF7.68757700920105
aa(lp4
S'distance'
p5
aF75.98929023742676
aa(lp6
S'state'
p7
aI0
aatp8
Rp9
.ccollections
OrderedDict
p0
((lp1
(lp2
S'timestamp'
p3
aF7.696089029312134
aa(lp4
S'distance'
p5
aF75.98929023742676
aa(lp6
S'state'
p7
aI0
aatp8
Rp9
.ccollections
OrderedDict
p0
((lp1
(lp2
S'timestamp'
p3
aF7.696786880493164
aa(lp4
S'distance'
p5
aF75.98929023742676
aa(lp6
S'state'
p7
aI0
aatp8
Rp9
.ccollections
OrderedDict
p0
((lp1
(lp2
S'timestamp'
p3
aF7.705997943878174
aa(lp4
S'distance'
p5
aF75.98929023742676
aa(lp6
S'state'
p7
aI0
aatp8
Rp9
.ccollections
OrderedDict
p0
((lp1
(lp2
S'timestamp'
p3
aF7.7065019607543945
aa(lp4
S'distance'
p5
aF75.98929023742676
aa(lp6
S'state'
p7
aI0
aatp8
Rp9
.ccollections
OrderedDict
p0
((lp1
(lp2
S'timestamp'
p3
aF7.717609882354736
aa(lp4
S'distance'
p5
aF75.98929023742676
aa(lp6
S'state'
p7
aI0
aatp8
Rp9
.ccollections
OrderedDict
p0
((lp1
(lp2
S'timestamp'
p3
aF7.719158887863159
aa(lp4
S'distance'
p5
aF75.98929023742676
aa(lp6
S'state'
p7
aI0
aatp8
Rp9
.ccollections
OrderedDict
p0
((lp1
(lp2
S'timestamp'
p3
aF7.736577033996582
aa(lp4
S'distance'
p5
aF75.98929023742676
aa(lp6
S'state'
p7
aI0
aatp8
Rp9
.ccollections
OrderedDict
p0
((lp1
(lp2
S'timestamp'
p3
aF7.737091064453125
aa(lp4
S'distance'
p5
aF75.98929023742676
aa(lp6
S'state'
p7
aI0
aatp8
Rp9
.ccollections
OrderedDict
p0
((lp1
(lp2
S'timestamp'
p3
aF7.738308906555176
aa(lp4
S'distance'
p5
aF75.98929023742676
aa(lp6
S'state'
p7
aI0
aatp8
Rp9
.ccollections
OrderedDict
p0
((lp1
(lp2
S'timestamp'
p3
aF7.738379955291748
aa(lp4
S'distance'
p5
aF75.98929023742676
aa(lp6
S'state'
p7
aI0
aatp8
Rp9
.ccollections
OrderedDict
p0
((lp1
(lp2
S'timestamp'
p3
aF7.745871067047119
aa(lp4
S'distance'
p5
aF75.98929023742676
aa(lp6
S'state'
p7
aI0
aatp8
Rp9
.ccollections
OrderedDict
p0
((lp1
(lp2
S'timestamp'
p3
aF7.7466349601745605
aa(lp4
S'distance'
p5
aF75.98929023742676
aa(lp6
S'state'
p7
aI0
aatp8
Rp9
.ccollections
OrderedDict
p0
((lp1
(lp2
S'timestamp'
p3
aF7.760494947433472
aa(lp4
S'distance'
p5
aF75.98929023742676
aa(lp6
S'state'
p7
aI0
aatp8
Rp9
.ccollections
OrderedDict
p0
((lp1
(lp2
S'timestamp'
p3
aF7.760667085647583
aa(lp4
S'distance'
p5
aF75.98929023742676
aa(lp6
S'state'
p7
aI0
aatp8
Rp9
.ccollections
OrderedDict
p0
((lp1
(lp2
S'timestamp'
p3
aF7.7658960819244385
aa(lp4
S'distance'
p5
aF75.98929023742676
aa(lp6
S'state'
p7
aI0
aatp8
Rp9
.ccollections
OrderedDict
p0
((lp1
(lp2
S'timestamp'
p3
aF7.766587972640991
aa(lp4
S'distance'
p5
aF75.98929023742676
aa(lp6
S'state'
p7
aI0
aatp8
Rp9
.ccollections
OrderedDict
p0
((lp1
(lp2
S'timestamp'
p3
aF7.775943994522095
aa(lp4
S'distance'
p5
aF75.98929023742676
aa(lp6
S'state'
p7
aI0
aatp8
Rp9
.ccollections
OrderedDict
p0
((lp1
(lp2
S'timestamp'
p3
aF7.776583909988403
aa(lp4
S'distance'
p5
aF75.98929023742676
aa(lp6
S'state'
p7
aI0
aatp8
Rp9
.ccollections
OrderedDict
p0
((lp1
(lp2
S'timestamp'
p3
aF7.786036968231201
aa(lp4
S'distance'
p5
aF75.98929023742676
aa(lp6
S'state'
p7
aI0
aatp8
Rp9
.ccollections
OrderedDict
p0
((lp1
(lp2
S'timestamp'
p3
aF7.786422967910767
aa(lp4
S'distance'
p5
aF75.98929023742676
aa(lp6
S'state'
p7
aI0
aatp8
Rp9
.ccollections
OrderedDict
p0
((lp1
(lp2
S'timestamp'
p3
aF7.796273946762085
aa(lp4
S'distance'
p5
aF75.98929023742676
aa(lp6
S'state'
p7
aI0
aatp8
Rp9
.ccollections
OrderedDict
p0
((lp1
(lp2
S'timestamp'
p3
aF7.7964959144592285
aa(lp4
S'distance'
p5
aF75.98929023742676
aa(lp6
S'state'
p7
aI0
aatp8
Rp9
.ccollections
OrderedDict
p0
((lp1
(lp2
S'timestamp'
p3
aF7.807743072509766
aa(lp4
S'distance'
p5
aF75.98929023742676
aa(lp6
S'state'
p7
aI0
aatp8
Rp9
.ccollections
OrderedDict
p0
((lp1
(lp2
S'timestamp'
p3
aF7.80781102180481
aa(lp4
S'distance'
p5
aF75.98929023742676
aa(lp6
S'state'
p7
aI0
aatp8
Rp9
.ccollections
OrderedDict
p0
((lp1
(lp2
S'timestamp'
p3
aF7.817270994186401
aa(lp4
S'distance'
p5
aF75.98929023742676
aa(lp6
S'state'
p7
aI0
aatp8
Rp9
.ccollections
OrderedDict
p0
((lp1
(lp2
S'timestamp'
p3
aF7.81748104095459
aa(lp4
S'distance'
p5
aF75.98929023742676
aa(lp6
S'state'
p7
aI0
aatp8
Rp9
.ccollections
OrderedDict
p0
((lp1
(lp2
S'timestamp'
p3
aF7.827785015106201
aa(lp4
S'distance'
p5
aF75.98929023742676
aa(lp6
S'state'
p7
aI0
aatp8
Rp9
.ccollections
OrderedDict
p0
((lp1
(lp2
S'timestamp'
p3
aF7.827863931655884
aa(lp4
S'distance'
p5
aF75.98929023742676
aa(lp6
S'state'
p7
aI0
aatp8
Rp9
.ccollections
OrderedDict
p0
((lp1
(lp2
S'timestamp'
p3
aF7.838192939758301
aa(lp4
S'distance'
p5
aF75.98929023742676
aa(lp6
S'state'
p7
aI0
aatp8
Rp9
.ccollections
OrderedDict
p0
((lp1
(lp2
S'timestamp'
p3
aF7.838396072387695
aa(lp4
S'distance'
p5
aF75.98929023742676
aa(lp6
S'state'
p7
aI0
aatp8
Rp9
.ccollections
OrderedDict
p0
((lp1
(lp2
S'timestamp'
p3
aF7.846113920211792
aa(lp4
S'distance'
p5
aF75.98929023742676
aa(lp6
S'state'
p7
aI0
aatp8
Rp9
.ccollections
OrderedDict
p0
((lp1
(lp2
S'timestamp'
p3
aF7.847884893417358
aa(lp4
S'distance'
p5
aF75.98929023742676
aa(lp6
S'state'
p7
aI0
aatp8
Rp9
.ccollections
OrderedDict
p0
((lp1
(lp2
S'timestamp'
p3
aF7.857836008071899
aa(lp4
S'distance'
p5
aF75.98929023742676
aa(lp6
S'state'
p7
aI0
aatp8
Rp9
.ccollections
OrderedDict
p0
((lp1
(lp2
S'timestamp'
p3
aF7.857908010482788
aa(lp4
S'distance'
p5
aF75.98929023742676
aa(lp6
S'state'
p7
aI0
aatp8
Rp9
.ccollections
OrderedDict
p0
((lp1
(lp2
S'timestamp'
p3
aF7.866041898727417
aa(lp4
S'distance'
p5
aF75.98929023742676
aa(lp6
S'state'
p7
aI0
aatp8
Rp9
.ccollections
OrderedDict
p0
((lp1
(lp2
S'timestamp'
p3
aF7.867945909500122
aa(lp4
S'distance'
p5
aF75.98929023742676
aa(lp6
S'state'
p7
aI0
aatp8
Rp9
.ccollections
OrderedDict
p0
((lp1
(lp2
S'timestamp'
p3
aF7.876621961593628
aa(lp4
S'distance'
p5
aF75.98929023742676
aa(lp6
S'state'
p7
aI0
aatp8
Rp9
.ccollections
OrderedDict
p0
((lp1
(lp2
S'timestamp'
p3
aF7.877551078796387
aa(lp4
S'distance'
p5
aF75.98929023742676
aa(lp6
S'state'
p7
aI0
aatp8
Rp9
.ccollections
OrderedDict
p0
((lp1
(lp2
S'timestamp'
p3
aF7.886686086654663
aa(lp4
S'distance'
p5
aF75.98929023742676
aa(lp6
S'state'
p7
aI0
aatp8
Rp9
.ccollections
OrderedDict
p0
((lp1
(lp2
S'timestamp'
p3
aF7.887305021286011
aa(lp4
S'distance'
p5
aF75.98929023742676
aa(lp6
S'state'
p7
aI0
aatp8
Rp9
.ccollections
OrderedDict
p0
((lp1
(lp2
S'timestamp'
p3
aF7.8976030349731445
aa(lp4
S'distance'
p5
aF75.98929023742676
aa(lp6
S'state'
p7
aI0
aatp8
Rp9
.ccollections
OrderedDict
p0
((lp1
(lp2
S'timestamp'
p3
aF7.897679090499878
aa(lp4
S'distance'
p5
aF75.98929023742676
aa(lp6
S'state'
p7
aI0
aatp8
Rp9
.ccollections
OrderedDict
p0
((lp1
(lp2
S'timestamp'
p3
aF7.905849933624268
aa(lp4
S'distance'
p5
aF75.98929023742676
aa(lp6
S'state'
p7
aI0
aatp8
Rp9
.ccollections
OrderedDict
p0
((lp1
(lp2
S'timestamp'
p3
aF7.906595945358276
aa(lp4
S'distance'
p5
aF75.98929023742676
aa(lp6
S'state'
p7
aI0
aatp8
Rp9
.ccollections
OrderedDict
p0
((lp1
(lp2
S'timestamp'
p3
aF7.916640043258667
aa(lp4
S'distance'
p5
aF75.98929023742676
aa(lp6
S'state'
p7
aI0
aatp8
Rp9
.ccollections
OrderedDict
p0
((lp1
(lp2
S'timestamp'
p3
aF7.917038917541504
aa(lp4
S'distance'
p5
aF75.98929023742676
aa(lp6
S'state'
p7
aI0
aatp8
Rp9
.ccollections
OrderedDict
p0
((lp1
(lp2
S'timestamp'
p3
aF7.9264750480651855
aa(lp4
S'distance'
p5
aF75.98929023742676
aa(lp6
S'state'
p7
aI0
aatp8
Rp9
.ccollections
OrderedDict
p0
((lp1
(lp2
S'timestamp'
p3
aF7.92737889289856
aa(lp4
S'distance'
p5
aF75.98929023742676
aa(lp6
S'state'
p7
aI0
aatp8
Rp9
.ccollections
OrderedDict
p0
((lp1
(lp2
S'timestamp'
p3
aF7.935944080352783
aa(lp4
S'distance'
p5
aF75.98929023742676
aa(lp6
S'state'
p7
aI0
aatp8
Rp9
.ccollections
OrderedDict
p0
((lp1
(lp2
S'timestamp'
p3
aF7.93681001663208
aa(lp4
S'distance'
p5
aF75.98929023742676
aa(lp6
S'state'
p7
aI0
aatp8
Rp9
.ccollections
OrderedDict
p0
((lp1
(lp2
S'timestamp'
p3
aF7.94719386100769
aa(lp4
S'distance'
p5
aF75.98929023742676
aa(lp6
S'state'
p7
aI0
aatp8
Rp9
.ccollections
OrderedDict
p0
((lp1
(lp2
S'timestamp'
p3
aF7.947383880615234
aa(lp4
S'distance'
p5
aF75.98929023742676
aa(lp6
S'state'
p7
aI0
aatp8
Rp9
.ccollections
OrderedDict
p0
((lp1
(lp2
S'timestamp'
p3
aF7.957004070281982
aa(lp4
S'distance'
p5
aF75.98929023742676
aa(lp6
S'state'
p7
aI0
aatp8
Rp9
.ccollections
OrderedDict
p0
((lp1
(lp2
S'timestamp'
p3
aF7.957853078842163
aa(lp4
S'distance'
p5
aF75.98929023742676
aa(lp6
S'state'
p7
aI0
aatp8
Rp9
.ccollections
OrderedDict
p0
((lp1
(lp2
S'timestamp'
p3
aF7.966449975967407
aa(lp4
S'distance'
p5
aF75.98929023742676
aa(lp6
S'state'
p7
aI0
aatp8
Rp9
.ccollections
OrderedDict
p0
((lp1
(lp2
S'timestamp'
p3
aF7.967427015304565
aa(lp4
S'distance'
p5
aF75.98929023742676
aa(lp6
S'state'
p7
aI0
aatp8
Rp9
.ccollections
OrderedDict
p0
((lp1
(lp2
S'timestamp'
p3
aF7.975970029830933
aa(lp4
S'distance'
p5
aF75.98929023742676
aa(lp6
S'state'
p7
aI0
aatp8
Rp9
.ccollections
OrderedDict
p0
((lp1
(lp2
S'timestamp'
p3
aF7.976459980010986
aa(lp4
S'distance'
p5
aF75.98929023742676
aa(lp6
S'state'
p7
aI0
aatp8
Rp9
.ccollections
OrderedDict
p0
((lp1
(lp2
S'timestamp'
p3
aF7.985801935195923
aa(lp4
S'distance'
p5
aF75.98929023742676
aa(lp6
S'state'
p7
aI0
aatp8
Rp9
.ccollections
OrderedDict
p0
((lp1
(lp2
S'timestamp'
p3
aF7.986621856689453
aa(lp4
S'distance'
p5
aF75.98929023742676
aa(lp6
S'state'
p7
aI0
aatp8
Rp9
.ccollections
OrderedDict
p0
((lp1
(lp2
S'timestamp'
p3
aF7.996599912643433
aa(lp4
S'distance'
p5
aF75.98929023742676
aa(lp6
S'state'
p7
aI0
aatp8
Rp9
.ccollections
OrderedDict
p0
((lp1
(lp2
S'timestamp'
p3
aF7.997066974639893
aa(lp4
S'distance'
p5
aF75.98929023742676
aa(lp6
S'state'
p7
aI0
aatp8
Rp9
.